(dp0
S'models'
p1
(lp2
(dp3
S'sentences'
p4
(lp5
(dp6
S'parsetree'
p7
S'(ROOT (S (S (NP (JJ US-ASEAN) (NN group)) (VP (VBZ likes) (NP (NNP Thai) (JJ economic) (NNS efforts)))) (: ;) (S (NP (NNS delegates)) (VP (VBG going) (PP (TO to) (NP (NNP APEC) (NN summit))))) (. .)))'
p8
sS'text'
p9
S'US-ASEAN group likes Thai economic efforts; delegates going to APEC summit.'
p10
sS'dependencies'
p11
(lp12
(S'root'
p13
S'ROOT'
p14
S'likes'
p15
tp16
a(S'amod'
p17
S'group'
p18
S'US-ASEAN'
p19
tp20
a(S'nsubj'
p21
S'likes'
p22
S'group'
p23
tp24
a(S'nn'
p25
S'efforts'
p26
S'Thai'
p27
tp28
a(S'amod'
p29
S'efforts'
p30
S'economic'
p31
tp32
a(S'dobj'
p33
S'likes'
p34
S'efforts'
p35
tp36
a(S'nsubj'
p37
S'going'
p38
S'delegates'
p39
tp40
a(S'parataxis'
p41
S'likes'
p42
S'going'
p43
tp44
a(S'nn'
p45
S'summit'
p46
S'APEC'
p47
tp48
a(S'prep_to'
p49
S'going'
p50
S'summit'
p51
tp52
asS'indexeddependencies'
p53
(lp54
(g13
S'ROOT-0'
p55
S'likes-3'
p56
tp57
a(g17
S'group-2'
p58
S'US-ASEAN-1'
p59
tp60
a(g21
S'likes-3'
p61
S'group-2'
p62
tp63
a(g25
S'efforts-6'
p64
S'Thai-4'
p65
tp66
a(g29
S'efforts-6'
p67
S'economic-5'
p68
tp69
a(g33
S'likes-3'
p70
S'efforts-6'
p71
tp72
a(g37
S'going-9'
p73
S'delegates-8'
p74
tp75
a(g41
S'likes-3'
p76
S'going-9'
p77
tp78
a(g45
S'summit-12'
p79
S'APEC-11'
p80
tp81
a(g49
S'going-9'
p82
S'summit-12'
p83
tp84
asS'words'
p85
(lp86
(S'US-ASEAN'
p87
(dp88
S'NamedEntityTag'
p89
S'O'
p90
sS'CharacterOffsetEnd'
p91
S'9'
p92
sS'Lemma'
p93
S'us-asean'
p94
sS'PartOfSpeech'
p95
S'JJ'
p96
sS'CharacterOffsetBegin'
p97
S'1'
p98
stp99
a(S'group'
p100
(dp101
S'NamedEntityTag'
p102
g90
sS'CharacterOffsetEnd'
p103
S'15'
p104
sS'Lemma'
p105
S'group'
p106
sS'PartOfSpeech'
p107
S'NN'
p108
sS'CharacterOffsetBegin'
p109
S'10'
p110
stp111
a(S'likes'
p112
(dp113
S'NamedEntityTag'
p114
g90
sS'CharacterOffsetEnd'
p115
S'21'
p116
sS'Lemma'
p117
S'like'
p118
sS'PartOfSpeech'
p119
S'VBZ'
p120
sS'CharacterOffsetBegin'
p121
S'16'
p122
stp123
a(S'Thai'
p124
(dp125
S'NamedEntityTag'
p126
S'MISC'
p127
sS'CharacterOffsetEnd'
p128
S'26'
p129
sS'Lemma'
p130
S'Thai'
p131
sS'PartOfSpeech'
p132
S'NNP'
p133
sS'CharacterOffsetBegin'
p134
S'22'
p135
stp136
a(S'economic'
p137
(dp138
S'NamedEntityTag'
p139
g90
sS'CharacterOffsetEnd'
p140
S'35'
p141
sS'Lemma'
p142
S'economic'
p143
sS'PartOfSpeech'
p144
S'JJ'
p145
sS'CharacterOffsetBegin'
p146
S'27'
p147
stp148
a(S'efforts'
p149
(dp150
S'NamedEntityTag'
p151
g90
sS'CharacterOffsetEnd'
p152
S'43'
p153
sS'Lemma'
p154
S'effort'
p155
sS'PartOfSpeech'
p156
S'NNS'
p157
sS'CharacterOffsetBegin'
p158
S'36'
p159
stp160
a(S';'
p161
(dp162
S'NamedEntityTag'
p163
g90
sS'CharacterOffsetEnd'
p164
S'44'
p165
sS'Lemma'
p166
g161
sS'PartOfSpeech'
p167
S':'
p168
sS'CharacterOffsetBegin'
p169
S'43'
p170
stp171
a(S'delegates'
p172
(dp173
S'NamedEntityTag'
p174
g90
sS'CharacterOffsetEnd'
p175
S'54'
p176
sS'Lemma'
p177
S'delegate'
p178
sS'PartOfSpeech'
p179
S'NNS'
p180
sS'CharacterOffsetBegin'
p181
S'45'
p182
stp183
a(S'going'
p184
(dp185
S'NamedEntityTag'
p186
g90
sS'CharacterOffsetEnd'
p187
S'60'
p188
sS'Lemma'
p189
S'go'
p190
sS'PartOfSpeech'
p191
S'VBG'
p192
sS'CharacterOffsetBegin'
p193
S'55'
p194
stp195
a(S'to'
p196
(dp197
S'NamedEntityTag'
p198
g90
sS'CharacterOffsetEnd'
p199
S'63'
p200
sS'Lemma'
p201
S'to'
p202
sS'PartOfSpeech'
p203
S'TO'
p204
sS'CharacterOffsetBegin'
p205
S'61'
p206
stp207
a(S'APEC'
p208
(dp209
S'NamedEntityTag'
p210
S'ORGANIZATION'
p211
sS'CharacterOffsetEnd'
p212
S'68'
p213
sS'Lemma'
p214
S'APEC'
p215
sS'PartOfSpeech'
p216
S'NNP'
p217
sS'CharacterOffsetBegin'
p218
S'64'
p219
stp220
a(S'summit'
p221
(dp222
S'NamedEntityTag'
p223
g90
sS'CharacterOffsetEnd'
p224
S'75'
p225
sS'Lemma'
p226
S'summit'
p227
sS'PartOfSpeech'
p228
S'NN'
p229
sS'CharacterOffsetBegin'
p230
S'69'
p231
stp232
a(S'.'
p233
(dp234
S'NamedEntityTag'
p235
g90
sS'CharacterOffsetEnd'
p236
S'76'
p237
sS'Lemma'
p238
g233
sS'PartOfSpeech'
p239
g233
sS'CharacterOffsetBegin'
p240
S'75'
p241
stp242
asasa(dp243
g4
(lp244
(dp245
g7
S'(ROOT (S (NP (NP (NNP US) (NNS investors)) (PP (IN in) (NP (NNP Southeast) (NNP Asia)))) (VP (VBP applaud) (S (NP (NNS efforts)) (VP (TO to) (VP (VB bolster) (NP (NNP Thai) (NN economy))))))))'
p246
sg9
S'US investors in Southeast Asia applaud efforts to bolster Thai economy'
p247
sg11
(lp248
(S'root'
p249
S'ROOT'
p250
S'applaud'
p251
tp252
a(S'nn'
p253
S'investors'
p254
S'US'
p255
tp256
a(S'nsubj'
p257
S'applaud'
p258
S'investors'
p259
tp260
a(S'nn'
p261
S'Asia'
p262
S'Southeast'
p263
tp264
a(S'prep_in'
p265
S'investors'
p266
S'Asia'
p267
tp268
a(S'nsubj'
p269
S'bolster'
p270
S'efforts'
p271
tp272
a(S'aux'
p273
S'bolster'
p274
S'to'
p275
tp276
a(S'xcomp'
p277
S'applaud'
p278
S'bolster'
p279
tp280
a(S'nn'
p281
S'economy'
p282
S'Thai'
p283
tp284
a(S'dobj'
p285
S'bolster'
p286
S'economy'
p287
tp288
asg53
(lp289
(g249
S'ROOT-0'
p290
S'applaud-6'
p291
tp292
a(g253
S'investors-2'
p293
S'US-1'
p294
tp295
a(g257
S'applaud-6'
p296
S'investors-2'
p297
tp298
a(g261
S'Asia-5'
p299
S'Southeast-4'
p300
tp301
a(g265
S'investors-2'
p302
S'Asia-5'
p303
tp304
a(g269
S'bolster-9'
p305
S'efforts-7'
p306
tp307
a(g273
S'bolster-9'
p308
S'to-8'
p309
tp310
a(g277
S'applaud-6'
p311
S'bolster-9'
p312
tp313
a(g281
S'economy-11'
p314
S'Thai-10'
p315
tp316
a(g285
S'bolster-9'
p317
S'economy-11'
p318
tp319
asg85
(lp320
(S'US'
p321
(dp322
S'NamedEntityTag'
p323
S'LOCATION'
p324
sS'CharacterOffsetEnd'
p325
S'3'
p326
sS'Lemma'
p327
S'US'
p328
sS'PartOfSpeech'
p329
S'NNP'
p330
sS'CharacterOffsetBegin'
p331
g98
stp332
a(S'investors'
p333
(dp334
S'NamedEntityTag'
p335
g90
sS'CharacterOffsetEnd'
p336
S'13'
p337
sS'Lemma'
p338
S'investor'
p339
sS'PartOfSpeech'
p340
S'NNS'
p341
sS'CharacterOffsetBegin'
p342
S'4'
p343
stp344
a(S'in'
p345
(dp346
S'NamedEntityTag'
p347
g90
sS'CharacterOffsetEnd'
p348
S'16'
p349
sS'Lemma'
p350
S'in'
p351
sS'PartOfSpeech'
p352
S'IN'
p353
sS'CharacterOffsetBegin'
p354
S'14'
p355
stp356
a(S'Southeast'
p357
(dp358
S'NamedEntityTag'
p359
S'LOCATION'
p360
sS'CharacterOffsetEnd'
p361
S'26'
p362
sS'Lemma'
p363
S'Southeast'
p364
sS'PartOfSpeech'
p365
S'NNP'
p366
sS'CharacterOffsetBegin'
p367
S'17'
p368
stp369
a(S'Asia'
p370
(dp371
S'NamedEntityTag'
p372
S'LOCATION'
p373
sS'CharacterOffsetEnd'
p374
S'31'
p375
sS'Lemma'
p376
S'Asia'
p377
sS'PartOfSpeech'
p378
S'NNP'
p379
sS'CharacterOffsetBegin'
p380
S'27'
p381
stp382
a(S'applaud'
p383
(dp384
S'NamedEntityTag'
p385
g90
sS'CharacterOffsetEnd'
p386
S'39'
p387
sS'Lemma'
p388
S'applaud'
p389
sS'PartOfSpeech'
p390
S'VBP'
p391
sS'CharacterOffsetBegin'
p392
S'32'
p393
stp394
a(S'efforts'
p395
(dp396
S'NamedEntityTag'
p397
g90
sS'CharacterOffsetEnd'
p398
S'47'
p399
sS'Lemma'
p400
S'effort'
p401
sS'PartOfSpeech'
p402
S'NNS'
p403
sS'CharacterOffsetBegin'
p404
S'40'
p405
stp406
a(S'to'
p407
(dp408
S'NamedEntityTag'
p409
g90
sS'CharacterOffsetEnd'
p410
S'50'
p411
sS'Lemma'
p412
S'to'
p413
sS'PartOfSpeech'
p414
S'TO'
p415
sS'CharacterOffsetBegin'
p416
S'48'
p417
stp418
a(S'bolster'
p419
(dp420
S'NamedEntityTag'
p421
g90
sS'CharacterOffsetEnd'
p422
S'58'
p423
sS'Lemma'
p424
S'bolster'
p425
sS'PartOfSpeech'
p426
S'VB'
p427
sS'CharacterOffsetBegin'
p428
S'51'
p429
stp430
a(S'Thai'
p431
(dp432
S'NamedEntityTag'
p433
S'MISC'
p434
sS'CharacterOffsetEnd'
p435
S'63'
p436
sS'Lemma'
p437
S'Thai'
p438
sS'PartOfSpeech'
p439
S'NNP'
p440
sS'CharacterOffsetBegin'
p441
S'59'
p442
stp443
a(S'economy'
p444
(dp445
S'NamedEntityTag'
p446
g90
sS'CharacterOffsetEnd'
p447
S'71'
p448
sS'Lemma'
p449
S'economy'
p450
sS'PartOfSpeech'
p451
S'NN'
p452
sS'CharacterOffsetBegin'
p453
S'64'
p454
stp455
asasa(dp456
g4
(lp457
(dp458
g7
S'(ROOT (S (NP (NNP U.S.-ASEAN) (NNP Business) (NNP Council)) (VP (VBZ touts) (NP (NP (NNP Thai) (NNS efforts)) (PP (IN on) (NP (NN way)))) (PP (TO to) (NP (NN forum))))))'
p459
sg9
S'U.S.-ASEAN Business Council touts Thai efforts on way to forum'
p460
sg11
(lp461
(S'root'
p462
S'ROOT'
p463
S'touts'
p464
tp465
a(S'nn'
p466
S'Council'
p467
S'U.S.-ASEAN'
p468
tp469
a(S'nn'
p470
S'Council'
p471
S'Business'
p472
tp473
a(S'nsubj'
p474
S'touts'
p475
S'Council'
p476
tp477
a(S'nn'
p478
S'efforts'
p479
S'Thai'
p480
tp481
a(S'dobj'
p482
S'touts'
p483
S'efforts'
p484
tp485
a(S'prep_on'
p486
S'efforts'
p487
S'way'
p488
tp489
a(S'prep_to'
p490
S'touts'
p491
S'forum'
p492
tp493
asg53
(lp494
(g462
S'ROOT-0'
p495
S'touts-4'
p496
tp497
a(g466
S'Council-3'
p498
S'U.S.-ASEAN-1'
p499
tp500
a(g470
S'Council-3'
p501
S'Business-2'
p502
tp503
a(g474
S'touts-4'
p504
S'Council-3'
p505
tp506
a(g478
S'efforts-6'
p507
S'Thai-5'
p508
tp509
a(g482
S'touts-4'
p510
S'efforts-6'
p511
tp512
a(g486
S'efforts-6'
p513
S'way-8'
p514
tp515
a(g490
S'touts-4'
p516
S'forum-10'
p517
tp518
asg85
(lp519
(S'U.S.-ASEAN'
p520
(dp521
S'NamedEntityTag'
p522
S'ORGANIZATION'
p523
sS'CharacterOffsetEnd'
p524
S'11'
p525
sS'Lemma'
p526
S'U.S.-ASEAN'
p527
sS'PartOfSpeech'
p528
S'NNP'
p529
sS'CharacterOffsetBegin'
p530
g98
stp531
a(S'Business'
p532
(dp533
S'NamedEntityTag'
p534
S'ORGANIZATION'
p535
sS'CharacterOffsetEnd'
p536
S'20'
p537
sS'Lemma'
p538
S'Business'
p539
sS'PartOfSpeech'
p540
S'NNP'
p541
sS'CharacterOffsetBegin'
p542
S'12'
p543
stp544
a(S'Council'
p545
(dp546
S'NamedEntityTag'
p547
S'ORGANIZATION'
p548
sS'CharacterOffsetEnd'
p549
S'28'
p550
sS'Lemma'
p551
S'Council'
p552
sS'PartOfSpeech'
p553
S'NNP'
p554
sS'CharacterOffsetBegin'
p555
S'21'
p556
stp557
a(S'touts'
p558
(dp559
S'NamedEntityTag'
p560
g90
sS'CharacterOffsetEnd'
p561
S'34'
p562
sS'Lemma'
p563
S'tout'
p564
sS'PartOfSpeech'
p565
S'VBZ'
p566
sS'CharacterOffsetBegin'
p567
S'29'
p568
stp569
a(S'Thai'
p570
(dp571
S'NamedEntityTag'
p572
S'MISC'
p573
sS'CharacterOffsetEnd'
p574
S'39'
p575
sS'Lemma'
p576
S'Thai'
p577
sS'PartOfSpeech'
p578
S'NNP'
p579
sS'CharacterOffsetBegin'
p580
S'35'
p581
stp582
a(S'efforts'
p583
(dp584
S'NamedEntityTag'
p585
g90
sS'CharacterOffsetEnd'
p586
S'47'
p587
sS'Lemma'
p588
S'effort'
p589
sS'PartOfSpeech'
p590
S'NNS'
p591
sS'CharacterOffsetBegin'
p592
S'40'
p593
stp594
a(S'on'
p595
(dp596
S'NamedEntityTag'
p597
g90
sS'CharacterOffsetEnd'
p598
S'50'
p599
sS'Lemma'
p600
S'on'
p601
sS'PartOfSpeech'
p602
S'IN'
p603
sS'CharacterOffsetBegin'
p604
S'48'
p605
stp606
a(S'way'
p607
(dp608
S'NamedEntityTag'
p609
g90
sS'CharacterOffsetEnd'
p610
S'54'
p611
sS'Lemma'
p612
S'way'
p613
sS'PartOfSpeech'
p614
S'NN'
p615
sS'CharacterOffsetBegin'
p616
S'51'
p617
stp618
a(S'to'
p619
(dp620
S'NamedEntityTag'
p621
g90
sS'CharacterOffsetEnd'
p622
S'57'
p623
sS'Lemma'
p624
S'to'
p625
sS'PartOfSpeech'
p626
S'TO'
p627
sS'CharacterOffsetBegin'
p628
S'55'
p629
stp630
a(S'forum'
p631
(dp632
S'NamedEntityTag'
p633
g90
sS'CharacterOffsetEnd'
p634
S'63'
p635
sS'Lemma'
p636
S'forum'
p637
sS'PartOfSpeech'
p638
S'NN'
p639
sS'CharacterOffsetBegin'
p640
S'58'
p641
stp642
asasa(dp643
g4
(lp644
(dp645
g7
S'(ROOT (S (NP (NNP US) (NNS businessmen)) (VP (VBP laud) (S (NP (NP (NNP Thai) (JJ economic) (NN reform) (NNS plans)) (PP (IN as) (NP (NP (NN lead-in)) (PP (TO to) (NP (NNP Asia-Pac)))))) (VP (VB meet)))) (. .)))'
p646
sg9
S'US businessmen laud Thai economic reform plans as lead-in to Asia-Pac meet.'
p647
sg11
(lp648
(S'root'
p649
S'ROOT'
p650
S'laud'
p651
tp652
a(S'nn'
p653
S'businessmen'
p654
S'US'
p655
tp656
a(S'nsubj'
p657
S'laud'
p658
S'businessmen'
p659
tp660
a(S'nn'
p661
S'plans'
p662
S'Thai'
p663
tp664
a(S'amod'
p665
S'plans'
p666
S'economic'
p667
tp668
a(S'nn'
p669
S'plans'
p670
S'reform'
p671
tp672
a(S'nsubj'
p673
S'meet'
p674
S'plans'
p675
tp676
a(S'prep_as'
p677
S'plans'
p678
S'lead-in'
p679
tp680
a(S'prep_to'
p681
S'lead-in'
p682
S'Asia-Pac'
p683
tp684
a(S'ccomp'
p685
S'laud'
p686
S'meet'
p687
tp688
asg53
(lp689
(g649
S'ROOT-0'
p690
S'laud-3'
p691
tp692
a(g653
S'businessmen-2'
p693
S'US-1'
p694
tp695
a(g657
S'laud-3'
p696
S'businessmen-2'
p697
tp698
a(g661
S'plans-7'
p699
S'Thai-4'
p700
tp701
a(g665
S'plans-7'
p702
S'economic-5'
p703
tp704
a(g669
S'plans-7'
p705
S'reform-6'
p706
tp707
a(g673
S'meet-12'
p708
S'plans-7'
p709
tp710
a(g677
S'plans-7'
p711
S'lead-in-9'
p712
tp713
a(g681
S'lead-in-9'
p714
S'Asia-Pac-11'
p715
tp716
a(g685
S'laud-3'
p717
S'meet-12'
p718
tp719
asg85
(lp720
(S'US'
p721
(dp722
S'NamedEntityTag'
p723
S'LOCATION'
p724
sS'CharacterOffsetEnd'
p725
g326
sS'Lemma'
p726
S'US'
p727
sS'PartOfSpeech'
p728
S'NNP'
p729
sS'CharacterOffsetBegin'
p730
g98
stp731
a(S'businessmen'
p732
(dp733
S'NamedEntityTag'
p734
g90
sS'CharacterOffsetEnd'
p735
S'15'
p736
sS'Lemma'
p737
S'businessman'
p738
sS'PartOfSpeech'
p739
S'NNS'
p740
sS'CharacterOffsetBegin'
p741
g343
stp742
a(S'laud'
p743
(dp744
S'NamedEntityTag'
p745
g90
sS'CharacterOffsetEnd'
p746
S'20'
p747
sS'Lemma'
p748
S'laud'
p749
sS'PartOfSpeech'
p750
S'VBP'
p751
sS'CharacterOffsetBegin'
p752
S'16'
p753
stp754
a(S'Thai'
p755
(dp756
S'NamedEntityTag'
p757
S'MISC'
p758
sS'CharacterOffsetEnd'
p759
S'25'
p760
sS'Lemma'
p761
S'Thai'
p762
sS'PartOfSpeech'
p763
S'NNP'
p764
sS'CharacterOffsetBegin'
p765
S'21'
p766
stp767
a(S'economic'
p768
(dp769
S'NamedEntityTag'
p770
g90
sS'CharacterOffsetEnd'
p771
S'34'
p772
sS'Lemma'
p773
S'economic'
p774
sS'PartOfSpeech'
p775
S'JJ'
p776
sS'CharacterOffsetBegin'
p777
S'26'
p778
stp779
a(S'reform'
p780
(dp781
S'NamedEntityTag'
p782
g90
sS'CharacterOffsetEnd'
p783
S'41'
p784
sS'Lemma'
p785
S'reform'
p786
sS'PartOfSpeech'
p787
S'NN'
p788
sS'CharacterOffsetBegin'
p789
S'35'
p790
stp791
a(S'plans'
p792
(dp793
S'NamedEntityTag'
p794
g90
sS'CharacterOffsetEnd'
p795
S'47'
p796
sS'Lemma'
p797
S'plan'
p798
sS'PartOfSpeech'
p799
S'NNS'
p800
sS'CharacterOffsetBegin'
p801
S'42'
p802
stp803
a(S'as'
p804
(dp805
S'NamedEntityTag'
p806
g90
sS'CharacterOffsetEnd'
p807
S'50'
p808
sS'Lemma'
p809
S'as'
p810
sS'PartOfSpeech'
p811
S'IN'
p812
sS'CharacterOffsetBegin'
p813
S'48'
p814
stp815
a(S'lead-in'
p816
(dp817
S'NamedEntityTag'
p818
g90
sS'CharacterOffsetEnd'
p819
S'58'
p820
sS'Lemma'
p821
S'lead-in'
p822
sS'PartOfSpeech'
p823
S'NN'
p824
sS'CharacterOffsetBegin'
p825
S'51'
p826
stp827
a(S'to'
p828
(dp829
S'NamedEntityTag'
p830
g90
sS'CharacterOffsetEnd'
p831
S'61'
p832
sS'Lemma'
p833
S'to'
p834
sS'PartOfSpeech'
p835
S'TO'
p836
sS'CharacterOffsetBegin'
p837
S'59'
p838
stp839
a(S'Asia-Pac'
p840
(dp841
S'NamedEntityTag'
p842
S'MISC'
p843
sS'CharacterOffsetEnd'
p844
S'70'
p845
sS'Lemma'
p846
S'Asia-Pac'
p847
sS'PartOfSpeech'
p848
S'NNP'
p849
sS'CharacterOffsetBegin'
p850
S'62'
p851
stp852
a(S'meet'
p853
(dp854
S'NamedEntityTag'
p855
g90
sS'CharacterOffsetEnd'
p856
S'75'
p857
sS'Lemma'
p858
S'meet'
p859
sS'PartOfSpeech'
p860
S'VB'
p861
sS'CharacterOffsetBegin'
p862
S'71'
p863
stp864
a(g233
(dp865
S'NamedEntityTag'
p866
g90
sS'CharacterOffsetEnd'
p867
S'76'
p868
sS'Lemma'
p869
g233
sS'PartOfSpeech'
p870
g233
sS'CharacterOffsetBegin'
p871
S'75'
p872
stp873
asasasS'article'
p874
(dp875
S'coref'
p876
(lp877
(lp878
((S'Thailands'
p879
I1
I7
I27
I28
tp880
(S'Thailands'
p881
I0
I6
I16
I17
tp882
tp883
a((S'Thailand'
p884
I3
I0
I0
I1
tp885
(S'Thailands'
p886
I0
I6
I16
I17
tp887
tp888
aa(lp889
((S'Southeast Asia'
p890
I6
I8
I17
I19
tp891
(S'Southeast Asia on Monday'
p892
I0
I8
I7
I11
tp893
tp894
a((S'Southeast Asian'
p895
I8
I-1
I8
I10
tp896
(S'Southeast Asia on Monday'
p897
I0
I8
I7
I11
tp898
tp899
aa(lp900
((S'efforts'
p901
I8
I3
I3
I4
tp902
(S'efforts'
p903
I0
I2
I12
I13
tp904
tp905
aa(lp906
((S'the reform packages'
p907
I2
I3
I11
I14
tp908
(S'economic reform packages'
p909
I0
I3
I31
I34
tp910
tp911
aa(lp912
((S'they'
p913
I1
I0
I20
I21
tp914
(S'Thai Cabinet members'
p915
I1
I5
I3
I6
tp916
tp917
a((S'their'
p918
I1
I1
I31
I32
tp919
(S'Thai Cabinet members'
p920
I1
I5
I3
I6
tp921
tp922
aa(lp923
((S'The U.S.-ASEAN Business Council'
p924
I6
I3
I0
I4
tp925
(S'the U.S.-ASEAN Business Council'
p926
I1
I8
I15
I19
tp927
tp928
a((S'a private organization comprising about 300 U.S. companies with substantial investments in Southeast Asia'
p929
I6
I7
I5
I19
tp930
(S'the U.S.-ASEAN Business Council'
p931
I1
I8
I15
I19
tp932
tp933
aa(lp934
((S'David'
p935
I5
I4
I4
I5
tp936
(S'George David'
p937
I2
I1
I30
I32
tp938
tp939
a((S'David'
p940
I7
I0
I0
I1
tp941
(S'George David'
p942
I2
I1
I30
I32
tp943
tp944
a((S'David'
p945
I10
I0
I0
I1
tp946
(S'George David'
p947
I2
I1
I30
I32
tp948
tp949
a((S'he'
p950
I11
I-1
I29
I30
tp951
(S'George David'
p952
I2
I1
I30
I32
tp953
tp954
aa(lp955
((S'we'
p956
I2
I5
I15
I16
tp957
(S'We'
p958
I2
I0
I0
I1
tp959
tp960
aa(lp961
((S'years'
p962
I5
I3
I23
I24
tp963
(S'last years Asian economic crisis'
p964
I3
I6
I5
I10
tp965
tp966
aa(lp967
((S'This'
p968
I4
I0
I0
I1
tp969
(S'very aggressive , good reform'
p970
I4
I6
I2
I7
tp971
tp972
a((S'Its very impressive'
p973
I5
I0
I0
I3
tp974
(S'very aggressive , good reform'
p975
I4
I6
I2
I7
tp976
tp977
aa(lp978
((S'The delegation'
p979
I9
I1
I0
I2
tp980
(S'the delegation'
p981
I7
I7
I6
I8
tp982
tp983
aa(lp984
((S'the Asia-Pacific Economic Cooperation forum'
p985
I9
I2
I8
I13
tp986
(S'APEC'
p987
I11
I7
I7
I8
tp988
tp989
aa(lp990
((S'they'
p991
I11
I3
I3
I4
tp992
(S'the government leaders attending'
p993
I10
I3
I11
I15
tp994
tp995
aasg4
(lp996
(dp997
g7
S'(ROOT (S (NP (NP (DT A) (NN group)) (PP (IN of) (NP (NP (JJ high-powered) (NNP U.S.) (NNS investors)) (PP (IN in) (NP (NP (NNP Southeast) (NNP Asia)) (PP (IN on) (NP (NNP Monday)))))))) (VP (VBD applauded) (NP (NNS efforts)) (PP (TO to) (NP (NP (JJ perk)) (PP (IN up) (NP (NNPS Thailands))))) (S (VP (VBG staggering) (NP (NN economy)))) (, ,) (S (VP (VBG saying) (SBAR (S (NP (PRP they)) (VP (VBD had) (VP (VBN been) (VP (VBN assured) (PP (IN by) (NP (NP (JJ top) (NNP Thai) (NNS officials)) (SBAR (WHNP (WDT that)) (S (VP (VBP key) (SBAR (S (NP (JJ economic) (NN reform) (NNS packages)) (VP (MD will) (ADVP (RB soon)) (VP (VB be) (VP (VBN approved))))))))))))))))))) (. .)))'
p998
sg9
S'A group of high-powered U.S. investors in Southeast Asia on Monday applauded efforts to perk up Thailands staggering economy, saying they had been assured by top Thai officials that key economic reform packages will soon be approved.'
p999
sg11
(lp1000
(S'root'
p1001
S'ROOT'
p1002
S'applauded'
p1003
tp1004
a(S'det'
p1005
S'group'
p1006
S'A'
p1007
tp1008
a(S'nsubj'
p1009
S'applauded'
p1010
S'group'
p1011
tp1012
a(S'amod'
p1013
S'investors'
p1014
S'high-powered'
p1015
tp1016
a(S'nn'
p1017
S'investors'
p1018
S'U.S.'
p1019
tp1020
a(S'prep_of'
p1021
S'group'
p1022
S'investors'
p1023
tp1024
a(S'nn'
p1025
S'Asia'
p1026
S'Southeast'
p1027
tp1028
a(S'prep_in'
p1029
S'investors'
p1030
S'Asia'
p1031
tp1032
a(S'prep_on'
p1033
S'Asia'
p1034
S'Monday'
p1035
tp1036
a(S'dobj'
p1037
S'applauded'
p1038
S'efforts'
p1039
tp1040
a(S'prep_to'
p1041
S'applauded'
p1042
S'perk'
p1043
tp1044
a(S'prep_up'
p1045
S'perk'
p1046
S'Thailands'
p1047
tp1048
a(S'xcomp'
p1049
S'applauded'
p1050
S'staggering'
p1051
tp1052
a(S'dobj'
p1053
S'staggering'
p1054
S'economy'
p1055
tp1056
a(S'xcomp'
p1057
S'applauded'
p1058
S'saying'
p1059
tp1060
a(S'nsubjpass'
p1061
S'assured'
p1062
S'they'
p1063
tp1064
a(S'aux'
p1065
S'assured'
p1066
S'had'
p1067
tp1068
a(S'auxpass'
p1069
S'assured'
p1070
S'been'
p1071
tp1072
a(S'ccomp'
p1073
S'saying'
p1074
S'assured'
p1075
tp1076
a(S'amod'
p1077
S'officials'
p1078
S'top'
p1079
tp1080
a(S'nn'
p1081
S'officials'
p1082
S'Thai'
p1083
tp1084
a(S'agent'
p1085
S'assured'
p1086
S'officials'
p1087
tp1088
a(S'nsubj'
p1089
S'key'
p1090
S'that'
p1091
tp1092
a(S'rcmod'
p1093
S'officials'
p1094
S'key'
p1095
tp1096
a(S'amod'
p1097
S'packages'
p1098
S'economic'
p1099
tp1100
a(S'nn'
p1101
S'packages'
p1102
S'reform'
p1103
tp1104
a(S'nsubjpass'
p1105
S'approved'
p1106
S'packages'
p1107
tp1108
a(S'aux'
p1109
S'approved'
p1110
S'will'
p1111
tp1112
a(S'advmod'
p1113
S'approved'
p1114
S'soon'
p1115
tp1116
a(S'auxpass'
p1117
S'approved'
p1118
S'be'
p1119
tp1120
a(S'ccomp'
p1121
S'key'
p1122
S'approved'
p1123
tp1124
asg53
(lp1125
(g1001
S'ROOT-0'
p1126
S'applauded-12'
p1127
tp1128
a(g1005
S'group-2'
p1129
S'A-1'
p1130
tp1131
a(g1009
S'applauded-12'
p1132
S'group-2'
p1133
tp1134
a(g1013
S'investors-6'
p1135
S'high-powered-4'
p1136
tp1137
a(g1017
S'investors-6'
p1138
S'U.S.-5'
p1139
tp1140
a(g1021
S'group-2'
p1141
S'investors-6'
p1142
tp1143
a(g1025
S'Asia-9'
p1144
S'Southeast-8'
p1145
tp1146
a(g1029
S'investors-6'
p1147
S'Asia-9'
p1148
tp1149
a(g1033
S'Asia-9'
p1150
S'Monday-11'
p1151
tp1152
a(g1037
S'applauded-12'
p1153
S'efforts-13'
p1154
tp1155
a(g1041
S'applauded-12'
p1156
S'perk-15'
p1157
tp1158
a(g1045
S'perk-15'
p1159
S'Thailands-17'
p1160
tp1161
a(g1049
S'applauded-12'
p1162
S'staggering-18'
p1163
tp1164
a(g1053
S'staggering-18'
p1165
S'economy-19'
p1166
tp1167
a(g1057
S'applauded-12'
p1168
S'saying-21'
p1169
tp1170
a(g1061
S'assured-25'
p1171
S'they-22'
p1172
tp1173
a(g1065
S'assured-25'
p1174
S'had-23'
p1175
tp1176
a(g1069
S'assured-25'
p1177
S'been-24'
p1178
tp1179
a(g1073
S'saying-21'
p1180
S'assured-25'
p1181
tp1182
a(g1077
S'officials-29'
p1183
S'top-27'
p1184
tp1185
a(g1081
S'officials-29'
p1186
S'Thai-28'
p1187
tp1188
a(g1085
S'assured-25'
p1189
S'officials-29'
p1190
tp1191
a(g1089
S'key-31'
p1192
S'that-30'
p1193
tp1194
a(g1093
S'officials-29'
p1195
S'key-31'
p1196
tp1197
a(g1097
S'packages-34'
p1198
S'economic-32'
p1199
tp1200
a(g1101
S'packages-34'
p1201
S'reform-33'
p1202
tp1203
a(g1105
S'approved-38'
p1204
S'packages-34'
p1205
tp1206
a(g1109
S'approved-38'
p1207
S'will-35'
p1208
tp1209
a(g1113
S'approved-38'
p1210
S'soon-36'
p1211
tp1212
a(g1117
S'approved-38'
p1213
S'be-37'
p1214
tp1215
a(g1121
S'key-31'
p1216
S'approved-38'
p1217
tp1218
asg85
(lp1219
(g1007
(dp1220
S'NamedEntityTag'
p1221
g90
sS'CharacterOffsetEnd'
p1222
g98
sS'Lemma'
p1223
S'a'
p1224
sS'PartOfSpeech'
p1225
S'DT'
p1226
sS'CharacterOffsetBegin'
p1227
S'0'
p1228
stp1229
a(S'group'
p1230
(dp1231
S'NamedEntityTag'
p1232
g90
sS'CharacterOffsetEnd'
p1233
S'7'
p1234
sS'Lemma'
p1235
S'group'
p1236
sS'PartOfSpeech'
p1237
S'NN'
p1238
sS'CharacterOffsetBegin'
p1239
S'2'
p1240
stp1241
a(S'of'
p1242
(dp1243
S'NamedEntityTag'
p1244
g90
sS'CharacterOffsetEnd'
p1245
S'10'
p1246
sS'Lemma'
p1247
S'of'
p1248
sS'PartOfSpeech'
p1249
S'IN'
p1250
sS'CharacterOffsetBegin'
p1251
S'8'
p1252
stp1253
a(S'high-powered'
p1254
(dp1255
S'NamedEntityTag'
p1256
g90
sS'CharacterOffsetEnd'
p1257
S'23'
p1258
sS'Lemma'
p1259
S'high-powered'
p1260
sS'PartOfSpeech'
p1261
S'JJ'
p1262
sS'CharacterOffsetBegin'
p1263
S'11'
p1264
stp1265
a(S'U.S.'
p1266
(dp1267
S'NamedEntityTag'
p1268
S'LOCATION'
p1269
sS'CharacterOffsetEnd'
p1270
S'28'
p1271
sS'Lemma'
p1272
S'U.S.'
p1273
sS'PartOfSpeech'
p1274
S'NNP'
p1275
sS'CharacterOffsetBegin'
p1276
S'24'
p1277
stp1278
a(S'investors'
p1279
(dp1280
S'NamedEntityTag'
p1281
g90
sS'CharacterOffsetEnd'
p1282
S'38'
p1283
sS'Lemma'
p1284
S'investor'
p1285
sS'PartOfSpeech'
p1286
S'NNS'
p1287
sS'CharacterOffsetBegin'
p1288
S'29'
p1289
stp1290
a(S'in'
p1291
(dp1292
S'NamedEntityTag'
p1293
g90
sS'CharacterOffsetEnd'
p1294
S'41'
p1295
sS'Lemma'
p1296
S'in'
p1297
sS'PartOfSpeech'
p1298
S'IN'
p1299
sS'CharacterOffsetBegin'
p1300
S'39'
p1301
stp1302
a(S'Southeast'
p1303
(dp1304
S'NamedEntityTag'
p1305
S'LOCATION'
p1306
sS'CharacterOffsetEnd'
p1307
S'51'
p1308
sS'Lemma'
p1309
S'Southeast'
p1310
sS'PartOfSpeech'
p1311
S'NNP'
p1312
sS'CharacterOffsetBegin'
p1313
S'42'
p1314
stp1315
a(S'Asia'
p1316
(dp1317
S'NamedEntityTag'
p1318
S'LOCATION'
p1319
sS'CharacterOffsetEnd'
p1320
S'56'
p1321
sS'Lemma'
p1322
S'Asia'
p1323
sS'PartOfSpeech'
p1324
S'NNP'
p1325
sS'CharacterOffsetBegin'
p1326
S'52'
p1327
stp1328
a(S'on'
p1329
(dp1330
S'NamedEntityTag'
p1331
g90
sS'CharacterOffsetEnd'
p1332
S'59'
p1333
sS'Lemma'
p1334
S'on'
p1335
sS'PartOfSpeech'
p1336
S'IN'
p1337
sS'CharacterOffsetBegin'
p1338
S'57'
p1339
stp1340
a(S'Monday'
p1341
(dp1342
S'NormalizedNamedEntityTag'
p1343
S'XXXX-WXX-1'
p1344
sS'Timex'
p1345
S'<TIMEX3 tid="t1" type="DATE" value="XXXX-WXX-1">Monday</TIMEX3>'
p1346
sS'Lemma'
p1347
S'Monday'
p1348
sS'CharacterOffsetEnd'
p1349
S'66'
p1350
sS'PartOfSpeech'
p1351
S'NNP'
p1352
sS'CharacterOffsetBegin'
p1353
S'60'
p1354
sS'NamedEntityTag'
p1355
S'DATE'
p1356
stp1357
a(S'applauded'
p1358
(dp1359
S'NamedEntityTag'
p1360
g90
sS'CharacterOffsetEnd'
p1361
S'76'
p1362
sS'Lemma'
p1363
S'applaud'
p1364
sS'PartOfSpeech'
p1365
S'VBD'
p1366
sS'CharacterOffsetBegin'
p1367
S'67'
p1368
stp1369
a(S'efforts'
p1370
(dp1371
S'NamedEntityTag'
p1372
g90
sS'CharacterOffsetEnd'
p1373
S'84'
p1374
sS'Lemma'
p1375
S'effort'
p1376
sS'PartOfSpeech'
p1377
S'NNS'
p1378
sS'CharacterOffsetBegin'
p1379
S'77'
p1380
stp1381
a(S'to'
p1382
(dp1383
S'NamedEntityTag'
p1384
g90
sS'CharacterOffsetEnd'
p1385
S'87'
p1386
sS'Lemma'
p1387
S'to'
p1388
sS'PartOfSpeech'
p1389
S'TO'
p1390
sS'CharacterOffsetBegin'
p1391
S'85'
p1392
stp1393
a(S'perk'
p1394
(dp1395
S'NamedEntityTag'
p1396
g90
sS'CharacterOffsetEnd'
p1397
S'92'
p1398
sS'Lemma'
p1399
S'perk'
p1400
sS'PartOfSpeech'
p1401
S'JJ'
p1402
sS'CharacterOffsetBegin'
p1403
S'88'
p1404
stp1405
a(S'up'
p1406
(dp1407
S'NamedEntityTag'
p1408
g90
sS'CharacterOffsetEnd'
p1409
S'95'
p1410
sS'Lemma'
p1411
S'up'
p1412
sS'PartOfSpeech'
p1413
S'IN'
p1414
sS'CharacterOffsetBegin'
p1415
S'93'
p1416
stp1417
a(S'Thailands'
p1418
(dp1419
S'NamedEntityTag'
p1420
S'LOCATION'
p1421
sS'CharacterOffsetEnd'
p1422
S'105'
p1423
sS'Lemma'
p1424
S'Thailands'
p1425
sS'PartOfSpeech'
p1426
S'NNPS'
p1427
sS'CharacterOffsetBegin'
p1428
S'96'
p1429
stp1430
a(S'staggering'
p1431
(dp1432
S'NamedEntityTag'
p1433
g90
sS'CharacterOffsetEnd'
p1434
S'116'
p1435
sS'Lemma'
p1436
S'stagger'
p1437
sS'PartOfSpeech'
p1438
S'VBG'
p1439
sS'CharacterOffsetBegin'
p1440
S'106'
p1441
stp1442
a(S'economy'
p1443
(dp1444
S'NamedEntityTag'
p1445
g90
sS'CharacterOffsetEnd'
p1446
S'124'
p1447
sS'Lemma'
p1448
S'economy'
p1449
sS'PartOfSpeech'
p1450
S'NN'
p1451
sS'CharacterOffsetBegin'
p1452
S'117'
p1453
stp1454
a(S','
p1455
(dp1456
S'NamedEntityTag'
p1457
g90
sS'CharacterOffsetEnd'
p1458
S'125'
p1459
sS'Lemma'
p1460
g1455
sS'PartOfSpeech'
p1461
g1455
sS'CharacterOffsetBegin'
p1462
S'124'
p1463
stp1464
a(S'saying'
p1465
(dp1466
S'NamedEntityTag'
p1467
g90
sS'CharacterOffsetEnd'
p1468
S'132'
p1469
sS'Lemma'
p1470
S'say'
p1471
sS'PartOfSpeech'
p1472
S'VBG'
p1473
sS'CharacterOffsetBegin'
p1474
S'126'
p1475
stp1476
a(S'they'
p1477
(dp1478
S'NamedEntityTag'
p1479
g90
sS'CharacterOffsetEnd'
p1480
S'137'
p1481
sS'Lemma'
p1482
S'they'
p1483
sS'PartOfSpeech'
p1484
S'PRP'
p1485
sS'CharacterOffsetBegin'
p1486
S'133'
p1487
stp1488
a(S'had'
p1489
(dp1490
S'NamedEntityTag'
p1491
g90
sS'CharacterOffsetEnd'
p1492
S'141'
p1493
sS'Lemma'
p1494
S'have'
p1495
sS'PartOfSpeech'
p1496
S'VBD'
p1497
sS'CharacterOffsetBegin'
p1498
S'138'
p1499
stp1500
a(S'been'
p1501
(dp1502
S'NamedEntityTag'
p1503
g90
sS'CharacterOffsetEnd'
p1504
S'146'
p1505
sS'Lemma'
p1506
S'be'
p1507
sS'PartOfSpeech'
p1508
S'VBN'
p1509
sS'CharacterOffsetBegin'
p1510
S'142'
p1511
stp1512
a(S'assured'
p1513
(dp1514
S'NamedEntityTag'
p1515
g90
sS'CharacterOffsetEnd'
p1516
S'154'
p1517
sS'Lemma'
p1518
S'assure'
p1519
sS'PartOfSpeech'
p1520
S'VBN'
p1521
sS'CharacterOffsetBegin'
p1522
S'147'
p1523
stp1524
a(S'by'
p1525
(dp1526
S'NamedEntityTag'
p1527
g90
sS'CharacterOffsetEnd'
p1528
S'157'
p1529
sS'Lemma'
p1530
S'by'
p1531
sS'PartOfSpeech'
p1532
S'IN'
p1533
sS'CharacterOffsetBegin'
p1534
S'155'
p1535
stp1536
a(S'top'
p1537
(dp1538
S'NamedEntityTag'
p1539
g90
sS'CharacterOffsetEnd'
p1540
S'161'
p1541
sS'Lemma'
p1542
S'top'
p1543
sS'PartOfSpeech'
p1544
S'JJ'
p1545
sS'CharacterOffsetBegin'
p1546
S'158'
p1547
stp1548
a(S'Thai'
p1549
(dp1550
S'NamedEntityTag'
p1551
S'LOCATION'
p1552
sS'CharacterOffsetEnd'
p1553
S'166'
p1554
sS'Lemma'
p1555
S'Thai'
p1556
sS'PartOfSpeech'
p1557
S'NNP'
p1558
sS'CharacterOffsetBegin'
p1559
S'162'
p1560
stp1561
a(S'officials'
p1562
(dp1563
S'NamedEntityTag'
p1564
g90
sS'CharacterOffsetEnd'
p1565
S'176'
p1566
sS'Lemma'
p1567
S'official'
p1568
sS'PartOfSpeech'
p1569
S'NNS'
p1570
sS'CharacterOffsetBegin'
p1571
S'167'
p1572
stp1573
a(S'that'
p1574
(dp1575
S'NamedEntityTag'
p1576
g90
sS'CharacterOffsetEnd'
p1577
S'181'
p1578
sS'Lemma'
p1579
S'that'
p1580
sS'PartOfSpeech'
p1581
S'WDT'
p1582
sS'CharacterOffsetBegin'
p1583
S'177'
p1584
stp1585
a(S'key'
p1586
(dp1587
S'NamedEntityTag'
p1588
g90
sS'CharacterOffsetEnd'
p1589
S'185'
p1590
sS'Lemma'
p1591
S'key'
p1592
sS'PartOfSpeech'
p1593
S'VBP'
p1594
sS'CharacterOffsetBegin'
p1595
S'182'
p1596
stp1597
a(S'economic'
p1598
(dp1599
S'NamedEntityTag'
p1600
g90
sS'CharacterOffsetEnd'
p1601
S'194'
p1602
sS'Lemma'
p1603
S'economic'
p1604
sS'PartOfSpeech'
p1605
S'JJ'
p1606
sS'CharacterOffsetBegin'
p1607
S'186'
p1608
stp1609
a(S'reform'
p1610
(dp1611
S'NamedEntityTag'
p1612
g90
sS'CharacterOffsetEnd'
p1613
S'201'
p1614
sS'Lemma'
p1615
S'reform'
p1616
sS'PartOfSpeech'
p1617
S'NN'
p1618
sS'CharacterOffsetBegin'
p1619
S'195'
p1620
stp1621
a(S'packages'
p1622
(dp1623
S'NamedEntityTag'
p1624
g90
sS'CharacterOffsetEnd'
p1625
S'210'
p1626
sS'Lemma'
p1627
S'package'
p1628
sS'PartOfSpeech'
p1629
S'NNS'
p1630
sS'CharacterOffsetBegin'
p1631
S'202'
p1632
stp1633
a(S'will'
p1634
(dp1635
S'NamedEntityTag'
p1636
g90
sS'CharacterOffsetEnd'
p1637
S'215'
p1638
sS'Lemma'
p1639
S'will'
p1640
sS'PartOfSpeech'
p1641
S'MD'
p1642
sS'CharacterOffsetBegin'
p1643
S'211'
p1644
stp1645
a(S'soon'
p1646
(dp1647
S'NamedEntityTag'
p1648
g90
sS'CharacterOffsetEnd'
p1649
S'220'
p1650
sS'Lemma'
p1651
S'soon'
p1652
sS'PartOfSpeech'
p1653
S'RB'
p1654
sS'CharacterOffsetBegin'
p1655
S'216'
p1656
stp1657
a(S'be'
p1658
(dp1659
S'NamedEntityTag'
p1660
g90
sS'CharacterOffsetEnd'
p1661
S'223'
p1662
sS'Lemma'
p1663
S'be'
p1664
sS'PartOfSpeech'
p1665
S'VB'
p1666
sS'CharacterOffsetBegin'
p1667
S'221'
p1668
stp1669
a(S'approved'
p1670
(dp1671
S'NamedEntityTag'
p1672
g90
sS'CharacterOffsetEnd'
p1673
S'232'
p1674
sS'Lemma'
p1675
S'approve'
p1676
sS'PartOfSpeech'
p1677
S'VBN'
p1678
sS'CharacterOffsetBegin'
p1679
S'224'
p1680
stp1681
a(g233
(dp1682
S'NamedEntityTag'
p1683
g90
sS'CharacterOffsetEnd'
p1684
S'233'
p1685
sS'Lemma'
p1686
g233
sS'PartOfSpeech'
p1687
g233
sS'CharacterOffsetBegin'
p1688
S'232'
p1689
stp1690
asa(dp1691
g7
S'(ROOT (S (PP (IN After) (NP (NP (NNS meetings)) (PP (IN with) (NP (NNP Thai) (NNP Cabinet) (NNS members))))) (, ,) (PP (VBG including) (NP (NNP Prime) (NNP Minister) (NNP Chuan) (NNP Leekpai))) (, ,) (NP (NP (NNS members)) (PP (IN of) (NP (DT the) (NNP U.S.-ASEAN) (NNP Business) (NNP Council)))) (VP (VBD said) (SBAR (S (NP (PRP they)) (VP (VP (VBD were) (ADJP (JJ confident)) (PP (IN in) (NP (NP (DT the) (NN future)) (PP (IN of) (NP (NNPS Thailands) (NN economy)))))) (CC and) (VP (VBD promised) (SBAR (S (NP (PRP$ their) (NNS companies)) (VP (MD would) (VP (VB continue) (S (VP (TO to) (VP (VB invest) (ADVP (RB here) (CC and) (RB elsewhere)) (PP (IN in) (NP (DT the) (NN region))))))))))))))) (. .)))'
p1692
sg9
S'After meetings with Thai Cabinet members, including Prime Minister Chuan Leekpai, members of the U.S.-ASEAN Business Council said they were confident in the future of Thailands economy and promised their companies would continue to invest here and elsewhere in the region.'
p1693
sg11
(lp1694
(S'root'
p1695
S'ROOT'
p1696
S'said'
p1697
tp1698
a(S'prep_after'
p1699
S'said'
p1700
S'meetings'
p1701
tp1702
a(S'nn'
p1703
S'members'
p1704
S'Thai'
p1705
tp1706
a(S'nn'
p1707
S'members'
p1708
S'Cabinet'
p1709
tp1710
a(S'prep_with'
p1711
S'meetings'
p1712
S'members'
p1713
tp1714
a(S'nn'
p1715
S'Leekpai'
p1716
S'Prime'
p1717
tp1718
a(S'nn'
p1719
S'Leekpai'
p1720
S'Minister'
p1721
tp1722
a(S'nn'
p1723
S'Leekpai'
p1724
S'Chuan'
p1725
tp1726
a(S'prep_including'
p1727
S'said'
p1728
S'Leekpai'
p1729
tp1730
a(S'nsubj'
p1731
S'said'
p1732
S'members'
p1733
tp1734
a(S'det'
p1735
S'Council'
p1736
S'the'
p1737
tp1738
a(S'nn'
p1739
S'Council'
p1740
S'U.S.-ASEAN'
p1741
tp1742
a(S'nn'
p1743
S'Council'
p1744
S'Business'
p1745
tp1746
a(S'prep_of'
p1747
S'members'
p1748
S'Council'
p1749
tp1750
a(S'nsubj'
p1751
S'confident'
p1752
S'they'
p1753
tp1754
a(S'cop'
p1755
S'confident'
p1756
S'were'
p1757
tp1758
a(S'ccomp'
p1759
S'said'
p1760
S'confident'
p1761
tp1762
a(S'det'
p1763
S'future'
p1764
S'the'
p1765
tp1766
a(S'prep_in'
p1767
S'confident'
p1768
S'future'
p1769
tp1770
a(S'nn'
p1771
S'economy'
p1772
S'Thailands'
p1773
tp1774
a(S'prep_of'
p1775
S'future'
p1776
S'economy'
p1777
tp1778
a(S'conj_and'
p1779
S'confident'
p1780
S'promised'
p1781
tp1782
a(S'poss'
p1783
S'companies'
p1784
S'their'
p1785
tp1786
a(S'nsubj'
p1787
S'continue'
p1788
S'companies'
p1789
tp1790
a(S'aux'
p1791
S'continue'
p1792
S'would'
p1793
tp1794
a(S'ccomp'
p1795
S'promised'
p1796
S'continue'
p1797
tp1798
a(S'aux'
p1799
S'invest'
p1800
S'to'
p1801
tp1802
a(S'xcomp'
p1803
S'continue'
p1804
S'invest'
p1805
tp1806
a(S'advmod'
p1807
S'invest'
p1808
S'here'
p1809
tp1810
a(S'conj_and'
p1811
S'here'
p1812
S'elsewhere'
p1813
tp1814
a(S'det'
p1815
S'region'
p1816
S'the'
p1817
tp1818
a(S'prep_in'
p1819
S'invest'
p1820
S'region'
p1821
tp1822
asg53
(lp1823
(g1695
S'ROOT-0'
p1824
S'said-20'
p1825
tp1826
a(g1699
S'said-20'
p1827
S'meetings-2'
p1828
tp1829
a(g1703
S'members-6'
p1830
S'Thai-4'
p1831
tp1832
a(g1707
S'members-6'
p1833
S'Cabinet-5'
p1834
tp1835
a(g1711
S'meetings-2'
p1836
S'members-6'
p1837
tp1838
a(g1715
S'Leekpai-12'
p1839
S'Prime-9'
p1840
tp1841
a(g1719
S'Leekpai-12'
p1842
S'Minister-10'
p1843
tp1844
a(g1723
S'Leekpai-12'
p1845
S'Chuan-11'
p1846
tp1847
a(g1727
S'said-20'
p1848
S'Leekpai-12'
p1849
tp1850
a(g1731
S'said-20'
p1851
S'members-14'
p1852
tp1853
a(g1735
S'Council-19'
p1854
S'the-16'
p1855
tp1856
a(g1739
S'Council-19'
p1857
S'U.S.-ASEAN-17'
p1858
tp1859
a(g1743
S'Council-19'
p1860
S'Business-18'
p1861
tp1862
a(g1747
S'members-14'
p1863
S'Council-19'
p1864
tp1865
a(g1751
S'confident-23'
p1866
S'they-21'
p1867
tp1868
a(g1755
S'confident-23'
p1869
S'were-22'
p1870
tp1871
a(g1759
S'said-20'
p1872
S'confident-23'
p1873
tp1874
a(g1763
S'future-26'
p1875
S'the-25'
p1876
tp1877
a(g1767
S'confident-23'
p1878
S'future-26'
p1879
tp1880
a(g1771
S'economy-29'
p1881
S'Thailands-28'
p1882
tp1883
a(g1775
S'future-26'
p1884
S'economy-29'
p1885
tp1886
a(g1779
S'confident-23'
p1887
S'promised-31'
p1888
tp1889
a(g1783
S'companies-33'
p1890
S'their-32'
p1891
tp1892
a(g1787
S'continue-35'
p1893
S'companies-33'
p1894
tp1895
a(g1791
S'continue-35'
p1896
S'would-34'
p1897
tp1898
a(g1795
S'promised-31'
p1899
S'continue-35'
p1900
tp1901
a(g1799
S'invest-37'
p1902
S'to-36'
p1903
tp1904
a(g1803
S'continue-35'
p1905
S'invest-37'
p1906
tp1907
a(g1807
S'invest-37'
p1908
S'here-38'
p1909
tp1910
a(g1811
S'here-38'
p1911
S'elsewhere-40'
p1912
tp1913
a(g1815
S'region-43'
p1914
S'the-42'
p1915
tp1916
a(g1819
S'invest-37'
p1917
S'region-43'
p1918
tp1919
asg85
(lp1920
(S'After'
p1921
(dp1922
S'NamedEntityTag'
p1923
g90
sS'CharacterOffsetEnd'
p1924
S'239'
p1925
sS'Lemma'
p1926
S'after'
p1927
sS'PartOfSpeech'
p1928
S'IN'
p1929
sS'CharacterOffsetBegin'
p1930
S'234'
p1931
stp1932
a(S'meetings'
p1933
(dp1934
S'NamedEntityTag'
p1935
g90
sS'CharacterOffsetEnd'
p1936
S'248'
p1937
sS'Lemma'
p1938
S'meeting'
p1939
sS'PartOfSpeech'
p1940
S'NNS'
p1941
sS'CharacterOffsetBegin'
p1942
S'240'
p1943
stp1944
a(S'with'
p1945
(dp1946
S'NamedEntityTag'
p1947
g90
sS'CharacterOffsetEnd'
p1948
S'253'
p1949
sS'Lemma'
p1950
S'with'
p1951
sS'PartOfSpeech'
p1952
S'IN'
p1953
sS'CharacterOffsetBegin'
p1954
S'249'
p1955
stp1956
a(S'Thai'
p1957
(dp1958
S'NamedEntityTag'
p1959
S'MISC'
p1960
sS'CharacterOffsetEnd'
p1961
S'258'
p1962
sS'Lemma'
p1963
S'Thai'
p1964
sS'PartOfSpeech'
p1965
S'NNP'
p1966
sS'CharacterOffsetBegin'
p1967
S'254'
p1968
stp1969
a(S'Cabinet'
p1970
(dp1971
S'NamedEntityTag'
p1972
g90
sS'CharacterOffsetEnd'
p1973
S'266'
p1974
sS'Lemma'
p1975
S'Cabinet'
p1976
sS'PartOfSpeech'
p1977
S'NNP'
p1978
sS'CharacterOffsetBegin'
p1979
S'259'
p1980
stp1981
a(S'members'
p1982
(dp1983
S'NamedEntityTag'
p1984
g90
sS'CharacterOffsetEnd'
p1985
S'274'
p1986
sS'Lemma'
p1987
S'member'
p1988
sS'PartOfSpeech'
p1989
S'NNS'
p1990
sS'CharacterOffsetBegin'
p1991
S'267'
p1992
stp1993
a(g1455
(dp1994
S'NamedEntityTag'
p1995
g90
sS'CharacterOffsetEnd'
p1996
S'275'
p1997
sS'Lemma'
p1998
g1455
sS'PartOfSpeech'
p1999
g1455
sS'CharacterOffsetBegin'
p2000
S'274'
p2001
stp2002
a(S'including'
p2003
(dp2004
S'NamedEntityTag'
p2005
g90
sS'CharacterOffsetEnd'
p2006
S'285'
p2007
sS'Lemma'
p2008
S'include'
p2009
sS'PartOfSpeech'
p2010
S'VBG'
p2011
sS'CharacterOffsetBegin'
p2012
S'276'
p2013
stp2014
a(S'Prime'
p2015
(dp2016
S'NamedEntityTag'
p2017
g90
sS'CharacterOffsetEnd'
p2018
S'291'
p2019
sS'Lemma'
p2020
S'Prime'
p2021
sS'PartOfSpeech'
p2022
S'NNP'
p2023
sS'CharacterOffsetBegin'
p2024
S'286'
p2025
stp2026
a(S'Minister'
p2027
(dp2028
S'NamedEntityTag'
p2029
g90
sS'CharacterOffsetEnd'
p2030
S'300'
p2031
sS'Lemma'
p2032
S'Minister'
p2033
sS'PartOfSpeech'
p2034
S'NNP'
p2035
sS'CharacterOffsetBegin'
p2036
S'292'
p2037
stp2038
a(S'Chuan'
p2039
(dp2040
S'NamedEntityTag'
p2041
S'PERSON'
p2042
sS'CharacterOffsetEnd'
p2043
S'306'
p2044
sS'Lemma'
p2045
S'Chuan'
p2046
sS'PartOfSpeech'
p2047
S'NNP'
p2048
sS'CharacterOffsetBegin'
p2049
S'301'
p2050
stp2051
a(S'Leekpai'
p2052
(dp2053
S'NamedEntityTag'
p2054
S'PERSON'
p2055
sS'CharacterOffsetEnd'
p2056
S'314'
p2057
sS'Lemma'
p2058
S'Leekpai'
p2059
sS'PartOfSpeech'
p2060
S'NNP'
p2061
sS'CharacterOffsetBegin'
p2062
S'307'
p2063
stp2064
a(g1455
(dp2065
S'NamedEntityTag'
p2066
g90
sS'CharacterOffsetEnd'
p2067
S'315'
p2068
sS'Lemma'
p2069
g1455
sS'PartOfSpeech'
p2070
g1455
sS'CharacterOffsetBegin'
p2071
S'314'
p2072
stp2073
a(S'members'
p2074
(dp2075
S'NamedEntityTag'
p2076
g90
sS'CharacterOffsetEnd'
p2077
S'323'
p2078
sS'Lemma'
p2079
S'member'
p2080
sS'PartOfSpeech'
p2081
S'NNS'
p2082
sS'CharacterOffsetBegin'
p2083
S'316'
p2084
stp2085
a(S'of'
p2086
(dp2087
S'NamedEntityTag'
p2088
g90
sS'CharacterOffsetEnd'
p2089
S'326'
p2090
sS'Lemma'
p2091
S'of'
p2092
sS'PartOfSpeech'
p2093
S'IN'
p2094
sS'CharacterOffsetBegin'
p2095
S'324'
p2096
stp2097
a(S'the'
p2098
(dp2099
S'NamedEntityTag'
p2100
g90
sS'CharacterOffsetEnd'
p2101
S'330'
p2102
sS'Lemma'
p2103
S'the'
p2104
sS'PartOfSpeech'
p2105
S'DT'
p2106
sS'CharacterOffsetBegin'
p2107
S'327'
p2108
stp2109
a(S'U.S.-ASEAN'
p2110
(dp2111
S'NamedEntityTag'
p2112
S'ORGANIZATION'
p2113
sS'CharacterOffsetEnd'
p2114
S'341'
p2115
sS'Lemma'
p2116
S'U.S.-ASEAN'
p2117
sS'PartOfSpeech'
p2118
S'NNP'
p2119
sS'CharacterOffsetBegin'
p2120
S'331'
p2121
stp2122
a(S'Business'
p2123
(dp2124
S'NamedEntityTag'
p2125
S'ORGANIZATION'
p2126
sS'CharacterOffsetEnd'
p2127
S'350'
p2128
sS'Lemma'
p2129
S'Business'
p2130
sS'PartOfSpeech'
p2131
S'NNP'
p2132
sS'CharacterOffsetBegin'
p2133
S'342'
p2134
stp2135
a(S'Council'
p2136
(dp2137
S'NamedEntityTag'
p2138
S'ORGANIZATION'
p2139
sS'CharacterOffsetEnd'
p2140
S'358'
p2141
sS'Lemma'
p2142
S'Council'
p2143
sS'PartOfSpeech'
p2144
S'NNP'
p2145
sS'CharacterOffsetBegin'
p2146
S'351'
p2147
stp2148
a(S'said'
p2149
(dp2150
S'NamedEntityTag'
p2151
g90
sS'CharacterOffsetEnd'
p2152
S'363'
p2153
sS'Lemma'
p2154
S'say'
p2155
sS'PartOfSpeech'
p2156
S'VBD'
p2157
sS'CharacterOffsetBegin'
p2158
S'359'
p2159
stp2160
a(S'they'
p2161
(dp2162
S'NamedEntityTag'
p2163
g90
sS'CharacterOffsetEnd'
p2164
S'368'
p2165
sS'Lemma'
p2166
S'they'
p2167
sS'PartOfSpeech'
p2168
S'PRP'
p2169
sS'CharacterOffsetBegin'
p2170
S'364'
p2171
stp2172
a(S'were'
p2173
(dp2174
S'NamedEntityTag'
p2175
g90
sS'CharacterOffsetEnd'
p2176
S'373'
p2177
sS'Lemma'
p2178
S'be'
p2179
sS'PartOfSpeech'
p2180
S'VBD'
p2181
sS'CharacterOffsetBegin'
p2182
S'369'
p2183
stp2184
a(S'confident'
p2185
(dp2186
S'NamedEntityTag'
p2187
g90
sS'CharacterOffsetEnd'
p2188
S'383'
p2189
sS'Lemma'
p2190
S'confident'
p2191
sS'PartOfSpeech'
p2192
S'JJ'
p2193
sS'CharacterOffsetBegin'
p2194
S'374'
p2195
stp2196
a(S'in'
p2197
(dp2198
S'NamedEntityTag'
p2199
g90
sS'CharacterOffsetEnd'
p2200
S'386'
p2201
sS'Lemma'
p2202
S'in'
p2203
sS'PartOfSpeech'
p2204
S'IN'
p2205
sS'CharacterOffsetBegin'
p2206
S'384'
p2207
stp2208
a(S'the'
p2209
(dp2210
S'NormalizedNamedEntityTag'
p2211
S'FUTURE_REF'
p2212
sS'Timex'
p2213
S'<TIMEX3 tid="t2" type="DATE" value="FUTURE_REF">the future</TIMEX3>'
p2214
sS'Lemma'
p2215
S'the'
p2216
sS'CharacterOffsetEnd'
p2217
S'390'
p2218
sS'PartOfSpeech'
p2219
S'DT'
p2220
sS'CharacterOffsetBegin'
p2221
S'387'
p2222
sS'NamedEntityTag'
p2223
S'DATE'
p2224
stp2225
a(S'future'
p2226
(dp2227
S'NormalizedNamedEntityTag'
p2228
S'FUTURE_REF'
p2229
sS'Timex'
p2230
S'<TIMEX3 tid="t2" type="DATE" value="FUTURE_REF">the future</TIMEX3>'
p2231
sS'Lemma'
p2232
S'future'
p2233
sS'CharacterOffsetEnd'
p2234
S'397'
p2235
sS'PartOfSpeech'
p2236
S'NN'
p2237
sS'CharacterOffsetBegin'
p2238
S'391'
p2239
sS'NamedEntityTag'
p2240
S'DATE'
p2241
stp2242
a(S'of'
p2243
(dp2244
S'NamedEntityTag'
p2245
g90
sS'CharacterOffsetEnd'
p2246
S'400'
p2247
sS'Lemma'
p2248
S'of'
p2249
sS'PartOfSpeech'
p2250
S'IN'
p2251
sS'CharacterOffsetBegin'
p2252
S'398'
p2253
stp2254
a(S'Thailands'
p2255
(dp2256
S'NamedEntityTag'
p2257
S'LOCATION'
p2258
sS'CharacterOffsetEnd'
p2259
S'410'
p2260
sS'Lemma'
p2261
S'Thailands'
p2262
sS'PartOfSpeech'
p2263
S'NNPS'
p2264
sS'CharacterOffsetBegin'
p2265
S'401'
p2266
stp2267
a(S'economy'
p2268
(dp2269
S'NamedEntityTag'
p2270
g90
sS'CharacterOffsetEnd'
p2271
S'418'
p2272
sS'Lemma'
p2273
S'economy'
p2274
sS'PartOfSpeech'
p2275
S'NN'
p2276
sS'CharacterOffsetBegin'
p2277
S'411'
p2278
stp2279
a(S'and'
p2280
(dp2281
S'NamedEntityTag'
p2282
g90
sS'CharacterOffsetEnd'
p2283
S'422'
p2284
sS'Lemma'
p2285
S'and'
p2286
sS'PartOfSpeech'
p2287
S'CC'
p2288
sS'CharacterOffsetBegin'
p2289
S'419'
p2290
stp2291
a(S'promised'
p2292
(dp2293
S'NamedEntityTag'
p2294
g90
sS'CharacterOffsetEnd'
p2295
S'431'
p2296
sS'Lemma'
p2297
S'promise'
p2298
sS'PartOfSpeech'
p2299
S'VBD'
p2300
sS'CharacterOffsetBegin'
p2301
S'423'
p2302
stp2303
a(S'their'
p2304
(dp2305
S'NamedEntityTag'
p2306
g90
sS'CharacterOffsetEnd'
p2307
S'437'
p2308
sS'Lemma'
p2309
S'they'
p2310
sS'PartOfSpeech'
p2311
S'PRP$'
p2312
sS'CharacterOffsetBegin'
p2313
S'432'
p2314
stp2315
a(S'companies'
p2316
(dp2317
S'NamedEntityTag'
p2318
g90
sS'CharacterOffsetEnd'
p2319
S'447'
p2320
sS'Lemma'
p2321
S'company'
p2322
sS'PartOfSpeech'
p2323
S'NNS'
p2324
sS'CharacterOffsetBegin'
p2325
S'438'
p2326
stp2327
a(S'would'
p2328
(dp2329
S'NamedEntityTag'
p2330
g90
sS'CharacterOffsetEnd'
p2331
S'453'
p2332
sS'Lemma'
p2333
S'would'
p2334
sS'PartOfSpeech'
p2335
S'MD'
p2336
sS'CharacterOffsetBegin'
p2337
S'448'
p2338
stp2339
a(S'continue'
p2340
(dp2341
S'NamedEntityTag'
p2342
g90
sS'CharacterOffsetEnd'
p2343
S'462'
p2344
sS'Lemma'
p2345
S'continue'
p2346
sS'PartOfSpeech'
p2347
S'VB'
p2348
sS'CharacterOffsetBegin'
p2349
S'454'
p2350
stp2351
a(S'to'
p2352
(dp2353
S'NamedEntityTag'
p2354
g90
sS'CharacterOffsetEnd'
p2355
S'465'
p2356
sS'Lemma'
p2357
S'to'
p2358
sS'PartOfSpeech'
p2359
S'TO'
p2360
sS'CharacterOffsetBegin'
p2361
S'463'
p2362
stp2363
a(S'invest'
p2364
(dp2365
S'NamedEntityTag'
p2366
g90
sS'CharacterOffsetEnd'
p2367
S'472'
p2368
sS'Lemma'
p2369
S'invest'
p2370
sS'PartOfSpeech'
p2371
S'VB'
p2372
sS'CharacterOffsetBegin'
p2373
S'466'
p2374
stp2375
a(S'here'
p2376
(dp2377
S'NamedEntityTag'
p2378
g90
sS'CharacterOffsetEnd'
p2379
S'477'
p2380
sS'Lemma'
p2381
S'here'
p2382
sS'PartOfSpeech'
p2383
S'RB'
p2384
sS'CharacterOffsetBegin'
p2385
S'473'
p2386
stp2387
a(S'and'
p2388
(dp2389
S'NamedEntityTag'
p2390
g90
sS'CharacterOffsetEnd'
p2391
S'481'
p2392
sS'Lemma'
p2393
S'and'
p2394
sS'PartOfSpeech'
p2395
S'CC'
p2396
sS'CharacterOffsetBegin'
p2397
S'478'
p2398
stp2399
a(S'elsewhere'
p2400
(dp2401
S'NamedEntityTag'
p2402
g90
sS'CharacterOffsetEnd'
p2403
S'491'
p2404
sS'Lemma'
p2405
S'elsewhere'
p2406
sS'PartOfSpeech'
p2407
S'RB'
p2408
sS'CharacterOffsetBegin'
p2409
S'482'
p2410
stp2411
a(S'in'
p2412
(dp2413
S'NamedEntityTag'
p2414
g90
sS'CharacterOffsetEnd'
p2415
S'494'
p2416
sS'Lemma'
p2417
S'in'
p2418
sS'PartOfSpeech'
p2419
S'IN'
p2420
sS'CharacterOffsetBegin'
p2421
S'492'
p2422
stp2423
a(S'the'
p2424
(dp2425
S'NamedEntityTag'
p2426
g90
sS'CharacterOffsetEnd'
p2427
S'498'
p2428
sS'Lemma'
p2429
S'the'
p2430
sS'PartOfSpeech'
p2431
S'DT'
p2432
sS'CharacterOffsetBegin'
p2433
S'495'
p2434
stp2435
a(S'region'
p2436
(dp2437
S'NamedEntityTag'
p2438
g90
sS'CharacterOffsetEnd'
p2439
S'505'
p2440
sS'Lemma'
p2441
S'region'
p2442
sS'PartOfSpeech'
p2443
S'NN'
p2444
sS'CharacterOffsetBegin'
p2445
S'499'
p2446
stp2447
a(g233
(dp2448
S'NamedEntityTag'
p2449
g90
sS'CharacterOffsetEnd'
p2450
S'506'
p2451
sS'Lemma'
p2452
g233
sS'PartOfSpeech'
p2453
g233
sS'CharacterOffsetBegin'
p2454
S'505'
p2455
stp2456
asa(dp2457
g7
S'(ROOT (SINV (S (NP (PRP We)) (VP (MD would) (VP (VB be) (ADJP (JJ quick)) (PP (IN as) (NP (NNS observers))) (S (VP (TO to) (VP (VB applaud) (NP (NP (DT the) (NN aggressiveness)) (PP (IN of) (NP (DT the) (NN reform) (NNS packages))))))) (SBAR (IN that) (S (NP (PRP we)) (VP (VBP see) (S (VP (VBG being) (VP (VBN proposed) (PP (IN in) (NP (NP (NN front)) (PP (IN of) (NP (PRP$ your) (NN government))))) (NP-TMP (NN today))))))))))) (, ,) (VP (VBD said) (NP (NN business) (NN council) (NN chairman))) (NP (NP (NNP George) (NNP David)) (, ,) (SBAR (WHNP (WP who)) (S (VP (VBZ is) (ADVP (RB also)) (NP (NP (NN chairman) (CC and) (NN CEO)) (PP (IN of) (NP (NNP United) (NNPS Technologies) (NNP Corp.)))))))) (. .)))'
p2458
sg9
S'We would be quick as observers to applaud the aggressiveness of the reform packages that we see being proposed in front of your government today, said business council chairman George David, who is also chairman and CEO of United Technologies Corp.'
p2459
sg11
(lp2460
(S'root'
p2461
S'ROOT'
p2462
S'said'
p2463
tp2464
a(S'nsubj'
p2465
S'quick'
p2466
S'We'
p2467
tp2468
a(S'aux'
p2469
S'quick'
p2470
S'would'
p2471
tp2472
a(S'cop'
p2473
S'quick'
p2474
S'be'
p2475
tp2476
a(S'ccomp'
p2477
S'said'
p2478
S'quick'
p2479
tp2480
a(S'prep_as'
p2481
S'quick'
p2482
S'observers'
p2483
tp2484
a(S'aux'
p2485
S'applaud'
p2486
S'to'
p2487
tp2488
a(S'xcomp'
p2489
S'quick'
p2490
S'applaud'
p2491
tp2492
a(S'det'
p2493
S'aggressiveness'
p2494
S'the'
p2495
tp2496
a(S'dobj'
p2497
S'applaud'
p2498
S'aggressiveness'
p2499
tp2500
a(S'det'
p2501
S'packages'
p2502
S'the'
p2503
tp2504
a(S'nn'
p2505
S'packages'
p2506
S'reform'
p2507
tp2508
a(S'prep_of'
p2509
S'aggressiveness'
p2510
S'packages'
p2511
tp2512
a(S'mark'
p2513
S'see'
p2514
S'that'
p2515
tp2516
a(S'nsubj'
p2517
S'see'
p2518
S'we'
p2519
tp2520
a(S'ccomp'
p2521
S'quick'
p2522
S'see'
p2523
tp2524
a(S'auxpass'
p2525
S'proposed'
p2526
S'being'
p2527
tp2528
a(S'xcomp'
p2529
S'see'
p2530
S'proposed'
p2531
tp2532
a(S'poss'
p2533
S'government'
p2534
S'your'
p2535
tp2536
a(S'prep_in_front_of'
p2537
S'proposed'
p2538
S'government'
p2539
tp2540
a(S'tmod'
p2541
S'proposed'
p2542
S'today'
p2543
tp2544
a(S'nn'
p2545
S'chairman'
p2546
S'business'
p2547
tp2548
a(S'nn'
p2549
S'chairman'
p2550
S'council'
p2551
tp2552
a(S'dobj'
p2553
S'said'
p2554
S'chairman'
p2555
tp2556
a(S'nn'
p2557
S'David'
p2558
S'George'
p2559
tp2560
a(S'nsubj'
p2561
S'said'
p2562
S'David'
p2563
tp2564
a(S'nsubj'
p2565
S'chairman'
p2566
S'who'
p2567
tp2568
a(S'cop'
p2569
S'chairman'
p2570
S'is'
p2571
tp2572
a(S'advmod'
p2573
S'chairman'
p2574
S'also'
p2575
tp2576
a(S'rcmod'
p2577
S'David'
p2578
S'chairman'
p2579
tp2580
a(S'conj_and'
p2581
S'chairman'
p2582
S'CEO'
p2583
tp2584
a(S'nn'
p2585
S'Corp.'
p2586
S'United'
p2587
tp2588
a(S'nn'
p2589
S'Corp.'
p2590
S'Technologies'
p2591
tp2592
a(S'prep_of'
p2593
S'chairman'
p2594
S'Corp.'
p2595
tp2596
asg53
(lp2597
(g2461
S'ROOT-0'
p2598
S'said-27'
p2599
tp2600
a(g2465
S'quick-4'
p2601
S'We-1'
p2602
tp2603
a(g2469
S'quick-4'
p2604
S'would-2'
p2605
tp2606
a(g2473
S'quick-4'
p2607
S'be-3'
p2608
tp2609
a(g2477
S'said-27'
p2610
S'quick-4'
p2611
tp2612
a(g2481
S'quick-4'
p2613
S'observers-6'
p2614
tp2615
a(g2485
S'applaud-8'
p2616
S'to-7'
p2617
tp2618
a(g2489
S'quick-4'
p2619
S'applaud-8'
p2620
tp2621
a(g2493
S'aggressiveness-10'
p2622
S'the-9'
p2623
tp2624
a(g2497
S'applaud-8'
p2625
S'aggressiveness-10'
p2626
tp2627
a(g2501
S'packages-14'
p2628
S'the-12'
p2629
tp2630
a(g2505
S'packages-14'
p2631
S'reform-13'
p2632
tp2633
a(g2509
S'aggressiveness-10'
p2634
S'packages-14'
p2635
tp2636
a(g2513
S'see-17'
p2637
S'that-15'
p2638
tp2639
a(g2517
S'see-17'
p2640
S'we-16'
p2641
tp2642
a(g2521
S'quick-4'
p2643
S'see-17'
p2644
tp2645
a(g2525
S'proposed-19'
p2646
S'being-18'
p2647
tp2648
a(g2529
S'see-17'
p2649
S'proposed-19'
p2650
tp2651
a(g2533
S'government-24'
p2652
S'your-23'
p2653
tp2654
a(g2537
S'proposed-19'
p2655
S'government-24'
p2656
tp2657
a(g2541
S'proposed-19'
p2658
S'today-25'
p2659
tp2660
a(g2545
S'chairman-30'
p2661
S'business-28'
p2662
tp2663
a(g2549
S'chairman-30'
p2664
S'council-29'
p2665
tp2666
a(g2553
S'said-27'
p2667
S'chairman-30'
p2668
tp2669
a(g2557
S'David-32'
p2670
S'George-31'
p2671
tp2672
a(g2561
S'said-27'
p2673
S'David-32'
p2674
tp2675
a(g2565
S'chairman-37'
p2676
S'who-34'
p2677
tp2678
a(g2569
S'chairman-37'
p2679
S'is-35'
p2680
tp2681
a(g2573
S'chairman-37'
p2682
S'also-36'
p2683
tp2684
a(g2577
S'David-32'
p2685
S'chairman-37'
p2686
tp2687
a(g2581
S'chairman-37'
p2688
S'CEO-39'
p2689
tp2690
a(g2585
S'Corp.-43'
p2691
S'United-41'
p2692
tp2693
a(g2589
S'Corp.-43'
p2694
S'Technologies-42'
p2695
tp2696
a(g2593
S'chairman-37'
p2697
S'Corp.-43'
p2698
tp2699
asg85
(lp2700
(S'We'
p2701
(dp2702
S'NamedEntityTag'
p2703
g90
sS'CharacterOffsetEnd'
p2704
S'509'
p2705
sS'Lemma'
p2706
S'we'
p2707
sS'PartOfSpeech'
p2708
S'PRP'
p2709
sS'CharacterOffsetBegin'
p2710
S'507'
p2711
stp2712
a(S'would'
p2713
(dp2714
S'NamedEntityTag'
p2715
g90
sS'CharacterOffsetEnd'
p2716
S'515'
p2717
sS'Lemma'
p2718
S'would'
p2719
sS'PartOfSpeech'
p2720
S'MD'
p2721
sS'CharacterOffsetBegin'
p2722
S'510'
p2723
stp2724
a(S'be'
p2725
(dp2726
S'NamedEntityTag'
p2727
g90
sS'CharacterOffsetEnd'
p2728
S'518'
p2729
sS'Lemma'
p2730
S'be'
p2731
sS'PartOfSpeech'
p2732
S'VB'
p2733
sS'CharacterOffsetBegin'
p2734
S'516'
p2735
stp2736
a(S'quick'
p2737
(dp2738
S'NamedEntityTag'
p2739
g90
sS'CharacterOffsetEnd'
p2740
S'524'
p2741
sS'Lemma'
p2742
S'quick'
p2743
sS'PartOfSpeech'
p2744
S'JJ'
p2745
sS'CharacterOffsetBegin'
p2746
S'519'
p2747
stp2748
a(S'as'
p2749
(dp2750
S'NamedEntityTag'
p2751
g90
sS'CharacterOffsetEnd'
p2752
S'527'
p2753
sS'Lemma'
p2754
S'as'
p2755
sS'PartOfSpeech'
p2756
S'IN'
p2757
sS'CharacterOffsetBegin'
p2758
S'525'
p2759
stp2760
a(S'observers'
p2761
(dp2762
S'NamedEntityTag'
p2763
g90
sS'CharacterOffsetEnd'
p2764
S'537'
p2765
sS'Lemma'
p2766
S'observer'
p2767
sS'PartOfSpeech'
p2768
S'NNS'
p2769
sS'CharacterOffsetBegin'
p2770
S'528'
p2771
stp2772
a(S'to'
p2773
(dp2774
S'NamedEntityTag'
p2775
g90
sS'CharacterOffsetEnd'
p2776
S'540'
p2777
sS'Lemma'
p2778
S'to'
p2779
sS'PartOfSpeech'
p2780
S'TO'
p2781
sS'CharacterOffsetBegin'
p2782
S'538'
p2783
stp2784
a(S'applaud'
p2785
(dp2786
S'NamedEntityTag'
p2787
g90
sS'CharacterOffsetEnd'
p2788
S'548'
p2789
sS'Lemma'
p2790
S'applaud'
p2791
sS'PartOfSpeech'
p2792
S'VB'
p2793
sS'CharacterOffsetBegin'
p2794
S'541'
p2795
stp2796
a(S'the'
p2797
(dp2798
S'NamedEntityTag'
p2799
g90
sS'CharacterOffsetEnd'
p2800
S'552'
p2801
sS'Lemma'
p2802
S'the'
p2803
sS'PartOfSpeech'
p2804
S'DT'
p2805
sS'CharacterOffsetBegin'
p2806
S'549'
p2807
stp2808
a(S'aggressiveness'
p2809
(dp2810
S'NamedEntityTag'
p2811
g90
sS'CharacterOffsetEnd'
p2812
S'567'
p2813
sS'Lemma'
p2814
S'aggressiveness'
p2815
sS'PartOfSpeech'
p2816
S'NN'
p2817
sS'CharacterOffsetBegin'
p2818
S'553'
p2819
stp2820
a(S'of'
p2821
(dp2822
S'NamedEntityTag'
p2823
g90
sS'CharacterOffsetEnd'
p2824
S'570'
p2825
sS'Lemma'
p2826
S'of'
p2827
sS'PartOfSpeech'
p2828
S'IN'
p2829
sS'CharacterOffsetBegin'
p2830
S'568'
p2831
stp2832
a(S'the'
p2833
(dp2834
S'NamedEntityTag'
p2835
g90
sS'CharacterOffsetEnd'
p2836
S'574'
p2837
sS'Lemma'
p2838
S'the'
p2839
sS'PartOfSpeech'
p2840
S'DT'
p2841
sS'CharacterOffsetBegin'
p2842
S'571'
p2843
stp2844
a(S'reform'
p2845
(dp2846
S'NamedEntityTag'
p2847
g90
sS'CharacterOffsetEnd'
p2848
S'581'
p2849
sS'Lemma'
p2850
S'reform'
p2851
sS'PartOfSpeech'
p2852
S'NN'
p2853
sS'CharacterOffsetBegin'
p2854
S'575'
p2855
stp2856
a(S'packages'
p2857
(dp2858
S'NamedEntityTag'
p2859
g90
sS'CharacterOffsetEnd'
p2860
S'590'
p2861
sS'Lemma'
p2862
S'package'
p2863
sS'PartOfSpeech'
p2864
S'NNS'
p2865
sS'CharacterOffsetBegin'
p2866
S'582'
p2867
stp2868
a(S'that'
p2869
(dp2870
S'NamedEntityTag'
p2871
g90
sS'CharacterOffsetEnd'
p2872
S'595'
p2873
sS'Lemma'
p2874
S'that'
p2875
sS'PartOfSpeech'
p2876
S'IN'
p2877
sS'CharacterOffsetBegin'
p2878
S'591'
p2879
stp2880
a(S'we'
p2881
(dp2882
S'NamedEntityTag'
p2883
g90
sS'CharacterOffsetEnd'
p2884
S'598'
p2885
sS'Lemma'
p2886
S'we'
p2887
sS'PartOfSpeech'
p2888
S'PRP'
p2889
sS'CharacterOffsetBegin'
p2890
S'596'
p2891
stp2892
a(S'see'
p2893
(dp2894
S'NamedEntityTag'
p2895
g90
sS'CharacterOffsetEnd'
p2896
S'602'
p2897
sS'Lemma'
p2898
S'see'
p2899
sS'PartOfSpeech'
p2900
S'VBP'
p2901
sS'CharacterOffsetBegin'
p2902
S'599'
p2903
stp2904
a(S'being'
p2905
(dp2906
S'NamedEntityTag'
p2907
g90
sS'CharacterOffsetEnd'
p2908
S'608'
p2909
sS'Lemma'
p2910
S'be'
p2911
sS'PartOfSpeech'
p2912
S'VBG'
p2913
sS'CharacterOffsetBegin'
p2914
S'603'
p2915
stp2916
a(S'proposed'
p2917
(dp2918
S'NamedEntityTag'
p2919
g90
sS'CharacterOffsetEnd'
p2920
S'617'
p2921
sS'Lemma'
p2922
S'propose'
p2923
sS'PartOfSpeech'
p2924
S'VBN'
p2925
sS'CharacterOffsetBegin'
p2926
S'609'
p2927
stp2928
a(S'in'
p2929
(dp2930
S'NamedEntityTag'
p2931
g90
sS'CharacterOffsetEnd'
p2932
S'620'
p2933
sS'Lemma'
p2934
S'in'
p2935
sS'PartOfSpeech'
p2936
S'IN'
p2937
sS'CharacterOffsetBegin'
p2938
S'618'
p2939
stp2940
a(S'front'
p2941
(dp2942
S'NamedEntityTag'
p2943
g90
sS'CharacterOffsetEnd'
p2944
S'626'
p2945
sS'Lemma'
p2946
S'front'
p2947
sS'PartOfSpeech'
p2948
S'NN'
p2949
sS'CharacterOffsetBegin'
p2950
S'621'
p2951
stp2952
a(S'of'
p2953
(dp2954
S'NamedEntityTag'
p2955
g90
sS'CharacterOffsetEnd'
p2956
S'629'
p2957
sS'Lemma'
p2958
S'of'
p2959
sS'PartOfSpeech'
p2960
S'IN'
p2961
sS'CharacterOffsetBegin'
p2962
S'627'
p2963
stp2964
a(S'your'
p2965
(dp2966
S'NamedEntityTag'
p2967
g90
sS'CharacterOffsetEnd'
p2968
S'634'
p2969
sS'Lemma'
p2970
S'you'
p2971
sS'PartOfSpeech'
p2972
S'PRP$'
p2973
sS'CharacterOffsetBegin'
p2974
S'630'
p2975
stp2976
a(S'government'
p2977
(dp2978
S'NamedEntityTag'
p2979
g90
sS'CharacterOffsetEnd'
p2980
S'645'
p2981
sS'Lemma'
p2982
S'government'
p2983
sS'PartOfSpeech'
p2984
S'NN'
p2985
sS'CharacterOffsetBegin'
p2986
S'635'
p2987
stp2988
a(S'today'
p2989
(dp2990
S'NormalizedNamedEntityTag'
p2991
S'THIS'
p2992
sS'Timex'
p2993
S'<TIMEX3 alt_value="THIS P1D" anchorTimeID="t0" temporalFunction="true" tid="t3" type="DATE" valueFromFunction="tf0">today</TIMEX3>'
p2994
sS'Lemma'
p2995
S'today'
p2996
sS'CharacterOffsetEnd'
p2997
S'651'
p2998
sS'PartOfSpeech'
p2999
S'NN'
p3000
sS'CharacterOffsetBegin'
p3001
S'646'
p3002
sS'NamedEntityTag'
p3003
S'DATE'
p3004
stp3005
a(g1455
(dp3006
S'NamedEntityTag'
p3007
g90
sS'CharacterOffsetEnd'
p3008
S'652'
p3009
sS'Lemma'
p3010
g1455
sS'PartOfSpeech'
p3011
g1455
sS'CharacterOffsetBegin'
p3012
S'651'
p3013
stp3014
a(S'said'
p3015
(dp3016
S'NamedEntityTag'
p3017
g90
sS'CharacterOffsetEnd'
p3018
S'657'
p3019
sS'Lemma'
p3020
S'say'
p3021
sS'PartOfSpeech'
p3022
S'VBD'
p3023
sS'CharacterOffsetBegin'
p3024
S'653'
p3025
stp3026
a(S'business'
p3027
(dp3028
S'NamedEntityTag'
p3029
g90
sS'CharacterOffsetEnd'
p3030
S'666'
p3031
sS'Lemma'
p3032
S'business'
p3033
sS'PartOfSpeech'
p3034
S'NN'
p3035
sS'CharacterOffsetBegin'
p3036
S'658'
p3037
stp3038
a(S'council'
p3039
(dp3040
S'NamedEntityTag'
p3041
g90
sS'CharacterOffsetEnd'
p3042
S'674'
p3043
sS'Lemma'
p3044
S'council'
p3045
sS'PartOfSpeech'
p3046
S'NN'
p3047
sS'CharacterOffsetBegin'
p3048
S'667'
p3049
stp3050
a(S'chairman'
p3051
(dp3052
S'NamedEntityTag'
p3053
g90
sS'CharacterOffsetEnd'
p3054
S'683'
p3055
sS'Lemma'
p3056
S'chairman'
p3057
sS'PartOfSpeech'
p3058
S'NN'
p3059
sS'CharacterOffsetBegin'
p3060
S'675'
p3061
stp3062
a(S'George'
p3063
(dp3064
S'NamedEntityTag'
p3065
S'PERSON'
p3066
sS'CharacterOffsetEnd'
p3067
S'690'
p3068
sS'Lemma'
p3069
S'George'
p3070
sS'PartOfSpeech'
p3071
S'NNP'
p3072
sS'CharacterOffsetBegin'
p3073
S'684'
p3074
stp3075
a(S'David'
p3076
(dp3077
S'NamedEntityTag'
p3078
S'PERSON'
p3079
sS'CharacterOffsetEnd'
p3080
S'696'
p3081
sS'Lemma'
p3082
S'David'
p3083
sS'PartOfSpeech'
p3084
S'NNP'
p3085
sS'CharacterOffsetBegin'
p3086
S'691'
p3087
stp3088
a(g1455
(dp3089
S'NamedEntityTag'
p3090
g90
sS'CharacterOffsetEnd'
p3091
S'697'
p3092
sS'Lemma'
p3093
g1455
sS'PartOfSpeech'
p3094
g1455
sS'CharacterOffsetBegin'
p3095
S'696'
p3096
stp3097
a(S'who'
p3098
(dp3099
S'NamedEntityTag'
p3100
g90
sS'CharacterOffsetEnd'
p3101
S'701'
p3102
sS'Lemma'
p3103
S'who'
p3104
sS'PartOfSpeech'
p3105
S'WP'
p3106
sS'CharacterOffsetBegin'
p3107
S'698'
p3108
stp3109
a(S'is'
p3110
(dp3111
S'NamedEntityTag'
p3112
g90
sS'CharacterOffsetEnd'
p3113
S'704'
p3114
sS'Lemma'
p3115
S'be'
p3116
sS'PartOfSpeech'
p3117
S'VBZ'
p3118
sS'CharacterOffsetBegin'
p3119
S'702'
p3120
stp3121
a(S'also'
p3122
(dp3123
S'NamedEntityTag'
p3124
g90
sS'CharacterOffsetEnd'
p3125
S'709'
p3126
sS'Lemma'
p3127
S'also'
p3128
sS'PartOfSpeech'
p3129
S'RB'
p3130
sS'CharacterOffsetBegin'
p3131
S'705'
p3132
stp3133
a(S'chairman'
p3134
(dp3135
S'NamedEntityTag'
p3136
g90
sS'CharacterOffsetEnd'
p3137
S'718'
p3138
sS'Lemma'
p3139
S'chairman'
p3140
sS'PartOfSpeech'
p3141
S'NN'
p3142
sS'CharacterOffsetBegin'
p3143
S'710'
p3144
stp3145
a(S'and'
p3146
(dp3147
S'NamedEntityTag'
p3148
g90
sS'CharacterOffsetEnd'
p3149
S'722'
p3150
sS'Lemma'
p3151
S'and'
p3152
sS'PartOfSpeech'
p3153
S'CC'
p3154
sS'CharacterOffsetBegin'
p3155
S'719'
p3156
stp3157
a(S'CEO'
p3158
(dp3159
S'NamedEntityTag'
p3160
g90
sS'CharacterOffsetEnd'
p3161
S'726'
p3162
sS'Lemma'
p3163
S'ceo'
p3164
sS'PartOfSpeech'
p3165
S'NN'
p3166
sS'CharacterOffsetBegin'
p3167
S'723'
p3168
stp3169
a(S'of'
p3170
(dp3171
S'NamedEntityTag'
p3172
g90
sS'CharacterOffsetEnd'
p3173
S'729'
p3174
sS'Lemma'
p3175
S'of'
p3176
sS'PartOfSpeech'
p3177
S'IN'
p3178
sS'CharacterOffsetBegin'
p3179
S'727'
p3180
stp3181
a(S'United'
p3182
(dp3183
S'NamedEntityTag'
p3184
S'ORGANIZATION'
p3185
sS'CharacterOffsetEnd'
p3186
S'736'
p3187
sS'Lemma'
p3188
S'United'
p3189
sS'PartOfSpeech'
p3190
S'NNP'
p3191
sS'CharacterOffsetBegin'
p3192
S'730'
p3193
stp3194
a(S'Technologies'
p3195
(dp3196
S'NamedEntityTag'
p3197
S'ORGANIZATION'
p3198
sS'CharacterOffsetEnd'
p3199
S'749'
p3200
sS'Lemma'
p3201
S'Technologies'
p3202
sS'PartOfSpeech'
p3203
S'NNPS'
p3204
sS'CharacterOffsetBegin'
p3205
S'737'
p3206
stp3207
a(S'Corp.'
p3208
(dp3209
S'NamedEntityTag'
p3210
S'ORGANIZATION'
p3211
sS'CharacterOffsetEnd'
p3212
S'754'
p3213
sS'Lemma'
p3214
S'Corp.'
p3215
sS'PartOfSpeech'
p3216
S'NNP'
p3217
sS'CharacterOffsetBegin'
p3218
S'750'
p3219
stp3220
a(g233
(dp3221
S'NamedEntityTag'
p3222
g90
sS'CharacterOffsetEnd'
p3223
S'755'
p3224
sS'Lemma'
p3225
g233
sS'PartOfSpeech'
p3226
g233
sS'CharacterOffsetBegin'
p3227
S'754'
p3228
stp3229
asa(dp3230
g7
S'(ROOT (S (S (NP (NNP Thailand)) (VP (VBD was) (VP (VBN hit) (ADVP (RB hard)) (PP (IN by) (NP (NP (JJ last) (NNS years)) (NP (JJ Asian) (JJ economic) (NN crisis))))))) (, ,) (CC and) (S (NP (DT the) (VBN proposed) (JJ economic) (NN reform) (NN legislation)) (VP (VBZ focuses) (PP (IN on) (S (VP (VBG resolving) (NP (NP (DT the) (JJ massive) (JJ bad) (NN debt)) (PP (IN of) (NP (NP (JJ private) (NNS companies)) (, ,) (SBAR (WHNP (WDT which)) (S (VP (VBZ is) (VP (VBG hindering) (NP (DT a) (NN recovery)))))))))))))) (. .)))'
p3231
sg9
S'Thailand was hit hard by last years Asian economic crisis, and the proposed economic reform legislation focuses on resolving the massive bad debt of private companies, which is hindering a recovery.'
p3232
sg11
(lp3233
(S'root'
p3234
S'ROOT'
p3235
S'hit'
p3236
tp3237
a(S'nsubjpass'
p3238
S'hit'
p3239
S'Thailand'
p3240
tp3241
a(S'auxpass'
p3242
S'hit'
p3243
S'was'
p3244
tp3245
a(S'advmod'
p3246
S'hit'
p3247
S'hard'
p3248
tp3249
a(S'amod'
p3250
S'years'
p3251
S'last'
p3252
tp3253
a(S'agent'
p3254
S'hit'
p3255
S'years'
p3256
tp3257
a(S'amod'
p3258
S'crisis'
p3259
S'Asian'
p3260
tp3261
a(S'amod'
p3262
S'crisis'
p3263
S'economic'
p3264
tp3265
a(S'dep'
p3266
S'years'
p3267
S'crisis'
p3268
tp3269
a(S'det'
p3270
S'legislation'
p3271
S'the'
p3272
tp3273
a(S'amod'
p3274
S'legislation'
p3275
S'proposed'
p3276
tp3277
a(S'amod'
p3278
S'legislation'
p3279
S'economic'
p3280
tp3281
a(S'nn'
p3282
S'legislation'
p3283
S'reform'
p3284
tp3285
a(S'nsubj'
p3286
S'focuses'
p3287
S'legislation'
p3288
tp3289
a(S'conj_and'
p3290
S'hit'
p3291
S'focuses'
p3292
tp3293
a(S'prepc_on'
p3294
S'focuses'
p3295
S'resolving'
p3296
tp3297
a(S'det'
p3298
S'debt'
p3299
S'the'
p3300
tp3301
a(S'amod'
p3302
S'debt'
p3303
S'massive'
p3304
tp3305
a(S'amod'
p3306
S'debt'
p3307
S'bad'
p3308
tp3309
a(S'dobj'
p3310
S'resolving'
p3311
S'debt'
p3312
tp3313
a(S'amod'
p3314
S'companies'
p3315
S'private'
p3316
tp3317
a(S'prep_of'
p3318
S'debt'
p3319
S'companies'
p3320
tp3321
a(S'nsubj'
p3322
S'hindering'
p3323
S'which'
p3324
tp3325
a(S'aux'
p3326
S'hindering'
p3327
S'is'
p3328
tp3329
a(S'rcmod'
p3330
S'companies'
p3331
S'hindering'
p3332
tp3333
a(S'det'
p3334
S'recovery'
p3335
g1224
tp3336
a(S'dobj'
p3337
S'hindering'
p3338
S'recovery'
p3339
tp3340
asg53
(lp3341
(g3234
S'ROOT-0'
p3342
S'hit-3'
p3343
tp3344
a(g3238
S'hit-3'
p3345
S'Thailand-1'
p3346
tp3347
a(g3242
S'hit-3'
p3348
S'was-2'
p3349
tp3350
a(g3246
S'hit-3'
p3351
S'hard-4'
p3352
tp3353
a(g3250
S'years-7'
p3354
S'last-6'
p3355
tp3356
a(g3254
S'hit-3'
p3357
S'years-7'
p3358
tp3359
a(g3258
S'crisis-10'
p3360
S'Asian-8'
p3361
tp3362
a(g3262
S'crisis-10'
p3363
S'economic-9'
p3364
tp3365
a(g3266
S'years-7'
p3366
S'crisis-10'
p3367
tp3368
a(g3270
S'legislation-17'
p3369
S'the-13'
p3370
tp3371
a(g3274
S'legislation-17'
p3372
S'proposed-14'
p3373
tp3374
a(g3278
S'legislation-17'
p3375
S'economic-15'
p3376
tp3377
a(g3282
S'legislation-17'
p3378
S'reform-16'
p3379
tp3380
a(g3286
S'focuses-18'
p3381
S'legislation-17'
p3382
tp3383
a(g3290
S'hit-3'
p3384
S'focuses-18'
p3385
tp3386
a(g3294
S'focuses-18'
p3387
S'resolving-20'
p3388
tp3389
a(g3298
S'debt-24'
p3390
S'the-21'
p3391
tp3392
a(g3302
S'debt-24'
p3393
S'massive-22'
p3394
tp3395
a(g3306
S'debt-24'
p3396
S'bad-23'
p3397
tp3398
a(g3310
S'resolving-20'
p3399
S'debt-24'
p3400
tp3401
a(g3314
S'companies-27'
p3402
S'private-26'
p3403
tp3404
a(g3318
S'debt-24'
p3405
S'companies-27'
p3406
tp3407
a(g3322
S'hindering-31'
p3408
S'which-29'
p3409
tp3410
a(g3326
S'hindering-31'
p3411
S'is-30'
p3412
tp3413
a(g3330
S'companies-27'
p3414
S'hindering-31'
p3415
tp3416
a(g3334
S'recovery-33'
p3417
S'a-32'
p3418
tp3419
a(g3337
S'hindering-31'
p3420
S'recovery-33'
p3421
tp3422
asg85
(lp3423
(S'Thailand'
p3424
(dp3425
S'NamedEntityTag'
p3426
S'LOCATION'
p3427
sS'CharacterOffsetEnd'
p3428
S'764'
p3429
sS'Lemma'
p3430
S'Thailand'
p3431
sS'PartOfSpeech'
p3432
S'NNP'
p3433
sS'CharacterOffsetBegin'
p3434
S'756'
p3435
stp3436
a(S'was'
p3437
(dp3438
S'NamedEntityTag'
p3439
g90
sS'CharacterOffsetEnd'
p3440
S'768'
p3441
sS'Lemma'
p3442
S'be'
p3443
sS'PartOfSpeech'
p3444
S'VBD'
p3445
sS'CharacterOffsetBegin'
p3446
S'765'
p3447
stp3448
a(S'hit'
p3449
(dp3450
S'NamedEntityTag'
p3451
g90
sS'CharacterOffsetEnd'
p3452
S'772'
p3453
sS'Lemma'
p3454
S'hit'
p3455
sS'PartOfSpeech'
p3456
S'VBN'
p3457
sS'CharacterOffsetBegin'
p3458
S'769'
p3459
stp3460
a(S'hard'
p3461
(dp3462
S'NamedEntityTag'
p3463
g90
sS'CharacterOffsetEnd'
p3464
S'777'
p3465
sS'Lemma'
p3466
S'hard'
p3467
sS'PartOfSpeech'
p3468
S'RB'
p3469
sS'CharacterOffsetBegin'
p3470
S'773'
p3471
stp3472
a(S'by'
p3473
(dp3474
S'NamedEntityTag'
p3475
g90
sS'CharacterOffsetEnd'
p3476
S'780'
p3477
sS'Lemma'
p3478
S'by'
p3479
sS'PartOfSpeech'
p3480
S'IN'
p3481
sS'CharacterOffsetBegin'
p3482
S'778'
p3483
stp3484
a(S'last'
p3485
(dp3486
S'NormalizedNamedEntityTag'
p3487
S'THIS'
p3488
sS'Timex'
p3489
S'<TIMEX3 alt_value="THIS P1Y OFFSET P-1Y" anchorTimeID="t5" temporalFunction="true" tid="t4" type="DATE" valueFromFunction="tf1">last years</TIMEX3>'
p3490
sS'Lemma'
p3491
S'last'
p3492
sS'CharacterOffsetEnd'
p3493
S'785'
p3494
sS'PartOfSpeech'
p3495
S'JJ'
p3496
sS'CharacterOffsetBegin'
p3497
S'781'
p3498
sS'NamedEntityTag'
p3499
S'DATE'
p3500
stp3501
a(S'years'
p3502
(dp3503
S'NormalizedNamedEntityTag'
p3504
S'THIS'
p3505
sS'Timex'
p3506
S'<TIMEX3 alt_value="THIS P1Y OFFSET P-1Y" anchorTimeID="t5" temporalFunction="true" tid="t4" type="DATE" valueFromFunction="tf1">last years</TIMEX3>'
p3507
sS'Lemma'
p3508
S'year'
p3509
sS'CharacterOffsetEnd'
p3510
S'791'
p3511
sS'PartOfSpeech'
p3512
S'NNS'
p3513
sS'CharacterOffsetBegin'
p3514
S'786'
p3515
sS'NamedEntityTag'
p3516
S'DATE'
p3517
stp3518
a(S'Asian'
p3519
(dp3520
S'NamedEntityTag'
p3521
S'LOCATION'
p3522
sS'CharacterOffsetEnd'
p3523
S'797'
p3524
sS'Lemma'
p3525
S'asian'
p3526
sS'PartOfSpeech'
p3527
S'JJ'
p3528
sS'CharacterOffsetBegin'
p3529
S'792'
p3530
stp3531
a(S'economic'
p3532
(dp3533
S'NamedEntityTag'
p3534
g90
sS'CharacterOffsetEnd'
p3535
S'806'
p3536
sS'Lemma'
p3537
S'economic'
p3538
sS'PartOfSpeech'
p3539
S'JJ'
p3540
sS'CharacterOffsetBegin'
p3541
S'798'
p3542
stp3543
a(S'crisis'
p3544
(dp3545
S'NamedEntityTag'
p3546
g90
sS'CharacterOffsetEnd'
p3547
S'813'
p3548
sS'Lemma'
p3549
S'crisis'
p3550
sS'PartOfSpeech'
p3551
S'NN'
p3552
sS'CharacterOffsetBegin'
p3553
S'807'
p3554
stp3555
a(g1455
(dp3556
S'NamedEntityTag'
p3557
g90
sS'CharacterOffsetEnd'
p3558
S'814'
p3559
sS'Lemma'
p3560
g1455
sS'PartOfSpeech'
p3561
g1455
sS'CharacterOffsetBegin'
p3562
S'813'
p3563
stp3564
a(S'and'
p3565
(dp3566
S'NamedEntityTag'
p3567
g90
sS'CharacterOffsetEnd'
p3568
S'818'
p3569
sS'Lemma'
p3570
S'and'
p3571
sS'PartOfSpeech'
p3572
S'CC'
p3573
sS'CharacterOffsetBegin'
p3574
S'815'
p3575
stp3576
a(S'the'
p3577
(dp3578
S'NamedEntityTag'
p3579
g90
sS'CharacterOffsetEnd'
p3580
S'822'
p3581
sS'Lemma'
p3582
S'the'
p3583
sS'PartOfSpeech'
p3584
S'DT'
p3585
sS'CharacterOffsetBegin'
p3586
S'819'
p3587
stp3588
a(S'proposed'
p3589
(dp3590
S'NamedEntityTag'
p3591
g90
sS'CharacterOffsetEnd'
p3592
S'831'
p3593
sS'Lemma'
p3594
S'propose'
p3595
sS'PartOfSpeech'
p3596
S'VBN'
p3597
sS'CharacterOffsetBegin'
p3598
S'823'
p3599
stp3600
a(S'economic'
p3601
(dp3602
S'NamedEntityTag'
p3603
g90
sS'CharacterOffsetEnd'
p3604
S'840'
p3605
sS'Lemma'
p3606
S'economic'
p3607
sS'PartOfSpeech'
p3608
S'JJ'
p3609
sS'CharacterOffsetBegin'
p3610
S'832'
p3611
stp3612
a(S'reform'
p3613
(dp3614
S'NamedEntityTag'
p3615
g90
sS'CharacterOffsetEnd'
p3616
S'847'
p3617
sS'Lemma'
p3618
S'reform'
p3619
sS'PartOfSpeech'
p3620
S'NN'
p3621
sS'CharacterOffsetBegin'
p3622
S'841'
p3623
stp3624
a(S'legislation'
p3625
(dp3626
S'NamedEntityTag'
p3627
g90
sS'CharacterOffsetEnd'
p3628
S'859'
p3629
sS'Lemma'
p3630
S'legislation'
p3631
sS'PartOfSpeech'
p3632
S'NN'
p3633
sS'CharacterOffsetBegin'
p3634
S'848'
p3635
stp3636
a(S'focuses'
p3637
(dp3638
S'NamedEntityTag'
p3639
g90
sS'CharacterOffsetEnd'
p3640
S'867'
p3641
sS'Lemma'
p3642
S'focus'
p3643
sS'PartOfSpeech'
p3644
S'VBZ'
p3645
sS'CharacterOffsetBegin'
p3646
S'860'
p3647
stp3648
a(S'on'
p3649
(dp3650
S'NamedEntityTag'
p3651
g90
sS'CharacterOffsetEnd'
p3652
S'870'
p3653
sS'Lemma'
p3654
S'on'
p3655
sS'PartOfSpeech'
p3656
S'IN'
p3657
sS'CharacterOffsetBegin'
p3658
S'868'
p3659
stp3660
a(S'resolving'
p3661
(dp3662
S'NamedEntityTag'
p3663
g90
sS'CharacterOffsetEnd'
p3664
S'880'
p3665
sS'Lemma'
p3666
S'resolve'
p3667
sS'PartOfSpeech'
p3668
S'VBG'
p3669
sS'CharacterOffsetBegin'
p3670
S'871'
p3671
stp3672
a(S'the'
p3673
(dp3674
S'NamedEntityTag'
p3675
g90
sS'CharacterOffsetEnd'
p3676
S'884'
p3677
sS'Lemma'
p3678
S'the'
p3679
sS'PartOfSpeech'
p3680
S'DT'
p3681
sS'CharacterOffsetBegin'
p3682
S'881'
p3683
stp3684
a(S'massive'
p3685
(dp3686
S'NamedEntityTag'
p3687
g90
sS'CharacterOffsetEnd'
p3688
S'892'
p3689
sS'Lemma'
p3690
S'massive'
p3691
sS'PartOfSpeech'
p3692
S'JJ'
p3693
sS'CharacterOffsetBegin'
p3694
S'885'
p3695
stp3696
a(S'bad'
p3697
(dp3698
S'NamedEntityTag'
p3699
g90
sS'CharacterOffsetEnd'
p3700
S'896'
p3701
sS'Lemma'
p3702
S'bad'
p3703
sS'PartOfSpeech'
p3704
S'JJ'
p3705
sS'CharacterOffsetBegin'
p3706
S'893'
p3707
stp3708
a(S'debt'
p3709
(dp3710
S'NamedEntityTag'
p3711
g90
sS'CharacterOffsetEnd'
p3712
S'901'
p3713
sS'Lemma'
p3714
S'debt'
p3715
sS'PartOfSpeech'
p3716
S'NN'
p3717
sS'CharacterOffsetBegin'
p3718
S'897'
p3719
stp3720
a(S'of'
p3721
(dp3722
S'NamedEntityTag'
p3723
g90
sS'CharacterOffsetEnd'
p3724
S'904'
p3725
sS'Lemma'
p3726
S'of'
p3727
sS'PartOfSpeech'
p3728
S'IN'
p3729
sS'CharacterOffsetBegin'
p3730
S'902'
p3731
stp3732
a(S'private'
p3733
(dp3734
S'NamedEntityTag'
p3735
g90
sS'CharacterOffsetEnd'
p3736
S'912'
p3737
sS'Lemma'
p3738
S'private'
p3739
sS'PartOfSpeech'
p3740
S'JJ'
p3741
sS'CharacterOffsetBegin'
p3742
S'905'
p3743
stp3744
a(S'companies'
p3745
(dp3746
S'NamedEntityTag'
p3747
g90
sS'CharacterOffsetEnd'
p3748
S'922'
p3749
sS'Lemma'
p3750
S'company'
p3751
sS'PartOfSpeech'
p3752
S'NNS'
p3753
sS'CharacterOffsetBegin'
p3754
S'913'
p3755
stp3756
a(g1455
(dp3757
S'NamedEntityTag'
p3758
g90
sS'CharacterOffsetEnd'
p3759
S'923'
p3760
sS'Lemma'
p3761
g1455
sS'PartOfSpeech'
p3762
g1455
sS'CharacterOffsetBegin'
p3763
S'922'
p3764
stp3765
a(S'which'
p3766
(dp3767
S'NamedEntityTag'
p3768
g90
sS'CharacterOffsetEnd'
p3769
S'929'
p3770
sS'Lemma'
p3771
S'which'
p3772
sS'PartOfSpeech'
p3773
S'WDT'
p3774
sS'CharacterOffsetBegin'
p3775
S'924'
p3776
stp3777
a(S'is'
p3778
(dp3779
S'NamedEntityTag'
p3780
g90
sS'CharacterOffsetEnd'
p3781
S'932'
p3782
sS'Lemma'
p3783
S'be'
p3784
sS'PartOfSpeech'
p3785
S'VBZ'
p3786
sS'CharacterOffsetBegin'
p3787
S'930'
p3788
stp3789
a(S'hindering'
p3790
(dp3791
S'NamedEntityTag'
p3792
g90
sS'CharacterOffsetEnd'
p3793
S'942'
p3794
sS'Lemma'
p3795
S'hinder'
p3796
sS'PartOfSpeech'
p3797
S'VBG'
p3798
sS'CharacterOffsetBegin'
p3799
S'933'
p3800
stp3801
a(g1224
(dp3802
S'NamedEntityTag'
p3803
g90
sS'CharacterOffsetEnd'
p3804
S'944'
p3805
sS'Lemma'
p3806
g1224
sS'PartOfSpeech'
p3807
S'DT'
p3808
sS'CharacterOffsetBegin'
p3809
S'943'
p3810
stp3811
a(S'recovery'
p3812
(dp3813
S'NamedEntityTag'
p3814
g90
sS'CharacterOffsetEnd'
p3815
S'953'
p3816
sS'Lemma'
p3817
S'recovery'
p3818
sS'PartOfSpeech'
p3819
S'NN'
p3820
sS'CharacterOffsetBegin'
p3821
S'945'
p3822
stp3823
a(g233
(dp3824
S'NamedEntityTag'
p3825
g90
sS'CharacterOffsetEnd'
p3826
S'954'
p3827
sS'Lemma'
p3828
g233
sS'PartOfSpeech'
p3829
g233
sS'CharacterOffsetBegin'
p3830
S'953'
p3831
stp3832
asa(dp3833
g7
S'(ROOT (S (NP (DT This)) (VP (VBZ is) (NP (ADJP (RB very) (JJ aggressive)) (, ,) (JJ good) (NN reform))) (. .)))'
p3834
sg9
S'This is very aggressive, good reform.'
p3835
sg11
(lp3836
(S'root'
p3837
S'ROOT'
p3838
S'reform'
p3839
tp3840
a(S'nsubj'
p3841
S'reform'
p3842
S'This'
p3843
tp3844
a(S'cop'
p3845
S'reform'
p3846
S'is'
p3847
tp3848
a(S'advmod'
p3849
S'aggressive'
p3850
S'very'
p3851
tp3852
a(S'amod'
p3853
S'reform'
p3854
S'aggressive'
p3855
tp3856
a(S'amod'
p3857
S'reform'
p3858
S'good'
p3859
tp3860
asg53
(lp3861
(g3837
S'ROOT-0'
p3862
S'reform-7'
p3863
tp3864
a(g3841
S'reform-7'
p3865
S'This-1'
p3866
tp3867
a(g3845
S'reform-7'
p3868
S'is-2'
p3869
tp3870
a(g3849
S'aggressive-4'
p3871
S'very-3'
p3872
tp3873
a(g3853
S'reform-7'
p3874
S'aggressive-4'
p3875
tp3876
a(g3857
S'reform-7'
p3877
S'good-6'
p3878
tp3879
asg85
(lp3880
(S'This'
p3881
(dp3882
S'NamedEntityTag'
p3883
g90
sS'CharacterOffsetEnd'
p3884
S'959'
p3885
sS'Lemma'
p3886
S'this'
p3887
sS'PartOfSpeech'
p3888
S'DT'
p3889
sS'CharacterOffsetBegin'
p3890
S'955'
p3891
stp3892
a(S'is'
p3893
(dp3894
S'NamedEntityTag'
p3895
g90
sS'CharacterOffsetEnd'
p3896
S'962'
p3897
sS'Lemma'
p3898
S'be'
p3899
sS'PartOfSpeech'
p3900
S'VBZ'
p3901
sS'CharacterOffsetBegin'
p3902
S'960'
p3903
stp3904
a(S'very'
p3905
(dp3906
S'NamedEntityTag'
p3907
g90
sS'CharacterOffsetEnd'
p3908
S'967'
p3909
sS'Lemma'
p3910
S'very'
p3911
sS'PartOfSpeech'
p3912
S'RB'
p3913
sS'CharacterOffsetBegin'
p3914
S'963'
p3915
stp3916
a(S'aggressive'
p3917
(dp3918
S'NamedEntityTag'
p3919
g90
sS'CharacterOffsetEnd'
p3920
S'978'
p3921
sS'Lemma'
p3922
S'aggressive'
p3923
sS'PartOfSpeech'
p3924
S'JJ'
p3925
sS'CharacterOffsetBegin'
p3926
S'968'
p3927
stp3928
a(g1455
(dp3929
S'NamedEntityTag'
p3930
g90
sS'CharacterOffsetEnd'
p3931
S'979'
p3932
sS'Lemma'
p3933
g1455
sS'PartOfSpeech'
p3934
g1455
sS'CharacterOffsetBegin'
p3935
S'978'
p3936
stp3937
a(S'good'
p3938
(dp3939
S'NamedEntityTag'
p3940
g90
sS'CharacterOffsetEnd'
p3941
S'984'
p3942
sS'Lemma'
p3943
S'good'
p3944
sS'PartOfSpeech'
p3945
S'JJ'
p3946
sS'CharacterOffsetBegin'
p3947
S'980'
p3948
stp3949
a(S'reform'
p3950
(dp3951
S'NamedEntityTag'
p3952
g90
sS'CharacterOffsetEnd'
p3953
S'991'
p3954
sS'Lemma'
p3955
S'reform'
p3956
sS'PartOfSpeech'
p3957
S'NN'
p3958
sS'CharacterOffsetBegin'
p3959
S'985'
p3960
stp3961
a(g233
(dp3962
S'NamedEntityTag'
p3963
g90
sS'CharacterOffsetEnd'
p3964
S'992'
p3965
sS'Lemma'
p3966
g233
sS'PartOfSpeech'
p3967
g233
sS'CharacterOffsetBegin'
p3968
S'991'
p3969
stp3970
asa(dp3971
g7
S'(ROOT (S (S (NP (NP (PRP$ Its)) (ADJP (RB very) (JJ impressive)))) (, ,) (NP (NNP David)) (VP (VBD said) (, ,) (S (VP (VBG adding) (SBAR (IN that) (S (NP (NNP Finance) (NNP Minister) (NNP Tarrin) (NNP Nimmanahaeminda)) (VP (VBD promised) (SBAR (S (NP (NNP Parliament)) (VP (MD would) (VP (VB pass) (NP (NN reform) (NNS measures)) (PP (IN in) (NP (NP (NNS months)) (, ,) (RB not) (NP (NNS years)))))))))))))) (. .)))'
p3972
sg9
S'Its very impressive, David said, adding that Finance Minister Tarrin Nimmanahaeminda promised Parliament would pass reform measures in months, not years.'
p3973
sg11
(lp3974
(S'root'
p3975
S'ROOT'
p3976
S'said'
p3977
tp3978
a(S'ccomp'
p3979
S'said'
p3980
S'Its'
p3981
tp3982
a(S'advmod'
p3983
S'impressive'
p3984
S'very'
p3985
tp3986
a(S'amod'
p3987
S'Its'
p3988
S'impressive'
p3989
tp3990
a(S'nsubj'
p3991
S'said'
p3992
S'David'
p3993
tp3994
a(S'xcomp'
p3995
S'said'
p3996
S'adding'
p3997
tp3998
a(S'mark'
p3999
S'promised'
p4000
S'that'
p4001
tp4002
a(S'nn'
p4003
S'Nimmanahaeminda'
p4004
S'Finance'
p4005
tp4006
a(S'nn'
p4007
S'Nimmanahaeminda'
p4008
S'Minister'
p4009
tp4010
a(S'nn'
p4011
S'Nimmanahaeminda'
p4012
S'Tarrin'
p4013
tp4014
a(S'nsubj'
p4015
S'promised'
p4016
S'Nimmanahaeminda'
p4017
tp4018
a(S'ccomp'
p4019
S'adding'
p4020
S'promised'
p4021
tp4022
a(S'nsubj'
p4023
S'pass'
p4024
S'Parliament'
p4025
tp4026
a(S'aux'
p4027
S'pass'
p4028
S'would'
p4029
tp4030
a(S'ccomp'
p4031
S'promised'
p4032
S'pass'
p4033
tp4034
a(S'nn'
p4035
S'measures'
p4036
S'reform'
p4037
tp4038
a(S'dobj'
p4039
S'pass'
p4040
S'measures'
p4041
tp4042
a(S'prep_in'
p4043
S'pass'
p4044
S'months'
p4045
tp4046
a(S'neg'
p4047
S'months'
p4048
S'not'
p4049
tp4050
a(S'dep'
p4051
S'months'
p4052
S'years'
p4053
tp4054
asg53
(lp4055
(g3975
S'ROOT-0'
p4056
S'said-6'
p4057
tp4058
a(g3979
S'said-6'
p4059
S'Its-1'
p4060
tp4061
a(g3983
S'impressive-3'
p4062
S'very-2'
p4063
tp4064
a(g3987
S'Its-1'
p4065
S'impressive-3'
p4066
tp4067
a(g3991
S'said-6'
p4068
S'David-5'
p4069
tp4070
a(g3995
S'said-6'
p4071
S'adding-8'
p4072
tp4073
a(g3999
S'promised-14'
p4074
S'that-9'
p4075
tp4076
a(g4003
S'Nimmanahaeminda-13'
p4077
S'Finance-10'
p4078
tp4079
a(g4007
S'Nimmanahaeminda-13'
p4080
S'Minister-11'
p4081
tp4082
a(g4011
S'Nimmanahaeminda-13'
p4083
S'Tarrin-12'
p4084
tp4085
a(g4015
S'promised-14'
p4086
S'Nimmanahaeminda-13'
p4087
tp4088
a(g4019
S'adding-8'
p4089
S'promised-14'
p4090
tp4091
a(g4023
S'pass-17'
p4092
S'Parliament-15'
p4093
tp4094
a(g4027
S'pass-17'
p4095
S'would-16'
p4096
tp4097
a(g4031
S'promised-14'
p4098
S'pass-17'
p4099
tp4100
a(g4035
S'measures-19'
p4101
S'reform-18'
p4102
tp4103
a(g4039
S'pass-17'
p4104
S'measures-19'
p4105
tp4106
a(g4043
S'pass-17'
p4107
S'months-21'
p4108
tp4109
a(g4047
S'months-21'
p4110
S'not-23'
p4111
tp4112
a(g4051
S'months-21'
p4113
S'years-24'
p4114
tp4115
asg85
(lp4116
(S'Its'
p4117
(dp4118
S'NamedEntityTag'
p4119
g90
sS'CharacterOffsetEnd'
p4120
S'996'
p4121
sS'Lemma'
p4122
S'its'
p4123
sS'PartOfSpeech'
p4124
S'PRP$'
p4125
sS'CharacterOffsetBegin'
p4126
S'993'
p4127
stp4128
a(S'very'
p4129
(dp4130
S'NamedEntityTag'
p4131
g90
sS'CharacterOffsetEnd'
p4132
S'1001'
p4133
sS'Lemma'
p4134
S'very'
p4135
sS'PartOfSpeech'
p4136
S'RB'
p4137
sS'CharacterOffsetBegin'
p4138
S'997'
p4139
stp4140
a(S'impressive'
p4141
(dp4142
S'NamedEntityTag'
p4143
g90
sS'CharacterOffsetEnd'
p4144
S'1012'
p4145
sS'Lemma'
p4146
S'impressive'
p4147
sS'PartOfSpeech'
p4148
S'JJ'
p4149
sS'CharacterOffsetBegin'
p4150
S'1002'
p4151
stp4152
a(g1455
(dp4153
S'NamedEntityTag'
p4154
g90
sS'CharacterOffsetEnd'
p4155
S'1013'
p4156
sS'Lemma'
p4157
g1455
sS'PartOfSpeech'
p4158
g1455
sS'CharacterOffsetBegin'
p4159
S'1012'
p4160
stp4161
a(S'David'
p4162
(dp4163
S'NamedEntityTag'
p4164
S'PERSON'
p4165
sS'CharacterOffsetEnd'
p4166
S'1019'
p4167
sS'Lemma'
p4168
S'David'
p4169
sS'PartOfSpeech'
p4170
S'NNP'
p4171
sS'CharacterOffsetBegin'
p4172
S'1014'
p4173
stp4174
a(S'said'
p4175
(dp4176
S'NamedEntityTag'
p4177
g90
sS'CharacterOffsetEnd'
p4178
S'1024'
p4179
sS'Lemma'
p4180
S'say'
p4181
sS'PartOfSpeech'
p4182
S'VBD'
p4183
sS'CharacterOffsetBegin'
p4184
S'1020'
p4185
stp4186
a(g1455
(dp4187
S'NamedEntityTag'
p4188
g90
sS'CharacterOffsetEnd'
p4189
S'1025'
p4190
sS'Lemma'
p4191
g1455
sS'PartOfSpeech'
p4192
g1455
sS'CharacterOffsetBegin'
p4193
S'1024'
p4194
stp4195
a(S'adding'
p4196
(dp4197
S'NamedEntityTag'
p4198
g90
sS'CharacterOffsetEnd'
p4199
S'1032'
p4200
sS'Lemma'
p4201
S'add'
p4202
sS'PartOfSpeech'
p4203
S'VBG'
p4204
sS'CharacterOffsetBegin'
p4205
S'1026'
p4206
stp4207
a(S'that'
p4208
(dp4209
S'NamedEntityTag'
p4210
g90
sS'CharacterOffsetEnd'
p4211
S'1037'
p4212
sS'Lemma'
p4213
S'that'
p4214
sS'PartOfSpeech'
p4215
S'IN'
p4216
sS'CharacterOffsetBegin'
p4217
S'1033'
p4218
stp4219
a(S'Finance'
p4220
(dp4221
S'NamedEntityTag'
p4222
g90
sS'CharacterOffsetEnd'
p4223
S'1045'
p4224
sS'Lemma'
p4225
S'Finance'
p4226
sS'PartOfSpeech'
p4227
S'NNP'
p4228
sS'CharacterOffsetBegin'
p4229
S'1038'
p4230
stp4231
a(S'Minister'
p4232
(dp4233
S'NamedEntityTag'
p4234
g90
sS'CharacterOffsetEnd'
p4235
S'1054'
p4236
sS'Lemma'
p4237
S'Minister'
p4238
sS'PartOfSpeech'
p4239
S'NNP'
p4240
sS'CharacterOffsetBegin'
p4241
S'1046'
p4242
stp4243
a(S'Tarrin'
p4244
(dp4245
S'NamedEntityTag'
p4246
S'PERSON'
p4247
sS'CharacterOffsetEnd'
p4248
S'1061'
p4249
sS'Lemma'
p4250
S'Tarrin'
p4251
sS'PartOfSpeech'
p4252
S'NNP'
p4253
sS'CharacterOffsetBegin'
p4254
S'1055'
p4255
stp4256
a(S'Nimmanahaeminda'
p4257
(dp4258
S'NamedEntityTag'
p4259
S'PERSON'
p4260
sS'CharacterOffsetEnd'
p4261
S'1077'
p4262
sS'Lemma'
p4263
S'Nimmanahaeminda'
p4264
sS'PartOfSpeech'
p4265
S'NNP'
p4266
sS'CharacterOffsetBegin'
p4267
S'1062'
p4268
stp4269
a(S'promised'
p4270
(dp4271
S'NamedEntityTag'
p4272
g90
sS'CharacterOffsetEnd'
p4273
S'1086'
p4274
sS'Lemma'
p4275
S'promise'
p4276
sS'PartOfSpeech'
p4277
S'VBD'
p4278
sS'CharacterOffsetBegin'
p4279
S'1078'
p4280
stp4281
a(S'Parliament'
p4282
(dp4283
S'NamedEntityTag'
p4284
S'ORGANIZATION'
p4285
sS'CharacterOffsetEnd'
p4286
S'1097'
p4287
sS'Lemma'
p4288
S'Parliament'
p4289
sS'PartOfSpeech'
p4290
S'NNP'
p4291
sS'CharacterOffsetBegin'
p4292
S'1087'
p4293
stp4294
a(S'would'
p4295
(dp4296
S'NamedEntityTag'
p4297
g90
sS'CharacterOffsetEnd'
p4298
S'1103'
p4299
sS'Lemma'
p4300
S'would'
p4301
sS'PartOfSpeech'
p4302
S'MD'
p4303
sS'CharacterOffsetBegin'
p4304
S'1098'
p4305
stp4306
a(S'pass'
p4307
(dp4308
S'NamedEntityTag'
p4309
g90
sS'CharacterOffsetEnd'
p4310
S'1108'
p4311
sS'Lemma'
p4312
S'pass'
p4313
sS'PartOfSpeech'
p4314
S'VB'
p4315
sS'CharacterOffsetBegin'
p4316
S'1104'
p4317
stp4318
a(S'reform'
p4319
(dp4320
S'NamedEntityTag'
p4321
g90
sS'CharacterOffsetEnd'
p4322
S'1115'
p4323
sS'Lemma'
p4324
S'reform'
p4325
sS'PartOfSpeech'
p4326
S'NN'
p4327
sS'CharacterOffsetBegin'
p4328
S'1109'
p4329
stp4330
a(S'measures'
p4331
(dp4332
S'NamedEntityTag'
p4333
g90
sS'CharacterOffsetEnd'
p4334
S'1124'
p4335
sS'Lemma'
p4336
S'measure'
p4337
sS'PartOfSpeech'
p4338
S'NNS'
p4339
sS'CharacterOffsetBegin'
p4340
S'1116'
p4341
stp4342
a(S'in'
p4343
(dp4344
S'NamedEntityTag'
p4345
g90
sS'CharacterOffsetEnd'
p4346
S'1127'
p4347
sS'Lemma'
p4348
S'in'
p4349
sS'PartOfSpeech'
p4350
S'IN'
p4351
sS'CharacterOffsetBegin'
p4352
S'1125'
p4353
stp4354
a(S'months'
p4355
(dp4356
S'NormalizedNamedEntityTag'
p4357
S'PXM'
p4358
sS'Timex'
p4359
S'<TIMEX3 tid="t6" type="DURATION" value="PXM">months</TIMEX3>'
p4360
sS'Lemma'
p4361
S'month'
p4362
sS'CharacterOffsetEnd'
p4363
S'1134'
p4364
sS'PartOfSpeech'
p4365
S'NNS'
p4366
sS'CharacterOffsetBegin'
p4367
S'1128'
p4368
sS'NamedEntityTag'
p4369
S'DURATION'
p4370
stp4371
a(g1455
(dp4372
S'NamedEntityTag'
p4373
g90
sS'CharacterOffsetEnd'
p4374
S'1135'
p4375
sS'Lemma'
p4376
g1455
sS'PartOfSpeech'
p4377
g1455
sS'CharacterOffsetBegin'
p4378
S'1134'
p4379
stp4380
a(S'not'
p4381
(dp4382
S'NamedEntityTag'
p4383
g90
sS'CharacterOffsetEnd'
p4384
S'1139'
p4385
sS'Lemma'
p4386
S'not'
p4387
sS'PartOfSpeech'
p4388
S'RB'
p4389
sS'CharacterOffsetBegin'
p4390
S'1136'
p4391
stp4392
a(S'years'
p4393
(dp4394
S'NormalizedNamedEntityTag'
p4395
S'PXY'
p4396
sS'Timex'
p4397
S'<TIMEX3 tid="t7" type="DURATION" value="PXY">years</TIMEX3>'
p4398
sS'Lemma'
p4399
S'year'
p4400
sS'CharacterOffsetEnd'
p4401
S'1145'
p4402
sS'PartOfSpeech'
p4403
S'NNS'
p4404
sS'CharacterOffsetBegin'
p4405
S'1140'
p4406
sS'NamedEntityTag'
p4407
S'DURATION'
p4408
stp4409
a(g233
(dp4410
S'NamedEntityTag'
p4411
g90
sS'CharacterOffsetEnd'
p4412
S'1146'
p4413
sS'Lemma'
p4414
g233
sS'PartOfSpeech'
p4415
g233
sS'CharacterOffsetBegin'
p4416
S'1145'
p4417
stp4418
asa(dp4419
g7
S'(ROOT (S (NP (DT The) (NNP U.S.-ASEAN) (NNP Business) (NNP Council)) (VP (VBZ is) (NP (NP (DT a) (JJ private) (NN organization)) (VP (VBG comprising) (PP (IN about) (NP (CD 300) (NNP U.S.) (NNS companies))) (PP (IN with) (NP (NP (JJ substantial) (NNS investments)) (PP (IN in) (NP (NNP Southeast) (NNP Asia)))))))) (. .)))'
p4420
sg9
S'The U.S.-ASEAN Business Council is a private organization comprising about 300 U.S. companies with substantial investments in Southeast Asia.'
p4421
sg11
(lp4422
(S'root'
p4423
S'ROOT'
p4424
S'organization'
p4425
tp4426
a(S'det'
p4427
S'Council'
p4428
S'The'
p4429
tp4430
a(S'nn'
p4431
S'Council'
p4432
S'U.S.-ASEAN'
p4433
tp4434
a(S'nn'
p4435
S'Council'
p4436
S'Business'
p4437
tp4438
a(S'nsubj'
p4439
S'organization'
p4440
S'Council'
p4441
tp4442
a(S'cop'
p4443
S'organization'
p4444
S'is'
p4445
tp4446
a(S'det'
p4447
S'organization'
p4448
g1224
tp4449
a(S'amod'
p4450
S'organization'
p4451
S'private'
p4452
tp4453
a(S'partmod'
p4454
S'organization'
p4455
S'comprising'
p4456
tp4457
a(S'num'
p4458
S'companies'
p4459
S'300'
p4460
tp4461
a(S'nn'
p4462
S'companies'
p4463
S'U.S.'
p4464
tp4465
a(S'prep_about'
p4466
S'comprising'
p4467
S'companies'
p4468
tp4469
a(S'amod'
p4470
S'investments'
p4471
S'substantial'
p4472
tp4473
a(S'prep_with'
p4474
S'comprising'
p4475
S'investments'
p4476
tp4477
a(S'nn'
p4478
S'Asia'
p4479
S'Southeast'
p4480
tp4481
a(S'prep_in'
p4482
S'investments'
p4483
S'Asia'
p4484
tp4485
asg53
(lp4486
(g4423
S'ROOT-0'
p4487
S'organization-8'
p4488
tp4489
a(g4427
S'Council-4'
p4490
S'The-1'
p4491
tp4492
a(g4431
S'Council-4'
p4493
S'U.S.-ASEAN-2'
p4494
tp4495
a(g4435
S'Council-4'
p4496
S'Business-3'
p4497
tp4498
a(g4439
S'organization-8'
p4499
S'Council-4'
p4500
tp4501
a(g4443
S'organization-8'
p4502
S'is-5'
p4503
tp4504
a(g4447
S'organization-8'
p4505
S'a-6'
p4506
tp4507
a(g4450
S'organization-8'
p4508
S'private-7'
p4509
tp4510
a(g4454
S'organization-8'
p4511
S'comprising-9'
p4512
tp4513
a(g4458
S'companies-13'
p4514
S'300-11'
p4515
tp4516
a(g4462
S'companies-13'
p4517
S'U.S.-12'
p4518
tp4519
a(g4466
S'comprising-9'
p4520
S'companies-13'
p4521
tp4522
a(g4470
S'investments-16'
p4523
S'substantial-15'
p4524
tp4525
a(g4474
S'comprising-9'
p4526
S'investments-16'
p4527
tp4528
a(g4478
S'Asia-19'
p4529
S'Southeast-18'
p4530
tp4531
a(g4482
S'investments-16'
p4532
S'Asia-19'
p4533
tp4534
asg85
(lp4535
(S'The'
p4536
(dp4537
S'NamedEntityTag'
p4538
g90
sS'CharacterOffsetEnd'
p4539
S'1150'
p4540
sS'Lemma'
p4541
S'the'
p4542
sS'PartOfSpeech'
p4543
S'DT'
p4544
sS'CharacterOffsetBegin'
p4545
S'1147'
p4546
stp4547
a(S'U.S.-ASEAN'
p4548
(dp4549
S'NamedEntityTag'
p4550
S'ORGANIZATION'
p4551
sS'CharacterOffsetEnd'
p4552
S'1161'
p4553
sS'Lemma'
p4554
S'U.S.-ASEAN'
p4555
sS'PartOfSpeech'
p4556
S'NNP'
p4557
sS'CharacterOffsetBegin'
p4558
S'1151'
p4559
stp4560
a(S'Business'
p4561
(dp4562
S'NamedEntityTag'
p4563
S'ORGANIZATION'
p4564
sS'CharacterOffsetEnd'
p4565
S'1170'
p4566
sS'Lemma'
p4567
S'Business'
p4568
sS'PartOfSpeech'
p4569
S'NNP'
p4570
sS'CharacterOffsetBegin'
p4571
S'1162'
p4572
stp4573
a(S'Council'
p4574
(dp4575
S'NamedEntityTag'
p4576
S'ORGANIZATION'
p4577
sS'CharacterOffsetEnd'
p4578
S'1178'
p4579
sS'Lemma'
p4580
S'Council'
p4581
sS'PartOfSpeech'
p4582
S'NNP'
p4583
sS'CharacterOffsetBegin'
p4584
S'1171'
p4585
stp4586
a(S'is'
p4587
(dp4588
S'NamedEntityTag'
p4589
g90
sS'CharacterOffsetEnd'
p4590
S'1181'
p4591
sS'Lemma'
p4592
S'be'
p4593
sS'PartOfSpeech'
p4594
S'VBZ'
p4595
sS'CharacterOffsetBegin'
p4596
S'1179'
p4597
stp4598
a(g1224
(dp4599
S'NamedEntityTag'
p4600
g90
sS'CharacterOffsetEnd'
p4601
S'1183'
p4602
sS'Lemma'
p4603
g1224
sS'PartOfSpeech'
p4604
S'DT'
p4605
sS'CharacterOffsetBegin'
p4606
S'1182'
p4607
stp4608
a(S'private'
p4609
(dp4610
S'NamedEntityTag'
p4611
g90
sS'CharacterOffsetEnd'
p4612
S'1191'
p4613
sS'Lemma'
p4614
S'private'
p4615
sS'PartOfSpeech'
p4616
S'JJ'
p4617
sS'CharacterOffsetBegin'
p4618
S'1184'
p4619
stp4620
a(S'organization'
p4621
(dp4622
S'NamedEntityTag'
p4623
g90
sS'CharacterOffsetEnd'
p4624
S'1204'
p4625
sS'Lemma'
p4626
S'organization'
p4627
sS'PartOfSpeech'
p4628
S'NN'
p4629
sS'CharacterOffsetBegin'
p4630
S'1192'
p4631
stp4632
a(S'comprising'
p4633
(dp4634
S'NamedEntityTag'
p4635
g90
sS'CharacterOffsetEnd'
p4636
S'1215'
p4637
sS'Lemma'
p4638
S'comprise'
p4639
sS'PartOfSpeech'
p4640
S'VBG'
p4641
sS'CharacterOffsetBegin'
p4642
S'1205'
p4643
stp4644
a(S'about'
p4645
(dp4646
S'NamedEntityTag'
p4647
g90
sS'CharacterOffsetEnd'
p4648
S'1221'
p4649
sS'Lemma'
p4650
S'about'
p4651
sS'PartOfSpeech'
p4652
S'IN'
p4653
sS'CharacterOffsetBegin'
p4654
S'1216'
p4655
stp4656
a(S'300'
p4657
(dp4658
S'NormalizedNamedEntityTag'
p4659
S'~300.0'
p4660
sS'Lemma'
p4661
S'300'
p4662
sS'CharacterOffsetEnd'
p4663
S'1225'
p4664
sS'PartOfSpeech'
p4665
S'CD'
p4666
sS'CharacterOffsetBegin'
p4667
S'1222'
p4668
sS'NamedEntityTag'
p4669
S'NUMBER'
p4670
stp4671
a(S'U.S.'
p4672
(dp4673
S'NamedEntityTag'
p4674
S'LOCATION'
p4675
sS'CharacterOffsetEnd'
p4676
S'1230'
p4677
sS'Lemma'
p4678
S'U.S.'
p4679
sS'PartOfSpeech'
p4680
S'NNP'
p4681
sS'CharacterOffsetBegin'
p4682
S'1226'
p4683
stp4684
a(S'companies'
p4685
(dp4686
S'NamedEntityTag'
p4687
g90
sS'CharacterOffsetEnd'
p4688
S'1240'
p4689
sS'Lemma'
p4690
S'company'
p4691
sS'PartOfSpeech'
p4692
S'NNS'
p4693
sS'CharacterOffsetBegin'
p4694
S'1231'
p4695
stp4696
a(S'with'
p4697
(dp4698
S'NamedEntityTag'
p4699
g90
sS'CharacterOffsetEnd'
p4700
S'1245'
p4701
sS'Lemma'
p4702
S'with'
p4703
sS'PartOfSpeech'
p4704
S'IN'
p4705
sS'CharacterOffsetBegin'
p4706
S'1241'
p4707
stp4708
a(S'substantial'
p4709
(dp4710
S'NamedEntityTag'
p4711
g90
sS'CharacterOffsetEnd'
p4712
S'1257'
p4713
sS'Lemma'
p4714
S'substantial'
p4715
sS'PartOfSpeech'
p4716
S'JJ'
p4717
sS'CharacterOffsetBegin'
p4718
S'1246'
p4719
stp4720
a(S'investments'
p4721
(dp4722
S'NamedEntityTag'
p4723
g90
sS'CharacterOffsetEnd'
p4724
S'1269'
p4725
sS'Lemma'
p4726
S'investment'
p4727
sS'PartOfSpeech'
p4728
S'NNS'
p4729
sS'CharacterOffsetBegin'
p4730
S'1258'
p4731
stp4732
a(S'in'
p4733
(dp4734
S'NamedEntityTag'
p4735
g90
sS'CharacterOffsetEnd'
p4736
S'1272'
p4737
sS'Lemma'
p4738
S'in'
p4739
sS'PartOfSpeech'
p4740
S'IN'
p4741
sS'CharacterOffsetBegin'
p4742
S'1270'
p4743
stp4744
a(S'Southeast'
p4745
(dp4746
S'NamedEntityTag'
p4747
S'LOCATION'
p4748
sS'CharacterOffsetEnd'
p4749
S'1282'
p4750
sS'Lemma'
p4751
S'Southeast'
p4752
sS'PartOfSpeech'
p4753
S'NNP'
p4754
sS'CharacterOffsetBegin'
p4755
S'1273'
p4756
stp4757
a(S'Asia'
p4758
(dp4759
S'NamedEntityTag'
p4760
S'LOCATION'
p4761
sS'CharacterOffsetEnd'
p4762
S'1287'
p4763
sS'Lemma'
p4764
S'Asia'
p4765
sS'PartOfSpeech'
p4766
S'NNP'
p4767
sS'CharacterOffsetBegin'
p4768
S'1283'
p4769
stp4770
a(g233
(dp4771
S'NamedEntityTag'
p4772
g90
sS'CharacterOffsetEnd'
p4773
S'1288'
p4774
sS'Lemma'
p4775
g233
sS'PartOfSpeech'
p4776
g233
sS'CharacterOffsetBegin'
p4777
S'1287'
p4778
stp4779
asa(dp4780
g7
S'(ROOT (S (NP (NNP David)) (VP (VBD said) (SBAR (S (NP (NP (DT the) (CD five) (NNS executives)) (PP (IN in) (NP (DT the) (NN delegation)))) (VP (VBD represented) (NP (NNS dlrs)) (PP (NP (QP (CD 300) (CD billion))) (IN in) (NP (NNS assets))))))) (. .)))'
p4781
sg9
S'David said the five executives in the delegation represented dlrs 300 billion in assets.'
p4782
sg11
(lp4783
(S'root'
p4784
S'ROOT'
p4785
S'said'
p4786
tp4787
a(S'nsubj'
p4788
S'said'
p4789
S'David'
p4790
tp4791
a(S'det'
p4792
S'executives'
p4793
S'the'
p4794
tp4795
a(S'num'
p4796
S'executives'
p4797
S'five'
p4798
tp4799
a(S'nsubj'
p4800
S'represented'
p4801
S'executives'
p4802
tp4803
a(S'det'
p4804
S'delegation'
p4805
S'the'
p4806
tp4807
a(S'prep_in'
p4808
S'executives'
p4809
S'delegation'
p4810
tp4811
a(S'ccomp'
p4812
S'said'
p4813
S'represented'
p4814
tp4815
a(S'dobj'
p4816
S'represented'
p4817
S'dlrs'
p4818
tp4819
a(S'number'
p4820
S'billion'
p4821
S'300'
p4822
tp4823
a(S'npadvmod'
p4824
S'represented'
p4825
S'billion'
p4826
tp4827
a(S'prep_in'
p4828
S'represented'
p4829
S'assets'
p4830
tp4831
asg53
(lp4832
(g4784
S'ROOT-0'
p4833
S'said-2'
p4834
tp4835
a(g4788
S'said-2'
p4836
S'David-1'
p4837
tp4838
a(g4792
S'executives-5'
p4839
S'the-3'
p4840
tp4841
a(g4796
S'executives-5'
p4842
S'five-4'
p4843
tp4844
a(g4800
S'represented-9'
p4845
S'executives-5'
p4846
tp4847
a(g4804
S'delegation-8'
p4848
S'the-7'
p4849
tp4850
a(g4808
S'executives-5'
p4851
S'delegation-8'
p4852
tp4853
a(g4812
S'said-2'
p4854
S'represented-9'
p4855
tp4856
a(g4816
S'represented-9'
p4857
S'dlrs-10'
p4858
tp4859
a(g4820
S'billion-12'
p4860
S'300-11'
p4861
tp4862
a(g4824
S'represented-9'
p4863
S'billion-12'
p4864
tp4865
a(g4828
S'represented-9'
p4866
S'assets-14'
p4867
tp4868
asg85
(lp4869
(S'David'
p4870
(dp4871
S'NamedEntityTag'
p4872
S'PERSON'
p4873
sS'CharacterOffsetEnd'
p4874
S'1294'
p4875
sS'Lemma'
p4876
S'David'
p4877
sS'PartOfSpeech'
p4878
S'NNP'
p4879
sS'CharacterOffsetBegin'
p4880
S'1289'
p4881
stp4882
a(S'said'
p4883
(dp4884
S'NamedEntityTag'
p4885
g90
sS'CharacterOffsetEnd'
p4886
S'1299'
p4887
sS'Lemma'
p4888
S'say'
p4889
sS'PartOfSpeech'
p4890
S'VBD'
p4891
sS'CharacterOffsetBegin'
p4892
S'1295'
p4893
stp4894
a(S'the'
p4895
(dp4896
S'NamedEntityTag'
p4897
g90
sS'CharacterOffsetEnd'
p4898
S'1303'
p4899
sS'Lemma'
p4900
S'the'
p4901
sS'PartOfSpeech'
p4902
S'DT'
p4903
sS'CharacterOffsetBegin'
p4904
S'1300'
p4905
stp4906
a(S'five'
p4907
(dp4908
S'NormalizedNamedEntityTag'
p4909
S'5.0'
p4910
sS'Lemma'
p4911
S'five'
p4912
sS'CharacterOffsetEnd'
p4913
S'1308'
p4914
sS'PartOfSpeech'
p4915
S'CD'
p4916
sS'CharacterOffsetBegin'
p4917
S'1304'
p4918
sS'NamedEntityTag'
p4919
S'NUMBER'
p4920
stp4921
a(S'executives'
p4922
(dp4923
S'NamedEntityTag'
p4924
g90
sS'CharacterOffsetEnd'
p4925
S'1319'
p4926
sS'Lemma'
p4927
S'executive'
p4928
sS'PartOfSpeech'
p4929
S'NNS'
p4930
sS'CharacterOffsetBegin'
p4931
S'1309'
p4932
stp4933
a(S'in'
p4934
(dp4935
S'NamedEntityTag'
p4936
g90
sS'CharacterOffsetEnd'
p4937
S'1322'
p4938
sS'Lemma'
p4939
S'in'
p4940
sS'PartOfSpeech'
p4941
S'IN'
p4942
sS'CharacterOffsetBegin'
p4943
S'1320'
p4944
stp4945
a(S'the'
p4946
(dp4947
S'NamedEntityTag'
p4948
g90
sS'CharacterOffsetEnd'
p4949
S'1326'
p4950
sS'Lemma'
p4951
S'the'
p4952
sS'PartOfSpeech'
p4953
S'DT'
p4954
sS'CharacterOffsetBegin'
p4955
S'1323'
p4956
stp4957
a(S'delegation'
p4958
(dp4959
S'NamedEntityTag'
p4960
g90
sS'CharacterOffsetEnd'
p4961
S'1337'
p4962
sS'Lemma'
p4963
S'delegation'
p4964
sS'PartOfSpeech'
p4965
S'NN'
p4966
sS'CharacterOffsetBegin'
p4967
S'1327'
p4968
stp4969
a(S'represented'
p4970
(dp4971
S'NamedEntityTag'
p4972
g90
sS'CharacterOffsetEnd'
p4973
S'1349'
p4974
sS'Lemma'
p4975
S'represent'
p4976
sS'PartOfSpeech'
p4977
S'VBD'
p4978
sS'CharacterOffsetBegin'
p4979
S'1338'
p4980
stp4981
a(S'dlrs'
p4982
(dp4983
S'NamedEntityTag'
p4984
g90
sS'CharacterOffsetEnd'
p4985
S'1354'
p4986
sS'Lemma'
p4987
S'dlr'
p4988
sS'PartOfSpeech'
p4989
S'NNS'
p4990
sS'CharacterOffsetBegin'
p4991
S'1350'
p4992
stp4993
a(S'300'
p4994
(dp4995
S'NormalizedNamedEntityTag'
p4996
S'$3.0E11'
p4997
sS'Lemma'
p4998
S'300'
p4999
sS'CharacterOffsetEnd'
p5000
S'1358'
p5001
sS'PartOfSpeech'
p5002
S'CD'
p5003
sS'CharacterOffsetBegin'
p5004
S'1355'
p5005
sS'NamedEntityTag'
p5006
S'MONEY'
p5007
stp5008
a(S'billion'
p5009
(dp5010
S'NormalizedNamedEntityTag'
p5011
S'$3.0E11'
p5012
sS'Lemma'
p5013
S'billion'
p5014
sS'CharacterOffsetEnd'
p5015
S'1366'
p5016
sS'PartOfSpeech'
p5017
S'CD'
p5018
sS'CharacterOffsetBegin'
p5019
S'1359'
p5020
sS'NamedEntityTag'
p5021
S'MONEY'
p5022
stp5023
a(S'in'
p5024
(dp5025
S'NamedEntityTag'
p5026
g90
sS'CharacterOffsetEnd'
p5027
S'1369'
p5028
sS'Lemma'
p5029
S'in'
p5030
sS'PartOfSpeech'
p5031
S'IN'
p5032
sS'CharacterOffsetBegin'
p5033
S'1367'
p5034
stp5035
a(S'assets'
p5036
(dp5037
S'NamedEntityTag'
p5038
g90
sS'CharacterOffsetEnd'
p5039
S'1376'
p5040
sS'Lemma'
p5041
S'asset'
p5042
sS'PartOfSpeech'
p5043
S'NNS'
p5044
sS'CharacterOffsetBegin'
p5045
S'1370'
p5046
stp5047
a(g233
(dp5048
S'NamedEntityTag'
p5049
g90
sS'CharacterOffsetEnd'
p5050
S'1377'
p5051
sS'Lemma'
p5052
g233
sS'PartOfSpeech'
p5053
g233
sS'CharacterOffsetBegin'
p5054
S'1376'
p5055
stp5056
asa(dp5057
g7
S'(ROOT (S (NP (NP (DT The) (NNS councils)) (VP (VBG lobbying) (NP (NNS efforts)) (PP (IN with) (NP (NP (DT the) (NNP U.S.)) (CC and) (NP (NNP Southeast) (NNP Asian) (NNS governments)))))) (VP (VBP have) (VP (VBN concentrated) (PP (IN on) (S (VP (VBG removing) (NP (NP (NNS tariffs)) (CC and) (NP (JJ other) (NNS barriers))) (PP (TO to) (NP (JJ overseas) (NN trade)))))))) (. .)))'
p5058
sg9
S'The councils lobbying efforts with the U.S. and Southeast Asian governments have concentrated on removing tariffs and other barriers to overseas trade.'
p5059
sg11
(lp5060
(S'root'
p5061
S'ROOT'
p5062
S'concentrated'
p5063
tp5064
a(S'det'
p5065
S'councils'
p5066
S'The'
p5067
tp5068
a(S'nsubj'
p5069
S'concentrated'
p5070
S'councils'
p5071
tp5072
a(S'partmod'
p5073
S'councils'
p5074
S'lobbying'
p5075
tp5076
a(S'dobj'
p5077
S'lobbying'
p5078
S'efforts'
p5079
tp5080
a(S'det'
p5081
S'U.S.'
p5082
S'the'
p5083
tp5084
a(S'prep_with'
p5085
S'lobbying'
p5086
S'U.S.'
p5087
tp5088
a(S'nn'
p5089
S'governments'
p5090
S'Southeast'
p5091
tp5092
a(S'nn'
p5093
S'governments'
p5094
S'Asian'
p5095
tp5096
a(S'conj_and'
p5097
S'U.S.'
p5098
S'governments'
p5099
tp5100
a(S'aux'
p5101
S'concentrated'
p5102
S'have'
p5103
tp5104
a(S'prepc_on'
p5105
S'concentrated'
p5106
S'removing'
p5107
tp5108
a(S'dobj'
p5109
S'removing'
p5110
S'tariffs'
p5111
tp5112
a(S'amod'
p5113
S'barriers'
p5114
S'other'
p5115
tp5116
a(S'conj_and'
p5117
S'tariffs'
p5118
S'barriers'
p5119
tp5120
a(S'amod'
p5121
S'trade'
p5122
S'overseas'
p5123
tp5124
a(S'prep_to'
p5125
S'removing'
p5126
S'trade'
p5127
tp5128
asg53
(lp5129
(g5061
S'ROOT-0'
p5130
S'concentrated-13'
p5131
tp5132
a(g5065
S'councils-2'
p5133
S'The-1'
p5134
tp5135
a(g5069
S'concentrated-13'
p5136
S'councils-2'
p5137
tp5138
a(g5073
S'councils-2'
p5139
S'lobbying-3'
p5140
tp5141
a(g5077
S'lobbying-3'
p5142
S'efforts-4'
p5143
tp5144
a(g5081
S'U.S.-7'
p5145
S'the-6'
p5146
tp5147
a(g5085
S'lobbying-3'
p5148
S'U.S.-7'
p5149
tp5150
a(g5089
S'governments-11'
p5151
S'Southeast-9'
p5152
tp5153
a(g5093
S'governments-11'
p5154
S'Asian-10'
p5155
tp5156
a(g5097
S'U.S.-7'
p5157
S'governments-11'
p5158
tp5159
a(g5101
S'concentrated-13'
p5160
S'have-12'
p5161
tp5162
a(g5105
S'concentrated-13'
p5163
S'removing-15'
p5164
tp5165
a(g5109
S'removing-15'
p5166
S'tariffs-16'
p5167
tp5168
a(g5113
S'barriers-19'
p5169
S'other-18'
p5170
tp5171
a(g5117
S'tariffs-16'
p5172
S'barriers-19'
p5173
tp5174
a(g5121
S'trade-22'
p5175
S'overseas-21'
p5176
tp5177
a(g5125
S'removing-15'
p5178
S'trade-22'
p5179
tp5180
asg85
(lp5181
(S'The'
p5182
(dp5183
S'NamedEntityTag'
p5184
g90
sS'CharacterOffsetEnd'
p5185
S'1381'
p5186
sS'Lemma'
p5187
S'the'
p5188
sS'PartOfSpeech'
p5189
S'DT'
p5190
sS'CharacterOffsetBegin'
p5191
S'1378'
p5192
stp5193
a(S'councils'
p5194
(dp5195
S'NamedEntityTag'
p5196
g90
sS'CharacterOffsetEnd'
p5197
S'1390'
p5198
sS'Lemma'
p5199
S'council'
p5200
sS'PartOfSpeech'
p5201
S'NNS'
p5202
sS'CharacterOffsetBegin'
p5203
S'1382'
p5204
stp5205
a(S'lobbying'
p5206
(dp5207
S'NamedEntityTag'
p5208
g90
sS'CharacterOffsetEnd'
p5209
S'1399'
p5210
sS'Lemma'
p5211
S'lobby'
p5212
sS'PartOfSpeech'
p5213
S'VBG'
p5214
sS'CharacterOffsetBegin'
p5215
S'1391'
p5216
stp5217
a(S'efforts'
p5218
(dp5219
S'NamedEntityTag'
p5220
g90
sS'CharacterOffsetEnd'
p5221
S'1407'
p5222
sS'Lemma'
p5223
S'effort'
p5224
sS'PartOfSpeech'
p5225
S'NNS'
p5226
sS'CharacterOffsetBegin'
p5227
S'1400'
p5228
stp5229
a(S'with'
p5230
(dp5231
S'NamedEntityTag'
p5232
g90
sS'CharacterOffsetEnd'
p5233
S'1412'
p5234
sS'Lemma'
p5235
S'with'
p5236
sS'PartOfSpeech'
p5237
S'IN'
p5238
sS'CharacterOffsetBegin'
p5239
S'1408'
p5240
stp5241
a(S'the'
p5242
(dp5243
S'NamedEntityTag'
p5244
g90
sS'CharacterOffsetEnd'
p5245
S'1416'
p5246
sS'Lemma'
p5247
S'the'
p5248
sS'PartOfSpeech'
p5249
S'DT'
p5250
sS'CharacterOffsetBegin'
p5251
S'1413'
p5252
stp5253
a(S'U.S.'
p5254
(dp5255
S'NamedEntityTag'
p5256
S'LOCATION'
p5257
sS'CharacterOffsetEnd'
p5258
S'1421'
p5259
sS'Lemma'
p5260
S'U.S.'
p5261
sS'PartOfSpeech'
p5262
S'NNP'
p5263
sS'CharacterOffsetBegin'
p5264
S'1417'
p5265
stp5266
a(S'and'
p5267
(dp5268
S'NamedEntityTag'
p5269
g90
sS'CharacterOffsetEnd'
p5270
S'1425'
p5271
sS'Lemma'
p5272
S'and'
p5273
sS'PartOfSpeech'
p5274
S'CC'
p5275
sS'CharacterOffsetBegin'
p5276
S'1422'
p5277
stp5278
a(S'Southeast'
p5279
(dp5280
S'NamedEntityTag'
p5281
S'LOCATION'
p5282
sS'CharacterOffsetEnd'
p5283
S'1435'
p5284
sS'Lemma'
p5285
S'Southeast'
p5286
sS'PartOfSpeech'
p5287
S'NNP'
p5288
sS'CharacterOffsetBegin'
p5289
S'1426'
p5290
stp5291
a(S'Asian'
p5292
(dp5293
S'NamedEntityTag'
p5294
S'LOCATION'
p5295
sS'CharacterOffsetEnd'
p5296
S'1441'
p5297
sS'Lemma'
p5298
S'Asian'
p5299
sS'PartOfSpeech'
p5300
S'NNP'
p5301
sS'CharacterOffsetBegin'
p5302
S'1436'
p5303
stp5304
a(S'governments'
p5305
(dp5306
S'NamedEntityTag'
p5307
g90
sS'CharacterOffsetEnd'
p5308
S'1453'
p5309
sS'Lemma'
p5310
S'government'
p5311
sS'PartOfSpeech'
p5312
S'NNS'
p5313
sS'CharacterOffsetBegin'
p5314
S'1442'
p5315
stp5316
a(S'have'
p5317
(dp5318
S'NamedEntityTag'
p5319
g90
sS'CharacterOffsetEnd'
p5320
S'1458'
p5321
sS'Lemma'
p5322
S'have'
p5323
sS'PartOfSpeech'
p5324
S'VBP'
p5325
sS'CharacterOffsetBegin'
p5326
S'1454'
p5327
stp5328
a(S'concentrated'
p5329
(dp5330
S'NamedEntityTag'
p5331
g90
sS'CharacterOffsetEnd'
p5332
S'1471'
p5333
sS'Lemma'
p5334
S'concentrate'
p5335
sS'PartOfSpeech'
p5336
S'VBN'
p5337
sS'CharacterOffsetBegin'
p5338
S'1459'
p5339
stp5340
a(S'on'
p5341
(dp5342
S'NamedEntityTag'
p5343
g90
sS'CharacterOffsetEnd'
p5344
S'1474'
p5345
sS'Lemma'
p5346
S'on'
p5347
sS'PartOfSpeech'
p5348
S'IN'
p5349
sS'CharacterOffsetBegin'
p5350
S'1472'
p5351
stp5352
a(S'removing'
p5353
(dp5354
S'NamedEntityTag'
p5355
g90
sS'CharacterOffsetEnd'
p5356
S'1483'
p5357
sS'Lemma'
p5358
S'remove'
p5359
sS'PartOfSpeech'
p5360
S'VBG'
p5361
sS'CharacterOffsetBegin'
p5362
S'1475'
p5363
stp5364
a(S'tariffs'
p5365
(dp5366
S'NamedEntityTag'
p5367
g90
sS'CharacterOffsetEnd'
p5368
S'1491'
p5369
sS'Lemma'
p5370
S'tariff'
p5371
sS'PartOfSpeech'
p5372
S'NNS'
p5373
sS'CharacterOffsetBegin'
p5374
S'1484'
p5375
stp5376
a(S'and'
p5377
(dp5378
S'NamedEntityTag'
p5379
g90
sS'CharacterOffsetEnd'
p5380
S'1495'
p5381
sS'Lemma'
p5382
S'and'
p5383
sS'PartOfSpeech'
p5384
S'CC'
p5385
sS'CharacterOffsetBegin'
p5386
S'1492'
p5387
stp5388
a(S'other'
p5389
(dp5390
S'NamedEntityTag'
p5391
g90
sS'CharacterOffsetEnd'
p5392
S'1501'
p5393
sS'Lemma'
p5394
S'other'
p5395
sS'PartOfSpeech'
p5396
S'JJ'
p5397
sS'CharacterOffsetBegin'
p5398
S'1496'
p5399
stp5400
a(S'barriers'
p5401
(dp5402
S'NamedEntityTag'
p5403
g90
sS'CharacterOffsetEnd'
p5404
S'1510'
p5405
sS'Lemma'
p5406
S'barrier'
p5407
sS'PartOfSpeech'
p5408
S'NNS'
p5409
sS'CharacterOffsetBegin'
p5410
S'1502'
p5411
stp5412
a(S'to'
p5413
(dp5414
S'NamedEntityTag'
p5415
g90
sS'CharacterOffsetEnd'
p5416
S'1513'
p5417
sS'Lemma'
p5418
S'to'
p5419
sS'PartOfSpeech'
p5420
S'TO'
p5421
sS'CharacterOffsetBegin'
p5422
S'1511'
p5423
stp5424
a(S'overseas'
p5425
(dp5426
S'NamedEntityTag'
p5427
g90
sS'CharacterOffsetEnd'
p5428
S'1522'
p5429
sS'Lemma'
p5430
S'overseas'
p5431
sS'PartOfSpeech'
p5432
S'JJ'
p5433
sS'CharacterOffsetBegin'
p5434
S'1514'
p5435
stp5436
a(S'trade'
p5437
(dp5438
S'NamedEntityTag'
p5439
g90
sS'CharacterOffsetEnd'
p5440
S'1528'
p5441
sS'Lemma'
p5442
S'trade'
p5443
sS'PartOfSpeech'
p5444
S'NN'
p5445
sS'CharacterOffsetBegin'
p5446
S'1523'
p5447
stp5448
a(g233
(dp5449
S'NamedEntityTag'
p5450
g90
sS'CharacterOffsetEnd'
p5451
S'1529'
p5452
sS'Lemma'
p5453
g233
sS'PartOfSpeech'
p5454
g233
sS'CharacterOffsetBegin'
p5455
S'1528'
p5456
stp5457
asa(dp5458
g7
S'(ROOT (S (NP (DT The) (NN delegation)) (VP (MD will) (VP (VB travel) (PP (TO to) (NP (NP (NNP Kuala) (NNP Lumpur)) (PP (IN for) (NP (DT the) (NNP Asia-Pacific) (NNP Economic) (NNP Cooperation) (NN forum))))) (NP-TMP (NNP Nov) (CD 14-18)))) (. .)))'
p5459
sg9
S'The delegation will travel to Kuala Lumpur for the Asia-Pacific Economic Cooperation forum Nov 14-18.'
p5460
sg11
(lp5461
(S'root'
p5462
S'ROOT'
p5463
S'travel'
p5464
tp5465
a(S'det'
p5466
S'delegation'
p5467
S'The'
p5468
tp5469
a(S'nsubj'
p5470
S'travel'
p5471
S'delegation'
p5472
tp5473
a(S'aux'
p5474
S'travel'
p5475
S'will'
p5476
tp5477
a(S'nn'
p5478
S'Lumpur'
p5479
S'Kuala'
p5480
tp5481
a(S'prep_to'
p5482
S'travel'
p5483
S'Lumpur'
p5484
tp5485
a(S'det'
p5486
S'forum'
p5487
S'the'
p5488
tp5489
a(S'nn'
p5490
S'forum'
p5491
S'Asia-Pacific'
p5492
tp5493
a(S'nn'
p5494
S'forum'
p5495
S'Economic'
p5496
tp5497
a(S'nn'
p5498
S'forum'
p5499
S'Cooperation'
p5500
tp5501
a(S'prep_for'
p5502
S'Lumpur'
p5503
S'forum'
p5504
tp5505
a(S'tmod'
p5506
S'travel'
p5507
S'Nov'
p5508
tp5509
a(S'num'
p5510
S'Nov'
p5511
S'14-18'
p5512
tp5513
asg53
(lp5514
(g5462
S'ROOT-0'
p5515
S'travel-4'
p5516
tp5517
a(g5466
S'delegation-2'
p5518
S'The-1'
p5519
tp5520
a(g5470
S'travel-4'
p5521
S'delegation-2'
p5522
tp5523
a(g5474
S'travel-4'
p5524
S'will-3'
p5525
tp5526
a(g5478
S'Lumpur-7'
p5527
S'Kuala-6'
p5528
tp5529
a(g5482
S'travel-4'
p5530
S'Lumpur-7'
p5531
tp5532
a(g5486
S'forum-13'
p5533
S'the-9'
p5534
tp5535
a(g5490
S'forum-13'
p5536
S'Asia-Pacific-10'
p5537
tp5538
a(g5494
S'forum-13'
p5539
S'Economic-11'
p5540
tp5541
a(g5498
S'forum-13'
p5542
S'Cooperation-12'
p5543
tp5544
a(g5502
S'Lumpur-7'
p5545
S'forum-13'
p5546
tp5547
a(g5506
S'travel-4'
p5548
S'Nov-14'
p5549
tp5550
a(g5510
S'Nov-14'
p5551
S'14-18-15'
p5552
tp5553
asg85
(lp5554
(S'The'
p5555
(dp5556
S'NamedEntityTag'
p5557
g90
sS'CharacterOffsetEnd'
p5558
S'1533'
p5559
sS'Lemma'
p5560
S'the'
p5561
sS'PartOfSpeech'
p5562
S'DT'
p5563
sS'CharacterOffsetBegin'
p5564
S'1530'
p5565
stp5566
a(S'delegation'
p5567
(dp5568
S'NamedEntityTag'
p5569
g90
sS'CharacterOffsetEnd'
p5570
S'1544'
p5571
sS'Lemma'
p5572
S'delegation'
p5573
sS'PartOfSpeech'
p5574
S'NN'
p5575
sS'CharacterOffsetBegin'
p5576
S'1534'
p5577
stp5578
a(S'will'
p5579
(dp5580
S'NamedEntityTag'
p5581
g90
sS'CharacterOffsetEnd'
p5582
S'1549'
p5583
sS'Lemma'
p5584
S'will'
p5585
sS'PartOfSpeech'
p5586
S'MD'
p5587
sS'CharacterOffsetBegin'
p5588
S'1545'
p5589
stp5590
a(S'travel'
p5591
(dp5592
S'NamedEntityTag'
p5593
g90
sS'CharacterOffsetEnd'
p5594
S'1556'
p5595
sS'Lemma'
p5596
S'travel'
p5597
sS'PartOfSpeech'
p5598
S'VB'
p5599
sS'CharacterOffsetBegin'
p5600
S'1550'
p5601
stp5602
a(S'to'
p5603
(dp5604
S'NamedEntityTag'
p5605
g90
sS'CharacterOffsetEnd'
p5606
S'1559'
p5607
sS'Lemma'
p5608
S'to'
p5609
sS'PartOfSpeech'
p5610
S'TO'
p5611
sS'CharacterOffsetBegin'
p5612
S'1557'
p5613
stp5614
a(S'Kuala'
p5615
(dp5616
S'NamedEntityTag'
p5617
g90
sS'CharacterOffsetEnd'
p5618
S'1565'
p5619
sS'Lemma'
p5620
S'Kuala'
p5621
sS'PartOfSpeech'
p5622
S'NNP'
p5623
sS'CharacterOffsetBegin'
p5624
S'1560'
p5625
stp5626
a(S'Lumpur'
p5627
(dp5628
S'NamedEntityTag'
p5629
g90
sS'CharacterOffsetEnd'
p5630
S'1572'
p5631
sS'Lemma'
p5632
S'Lumpur'
p5633
sS'PartOfSpeech'
p5634
S'NNP'
p5635
sS'CharacterOffsetBegin'
p5636
S'1566'
p5637
stp5638
a(S'for'
p5639
(dp5640
S'NamedEntityTag'
p5641
g90
sS'CharacterOffsetEnd'
p5642
S'1576'
p5643
sS'Lemma'
p5644
S'for'
p5645
sS'PartOfSpeech'
p5646
S'IN'
p5647
sS'CharacterOffsetBegin'
p5648
S'1573'
p5649
stp5650
a(S'the'
p5651
(dp5652
S'NamedEntityTag'
p5653
g90
sS'CharacterOffsetEnd'
p5654
S'1580'
p5655
sS'Lemma'
p5656
S'the'
p5657
sS'PartOfSpeech'
p5658
S'DT'
p5659
sS'CharacterOffsetBegin'
p5660
S'1577'
p5661
stp5662
a(S'Asia-Pacific'
p5663
(dp5664
S'NamedEntityTag'
p5665
g90
sS'CharacterOffsetEnd'
p5666
S'1593'
p5667
sS'Lemma'
p5668
S'Asia-Pacific'
p5669
sS'PartOfSpeech'
p5670
S'NNP'
p5671
sS'CharacterOffsetBegin'
p5672
S'1581'
p5673
stp5674
a(S'Economic'
p5675
(dp5676
S'NamedEntityTag'
p5677
g90
sS'CharacterOffsetEnd'
p5678
S'1602'
p5679
sS'Lemma'
p5680
S'Economic'
p5681
sS'PartOfSpeech'
p5682
S'NNP'
p5683
sS'CharacterOffsetBegin'
p5684
S'1594'
p5685
stp5686
a(S'Cooperation'
p5687
(dp5688
S'NamedEntityTag'
p5689
g90
sS'CharacterOffsetEnd'
p5690
S'1614'
p5691
sS'Lemma'
p5692
S'Cooperation'
p5693
sS'PartOfSpeech'
p5694
S'NNP'
p5695
sS'CharacterOffsetBegin'
p5696
S'1603'
p5697
stp5698
a(S'forum'
p5699
(dp5700
S'NamedEntityTag'
p5701
g90
sS'CharacterOffsetEnd'
p5702
S'1620'
p5703
sS'Lemma'
p5704
S'forum'
p5705
sS'PartOfSpeech'
p5706
S'NN'
p5707
sS'CharacterOffsetBegin'
p5708
S'1615'
p5709
stp5710
a(S'Nov'
p5711
(dp5712
S'NormalizedNamedEntityTag'
p5713
S'XXXX-11'
p5714
sS'Timex'
p5715
S'<TIMEX3 tid="t8" type="DATE" value="XXXX-11">Nov</TIMEX3>'
p5716
sS'Lemma'
p5717
S'Nov'
p5718
sS'CharacterOffsetEnd'
p5719
S'1624'
p5720
sS'PartOfSpeech'
p5721
S'NNP'
p5722
sS'CharacterOffsetBegin'
p5723
S'1621'
p5724
sS'NamedEntityTag'
p5725
S'DATE'
p5726
stp5727
a(S'14-18'
p5728
(dp5729
S'NormalizedNamedEntityTag'
p5730
S'XXXX-11'
p5731
sS'Lemma'
p5732
S'14-18'
p5733
sS'CharacterOffsetEnd'
p5734
S'1630'
p5735
sS'PartOfSpeech'
p5736
S'CD'
p5737
sS'CharacterOffsetBegin'
p5738
S'1625'
p5739
sS'NamedEntityTag'
p5740
S'DATE'
p5741
stp5742
a(g233
(dp5743
S'NamedEntityTag'
p5744
g90
sS'CharacterOffsetEnd'
p5745
S'1631'
p5746
sS'Lemma'
p5747
g233
sS'PartOfSpeech'
p5748
g233
sS'CharacterOffsetBegin'
p5749
S'1630'
p5750
stp5751
asa(dp5752
g7
S'(ROOT (S (NP (NNP David)) (VP (VBD said) (SBAR (S (NP (JJ free) (NN trade)) (VP (MD should) (VP (VB be) (NP (NP (DT a) (NN focus)) (PP (IN of) (NP (NP (NNS discussions)) (PP (IN among) (NP (NP (DT the) (NN government) (NNS leaders)) (VP (VBG attending)))))))))))) (. .)))'
p5753
sg9
S'David said free trade should be a focus of discussions among the government leaders attending.'
p5754
sg11
(lp5755
(S'root'
p5756
S'ROOT'
p5757
S'said'
p5758
tp5759
a(S'nsubj'
p5760
S'said'
p5761
S'David'
p5762
tp5763
a(S'amod'
p5764
S'trade'
p5765
S'free'
p5766
tp5767
a(S'nsubj'
p5768
S'focus'
p5769
S'trade'
p5770
tp5771
a(S'aux'
p5772
S'focus'
p5773
S'should'
p5774
tp5775
a(S'cop'
p5776
S'focus'
p5777
S'be'
p5778
tp5779
a(S'det'
p5780
S'focus'
p5781
g1224
tp5782
a(S'ccomp'
p5783
S'said'
p5784
S'focus'
p5785
tp5786
a(S'prep_of'
p5787
S'focus'
p5788
S'discussions'
p5789
tp5790
a(S'det'
p5791
S'leaders'
p5792
S'the'
p5793
tp5794
a(S'nn'
p5795
S'leaders'
p5796
S'government'
p5797
tp5798
a(S'prep_among'
p5799
S'discussions'
p5800
S'leaders'
p5801
tp5802
a(S'partmod'
p5803
S'leaders'
p5804
S'attending'
p5805
tp5806
asg53
(lp5807
(g5756
S'ROOT-0'
p5808
S'said-2'
p5809
tp5810
a(g5760
S'said-2'
p5811
S'David-1'
p5812
tp5813
a(g5764
S'trade-4'
p5814
S'free-3'
p5815
tp5816
a(g5768
S'focus-8'
p5817
S'trade-4'
p5818
tp5819
a(g5772
S'focus-8'
p5820
S'should-5'
p5821
tp5822
a(g5776
S'focus-8'
p5823
S'be-6'
p5824
tp5825
a(g5780
S'focus-8'
p5826
S'a-7'
p5827
tp5828
a(g5783
S'said-2'
p5829
S'focus-8'
p5830
tp5831
a(g5787
S'focus-8'
p5832
S'discussions-10'
p5833
tp5834
a(g5791
S'leaders-14'
p5835
S'the-12'
p5836
tp5837
a(g5795
S'leaders-14'
p5838
S'government-13'
p5839
tp5840
a(g5799
S'discussions-10'
p5841
S'leaders-14'
p5842
tp5843
a(g5803
S'leaders-14'
p5844
S'attending-15'
p5845
tp5846
asg85
(lp5847
(S'David'
p5848
(dp5849
S'NamedEntityTag'
p5850
S'PERSON'
p5851
sS'CharacterOffsetEnd'
p5852
S'1637'
p5853
sS'Lemma'
p5854
S'David'
p5855
sS'PartOfSpeech'
p5856
S'NNP'
p5857
sS'CharacterOffsetBegin'
p5858
S'1632'
p5859
stp5860
a(S'said'
p5861
(dp5862
S'NamedEntityTag'
p5863
g90
sS'CharacterOffsetEnd'
p5864
S'1642'
p5865
sS'Lemma'
p5866
S'say'
p5867
sS'PartOfSpeech'
p5868
S'VBD'
p5869
sS'CharacterOffsetBegin'
p5870
S'1638'
p5871
stp5872
a(S'free'
p5873
(dp5874
S'NamedEntityTag'
p5875
g90
sS'CharacterOffsetEnd'
p5876
S'1647'
p5877
sS'Lemma'
p5878
S'free'
p5879
sS'PartOfSpeech'
p5880
S'JJ'
p5881
sS'CharacterOffsetBegin'
p5882
S'1643'
p5883
stp5884
a(S'trade'
p5885
(dp5886
S'NamedEntityTag'
p5887
g90
sS'CharacterOffsetEnd'
p5888
S'1653'
p5889
sS'Lemma'
p5890
S'trade'
p5891
sS'PartOfSpeech'
p5892
S'NN'
p5893
sS'CharacterOffsetBegin'
p5894
S'1648'
p5895
stp5896
a(S'should'
p5897
(dp5898
S'NamedEntityTag'
p5899
g90
sS'CharacterOffsetEnd'
p5900
S'1660'
p5901
sS'Lemma'
p5902
S'should'
p5903
sS'PartOfSpeech'
p5904
S'MD'
p5905
sS'CharacterOffsetBegin'
p5906
S'1654'
p5907
stp5908
a(S'be'
p5909
(dp5910
S'NamedEntityTag'
p5911
g90
sS'CharacterOffsetEnd'
p5912
S'1663'
p5913
sS'Lemma'
p5914
S'be'
p5915
sS'PartOfSpeech'
p5916
S'VB'
p5917
sS'CharacterOffsetBegin'
p5918
S'1661'
p5919
stp5920
a(g1224
(dp5921
S'NamedEntityTag'
p5922
g90
sS'CharacterOffsetEnd'
p5923
S'1665'
p5924
sS'Lemma'
p5925
g1224
sS'PartOfSpeech'
p5926
S'DT'
p5927
sS'CharacterOffsetBegin'
p5928
S'1664'
p5929
stp5930
a(S'focus'
p5931
(dp5932
S'NamedEntityTag'
p5933
g90
sS'CharacterOffsetEnd'
p5934
S'1671'
p5935
sS'Lemma'
p5936
S'focus'
p5937
sS'PartOfSpeech'
p5938
S'NN'
p5939
sS'CharacterOffsetBegin'
p5940
S'1666'
p5941
stp5942
a(S'of'
p5943
(dp5944
S'NamedEntityTag'
p5945
g90
sS'CharacterOffsetEnd'
p5946
S'1674'
p5947
sS'Lemma'
p5948
S'of'
p5949
sS'PartOfSpeech'
p5950
S'IN'
p5951
sS'CharacterOffsetBegin'
p5952
S'1672'
p5953
stp5954
a(S'discussions'
p5955
(dp5956
S'NamedEntityTag'
p5957
g90
sS'CharacterOffsetEnd'
p5958
S'1686'
p5959
sS'Lemma'
p5960
S'discussion'
p5961
sS'PartOfSpeech'
p5962
S'NNS'
p5963
sS'CharacterOffsetBegin'
p5964
S'1675'
p5965
stp5966
a(S'among'
p5967
(dp5968
S'NamedEntityTag'
p5969
g90
sS'CharacterOffsetEnd'
p5970
S'1692'
p5971
sS'Lemma'
p5972
S'among'
p5973
sS'PartOfSpeech'
p5974
S'IN'
p5975
sS'CharacterOffsetBegin'
p5976
S'1687'
p5977
stp5978
a(S'the'
p5979
(dp5980
S'NamedEntityTag'
p5981
g90
sS'CharacterOffsetEnd'
p5982
S'1696'
p5983
sS'Lemma'
p5984
S'the'
p5985
sS'PartOfSpeech'
p5986
S'DT'
p5987
sS'CharacterOffsetBegin'
p5988
S'1693'
p5989
stp5990
a(S'government'
p5991
(dp5992
S'NamedEntityTag'
p5993
g90
sS'CharacterOffsetEnd'
p5994
S'1707'
p5995
sS'Lemma'
p5996
S'government'
p5997
sS'PartOfSpeech'
p5998
S'NN'
p5999
sS'CharacterOffsetBegin'
p6000
S'1697'
p6001
stp6002
a(S'leaders'
p6003
(dp6004
S'NamedEntityTag'
p6005
g90
sS'CharacterOffsetEnd'
p6006
S'1715'
p6007
sS'Lemma'
p6008
S'leader'
p6009
sS'PartOfSpeech'
p6010
S'NNS'
p6011
sS'CharacterOffsetBegin'
p6012
S'1708'
p6013
stp6014
a(S'attending'
p6015
(dp6016
S'NamedEntityTag'
p6017
g90
sS'CharacterOffsetEnd'
p6018
S'1725'
p6019
sS'Lemma'
p6020
S'attend'
p6021
sS'PartOfSpeech'
p6022
S'VBG'
p6023
sS'CharacterOffsetBegin'
p6024
S'1716'
p6025
stp6026
a(g233
(dp6027
S'NamedEntityTag'
p6028
g90
sS'CharacterOffsetEnd'
p6029
S'1726'
p6030
sS'Lemma'
p6031
g233
sS'PartOfSpeech'
p6032
g233
sS'CharacterOffsetBegin'
p6033
S'1725'
p6034
stp6035
asa(dp6036
g7
S'(ROOT (S (S (SBAR (WHNP (WP What)) (S (NP (PRP I)) (VP (VBP hope) (SBAR (S (NP (PRP they)) (VP (MD will) (VP (VB say) (PP (IN at) (NP (NNP APEC)))))))))) (VP (VBZ is) (NP (NP (DT a) (ADJP (RB very) (JJ strong)) (NN affirmation)) (PP (IN of) (NP (DT the) (JJ free-trade) (NN agenda)))))) (CC and) (S (NP (NP (DT a) (ADJP (RB very) (JJ strong)) (NN affirmation)) (PP (IN of) (NP (DT the) (JJ foreign) (JJ direct) (NN investment) (NN agenda)))) (, ,) (NP (PRP he)) (VP (VBD added))) (. .)))'
p6037
sg9
S'What I hope they will say at APEC is a very strong affirmation of the free-trade agenda and a very strong affirmation of the foreign direct investment agenda, he added.'
p6038
sg11
(lp6039
(S'root'
p6040
S'ROOT'
p6041
S'affirmation'
p6042
tp6043
a(S'dobj'
p6044
S'hope'
p6045
S'What'
p6046
tp6047
a(S'nsubj'
p6048
S'hope'
p6049
S'I'
p6050
tp6051
a(S'csubj'
p6052
S'affirmation'
p6053
S'hope'
p6054
tp6055
a(S'nsubj'
p6056
S'say'
p6057
S'they'
p6058
tp6059
a(S'aux'
p6060
S'say'
p6061
S'will'
p6062
tp6063
a(S'ccomp'
p6064
S'hope'
p6065
S'say'
p6066
tp6067
a(S'prep_at'
p6068
S'say'
p6069
S'APEC'
p6070
tp6071
a(S'cop'
p6072
S'affirmation'
p6073
S'is'
p6074
tp6075
a(S'det'
p6076
S'affirmation'
p6077
g1224
tp6078
a(S'advmod'
p6079
S'strong'
p6080
S'very'
p6081
tp6082
a(S'amod'
p6083
S'affirmation'
p6084
S'strong'
p6085
tp6086
a(S'det'
p6087
S'agenda'
p6088
S'the'
p6089
tp6090
a(S'amod'
p6091
S'agenda'
p6092
S'free-trade'
p6093
tp6094
a(S'prep_of'
p6095
S'affirmation'
p6096
S'agenda'
p6097
tp6098
a(S'det'
p6099
S'affirmation'
p6100
g1224
tp6101
a(S'advmod'
p6102
S'strong'
p6103
S'very'
p6104
tp6105
a(S'amod'
p6106
S'affirmation'
p6107
S'strong'
p6108
tp6109
a(S'nsubj'
p6110
S'added'
p6111
S'affirmation'
p6112
tp6113
a(S'det'
p6114
S'agenda'
p6115
S'the'
p6116
tp6117
a(S'amod'
p6118
S'agenda'
p6119
S'foreign'
p6120
tp6121
a(S'amod'
p6122
S'agenda'
p6123
S'direct'
p6124
tp6125
a(S'nn'
p6126
S'agenda'
p6127
S'investment'
p6128
tp6129
a(S'prep_of'
p6130
S'affirmation'
p6131
S'agenda'
p6132
tp6133
a(S'nsubj'
p6134
S'added'
p6135
S'he'
p6136
tp6137
a(S'conj_and'
p6138
S'affirmation'
p6139
S'added'
p6140
tp6141
asg53
(lp6142
(g6040
S'ROOT-0'
p6143
S'affirmation-13'
p6144
tp6145
a(g6044
S'hope-3'
p6146
S'What-1'
p6147
tp6148
a(g6048
S'hope-3'
p6149
S'I-2'
p6150
tp6151
a(g6052
S'affirmation-13'
p6152
S'hope-3'
p6153
tp6154
a(g6056
S'say-6'
p6155
S'they-4'
p6156
tp6157
a(g6060
S'say-6'
p6158
S'will-5'
p6159
tp6160
a(g6064
S'hope-3'
p6161
S'say-6'
p6162
tp6163
a(g6068
S'say-6'
p6164
S'APEC-8'
p6165
tp6166
a(g6072
S'affirmation-13'
p6167
S'is-9'
p6168
tp6169
a(g6076
S'affirmation-13'
p6170
S'a-10'
p6171
tp6172
a(g6079
S'strong-12'
p6173
S'very-11'
p6174
tp6175
a(g6083
S'affirmation-13'
p6176
S'strong-12'
p6177
tp6178
a(g6087
S'agenda-17'
p6179
S'the-15'
p6180
tp6181
a(g6091
S'agenda-17'
p6182
S'free-trade-16'
p6183
tp6184
a(g6095
S'affirmation-13'
p6185
S'agenda-17'
p6186
tp6187
a(g6099
S'affirmation-22'
p6188
S'a-19'
p6189
tp6190
a(g6102
S'strong-21'
p6191
S'very-20'
p6192
tp6193
a(g6106
S'affirmation-22'
p6194
S'strong-21'
p6195
tp6196
a(g6110
S'added-31'
p6197
S'affirmation-22'
p6198
tp6199
a(g6114
S'agenda-28'
p6200
S'the-24'
p6201
tp6202
a(g6118
S'agenda-28'
p6203
S'foreign-25'
p6204
tp6205
a(g6122
S'agenda-28'
p6206
S'direct-26'
p6207
tp6208
a(g6126
S'agenda-28'
p6209
S'investment-27'
p6210
tp6211
a(g6130
S'affirmation-22'
p6212
S'agenda-28'
p6213
tp6214
a(g6134
S'added-31'
p6215
S'he-30'
p6216
tp6217
a(g6138
S'affirmation-13'
p6218
S'added-31'
p6219
tp6220
asg85
(lp6221
(S'What'
p6222
(dp6223
S'NamedEntityTag'
p6224
g90
sS'CharacterOffsetEnd'
p6225
S'1731'
p6226
sS'Lemma'
p6227
S'what'
p6228
sS'PartOfSpeech'
p6229
S'WP'
p6230
sS'CharacterOffsetBegin'
p6231
S'1727'
p6232
stp6233
a(g6050
(dp6234
S'NamedEntityTag'
p6235
g90
sS'CharacterOffsetEnd'
p6236
S'1733'
p6237
sS'Lemma'
p6238
g6050
sS'PartOfSpeech'
p6239
S'PRP'
p6240
sS'CharacterOffsetBegin'
p6241
S'1732'
p6242
stp6243
a(S'hope'
p6244
(dp6245
S'NamedEntityTag'
p6246
g90
sS'CharacterOffsetEnd'
p6247
S'1738'
p6248
sS'Lemma'
p6249
S'hope'
p6250
sS'PartOfSpeech'
p6251
S'VBP'
p6252
sS'CharacterOffsetBegin'
p6253
S'1734'
p6254
stp6255
a(S'they'
p6256
(dp6257
S'NamedEntityTag'
p6258
g90
sS'CharacterOffsetEnd'
p6259
S'1743'
p6260
sS'Lemma'
p6261
S'they'
p6262
sS'PartOfSpeech'
p6263
S'PRP'
p6264
sS'CharacterOffsetBegin'
p6265
S'1739'
p6266
stp6267
a(S'will'
p6268
(dp6269
S'NamedEntityTag'
p6270
g90
sS'CharacterOffsetEnd'
p6271
S'1748'
p6272
sS'Lemma'
p6273
S'will'
p6274
sS'PartOfSpeech'
p6275
S'MD'
p6276
sS'CharacterOffsetBegin'
p6277
S'1744'
p6278
stp6279
a(S'say'
p6280
(dp6281
S'NamedEntityTag'
p6282
g90
sS'CharacterOffsetEnd'
p6283
S'1752'
p6284
sS'Lemma'
p6285
S'say'
p6286
sS'PartOfSpeech'
p6287
S'VB'
p6288
sS'CharacterOffsetBegin'
p6289
S'1749'
p6290
stp6291
a(S'at'
p6292
(dp6293
S'NamedEntityTag'
p6294
g90
sS'CharacterOffsetEnd'
p6295
S'1755'
p6296
sS'Lemma'
p6297
S'at'
p6298
sS'PartOfSpeech'
p6299
S'IN'
p6300
sS'CharacterOffsetBegin'
p6301
S'1753'
p6302
stp6303
a(S'APEC'
p6304
(dp6305
S'NamedEntityTag'
p6306
S'ORGANIZATION'
p6307
sS'CharacterOffsetEnd'
p6308
S'1760'
p6309
sS'Lemma'
p6310
S'APEC'
p6311
sS'PartOfSpeech'
p6312
S'NNP'
p6313
sS'CharacterOffsetBegin'
p6314
S'1756'
p6315
stp6316
a(S'is'
p6317
(dp6318
S'NamedEntityTag'
p6319
g90
sS'CharacterOffsetEnd'
p6320
S'1763'
p6321
sS'Lemma'
p6322
S'be'
p6323
sS'PartOfSpeech'
p6324
S'VBZ'
p6325
sS'CharacterOffsetBegin'
p6326
S'1761'
p6327
stp6328
a(g1224
(dp6329
S'NamedEntityTag'
p6330
g90
sS'CharacterOffsetEnd'
p6331
S'1765'
p6332
sS'Lemma'
p6333
g1224
sS'PartOfSpeech'
p6334
S'DT'
p6335
sS'CharacterOffsetBegin'
p6336
S'1764'
p6337
stp6338
a(S'very'
p6339
(dp6340
S'NamedEntityTag'
p6341
g90
sS'CharacterOffsetEnd'
p6342
S'1770'
p6343
sS'Lemma'
p6344
S'very'
p6345
sS'PartOfSpeech'
p6346
S'RB'
p6347
sS'CharacterOffsetBegin'
p6348
S'1766'
p6349
stp6350
a(S'strong'
p6351
(dp6352
S'NamedEntityTag'
p6353
g90
sS'CharacterOffsetEnd'
p6354
S'1777'
p6355
sS'Lemma'
p6356
S'strong'
p6357
sS'PartOfSpeech'
p6358
S'JJ'
p6359
sS'CharacterOffsetBegin'
p6360
S'1771'
p6361
stp6362
a(S'affirmation'
p6363
(dp6364
S'NamedEntityTag'
p6365
g90
sS'CharacterOffsetEnd'
p6366
S'1789'
p6367
sS'Lemma'
p6368
S'affirmation'
p6369
sS'PartOfSpeech'
p6370
S'NN'
p6371
sS'CharacterOffsetBegin'
p6372
S'1778'
p6373
stp6374
a(S'of'
p6375
(dp6376
S'NamedEntityTag'
p6377
g90
sS'CharacterOffsetEnd'
p6378
S'1792'
p6379
sS'Lemma'
p6380
S'of'
p6381
sS'PartOfSpeech'
p6382
S'IN'
p6383
sS'CharacterOffsetBegin'
p6384
S'1790'
p6385
stp6386
a(S'the'
p6387
(dp6388
S'NamedEntityTag'
p6389
g90
sS'CharacterOffsetEnd'
p6390
S'1796'
p6391
sS'Lemma'
p6392
S'the'
p6393
sS'PartOfSpeech'
p6394
S'DT'
p6395
sS'CharacterOffsetBegin'
p6396
S'1793'
p6397
stp6398
a(S'free-trade'
p6399
(dp6400
S'NamedEntityTag'
p6401
g90
sS'CharacterOffsetEnd'
p6402
S'1807'
p6403
sS'Lemma'
p6404
S'free-trade'
p6405
sS'PartOfSpeech'
p6406
S'JJ'
p6407
sS'CharacterOffsetBegin'
p6408
S'1797'
p6409
stp6410
a(S'agenda'
p6411
(dp6412
S'NamedEntityTag'
p6413
g90
sS'CharacterOffsetEnd'
p6414
S'1814'
p6415
sS'Lemma'
p6416
S'agenda'
p6417
sS'PartOfSpeech'
p6418
S'NN'
p6419
sS'CharacterOffsetBegin'
p6420
S'1808'
p6421
stp6422
a(S'and'
p6423
(dp6424
S'NamedEntityTag'
p6425
g90
sS'CharacterOffsetEnd'
p6426
S'1818'
p6427
sS'Lemma'
p6428
S'and'
p6429
sS'PartOfSpeech'
p6430
S'CC'
p6431
sS'CharacterOffsetBegin'
p6432
S'1815'
p6433
stp6434
a(g1224
(dp6435
S'NamedEntityTag'
p6436
g90
sS'CharacterOffsetEnd'
p6437
S'1820'
p6438
sS'Lemma'
p6439
g1224
sS'PartOfSpeech'
p6440
S'DT'
p6441
sS'CharacterOffsetBegin'
p6442
S'1819'
p6443
stp6444
a(S'very'
p6445
(dp6446
S'NamedEntityTag'
p6447
g90
sS'CharacterOffsetEnd'
p6448
S'1825'
p6449
sS'Lemma'
p6450
S'very'
p6451
sS'PartOfSpeech'
p6452
S'RB'
p6453
sS'CharacterOffsetBegin'
p6454
S'1821'
p6455
stp6456
a(S'strong'
p6457
(dp6458
S'NamedEntityTag'
p6459
g90
sS'CharacterOffsetEnd'
p6460
S'1832'
p6461
sS'Lemma'
p6462
S'strong'
p6463
sS'PartOfSpeech'
p6464
S'JJ'
p6465
sS'CharacterOffsetBegin'
p6466
S'1826'
p6467
stp6468
a(S'affirmation'
p6469
(dp6470
S'NamedEntityTag'
p6471
g90
sS'CharacterOffsetEnd'
p6472
S'1844'
p6473
sS'Lemma'
p6474
S'affirmation'
p6475
sS'PartOfSpeech'
p6476
S'NN'
p6477
sS'CharacterOffsetBegin'
p6478
S'1833'
p6479
stp6480
a(S'of'
p6481
(dp6482
S'NamedEntityTag'
p6483
g90
sS'CharacterOffsetEnd'
p6484
S'1847'
p6485
sS'Lemma'
p6486
S'of'
p6487
sS'PartOfSpeech'
p6488
S'IN'
p6489
sS'CharacterOffsetBegin'
p6490
S'1845'
p6491
stp6492
a(S'the'
p6493
(dp6494
S'NamedEntityTag'
p6495
g90
sS'CharacterOffsetEnd'
p6496
S'1851'
p6497
sS'Lemma'
p6498
S'the'
p6499
sS'PartOfSpeech'
p6500
S'DT'
p6501
sS'CharacterOffsetBegin'
p6502
S'1848'
p6503
stp6504
a(S'foreign'
p6505
(dp6506
S'NamedEntityTag'
p6507
g90
sS'CharacterOffsetEnd'
p6508
S'1859'
p6509
sS'Lemma'
p6510
S'foreign'
p6511
sS'PartOfSpeech'
p6512
S'JJ'
p6513
sS'CharacterOffsetBegin'
p6514
S'1852'
p6515
stp6516
a(S'direct'
p6517
(dp6518
S'NamedEntityTag'
p6519
g90
sS'CharacterOffsetEnd'
p6520
S'1866'
p6521
sS'Lemma'
p6522
S'direct'
p6523
sS'PartOfSpeech'
p6524
S'JJ'
p6525
sS'CharacterOffsetBegin'
p6526
S'1860'
p6527
stp6528
a(S'investment'
p6529
(dp6530
S'NamedEntityTag'
p6531
g90
sS'CharacterOffsetEnd'
p6532
S'1877'
p6533
sS'Lemma'
p6534
S'investment'
p6535
sS'PartOfSpeech'
p6536
S'NN'
p6537
sS'CharacterOffsetBegin'
p6538
S'1867'
p6539
stp6540
a(S'agenda'
p6541
(dp6542
S'NamedEntityTag'
p6543
g90
sS'CharacterOffsetEnd'
p6544
S'1884'
p6545
sS'Lemma'
p6546
S'agenda'
p6547
sS'PartOfSpeech'
p6548
S'NN'
p6549
sS'CharacterOffsetBegin'
p6550
S'1878'
p6551
stp6552
a(g1455
(dp6553
S'NamedEntityTag'
p6554
g90
sS'CharacterOffsetEnd'
p6555
S'1885'
p6556
sS'Lemma'
p6557
g1455
sS'PartOfSpeech'
p6558
g1455
sS'CharacterOffsetBegin'
p6559
S'1884'
p6560
stp6561
a(S'he'
p6562
(dp6563
S'NamedEntityTag'
p6564
g90
sS'CharacterOffsetEnd'
p6565
S'1888'
p6566
sS'Lemma'
p6567
S'he'
p6568
sS'PartOfSpeech'
p6569
S'PRP'
p6570
sS'CharacterOffsetBegin'
p6571
S'1886'
p6572
stp6573
a(S'added'
p6574
(dp6575
S'NamedEntityTag'
p6576
g90
sS'CharacterOffsetEnd'
p6577
S'1894'
p6578
sS'Lemma'
p6579
S'add'
p6580
sS'PartOfSpeech'
p6581
S'VBD'
p6582
sS'CharacterOffsetBegin'
p6583
S'1889'
p6584
stp6585
a(g233
(dp6586
S'NamedEntityTag'
p6587
g90
sS'CharacterOffsetEnd'
p6588
S'1895'
p6589
sS'Lemma'
p6590
g233
sS'PartOfSpeech'
p6591
g233
sS'CharacterOffsetBegin'
p6592
S'1894'
p6593
stp6594
asass.