(dp0
S'models'
p1
(lp2
(dp3
S'coref'
p4
(lp5
(lp6
((S'his'
p7
I0
I0
I10
I11
tp8
(S'Pinochet'
p9
I0
I0
I0
I1
tp10
tp11
aasS'sentences'
p12
(lp13
(dp14
S'parsetree'
p15
S'(ROOT (S (NP (NNP Pinochet)) (VP (VBD met) (PP (IN with) (NP (NP (NNP Margaret) (NNP Thatcher)) (PP (IN at) (NP (PRP$ her) (NN home) (NNS weeks))))) (PP (IN before) (NP (PRP$ his) (NN arrest)))) (. .)))'
p16
sS'text'
p17
S'Pinochet met with Margaret Thatcher at her home weeks before his arrest.'
p18
sS'dependencies'
p19
(lp20
(S'root'
p21
S'ROOT'
p22
S'met'
p23
tp24
a(S'nsubj'
p25
S'met'
p26
S'Pinochet'
p27
tp28
a(S'nn'
p29
S'Thatcher'
p30
S'Margaret'
p31
tp32
a(S'prep_with'
p33
S'met'
p34
S'Thatcher'
p35
tp36
a(S'poss'
p37
S'weeks'
p38
S'her'
p39
tp40
a(S'nn'
p41
S'weeks'
p42
S'home'
p43
tp44
a(S'prep_at'
p45
S'Thatcher'
p46
S'weeks'
p47
tp48
a(S'poss'
p49
S'arrest'
p50
S'his'
p51
tp52
a(S'prep_before'
p53
S'met'
p54
S'arrest'
p55
tp56
asS'indexeddependencies'
p57
(lp58
(g21
S'ROOT-0'
p59
S'met-2'
p60
tp61
a(g25
S'met-2'
p62
S'Pinochet-1'
p63
tp64
a(g29
S'Thatcher-5'
p65
S'Margaret-4'
p66
tp67
a(g33
S'met-2'
p68
S'Thatcher-5'
p69
tp70
a(g37
S'weeks-9'
p71
S'her-7'
p72
tp73
a(g41
S'weeks-9'
p74
S'home-8'
p75
tp76
a(g45
S'Thatcher-5'
p77
S'weeks-9'
p78
tp79
a(g49
S'arrest-12'
p80
S'his-11'
p81
tp82
a(g53
S'met-2'
p83
S'arrest-12'
p84
tp85
asS'words'
p86
(lp87
(S'Pinochet'
p88
(dp89
S'NamedEntityTag'
p90
S'PERSON'
p91
sS'CharacterOffsetEnd'
p92
S'9'
p93
sS'Lemma'
p94
S'Pinochet'
p95
sS'PartOfSpeech'
p96
S'NNP'
p97
sS'CharacterOffsetBegin'
p98
S'1'
p99
stp100
a(S'met'
p101
(dp102
S'NamedEntityTag'
p103
S'O'
p104
sS'CharacterOffsetEnd'
p105
S'13'
p106
sS'Lemma'
p107
S'meet'
p108
sS'PartOfSpeech'
p109
S'VBD'
p110
sS'CharacterOffsetBegin'
p111
S'10'
p112
stp113
a(S'with'
p114
(dp115
S'NamedEntityTag'
p116
g104
sS'CharacterOffsetEnd'
p117
S'18'
p118
sS'Lemma'
p119
S'with'
p120
sS'PartOfSpeech'
p121
S'IN'
p122
sS'CharacterOffsetBegin'
p123
S'14'
p124
stp125
a(S'Margaret'
p126
(dp127
S'NamedEntityTag'
p128
S'PERSON'
p129
sS'CharacterOffsetEnd'
p130
S'27'
p131
sS'Lemma'
p132
S'Margaret'
p133
sS'PartOfSpeech'
p134
S'NNP'
p135
sS'CharacterOffsetBegin'
p136
S'19'
p137
stp138
a(S'Thatcher'
p139
(dp140
S'NamedEntityTag'
p141
S'PERSON'
p142
sS'CharacterOffsetEnd'
p143
S'36'
p144
sS'Lemma'
p145
S'Thatcher'
p146
sS'PartOfSpeech'
p147
S'NNP'
p148
sS'CharacterOffsetBegin'
p149
S'28'
p150
stp151
a(S'at'
p152
(dp153
S'NamedEntityTag'
p154
g104
sS'CharacterOffsetEnd'
p155
S'39'
p156
sS'Lemma'
p157
S'at'
p158
sS'PartOfSpeech'
p159
S'IN'
p160
sS'CharacterOffsetBegin'
p161
S'37'
p162
stp163
a(S'her'
p164
(dp165
S'NamedEntityTag'
p166
g104
sS'CharacterOffsetEnd'
p167
S'43'
p168
sS'Lemma'
p169
S'she'
p170
sS'PartOfSpeech'
p171
S'PRP$'
p172
sS'CharacterOffsetBegin'
p173
S'40'
p174
stp175
a(S'home'
p176
(dp177
S'NamedEntityTag'
p178
g104
sS'CharacterOffsetEnd'
p179
S'48'
p180
sS'Lemma'
p181
S'home'
p182
sS'PartOfSpeech'
p183
S'NN'
p184
sS'CharacterOffsetBegin'
p185
S'44'
p186
stp187
a(S'weeks'
p188
(dp189
S'NormalizedNamedEntityTag'
p190
S'PXW'
p191
sS'Timex'
p192
S'<TIMEX3 tid="t1" type="DURATION" value="PXW">weeks</TIMEX3>'
p193
sS'Lemma'
p194
S'week'
p195
sS'CharacterOffsetEnd'
p196
S'54'
p197
sS'PartOfSpeech'
p198
S'NNS'
p199
sS'CharacterOffsetBegin'
p200
S'49'
p201
sS'NamedEntityTag'
p202
S'DURATION'
p203
stp204
a(S'before'
p205
(dp206
S'NamedEntityTag'
p207
g104
sS'CharacterOffsetEnd'
p208
S'61'
p209
sS'Lemma'
p210
S'before'
p211
sS'PartOfSpeech'
p212
S'IN'
p213
sS'CharacterOffsetBegin'
p214
S'55'
p215
stp216
a(S'his'
p217
(dp218
S'NamedEntityTag'
p219
g104
sS'CharacterOffsetEnd'
p220
S'65'
p221
sS'Lemma'
p222
S'he'
p223
sS'PartOfSpeech'
p224
S'PRP$'
p225
sS'CharacterOffsetBegin'
p226
S'62'
p227
stp228
a(S'arrest'
p229
(dp230
S'NamedEntityTag'
p231
g104
sS'CharacterOffsetEnd'
p232
S'72'
p233
sS'Lemma'
p234
S'arrest'
p235
sS'PartOfSpeech'
p236
S'NN'
p237
sS'CharacterOffsetBegin'
p238
S'66'
p239
stp240
a(S'.'
p241
(dp242
S'NamedEntityTag'
p243
g104
sS'CharacterOffsetEnd'
p244
S'73'
p245
sS'Lemma'
p246
g241
sS'PartOfSpeech'
p247
g241
sS'CharacterOffsetBegin'
p248
S'72'
p249
stp250
asasa(dp251
g4
(lp252
(lp253
((S'his'
p254
I0
I8
I8
I9
tp255
(S'Ex-Prime Minister Thatcher'
p256
I0
I2
I0
I3
tp257
tp258
aasg12
(lp259
(dp260
g15
S'(ROOT (S (NP (NNP Ex-Prime) (NNP Minister) (NNP Thatcher)) (VP (VBD hosted) (NP (NNP Pinochet)) (PP (IN at) (NP (NN home))) (PP (IN before) (NP (PRP$ his) (NN arrest))))))'
p261
sg17
S'Ex-Prime Minister Thatcher hosted Pinochet at home before his arrest'
p262
sg19
(lp263
(S'root'
p264
S'ROOT'
p265
S'hosted'
p266
tp267
a(S'nn'
p268
S'Thatcher'
p269
S'Ex-Prime'
p270
tp271
a(S'nn'
p272
S'Thatcher'
p273
S'Minister'
p274
tp275
a(S'nsubj'
p276
S'hosted'
p277
S'Thatcher'
p278
tp279
a(S'dobj'
p280
S'hosted'
p281
S'Pinochet'
p282
tp283
a(S'prep_at'
p284
S'hosted'
p285
S'home'
p286
tp287
a(S'poss'
p288
S'arrest'
p289
S'his'
p290
tp291
a(S'prep_before'
p292
S'hosted'
p293
S'arrest'
p294
tp295
asg57
(lp296
(g264
S'ROOT-0'
p297
S'hosted-4'
p298
tp299
a(g268
S'Thatcher-3'
p300
S'Ex-Prime-1'
p301
tp302
a(g272
S'Thatcher-3'
p303
S'Minister-2'
p304
tp305
a(g276
S'hosted-4'
p306
S'Thatcher-3'
p307
tp308
a(g280
S'hosted-4'
p309
S'Pinochet-5'
p310
tp311
a(g284
S'hosted-4'
p312
S'home-7'
p313
tp314
a(g288
S'arrest-10'
p315
S'his-9'
p316
tp317
a(g292
S'hosted-4'
p318
S'arrest-10'
p319
tp320
asg86
(lp321
(S'Ex-Prime'
p322
(dp323
S'NamedEntityTag'
p324
g104
sS'CharacterOffsetEnd'
p325
g93
sS'Lemma'
p326
S'Ex-Prime'
p327
sS'PartOfSpeech'
p328
S'NNP'
p329
sS'CharacterOffsetBegin'
p330
g99
stp331
a(S'Minister'
p332
(dp333
S'NamedEntityTag'
p334
g104
sS'CharacterOffsetEnd'
p335
S'18'
p336
sS'Lemma'
p337
S'Minister'
p338
sS'PartOfSpeech'
p339
S'NNP'
p340
sS'CharacterOffsetBegin'
p341
S'10'
p342
stp343
a(S'Thatcher'
p344
(dp345
S'NamedEntityTag'
p346
S'PERSON'
p347
sS'CharacterOffsetEnd'
p348
S'27'
p349
sS'Lemma'
p350
S'Thatcher'
p351
sS'PartOfSpeech'
p352
S'NNP'
p353
sS'CharacterOffsetBegin'
p354
S'19'
p355
stp356
a(S'hosted'
p357
(dp358
S'NamedEntityTag'
p359
g104
sS'CharacterOffsetEnd'
p360
S'34'
p361
sS'Lemma'
p362
S'host'
p363
sS'PartOfSpeech'
p364
S'VBD'
p365
sS'CharacterOffsetBegin'
p366
S'28'
p367
stp368
a(S'Pinochet'
p369
(dp370
S'NamedEntityTag'
p371
S'PERSON'
p372
sS'CharacterOffsetEnd'
p373
S'43'
p374
sS'Lemma'
p375
S'Pinochet'
p376
sS'PartOfSpeech'
p377
S'NNP'
p378
sS'CharacterOffsetBegin'
p379
S'35'
p380
stp381
a(S'at'
p382
(dp383
S'NamedEntityTag'
p384
g104
sS'CharacterOffsetEnd'
p385
S'46'
p386
sS'Lemma'
p387
S'at'
p388
sS'PartOfSpeech'
p389
S'IN'
p390
sS'CharacterOffsetBegin'
p391
S'44'
p392
stp393
a(S'home'
p394
(dp395
S'NamedEntityTag'
p396
g104
sS'CharacterOffsetEnd'
p397
S'51'
p398
sS'Lemma'
p399
S'home'
p400
sS'PartOfSpeech'
p401
S'NN'
p402
sS'CharacterOffsetBegin'
p403
S'47'
p404
stp405
a(S'before'
p406
(dp407
S'NamedEntityTag'
p408
g104
sS'CharacterOffsetEnd'
p409
S'58'
p410
sS'Lemma'
p411
S'before'
p412
sS'PartOfSpeech'
p413
S'IN'
p414
sS'CharacterOffsetBegin'
p415
S'52'
p416
stp417
a(S'his'
p418
(dp419
S'NamedEntityTag'
p420
g104
sS'CharacterOffsetEnd'
p421
S'62'
p422
sS'Lemma'
p423
S'he'
p424
sS'PartOfSpeech'
p425
S'PRP$'
p426
sS'CharacterOffsetBegin'
p427
S'59'
p428
stp429
a(S'arrest'
p430
(dp431
S'NamedEntityTag'
p432
g104
sS'CharacterOffsetEnd'
p433
S'69'
p434
sS'Lemma'
p435
S'arrest'
p436
sS'PartOfSpeech'
p437
S'NN'
p438
sS'CharacterOffsetBegin'
p439
S'63'
p440
stp441
asasa(dp442
g12
(lp443
(dp444
g15
S'(ROOT (S (NP (NNP Thatcher)) (VP (VBD entertained) (NP (NNP Pinochet)) (NP-TMP (CD two) (NNS weeks)) (PP (IN before) (NP (NN arrest)))) (. .)))'
p445
sg17
S'Thatcher entertained Pinochet two weeks before arrest.'
p446
sg19
(lp447
(S'root'
p448
S'ROOT'
p449
S'entertained'
p450
tp451
a(S'nsubj'
p452
S'entertained'
p453
S'Thatcher'
p454
tp455
a(S'dobj'
p456
S'entertained'
p457
S'Pinochet'
p458
tp459
a(S'num'
p460
S'weeks'
p461
S'two'
p462
tp463
a(S'tmod'
p464
S'entertained'
p465
S'weeks'
p466
tp467
a(S'prep_before'
p468
S'entertained'
p469
S'arrest'
p470
tp471
asg57
(lp472
(g448
S'ROOT-0'
p473
S'entertained-2'
p474
tp475
a(g452
S'entertained-2'
p476
S'Thatcher-1'
p477
tp478
a(g456
S'entertained-2'
p479
S'Pinochet-3'
p480
tp481
a(g460
S'weeks-5'
p482
S'two-4'
p483
tp484
a(g464
S'entertained-2'
p485
S'weeks-5'
p486
tp487
a(g468
S'entertained-2'
p488
S'arrest-7'
p489
tp490
asg86
(lp491
(S'Thatcher'
p492
(dp493
S'NamedEntityTag'
p494
S'PERSON'
p495
sS'CharacterOffsetEnd'
p496
g93
sS'Lemma'
p497
S'Thatcher'
p498
sS'PartOfSpeech'
p499
S'NNP'
p500
sS'CharacterOffsetBegin'
p501
g99
stp502
a(S'entertained'
p503
(dp504
S'NamedEntityTag'
p505
g104
sS'CharacterOffsetEnd'
p506
S'21'
p507
sS'Lemma'
p508
S'entertain'
p509
sS'PartOfSpeech'
p510
S'VBD'
p511
sS'CharacterOffsetBegin'
p512
S'10'
p513
stp514
a(S'Pinochet'
p515
(dp516
S'NamedEntityTag'
p517
S'PERSON'
p518
sS'CharacterOffsetEnd'
p519
S'30'
p520
sS'Lemma'
p521
S'Pinochet'
p522
sS'PartOfSpeech'
p523
S'NNP'
p524
sS'CharacterOffsetBegin'
p525
S'22'
p526
stp527
a(S'two'
p528
(dp529
S'NormalizedNamedEntityTag'
p530
S'P2W'
p531
sS'Timex'
p532
S'<TIMEX3 tid="t1" type="DURATION" value="P2W">two weeks</TIMEX3>'
p533
sS'Lemma'
p534
S'two'
p535
sS'CharacterOffsetEnd'
p536
S'34'
p537
sS'PartOfSpeech'
p538
S'CD'
p539
sS'CharacterOffsetBegin'
p540
S'31'
p541
sS'NamedEntityTag'
p542
S'DURATION'
p543
stp544
a(S'weeks'
p545
(dp546
S'NormalizedNamedEntityTag'
p547
S'P2W'
p548
sS'Timex'
p549
S'<TIMEX3 tid="t1" type="DURATION" value="P2W">two weeks</TIMEX3>'
p550
sS'Lemma'
p551
S'week'
p552
sS'CharacterOffsetEnd'
p553
S'40'
p554
sS'PartOfSpeech'
p555
S'NNS'
p556
sS'CharacterOffsetBegin'
p557
S'35'
p558
sS'NamedEntityTag'
p559
S'DURATION'
p560
stp561
a(S'before'
p562
(dp563
S'NamedEntityTag'
p564
g104
sS'CharacterOffsetEnd'
p565
S'47'
p566
sS'Lemma'
p567
S'before'
p568
sS'PartOfSpeech'
p569
S'IN'
p570
sS'CharacterOffsetBegin'
p571
S'41'
p572
stp573
a(S'arrest'
p574
(dp575
S'NamedEntityTag'
p576
g104
sS'CharacterOffsetEnd'
p577
S'54'
p578
sS'Lemma'
p579
S'arrest'
p580
sS'PartOfSpeech'
p581
S'NN'
p582
sS'CharacterOffsetBegin'
p583
S'48'
p584
stp585
a(g241
(dp586
S'NamedEntityTag'
p587
g104
sS'CharacterOffsetEnd'
p588
S'55'
p589
sS'Lemma'
p590
g241
sS'PartOfSpeech'
p591
g241
sS'CharacterOffsetBegin'
p592
S'54'
p593
stp594
asa(dp595
g15
S'(ROOT (S (NP (NN Controversy)) (VP (VBZ grows)) (. .)))'
p596
sg17
S'Controversy grows.'
p597
sg19
(lp598
(S'root'
p599
S'ROOT'
p600
S'grows'
p601
tp602
a(S'nsubj'
p603
S'grows'
p604
S'Controversy'
p605
tp606
asg57
(lp607
(g599
S'ROOT-0'
p608
S'grows-2'
p609
tp610
a(g603
S'grows-2'
p611
S'Controversy-1'
p612
tp613
asg86
(lp614
(S'Controversy'
p615
(dp616
S'NamedEntityTag'
p617
g104
sS'CharacterOffsetEnd'
p618
S'67'
p619
sS'Lemma'
p620
S'controversy'
p621
sS'PartOfSpeech'
p622
S'NN'
p623
sS'CharacterOffsetBegin'
p624
S'56'
p625
stp626
a(S'grows'
p627
(dp628
S'NamedEntityTag'
p629
g104
sS'CharacterOffsetEnd'
p630
S'73'
p631
sS'Lemma'
p632
S'grow'
p633
sS'PartOfSpeech'
p634
S'VBZ'
p635
sS'CharacterOffsetBegin'
p636
S'68'
p637
stp638
a(g241
(dp639
S'NamedEntityTag'
p640
g104
sS'CharacterOffsetEnd'
p641
S'74'
p642
sS'Lemma'
p643
g241
sS'PartOfSpeech'
p644
g241
sS'CharacterOffsetBegin'
p645
S'73'
p646
stp647
asasa(dp648
g12
(lp649
(dp650
g15
S'(ROOT (S (NP (NNP Pinochet)) (VP (VBN entertained) (PP (IN by) (NP (NP (NNP ex-Prime) (NNP Minister) (NNP Thatcher)) (NP-TMP (CD two) (NNS weeks)))) (PP (IN before) (NP (NN arrest))))))'
p651
sg17
S'Pinochet entertained by ex-Prime Minister Thatcher two weeks before arrest'
p652
sg19
(lp653
(S'root'
p654
S'ROOT'
p655
S'entertained'
p656
tp657
a(S'nsubj'
p658
S'entertained'
p659
S'Pinochet'
p660
tp661
a(S'nn'
p662
S'Thatcher'
p663
S'ex-Prime'
p664
tp665
a(S'nn'
p666
S'Thatcher'
p667
S'Minister'
p668
tp669
a(S'prep_by'
p670
S'entertained'
p671
S'Thatcher'
p672
tp673
a(S'num'
p674
S'weeks'
p675
S'two'
p676
tp677
a(S'tmod'
p678
S'Thatcher'
p679
S'weeks'
p680
tp681
a(S'prep_before'
p682
S'entertained'
p683
S'arrest'
p684
tp685
asg57
(lp686
(g654
S'ROOT-0'
p687
S'entertained-2'
p688
tp689
a(g658
S'entertained-2'
p690
S'Pinochet-1'
p691
tp692
a(g662
S'Thatcher-6'
p693
S'ex-Prime-4'
p694
tp695
a(g666
S'Thatcher-6'
p696
S'Minister-5'
p697
tp698
a(g670
S'entertained-2'
p699
S'Thatcher-6'
p700
tp701
a(g674
S'weeks-8'
p702
S'two-7'
p703
tp704
a(g678
S'Thatcher-6'
p705
S'weeks-8'
p706
tp707
a(g682
S'entertained-2'
p708
S'arrest-10'
p709
tp710
asg86
(lp711
(S'Pinochet'
p712
(dp713
S'NamedEntityTag'
p714
S'PERSON'
p715
sS'CharacterOffsetEnd'
p716
g93
sS'Lemma'
p717
S'Pinochet'
p718
sS'PartOfSpeech'
p719
S'NNP'
p720
sS'CharacterOffsetBegin'
p721
g99
stp722
a(S'entertained'
p723
(dp724
S'NamedEntityTag'
p725
g104
sS'CharacterOffsetEnd'
p726
S'21'
p727
sS'Lemma'
p728
S'entertain'
p729
sS'PartOfSpeech'
p730
S'VBN'
p731
sS'CharacterOffsetBegin'
p732
S'10'
p733
stp734
a(S'by'
p735
(dp736
S'NamedEntityTag'
p737
g104
sS'CharacterOffsetEnd'
p738
S'24'
p739
sS'Lemma'
p740
S'by'
p741
sS'PartOfSpeech'
p742
S'IN'
p743
sS'CharacterOffsetBegin'
p744
S'22'
p745
stp746
a(S'ex-Prime'
p747
(dp748
S'NamedEntityTag'
p749
g104
sS'CharacterOffsetEnd'
p750
S'33'
p751
sS'Lemma'
p752
S'ex-Prime'
p753
sS'PartOfSpeech'
p754
S'NNP'
p755
sS'CharacterOffsetBegin'
p756
S'25'
p757
stp758
a(S'Minister'
p759
(dp760
S'NamedEntityTag'
p761
g104
sS'CharacterOffsetEnd'
p762
S'42'
p763
sS'Lemma'
p764
S'Minister'
p765
sS'PartOfSpeech'
p766
S'NNP'
p767
sS'CharacterOffsetBegin'
p768
S'34'
p769
stp770
a(S'Thatcher'
p771
(dp772
S'NamedEntityTag'
p773
S'PERSON'
p774
sS'CharacterOffsetEnd'
p775
S'51'
p776
sS'Lemma'
p777
S'Thatcher'
p778
sS'PartOfSpeech'
p779
S'NNP'
p780
sS'CharacterOffsetBegin'
p781
S'43'
p782
stp783
a(S'two'
p784
(dp785
S'NormalizedNamedEntityTag'
p786
S'P2W'
p787
sS'Timex'
p788
S'<TIMEX3 tid="t1" type="DURATION" value="P2W">two weeks</TIMEX3>'
p789
sS'Lemma'
p790
S'two'
p791
sS'CharacterOffsetEnd'
p792
S'55'
p793
sS'PartOfSpeech'
p794
S'CD'
p795
sS'CharacterOffsetBegin'
p796
S'52'
p797
sS'NamedEntityTag'
p798
S'DURATION'
p799
stp800
a(S'weeks'
p801
(dp802
S'NormalizedNamedEntityTag'
p803
S'P2W'
p804
sS'Timex'
p805
S'<TIMEX3 tid="t1" type="DURATION" value="P2W">two weeks</TIMEX3>'
p806
sS'Lemma'
p807
S'week'
p808
sS'CharacterOffsetEnd'
p809
S'61'
p810
sS'PartOfSpeech'
p811
S'NNS'
p812
sS'CharacterOffsetBegin'
p813
S'56'
p814
sS'NamedEntityTag'
p815
S'DURATION'
p816
stp817
a(S'before'
p818
(dp819
S'NamedEntityTag'
p820
g104
sS'CharacterOffsetEnd'
p821
S'68'
p822
sS'Lemma'
p823
S'before'
p824
sS'PartOfSpeech'
p825
S'IN'
p826
sS'CharacterOffsetBegin'
p827
S'62'
p828
stp829
a(S'arrest'
p830
(dp831
S'NamedEntityTag'
p832
g104
sS'CharacterOffsetEnd'
p833
S'75'
p834
sS'Lemma'
p835
S'arrest'
p836
sS'PartOfSpeech'
p837
S'NN'
p838
sS'CharacterOffsetBegin'
p839
S'69'
p840
stp841
asasasS'article'
p842
(dp843
g4
(lp844
(lp845
((S'her'
p846
I0
I0
I10
I11
tp847
(S'Margaret Thatcher'
p848
I0
I1
I0
I2
tp849
tp850
aa(lp851
((S'Londons'
p852
I1
I7
I37
I38
tp853
(S'London'
p854
I0
I3
I23
I24
tp855
tp856
a((S'Londons'
p857
I18
I6
I36
I37
tp858
(S'London'
p859
I0
I3
I23
I24
tp860
tp861
aa(lp862
((S'he'
p863
I0
I5
I15
I16
tp864
(S'former Children dictator Gen. Augusto Pinochet at her home'
p865
I0
I8
I3
I12
tp866
tp867
a((S'his'
p868
I0
I-1
I19
I20
tp869
(S'former Children dictator Gen. Augusto Pinochet at her home'
p870
I0
I8
I3
I12
tp871
tp872
aa(lp873
((S'Tuesday'
p874
I14
I-1
I19
I20
tp875
(S'Tuesday'
p876
I0
I1
I31
I32
tp877
tp878
aa(lp879
((S'Pinochet'
p880
I1
I0
I0
I1
tp881
(S'The 82-year-old Pinochet'
p882
I3
I2
I0
I3
tp883
tp884
a((S'him'
p885
I1
I0
I10
I11
tp886
(S'The 82-year-old Pinochet'
p887
I3
I2
I0
I3
tp888
tp889
a((S'he'
p890
I1
I4
I44
I45
tp891
(S'The 82-year-old Pinochet'
p892
I3
I2
I0
I3
tp893
tp894
a((S'Pinochet'
p895
I4
I5
I5
I6
tp896
(S'The 82-year-old Pinochet'
p897
I3
I2
I0
I3
tp898
tp899
a((S'He'
p900
I5
I0
I0
I1
tp901
(S'The 82-year-old Pinochet'
p902
I3
I2
I0
I3
tp903
tp904
a((S'the only Latin American leader'
p905
I5
I6
I2
I7
tp906
(S'The 82-year-old Pinochet'
p907
I3
I2
I0
I3
tp908
tp909
a((S'Pinochet'
p910
I6
I0
I0
I1
tp911
(S'The 82-year-old Pinochet'
p912
I3
I2
I0
I3
tp913
tp914
a((S'Pinochet , expected to be hospitalized for perhaps two more weeks'
p915
I18
I0
I0
I11
tp916
(S'The 82-year-old Pinochet'
p917
I3
I2
I0
I3
tp918
tp919
a((S'Pinochet'
p920
I18
I0
I0
I1
tp921
(S'The 82-year-old Pinochet'
p922
I3
I2
I0
I3
tp923
tp924
aa(lp925
((S'it'
p926
I2
I2
I2
I3
tp927
(S'Spain'
p928
I1
I2
I12
I13
tp929
tp930
aa(lp931
((S'her'
p932
I1
I8
I28
I29
tp933
(S'Lady Thatcher'
p934
I1
I6
I25
I27
tp935
tp936
a((S'She'
p937
I2
I0
I0
I1
tp938
(S'Lady Thatcher'
p939
I1
I6
I25
I27
tp940
tp941
a((S'Lady Thatcher'
p942
I2
I6
I15
I17
tp943
(S'Lady Thatcher'
p944
I1
I6
I25
I27
tp945
tp946
aa(lp947
((S'spokesman for the Lady Thatcher , Conservative Party prime minister from 1979-90'
p948
I2
I2
I12
I24
tp949
(S'Mark Worthington'
p950
I2
I0
I9
I11
tp951
tp952
aa(lp953
((S'Conservative Party'
p954
I2
I-1
I18
I20
tp955
(S'British Conservative Party'
p956
I19
I2
I0
I3
tp957
tp958
a((S'Conservative Party'
p959
I7
I5
I24
I26
tp960
(S'British Conservative Party'
p961
I19
I2
I0
I3
tp962
tp963
aa(lp964
((S'the prime minister'
p965
I4
I7
I15
I18
tp966
(S'the Lady Thatcher , Conservative Party prime minister'
p967
I2
I1
I14
I22
tp968
tp969
aa(lp970
((S'its'
p971
I5
I1
I11
I12
tp972
(S'Conservative government days'
p973
I4
I3
I1
I4
tp974
tp975
aa(lp976
((S'Britain'
p977
I8
I4
I14
I15
tp978
(S'Britain in its 1982 war against Argentina'
p979
I5
I-1
I9
I16
tp980
tp981
aa(lp982
((S'He'
p983
I9
I0
I0
I1
tp984
(S'Chiles ambassador'
p985
I8
I1
I0
I2
tp986
tp987
a((S'him'
p988
I9
I8
I18
I19
tp989
(S'Chiles ambassador'
p990
I8
I1
I0
I2
tp991
tp992
a((S'He'
p993
I11
I0
I0
I1
tp994
(S'Chiles ambassador'
p995
I8
I1
I0
I2
tp996
tp997
a((S'the ambassador'
p998
I16
I3
I22
I24
tp999
(S'Chiles ambassador'
p1000
I8
I1
I0
I2
tp1001
tp1002
aa(lp1003
((S'Chile'
p1004
I13
I3
I13
I14
tp1005
(S'Chile'
p1006
I9
I4
I14
I15
tp1007
tp1008
aa(lp1009
((S'Pinochets'
p1010
I8
I7
I17
I18
tp1011
(S'Pinochets'
p1012
I13
I-1
I9
I10
tp1013
tp1014
aa(lp1015
((S'Monday'
p1016
I12
I5
I5
I6
tp1017
(S'Monday'
p1018
I8
I1
I11
I12
tp1019
tp1020
aa(lp1021
((S'his'
p1022
I12
I3
I3
I4
tp1023
(S'The magistrate'
p1024
I12
I1
I0
I2
tp1025
tp1026
aa(lp1027
((S'himself'
p1028
I13
I5
I5
I6
tp1029
(S'Mario Artaza'
p1030
I13
I3
I2
I4
tp1031
tp1032
a((S'Artaza'
p1033
I14
I0
I10
I11
tp1034
(S'Mario Artaza'
p1035
I13
I3
I2
I4
tp1036
tp1037
a((S'Artaza'
p1038
I17
I7
I17
I18
tp1039
(S'Mario Artaza'
p1040
I13
I3
I2
I4
tp1041
tp1042
aa(lp1043
((S'the special situation of a senator in our transition who many people do not understand'
p1044
I15
I6
I14
I29
tp1045
(S'the -LRB- British -RRB- government'
p1046
I15
I2
I8
I13
tp1047
tp1048
aa(lp1049
((S'we'
p1050
I15
I1
I1
I2
tp1051
(S'We'
p1052
I14
I0
I0
I1
tp1053
tp1054
a((S'our'
p1055
I15
I1
I21
I22
tp1056
(S'We'
p1057
I14
I0
I0
I1
tp1058
tp1059
aa(lp1060
((S'his'
p1061
I16
I3
I3
I4
tp1062
(S'a senator in our transition'
p1063
I15
I-1
I18
I23
tp1064
tp1065
a((S'his'
p1066
I16
I6
I6
I7
tp1067
(S'a senator in our transition'
p1068
I15
I-1
I18
I23
tp1069
tp1070
aa(lp1071
((S'two'
p1072
I18
I4
I24
I25
tp1073
(S'two'
p1074
I18
I8
I8
I9
tp1075
tp1076
aasg12
(lp1077
(dp1078
g15
S'(ROOT (S (S (NP (NNP Margaret) (NNP Thatcher)) (VP (VBD entertained) (NP (NP (JJ former) (NNP Children) (NN dictator) (NNP Gen.) (NNP Augusto) (NNP Pinochet)) (PP (IN at) (NP (PRP$ her) (NN home)))) (NP-TMP (CD two) (NNS weeks)) (SBAR (IN before) (S (NP (PRP he)) (VP (VBD was) (VP (VBN arrested) (PP (IN in) (NP (NP (PRP$ his) (NN bed)) (PP (IN in) (NP (DT a) (NNP London) (NN hospital))))))))))) (, ,) (NP (DT the) (NN ex-prime) (NNS ministers) (NN office)) (VP (VBD said) (NP-TMP (NNP Tuesday)) (, ,) (PP (IN amid) (S (VP (VBG growing) (NP (ADJP (JJ diplomatic) (CC and) (JJ domestic)) (NN controversy)) (PP (IN over) (NP (DT the) (NN move))))))) (. .)))'
p1079
sg17
S'Margaret Thatcher entertained former Children dictator Gen. Augusto Pinochet at her home two weeks before he was arrested in his bed in a London hospital, the ex-prime ministers office said Tuesday, amid growing diplomatic and domestic controversy over the move.'
p1080
sg19
(lp1081
(S'root'
p1082
S'ROOT'
p1083
S'said'
p1084
tp1085
a(S'nn'
p1086
S'Thatcher'
p1087
S'Margaret'
p1088
tp1089
a(S'nsubj'
p1090
S'entertained'
p1091
S'Thatcher'
p1092
tp1093
a(S'ccomp'
p1094
S'said'
p1095
S'entertained'
p1096
tp1097
a(S'amod'
p1098
S'Pinochet'
p1099
S'former'
p1100
tp1101
a(S'nn'
p1102
S'Pinochet'
p1103
S'Children'
p1104
tp1105
a(S'nn'
p1106
S'Pinochet'
p1107
S'dictator'
p1108
tp1109
a(S'nn'
p1110
S'Pinochet'
p1111
S'Gen.'
p1112
tp1113
a(S'nn'
p1114
S'Pinochet'
p1115
S'Augusto'
p1116
tp1117
a(S'dobj'
p1118
S'entertained'
p1119
S'Pinochet'
p1120
tp1121
a(S'poss'
p1122
S'home'
p1123
S'her'
p1124
tp1125
a(S'prep_at'
p1126
S'Pinochet'
p1127
S'home'
p1128
tp1129
a(S'num'
p1130
S'weeks'
p1131
S'two'
p1132
tp1133
a(S'tmod'
p1134
S'entertained'
p1135
S'weeks'
p1136
tp1137
a(S'mark'
p1138
S'arrested'
p1139
S'before'
p1140
tp1141
a(S'nsubjpass'
p1142
S'arrested'
p1143
S'he'
p1144
tp1145
a(S'auxpass'
p1146
S'arrested'
p1147
S'was'
p1148
tp1149
a(S'advcl'
p1150
S'entertained'
p1151
S'arrested'
p1152
tp1153
a(S'poss'
p1154
S'bed'
p1155
S'his'
p1156
tp1157
a(S'prep_in'
p1158
S'arrested'
p1159
S'bed'
p1160
tp1161
a(S'det'
p1162
S'hospital'
p1163
S'a'
p1164
tp1165
a(S'nn'
p1166
S'hospital'
p1167
S'London'
p1168
tp1169
a(S'prep_in'
p1170
S'bed'
p1171
S'hospital'
p1172
tp1173
a(S'det'
p1174
S'office'
p1175
S'the'
p1176
tp1177
a(S'nn'
p1178
S'office'
p1179
S'ex-prime'
p1180
tp1181
a(S'nn'
p1182
S'office'
p1183
S'ministers'
p1184
tp1185
a(S'nsubj'
p1186
S'said'
p1187
S'office'
p1188
tp1189
a(S'tmod'
p1190
S'said'
p1191
S'Tuesday'
p1192
tp1193
a(S'prepc_amid'
p1194
S'said'
p1195
S'growing'
p1196
tp1197
a(S'amod'
p1198
S'controversy'
p1199
S'diplomatic'
p1200
tp1201
a(S'conj_and'
p1202
S'diplomatic'
p1203
S'domestic'
p1204
tp1205
a(S'dobj'
p1206
S'growing'
p1207
S'controversy'
p1208
tp1209
a(S'det'
p1210
S'move'
p1211
S'the'
p1212
tp1213
a(S'prep_over'
p1214
S'growing'
p1215
S'move'
p1216
tp1217
asg57
(lp1218
(g1082
S'ROOT-0'
p1219
S'said-31'
p1220
tp1221
a(g1086
S'Thatcher-2'
p1222
S'Margaret-1'
p1223
tp1224
a(g1090
S'entertained-3'
p1225
S'Thatcher-2'
p1226
tp1227
a(g1094
S'said-31'
p1228
S'entertained-3'
p1229
tp1230
a(g1098
S'Pinochet-9'
p1231
S'former-4'
p1232
tp1233
a(g1102
S'Pinochet-9'
p1234
S'Children-5'
p1235
tp1236
a(g1106
S'Pinochet-9'
p1237
S'dictator-6'
p1238
tp1239
a(g1110
S'Pinochet-9'
p1240
S'Gen.-7'
p1241
tp1242
a(g1114
S'Pinochet-9'
p1243
S'Augusto-8'
p1244
tp1245
a(g1118
S'entertained-3'
p1246
S'Pinochet-9'
p1247
tp1248
a(g1122
S'home-12'
p1249
S'her-11'
p1250
tp1251
a(g1126
S'Pinochet-9'
p1252
S'home-12'
p1253
tp1254
a(g1130
S'weeks-14'
p1255
S'two-13'
p1256
tp1257
a(g1134
S'entertained-3'
p1258
S'weeks-14'
p1259
tp1260
a(g1138
S'arrested-18'
p1261
S'before-15'
p1262
tp1263
a(g1142
S'arrested-18'
p1264
S'he-16'
p1265
tp1266
a(g1146
S'arrested-18'
p1267
S'was-17'
p1268
tp1269
a(g1150
S'entertained-3'
p1270
S'arrested-18'
p1271
tp1272
a(g1154
S'bed-21'
p1273
S'his-20'
p1274
tp1275
a(g1158
S'arrested-18'
p1276
S'bed-21'
p1277
tp1278
a(g1162
S'hospital-25'
p1279
S'a-23'
p1280
tp1281
a(g1166
S'hospital-25'
p1282
S'London-24'
p1283
tp1284
a(g1170
S'bed-21'
p1285
S'hospital-25'
p1286
tp1287
a(g1174
S'office-30'
p1288
S'the-27'
p1289
tp1290
a(g1178
S'office-30'
p1291
S'ex-prime-28'
p1292
tp1293
a(g1182
S'office-30'
p1294
S'ministers-29'
p1295
tp1296
a(g1186
S'said-31'
p1297
S'office-30'
p1298
tp1299
a(g1190
S'said-31'
p1300
S'Tuesday-32'
p1301
tp1302
a(g1194
S'said-31'
p1303
S'growing-35'
p1304
tp1305
a(g1198
S'controversy-39'
p1306
S'diplomatic-36'
p1307
tp1308
a(g1202
S'diplomatic-36'
p1309
S'domestic-38'
p1310
tp1311
a(g1206
S'growing-35'
p1312
S'controversy-39'
p1313
tp1314
a(g1210
S'move-42'
p1315
S'the-41'
p1316
tp1317
a(g1214
S'growing-35'
p1318
S'move-42'
p1319
tp1320
asg86
(lp1321
(S'Margaret'
p1322
(dp1323
S'NamedEntityTag'
p1324
S'PERSON'
p1325
sS'CharacterOffsetEnd'
p1326
S'8'
p1327
sS'Lemma'
p1328
S'Margaret'
p1329
sS'PartOfSpeech'
p1330
S'NNP'
p1331
sS'CharacterOffsetBegin'
p1332
S'0'
p1333
stp1334
a(S'Thatcher'
p1335
(dp1336
S'NamedEntityTag'
p1337
S'PERSON'
p1338
sS'CharacterOffsetEnd'
p1339
S'17'
p1340
sS'Lemma'
p1341
S'Thatcher'
p1342
sS'PartOfSpeech'
p1343
S'NNP'
p1344
sS'CharacterOffsetBegin'
p1345
g93
stp1346
a(S'entertained'
p1347
(dp1348
S'NamedEntityTag'
p1349
g104
sS'CharacterOffsetEnd'
p1350
S'29'
p1351
sS'Lemma'
p1352
S'entertain'
p1353
sS'PartOfSpeech'
p1354
S'VBD'
p1355
sS'CharacterOffsetBegin'
p1356
S'18'
p1357
stp1358
a(S'former'
p1359
(dp1360
S'NamedEntityTag'
p1361
g104
sS'CharacterOffsetEnd'
p1362
S'36'
p1363
sS'Lemma'
p1364
S'former'
p1365
sS'PartOfSpeech'
p1366
S'JJ'
p1367
sS'CharacterOffsetBegin'
p1368
S'30'
p1369
stp1370
a(S'Children'
p1371
(dp1372
S'NamedEntityTag'
p1373
g104
sS'CharacterOffsetEnd'
p1374
S'45'
p1375
sS'Lemma'
p1376
S'Children'
p1377
sS'PartOfSpeech'
p1378
S'NNP'
p1379
sS'CharacterOffsetBegin'
p1380
S'37'
p1381
stp1382
a(S'dictator'
p1383
(dp1384
S'NamedEntityTag'
p1385
g104
sS'CharacterOffsetEnd'
p1386
S'54'
p1387
sS'Lemma'
p1388
S'dictator'
p1389
sS'PartOfSpeech'
p1390
S'NN'
p1391
sS'CharacterOffsetBegin'
p1392
S'46'
p1393
stp1394
a(S'Gen.'
p1395
(dp1396
S'NamedEntityTag'
p1397
g104
sS'CharacterOffsetEnd'
p1398
S'59'
p1399
sS'Lemma'
p1400
S'Gen.'
p1401
sS'PartOfSpeech'
p1402
S'NNP'
p1403
sS'CharacterOffsetBegin'
p1404
S'55'
p1405
stp1406
a(S'Augusto'
p1407
(dp1408
S'NamedEntityTag'
p1409
S'PERSON'
p1410
sS'CharacterOffsetEnd'
p1411
S'67'
p1412
sS'Lemma'
p1413
S'Augusto'
p1414
sS'PartOfSpeech'
p1415
S'NNP'
p1416
sS'CharacterOffsetBegin'
p1417
S'60'
p1418
stp1419
a(S'Pinochet'
p1420
(dp1421
S'NamedEntityTag'
p1422
S'PERSON'
p1423
sS'CharacterOffsetEnd'
p1424
S'76'
p1425
sS'Lemma'
p1426
S'Pinochet'
p1427
sS'PartOfSpeech'
p1428
S'NNP'
p1429
sS'CharacterOffsetBegin'
p1430
S'68'
p1431
stp1432
a(S'at'
p1433
(dp1434
S'NamedEntityTag'
p1435
g104
sS'CharacterOffsetEnd'
p1436
S'79'
p1437
sS'Lemma'
p1438
S'at'
p1439
sS'PartOfSpeech'
p1440
S'IN'
p1441
sS'CharacterOffsetBegin'
p1442
S'77'
p1443
stp1444
a(S'her'
p1445
(dp1446
S'NamedEntityTag'
p1447
g104
sS'CharacterOffsetEnd'
p1448
S'83'
p1449
sS'Lemma'
p1450
S'she'
p1451
sS'PartOfSpeech'
p1452
S'PRP$'
p1453
sS'CharacterOffsetBegin'
p1454
S'80'
p1455
stp1456
a(S'home'
p1457
(dp1458
S'NamedEntityTag'
p1459
g104
sS'CharacterOffsetEnd'
p1460
S'88'
p1461
sS'Lemma'
p1462
S'home'
p1463
sS'PartOfSpeech'
p1464
S'NN'
p1465
sS'CharacterOffsetBegin'
p1466
S'84'
p1467
stp1468
a(S'two'
p1469
(dp1470
S'NormalizedNamedEntityTag'
p1471
S'P2W'
p1472
sS'Timex'
p1473
S'<TIMEX3 tid="t1" type="DURATION" value="P2W">two weeks</TIMEX3>'
p1474
sS'Lemma'
p1475
S'two'
p1476
sS'CharacterOffsetEnd'
p1477
S'92'
p1478
sS'PartOfSpeech'
p1479
S'CD'
p1480
sS'CharacterOffsetBegin'
p1481
S'89'
p1482
sS'NamedEntityTag'
p1483
S'DURATION'
p1484
stp1485
a(S'weeks'
p1486
(dp1487
S'NormalizedNamedEntityTag'
p1488
S'P2W'
p1489
sS'Timex'
p1490
S'<TIMEX3 tid="t1" type="DURATION" value="P2W">two weeks</TIMEX3>'
p1491
sS'Lemma'
p1492
S'week'
p1493
sS'CharacterOffsetEnd'
p1494
S'98'
p1495
sS'PartOfSpeech'
p1496
S'NNS'
p1497
sS'CharacterOffsetBegin'
p1498
S'93'
p1499
sS'NamedEntityTag'
p1500
S'DURATION'
p1501
stp1502
a(S'before'
p1503
(dp1504
S'NamedEntityTag'
p1505
g104
sS'CharacterOffsetEnd'
p1506
S'105'
p1507
sS'Lemma'
p1508
S'before'
p1509
sS'PartOfSpeech'
p1510
S'IN'
p1511
sS'CharacterOffsetBegin'
p1512
S'99'
p1513
stp1514
a(S'he'
p1515
(dp1516
S'NamedEntityTag'
p1517
g104
sS'CharacterOffsetEnd'
p1518
S'108'
p1519
sS'Lemma'
p1520
S'he'
p1521
sS'PartOfSpeech'
p1522
S'PRP'
p1523
sS'CharacterOffsetBegin'
p1524
S'106'
p1525
stp1526
a(S'was'
p1527
(dp1528
S'NamedEntityTag'
p1529
g104
sS'CharacterOffsetEnd'
p1530
S'112'
p1531
sS'Lemma'
p1532
S'be'
p1533
sS'PartOfSpeech'
p1534
S'VBD'
p1535
sS'CharacterOffsetBegin'
p1536
S'109'
p1537
stp1538
a(S'arrested'
p1539
(dp1540
S'NamedEntityTag'
p1541
g104
sS'CharacterOffsetEnd'
p1542
S'121'
p1543
sS'Lemma'
p1544
S'arrest'
p1545
sS'PartOfSpeech'
p1546
S'VBN'
p1547
sS'CharacterOffsetBegin'
p1548
S'113'
p1549
stp1550
a(S'in'
p1551
(dp1552
S'NamedEntityTag'
p1553
g104
sS'CharacterOffsetEnd'
p1554
S'124'
p1555
sS'Lemma'
p1556
S'in'
p1557
sS'PartOfSpeech'
p1558
S'IN'
p1559
sS'CharacterOffsetBegin'
p1560
S'122'
p1561
stp1562
a(S'his'
p1563
(dp1564
S'NamedEntityTag'
p1565
g104
sS'CharacterOffsetEnd'
p1566
S'128'
p1567
sS'Lemma'
p1568
S'he'
p1569
sS'PartOfSpeech'
p1570
S'PRP$'
p1571
sS'CharacterOffsetBegin'
p1572
S'125'
p1573
stp1574
a(S'bed'
p1575
(dp1576
S'NamedEntityTag'
p1577
g104
sS'CharacterOffsetEnd'
p1578
S'132'
p1579
sS'Lemma'
p1580
S'bed'
p1581
sS'PartOfSpeech'
p1582
S'NN'
p1583
sS'CharacterOffsetBegin'
p1584
S'129'
p1585
stp1586
a(S'in'
p1587
(dp1588
S'NamedEntityTag'
p1589
g104
sS'CharacterOffsetEnd'
p1590
S'135'
p1591
sS'Lemma'
p1592
S'in'
p1593
sS'PartOfSpeech'
p1594
S'IN'
p1595
sS'CharacterOffsetBegin'
p1596
S'133'
p1597
stp1598
a(g1164
(dp1599
S'NamedEntityTag'
p1600
g104
sS'CharacterOffsetEnd'
p1601
S'137'
p1602
sS'Lemma'
p1603
g1164
sS'PartOfSpeech'
p1604
S'DT'
p1605
sS'CharacterOffsetBegin'
p1606
S'136'
p1607
stp1608
a(S'London'
p1609
(dp1610
S'NamedEntityTag'
p1611
S'LOCATION'
p1612
sS'CharacterOffsetEnd'
p1613
S'144'
p1614
sS'Lemma'
p1615
S'London'
p1616
sS'PartOfSpeech'
p1617
S'NNP'
p1618
sS'CharacterOffsetBegin'
p1619
S'138'
p1620
stp1621
a(S'hospital'
p1622
(dp1623
S'NamedEntityTag'
p1624
g104
sS'CharacterOffsetEnd'
p1625
S'153'
p1626
sS'Lemma'
p1627
S'hospital'
p1628
sS'PartOfSpeech'
p1629
S'NN'
p1630
sS'CharacterOffsetBegin'
p1631
S'145'
p1632
stp1633
a(S','
p1634
(dp1635
S'NamedEntityTag'
p1636
g104
sS'CharacterOffsetEnd'
p1637
S'154'
p1638
sS'Lemma'
p1639
g1634
sS'PartOfSpeech'
p1640
g1634
sS'CharacterOffsetBegin'
p1641
S'153'
p1642
stp1643
a(S'the'
p1644
(dp1645
S'NamedEntityTag'
p1646
g104
sS'CharacterOffsetEnd'
p1647
S'158'
p1648
sS'Lemma'
p1649
S'the'
p1650
sS'PartOfSpeech'
p1651
S'DT'
p1652
sS'CharacterOffsetBegin'
p1653
S'155'
p1654
stp1655
a(S'ex-prime'
p1656
(dp1657
S'NamedEntityTag'
p1658
g104
sS'CharacterOffsetEnd'
p1659
S'167'
p1660
sS'Lemma'
p1661
S'ex-prime'
p1662
sS'PartOfSpeech'
p1663
S'NN'
p1664
sS'CharacterOffsetBegin'
p1665
S'159'
p1666
stp1667
a(S'ministers'
p1668
(dp1669
S'NamedEntityTag'
p1670
g104
sS'CharacterOffsetEnd'
p1671
S'177'
p1672
sS'Lemma'
p1673
S'minister'
p1674
sS'PartOfSpeech'
p1675
S'NNS'
p1676
sS'CharacterOffsetBegin'
p1677
S'168'
p1678
stp1679
a(S'office'
p1680
(dp1681
S'NamedEntityTag'
p1682
g104
sS'CharacterOffsetEnd'
p1683
S'184'
p1684
sS'Lemma'
p1685
S'office'
p1686
sS'PartOfSpeech'
p1687
S'NN'
p1688
sS'CharacterOffsetBegin'
p1689
S'178'
p1690
stp1691
a(S'said'
p1692
(dp1693
S'NamedEntityTag'
p1694
g104
sS'CharacterOffsetEnd'
p1695
S'189'
p1696
sS'Lemma'
p1697
S'say'
p1698
sS'PartOfSpeech'
p1699
S'VBD'
p1700
sS'CharacterOffsetBegin'
p1701
S'185'
p1702
stp1703
a(S'Tuesday'
p1704
(dp1705
S'NormalizedNamedEntityTag'
p1706
S'XXXX-WXX-2'
p1707
sS'Timex'
p1708
S'<TIMEX3 tid="t2" type="DATE" value="XXXX-WXX-2">Tuesday</TIMEX3>'
p1709
sS'Lemma'
p1710
S'Tuesday'
p1711
sS'CharacterOffsetEnd'
p1712
S'197'
p1713
sS'PartOfSpeech'
p1714
S'NNP'
p1715
sS'CharacterOffsetBegin'
p1716
S'190'
p1717
sS'NamedEntityTag'
p1718
S'DATE'
p1719
stp1720
a(g1634
(dp1721
S'NamedEntityTag'
p1722
g104
sS'CharacterOffsetEnd'
p1723
S'198'
p1724
sS'Lemma'
p1725
g1634
sS'PartOfSpeech'
p1726
g1634
sS'CharacterOffsetBegin'
p1727
S'197'
p1728
stp1729
a(S'amid'
p1730
(dp1731
S'NamedEntityTag'
p1732
g104
sS'CharacterOffsetEnd'
p1733
S'203'
p1734
sS'Lemma'
p1735
S'amid'
p1736
sS'PartOfSpeech'
p1737
S'IN'
p1738
sS'CharacterOffsetBegin'
p1739
S'199'
p1740
stp1741
a(S'growing'
p1742
(dp1743
S'NamedEntityTag'
p1744
g104
sS'CharacterOffsetEnd'
p1745
S'211'
p1746
sS'Lemma'
p1747
S'grow'
p1748
sS'PartOfSpeech'
p1749
S'VBG'
p1750
sS'CharacterOffsetBegin'
p1751
S'204'
p1752
stp1753
a(S'diplomatic'
p1754
(dp1755
S'NamedEntityTag'
p1756
g104
sS'CharacterOffsetEnd'
p1757
S'222'
p1758
sS'Lemma'
p1759
S'diplomatic'
p1760
sS'PartOfSpeech'
p1761
S'JJ'
p1762
sS'CharacterOffsetBegin'
p1763
S'212'
p1764
stp1765
a(S'and'
p1766
(dp1767
S'NamedEntityTag'
p1768
g104
sS'CharacterOffsetEnd'
p1769
S'226'
p1770
sS'Lemma'
p1771
S'and'
p1772
sS'PartOfSpeech'
p1773
S'CC'
p1774
sS'CharacterOffsetBegin'
p1775
S'223'
p1776
stp1777
a(S'domestic'
p1778
(dp1779
S'NamedEntityTag'
p1780
g104
sS'CharacterOffsetEnd'
p1781
S'235'
p1782
sS'Lemma'
p1783
S'domestic'
p1784
sS'PartOfSpeech'
p1785
S'JJ'
p1786
sS'CharacterOffsetBegin'
p1787
S'227'
p1788
stp1789
a(S'controversy'
p1790
(dp1791
S'NamedEntityTag'
p1792
g104
sS'CharacterOffsetEnd'
p1793
S'247'
p1794
sS'Lemma'
p1795
S'controversy'
p1796
sS'PartOfSpeech'
p1797
S'NN'
p1798
sS'CharacterOffsetBegin'
p1799
S'236'
p1800
stp1801
a(S'over'
p1802
(dp1803
S'NamedEntityTag'
p1804
g104
sS'CharacterOffsetEnd'
p1805
S'252'
p1806
sS'Lemma'
p1807
S'over'
p1808
sS'PartOfSpeech'
p1809
S'IN'
p1810
sS'CharacterOffsetBegin'
p1811
S'248'
p1812
stp1813
a(S'the'
p1814
(dp1815
S'NamedEntityTag'
p1816
g104
sS'CharacterOffsetEnd'
p1817
S'256'
p1818
sS'Lemma'
p1819
S'the'
p1820
sS'PartOfSpeech'
p1821
S'DT'
p1822
sS'CharacterOffsetBegin'
p1823
S'253'
p1824
stp1825
a(S'move'
p1826
(dp1827
S'NamedEntityTag'
p1828
g104
sS'CharacterOffsetEnd'
p1829
S'261'
p1830
sS'Lemma'
p1831
S'move'
p1832
sS'PartOfSpeech'
p1833
S'NN'
p1834
sS'CharacterOffsetBegin'
p1835
S'257'
p1836
stp1837
a(g241
(dp1838
S'NamedEntityTag'
p1839
g104
sS'CharacterOffsetEnd'
p1840
S'262'
p1841
sS'Lemma'
p1842
g241
sS'PartOfSpeech'
p1843
g241
sS'CharacterOffsetBegin'
p1844
S'261'
p1845
stp1846
asa(dp1847
g15
S'(ROOT (S (NP (NP (NNP Pinochet)) (, ,) (SBAR (WHNP (WP who)) (S (VP (VBZ has) (VP (VBN vowed) (S (VP (TO to) (VP (VB fight) (S (NP (NNS attempts)) (VP (TO to) (VP (VP (VB extradite) (NP (PRP him)) (PP (TO to) (NP (NNP Spain))) (PP (IN on) (NP (NP (NNS allegations)) (PP (IN of) (NP (NP (NN murder)) (, ,) (NP (NN genocide))))))) (CC and) (VP (VB torture)))))))))))) (, ,)) (VP (VBD had) (NP (NP (NP (NNS drinks)) (PP (IN with) (NP (NNP Lady) (NNP Thatcher)))) (CC and) (NP (NP (NP (PRP$ her) (NN husband)) (, ,) (NP (NNP Denis)) (, ,)) (PP (IN in) (NP (PRP$ their) (ADJP (NN home) (PP (IN in) (NP (NNPS Londons) (NN elite)))) (NNP Belgravia) (NN district))))) (NP-TMP (CD four) (NNS days)) (SBAR (IN before) (S (NP (PRP he)) (VP (VBD was) (VP (VBN hospitalized) (PP (IN for) (NP (NP (RB back) (NN surgery)) (VP (VBN performed) (PP (NN Oct) (NP (CD 9))))))))))) (. .)))'
p1848
sg17
S'Pinochet, who has vowed to fight attempts to extradite him to Spain on allegations of murder, genocide and torture, had drinks with Lady Thatcher and her husband, Denis, in their home in Londons elite Belgravia district four days before he was hospitalized for back surgery performed Oct 9.'
p1849
sg19
(lp1850
(S'root'
p1851
S'ROOT'
p1852
S'had'
p1853
tp1854
a(S'nsubj'
p1855
S'had'
p1856
S'Pinochet'
p1857
tp1858
a(S'nsubj'
p1859
S'vowed'
p1860
S'who'
p1861
tp1862
a(S'aux'
p1863
S'vowed'
p1864
S'has'
p1865
tp1866
a(S'rcmod'
p1867
S'Pinochet'
p1868
S'vowed'
p1869
tp1870
a(S'aux'
p1871
S'fight'
p1872
S'to'
p1873
tp1874
a(S'xcomp'
p1875
S'vowed'
p1876
S'fight'
p1877
tp1878
a(S'nsubj'
p1879
S'extradite'
p1880
S'attempts'
p1881
tp1882
a(S'aux'
p1883
S'extradite'
p1884
S'to'
p1885
tp1886
a(S'xcomp'
p1887
S'fight'
p1888
S'extradite'
p1889
tp1890
a(S'dobj'
p1891
S'extradite'
p1892
S'him'
p1893
tp1894
a(S'prep_to'
p1895
S'extradite'
p1896
S'Spain'
p1897
tp1898
a(S'prep_on'
p1899
S'extradite'
p1900
S'allegations'
p1901
tp1902
a(S'prep_of'
p1903
S'allegations'
p1904
S'murder'
p1905
tp1906
a(S'appos'
p1907
S'murder'
p1908
S'genocide'
p1909
tp1910
a(S'conj_and'
p1911
S'extradite'
p1912
S'torture'
p1913
tp1914
a(S'dobj'
p1915
S'had'
p1916
S'drinks'
p1917
tp1918
a(S'nn'
p1919
S'Thatcher'
p1920
S'Lady'
p1921
tp1922
a(S'prep_with'
p1923
S'drinks'
p1924
S'Thatcher'
p1925
tp1926
a(S'poss'
p1927
S'husband'
p1928
S'her'
p1929
tp1930
a(S'conj_and'
p1931
S'drinks'
p1932
S'husband'
p1933
tp1934
a(S'appos'
p1935
S'husband'
p1936
S'Denis'
p1937
tp1938
a(S'poss'
p1939
S'district'
p1940
S'their'
p1941
tp1942
a(S'amod'
p1943
S'district'
p1944
S'home'
p1945
tp1946
a(S'nn'
p1947
S'elite'
p1948
S'Londons'
p1949
tp1950
a(S'prep_in'
p1951
S'home'
p1952
S'elite'
p1953
tp1954
a(S'nn'
p1955
S'district'
p1956
S'Belgravia'
p1957
tp1958
a(S'prep_in'
p1959
S'husband'
p1960
S'district'
p1961
tp1962
a(S'num'
p1963
S'days'
p1964
S'four'
p1965
tp1966
a(S'tmod'
p1967
S'had'
p1968
S'days'
p1969
tp1970
a(S'mark'
p1971
S'hospitalized'
p1972
S'before'
p1973
tp1974
a(S'nsubjpass'
p1975
S'hospitalized'
p1976
S'he'
p1977
tp1978
a(S'auxpass'
p1979
S'hospitalized'
p1980
S'was'
p1981
tp1982
a(S'advcl'
p1983
S'had'
p1984
S'hospitalized'
p1985
tp1986
a(S'advmod'
p1987
S'surgery'
p1988
S'back'
p1989
tp1990
a(S'prep_for'
p1991
S'hospitalized'
p1992
S'surgery'
p1993
tp1994
a(S'partmod'
p1995
S'surgery'
p1996
S'performed'
p1997
tp1998
a(S'prep'
p1999
S'performed'
p2000
S'Oct'
p2001
tp2002
a(S'dep'
p2003
S'Oct'
p2004
g93
tp2005
asg57
(lp2006
(g1851
S'ROOT-0'
p2007
S'had-23'
p2008
tp2009
a(g1855
S'had-23'
p2010
S'Pinochet-1'
p2011
tp2012
a(g1859
S'vowed-5'
p2013
S'who-3'
p2014
tp2015
a(g1863
S'vowed-5'
p2016
S'has-4'
p2017
tp2018
a(g1867
S'Pinochet-1'
p2019
S'vowed-5'
p2020
tp2021
a(g1871
S'fight-7'
p2022
S'to-6'
p2023
tp2024
a(g1875
S'vowed-5'
p2025
S'fight-7'
p2026
tp2027
a(g1879
S'extradite-10'
p2028
S'attempts-8'
p2029
tp2030
a(g1883
S'extradite-10'
p2031
S'to-9'
p2032
tp2033
a(g1887
S'fight-7'
p2034
S'extradite-10'
p2035
tp2036
a(g1891
S'extradite-10'
p2037
S'him-11'
p2038
tp2039
a(g1895
S'extradite-10'
p2040
S'Spain-13'
p2041
tp2042
a(g1899
S'extradite-10'
p2043
S'allegations-15'
p2044
tp2045
a(g1903
S'allegations-15'
p2046
S'murder-17'
p2047
tp2048
a(g1907
S'murder-17'
p2049
S'genocide-19'
p2050
tp2051
a(g1911
S'extradite-10'
p2052
S'torture-21'
p2053
tp2054
a(g1915
S'had-23'
p2055
S'drinks-24'
p2056
tp2057
a(g1919
S'Thatcher-27'
p2058
S'Lady-26'
p2059
tp2060
a(g1923
S'drinks-24'
p2061
S'Thatcher-27'
p2062
tp2063
a(g1927
S'husband-30'
p2064
S'her-29'
p2065
tp2066
a(g1931
S'drinks-24'
p2067
S'husband-30'
p2068
tp2069
a(g1935
S'husband-30'
p2070
S'Denis-32'
p2071
tp2072
a(g1939
S'district-41'
p2073
S'their-35'
p2074
tp2075
a(g1943
S'district-41'
p2076
S'home-36'
p2077
tp2078
a(g1947
S'elite-39'
p2079
S'Londons-38'
p2080
tp2081
a(g1951
S'home-36'
p2082
S'elite-39'
p2083
tp2084
a(g1955
S'district-41'
p2085
S'Belgravia-40'
p2086
tp2087
a(g1959
S'husband-30'
p2088
S'district-41'
p2089
tp2090
a(g1963
S'days-43'
p2091
S'four-42'
p2092
tp2093
a(g1967
S'had-23'
p2094
S'days-43'
p2095
tp2096
a(g1971
S'hospitalized-47'
p2097
S'before-44'
p2098
tp2099
a(g1975
S'hospitalized-47'
p2100
S'he-45'
p2101
tp2102
a(g1979
S'hospitalized-47'
p2103
S'was-46'
p2104
tp2105
a(g1983
S'had-23'
p2106
S'hospitalized-47'
p2107
tp2108
a(g1987
S'surgery-50'
p2109
S'back-49'
p2110
tp2111
a(g1991
S'hospitalized-47'
p2112
S'surgery-50'
p2113
tp2114
a(g1995
S'surgery-50'
p2115
S'performed-51'
p2116
tp2117
a(g1999
S'performed-51'
p2118
S'Oct-52'
p2119
tp2120
a(g2003
S'Oct-52'
p2121
S'9-53'
p2122
tp2123
asg86
(lp2124
(S'Pinochet'
p2125
(dp2126
S'NamedEntityTag'
p2127
S'PERSON'
p2128
sS'CharacterOffsetEnd'
p2129
S'271'
p2130
sS'Lemma'
p2131
S'Pinochet'
p2132
sS'PartOfSpeech'
p2133
S'NNP'
p2134
sS'CharacterOffsetBegin'
p2135
S'263'
p2136
stp2137
a(g1634
(dp2138
S'NamedEntityTag'
p2139
g104
sS'CharacterOffsetEnd'
p2140
S'272'
p2141
sS'Lemma'
p2142
g1634
sS'PartOfSpeech'
p2143
g1634
sS'CharacterOffsetBegin'
p2144
S'271'
p2145
stp2146
a(S'who'
p2147
(dp2148
S'NamedEntityTag'
p2149
g104
sS'CharacterOffsetEnd'
p2150
S'276'
p2151
sS'Lemma'
p2152
S'who'
p2153
sS'PartOfSpeech'
p2154
S'WP'
p2155
sS'CharacterOffsetBegin'
p2156
S'273'
p2157
stp2158
a(S'has'
p2159
(dp2160
S'NamedEntityTag'
p2161
g104
sS'CharacterOffsetEnd'
p2162
S'280'
p2163
sS'Lemma'
p2164
S'have'
p2165
sS'PartOfSpeech'
p2166
S'VBZ'
p2167
sS'CharacterOffsetBegin'
p2168
S'277'
p2169
stp2170
a(S'vowed'
p2171
(dp2172
S'NamedEntityTag'
p2173
g104
sS'CharacterOffsetEnd'
p2174
S'286'
p2175
sS'Lemma'
p2176
S'vow'
p2177
sS'PartOfSpeech'
p2178
S'VBN'
p2179
sS'CharacterOffsetBegin'
p2180
S'281'
p2181
stp2182
a(S'to'
p2183
(dp2184
S'NamedEntityTag'
p2185
g104
sS'CharacterOffsetEnd'
p2186
S'289'
p2187
sS'Lemma'
p2188
S'to'
p2189
sS'PartOfSpeech'
p2190
S'TO'
p2191
sS'CharacterOffsetBegin'
p2192
S'287'
p2193
stp2194
a(S'fight'
p2195
(dp2196
S'NamedEntityTag'
p2197
g104
sS'CharacterOffsetEnd'
p2198
S'295'
p2199
sS'Lemma'
p2200
S'fight'
p2201
sS'PartOfSpeech'
p2202
S'VB'
p2203
sS'CharacterOffsetBegin'
p2204
S'290'
p2205
stp2206
a(S'attempts'
p2207
(dp2208
S'NamedEntityTag'
p2209
g104
sS'CharacterOffsetEnd'
p2210
S'304'
p2211
sS'Lemma'
p2212
S'attempt'
p2213
sS'PartOfSpeech'
p2214
S'NNS'
p2215
sS'CharacterOffsetBegin'
p2216
S'296'
p2217
stp2218
a(S'to'
p2219
(dp2220
S'NamedEntityTag'
p2221
g104
sS'CharacterOffsetEnd'
p2222
S'307'
p2223
sS'Lemma'
p2224
S'to'
p2225
sS'PartOfSpeech'
p2226
S'TO'
p2227
sS'CharacterOffsetBegin'
p2228
S'305'
p2229
stp2230
a(S'extradite'
p2231
(dp2232
S'NamedEntityTag'
p2233
g104
sS'CharacterOffsetEnd'
p2234
S'317'
p2235
sS'Lemma'
p2236
S'extradite'
p2237
sS'PartOfSpeech'
p2238
S'VB'
p2239
sS'CharacterOffsetBegin'
p2240
S'308'
p2241
stp2242
a(S'him'
p2243
(dp2244
S'NamedEntityTag'
p2245
g104
sS'CharacterOffsetEnd'
p2246
S'321'
p2247
sS'Lemma'
p2248
S'he'
p2249
sS'PartOfSpeech'
p2250
S'PRP'
p2251
sS'CharacterOffsetBegin'
p2252
S'318'
p2253
stp2254
a(S'to'
p2255
(dp2256
S'NamedEntityTag'
p2257
g104
sS'CharacterOffsetEnd'
p2258
S'324'
p2259
sS'Lemma'
p2260
S'to'
p2261
sS'PartOfSpeech'
p2262
S'TO'
p2263
sS'CharacterOffsetBegin'
p2264
S'322'
p2265
stp2266
a(S'Spain'
p2267
(dp2268
S'NamedEntityTag'
p2269
S'LOCATION'
p2270
sS'CharacterOffsetEnd'
p2271
S'330'
p2272
sS'Lemma'
p2273
S'Spain'
p2274
sS'PartOfSpeech'
p2275
S'NNP'
p2276
sS'CharacterOffsetBegin'
p2277
S'325'
p2278
stp2279
a(S'on'
p2280
(dp2281
S'NamedEntityTag'
p2282
g104
sS'CharacterOffsetEnd'
p2283
S'333'
p2284
sS'Lemma'
p2285
S'on'
p2286
sS'PartOfSpeech'
p2287
S'IN'
p2288
sS'CharacterOffsetBegin'
p2289
S'331'
p2290
stp2291
a(S'allegations'
p2292
(dp2293
S'NamedEntityTag'
p2294
g104
sS'CharacterOffsetEnd'
p2295
S'345'
p2296
sS'Lemma'
p2297
S'allegation'
p2298
sS'PartOfSpeech'
p2299
S'NNS'
p2300
sS'CharacterOffsetBegin'
p2301
S'334'
p2302
stp2303
a(S'of'
p2304
(dp2305
S'NamedEntityTag'
p2306
g104
sS'CharacterOffsetEnd'
p2307
S'348'
p2308
sS'Lemma'
p2309
S'of'
p2310
sS'PartOfSpeech'
p2311
S'IN'
p2312
sS'CharacterOffsetBegin'
p2313
S'346'
p2314
stp2315
a(S'murder'
p2316
(dp2317
S'NamedEntityTag'
p2318
g104
sS'CharacterOffsetEnd'
p2319
S'355'
p2320
sS'Lemma'
p2321
S'murder'
p2322
sS'PartOfSpeech'
p2323
S'NN'
p2324
sS'CharacterOffsetBegin'
p2325
S'349'
p2326
stp2327
a(g1634
(dp2328
S'NamedEntityTag'
p2329
g104
sS'CharacterOffsetEnd'
p2330
S'356'
p2331
sS'Lemma'
p2332
g1634
sS'PartOfSpeech'
p2333
g1634
sS'CharacterOffsetBegin'
p2334
S'355'
p2335
stp2336
a(S'genocide'
p2337
(dp2338
S'NamedEntityTag'
p2339
g104
sS'CharacterOffsetEnd'
p2340
S'365'
p2341
sS'Lemma'
p2342
S'genocide'
p2343
sS'PartOfSpeech'
p2344
S'NN'
p2345
sS'CharacterOffsetBegin'
p2346
S'357'
p2347
stp2348
a(S'and'
p2349
(dp2350
S'NamedEntityTag'
p2351
g104
sS'CharacterOffsetEnd'
p2352
S'369'
p2353
sS'Lemma'
p2354
S'and'
p2355
sS'PartOfSpeech'
p2356
S'CC'
p2357
sS'CharacterOffsetBegin'
p2358
S'366'
p2359
stp2360
a(S'torture'
p2361
(dp2362
S'NamedEntityTag'
p2363
g104
sS'CharacterOffsetEnd'
p2364
S'377'
p2365
sS'Lemma'
p2366
S'torture'
p2367
sS'PartOfSpeech'
p2368
S'VB'
p2369
sS'CharacterOffsetBegin'
p2370
S'370'
p2371
stp2372
a(g1634
(dp2373
S'NamedEntityTag'
p2374
g104
sS'CharacterOffsetEnd'
p2375
S'378'
p2376
sS'Lemma'
p2377
g1634
sS'PartOfSpeech'
p2378
g1634
sS'CharacterOffsetBegin'
p2379
S'377'
p2380
stp2381
a(S'had'
p2382
(dp2383
S'NamedEntityTag'
p2384
g104
sS'CharacterOffsetEnd'
p2385
S'382'
p2386
sS'Lemma'
p2387
S'have'
p2388
sS'PartOfSpeech'
p2389
S'VBD'
p2390
sS'CharacterOffsetBegin'
p2391
S'379'
p2392
stp2393
a(S'drinks'
p2394
(dp2395
S'NamedEntityTag'
p2396
g104
sS'CharacterOffsetEnd'
p2397
S'389'
p2398
sS'Lemma'
p2399
S'drink'
p2400
sS'PartOfSpeech'
p2401
S'NNS'
p2402
sS'CharacterOffsetBegin'
p2403
S'383'
p2404
stp2405
a(S'with'
p2406
(dp2407
S'NamedEntityTag'
p2408
g104
sS'CharacterOffsetEnd'
p2409
S'394'
p2410
sS'Lemma'
p2411
S'with'
p2412
sS'PartOfSpeech'
p2413
S'IN'
p2414
sS'CharacterOffsetBegin'
p2415
S'390'
p2416
stp2417
a(S'Lady'
p2418
(dp2419
S'NamedEntityTag'
p2420
S'PERSON'
p2421
sS'CharacterOffsetEnd'
p2422
S'399'
p2423
sS'Lemma'
p2424
S'Lady'
p2425
sS'PartOfSpeech'
p2426
S'NNP'
p2427
sS'CharacterOffsetBegin'
p2428
S'395'
p2429
stp2430
a(S'Thatcher'
p2431
(dp2432
S'NamedEntityTag'
p2433
S'PERSON'
p2434
sS'CharacterOffsetEnd'
p2435
S'408'
p2436
sS'Lemma'
p2437
S'Thatcher'
p2438
sS'PartOfSpeech'
p2439
S'NNP'
p2440
sS'CharacterOffsetBegin'
p2441
S'400'
p2442
stp2443
a(S'and'
p2444
(dp2445
S'NamedEntityTag'
p2446
g104
sS'CharacterOffsetEnd'
p2447
S'412'
p2448
sS'Lemma'
p2449
S'and'
p2450
sS'PartOfSpeech'
p2451
S'CC'
p2452
sS'CharacterOffsetBegin'
p2453
S'409'
p2454
stp2455
a(S'her'
p2456
(dp2457
S'NamedEntityTag'
p2458
g104
sS'CharacterOffsetEnd'
p2459
S'416'
p2460
sS'Lemma'
p2461
S'she'
p2462
sS'PartOfSpeech'
p2463
S'PRP$'
p2464
sS'CharacterOffsetBegin'
p2465
S'413'
p2466
stp2467
a(S'husband'
p2468
(dp2469
S'NamedEntityTag'
p2470
g104
sS'CharacterOffsetEnd'
p2471
S'424'
p2472
sS'Lemma'
p2473
S'husband'
p2474
sS'PartOfSpeech'
p2475
S'NN'
p2476
sS'CharacterOffsetBegin'
p2477
S'417'
p2478
stp2479
a(g1634
(dp2480
S'NamedEntityTag'
p2481
g104
sS'CharacterOffsetEnd'
p2482
S'425'
p2483
sS'Lemma'
p2484
g1634
sS'PartOfSpeech'
p2485
g1634
sS'CharacterOffsetBegin'
p2486
S'424'
p2487
stp2488
a(S'Denis'
p2489
(dp2490
S'NamedEntityTag'
p2491
S'PERSON'
p2492
sS'CharacterOffsetEnd'
p2493
S'431'
p2494
sS'Lemma'
p2495
S'Denis'
p2496
sS'PartOfSpeech'
p2497
S'NNP'
p2498
sS'CharacterOffsetBegin'
p2499
S'426'
p2500
stp2501
a(g1634
(dp2502
S'NamedEntityTag'
p2503
g104
sS'CharacterOffsetEnd'
p2504
S'432'
p2505
sS'Lemma'
p2506
g1634
sS'PartOfSpeech'
p2507
g1634
sS'CharacterOffsetBegin'
p2508
S'431'
p2509
stp2510
a(S'in'
p2511
(dp2512
S'NamedEntityTag'
p2513
g104
sS'CharacterOffsetEnd'
p2514
S'435'
p2515
sS'Lemma'
p2516
S'in'
p2517
sS'PartOfSpeech'
p2518
S'IN'
p2519
sS'CharacterOffsetBegin'
p2520
S'433'
p2521
stp2522
a(S'their'
p2523
(dp2524
S'NamedEntityTag'
p2525
g104
sS'CharacterOffsetEnd'
p2526
S'441'
p2527
sS'Lemma'
p2528
S'they'
p2529
sS'PartOfSpeech'
p2530
S'PRP$'
p2531
sS'CharacterOffsetBegin'
p2532
S'436'
p2533
stp2534
a(S'home'
p2535
(dp2536
S'NamedEntityTag'
p2537
g104
sS'CharacterOffsetEnd'
p2538
S'446'
p2539
sS'Lemma'
p2540
S'home'
p2541
sS'PartOfSpeech'
p2542
S'NN'
p2543
sS'CharacterOffsetBegin'
p2544
S'442'
p2545
stp2546
a(S'in'
p2547
(dp2548
S'NamedEntityTag'
p2549
g104
sS'CharacterOffsetEnd'
p2550
S'449'
p2551
sS'Lemma'
p2552
S'in'
p2553
sS'PartOfSpeech'
p2554
S'IN'
p2555
sS'CharacterOffsetBegin'
p2556
S'447'
p2557
stp2558
a(S'Londons'
p2559
(dp2560
S'NamedEntityTag'
p2561
S'LOCATION'
p2562
sS'CharacterOffsetEnd'
p2563
S'457'
p2564
sS'Lemma'
p2565
S'Londons'
p2566
sS'PartOfSpeech'
p2567
S'NNPS'
p2568
sS'CharacterOffsetBegin'
p2569
S'450'
p2570
stp2571
a(S'elite'
p2572
(dp2573
S'NamedEntityTag'
p2574
g104
sS'CharacterOffsetEnd'
p2575
S'463'
p2576
sS'Lemma'
p2577
S'elite'
p2578
sS'PartOfSpeech'
p2579
S'NN'
p2580
sS'CharacterOffsetBegin'
p2581
S'458'
p2582
stp2583
a(S'Belgravia'
p2584
(dp2585
S'NamedEntityTag'
p2586
S'LOCATION'
p2587
sS'CharacterOffsetEnd'
p2588
S'473'
p2589
sS'Lemma'
p2590
S'Belgravia'
p2591
sS'PartOfSpeech'
p2592
S'NNP'
p2593
sS'CharacterOffsetBegin'
p2594
S'464'
p2595
stp2596
a(S'district'
p2597
(dp2598
S'NamedEntityTag'
p2599
g104
sS'CharacterOffsetEnd'
p2600
S'482'
p2601
sS'Lemma'
p2602
S'district'
p2603
sS'PartOfSpeech'
p2604
S'NN'
p2605
sS'CharacterOffsetBegin'
p2606
S'474'
p2607
stp2608
a(S'four'
p2609
(dp2610
S'NormalizedNamedEntityTag'
p2611
S'P4D'
p2612
sS'Timex'
p2613
S'<TIMEX3 tid="t3" type="DURATION" value="P4D">four days</TIMEX3>'
p2614
sS'Lemma'
p2615
S'four'
p2616
sS'CharacterOffsetEnd'
p2617
S'487'
p2618
sS'PartOfSpeech'
p2619
S'CD'
p2620
sS'CharacterOffsetBegin'
p2621
S'483'
p2622
sS'NamedEntityTag'
p2623
S'DURATION'
p2624
stp2625
a(S'days'
p2626
(dp2627
S'NormalizedNamedEntityTag'
p2628
S'P4D'
p2629
sS'Timex'
p2630
S'<TIMEX3 tid="t3" type="DURATION" value="P4D">four days</TIMEX3>'
p2631
sS'Lemma'
p2632
S'day'
p2633
sS'CharacterOffsetEnd'
p2634
S'492'
p2635
sS'PartOfSpeech'
p2636
S'NNS'
p2637
sS'CharacterOffsetBegin'
p2638
S'488'
p2639
sS'NamedEntityTag'
p2640
S'DURATION'
p2641
stp2642
a(S'before'
p2643
(dp2644
S'NamedEntityTag'
p2645
g104
sS'CharacterOffsetEnd'
p2646
S'499'
p2647
sS'Lemma'
p2648
S'before'
p2649
sS'PartOfSpeech'
p2650
S'IN'
p2651
sS'CharacterOffsetBegin'
p2652
S'493'
p2653
stp2654
a(S'he'
p2655
(dp2656
S'NamedEntityTag'
p2657
g104
sS'CharacterOffsetEnd'
p2658
S'502'
p2659
sS'Lemma'
p2660
S'he'
p2661
sS'PartOfSpeech'
p2662
S'PRP'
p2663
sS'CharacterOffsetBegin'
p2664
S'500'
p2665
stp2666
a(S'was'
p2667
(dp2668
S'NamedEntityTag'
p2669
g104
sS'CharacterOffsetEnd'
p2670
S'506'
p2671
sS'Lemma'
p2672
S'be'
p2673
sS'PartOfSpeech'
p2674
S'VBD'
p2675
sS'CharacterOffsetBegin'
p2676
S'503'
p2677
stp2678
a(S'hospitalized'
p2679
(dp2680
S'NamedEntityTag'
p2681
g104
sS'CharacterOffsetEnd'
p2682
S'519'
p2683
sS'Lemma'
p2684
S'hospitalize'
p2685
sS'PartOfSpeech'
p2686
S'VBN'
p2687
sS'CharacterOffsetBegin'
p2688
S'507'
p2689
stp2690
a(S'for'
p2691
(dp2692
S'NamedEntityTag'
p2693
g104
sS'CharacterOffsetEnd'
p2694
S'523'
p2695
sS'Lemma'
p2696
S'for'
p2697
sS'PartOfSpeech'
p2698
S'IN'
p2699
sS'CharacterOffsetBegin'
p2700
S'520'
p2701
stp2702
a(S'back'
p2703
(dp2704
S'NamedEntityTag'
p2705
g104
sS'CharacterOffsetEnd'
p2706
S'528'
p2707
sS'Lemma'
p2708
S'back'
p2709
sS'PartOfSpeech'
p2710
S'RB'
p2711
sS'CharacterOffsetBegin'
p2712
S'524'
p2713
stp2714
a(S'surgery'
p2715
(dp2716
S'NamedEntityTag'
p2717
g104
sS'CharacterOffsetEnd'
p2718
S'536'
p2719
sS'Lemma'
p2720
S'surgery'
p2721
sS'PartOfSpeech'
p2722
S'NN'
p2723
sS'CharacterOffsetBegin'
p2724
S'529'
p2725
stp2726
a(S'performed'
p2727
(dp2728
S'NamedEntityTag'
p2729
g104
sS'CharacterOffsetEnd'
p2730
S'546'
p2731
sS'Lemma'
p2732
S'perform'
p2733
sS'PartOfSpeech'
p2734
S'VBN'
p2735
sS'CharacterOffsetBegin'
p2736
S'537'
p2737
stp2738
a(S'Oct'
p2739
(dp2740
S'NormalizedNamedEntityTag'
p2741
S'XXXX-10-09'
p2742
sS'Timex'
p2743
S'<TIMEX3 tid="t4" type="DATE" value="XXXX-10-09">Oct 9</TIMEX3>'
p2744
sS'Lemma'
p2745
S'oct'
p2746
sS'CharacterOffsetEnd'
p2747
S'550'
p2748
sS'PartOfSpeech'
p2749
S'NN'
p2750
sS'CharacterOffsetBegin'
p2751
S'547'
p2752
sS'NamedEntityTag'
p2753
S'DATE'
p2754
stp2755
a(g93
(dp2756
S'NormalizedNamedEntityTag'
p2757
S'XXXX-10-09'
p2758
sS'Timex'
p2759
S'<TIMEX3 tid="t4" type="DATE" value="XXXX-10-09">Oct 9</TIMEX3>'
p2760
sS'Lemma'
p2761
g93
sS'CharacterOffsetEnd'
p2762
S'552'
p2763
sS'PartOfSpeech'
p2764
S'CD'
p2765
sS'CharacterOffsetBegin'
p2766
S'551'
p2767
sS'NamedEntityTag'
p2768
S'DATE'
p2769
stp2770
a(g241
(dp2771
S'NamedEntityTag'
p2772
g104
sS'CharacterOffsetEnd'
p2773
S'553'
p2774
sS'Lemma'
p2775
g241
sS'PartOfSpeech'
p2776
g241
sS'CharacterOffsetBegin'
p2777
S'552'
p2778
stp2779
asa(dp2780
g15
S'(ROOT (SINV (S (NP (PRP She)) (VP (VBD regarded) (NP (PRP it)) (PP (IN as) (NP (DT a) (JJ private) (NN meeting))))) (, ,) (VP (VBD said)) (NP (NP (NNP Mark) (NNP Worthington)) (, ,) (NP (NP (NN spokesman)) (PP (IN for) (NP (DT the) (NNP Lady) (NNP Thatcher) (, ,) (NNP Conservative) (NNP Party) (JJ prime) (NN minister))) (PP (IN from) (NP (CD 1979-90))))) (. .)))'
p2781
sg17
S'She regarded it as a private meeting, said Mark Worthington, spokesman for the Lady Thatcher, Conservative Party prime minister from 1979-90.'
p2782
sg19
(lp2783
(S'root'
p2784
S'ROOT'
p2785
S'said'
p2786
tp2787
a(S'nsubj'
p2788
S'regarded'
p2789
S'She'
p2790
tp2791
a(S'ccomp'
p2792
S'said'
p2793
S'regarded'
p2794
tp2795
a(S'dobj'
p2796
S'regarded'
p2797
S'it'
p2798
tp2799
a(S'det'
p2800
S'meeting'
p2801
g1164
tp2802
a(S'amod'
p2803
S'meeting'
p2804
S'private'
p2805
tp2806
a(S'prep_as'
p2807
S'regarded'
p2808
S'meeting'
p2809
tp2810
a(S'nn'
p2811
S'Worthington'
p2812
S'Mark'
p2813
tp2814
a(S'nsubj'
p2815
S'said'
p2816
S'Worthington'
p2817
tp2818
a(S'appos'
p2819
S'Worthington'
p2820
S'spokesman'
p2821
tp2822
a(S'det'
p2823
S'minister'
p2824
S'the'
p2825
tp2826
a(S'nn'
p2827
S'minister'
p2828
S'Lady'
p2829
tp2830
a(S'nn'
p2831
S'minister'
p2832
S'Thatcher'
p2833
tp2834
a(S'appos'
p2835
S'minister'
p2836
S'Conservative'
p2837
tp2838
a(S'nn'
p2839
S'minister'
p2840
S'Party'
p2841
tp2842
a(S'amod'
p2843
S'minister'
p2844
S'prime'
p2845
tp2846
a(S'prep_for'
p2847
S'spokesman'
p2848
S'minister'
p2849
tp2850
a(S'prep_from'
p2851
S'spokesman'
p2852
S'1979-90'
p2853
tp2854
asg57
(lp2855
(g2784
S'ROOT-0'
p2856
S'said-9'
p2857
tp2858
a(g2788
S'regarded-2'
p2859
S'She-1'
p2860
tp2861
a(g2792
S'said-9'
p2862
S'regarded-2'
p2863
tp2864
a(g2796
S'regarded-2'
p2865
S'it-3'
p2866
tp2867
a(g2800
S'meeting-7'
p2868
S'a-5'
p2869
tp2870
a(g2803
S'meeting-7'
p2871
S'private-6'
p2872
tp2873
a(g2807
S'regarded-2'
p2874
S'meeting-7'
p2875
tp2876
a(g2811
S'Worthington-11'
p2877
S'Mark-10'
p2878
tp2879
a(g2815
S'said-9'
p2880
S'Worthington-11'
p2881
tp2882
a(g2819
S'Worthington-11'
p2883
S'spokesman-13'
p2884
tp2885
a(g2823
S'minister-22'
p2886
S'the-15'
p2887
tp2888
a(g2827
S'minister-22'
p2889
S'Lady-16'
p2890
tp2891
a(g2831
S'minister-22'
p2892
S'Thatcher-17'
p2893
tp2894
a(g2835
S'minister-22'
p2895
S'Conservative-19'
p2896
tp2897
a(g2839
S'minister-22'
p2898
S'Party-20'
p2899
tp2900
a(g2843
S'minister-22'
p2901
S'prime-21'
p2902
tp2903
a(g2847
S'spokesman-13'
p2904
S'minister-22'
p2905
tp2906
a(g2851
S'spokesman-13'
p2907
S'1979-90-24'
p2908
tp2909
asg86
(lp2910
(S'She'
p2911
(dp2912
S'NamedEntityTag'
p2913
g104
sS'CharacterOffsetEnd'
p2914
S'557'
p2915
sS'Lemma'
p2916
S'she'
p2917
sS'PartOfSpeech'
p2918
S'PRP'
p2919
sS'CharacterOffsetBegin'
p2920
S'554'
p2921
stp2922
a(S'regarded'
p2923
(dp2924
S'NamedEntityTag'
p2925
g104
sS'CharacterOffsetEnd'
p2926
S'566'
p2927
sS'Lemma'
p2928
S'regard'
p2929
sS'PartOfSpeech'
p2930
S'VBD'
p2931
sS'CharacterOffsetBegin'
p2932
S'558'
p2933
stp2934
a(S'it'
p2935
(dp2936
S'NamedEntityTag'
p2937
g104
sS'CharacterOffsetEnd'
p2938
S'569'
p2939
sS'Lemma'
p2940
S'it'
p2941
sS'PartOfSpeech'
p2942
S'PRP'
p2943
sS'CharacterOffsetBegin'
p2944
S'567'
p2945
stp2946
a(S'as'
p2947
(dp2948
S'NamedEntityTag'
p2949
g104
sS'CharacterOffsetEnd'
p2950
S'572'
p2951
sS'Lemma'
p2952
S'as'
p2953
sS'PartOfSpeech'
p2954
S'IN'
p2955
sS'CharacterOffsetBegin'
p2956
S'570'
p2957
stp2958
a(g1164
(dp2959
S'NamedEntityTag'
p2960
g104
sS'CharacterOffsetEnd'
p2961
S'574'
p2962
sS'Lemma'
p2963
g1164
sS'PartOfSpeech'
p2964
S'DT'
p2965
sS'CharacterOffsetBegin'
p2966
S'573'
p2967
stp2968
a(S'private'
p2969
(dp2970
S'NamedEntityTag'
p2971
g104
sS'CharacterOffsetEnd'
p2972
S'582'
p2973
sS'Lemma'
p2974
S'private'
p2975
sS'PartOfSpeech'
p2976
S'JJ'
p2977
sS'CharacterOffsetBegin'
p2978
S'575'
p2979
stp2980
a(S'meeting'
p2981
(dp2982
S'NamedEntityTag'
p2983
g104
sS'CharacterOffsetEnd'
p2984
S'590'
p2985
sS'Lemma'
p2986
S'meeting'
p2987
sS'PartOfSpeech'
p2988
S'NN'
p2989
sS'CharacterOffsetBegin'
p2990
S'583'
p2991
stp2992
a(g1634
(dp2993
S'NamedEntityTag'
p2994
g104
sS'CharacterOffsetEnd'
p2995
S'591'
p2996
sS'Lemma'
p2997
g1634
sS'PartOfSpeech'
p2998
g1634
sS'CharacterOffsetBegin'
p2999
S'590'
p3000
stp3001
a(S'said'
p3002
(dp3003
S'NamedEntityTag'
p3004
g104
sS'CharacterOffsetEnd'
p3005
S'596'
p3006
sS'Lemma'
p3007
S'say'
p3008
sS'PartOfSpeech'
p3009
S'VBD'
p3010
sS'CharacterOffsetBegin'
p3011
S'592'
p3012
stp3013
a(S'Mark'
p3014
(dp3015
S'NamedEntityTag'
p3016
S'PERSON'
p3017
sS'CharacterOffsetEnd'
p3018
S'601'
p3019
sS'Lemma'
p3020
S'Mark'
p3021
sS'PartOfSpeech'
p3022
S'NNP'
p3023
sS'CharacterOffsetBegin'
p3024
S'597'
p3025
stp3026
a(S'Worthington'
p3027
(dp3028
S'NamedEntityTag'
p3029
S'PERSON'
p3030
sS'CharacterOffsetEnd'
p3031
S'613'
p3032
sS'Lemma'
p3033
S'Worthington'
p3034
sS'PartOfSpeech'
p3035
S'NNP'
p3036
sS'CharacterOffsetBegin'
p3037
S'602'
p3038
stp3039
a(g1634
(dp3040
S'NamedEntityTag'
p3041
g104
sS'CharacterOffsetEnd'
p3042
S'614'
p3043
sS'Lemma'
p3044
g1634
sS'PartOfSpeech'
p3045
g1634
sS'CharacterOffsetBegin'
p3046
S'613'
p3047
stp3048
a(S'spokesman'
p3049
(dp3050
S'NamedEntityTag'
p3051
g104
sS'CharacterOffsetEnd'
p3052
S'624'
p3053
sS'Lemma'
p3054
S'spokesman'
p3055
sS'PartOfSpeech'
p3056
S'NN'
p3057
sS'CharacterOffsetBegin'
p3058
S'615'
p3059
stp3060
a(S'for'
p3061
(dp3062
S'NamedEntityTag'
p3063
g104
sS'CharacterOffsetEnd'
p3064
S'628'
p3065
sS'Lemma'
p3066
S'for'
p3067
sS'PartOfSpeech'
p3068
S'IN'
p3069
sS'CharacterOffsetBegin'
p3070
S'625'
p3071
stp3072
a(S'the'
p3073
(dp3074
S'NamedEntityTag'
p3075
g104
sS'CharacterOffsetEnd'
p3076
S'632'
p3077
sS'Lemma'
p3078
S'the'
p3079
sS'PartOfSpeech'
p3080
S'DT'
p3081
sS'CharacterOffsetBegin'
p3082
S'629'
p3083
stp3084
a(S'Lady'
p3085
(dp3086
S'NamedEntityTag'
p3087
S'PERSON'
p3088
sS'CharacterOffsetEnd'
p3089
S'637'
p3090
sS'Lemma'
p3091
S'Lady'
p3092
sS'PartOfSpeech'
p3093
S'NNP'
p3094
sS'CharacterOffsetBegin'
p3095
S'633'
p3096
stp3097
a(S'Thatcher'
p3098
(dp3099
S'NamedEntityTag'
p3100
S'PERSON'
p3101
sS'CharacterOffsetEnd'
p3102
S'646'
p3103
sS'Lemma'
p3104
S'Thatcher'
p3105
sS'PartOfSpeech'
p3106
S'NNP'
p3107
sS'CharacterOffsetBegin'
p3108
S'638'
p3109
stp3110
a(g1634
(dp3111
S'NamedEntityTag'
p3112
g104
sS'CharacterOffsetEnd'
p3113
S'647'
p3114
sS'Lemma'
p3115
g1634
sS'PartOfSpeech'
p3116
g1634
sS'CharacterOffsetBegin'
p3117
S'646'
p3118
stp3119
a(S'Conservative'
p3120
(dp3121
S'NamedEntityTag'
p3122
S'ORGANIZATION'
p3123
sS'CharacterOffsetEnd'
p3124
S'660'
p3125
sS'Lemma'
p3126
S'Conservative'
p3127
sS'PartOfSpeech'
p3128
S'NNP'
p3129
sS'CharacterOffsetBegin'
p3130
S'648'
p3131
stp3132
a(S'Party'
p3133
(dp3134
S'NamedEntityTag'
p3135
S'ORGANIZATION'
p3136
sS'CharacterOffsetEnd'
p3137
S'666'
p3138
sS'Lemma'
p3139
S'Party'
p3140
sS'PartOfSpeech'
p3141
S'NNP'
p3142
sS'CharacterOffsetBegin'
p3143
S'661'
p3144
stp3145
a(S'prime'
p3146
(dp3147
S'NamedEntityTag'
p3148
g104
sS'CharacterOffsetEnd'
p3149
S'672'
p3150
sS'Lemma'
p3151
S'prime'
p3152
sS'PartOfSpeech'
p3153
S'JJ'
p3154
sS'CharacterOffsetBegin'
p3155
S'667'
p3156
stp3157
a(S'minister'
p3158
(dp3159
S'NamedEntityTag'
p3160
g104
sS'CharacterOffsetEnd'
p3161
S'681'
p3162
sS'Lemma'
p3163
S'minister'
p3164
sS'PartOfSpeech'
p3165
S'NN'
p3166
sS'CharacterOffsetBegin'
p3167
S'673'
p3168
stp3169
a(S'from'
p3170
(dp3171
S'NamedEntityTag'
p3172
g104
sS'CharacterOffsetEnd'
p3173
S'686'
p3174
sS'Lemma'
p3175
S'from'
p3176
sS'PartOfSpeech'
p3177
S'IN'
p3178
sS'CharacterOffsetBegin'
p3179
S'682'
p3180
stp3181
a(S'1979-90'
p3182
(dp3183
S'NormalizedNamedEntityTag'
p3184
S'1979.0'
p3185
sS'Lemma'
p3186
S'1979-90'
p3187
sS'CharacterOffsetEnd'
p3188
S'694'
p3189
sS'PartOfSpeech'
p3190
S'CD'
p3191
sS'CharacterOffsetBegin'
p3192
S'687'
p3193
sS'NamedEntityTag'
p3194
S'NUMBER'
p3195
stp3196
a(g241
(dp3197
S'NamedEntityTag'
p3198
g104
sS'CharacterOffsetEnd'
p3199
S'695'
p3200
sS'Lemma'
p3201
g241
sS'PartOfSpeech'
p3202
g241
sS'CharacterOffsetBegin'
p3203
S'694'
p3204
stp3205
asa(dp3206
g15
S'(ROOT (S (NP (DT The) (JJ 82-year-old) (NNP Pinochet)) (VP (VBD was) (VP (VBN arrested) (NP-TMP (NNP Friday)) (PP (IN at) (NP (DT a) (JJ Spanish) (NNS magistrates) (NN request))))) (. .)))'
p3207
sg17
S'The 82-year-old Pinochet was arrested Friday at a Spanish magistrates request.'
p3208
sg19
(lp3209
(S'root'
p3210
S'ROOT'
p3211
S'arrested'
p3212
tp3213
a(S'det'
p3214
S'Pinochet'
p3215
S'The'
p3216
tp3217
a(S'amod'
p3218
S'Pinochet'
p3219
S'82-year-old'
p3220
tp3221
a(S'nsubjpass'
p3222
S'arrested'
p3223
S'Pinochet'
p3224
tp3225
a(S'auxpass'
p3226
S'arrested'
p3227
S'was'
p3228
tp3229
a(S'tmod'
p3230
S'arrested'
p3231
S'Friday'
p3232
tp3233
a(S'det'
p3234
S'request'
p3235
g1164
tp3236
a(S'amod'
p3237
S'request'
p3238
S'Spanish'
p3239
tp3240
a(S'nn'
p3241
S'request'
p3242
S'magistrates'
p3243
tp3244
a(S'prep_at'
p3245
S'arrested'
p3246
S'request'
p3247
tp3248
asg57
(lp3249
(g3210
S'ROOT-0'
p3250
S'arrested-5'
p3251
tp3252
a(g3214
S'Pinochet-3'
p3253
S'The-1'
p3254
tp3255
a(g3218
S'Pinochet-3'
p3256
S'82-year-old-2'
p3257
tp3258
a(g3222
S'arrested-5'
p3259
S'Pinochet-3'
p3260
tp3261
a(g3226
S'arrested-5'
p3262
S'was-4'
p3263
tp3264
a(g3230
S'arrested-5'
p3265
S'Friday-6'
p3266
tp3267
a(g3234
S'request-11'
p3268
S'a-8'
p3269
tp3270
a(g3237
S'request-11'
p3271
S'Spanish-9'
p3272
tp3273
a(g3241
S'request-11'
p3274
S'magistrates-10'
p3275
tp3276
a(g3245
S'arrested-5'
p3277
S'request-11'
p3278
tp3279
asg86
(lp3280
(S'The'
p3281
(dp3282
S'NamedEntityTag'
p3283
g104
sS'CharacterOffsetEnd'
p3284
S'699'
p3285
sS'Lemma'
p3286
S'the'
p3287
sS'PartOfSpeech'
p3288
S'DT'
p3289
sS'CharacterOffsetBegin'
p3290
S'696'
p3291
stp3292
a(S'82-year-old'
p3293
(dp3294
S'NormalizedNamedEntityTag'
p3295
S'P82Y'
p3296
sS'Timex'
p3297
S'<TIMEX3 tid="t5" type="DURATION" value="P82Y">82-year-old</TIMEX3>'
p3298
sS'Lemma'
p3299
S'82-year-old'
p3300
sS'CharacterOffsetEnd'
p3301
S'711'
p3302
sS'PartOfSpeech'
p3303
S'JJ'
p3304
sS'CharacterOffsetBegin'
p3305
S'700'
p3306
sS'NamedEntityTag'
p3307
S'DURATION'
p3308
stp3309
a(S'Pinochet'
p3310
(dp3311
S'NamedEntityTag'
p3312
S'PERSON'
p3313
sS'CharacterOffsetEnd'
p3314
S'720'
p3315
sS'Lemma'
p3316
S'Pinochet'
p3317
sS'PartOfSpeech'
p3318
S'NNP'
p3319
sS'CharacterOffsetBegin'
p3320
S'712'
p3321
stp3322
a(S'was'
p3323
(dp3324
S'NamedEntityTag'
p3325
g104
sS'CharacterOffsetEnd'
p3326
S'724'
p3327
sS'Lemma'
p3328
S'be'
p3329
sS'PartOfSpeech'
p3330
S'VBD'
p3331
sS'CharacterOffsetBegin'
p3332
S'721'
p3333
stp3334
a(S'arrested'
p3335
(dp3336
S'NamedEntityTag'
p3337
g104
sS'CharacterOffsetEnd'
p3338
S'733'
p3339
sS'Lemma'
p3340
S'arrest'
p3341
sS'PartOfSpeech'
p3342
S'VBN'
p3343
sS'CharacterOffsetBegin'
p3344
S'725'
p3345
stp3346
a(S'Friday'
p3347
(dp3348
S'NormalizedNamedEntityTag'
p3349
S'XXXX-WXX-5'
p3350
sS'Timex'
p3351
S'<TIMEX3 tid="t6" type="DATE" value="XXXX-WXX-5">Friday</TIMEX3>'
p3352
sS'Lemma'
p3353
S'Friday'
p3354
sS'CharacterOffsetEnd'
p3355
S'740'
p3356
sS'PartOfSpeech'
p3357
S'NNP'
p3358
sS'CharacterOffsetBegin'
p3359
S'734'
p3360
sS'NamedEntityTag'
p3361
S'DATE'
p3362
stp3363
a(S'at'
p3364
(dp3365
S'NamedEntityTag'
p3366
g104
sS'CharacterOffsetEnd'
p3367
S'743'
p3368
sS'Lemma'
p3369
S'at'
p3370
sS'PartOfSpeech'
p3371
S'IN'
p3372
sS'CharacterOffsetBegin'
p3373
S'741'
p3374
stp3375
a(g1164
(dp3376
S'NamedEntityTag'
p3377
g104
sS'CharacterOffsetEnd'
p3378
S'745'
p3379
sS'Lemma'
p3380
g1164
sS'PartOfSpeech'
p3381
S'DT'
p3382
sS'CharacterOffsetBegin'
p3383
S'744'
p3384
stp3385
a(S'Spanish'
p3386
(dp3387
S'NamedEntityTag'
p3388
S'LOCATION'
p3389
sS'CharacterOffsetEnd'
p3390
S'753'
p3391
sS'Lemma'
p3392
S'spanish'
p3393
sS'PartOfSpeech'
p3394
S'JJ'
p3395
sS'CharacterOffsetBegin'
p3396
S'746'
p3397
stp3398
a(S'magistrates'
p3399
(dp3400
S'NamedEntityTag'
p3401
g104
sS'CharacterOffsetEnd'
p3402
S'765'
p3403
sS'Lemma'
p3404
S'magistrate'
p3405
sS'PartOfSpeech'
p3406
S'NNS'
p3407
sS'CharacterOffsetBegin'
p3408
S'754'
p3409
stp3410
a(S'request'
p3411
(dp3412
S'NamedEntityTag'
p3413
g104
sS'CharacterOffsetEnd'
p3414
S'773'
p3415
sS'Lemma'
p3416
S'request'
p3417
sS'PartOfSpeech'
p3418
S'NN'
p3419
sS'CharacterOffsetBegin'
p3420
S'766'
p3421
stp3422
a(g241
(dp3423
S'NamedEntityTag'
p3424
g104
sS'CharacterOffsetEnd'
p3425
S'774'
p3426
sS'Lemma'
p3427
g241
sS'PartOfSpeech'
p3428
g241
sS'CharacterOffsetBegin'
p3429
S'773'
p3430
stp3431
asa(dp3432
g15
S'(ROOT (S (PP (IN In) (NP (JJ Conservative) (NN government) (NNS days))) (, ,) (NP (NNP Pinochet)) (VP (VBD was) (VP (VBN welcomed) (PP (IN on) (NP (NP (JJ regular) (NNS visits)) (SBAR (WHNP (WDT that)) (S (VP (VBD included) (NP (NN tea)) (PP (IN with) (NP (DT the) (JJ prime) (NN minister)))))))))) (. .)))'
p3433
sg17
S'In Conservative government days, Pinochet was welcomed on regular visits that included tea with the prime minister.'
p3434
sg19
(lp3435
(S'root'
p3436
S'ROOT'
p3437
S'welcomed'
p3438
tp3439
a(S'amod'
p3440
S'days'
p3441
S'Conservative'
p3442
tp3443
a(S'nn'
p3444
S'days'
p3445
S'government'
p3446
tp3447
a(S'prep_in'
p3448
S'welcomed'
p3449
S'days'
p3450
tp3451
a(S'nsubjpass'
p3452
S'welcomed'
p3453
S'Pinochet'
p3454
tp3455
a(S'auxpass'
p3456
S'welcomed'
p3457
S'was'
p3458
tp3459
a(S'amod'
p3460
S'visits'
p3461
S'regular'
p3462
tp3463
a(S'prep_on'
p3464
S'welcomed'
p3465
S'visits'
p3466
tp3467
a(S'nsubj'
p3468
S'included'
p3469
S'that'
p3470
tp3471
a(S'rcmod'
p3472
S'visits'
p3473
S'included'
p3474
tp3475
a(S'dobj'
p3476
S'included'
p3477
S'tea'
p3478
tp3479
a(S'det'
p3480
S'minister'
p3481
S'the'
p3482
tp3483
a(S'amod'
p3484
S'minister'
p3485
S'prime'
p3486
tp3487
a(S'prep_with'
p3488
S'included'
p3489
S'minister'
p3490
tp3491
asg57
(lp3492
(g3436
S'ROOT-0'
p3493
S'welcomed-8'
p3494
tp3495
a(g3440
S'days-4'
p3496
S'Conservative-2'
p3497
tp3498
a(g3444
S'days-4'
p3499
S'government-3'
p3500
tp3501
a(g3448
S'welcomed-8'
p3502
S'days-4'
p3503
tp3504
a(g3452
S'welcomed-8'
p3505
S'Pinochet-6'
p3506
tp3507
a(g3456
S'welcomed-8'
p3508
S'was-7'
p3509
tp3510
a(g3460
S'visits-11'
p3511
S'regular-10'
p3512
tp3513
a(g3464
S'welcomed-8'
p3514
S'visits-11'
p3515
tp3516
a(g3468
S'included-13'
p3517
S'that-12'
p3518
tp3519
a(g3472
S'visits-11'
p3520
S'included-13'
p3521
tp3522
a(g3476
S'included-13'
p3523
S'tea-14'
p3524
tp3525
a(g3480
S'minister-18'
p3526
S'the-16'
p3527
tp3528
a(g3484
S'minister-18'
p3529
S'prime-17'
p3530
tp3531
a(g3488
S'included-13'
p3532
S'minister-18'
p3533
tp3534
asg86
(lp3535
(S'In'
p3536
(dp3537
S'NamedEntityTag'
p3538
g104
sS'CharacterOffsetEnd'
p3539
S'777'
p3540
sS'Lemma'
p3541
S'in'
p3542
sS'PartOfSpeech'
p3543
S'IN'
p3544
sS'CharacterOffsetBegin'
p3545
S'775'
p3546
stp3547
a(S'Conservative'
p3548
(dp3549
S'NamedEntityTag'
p3550
g104
sS'CharacterOffsetEnd'
p3551
S'790'
p3552
sS'Lemma'
p3553
S'conservative'
p3554
sS'PartOfSpeech'
p3555
S'JJ'
p3556
sS'CharacterOffsetBegin'
p3557
S'778'
p3558
stp3559
a(S'government'
p3560
(dp3561
S'NamedEntityTag'
p3562
g104
sS'CharacterOffsetEnd'
p3563
S'801'
p3564
sS'Lemma'
p3565
S'government'
p3566
sS'PartOfSpeech'
p3567
S'NN'
p3568
sS'CharacterOffsetBegin'
p3569
S'791'
p3570
stp3571
a(S'days'
p3572
(dp3573
S'NormalizedNamedEntityTag'
p3574
S'PXD'
p3575
sS'Timex'
p3576
S'<TIMEX3 tid="t7" type="DURATION" value="PXD">days</TIMEX3>'
p3577
sS'Lemma'
p3578
S'day'
p3579
sS'CharacterOffsetEnd'
p3580
S'806'
p3581
sS'PartOfSpeech'
p3582
S'NNS'
p3583
sS'CharacterOffsetBegin'
p3584
S'802'
p3585
sS'NamedEntityTag'
p3586
S'DURATION'
p3587
stp3588
a(g1634
(dp3589
S'NamedEntityTag'
p3590
g104
sS'CharacterOffsetEnd'
p3591
S'807'
p3592
sS'Lemma'
p3593
g1634
sS'PartOfSpeech'
p3594
g1634
sS'CharacterOffsetBegin'
p3595
S'806'
p3596
stp3597
a(S'Pinochet'
p3598
(dp3599
S'NamedEntityTag'
p3600
S'PERSON'
p3601
sS'CharacterOffsetEnd'
p3602
S'816'
p3603
sS'Lemma'
p3604
S'Pinochet'
p3605
sS'PartOfSpeech'
p3606
S'NNP'
p3607
sS'CharacterOffsetBegin'
p3608
S'808'
p3609
stp3610
a(S'was'
p3611
(dp3612
S'NamedEntityTag'
p3613
g104
sS'CharacterOffsetEnd'
p3614
S'820'
p3615
sS'Lemma'
p3616
S'be'
p3617
sS'PartOfSpeech'
p3618
S'VBD'
p3619
sS'CharacterOffsetBegin'
p3620
S'817'
p3621
stp3622
a(S'welcomed'
p3623
(dp3624
S'NamedEntityTag'
p3625
g104
sS'CharacterOffsetEnd'
p3626
S'829'
p3627
sS'Lemma'
p3628
S'welcome'
p3629
sS'PartOfSpeech'
p3630
S'VBN'
p3631
sS'CharacterOffsetBegin'
p3632
S'821'
p3633
stp3634
a(S'on'
p3635
(dp3636
S'NamedEntityTag'
p3637
g104
sS'CharacterOffsetEnd'
p3638
S'832'
p3639
sS'Lemma'
p3640
S'on'
p3641
sS'PartOfSpeech'
p3642
S'IN'
p3643
sS'CharacterOffsetBegin'
p3644
S'830'
p3645
stp3646
a(S'regular'
p3647
(dp3648
S'NamedEntityTag'
p3649
g104
sS'CharacterOffsetEnd'
p3650
S'840'
p3651
sS'Lemma'
p3652
S'regular'
p3653
sS'PartOfSpeech'
p3654
S'JJ'
p3655
sS'CharacterOffsetBegin'
p3656
S'833'
p3657
stp3658
a(S'visits'
p3659
(dp3660
S'NamedEntityTag'
p3661
g104
sS'CharacterOffsetEnd'
p3662
S'847'
p3663
sS'Lemma'
p3664
S'visit'
p3665
sS'PartOfSpeech'
p3666
S'NNS'
p3667
sS'CharacterOffsetBegin'
p3668
S'841'
p3669
stp3670
a(S'that'
p3671
(dp3672
S'NamedEntityTag'
p3673
g104
sS'CharacterOffsetEnd'
p3674
S'852'
p3675
sS'Lemma'
p3676
S'that'
p3677
sS'PartOfSpeech'
p3678
S'WDT'
p3679
sS'CharacterOffsetBegin'
p3680
S'848'
p3681
stp3682
a(S'included'
p3683
(dp3684
S'NamedEntityTag'
p3685
g104
sS'CharacterOffsetEnd'
p3686
S'861'
p3687
sS'Lemma'
p3688
S'include'
p3689
sS'PartOfSpeech'
p3690
S'VBD'
p3691
sS'CharacterOffsetBegin'
p3692
S'853'
p3693
stp3694
a(S'tea'
p3695
(dp3696
S'NamedEntityTag'
p3697
g104
sS'CharacterOffsetEnd'
p3698
S'865'
p3699
sS'Lemma'
p3700
S'tea'
p3701
sS'PartOfSpeech'
p3702
S'NN'
p3703
sS'CharacterOffsetBegin'
p3704
S'862'
p3705
stp3706
a(S'with'
p3707
(dp3708
S'NamedEntityTag'
p3709
g104
sS'CharacterOffsetEnd'
p3710
S'870'
p3711
sS'Lemma'
p3712
S'with'
p3713
sS'PartOfSpeech'
p3714
S'IN'
p3715
sS'CharacterOffsetBegin'
p3716
S'866'
p3717
stp3718
a(S'the'
p3719
(dp3720
S'NamedEntityTag'
p3721
g104
sS'CharacterOffsetEnd'
p3722
S'874'
p3723
sS'Lemma'
p3724
S'the'
p3725
sS'PartOfSpeech'
p3726
S'DT'
p3727
sS'CharacterOffsetBegin'
p3728
S'871'
p3729
stp3730
a(S'prime'
p3731
(dp3732
S'NamedEntityTag'
p3733
g104
sS'CharacterOffsetEnd'
p3734
S'880'
p3735
sS'Lemma'
p3736
S'prime'
p3737
sS'PartOfSpeech'
p3738
S'JJ'
p3739
sS'CharacterOffsetBegin'
p3740
S'875'
p3741
stp3742
a(S'minister'
p3743
(dp3744
S'NamedEntityTag'
p3745
g104
sS'CharacterOffsetEnd'
p3746
S'889'
p3747
sS'Lemma'
p3748
S'minister'
p3749
sS'PartOfSpeech'
p3750
S'NN'
p3751
sS'CharacterOffsetBegin'
p3752
S'881'
p3753
stp3754
a(g241
(dp3755
S'NamedEntityTag'
p3756
g104
sS'CharacterOffsetEnd'
p3757
S'890'
p3758
sS'Lemma'
p3759
g241
sS'PartOfSpeech'
p3760
g241
sS'CharacterOffsetBegin'
p3761
S'889'
p3762
stp3763
asa(dp3764
g15
S'(ROOT (S (NP (PRP He)) (VP (VBD was) (NP (DT the) (JJ only) (ADJP (JJ Latin) (JJ American)) (NN leader)) (S (VP (TO to) (VP (VB support) (NP (NP (NNP Britain)) (PP (IN in) (NP (NP (PRP$ its) (CD 1982) (NN war)) (PP (IN against) (NP (NNP Argentina)))))) (S (VP (TO to) (VP (VB reclaim) (NP (DT the) (NNP Falkland) (NNPS Islands))))))))) (. .)))'
p3765
sg17
S'He was the only Latin American leader to support Britain in its 1982 war against Argentina to reclaim the Falkland Islands.'
p3766
sg19
(lp3767
(S'root'
p3768
S'ROOT'
p3769
S'leader'
p3770
tp3771
a(S'nsubj'
p3772
S'leader'
p3773
S'He'
p3774
tp3775
a(S'cop'
p3776
S'leader'
p3777
S'was'
p3778
tp3779
a(S'det'
p3780
S'leader'
p3781
S'the'
p3782
tp3783
a(S'amod'
p3784
S'leader'
p3785
S'only'
p3786
tp3787
a(S'amod'
p3788
S'American'
p3789
S'Latin'
p3790
tp3791
a(S'amod'
p3792
S'leader'
p3793
S'American'
p3794
tp3795
a(S'aux'
p3796
S'support'
p3797
S'to'
p3798
tp3799
a(S'xcomp'
p3800
S'leader'
p3801
S'support'
p3802
tp3803
a(S'dobj'
p3804
S'support'
p3805
S'Britain'
p3806
tp3807
a(S'poss'
p3808
S'war'
p3809
S'its'
p3810
tp3811
a(S'num'
p3812
S'war'
p3813
S'1982'
p3814
tp3815
a(S'prep_in'
p3816
S'Britain'
p3817
S'war'
p3818
tp3819
a(S'prep_against'
p3820
S'war'
p3821
S'Argentina'
p3822
tp3823
a(S'aux'
p3824
S'reclaim'
p3825
S'to'
p3826
tp3827
a(S'xcomp'
p3828
S'support'
p3829
S'reclaim'
p3830
tp3831
a(S'det'
p3832
S'Islands'
p3833
S'the'
p3834
tp3835
a(S'nn'
p3836
S'Islands'
p3837
S'Falkland'
p3838
tp3839
a(S'dobj'
p3840
S'reclaim'
p3841
S'Islands'
p3842
tp3843
asg57
(lp3844
(g3768
S'ROOT-0'
p3845
S'leader-7'
p3846
tp3847
a(g3772
S'leader-7'
p3848
S'He-1'
p3849
tp3850
a(g3776
S'leader-7'
p3851
S'was-2'
p3852
tp3853
a(g3780
S'leader-7'
p3854
S'the-3'
p3855
tp3856
a(g3784
S'leader-7'
p3857
S'only-4'
p3858
tp3859
a(g3788
S'American-6'
p3860
S'Latin-5'
p3861
tp3862
a(g3792
S'leader-7'
p3863
S'American-6'
p3864
tp3865
a(g3796
S'support-9'
p3866
S'to-8'
p3867
tp3868
a(g3800
S'leader-7'
p3869
S'support-9'
p3870
tp3871
a(g3804
S'support-9'
p3872
S'Britain-10'
p3873
tp3874
a(g3808
S'war-14'
p3875
S'its-12'
p3876
tp3877
a(g3812
S'war-14'
p3878
S'1982-13'
p3879
tp3880
a(g3816
S'Britain-10'
p3881
S'war-14'
p3882
tp3883
a(g3820
S'war-14'
p3884
S'Argentina-16'
p3885
tp3886
a(g3824
S'reclaim-18'
p3887
S'to-17'
p3888
tp3889
a(g3828
S'support-9'
p3890
S'reclaim-18'
p3891
tp3892
a(g3832
S'Islands-21'
p3893
S'the-19'
p3894
tp3895
a(g3836
S'Islands-21'
p3896
S'Falkland-20'
p3897
tp3898
a(g3840
S'reclaim-18'
p3899
S'Islands-21'
p3900
tp3901
asg86
(lp3902
(S'He'
p3903
(dp3904
S'NamedEntityTag'
p3905
g104
sS'CharacterOffsetEnd'
p3906
S'893'
p3907
sS'Lemma'
p3908
S'he'
p3909
sS'PartOfSpeech'
p3910
S'PRP'
p3911
sS'CharacterOffsetBegin'
p3912
S'891'
p3913
stp3914
a(S'was'
p3915
(dp3916
S'NamedEntityTag'
p3917
g104
sS'CharacterOffsetEnd'
p3918
S'897'
p3919
sS'Lemma'
p3920
S'be'
p3921
sS'PartOfSpeech'
p3922
S'VBD'
p3923
sS'CharacterOffsetBegin'
p3924
S'894'
p3925
stp3926
a(S'the'
p3927
(dp3928
S'NamedEntityTag'
p3929
g104
sS'CharacterOffsetEnd'
p3930
S'901'
p3931
sS'Lemma'
p3932
S'the'
p3933
sS'PartOfSpeech'
p3934
S'DT'
p3935
sS'CharacterOffsetBegin'
p3936
S'898'
p3937
stp3938
a(S'only'
p3939
(dp3940
S'NamedEntityTag'
p3941
g104
sS'CharacterOffsetEnd'
p3942
S'906'
p3943
sS'Lemma'
p3944
S'only'
p3945
sS'PartOfSpeech'
p3946
S'JJ'
p3947
sS'CharacterOffsetBegin'
p3948
S'902'
p3949
stp3950
a(S'Latin'
p3951
(dp3952
S'NamedEntityTag'
p3953
S'MISC'
p3954
sS'CharacterOffsetEnd'
p3955
S'912'
p3956
sS'Lemma'
p3957
S'latin'
p3958
sS'PartOfSpeech'
p3959
S'JJ'
p3960
sS'CharacterOffsetBegin'
p3961
S'907'
p3962
stp3963
a(S'American'
p3964
(dp3965
S'NamedEntityTag'
p3966
S'MISC'
p3967
sS'CharacterOffsetEnd'
p3968
S'921'
p3969
sS'Lemma'
p3970
S'american'
p3971
sS'PartOfSpeech'
p3972
S'JJ'
p3973
sS'CharacterOffsetBegin'
p3974
S'913'
p3975
stp3976
a(S'leader'
p3977
(dp3978
S'NamedEntityTag'
p3979
g104
sS'CharacterOffsetEnd'
p3980
S'928'
p3981
sS'Lemma'
p3982
S'leader'
p3983
sS'PartOfSpeech'
p3984
S'NN'
p3985
sS'CharacterOffsetBegin'
p3986
S'922'
p3987
stp3988
a(S'to'
p3989
(dp3990
S'NamedEntityTag'
p3991
g104
sS'CharacterOffsetEnd'
p3992
S'931'
p3993
sS'Lemma'
p3994
S'to'
p3995
sS'PartOfSpeech'
p3996
S'TO'
p3997
sS'CharacterOffsetBegin'
p3998
S'929'
p3999
stp4000
a(S'support'
p4001
(dp4002
S'NamedEntityTag'
p4003
g104
sS'CharacterOffsetEnd'
p4004
S'939'
p4005
sS'Lemma'
p4006
S'support'
p4007
sS'PartOfSpeech'
p4008
S'VB'
p4009
sS'CharacterOffsetBegin'
p4010
S'932'
p4011
stp4012
a(S'Britain'
p4013
(dp4014
S'NamedEntityTag'
p4015
S'LOCATION'
p4016
sS'CharacterOffsetEnd'
p4017
S'947'
p4018
sS'Lemma'
p4019
S'Britain'
p4020
sS'PartOfSpeech'
p4021
S'NNP'
p4022
sS'CharacterOffsetBegin'
p4023
S'940'
p4024
stp4025
a(S'in'
p4026
(dp4027
S'NamedEntityTag'
p4028
g104
sS'CharacterOffsetEnd'
p4029
S'950'
p4030
sS'Lemma'
p4031
S'in'
p4032
sS'PartOfSpeech'
p4033
S'IN'
p4034
sS'CharacterOffsetBegin'
p4035
S'948'
p4036
stp4037
a(S'its'
p4038
(dp4039
S'NamedEntityTag'
p4040
g104
sS'CharacterOffsetEnd'
p4041
S'954'
p4042
sS'Lemma'
p4043
S'its'
p4044
sS'PartOfSpeech'
p4045
S'PRP$'
p4046
sS'CharacterOffsetBegin'
p4047
S'951'
p4048
stp4049
a(S'1982'
p4050
(dp4051
S'NormalizedNamedEntityTag'
p4052
S'1982'
p4053
sS'Timex'
p4054
S'<TIMEX3 tid="t8" type="DATE" value="1982">1982</TIMEX3>'
p4055
sS'Lemma'
p4056
S'1982'
p4057
sS'CharacterOffsetEnd'
p4058
S'959'
p4059
sS'PartOfSpeech'
p4060
S'CD'
p4061
sS'CharacterOffsetBegin'
p4062
S'955'
p4063
sS'NamedEntityTag'
p4064
S'DATE'
p4065
stp4066
a(S'war'
p4067
(dp4068
S'NamedEntityTag'
p4069
g104
sS'CharacterOffsetEnd'
p4070
S'963'
p4071
sS'Lemma'
p4072
S'war'
p4073
sS'PartOfSpeech'
p4074
S'NN'
p4075
sS'CharacterOffsetBegin'
p4076
S'960'
p4077
stp4078
a(S'against'
p4079
(dp4080
S'NamedEntityTag'
p4081
g104
sS'CharacterOffsetEnd'
p4082
S'971'
p4083
sS'Lemma'
p4084
S'against'
p4085
sS'PartOfSpeech'
p4086
S'IN'
p4087
sS'CharacterOffsetBegin'
p4088
S'964'
p4089
stp4090
a(S'Argentina'
p4091
(dp4092
S'NamedEntityTag'
p4093
S'LOCATION'
p4094
sS'CharacterOffsetEnd'
p4095
S'981'
p4096
sS'Lemma'
p4097
S'Argentina'
p4098
sS'PartOfSpeech'
p4099
S'NNP'
p4100
sS'CharacterOffsetBegin'
p4101
S'972'
p4102
stp4103
a(S'to'
p4104
(dp4105
S'NamedEntityTag'
p4106
g104
sS'CharacterOffsetEnd'
p4107
S'984'
p4108
sS'Lemma'
p4109
S'to'
p4110
sS'PartOfSpeech'
p4111
S'TO'
p4112
sS'CharacterOffsetBegin'
p4113
S'982'
p4114
stp4115
a(S'reclaim'
p4116
(dp4117
S'NamedEntityTag'
p4118
g104
sS'CharacterOffsetEnd'
p4119
S'992'
p4120
sS'Lemma'
p4121
S'reclaim'
p4122
sS'PartOfSpeech'
p4123
S'VB'
p4124
sS'CharacterOffsetBegin'
p4125
S'985'
p4126
stp4127
a(S'the'
p4128
(dp4129
S'NamedEntityTag'
p4130
g104
sS'CharacterOffsetEnd'
p4131
S'996'
p4132
sS'Lemma'
p4133
S'the'
p4134
sS'PartOfSpeech'
p4135
S'DT'
p4136
sS'CharacterOffsetBegin'
p4137
S'993'
p4138
stp4139
a(S'Falkland'
p4140
(dp4141
S'NamedEntityTag'
p4142
S'LOCATION'
p4143
sS'CharacterOffsetEnd'
p4144
S'1005'
p4145
sS'Lemma'
p4146
S'Falkland'
p4147
sS'PartOfSpeech'
p4148
S'NNP'
p4149
sS'CharacterOffsetBegin'
p4150
S'997'
p4151
stp4152
a(S'Islands'
p4153
(dp4154
S'NamedEntityTag'
p4155
S'LOCATION'
p4156
sS'CharacterOffsetEnd'
p4157
S'1013'
p4158
sS'Lemma'
p4159
S'Islands'
p4160
sS'PartOfSpeech'
p4161
S'NNPS'
p4162
sS'CharacterOffsetBegin'
p4163
S'1006'
p4164
stp4165
a(g241
(dp4166
S'NamedEntityTag'
p4167
g104
sS'CharacterOffsetEnd'
p4168
S'1014'
p4169
sS'Lemma'
p4170
g241
sS'PartOfSpeech'
p4171
g241
sS'CharacterOffsetBegin'
p4172
S'1013'
p4173
stp4174
asa(dp4175
g15
S'(ROOT (S (NP (NP (NNP Pinochet) (CC and) (NNP Lady)) (NNP Thatcher)) (ADVP (RB also)) (VP (VBD implemented) (NP (NP (JJ similar) (NNS brands)) (PP (IN of) (NP (JJ right-wing) (NNS economics))))) (. .)))'
p4176
sg17
S'Pinochet and Lady Thatcher also implemented similar brands of right-wing economics.'
p4177
sg19
(lp4178
(S'root'
p4179
S'ROOT'
p4180
S'implemented'
p4181
tp4182
a(S'nn'
p4183
S'Thatcher'
p4184
S'Pinochet'
p4185
tp4186
a(S'conj_and'
p4187
S'Pinochet'
p4188
S'Lady'
p4189
tp4190
a(S'nsubj'
p4191
S'implemented'
p4192
S'Thatcher'
p4193
tp4194
a(S'advmod'
p4195
S'implemented'
p4196
S'also'
p4197
tp4198
a(S'amod'
p4199
S'brands'
p4200
S'similar'
p4201
tp4202
a(S'dobj'
p4203
S'implemented'
p4204
S'brands'
p4205
tp4206
a(S'amod'
p4207
S'economics'
p4208
S'right-wing'
p4209
tp4210
a(S'prep_of'
p4211
S'brands'
p4212
S'economics'
p4213
tp4214
asg57
(lp4215
(g4179
S'ROOT-0'
p4216
S'implemented-6'
p4217
tp4218
a(g4183
S'Thatcher-4'
p4219
S'Pinochet-1'
p4220
tp4221
a(g4187
S'Pinochet-1'
p4222
S'Lady-3'
p4223
tp4224
a(g4191
S'implemented-6'
p4225
S'Thatcher-4'
p4226
tp4227
a(g4195
S'implemented-6'
p4228
S'also-5'
p4229
tp4230
a(g4199
S'brands-8'
p4231
S'similar-7'
p4232
tp4233
a(g4203
S'implemented-6'
p4234
S'brands-8'
p4235
tp4236
a(g4207
S'economics-11'
p4237
S'right-wing-10'
p4238
tp4239
a(g4211
S'brands-8'
p4240
S'economics-11'
p4241
tp4242
asg86
(lp4243
(S'Pinochet'
p4244
(dp4245
S'NamedEntityTag'
p4246
S'PERSON'
p4247
sS'CharacterOffsetEnd'
p4248
S'1023'
p4249
sS'Lemma'
p4250
S'Pinochet'
p4251
sS'PartOfSpeech'
p4252
S'NNP'
p4253
sS'CharacterOffsetBegin'
p4254
S'1015'
p4255
stp4256
a(S'and'
p4257
(dp4258
S'NamedEntityTag'
p4259
g104
sS'CharacterOffsetEnd'
p4260
S'1027'
p4261
sS'Lemma'
p4262
S'and'
p4263
sS'PartOfSpeech'
p4264
S'CC'
p4265
sS'CharacterOffsetBegin'
p4266
S'1024'
p4267
stp4268
a(S'Lady'
p4269
(dp4270
S'NamedEntityTag'
p4271
S'PERSON'
p4272
sS'CharacterOffsetEnd'
p4273
S'1032'
p4274
sS'Lemma'
p4275
S'Lady'
p4276
sS'PartOfSpeech'
p4277
S'NNP'
p4278
sS'CharacterOffsetBegin'
p4279
S'1028'
p4280
stp4281
a(S'Thatcher'
p4282
(dp4283
S'NamedEntityTag'
p4284
S'PERSON'
p4285
sS'CharacterOffsetEnd'
p4286
S'1041'
p4287
sS'Lemma'
p4288
S'Thatcher'
p4289
sS'PartOfSpeech'
p4290
S'NNP'
p4291
sS'CharacterOffsetBegin'
p4292
S'1033'
p4293
stp4294
a(S'also'
p4295
(dp4296
S'NamedEntityTag'
p4297
g104
sS'CharacterOffsetEnd'
p4298
S'1046'
p4299
sS'Lemma'
p4300
S'also'
p4301
sS'PartOfSpeech'
p4302
S'RB'
p4303
sS'CharacterOffsetBegin'
p4304
S'1042'
p4305
stp4306
a(S'implemented'
p4307
(dp4308
S'NamedEntityTag'
p4309
g104
sS'CharacterOffsetEnd'
p4310
S'1058'
p4311
sS'Lemma'
p4312
S'implement'
p4313
sS'PartOfSpeech'
p4314
S'VBD'
p4315
sS'CharacterOffsetBegin'
p4316
S'1047'
p4317
stp4318
a(S'similar'
p4319
(dp4320
S'NamedEntityTag'
p4321
g104
sS'CharacterOffsetEnd'
p4322
S'1066'
p4323
sS'Lemma'
p4324
S'similar'
p4325
sS'PartOfSpeech'
p4326
S'JJ'
p4327
sS'CharacterOffsetBegin'
p4328
S'1059'
p4329
stp4330
a(S'brands'
p4331
(dp4332
S'NamedEntityTag'
p4333
g104
sS'CharacterOffsetEnd'
p4334
S'1073'
p4335
sS'Lemma'
p4336
S'brand'
p4337
sS'PartOfSpeech'
p4338
S'NNS'
p4339
sS'CharacterOffsetBegin'
p4340
S'1067'
p4341
stp4342
a(S'of'
p4343
(dp4344
S'NamedEntityTag'
p4345
g104
sS'CharacterOffsetEnd'
p4346
S'1076'
p4347
sS'Lemma'
p4348
S'of'
p4349
sS'PartOfSpeech'
p4350
S'IN'
p4351
sS'CharacterOffsetBegin'
p4352
S'1074'
p4353
stp4354
a(S'right-wing'
p4355
(dp4356
S'NamedEntityTag'
p4357
g104
sS'CharacterOffsetEnd'
p4358
S'1087'
p4359
sS'Lemma'
p4360
S'right-wing'
p4361
sS'PartOfSpeech'
p4362
S'JJ'
p4363
sS'CharacterOffsetBegin'
p4364
S'1077'
p4365
stp4366
a(S'economics'
p4367
(dp4368
S'NamedEntityTag'
p4369
g104
sS'CharacterOffsetEnd'
p4370
S'1097'
p4371
sS'Lemma'
p4372
S'economics'
p4373
sS'PartOfSpeech'
p4374
S'NNS'
p4375
sS'CharacterOffsetBegin'
p4376
S'1088'
p4377
stp4378
a(g241
(dp4379
S'NamedEntityTag'
p4380
g104
sS'CharacterOffsetEnd'
p4381
S'1098'
p4382
sS'Lemma'
p4383
g241
sS'PartOfSpeech'
p4384
g241
sS'CharacterOffsetBegin'
p4385
S'1097'
p4386
stp4387
asa(dp4388
g15
S'(ROOT (S (NP (DT The) (JJ current) (NN visit)) (VP (VBZ is) (NP (NNPS Pincohets)) (ADVP (RB first)) (SBAR (IN since) (S (NP (NNP Prime) (NNP Minister) (NNP Tony) (NNP Blairs) (NNP Labor) (NNP Party) (NN administration)) (VP (VBD was) (VP (VBN elected) (ADVP (NP (CD 18) (NNS months)) (RB ago)) (, ,) (S (VP (VBG ending) (NP (NP (CD 18) (NNS years)) (PP (IN of) (NP (NNP Conservative) (NNP Party) (NN rule))))))))))) (. .)))'
p4389
sg17
S'The current visit is Pincohets first since Prime Minister Tony Blairs Labor Party administration was elected 18 months ago, ending 18 years of Conservative Party rule.'
p4390
sg19
(lp4391
(S'root'
p4392
S'ROOT'
p4393
S'Pincohets'
p4394
tp4395
a(S'det'
p4396
S'visit'
p4397
S'The'
p4398
tp4399
a(S'amod'
p4400
S'visit'
p4401
S'current'
p4402
tp4403
a(S'nsubj'
p4404
S'Pincohets'
p4405
S'visit'
p4406
tp4407
a(S'cop'
p4408
S'Pincohets'
p4409
S'is'
p4410
tp4411
a(S'advmod'
p4412
S'Pincohets'
p4413
S'first'
p4414
tp4415
a(S'mark'
p4416
S'elected'
p4417
S'since'
p4418
tp4419
a(S'nn'
p4420
S'administration'
p4421
S'Prime'
p4422
tp4423
a(S'nn'
p4424
S'administration'
p4425
S'Minister'
p4426
tp4427
a(S'nn'
p4428
S'administration'
p4429
S'Tony'
p4430
tp4431
a(S'nn'
p4432
S'administration'
p4433
S'Blairs'
p4434
tp4435
a(S'nn'
p4436
S'administration'
p4437
S'Labor'
p4438
tp4439
a(S'nn'
p4440
S'administration'
p4441
S'Party'
p4442
tp4443
a(S'nsubjpass'
p4444
S'elected'
p4445
S'administration'
p4446
tp4447
a(S'auxpass'
p4448
S'elected'
p4449
S'was'
p4450
tp4451
a(S'advcl'
p4452
S'Pincohets'
p4453
S'elected'
p4454
tp4455
a(S'num'
p4456
S'months'
p4457
S'18'
p4458
tp4459
a(S'npadvmod'
p4460
S'ago'
p4461
S'months'
p4462
tp4463
a(S'advmod'
p4464
S'elected'
p4465
S'ago'
p4466
tp4467
a(S'xcomp'
p4468
S'elected'
p4469
S'ending'
p4470
tp4471
a(S'num'
p4472
S'years'
p4473
S'18'
p4474
tp4475
a(S'dobj'
p4476
S'ending'
p4477
S'years'
p4478
tp4479
a(S'nn'
p4480
S'rule'
p4481
S'Conservative'
p4482
tp4483
a(S'nn'
p4484
S'rule'
p4485
S'Party'
p4486
tp4487
a(S'prep_of'
p4488
S'years'
p4489
S'rule'
p4490
tp4491
asg57
(lp4492
(g4392
S'ROOT-0'
p4493
S'Pincohets-5'
p4494
tp4495
a(g4396
S'visit-3'
p4496
S'The-1'
p4497
tp4498
a(g4400
S'visit-3'
p4499
S'current-2'
p4500
tp4501
a(g4404
S'Pincohets-5'
p4502
S'visit-3'
p4503
tp4504
a(g4408
S'Pincohets-5'
p4505
S'is-4'
p4506
tp4507
a(g4412
S'Pincohets-5'
p4508
S'first-6'
p4509
tp4510
a(g4416
S'elected-16'
p4511
S'since-7'
p4512
tp4513
a(g4420
S'administration-14'
p4514
S'Prime-8'
p4515
tp4516
a(g4424
S'administration-14'
p4517
S'Minister-9'
p4518
tp4519
a(g4428
S'administration-14'
p4520
S'Tony-10'
p4521
tp4522
a(g4432
S'administration-14'
p4523
S'Blairs-11'
p4524
tp4525
a(g4436
S'administration-14'
p4526
S'Labor-12'
p4527
tp4528
a(g4440
S'administration-14'
p4529
S'Party-13'
p4530
tp4531
a(g4444
S'elected-16'
p4532
S'administration-14'
p4533
tp4534
a(g4448
S'elected-16'
p4535
S'was-15'
p4536
tp4537
a(g4452
S'Pincohets-5'
p4538
S'elected-16'
p4539
tp4540
a(g4456
S'months-18'
p4541
S'18-17'
p4542
tp4543
a(g4460
S'ago-19'
p4544
S'months-18'
p4545
tp4546
a(g4464
S'elected-16'
p4547
S'ago-19'
p4548
tp4549
a(g4468
S'elected-16'
p4550
S'ending-21'
p4551
tp4552
a(g4472
S'years-23'
p4553
S'18-22'
p4554
tp4555
a(g4476
S'ending-21'
p4556
S'years-23'
p4557
tp4558
a(g4480
S'rule-27'
p4559
S'Conservative-25'
p4560
tp4561
a(g4484
S'rule-27'
p4562
S'Party-26'
p4563
tp4564
a(g4488
S'years-23'
p4565
S'rule-27'
p4566
tp4567
asg86
(lp4568
(S'The'
p4569
(dp4570
S'NamedEntityTag'
p4571
g104
sS'CharacterOffsetEnd'
p4572
S'1102'
p4573
sS'Lemma'
p4574
S'the'
p4575
sS'PartOfSpeech'
p4576
S'DT'
p4577
sS'CharacterOffsetBegin'
p4578
S'1099'
p4579
stp4580
a(S'current'
p4581
(dp4582
S'NormalizedNamedEntityTag'
p4583
S'PRESENT_REF'
p4584
sS'Timex'
p4585
S'<TIMEX3 tid="t9" type="DATE" value="PRESENT_REF">current</TIMEX3>'
p4586
sS'Lemma'
p4587
S'current'
p4588
sS'CharacterOffsetEnd'
p4589
S'1110'
p4590
sS'PartOfSpeech'
p4591
S'JJ'
p4592
sS'CharacterOffsetBegin'
p4593
S'1103'
p4594
sS'NamedEntityTag'
p4595
S'DATE'
p4596
stp4597
a(S'visit'
p4598
(dp4599
S'NamedEntityTag'
p4600
g104
sS'CharacterOffsetEnd'
p4601
S'1116'
p4602
sS'Lemma'
p4603
S'visit'
p4604
sS'PartOfSpeech'
p4605
S'NN'
p4606
sS'CharacterOffsetBegin'
p4607
S'1111'
p4608
stp4609
a(S'is'
p4610
(dp4611
S'NamedEntityTag'
p4612
g104
sS'CharacterOffsetEnd'
p4613
S'1119'
p4614
sS'Lemma'
p4615
S'be'
p4616
sS'PartOfSpeech'
p4617
S'VBZ'
p4618
sS'CharacterOffsetBegin'
p4619
S'1117'
p4620
stp4621
a(S'Pincohets'
p4622
(dp4623
S'NamedEntityTag'
p4624
g104
sS'CharacterOffsetEnd'
p4625
S'1129'
p4626
sS'Lemma'
p4627
S'Pincohets'
p4628
sS'PartOfSpeech'
p4629
S'NNPS'
p4630
sS'CharacterOffsetBegin'
p4631
S'1120'
p4632
stp4633
a(S'first'
p4634
(dp4635
S'NormalizedNamedEntityTag'
p4636
S'1.0'
p4637
sS'Lemma'
p4638
S'first'
p4639
sS'CharacterOffsetEnd'
p4640
S'1135'
p4641
sS'PartOfSpeech'
p4642
S'RB'
p4643
sS'CharacterOffsetBegin'
p4644
S'1130'
p4645
sS'NamedEntityTag'
p4646
S'ORDINAL'
p4647
stp4648
a(S'since'
p4649
(dp4650
S'NamedEntityTag'
p4651
g104
sS'CharacterOffsetEnd'
p4652
S'1141'
p4653
sS'Lemma'
p4654
S'since'
p4655
sS'PartOfSpeech'
p4656
S'IN'
p4657
sS'CharacterOffsetBegin'
p4658
S'1136'
p4659
stp4660
a(S'Prime'
p4661
(dp4662
S'NamedEntityTag'
p4663
g104
sS'CharacterOffsetEnd'
p4664
S'1147'
p4665
sS'Lemma'
p4666
S'Prime'
p4667
sS'PartOfSpeech'
p4668
S'NNP'
p4669
sS'CharacterOffsetBegin'
p4670
S'1142'
p4671
stp4672
a(S'Minister'
p4673
(dp4674
S'NamedEntityTag'
p4675
g104
sS'CharacterOffsetEnd'
p4676
S'1156'
p4677
sS'Lemma'
p4678
S'Minister'
p4679
sS'PartOfSpeech'
p4680
S'NNP'
p4681
sS'CharacterOffsetBegin'
p4682
S'1148'
p4683
stp4684
a(S'Tony'
p4685
(dp4686
S'NamedEntityTag'
p4687
S'ORGANIZATION'
p4688
sS'CharacterOffsetEnd'
p4689
S'1161'
p4690
sS'Lemma'
p4691
S'Tony'
p4692
sS'PartOfSpeech'
p4693
S'NNP'
p4694
sS'CharacterOffsetBegin'
p4695
S'1157'
p4696
stp4697
a(S'Blairs'
p4698
(dp4699
S'NamedEntityTag'
p4700
S'ORGANIZATION'
p4701
sS'CharacterOffsetEnd'
p4702
S'1168'
p4703
sS'Lemma'
p4704
S'Blairs'
p4705
sS'PartOfSpeech'
p4706
S'NNP'
p4707
sS'CharacterOffsetBegin'
p4708
S'1162'
p4709
stp4710
a(S'Labor'
p4711
(dp4712
S'NamedEntityTag'
p4713
S'ORGANIZATION'
p4714
sS'CharacterOffsetEnd'
p4715
S'1174'
p4716
sS'Lemma'
p4717
S'Labor'
p4718
sS'PartOfSpeech'
p4719
S'NNP'
p4720
sS'CharacterOffsetBegin'
p4721
S'1169'
p4722
stp4723
a(S'Party'
p4724
(dp4725
S'NamedEntityTag'
p4726
S'ORGANIZATION'
p4727
sS'CharacterOffsetEnd'
p4728
S'1180'
p4729
sS'Lemma'
p4730
S'Party'
p4731
sS'PartOfSpeech'
p4732
S'NNP'
p4733
sS'CharacterOffsetBegin'
p4734
S'1175'
p4735
stp4736
a(S'administration'
p4737
(dp4738
S'NamedEntityTag'
p4739
g104
sS'CharacterOffsetEnd'
p4740
S'1195'
p4741
sS'Lemma'
p4742
S'administration'
p4743
sS'PartOfSpeech'
p4744
S'NN'
p4745
sS'CharacterOffsetBegin'
p4746
S'1181'
p4747
stp4748
a(S'was'
p4749
(dp4750
S'NamedEntityTag'
p4751
g104
sS'CharacterOffsetEnd'
p4752
S'1199'
p4753
sS'Lemma'
p4754
S'be'
p4755
sS'PartOfSpeech'
p4756
S'VBD'
p4757
sS'CharacterOffsetBegin'
p4758
S'1196'
p4759
stp4760
a(S'elected'
p4761
(dp4762
S'NamedEntityTag'
p4763
g104
sS'CharacterOffsetEnd'
p4764
S'1207'
p4765
sS'Lemma'
p4766
S'elect'
p4767
sS'PartOfSpeech'
p4768
S'VBN'
p4769
sS'CharacterOffsetBegin'
p4770
S'1200'
p4771
stp4772
a(S'18'
p4773
(dp4774
S'NormalizedNamedEntityTag'
p4775
S'OFFSET'
p4776
sS'Timex'
p4777
S'<TIMEX3 alt_value="OFFSET P-18M" anchorTimeID="t0" temporalFunction="true" tid="t10" type="DATE" valueFromFunction="tf0">18 months ago</TIMEX3>'
p4778
sS'Lemma'
p4779
S'18'
p4780
sS'CharacterOffsetEnd'
p4781
S'1210'
p4782
sS'PartOfSpeech'
p4783
S'CD'
p4784
sS'CharacterOffsetBegin'
p4785
S'1208'
p4786
sS'NamedEntityTag'
p4787
S'DATE'
p4788
stp4789
a(S'months'
p4790
(dp4791
S'NormalizedNamedEntityTag'
p4792
S'OFFSET'
p4793
sS'Timex'
p4794
S'<TIMEX3 alt_value="OFFSET P-18M" anchorTimeID="t0" temporalFunction="true" tid="t10" type="DATE" valueFromFunction="tf0">18 months ago</TIMEX3>'
p4795
sS'Lemma'
p4796
S'month'
p4797
sS'CharacterOffsetEnd'
p4798
S'1217'
p4799
sS'PartOfSpeech'
p4800
S'NNS'
p4801
sS'CharacterOffsetBegin'
p4802
S'1211'
p4803
sS'NamedEntityTag'
p4804
S'DATE'
p4805
stp4806
a(S'ago'
p4807
(dp4808
S'NormalizedNamedEntityTag'
p4809
S'OFFSET'
p4810
sS'Timex'
p4811
S'<TIMEX3 alt_value="OFFSET P-18M" anchorTimeID="t0" temporalFunction="true" tid="t10" type="DATE" valueFromFunction="tf0">18 months ago</TIMEX3>'
p4812
sS'Lemma'
p4813
S'ago'
p4814
sS'CharacterOffsetEnd'
p4815
S'1221'
p4816
sS'PartOfSpeech'
p4817
S'RB'
p4818
sS'CharacterOffsetBegin'
p4819
S'1218'
p4820
sS'NamedEntityTag'
p4821
S'DATE'
p4822
stp4823
a(g1634
(dp4824
S'NamedEntityTag'
p4825
g104
sS'CharacterOffsetEnd'
p4826
S'1222'
p4827
sS'Lemma'
p4828
g1634
sS'PartOfSpeech'
p4829
g1634
sS'CharacterOffsetBegin'
p4830
S'1221'
p4831
stp4832
a(S'ending'
p4833
(dp4834
S'NamedEntityTag'
p4835
g104
sS'CharacterOffsetEnd'
p4836
S'1229'
p4837
sS'Lemma'
p4838
S'end'
p4839
sS'PartOfSpeech'
p4840
S'VBG'
p4841
sS'CharacterOffsetBegin'
p4842
S'1223'
p4843
stp4844
a(S'18'
p4845
(dp4846
S'NormalizedNamedEntityTag'
p4847
S'P18Y'
p4848
sS'Timex'
p4849
S'<TIMEX3 tid="t11" type="DURATION" value="P18Y">18 years</TIMEX3>'
p4850
sS'Lemma'
p4851
S'18'
p4852
sS'CharacterOffsetEnd'
p4853
S'1232'
p4854
sS'PartOfSpeech'
p4855
S'CD'
p4856
sS'CharacterOffsetBegin'
p4857
S'1230'
p4858
sS'NamedEntityTag'
p4859
S'DURATION'
p4860
stp4861
a(S'years'
p4862
(dp4863
S'NormalizedNamedEntityTag'
p4864
S'P18Y'
p4865
sS'Timex'
p4866
S'<TIMEX3 tid="t11" type="DURATION" value="P18Y">18 years</TIMEX3>'
p4867
sS'Lemma'
p4868
S'year'
p4869
sS'CharacterOffsetEnd'
p4870
S'1238'
p4871
sS'PartOfSpeech'
p4872
S'NNS'
p4873
sS'CharacterOffsetBegin'
p4874
S'1233'
p4875
sS'NamedEntityTag'
p4876
S'DURATION'
p4877
stp4878
a(S'of'
p4879
(dp4880
S'NamedEntityTag'
p4881
g104
sS'CharacterOffsetEnd'
p4882
S'1241'
p4883
sS'Lemma'
p4884
S'of'
p4885
sS'PartOfSpeech'
p4886
S'IN'
p4887
sS'CharacterOffsetBegin'
p4888
S'1239'
p4889
stp4890
a(S'Conservative'
p4891
(dp4892
S'NamedEntityTag'
p4893
S'ORGANIZATION'
p4894
sS'CharacterOffsetEnd'
p4895
S'1254'
p4896
sS'Lemma'
p4897
S'Conservative'
p4898
sS'PartOfSpeech'
p4899
S'NNP'
p4900
sS'CharacterOffsetBegin'
p4901
S'1242'
p4902
stp4903
a(S'Party'
p4904
(dp4905
S'NamedEntityTag'
p4906
S'ORGANIZATION'
p4907
sS'CharacterOffsetEnd'
p4908
S'1260'
p4909
sS'Lemma'
p4910
S'Party'
p4911
sS'PartOfSpeech'
p4912
S'NNP'
p4913
sS'CharacterOffsetBegin'
p4914
S'1255'
p4915
stp4916
a(S'rule'
p4917
(dp4918
S'NamedEntityTag'
p4919
g104
sS'CharacterOffsetEnd'
p4920
S'1265'
p4921
sS'Lemma'
p4922
S'rule'
p4923
sS'PartOfSpeech'
p4924
S'NN'
p4925
sS'CharacterOffsetBegin'
p4926
S'1261'
p4927
stp4928
a(g241
(dp4929
S'NamedEntityTag'
p4930
g104
sS'CharacterOffsetEnd'
p4931
S'1266'
p4932
sS'Lemma'
p4933
g241
sS'PartOfSpeech'
p4934
g241
sS'CharacterOffsetBegin'
p4935
S'1265'
p4936
stp4937
asa(dp4938
g15
S'(ROOT (S (NP (NNP Chiles) (NN ambassador)) (VP (VBD delivered) (NP (DT a) (JJ formal) (NN protest)) (PP (TO to) (NP (DT the) (NNP Foreign) (NNP Office))) (PP (IN on) (NP (NNP Monday))) (, ,) (S (VP (VBG saying) (SBAR (S (NP (NNP Britain)) (VP (VBZ has) (VP (VBN violated) (NP (NNS Pinochets)) (NP (JJ diplomatic) (NN immunity))))))))) (. .)))'
p4939
sg17
S'Chiles ambassador delivered a formal protest to the Foreign Office on Monday, saying Britain has violated Pinochets diplomatic immunity.'
p4940
sg19
(lp4941
(S'root'
p4942
S'ROOT'
p4943
S'delivered'
p4944
tp4945
a(S'nn'
p4946
S'ambassador'
p4947
S'Chiles'
p4948
tp4949
a(S'nsubj'
p4950
S'delivered'
p4951
S'ambassador'
p4952
tp4953
a(S'det'
p4954
S'protest'
p4955
g1164
tp4956
a(S'amod'
p4957
S'protest'
p4958
S'formal'
p4959
tp4960
a(S'dobj'
p4961
S'delivered'
p4962
S'protest'
p4963
tp4964
a(S'det'
p4965
S'Office'
p4966
S'the'
p4967
tp4968
a(S'nn'
p4969
S'Office'
p4970
S'Foreign'
p4971
tp4972
a(S'prep_to'
p4973
S'delivered'
p4974
S'Office'
p4975
tp4976
a(S'prep_on'
p4977
S'delivered'
p4978
S'Monday'
p4979
tp4980
a(S'partmod'
p4981
S'delivered'
p4982
S'saying'
p4983
tp4984
a(S'nsubj'
p4985
S'violated'
p4986
S'Britain'
p4987
tp4988
a(S'aux'
p4989
S'violated'
p4990
S'has'
p4991
tp4992
a(S'ccomp'
p4993
S'saying'
p4994
S'violated'
p4995
tp4996
a(S'iobj'
p4997
S'violated'
p4998
S'Pinochets'
p4999
tp5000
a(S'amod'
p5001
S'immunity'
p5002
S'diplomatic'
p5003
tp5004
a(S'dobj'
p5005
S'violated'
p5006
S'immunity'
p5007
tp5008
asg57
(lp5009
(g4942
S'ROOT-0'
p5010
S'delivered-3'
p5011
tp5012
a(g4946
S'ambassador-2'
p5013
S'Chiles-1'
p5014
tp5015
a(g4950
S'delivered-3'
p5016
S'ambassador-2'
p5017
tp5018
a(g4954
S'protest-6'
p5019
S'a-4'
p5020
tp5021
a(g4957
S'protest-6'
p5022
S'formal-5'
p5023
tp5024
a(g4961
S'delivered-3'
p5025
S'protest-6'
p5026
tp5027
a(g4965
S'Office-10'
p5028
S'the-8'
p5029
tp5030
a(g4969
S'Office-10'
p5031
S'Foreign-9'
p5032
tp5033
a(g4973
S'delivered-3'
p5034
S'Office-10'
p5035
tp5036
a(g4977
S'delivered-3'
p5037
S'Monday-12'
p5038
tp5039
a(g4981
S'delivered-3'
p5040
S'saying-14'
p5041
tp5042
a(g4985
S'violated-17'
p5043
S'Britain-15'
p5044
tp5045
a(g4989
S'violated-17'
p5046
S'has-16'
p5047
tp5048
a(g4993
S'saying-14'
p5049
S'violated-17'
p5050
tp5051
a(g4997
S'violated-17'
p5052
S'Pinochets-18'
p5053
tp5054
a(g5001
S'immunity-20'
p5055
S'diplomatic-19'
p5056
tp5057
a(g5005
S'violated-17'
p5058
S'immunity-20'
p5059
tp5060
asg86
(lp5061
(S'Chiles'
p5062
(dp5063
S'NamedEntityTag'
p5064
S'PERSON'
p5065
sS'CharacterOffsetEnd'
p5066
S'1273'
p5067
sS'Lemma'
p5068
S'Chiles'
p5069
sS'PartOfSpeech'
p5070
S'NNP'
p5071
sS'CharacterOffsetBegin'
p5072
S'1267'
p5073
stp5074
a(S'ambassador'
p5075
(dp5076
S'NamedEntityTag'
p5077
g104
sS'CharacterOffsetEnd'
p5078
S'1284'
p5079
sS'Lemma'
p5080
S'ambassador'
p5081
sS'PartOfSpeech'
p5082
S'NN'
p5083
sS'CharacterOffsetBegin'
p5084
S'1274'
p5085
stp5086
a(S'delivered'
p5087
(dp5088
S'NamedEntityTag'
p5089
g104
sS'CharacterOffsetEnd'
p5090
S'1294'
p5091
sS'Lemma'
p5092
S'deliver'
p5093
sS'PartOfSpeech'
p5094
S'VBD'
p5095
sS'CharacterOffsetBegin'
p5096
S'1285'
p5097
stp5098
a(g1164
(dp5099
S'NamedEntityTag'
p5100
g104
sS'CharacterOffsetEnd'
p5101
S'1296'
p5102
sS'Lemma'
p5103
g1164
sS'PartOfSpeech'
p5104
S'DT'
p5105
sS'CharacterOffsetBegin'
p5106
S'1295'
p5107
stp5108
a(S'formal'
p5109
(dp5110
S'NamedEntityTag'
p5111
g104
sS'CharacterOffsetEnd'
p5112
S'1303'
p5113
sS'Lemma'
p5114
S'formal'
p5115
sS'PartOfSpeech'
p5116
S'JJ'
p5117
sS'CharacterOffsetBegin'
p5118
S'1297'
p5119
stp5120
a(S'protest'
p5121
(dp5122
S'NamedEntityTag'
p5123
g104
sS'CharacterOffsetEnd'
p5124
S'1311'
p5125
sS'Lemma'
p5126
S'protest'
p5127
sS'PartOfSpeech'
p5128
S'NN'
p5129
sS'CharacterOffsetBegin'
p5130
S'1304'
p5131
stp5132
a(S'to'
p5133
(dp5134
S'NamedEntityTag'
p5135
g104
sS'CharacterOffsetEnd'
p5136
S'1314'
p5137
sS'Lemma'
p5138
S'to'
p5139
sS'PartOfSpeech'
p5140
S'TO'
p5141
sS'CharacterOffsetBegin'
p5142
S'1312'
p5143
stp5144
a(S'the'
p5145
(dp5146
S'NamedEntityTag'
p5147
g104
sS'CharacterOffsetEnd'
p5148
S'1318'
p5149
sS'Lemma'
p5150
S'the'
p5151
sS'PartOfSpeech'
p5152
S'DT'
p5153
sS'CharacterOffsetBegin'
p5154
S'1315'
p5155
stp5156
a(S'Foreign'
p5157
(dp5158
S'NamedEntityTag'
p5159
S'ORGANIZATION'
p5160
sS'CharacterOffsetEnd'
p5161
S'1326'
p5162
sS'Lemma'
p5163
S'Foreign'
p5164
sS'PartOfSpeech'
p5165
S'NNP'
p5166
sS'CharacterOffsetBegin'
p5167
S'1319'
p5168
stp5169
a(S'Office'
p5170
(dp5171
S'NamedEntityTag'
p5172
S'ORGANIZATION'
p5173
sS'CharacterOffsetEnd'
p5174
S'1333'
p5175
sS'Lemma'
p5176
S'Office'
p5177
sS'PartOfSpeech'
p5178
S'NNP'
p5179
sS'CharacterOffsetBegin'
p5180
S'1327'
p5181
stp5182
a(S'on'
p5183
(dp5184
S'NamedEntityTag'
p5185
g104
sS'CharacterOffsetEnd'
p5186
S'1336'
p5187
sS'Lemma'
p5188
S'on'
p5189
sS'PartOfSpeech'
p5190
S'IN'
p5191
sS'CharacterOffsetBegin'
p5192
S'1334'
p5193
stp5194
a(S'Monday'
p5195
(dp5196
S'NormalizedNamedEntityTag'
p5197
S'XXXX-WXX-1'
p5198
sS'Timex'
p5199
S'<TIMEX3 tid="t12" type="DATE" value="XXXX-WXX-1">Monday</TIMEX3>'
p5200
sS'Lemma'
p5201
S'Monday'
p5202
sS'CharacterOffsetEnd'
p5203
S'1343'
p5204
sS'PartOfSpeech'
p5205
S'NNP'
p5206
sS'CharacterOffsetBegin'
p5207
S'1337'
p5208
sS'NamedEntityTag'
p5209
S'DATE'
p5210
stp5211
a(g1634
(dp5212
S'NamedEntityTag'
p5213
g104
sS'CharacterOffsetEnd'
p5214
S'1344'
p5215
sS'Lemma'
p5216
g1634
sS'PartOfSpeech'
p5217
g1634
sS'CharacterOffsetBegin'
p5218
S'1343'
p5219
stp5220
a(S'saying'
p5221
(dp5222
S'NamedEntityTag'
p5223
g104
sS'CharacterOffsetEnd'
p5224
S'1351'
p5225
sS'Lemma'
p5226
S'say'
p5227
sS'PartOfSpeech'
p5228
S'VBG'
p5229
sS'CharacterOffsetBegin'
p5230
S'1345'
p5231
stp5232
a(S'Britain'
p5233
(dp5234
S'NamedEntityTag'
p5235
S'LOCATION'
p5236
sS'CharacterOffsetEnd'
p5237
S'1359'
p5238
sS'Lemma'
p5239
S'Britain'
p5240
sS'PartOfSpeech'
p5241
S'NNP'
p5242
sS'CharacterOffsetBegin'
p5243
S'1352'
p5244
stp5245
a(S'has'
p5246
(dp5247
S'NamedEntityTag'
p5248
g104
sS'CharacterOffsetEnd'
p5249
S'1363'
p5250
sS'Lemma'
p5251
S'have'
p5252
sS'PartOfSpeech'
p5253
S'VBZ'
p5254
sS'CharacterOffsetBegin'
p5255
S'1360'
p5256
stp5257
a(S'violated'
p5258
(dp5259
S'NamedEntityTag'
p5260
g104
sS'CharacterOffsetEnd'
p5261
S'1372'
p5262
sS'Lemma'
p5263
S'violate'
p5264
sS'PartOfSpeech'
p5265
S'VBN'
p5266
sS'CharacterOffsetBegin'
p5267
S'1364'
p5268
stp5269
a(S'Pinochets'
p5270
(dp5271
S'NamedEntityTag'
p5272
g104
sS'CharacterOffsetEnd'
p5273
S'1382'
p5274
sS'Lemma'
p5275
S'pinochet'
p5276
sS'PartOfSpeech'
p5277
S'NNS'
p5278
sS'CharacterOffsetBegin'
p5279
S'1373'
p5280
stp5281
a(S'diplomatic'
p5282
(dp5283
S'NamedEntityTag'
p5284
g104
sS'CharacterOffsetEnd'
p5285
S'1393'
p5286
sS'Lemma'
p5287
S'diplomatic'
p5288
sS'PartOfSpeech'
p5289
S'JJ'
p5290
sS'CharacterOffsetBegin'
p5291
S'1383'
p5292
stp5293
a(S'immunity'
p5294
(dp5295
S'NamedEntityTag'
p5296
g104
sS'CharacterOffsetEnd'
p5297
S'1402'
p5298
sS'Lemma'
p5299
S'immunity'
p5300
sS'PartOfSpeech'
p5301
S'NN'
p5302
sS'CharacterOffsetBegin'
p5303
S'1394'
p5304
stp5305
a(g241
(dp5306
S'NamedEntityTag'
p5307
g104
sS'CharacterOffsetEnd'
p5308
S'1403'
p5309
sS'Lemma'
p5310
g241
sS'PartOfSpeech'
p5311
g241
sS'CharacterOffsetBegin'
p5312
S'1402'
p5313
stp5314
asa(dp5315
g15
S'(ROOT (S (NP (PRP He)) (VP (VP (VBD arrived) (NP-TMP (JJ last) (NN month)) (PP (IN on) (NP (DT a) (JJ diplomatic) (NN passport)))) (CC and) (VP (VBZ is) (ADVP (RB also)) (NP (NP (DT a) (NN senator-for-life)) (PP (IN in) (NP (NNP Chile))))) (, ,) (SBAR (WHNP (WDT which)) (S (VP (VBZ protects) (NP (PRP him)) (PP (IN from) (NP (NN prosecution))) (ADVP (RB there)))))) (. .)))'
p5316
sg17
S'He arrived last month on a diplomatic passport and is also a senator-for-life in Chile, which protects him from prosecution there.'
p5317
sg19
(lp5318
(S'root'
p5319
S'ROOT'
p5320
S'arrived'
p5321
tp5322
a(S'nsubj'
p5323
S'arrived'
p5324
S'He'
p5325
tp5326
a(S'amod'
p5327
S'month'
p5328
S'last'
p5329
tp5330
a(S'tmod'
p5331
S'arrived'
p5332
S'month'
p5333
tp5334
a(S'det'
p5335
S'passport'
p5336
g1164
tp5337
a(S'amod'
p5338
S'passport'
p5339
S'diplomatic'
p5340
tp5341
a(S'prep_on'
p5342
S'arrived'
p5343
S'passport'
p5344
tp5345
a(S'cop'
p5346
S'senator-for-life'
p5347
S'is'
p5348
tp5349
a(S'advmod'
p5350
S'senator-for-life'
p5351
S'also'
p5352
tp5353
a(S'det'
p5354
S'senator-for-life'
p5355
g1164
tp5356
a(S'conj_and'
p5357
S'arrived'
p5358
S'senator-for-life'
p5359
tp5360
a(S'prep_in'
p5361
S'senator-for-life'
p5362
S'Chile'
p5363
tp5364
a(S'nsubj'
p5365
S'protects'
p5366
S'which'
p5367
tp5368
a(S'ccomp'
p5369
S'arrived'
p5370
S'protects'
p5371
tp5372
a(S'dobj'
p5373
S'protects'
p5374
S'him'
p5375
tp5376
a(S'prep_from'
p5377
S'protects'
p5378
S'prosecution'
p5379
tp5380
a(S'advmod'
p5381
S'protects'
p5382
S'there'
p5383
tp5384
asg57
(lp5385
(g5319
S'ROOT-0'
p5386
S'arrived-2'
p5387
tp5388
a(g5323
S'arrived-2'
p5389
S'He-1'
p5390
tp5391
a(g5327
S'month-4'
p5392
S'last-3'
p5393
tp5394
a(g5331
S'arrived-2'
p5395
S'month-4'
p5396
tp5397
a(g5335
S'passport-8'
p5398
S'a-6'
p5399
tp5400
a(g5338
S'passport-8'
p5401
S'diplomatic-7'
p5402
tp5403
a(g5342
S'arrived-2'
p5404
S'passport-8'
p5405
tp5406
a(g5346
S'senator-for-life-13'
p5407
S'is-10'
p5408
tp5409
a(g5350
S'senator-for-life-13'
p5410
S'also-11'
p5411
tp5412
a(g5354
S'senator-for-life-13'
p5413
S'a-12'
p5414
tp5415
a(g5357
S'arrived-2'
p5416
S'senator-for-life-13'
p5417
tp5418
a(g5361
S'senator-for-life-13'
p5419
S'Chile-15'
p5420
tp5421
a(g5365
S'protects-18'
p5422
S'which-17'
p5423
tp5424
a(g5369
S'arrived-2'
p5425
S'protects-18'
p5426
tp5427
a(g5373
S'protects-18'
p5428
S'him-19'
p5429
tp5430
a(g5377
S'protects-18'
p5431
S'prosecution-21'
p5432
tp5433
a(g5381
S'protects-18'
p5434
S'there-22'
p5435
tp5436
asg86
(lp5437
(S'He'
p5438
(dp5439
S'NamedEntityTag'
p5440
g104
sS'CharacterOffsetEnd'
p5441
S'1406'
p5442
sS'Lemma'
p5443
S'he'
p5444
sS'PartOfSpeech'
p5445
S'PRP'
p5446
sS'CharacterOffsetBegin'
p5447
S'1404'
p5448
stp5449
a(S'arrived'
p5450
(dp5451
S'NamedEntityTag'
p5452
g104
sS'CharacterOffsetEnd'
p5453
S'1414'
p5454
sS'Lemma'
p5455
S'arrive'
p5456
sS'PartOfSpeech'
p5457
S'VBD'
p5458
sS'CharacterOffsetBegin'
p5459
S'1407'
p5460
stp5461
a(S'last'
p5462
(dp5463
S'NormalizedNamedEntityTag'
p5464
S'THIS'
p5465
sS'Timex'
p5466
S'<TIMEX3 alt_value="THIS P1M OFFSET P-1M" anchorTimeID="t14" temporalFunction="true" tid="t13" type="DATE" valueFromFunction="tf1">last month</TIMEX3>'
p5467
sS'Lemma'
p5468
S'last'
p5469
sS'CharacterOffsetEnd'
p5470
S'1419'
p5471
sS'PartOfSpeech'
p5472
S'JJ'
p5473
sS'CharacterOffsetBegin'
p5474
S'1415'
p5475
sS'NamedEntityTag'
p5476
S'DATE'
p5477
stp5478
a(S'month'
p5479
(dp5480
S'NormalizedNamedEntityTag'
p5481
S'THIS'
p5482
sS'Timex'
p5483
S'<TIMEX3 alt_value="THIS P1M OFFSET P-1M" anchorTimeID="t14" temporalFunction="true" tid="t13" type="DATE" valueFromFunction="tf1">last month</TIMEX3>'
p5484
sS'Lemma'
p5485
S'month'
p5486
sS'CharacterOffsetEnd'
p5487
S'1425'
p5488
sS'PartOfSpeech'
p5489
S'NN'
p5490
sS'CharacterOffsetBegin'
p5491
S'1420'
p5492
sS'NamedEntityTag'
p5493
S'DATE'
p5494
stp5495
a(S'on'
p5496
(dp5497
S'NamedEntityTag'
p5498
g104
sS'CharacterOffsetEnd'
p5499
S'1428'
p5500
sS'Lemma'
p5501
S'on'
p5502
sS'PartOfSpeech'
p5503
S'IN'
p5504
sS'CharacterOffsetBegin'
p5505
S'1426'
p5506
stp5507
a(g1164
(dp5508
S'NamedEntityTag'
p5509
g104
sS'CharacterOffsetEnd'
p5510
S'1430'
p5511
sS'Lemma'
p5512
g1164
sS'PartOfSpeech'
p5513
S'DT'
p5514
sS'CharacterOffsetBegin'
p5515
S'1429'
p5516
stp5517
a(S'diplomatic'
p5518
(dp5519
S'NamedEntityTag'
p5520
g104
sS'CharacterOffsetEnd'
p5521
S'1441'
p5522
sS'Lemma'
p5523
S'diplomatic'
p5524
sS'PartOfSpeech'
p5525
S'JJ'
p5526
sS'CharacterOffsetBegin'
p5527
S'1431'
p5528
stp5529
a(S'passport'
p5530
(dp5531
S'NamedEntityTag'
p5532
g104
sS'CharacterOffsetEnd'
p5533
S'1450'
p5534
sS'Lemma'
p5535
S'passport'
p5536
sS'PartOfSpeech'
p5537
S'NN'
p5538
sS'CharacterOffsetBegin'
p5539
S'1442'
p5540
stp5541
a(S'and'
p5542
(dp5543
S'NamedEntityTag'
p5544
g104
sS'CharacterOffsetEnd'
p5545
S'1454'
p5546
sS'Lemma'
p5547
S'and'
p5548
sS'PartOfSpeech'
p5549
S'CC'
p5550
sS'CharacterOffsetBegin'
p5551
S'1451'
p5552
stp5553
a(S'is'
p5554
(dp5555
S'NamedEntityTag'
p5556
g104
sS'CharacterOffsetEnd'
p5557
S'1457'
p5558
sS'Lemma'
p5559
S'be'
p5560
sS'PartOfSpeech'
p5561
S'VBZ'
p5562
sS'CharacterOffsetBegin'
p5563
S'1455'
p5564
stp5565
a(S'also'
p5566
(dp5567
S'NamedEntityTag'
p5568
g104
sS'CharacterOffsetEnd'
p5569
S'1462'
p5570
sS'Lemma'
p5571
S'also'
p5572
sS'PartOfSpeech'
p5573
S'RB'
p5574
sS'CharacterOffsetBegin'
p5575
S'1458'
p5576
stp5577
a(g1164
(dp5578
S'NamedEntityTag'
p5579
g104
sS'CharacterOffsetEnd'
p5580
S'1464'
p5581
sS'Lemma'
p5582
g1164
sS'PartOfSpeech'
p5583
S'DT'
p5584
sS'CharacterOffsetBegin'
p5585
S'1463'
p5586
stp5587
a(S'senator-for-life'
p5588
(dp5589
S'NamedEntityTag'
p5590
g104
sS'CharacterOffsetEnd'
p5591
S'1481'
p5592
sS'Lemma'
p5593
S'senator-for-life'
p5594
sS'PartOfSpeech'
p5595
S'NN'
p5596
sS'CharacterOffsetBegin'
p5597
S'1465'
p5598
stp5599
a(S'in'
p5600
(dp5601
S'NamedEntityTag'
p5602
g104
sS'CharacterOffsetEnd'
p5603
S'1484'
p5604
sS'Lemma'
p5605
S'in'
p5606
sS'PartOfSpeech'
p5607
S'IN'
p5608
sS'CharacterOffsetBegin'
p5609
S'1482'
p5610
stp5611
a(S'Chile'
p5612
(dp5613
S'NamedEntityTag'
p5614
S'LOCATION'
p5615
sS'CharacterOffsetEnd'
p5616
S'1490'
p5617
sS'Lemma'
p5618
S'Chile'
p5619
sS'PartOfSpeech'
p5620
S'NNP'
p5621
sS'CharacterOffsetBegin'
p5622
S'1485'
p5623
stp5624
a(g1634
(dp5625
S'NamedEntityTag'
p5626
g104
sS'CharacterOffsetEnd'
p5627
S'1491'
p5628
sS'Lemma'
p5629
g1634
sS'PartOfSpeech'
p5630
g1634
sS'CharacterOffsetBegin'
p5631
S'1490'
p5632
stp5633
a(S'which'
p5634
(dp5635
S'NamedEntityTag'
p5636
g104
sS'CharacterOffsetEnd'
p5637
S'1497'
p5638
sS'Lemma'
p5639
S'which'
p5640
sS'PartOfSpeech'
p5641
S'WDT'
p5642
sS'CharacterOffsetBegin'
p5643
S'1492'
p5644
stp5645
a(S'protects'
p5646
(dp5647
S'NamedEntityTag'
p5648
g104
sS'CharacterOffsetEnd'
p5649
S'1506'
p5650
sS'Lemma'
p5651
S'protect'
p5652
sS'PartOfSpeech'
p5653
S'VBZ'
p5654
sS'CharacterOffsetBegin'
p5655
S'1498'
p5656
stp5657
a(S'him'
p5658
(dp5659
S'NamedEntityTag'
p5660
g104
sS'CharacterOffsetEnd'
p5661
S'1510'
p5662
sS'Lemma'
p5663
S'he'
p5664
sS'PartOfSpeech'
p5665
S'PRP'
p5666
sS'CharacterOffsetBegin'
p5667
S'1507'
p5668
stp5669
a(S'from'
p5670
(dp5671
S'NamedEntityTag'
p5672
g104
sS'CharacterOffsetEnd'
p5673
S'1515'
p5674
sS'Lemma'
p5675
S'from'
p5676
sS'PartOfSpeech'
p5677
S'IN'
p5678
sS'CharacterOffsetBegin'
p5679
S'1511'
p5680
stp5681
a(S'prosecution'
p5682
(dp5683
S'NamedEntityTag'
p5684
g104
sS'CharacterOffsetEnd'
p5685
S'1527'
p5686
sS'Lemma'
p5687
S'prosecution'
p5688
sS'PartOfSpeech'
p5689
S'NN'
p5690
sS'CharacterOffsetBegin'
p5691
S'1516'
p5692
stp5693
a(S'there'
p5694
(dp5695
S'NamedEntityTag'
p5696
g104
sS'CharacterOffsetEnd'
p5697
S'1533'
p5698
sS'Lemma'
p5699
S'there'
p5700
sS'PartOfSpeech'
p5701
S'RB'
p5702
sS'CharacterOffsetBegin'
p5703
S'1528'
p5704
stp5705
a(g241
(dp5706
S'NamedEntityTag'
p5707
g104
sS'CharacterOffsetEnd'
p5708
S'1534'
p5709
sS'Lemma'
p5710
g241
sS'PartOfSpeech'
p5711
g241
sS'CharacterOffsetBegin'
p5712
S'1533'
p5713
stp5714
asa(dp5715
g15
S'(ROOT (S (NP (NP (NNS Pinochets)) (ADJP (JJ 17-year-rule))) (VP (VBD was) (VP (VBN marked) (PP (IN by) (NP (S (VP (VB torture))) (CC and) (NP (NP (JJ other) (JJ human) (NNS rights) (NNS abuses)) (PP (IN against) (NP (JJ political) (NNS opponents))) (SBAR (WHPP (IN in) (WHNP (WDT which))) (PRN (, ,) (S (NP (DT the) (JJ Chilean) (NN government)) (VP (VBZ has) (VP (VBN said)))) (, ,)) (S (NP (CD 4,299) (NNS people)) (VP (VBD were) (VP (VBN killed) (CC or) (VBN vanished)))))))))) (. .)))'
p5716
sg17
S'Pinochets 17-year-rule was marked by torture and other human rights abuses against political opponents in which, the Chilean government has said, 4,299 people were killed or vanished.'
p5717
sg19
(lp5718
(S'root'
p5719
S'ROOT'
p5720
S'marked'
p5721
tp5722
a(S'nsubjpass'
p5723
S'marked'
p5724
S'Pinochets'
p5725
tp5726
a(S'amod'
p5727
S'Pinochets'
p5728
S'17-year-rule'
p5729
tp5730
a(S'auxpass'
p5731
S'marked'
p5732
S'was'
p5733
tp5734
a(S'agent'
p5735
S'marked'
p5736
S'torture'
p5737
tp5738
a(S'amod'
p5739
S'abuses'
p5740
S'other'
p5741
tp5742
a(S'amod'
p5743
S'abuses'
p5744
S'human'
p5745
tp5746
a(S'nn'
p5747
S'abuses'
p5748
S'rights'
p5749
tp5750
a(S'conj_and'
p5751
S'torture'
p5752
S'abuses'
p5753
tp5754
a(S'amod'
p5755
S'opponents'
p5756
S'political'
p5757
tp5758
a(S'prep_against'
p5759
S'abuses'
p5760
S'opponents'
p5761
tp5762
a(S'prep_in'
p5763
S'killed'
p5764
S'which'
p5765
tp5766
a(S'det'
p5767
S'government'
p5768
S'the'
p5769
tp5770
a(S'amod'
p5771
S'government'
p5772
S'Chilean'
p5773
tp5774
a(S'nsubj'
p5775
S'said'
p5776
S'government'
p5777
tp5778
a(S'aux'
p5779
S'said'
p5780
S'has'
p5781
tp5782
a(S'dep'
p5783
S'killed'
p5784
S'said'
p5785
tp5786
a(S'num'
p5787
S'people'
p5788
S'4,299'
p5789
tp5790
a(S'nsubjpass'
p5791
S'killed'
p5792
S'people'
p5793
tp5794
a(S'auxpass'
p5795
S'killed'
p5796
S'were'
p5797
tp5798
a(S'rcmod'
p5799
S'abuses'
p5800
S'killed'
p5801
tp5802
a(S'conj_or'
p5803
S'killed'
p5804
S'vanished'
p5805
tp5806
asg57
(lp5807
(g5719
S'ROOT-0'
p5808
S'marked-4'
p5809
tp5810
a(g5723
S'marked-4'
p5811
S'Pinochets-1'
p5812
tp5813
a(g5727
S'Pinochets-1'
p5814
S'17-year-rule-2'
p5815
tp5816
a(g5731
S'marked-4'
p5817
S'was-3'
p5818
tp5819
a(g5735
S'marked-4'
p5820
S'torture-6'
p5821
tp5822
a(g5739
S'abuses-11'
p5823
S'other-8'
p5824
tp5825
a(g5743
S'abuses-11'
p5826
S'human-9'
p5827
tp5828
a(g5747
S'abuses-11'
p5829
S'rights-10'
p5830
tp5831
a(g5751
S'torture-6'
p5832
S'abuses-11'
p5833
tp5834
a(g5755
S'opponents-14'
p5835
S'political-13'
p5836
tp5837
a(g5759
S'abuses-11'
p5838
S'opponents-14'
p5839
tp5840
a(g5763
S'killed-27'
p5841
S'which-16'
p5842
tp5843
a(g5767
S'government-20'
p5844
S'the-18'
p5845
tp5846
a(g5771
S'government-20'
p5847
S'Chilean-19'
p5848
tp5849
a(g5775
S'said-22'
p5850
S'government-20'
p5851
tp5852
a(g5779
S'said-22'
p5853
S'has-21'
p5854
tp5855
a(g5783
S'killed-27'
p5856
S'said-22'
p5857
tp5858
a(g5787
S'people-25'
p5859
S'4,299-24'
p5860
tp5861
a(g5791
S'killed-27'
p5862
S'people-25'
p5863
tp5864
a(g5795
S'killed-27'
p5865
S'were-26'
p5866
tp5867
a(g5799
S'abuses-11'
p5868
S'killed-27'
p5869
tp5870
a(g5803
S'killed-27'
p5871
S'vanished-29'
p5872
tp5873
asg86
(lp5874
(S'Pinochets'
p5875
(dp5876
S'NamedEntityTag'
p5877
g104
sS'CharacterOffsetEnd'
p5878
S'1544'
p5879
sS'Lemma'
p5880
S'pinochet'
p5881
sS'PartOfSpeech'
p5882
S'NNS'
p5883
sS'CharacterOffsetBegin'
p5884
S'1535'
p5885
stp5886
a(S'17-year-rule'
p5887
(dp5888
S'NormalizedNamedEntityTag'
p5889
S'P17Y'
p5890
sS'Timex'
p5891
S'<TIMEX3 tid="t15" type="DURATION" value="P17Y">17-year</TIMEX3>'
p5892
sS'Lemma'
p5893
S'17-year-rule'
p5894
sS'CharacterOffsetEnd'
p5895
S'1557'
p5896
sS'PartOfSpeech'
p5897
S'JJ'
p5898
sS'CharacterOffsetBegin'
p5899
S'1545'
p5900
sS'NamedEntityTag'
p5901
S'DURATION'
p5902
stp5903
a(S'was'
p5904
(dp5905
S'NamedEntityTag'
p5906
g104
sS'CharacterOffsetEnd'
p5907
S'1561'
p5908
sS'Lemma'
p5909
S'be'
p5910
sS'PartOfSpeech'
p5911
S'VBD'
p5912
sS'CharacterOffsetBegin'
p5913
S'1558'
p5914
stp5915
a(S'marked'
p5916
(dp5917
S'NamedEntityTag'
p5918
g104
sS'CharacterOffsetEnd'
p5919
S'1568'
p5920
sS'Lemma'
p5921
S'mark'
p5922
sS'PartOfSpeech'
p5923
S'VBN'
p5924
sS'CharacterOffsetBegin'
p5925
S'1562'
p5926
stp5927
a(S'by'
p5928
(dp5929
S'NamedEntityTag'
p5930
g104
sS'CharacterOffsetEnd'
p5931
S'1571'
p5932
sS'Lemma'
p5933
S'by'
p5934
sS'PartOfSpeech'
p5935
S'IN'
p5936
sS'CharacterOffsetBegin'
p5937
S'1569'
p5938
stp5939
a(S'torture'
p5940
(dp5941
S'NamedEntityTag'
p5942
g104
sS'CharacterOffsetEnd'
p5943
S'1579'
p5944
sS'Lemma'
p5945
S'torture'
p5946
sS'PartOfSpeech'
p5947
S'VB'
p5948
sS'CharacterOffsetBegin'
p5949
S'1572'
p5950
stp5951
a(S'and'
p5952
(dp5953
S'NamedEntityTag'
p5954
g104
sS'CharacterOffsetEnd'
p5955
S'1583'
p5956
sS'Lemma'
p5957
S'and'
p5958
sS'PartOfSpeech'
p5959
S'CC'
p5960
sS'CharacterOffsetBegin'
p5961
S'1580'
p5962
stp5963
a(S'other'
p5964
(dp5965
S'NamedEntityTag'
p5966
g104
sS'CharacterOffsetEnd'
p5967
S'1589'
p5968
sS'Lemma'
p5969
S'other'
p5970
sS'PartOfSpeech'
p5971
S'JJ'
p5972
sS'CharacterOffsetBegin'
p5973
S'1584'
p5974
stp5975
a(S'human'
p5976
(dp5977
S'NamedEntityTag'
p5978
g104
sS'CharacterOffsetEnd'
p5979
S'1595'
p5980
sS'Lemma'
p5981
S'human'
p5982
sS'PartOfSpeech'
p5983
S'JJ'
p5984
sS'CharacterOffsetBegin'
p5985
S'1590'
p5986
stp5987
a(S'rights'
p5988
(dp5989
S'NamedEntityTag'
p5990
g104
sS'CharacterOffsetEnd'
p5991
S'1602'
p5992
sS'Lemma'
p5993
S'rights'
p5994
sS'PartOfSpeech'
p5995
S'NNS'
p5996
sS'CharacterOffsetBegin'
p5997
S'1596'
p5998
stp5999
a(S'abuses'
p6000
(dp6001
S'NamedEntityTag'
p6002
g104
sS'CharacterOffsetEnd'
p6003
S'1609'
p6004
sS'Lemma'
p6005
S'abuse'
p6006
sS'PartOfSpeech'
p6007
S'NNS'
p6008
sS'CharacterOffsetBegin'
p6009
S'1603'
p6010
stp6011
a(S'against'
p6012
(dp6013
S'NamedEntityTag'
p6014
g104
sS'CharacterOffsetEnd'
p6015
S'1617'
p6016
sS'Lemma'
p6017
S'against'
p6018
sS'PartOfSpeech'
p6019
S'IN'
p6020
sS'CharacterOffsetBegin'
p6021
S'1610'
p6022
stp6023
a(S'political'
p6024
(dp6025
S'NamedEntityTag'
p6026
g104
sS'CharacterOffsetEnd'
p6027
S'1627'
p6028
sS'Lemma'
p6029
S'political'
p6030
sS'PartOfSpeech'
p6031
S'JJ'
p6032
sS'CharacterOffsetBegin'
p6033
S'1618'
p6034
stp6035
a(S'opponents'
p6036
(dp6037
S'NamedEntityTag'
p6038
g104
sS'CharacterOffsetEnd'
p6039
S'1637'
p6040
sS'Lemma'
p6041
S'opponent'
p6042
sS'PartOfSpeech'
p6043
S'NNS'
p6044
sS'CharacterOffsetBegin'
p6045
S'1628'
p6046
stp6047
a(S'in'
p6048
(dp6049
S'NamedEntityTag'
p6050
g104
sS'CharacterOffsetEnd'
p6051
S'1640'
p6052
sS'Lemma'
p6053
S'in'
p6054
sS'PartOfSpeech'
p6055
S'IN'
p6056
sS'CharacterOffsetBegin'
p6057
S'1638'
p6058
stp6059
a(S'which'
p6060
(dp6061
S'NamedEntityTag'
p6062
g104
sS'CharacterOffsetEnd'
p6063
S'1646'
p6064
sS'Lemma'
p6065
S'which'
p6066
sS'PartOfSpeech'
p6067
S'WDT'
p6068
sS'CharacterOffsetBegin'
p6069
S'1641'
p6070
stp6071
a(g1634
(dp6072
S'NamedEntityTag'
p6073
g104
sS'CharacterOffsetEnd'
p6074
S'1647'
p6075
sS'Lemma'
p6076
g1634
sS'PartOfSpeech'
p6077
g1634
sS'CharacterOffsetBegin'
p6078
S'1646'
p6079
stp6080
a(S'the'
p6081
(dp6082
S'NamedEntityTag'
p6083
g104
sS'CharacterOffsetEnd'
p6084
S'1651'
p6085
sS'Lemma'
p6086
S'the'
p6087
sS'PartOfSpeech'
p6088
S'DT'
p6089
sS'CharacterOffsetBegin'
p6090
S'1648'
p6091
stp6092
a(S'Chilean'
p6093
(dp6094
S'NamedEntityTag'
p6095
S'MISC'
p6096
sS'CharacterOffsetEnd'
p6097
S'1659'
p6098
sS'Lemma'
p6099
S'chilean'
p6100
sS'PartOfSpeech'
p6101
S'JJ'
p6102
sS'CharacterOffsetBegin'
p6103
S'1652'
p6104
stp6105
a(S'government'
p6106
(dp6107
S'NamedEntityTag'
p6108
g104
sS'CharacterOffsetEnd'
p6109
S'1670'
p6110
sS'Lemma'
p6111
S'government'
p6112
sS'PartOfSpeech'
p6113
S'NN'
p6114
sS'CharacterOffsetBegin'
p6115
S'1660'
p6116
stp6117
a(S'has'
p6118
(dp6119
S'NamedEntityTag'
p6120
g104
sS'CharacterOffsetEnd'
p6121
S'1674'
p6122
sS'Lemma'
p6123
S'have'
p6124
sS'PartOfSpeech'
p6125
S'VBZ'
p6126
sS'CharacterOffsetBegin'
p6127
S'1671'
p6128
stp6129
a(S'said'
p6130
(dp6131
S'NamedEntityTag'
p6132
g104
sS'CharacterOffsetEnd'
p6133
S'1679'
p6134
sS'Lemma'
p6135
S'say'
p6136
sS'PartOfSpeech'
p6137
S'VBN'
p6138
sS'CharacterOffsetBegin'
p6139
S'1675'
p6140
stp6141
a(g1634
(dp6142
S'NamedEntityTag'
p6143
g104
sS'CharacterOffsetEnd'
p6144
S'1680'
p6145
sS'Lemma'
p6146
g1634
sS'PartOfSpeech'
p6147
g1634
sS'CharacterOffsetBegin'
p6148
S'1679'
p6149
stp6150
a(S'4,299'
p6151
(dp6152
S'NormalizedNamedEntityTag'
p6153
S'4299.0'
p6154
sS'Lemma'
p6155
S'4,299'
p6156
sS'CharacterOffsetEnd'
p6157
S'1686'
p6158
sS'PartOfSpeech'
p6159
S'CD'
p6160
sS'CharacterOffsetBegin'
p6161
S'1681'
p6162
sS'NamedEntityTag'
p6163
S'NUMBER'
p6164
stp6165
a(S'people'
p6166
(dp6167
S'NamedEntityTag'
p6168
g104
sS'CharacterOffsetEnd'
p6169
S'1693'
p6170
sS'Lemma'
p6171
S'people'
p6172
sS'PartOfSpeech'
p6173
S'NNS'
p6174
sS'CharacterOffsetBegin'
p6175
S'1687'
p6176
stp6177
a(S'were'
p6178
(dp6179
S'NamedEntityTag'
p6180
g104
sS'CharacterOffsetEnd'
p6181
S'1698'
p6182
sS'Lemma'
p6183
S'be'
p6184
sS'PartOfSpeech'
p6185
S'VBD'
p6186
sS'CharacterOffsetBegin'
p6187
S'1694'
p6188
stp6189
a(S'killed'
p6190
(dp6191
S'NamedEntityTag'
p6192
g104
sS'CharacterOffsetEnd'
p6193
S'1705'
p6194
sS'Lemma'
p6195
S'kill'
p6196
sS'PartOfSpeech'
p6197
S'VBN'
p6198
sS'CharacterOffsetBegin'
p6199
S'1699'
p6200
stp6201
a(S'or'
p6202
(dp6203
S'NamedEntityTag'
p6204
g104
sS'CharacterOffsetEnd'
p6205
S'1708'
p6206
sS'Lemma'
p6207
S'or'
p6208
sS'PartOfSpeech'
p6209
S'CC'
p6210
sS'CharacterOffsetBegin'
p6211
S'1706'
p6212
stp6213
a(S'vanished'
p6214
(dp6215
S'NamedEntityTag'
p6216
g104
sS'CharacterOffsetEnd'
p6217
S'1717'
p6218
sS'Lemma'
p6219
S'vanish'
p6220
sS'PartOfSpeech'
p6221
S'VBN'
p6222
sS'CharacterOffsetBegin'
p6223
S'1709'
p6224
stp6225
a(g241
(dp6226
S'NamedEntityTag'
p6227
g104
sS'CharacterOffsetEnd'
p6228
S'1718'
p6229
sS'Lemma'
p6230
g241
sS'PartOfSpeech'
p6231
g241
sS'CharacterOffsetBegin'
p6232
S'1717'
p6233
stp6234
asa(dp6235
g15
S'(ROOT (S (NP (PRP He)) (VP (VBD remained) (NP (JJ Chilean) (NN army) (NN commander-in-chief)) (PP (IN until) (NP (NNP March)))) (. .)))'
p6236
sg17
S'He remained Chilean army commander-in-chief until March.'
p6237
sg19
(lp6238
(S'root'
p6239
S'ROOT'
p6240
S'commander-in-chief'
p6241
tp6242
a(S'nsubj'
p6243
S'commander-in-chief'
p6244
S'He'
p6245
tp6246
a(S'cop'
p6247
S'commander-in-chief'
p6248
S'remained'
p6249
tp6250
a(S'amod'
p6251
S'commander-in-chief'
p6252
S'Chilean'
p6253
tp6254
a(S'nn'
p6255
S'commander-in-chief'
p6256
S'army'
p6257
tp6258
a(S'prep_until'
p6259
S'commander-in-chief'
p6260
S'March'
p6261
tp6262
asg57
(lp6263
(g6239
S'ROOT-0'
p6264
S'commander-in-chief-5'
p6265
tp6266
a(g6243
S'commander-in-chief-5'
p6267
S'He-1'
p6268
tp6269
a(g6247
S'commander-in-chief-5'
p6270
S'remained-2'
p6271
tp6272
a(g6251
S'commander-in-chief-5'
p6273
S'Chilean-3'
p6274
tp6275
a(g6255
S'commander-in-chief-5'
p6276
S'army-4'
p6277
tp6278
a(g6259
S'commander-in-chief-5'
p6279
S'March-7'
p6280
tp6281
asg86
(lp6282
(S'He'
p6283
(dp6284
S'NamedEntityTag'
p6285
g104
sS'CharacterOffsetEnd'
p6286
S'1721'
p6287
sS'Lemma'
p6288
S'he'
p6289
sS'PartOfSpeech'
p6290
S'PRP'
p6291
sS'CharacterOffsetBegin'
p6292
S'1719'
p6293
stp6294
a(S'remained'
p6295
(dp6296
S'NamedEntityTag'
p6297
g104
sS'CharacterOffsetEnd'
p6298
S'1730'
p6299
sS'Lemma'
p6300
S'remain'
p6301
sS'PartOfSpeech'
p6302
S'VBD'
p6303
sS'CharacterOffsetBegin'
p6304
S'1722'
p6305
stp6306
a(S'Chilean'
p6307
(dp6308
S'NamedEntityTag'
p6309
S'MISC'
p6310
sS'CharacterOffsetEnd'
p6311
S'1738'
p6312
sS'Lemma'
p6313
S'chilean'
p6314
sS'PartOfSpeech'
p6315
S'JJ'
p6316
sS'CharacterOffsetBegin'
p6317
S'1731'
p6318
stp6319
a(S'army'
p6320
(dp6321
S'NamedEntityTag'
p6322
g104
sS'CharacterOffsetEnd'
p6323
S'1743'
p6324
sS'Lemma'
p6325
S'army'
p6326
sS'PartOfSpeech'
p6327
S'NN'
p6328
sS'CharacterOffsetBegin'
p6329
S'1739'
p6330
stp6331
a(S'commander-in-chief'
p6332
(dp6333
S'NamedEntityTag'
p6334
g104
sS'CharacterOffsetEnd'
p6335
S'1762'
p6336
sS'Lemma'
p6337
S'commander-in-chief'
p6338
sS'PartOfSpeech'
p6339
S'NN'
p6340
sS'CharacterOffsetBegin'
p6341
S'1744'
p6342
stp6343
a(S'until'
p6344
(dp6345
S'NamedEntityTag'
p6346
g104
sS'CharacterOffsetEnd'
p6347
S'1768'
p6348
sS'Lemma'
p6349
S'until'
p6350
sS'PartOfSpeech'
p6351
S'IN'
p6352
sS'CharacterOffsetBegin'
p6353
S'1763'
p6354
stp6355
a(S'March'
p6356
(dp6357
S'NormalizedNamedEntityTag'
p6358
S'XXXX-03'
p6359
sS'Timex'
p6360
S'<TIMEX3 tid="t16" type="DATE" value="XXXX-03">March</TIMEX3>'
p6361
sS'Lemma'
p6362
S'March'
p6363
sS'CharacterOffsetEnd'
p6364
S'1774'
p6365
sS'PartOfSpeech'
p6366
S'NNP'
p6367
sS'CharacterOffsetBegin'
p6368
S'1769'
p6369
sS'NamedEntityTag'
p6370
S'DATE'
p6371
stp6372
a(g241
(dp6373
S'NamedEntityTag'
p6374
g104
sS'CharacterOffsetEnd'
p6375
S'1775'
p6376
sS'Lemma'
p6377
g241
sS'PartOfSpeech'
p6378
g241
sS'CharacterOffsetBegin'
p6379
S'1774'
p6380
stp6381
asa(dp6382
g15
S'(ROOT (S (NP (DT The) (NN magistrate)) (VP (VBD broadened) (NP (PRP$ his) (NNS charges)) (NP-TMP (NNP Monday)) (S (VP (TO to) (VP (VB include) (NP (NP (NP (NNS killings)) (PP (IN of) (NP (NNPS Chileans)))) (CONJP (RB as) (RB well) (IN as)) (NP (NP (NNPS Spaniards)) (, ,) (CC and) (NP (NN genocide) (NN _)))) (PP (IN for) (SBAR (WHNP (WDT which)) (S (NP (EX there)) (VP (VBZ is) (NP (DT no) (JJ diplomatic) (NN immunity)))))))))) (. .)))'
p6383
sg17
S'The magistrate broadened his charges Monday to include killings of Chileans as well as Spaniards, and genocide _ for which there is no diplomatic immunity.'
p6384
sg19
(lp6385
(S'root'
p6386
S'ROOT'
p6387
S'broadened'
p6388
tp6389
a(S'det'
p6390
S'magistrate'
p6391
S'The'
p6392
tp6393
a(S'nsubj'
p6394
S'broadened'
p6395
S'magistrate'
p6396
tp6397
a(S'poss'
p6398
S'charges'
p6399
S'his'
p6400
tp6401
a(S'dobj'
p6402
S'broadened'
p6403
S'charges'
p6404
tp6405
a(S'tmod'
p6406
S'broadened'
p6407
S'Monday'
p6408
tp6409
a(S'aux'
p6410
S'include'
p6411
S'to'
p6412
tp6413
a(S'xcomp'
p6414
S'broadened'
p6415
S'include'
p6416
tp6417
a(S'dobj'
p6418
S'include'
p6419
S'killings'
p6420
tp6421
a(S'prep_of'
p6422
S'killings'
p6423
S'Chileans'
p6424
tp6425
a(S'conj_and'
p6426
S'killings'
p6427
S'Spaniards'
p6428
tp6429
a(S'nn'
p6430
S'_'
p6431
S'genocide'
p6432
tp6433
a(S'conj_and'
p6434
S'Spaniards'
p6435
g6431
tp6436
a(S'dobj'
p6437
S'is'
p6438
S'which'
p6439
tp6440
a(S'expl'
p6441
S'is'
p6442
S'there'
p6443
tp6444
a(S'prepc_for'
p6445
S'include'
p6446
S'is'
p6447
tp6448
a(S'det'
p6449
S'immunity'
p6450
S'no'
p6451
tp6452
a(S'amod'
p6453
S'immunity'
p6454
S'diplomatic'
p6455
tp6456
a(S'nsubj'
p6457
S'is'
p6458
S'immunity'
p6459
tp6460
asg57
(lp6461
(g6386
S'ROOT-0'
p6462
S'broadened-3'
p6463
tp6464
a(g6390
S'magistrate-2'
p6465
S'The-1'
p6466
tp6467
a(g6394
S'broadened-3'
p6468
S'magistrate-2'
p6469
tp6470
a(g6398
S'charges-5'
p6471
S'his-4'
p6472
tp6473
a(g6402
S'broadened-3'
p6474
S'charges-5'
p6475
tp6476
a(g6406
S'broadened-3'
p6477
S'Monday-6'
p6478
tp6479
a(g6410
S'include-8'
p6480
S'to-7'
p6481
tp6482
a(g6414
S'broadened-3'
p6483
S'include-8'
p6484
tp6485
a(g6418
S'include-8'
p6486
S'killings-9'
p6487
tp6488
a(g6422
S'killings-9'
p6489
S'Chileans-11'
p6490
tp6491
a(g6426
S'killings-9'
p6492
S'Spaniards-15'
p6493
tp6494
a(g6430
S'_-19'
p6495
S'genocide-18'
p6496
tp6497
a(g6434
S'Spaniards-15'
p6498
S'_-19'
p6499
tp6500
a(g6437
S'is-23'
p6501
S'which-21'
p6502
tp6503
a(g6441
S'is-23'
p6504
S'there-22'
p6505
tp6506
a(g6445
S'include-8'
p6507
S'is-23'
p6508
tp6509
a(g6449
S'immunity-26'
p6510
S'no-24'
p6511
tp6512
a(g6453
S'immunity-26'
p6513
S'diplomatic-25'
p6514
tp6515
a(g6457
S'is-23'
p6516
S'immunity-26'
p6517
tp6518
asg86
(lp6519
(S'The'
p6520
(dp6521
S'NamedEntityTag'
p6522
g104
sS'CharacterOffsetEnd'
p6523
S'1779'
p6524
sS'Lemma'
p6525
S'the'
p6526
sS'PartOfSpeech'
p6527
S'DT'
p6528
sS'CharacterOffsetBegin'
p6529
S'1776'
p6530
stp6531
a(S'magistrate'
p6532
(dp6533
S'NamedEntityTag'
p6534
g104
sS'CharacterOffsetEnd'
p6535
S'1790'
p6536
sS'Lemma'
p6537
S'magistrate'
p6538
sS'PartOfSpeech'
p6539
S'NN'
p6540
sS'CharacterOffsetBegin'
p6541
S'1780'
p6542
stp6543
a(S'broadened'
p6544
(dp6545
S'NamedEntityTag'
p6546
g104
sS'CharacterOffsetEnd'
p6547
S'1800'
p6548
sS'Lemma'
p6549
S'broaden'
p6550
sS'PartOfSpeech'
p6551
S'VBD'
p6552
sS'CharacterOffsetBegin'
p6553
S'1791'
p6554
stp6555
a(S'his'
p6556
(dp6557
S'NamedEntityTag'
p6558
g104
sS'CharacterOffsetEnd'
p6559
S'1804'
p6560
sS'Lemma'
p6561
S'he'
p6562
sS'PartOfSpeech'
p6563
S'PRP$'
p6564
sS'CharacterOffsetBegin'
p6565
S'1801'
p6566
stp6567
a(S'charges'
p6568
(dp6569
S'NamedEntityTag'
p6570
g104
sS'CharacterOffsetEnd'
p6571
S'1812'
p6572
sS'Lemma'
p6573
S'charge'
p6574
sS'PartOfSpeech'
p6575
S'NNS'
p6576
sS'CharacterOffsetBegin'
p6577
S'1805'
p6578
stp6579
a(S'Monday'
p6580
(dp6581
S'NormalizedNamedEntityTag'
p6582
S'XXXX-WXX-1'
p6583
sS'Timex'
p6584
S'<TIMEX3 tid="t12" type="DATE" value="XXXX-WXX-1">Monday</TIMEX3>'
p6585
sS'Lemma'
p6586
S'Monday'
p6587
sS'CharacterOffsetEnd'
p6588
S'1819'
p6589
sS'PartOfSpeech'
p6590
S'NNP'
p6591
sS'CharacterOffsetBegin'
p6592
S'1813'
p6593
sS'NamedEntityTag'
p6594
S'DATE'
p6595
stp6596
a(S'to'
p6597
(dp6598
S'NamedEntityTag'
p6599
g104
sS'CharacterOffsetEnd'
p6600
S'1822'
p6601
sS'Lemma'
p6602
S'to'
p6603
sS'PartOfSpeech'
p6604
S'TO'
p6605
sS'CharacterOffsetBegin'
p6606
S'1820'
p6607
stp6608
a(S'include'
p6609
(dp6610
S'NamedEntityTag'
p6611
g104
sS'CharacterOffsetEnd'
p6612
S'1830'
p6613
sS'Lemma'
p6614
S'include'
p6615
sS'PartOfSpeech'
p6616
S'VB'
p6617
sS'CharacterOffsetBegin'
p6618
S'1823'
p6619
stp6620
a(S'killings'
p6621
(dp6622
S'NamedEntityTag'
p6623
g104
sS'CharacterOffsetEnd'
p6624
S'1839'
p6625
sS'Lemma'
p6626
S'killing'
p6627
sS'PartOfSpeech'
p6628
S'NNS'
p6629
sS'CharacterOffsetBegin'
p6630
S'1831'
p6631
stp6632
a(S'of'
p6633
(dp6634
S'NamedEntityTag'
p6635
g104
sS'CharacterOffsetEnd'
p6636
S'1842'
p6637
sS'Lemma'
p6638
S'of'
p6639
sS'PartOfSpeech'
p6640
S'IN'
p6641
sS'CharacterOffsetBegin'
p6642
S'1840'
p6643
stp6644
a(S'Chileans'
p6645
(dp6646
S'NamedEntityTag'
p6647
S'MISC'
p6648
sS'CharacterOffsetEnd'
p6649
S'1851'
p6650
sS'Lemma'
p6651
S'Chileans'
p6652
sS'PartOfSpeech'
p6653
S'NNPS'
p6654
sS'CharacterOffsetBegin'
p6655
S'1843'
p6656
stp6657
a(S'as'
p6658
(dp6659
S'NamedEntityTag'
p6660
g104
sS'CharacterOffsetEnd'
p6661
S'1854'
p6662
sS'Lemma'
p6663
S'as'
p6664
sS'PartOfSpeech'
p6665
S'RB'
p6666
sS'CharacterOffsetBegin'
p6667
S'1852'
p6668
stp6669
a(S'well'
p6670
(dp6671
S'NamedEntityTag'
p6672
g104
sS'CharacterOffsetEnd'
p6673
S'1859'
p6674
sS'Lemma'
p6675
S'well'
p6676
sS'PartOfSpeech'
p6677
S'RB'
p6678
sS'CharacterOffsetBegin'
p6679
S'1855'
p6680
stp6681
a(S'as'
p6682
(dp6683
S'NamedEntityTag'
p6684
g104
sS'CharacterOffsetEnd'
p6685
S'1862'
p6686
sS'Lemma'
p6687
S'as'
p6688
sS'PartOfSpeech'
p6689
S'IN'
p6690
sS'CharacterOffsetBegin'
p6691
S'1860'
p6692
stp6693
a(S'Spaniards'
p6694
(dp6695
S'NamedEntityTag'
p6696
g104
sS'CharacterOffsetEnd'
p6697
S'1872'
p6698
sS'Lemma'
p6699
S'Spaniards'
p6700
sS'PartOfSpeech'
p6701
S'NNPS'
p6702
sS'CharacterOffsetBegin'
p6703
S'1863'
p6704
stp6705
a(g1634
(dp6706
S'NamedEntityTag'
p6707
g104
sS'CharacterOffsetEnd'
p6708
S'1873'
p6709
sS'Lemma'
p6710
g1634
sS'PartOfSpeech'
p6711
g1634
sS'CharacterOffsetBegin'
p6712
S'1872'
p6713
stp6714
a(S'and'
p6715
(dp6716
S'NamedEntityTag'
p6717
g104
sS'CharacterOffsetEnd'
p6718
S'1877'
p6719
sS'Lemma'
p6720
S'and'
p6721
sS'PartOfSpeech'
p6722
S'CC'
p6723
sS'CharacterOffsetBegin'
p6724
S'1874'
p6725
stp6726
a(S'genocide'
p6727
(dp6728
S'NamedEntityTag'
p6729
g104
sS'CharacterOffsetEnd'
p6730
S'1886'
p6731
sS'Lemma'
p6732
S'genocide'
p6733
sS'PartOfSpeech'
p6734
S'NN'
p6735
sS'CharacterOffsetBegin'
p6736
S'1878'
p6737
stp6738
a(g6431
(dp6739
S'NamedEntityTag'
p6740
g104
sS'CharacterOffsetEnd'
p6741
S'1888'
p6742
sS'Lemma'
p6743
g6431
sS'PartOfSpeech'
p6744
S'NN'
p6745
sS'CharacterOffsetBegin'
p6746
S'1887'
p6747
stp6748
a(S'for'
p6749
(dp6750
S'NamedEntityTag'
p6751
g104
sS'CharacterOffsetEnd'
p6752
S'1892'
p6753
sS'Lemma'
p6754
S'for'
p6755
sS'PartOfSpeech'
p6756
S'IN'
p6757
sS'CharacterOffsetBegin'
p6758
S'1889'
p6759
stp6760
a(S'which'
p6761
(dp6762
S'NamedEntityTag'
p6763
g104
sS'CharacterOffsetEnd'
p6764
S'1898'
p6765
sS'Lemma'
p6766
S'which'
p6767
sS'PartOfSpeech'
p6768
S'WDT'
p6769
sS'CharacterOffsetBegin'
p6770
S'1893'
p6771
stp6772
a(S'there'
p6773
(dp6774
S'NamedEntityTag'
p6775
g104
sS'CharacterOffsetEnd'
p6776
S'1904'
p6777
sS'Lemma'
p6778
S'there'
p6779
sS'PartOfSpeech'
p6780
S'EX'
p6781
sS'CharacterOffsetBegin'
p6782
S'1899'
p6783
stp6784
a(S'is'
p6785
(dp6786
S'NamedEntityTag'
p6787
g104
sS'CharacterOffsetEnd'
p6788
S'1907'
p6789
sS'Lemma'
p6790
S'be'
p6791
sS'PartOfSpeech'
p6792
S'VBZ'
p6793
sS'CharacterOffsetBegin'
p6794
S'1905'
p6795
stp6796
a(S'no'
p6797
(dp6798
S'NamedEntityTag'
p6799
g104
sS'CharacterOffsetEnd'
p6800
S'1910'
p6801
sS'Lemma'
p6802
S'no'
p6803
sS'PartOfSpeech'
p6804
S'DT'
p6805
sS'CharacterOffsetBegin'
p6806
S'1908'
p6807
stp6808
a(S'diplomatic'
p6809
(dp6810
S'NamedEntityTag'
p6811
g104
sS'CharacterOffsetEnd'
p6812
S'1921'
p6813
sS'Lemma'
p6814
S'diplomatic'
p6815
sS'PartOfSpeech'
p6816
S'JJ'
p6817
sS'CharacterOffsetBegin'
p6818
S'1911'
p6819
stp6820
a(S'immunity'
p6821
(dp6822
S'NamedEntityTag'
p6823
g104
sS'CharacterOffsetEnd'
p6824
S'1930'
p6825
sS'Lemma'
p6826
S'immunity'
p6827
sS'PartOfSpeech'
p6828
S'NN'
p6829
sS'CharacterOffsetBegin'
p6830
S'1922'
p6831
stp6832
a(g241
(dp6833
S'NamedEntityTag'
p6834
g104
sS'CharacterOffsetEnd'
p6835
S'1931'
p6836
sS'Lemma'
p6837
g241
sS'PartOfSpeech'
p6838
g241
sS'CharacterOffsetBegin'
p6839
S'1930'
p6840
stp6841
asa(dp6842
g15
S'(ROOT (S (NP (JJ Chilean) (NNP Ambassador) (NNP Mario) (NNP Artaza)) (, ,) (S (NP (PRP himself)) (NP (NP (DT an) (NN exile)) (PP (IN during) (NP (NNPS Pinochets) (NN rule))))) (, ,) (VP (VBD said) (SBAR (S (NP (NNP Chile)) (VP (VBD had) (NP (DT a) (NN duty) (S (VP (TO to) (VP (VB protect) (NP (DT a) (NN citizen)) (PP (IN with) (NP (NP (JJ diplomatic) (NN immunity)) (CC and) (NP (NN senator) (NN status)))))))))))) (. .)))'
p6843
sg17
S'Chilean Ambassador Mario Artaza, himself an exile during Pinochets rule, said Chile had a duty to protect a citizen with diplomatic immunity and senator status.'
p6844
sg19
(lp6845
(S'root'
p6846
S'ROOT'
p6847
S'said'
p6848
tp6849
a(S'amod'
p6850
S'Artaza'
p6851
S'Chilean'
p6852
tp6853
a(S'nn'
p6854
S'Artaza'
p6855
S'Ambassador'
p6856
tp6857
a(S'nn'
p6858
S'Artaza'
p6859
S'Mario'
p6860
tp6861
a(S'nsubj'
p6862
S'said'
p6863
S'Artaza'
p6864
tp6865
a(S'dep'
p6866
S'exile'
p6867
S'himself'
p6868
tp6869
a(S'det'
p6870
S'exile'
p6871
S'an'
p6872
tp6873
a(S'ccomp'
p6874
S'said'
p6875
S'exile'
p6876
tp6877
a(S'nn'
p6878
S'rule'
p6879
S'Pinochets'
p6880
tp6881
a(S'prep_during'
p6882
S'exile'
p6883
S'rule'
p6884
tp6885
a(S'nsubj'
p6886
S'had'
p6887
S'Chile'
p6888
tp6889
a(S'ccomp'
p6890
S'said'
p6891
S'had'
p6892
tp6893
a(S'det'
p6894
S'duty'
p6895
g1164
tp6896
a(S'dobj'
p6897
S'had'
p6898
S'duty'
p6899
tp6900
a(S'aux'
p6901
S'protect'
p6902
S'to'
p6903
tp6904
a(S'infmod'
p6905
S'duty'
p6906
S'protect'
p6907
tp6908
a(S'det'
p6909
S'citizen'
p6910
g1164
tp6911
a(S'dobj'
p6912
S'protect'
p6913
S'citizen'
p6914
tp6915
a(S'amod'
p6916
S'immunity'
p6917
S'diplomatic'
p6918
tp6919
a(S'prep_with'
p6920
S'protect'
p6921
S'immunity'
p6922
tp6923
a(S'nn'
p6924
S'status'
p6925
S'senator'
p6926
tp6927
a(S'conj_and'
p6928
S'immunity'
p6929
S'status'
p6930
tp6931
asg57
(lp6932
(g6846
S'ROOT-0'
p6933
S'said-13'
p6934
tp6935
a(g6850
S'Artaza-4'
p6936
S'Chilean-1'
p6937
tp6938
a(g6854
S'Artaza-4'
p6939
S'Ambassador-2'
p6940
tp6941
a(g6858
S'Artaza-4'
p6942
S'Mario-3'
p6943
tp6944
a(g6862
S'said-13'
p6945
S'Artaza-4'
p6946
tp6947
a(g6866
S'exile-8'
p6948
S'himself-6'
p6949
tp6950
a(g6870
S'exile-8'
p6951
S'an-7'
p6952
tp6953
a(g6874
S'said-13'
p6954
S'exile-8'
p6955
tp6956
a(g6878
S'rule-11'
p6957
S'Pinochets-10'
p6958
tp6959
a(g6882
S'exile-8'
p6960
S'rule-11'
p6961
tp6962
a(g6886
S'had-15'
p6963
S'Chile-14'
p6964
tp6965
a(g6890
S'said-13'
p6966
S'had-15'
p6967
tp6968
a(g6894
S'duty-17'
p6969
S'a-16'
p6970
tp6971
a(g6897
S'had-15'
p6972
S'duty-17'
p6973
tp6974
a(g6901
S'protect-19'
p6975
S'to-18'
p6976
tp6977
a(g6905
S'duty-17'
p6978
S'protect-19'
p6979
tp6980
a(g6909
S'citizen-21'
p6981
S'a-20'
p6982
tp6983
a(g6912
S'protect-19'
p6984
S'citizen-21'
p6985
tp6986
a(g6916
S'immunity-24'
p6987
S'diplomatic-23'
p6988
tp6989
a(g6920
S'protect-19'
p6990
S'immunity-24'
p6991
tp6992
a(g6924
S'status-27'
p6993
S'senator-26'
p6994
tp6995
a(g6928
S'immunity-24'
p6996
S'status-27'
p6997
tp6998
asg86
(lp6999
(S'Chilean'
p7000
(dp7001
S'NamedEntityTag'
p7002
S'MISC'
p7003
sS'CharacterOffsetEnd'
p7004
S'1939'
p7005
sS'Lemma'
p7006
S'chilean'
p7007
sS'PartOfSpeech'
p7008
S'JJ'
p7009
sS'CharacterOffsetBegin'
p7010
S'1932'
p7011
stp7012
a(S'Ambassador'
p7013
(dp7014
S'NamedEntityTag'
p7015
g104
sS'CharacterOffsetEnd'
p7016
S'1950'
p7017
sS'Lemma'
p7018
S'Ambassador'
p7019
sS'PartOfSpeech'
p7020
S'NNP'
p7021
sS'CharacterOffsetBegin'
p7022
S'1940'
p7023
stp7024
a(S'Mario'
p7025
(dp7026
S'NamedEntityTag'
p7027
S'PERSON'
p7028
sS'CharacterOffsetEnd'
p7029
S'1956'
p7030
sS'Lemma'
p7031
S'Mario'
p7032
sS'PartOfSpeech'
p7033
S'NNP'
p7034
sS'CharacterOffsetBegin'
p7035
S'1951'
p7036
stp7037
a(S'Artaza'
p7038
(dp7039
S'NamedEntityTag'
p7040
S'PERSON'
p7041
sS'CharacterOffsetEnd'
p7042
S'1963'
p7043
sS'Lemma'
p7044
S'Artaza'
p7045
sS'PartOfSpeech'
p7046
S'NNP'
p7047
sS'CharacterOffsetBegin'
p7048
S'1957'
p7049
stp7050
a(g1634
(dp7051
S'NamedEntityTag'
p7052
g104
sS'CharacterOffsetEnd'
p7053
S'1964'
p7054
sS'Lemma'
p7055
g1634
sS'PartOfSpeech'
p7056
g1634
sS'CharacterOffsetBegin'
p7057
S'1963'
p7058
stp7059
a(S'himself'
p7060
(dp7061
S'NamedEntityTag'
p7062
g104
sS'CharacterOffsetEnd'
p7063
S'1972'
p7064
sS'Lemma'
p7065
S'himself'
p7066
sS'PartOfSpeech'
p7067
S'PRP'
p7068
sS'CharacterOffsetBegin'
p7069
S'1965'
p7070
stp7071
a(S'an'
p7072
(dp7073
S'NamedEntityTag'
p7074
g104
sS'CharacterOffsetEnd'
p7075
S'1975'
p7076
sS'Lemma'
p7077
g1164
sS'PartOfSpeech'
p7078
S'DT'
p7079
sS'CharacterOffsetBegin'
p7080
S'1973'
p7081
stp7082
a(S'exile'
p7083
(dp7084
S'NamedEntityTag'
p7085
g104
sS'CharacterOffsetEnd'
p7086
S'1981'
p7087
sS'Lemma'
p7088
S'exile'
p7089
sS'PartOfSpeech'
p7090
S'NN'
p7091
sS'CharacterOffsetBegin'
p7092
S'1976'
p7093
stp7094
a(S'during'
p7095
(dp7096
S'NamedEntityTag'
p7097
g104
sS'CharacterOffsetEnd'
p7098
S'1988'
p7099
sS'Lemma'
p7100
S'during'
p7101
sS'PartOfSpeech'
p7102
S'IN'
p7103
sS'CharacterOffsetBegin'
p7104
S'1982'
p7105
stp7106
a(S'Pinochets'
p7107
(dp7108
S'NamedEntityTag'
p7109
S'LOCATION'
p7110
sS'CharacterOffsetEnd'
p7111
S'1998'
p7112
sS'Lemma'
p7113
S'Pinochets'
p7114
sS'PartOfSpeech'
p7115
S'NNPS'
p7116
sS'CharacterOffsetBegin'
p7117
S'1989'
p7118
stp7119
a(S'rule'
p7120
(dp7121
S'NamedEntityTag'
p7122
g104
sS'CharacterOffsetEnd'
p7123
S'2003'
p7124
sS'Lemma'
p7125
S'rule'
p7126
sS'PartOfSpeech'
p7127
S'NN'
p7128
sS'CharacterOffsetBegin'
p7129
S'1999'
p7130
stp7131
a(g1634
(dp7132
S'NamedEntityTag'
p7133
g104
sS'CharacterOffsetEnd'
p7134
S'2004'
p7135
sS'Lemma'
p7136
g1634
sS'PartOfSpeech'
p7137
g1634
sS'CharacterOffsetBegin'
p7138
S'2003'
p7139
stp7140
a(S'said'
p7141
(dp7142
S'NamedEntityTag'
p7143
g104
sS'CharacterOffsetEnd'
p7144
S'2009'
p7145
sS'Lemma'
p7146
S'say'
p7147
sS'PartOfSpeech'
p7148
S'VBD'
p7149
sS'CharacterOffsetBegin'
p7150
S'2005'
p7151
stp7152
a(S'Chile'
p7153
(dp7154
S'NamedEntityTag'
p7155
S'LOCATION'
p7156
sS'CharacterOffsetEnd'
p7157
S'2015'
p7158
sS'Lemma'
p7159
S'Chile'
p7160
sS'PartOfSpeech'
p7161
S'NNP'
p7162
sS'CharacterOffsetBegin'
p7163
S'2010'
p7164
stp7165
a(S'had'
p7166
(dp7167
S'NamedEntityTag'
p7168
g104
sS'CharacterOffsetEnd'
p7169
S'2019'
p7170
sS'Lemma'
p7171
S'have'
p7172
sS'PartOfSpeech'
p7173
S'VBD'
p7174
sS'CharacterOffsetBegin'
p7175
S'2016'
p7176
stp7177
a(g1164
(dp7178
S'NamedEntityTag'
p7179
g104
sS'CharacterOffsetEnd'
p7180
S'2021'
p7181
sS'Lemma'
p7182
g1164
sS'PartOfSpeech'
p7183
S'DT'
p7184
sS'CharacterOffsetBegin'
p7185
S'2020'
p7186
stp7187
a(S'duty'
p7188
(dp7189
S'NamedEntityTag'
p7190
g104
sS'CharacterOffsetEnd'
p7191
S'2026'
p7192
sS'Lemma'
p7193
S'duty'
p7194
sS'PartOfSpeech'
p7195
S'NN'
p7196
sS'CharacterOffsetBegin'
p7197
S'2022'
p7198
stp7199
a(S'to'
p7200
(dp7201
S'NamedEntityTag'
p7202
g104
sS'CharacterOffsetEnd'
p7203
S'2029'
p7204
sS'Lemma'
p7205
S'to'
p7206
sS'PartOfSpeech'
p7207
S'TO'
p7208
sS'CharacterOffsetBegin'
p7209
S'2027'
p7210
stp7211
a(S'protect'
p7212
(dp7213
S'NamedEntityTag'
p7214
g104
sS'CharacterOffsetEnd'
p7215
S'2037'
p7216
sS'Lemma'
p7217
S'protect'
p7218
sS'PartOfSpeech'
p7219
S'VB'
p7220
sS'CharacterOffsetBegin'
p7221
S'2030'
p7222
stp7223
a(g1164
(dp7224
S'NamedEntityTag'
p7225
g104
sS'CharacterOffsetEnd'
p7226
S'2039'
p7227
sS'Lemma'
p7228
g1164
sS'PartOfSpeech'
p7229
S'DT'
p7230
sS'CharacterOffsetBegin'
p7231
S'2038'
p7232
stp7233
a(S'citizen'
p7234
(dp7235
S'NamedEntityTag'
p7236
g104
sS'CharacterOffsetEnd'
p7237
S'2047'
p7238
sS'Lemma'
p7239
S'citizen'
p7240
sS'PartOfSpeech'
p7241
S'NN'
p7242
sS'CharacterOffsetBegin'
p7243
S'2040'
p7244
stp7245
a(S'with'
p7246
(dp7247
S'NamedEntityTag'
p7248
g104
sS'CharacterOffsetEnd'
p7249
S'2052'
p7250
sS'Lemma'
p7251
S'with'
p7252
sS'PartOfSpeech'
p7253
S'IN'
p7254
sS'CharacterOffsetBegin'
p7255
S'2048'
p7256
stp7257
a(S'diplomatic'
p7258
(dp7259
S'NamedEntityTag'
p7260
g104
sS'CharacterOffsetEnd'
p7261
S'2063'
p7262
sS'Lemma'
p7263
S'diplomatic'
p7264
sS'PartOfSpeech'
p7265
S'JJ'
p7266
sS'CharacterOffsetBegin'
p7267
S'2053'
p7268
stp7269
a(S'immunity'
p7270
(dp7271
S'NamedEntityTag'
p7272
g104
sS'CharacterOffsetEnd'
p7273
S'2072'
p7274
sS'Lemma'
p7275
S'immunity'
p7276
sS'PartOfSpeech'
p7277
S'NN'
p7278
sS'CharacterOffsetBegin'
p7279
S'2064'
p7280
stp7281
a(S'and'
p7282
(dp7283
S'NamedEntityTag'
p7284
g104
sS'CharacterOffsetEnd'
p7285
S'2076'
p7286
sS'Lemma'
p7287
S'and'
p7288
sS'PartOfSpeech'
p7289
S'CC'
p7290
sS'CharacterOffsetBegin'
p7291
S'2073'
p7292
stp7293
a(S'senator'
p7294
(dp7295
S'NamedEntityTag'
p7296
g104
sS'CharacterOffsetEnd'
p7297
S'2084'
p7298
sS'Lemma'
p7299
S'senator'
p7300
sS'PartOfSpeech'
p7301
S'NN'
p7302
sS'CharacterOffsetBegin'
p7303
S'2077'
p7304
stp7305
a(S'status'
p7306
(dp7307
S'NamedEntityTag'
p7308
g104
sS'CharacterOffsetEnd'
p7309
S'2091'
p7310
sS'Lemma'
p7311
S'status'
p7312
sS'PartOfSpeech'
p7313
S'NN'
p7314
sS'CharacterOffsetBegin'
p7315
S'2085'
p7316
stp7317
a(g241
(dp7318
S'NamedEntityTag'
p7319
g104
sS'CharacterOffsetEnd'
p7320
S'2092'
p7321
sS'Lemma'
p7322
g241
sS'PartOfSpeech'
p7323
g241
sS'CharacterOffsetBegin'
p7324
S'2091'
p7325
stp7326
asa(dp7327
g15
S'(ROOT (S (S (NP (PRP We)) (VP (VBP are) (RB not) (VP (VBG protecting) (NP (NP (DT the) (NN dictator)) (PP (IN of) (NP (DT the) (CD 70s))))))) (, ,) (NP (NNP Artaza)) (VP (VBD said) (PP (IN in) (NP (DT a) (JJ British) (NNP Broadcasting) (NNP Corp.) (NN radio) (NN interview))) (NP-TMP (NNP Tuesday))) (. .)))'
p7328
sg17
S'We are not protecting the dictator of the 70s, Artaza said in a British Broadcasting Corp. radio interview Tuesday.'
p7329
sg19
(lp7330
(S'root'
p7331
S'ROOT'
p7332
S'said'
p7333
tp7334
a(S'nsubj'
p7335
S'protecting'
p7336
S'We'
p7337
tp7338
a(S'aux'
p7339
S'protecting'
p7340
S'are'
p7341
tp7342
a(S'neg'
p7343
S'protecting'
p7344
S'not'
p7345
tp7346
a(S'ccomp'
p7347
S'said'
p7348
S'protecting'
p7349
tp7350
a(S'det'
p7351
S'dictator'
p7352
S'the'
p7353
tp7354
a(S'dobj'
p7355
S'protecting'
p7356
S'dictator'
p7357
tp7358
a(S'det'
p7359
S'70s'
p7360
S'the'
p7361
tp7362
a(S'prep_of'
p7363
S'dictator'
p7364
S'70s'
p7365
tp7366
a(S'nsubj'
p7367
S'said'
p7368
S'Artaza'
p7369
tp7370
a(S'det'
p7371
S'interview'
p7372
g1164
tp7373
a(S'amod'
p7374
S'interview'
p7375
S'British'
p7376
tp7377
a(S'nn'
p7378
S'interview'
p7379
S'Broadcasting'
p7380
tp7381
a(S'nn'
p7382
S'interview'
p7383
S'Corp.'
p7384
tp7385
a(S'nn'
p7386
S'interview'
p7387
S'radio'
p7388
tp7389
a(S'prep_in'
p7390
S'said'
p7391
S'interview'
p7392
tp7393
a(S'tmod'
p7394
S'said'
p7395
S'Tuesday'
p7396
tp7397
asg57
(lp7398
(g7331
S'ROOT-0'
p7399
S'said-12'
p7400
tp7401
a(g7335
S'protecting-4'
p7402
S'We-1'
p7403
tp7404
a(g7339
S'protecting-4'
p7405
S'are-2'
p7406
tp7407
a(g7343
S'protecting-4'
p7408
S'not-3'
p7409
tp7410
a(g7347
S'said-12'
p7411
S'protecting-4'
p7412
tp7413
a(g7351
S'dictator-6'
p7414
S'the-5'
p7415
tp7416
a(g7355
S'protecting-4'
p7417
S'dictator-6'
p7418
tp7419
a(g7359
S'70s-9'
p7420
S'the-8'
p7421
tp7422
a(g7363
S'dictator-6'
p7423
S'70s-9'
p7424
tp7425
a(g7367
S'said-12'
p7426
S'Artaza-11'
p7427
tp7428
a(g7371
S'interview-19'
p7429
S'a-14'
p7430
tp7431
a(g7374
S'interview-19'
p7432
S'British-15'
p7433
tp7434
a(g7378
S'interview-19'
p7435
S'Broadcasting-16'
p7436
tp7437
a(g7382
S'interview-19'
p7438
S'Corp.-17'
p7439
tp7440
a(g7386
S'interview-19'
p7441
S'radio-18'
p7442
tp7443
a(g7390
S'said-12'
p7444
S'interview-19'
p7445
tp7446
a(g7394
S'said-12'
p7447
S'Tuesday-20'
p7448
tp7449
asg86
(lp7450
(S'We'
p7451
(dp7452
S'NamedEntityTag'
p7453
g104
sS'CharacterOffsetEnd'
p7454
S'2095'
p7455
sS'Lemma'
p7456
S'we'
p7457
sS'PartOfSpeech'
p7458
S'PRP'
p7459
sS'CharacterOffsetBegin'
p7460
S'2093'
p7461
stp7462
a(S'are'
p7463
(dp7464
S'NamedEntityTag'
p7465
g104
sS'CharacterOffsetEnd'
p7466
S'2099'
p7467
sS'Lemma'
p7468
S'be'
p7469
sS'PartOfSpeech'
p7470
S'VBP'
p7471
sS'CharacterOffsetBegin'
p7472
S'2096'
p7473
stp7474
a(S'not'
p7475
(dp7476
S'NamedEntityTag'
p7477
g104
sS'CharacterOffsetEnd'
p7478
S'2103'
p7479
sS'Lemma'
p7480
S'not'
p7481
sS'PartOfSpeech'
p7482
S'RB'
p7483
sS'CharacterOffsetBegin'
p7484
S'2100'
p7485
stp7486
a(S'protecting'
p7487
(dp7488
S'NamedEntityTag'
p7489
g104
sS'CharacterOffsetEnd'
p7490
S'2114'
p7491
sS'Lemma'
p7492
S'protect'
p7493
sS'PartOfSpeech'
p7494
S'VBG'
p7495
sS'CharacterOffsetBegin'
p7496
S'2104'
p7497
stp7498
a(S'the'
p7499
(dp7500
S'NamedEntityTag'
p7501
g104
sS'CharacterOffsetEnd'
p7502
S'2118'
p7503
sS'Lemma'
p7504
S'the'
p7505
sS'PartOfSpeech'
p7506
S'DT'
p7507
sS'CharacterOffsetBegin'
p7508
S'2115'
p7509
stp7510
a(S'dictator'
p7511
(dp7512
S'NamedEntityTag'
p7513
g104
sS'CharacterOffsetEnd'
p7514
S'2127'
p7515
sS'Lemma'
p7516
S'dictator'
p7517
sS'PartOfSpeech'
p7518
S'NN'
p7519
sS'CharacterOffsetBegin'
p7520
S'2119'
p7521
stp7522
a(S'of'
p7523
(dp7524
S'NamedEntityTag'
p7525
g104
sS'CharacterOffsetEnd'
p7526
S'2130'
p7527
sS'Lemma'
p7528
S'of'
p7529
sS'PartOfSpeech'
p7530
S'IN'
p7531
sS'CharacterOffsetBegin'
p7532
S'2128'
p7533
stp7534
a(S'the'
p7535
(dp7536
S'NamedEntityTag'
p7537
g104
sS'CharacterOffsetEnd'
p7538
S'2134'
p7539
sS'Lemma'
p7540
S'the'
p7541
sS'PartOfSpeech'
p7542
S'DT'
p7543
sS'CharacterOffsetBegin'
p7544
S'2131'
p7545
stp7546
a(S'70s'
p7547
(dp7548
S'NormalizedNamedEntityTag'
p7549
S'70.0'
p7550
sS'Lemma'
p7551
S'70s'
p7552
sS'CharacterOffsetEnd'
p7553
S'2138'
p7554
sS'PartOfSpeech'
p7555
S'CD'
p7556
sS'CharacterOffsetBegin'
p7557
S'2135'
p7558
sS'NamedEntityTag'
p7559
S'NUMBER'
p7560
stp7561
a(g1634
(dp7562
S'NamedEntityTag'
p7563
g104
sS'CharacterOffsetEnd'
p7564
S'2139'
p7565
sS'Lemma'
p7566
g1634
sS'PartOfSpeech'
p7567
g1634
sS'CharacterOffsetBegin'
p7568
S'2138'
p7569
stp7570
a(S'Artaza'
p7571
(dp7572
S'NamedEntityTag'
p7573
S'PERSON'
p7574
sS'CharacterOffsetEnd'
p7575
S'2146'
p7576
sS'Lemma'
p7577
S'Artaza'
p7578
sS'PartOfSpeech'
p7579
S'NNP'
p7580
sS'CharacterOffsetBegin'
p7581
S'2140'
p7582
stp7583
a(S'said'
p7584
(dp7585
S'NamedEntityTag'
p7586
g104
sS'CharacterOffsetEnd'
p7587
S'2151'
p7588
sS'Lemma'
p7589
S'say'
p7590
sS'PartOfSpeech'
p7591
S'VBD'
p7592
sS'CharacterOffsetBegin'
p7593
S'2147'
p7594
stp7595
a(S'in'
p7596
(dp7597
S'NamedEntityTag'
p7598
g104
sS'CharacterOffsetEnd'
p7599
S'2154'
p7600
sS'Lemma'
p7601
S'in'
p7602
sS'PartOfSpeech'
p7603
S'IN'
p7604
sS'CharacterOffsetBegin'
p7605
S'2152'
p7606
stp7607
a(g1164
(dp7608
S'NamedEntityTag'
p7609
g104
sS'CharacterOffsetEnd'
p7610
S'2156'
p7611
sS'Lemma'
p7612
g1164
sS'PartOfSpeech'
p7613
S'DT'
p7614
sS'CharacterOffsetBegin'
p7615
S'2155'
p7616
stp7617
a(S'British'
p7618
(dp7619
S'NamedEntityTag'
p7620
S'ORGANIZATION'
p7621
sS'CharacterOffsetEnd'
p7622
S'2164'
p7623
sS'Lemma'
p7624
S'british'
p7625
sS'PartOfSpeech'
p7626
S'JJ'
p7627
sS'CharacterOffsetBegin'
p7628
S'2157'
p7629
stp7630
a(S'Broadcasting'
p7631
(dp7632
S'NamedEntityTag'
p7633
S'ORGANIZATION'
p7634
sS'CharacterOffsetEnd'
p7635
S'2177'
p7636
sS'Lemma'
p7637
S'Broadcasting'
p7638
sS'PartOfSpeech'
p7639
S'NNP'
p7640
sS'CharacterOffsetBegin'
p7641
S'2165'
p7642
stp7643
a(S'Corp.'
p7644
(dp7645
S'NamedEntityTag'
p7646
S'ORGANIZATION'
p7647
sS'CharacterOffsetEnd'
p7648
S'2183'
p7649
sS'Lemma'
p7650
S'Corp.'
p7651
sS'PartOfSpeech'
p7652
S'NNP'
p7653
sS'CharacterOffsetBegin'
p7654
S'2178'
p7655
stp7656
a(S'radio'
p7657
(dp7658
S'NamedEntityTag'
p7659
g104
sS'CharacterOffsetEnd'
p7660
S'2189'
p7661
sS'Lemma'
p7662
S'radio'
p7663
sS'PartOfSpeech'
p7664
S'NN'
p7665
sS'CharacterOffsetBegin'
p7666
S'2184'
p7667
stp7668
a(S'interview'
p7669
(dp7670
S'NamedEntityTag'
p7671
g104
sS'CharacterOffsetEnd'
p7672
S'2199'
p7673
sS'Lemma'
p7674
S'interview'
p7675
sS'PartOfSpeech'
p7676
S'NN'
p7677
sS'CharacterOffsetBegin'
p7678
S'2190'
p7679
stp7680
a(S'Tuesday'
p7681
(dp7682
S'NormalizedNamedEntityTag'
p7683
S'XXXX-WXX-2'
p7684
sS'Timex'
p7685
S'<TIMEX3 tid="t2" type="DATE" value="XXXX-WXX-2">Tuesday</TIMEX3>'
p7686
sS'Lemma'
p7687
S'Tuesday'
p7688
sS'CharacterOffsetEnd'
p7689
S'2207'
p7690
sS'PartOfSpeech'
p7691
S'NNP'
p7692
sS'CharacterOffsetBegin'
p7693
S'2200'
p7694
sS'NamedEntityTag'
p7695
S'DATE'
p7696
stp7697
a(g241
(dp7698
S'NamedEntityTag'
p7699
g104
sS'CharacterOffsetEnd'
p7700
S'2208'
p7701
sS'Lemma'
p7702
g241
sS'PartOfSpeech'
p7703
g241
sS'CharacterOffsetBegin'
p7704
S'2207'
p7705
stp7706
asa(dp7707
g15
S'(ROOT (S (S (X (WP What)) (NP (PRP we)) (VP (VBP are) (VP (VP (VBG fighting) (PP (IN for))) (CC and) (VP (VBG discussing) (SBAR (IN with) (S (NP (DT the) (PRN (-LRB- -LRB-) (NP (JJ British)) (-RRB- -RRB-)) (NN government)) (VP (VBZ is) (NP (NP (DT the) (JJ special) (NN situation)) (PP (IN of) (NP (NP (DT a) (NN senator)) (PP (IN in) (NP (PRP$ our) (NN transition))))) (SBAR (WHNP (WP who) (JJ many) (NNS people)) (S (VP (VBP do) (RB not) (VP (VB understand))))))))))))) (CC and) (S (NP (JJ many) (NNS people)) (VP (VBP dont) (PP (IN like)))) (. .)))'
p7708
sg17
S'What we are fighting for and discussing with the (British) government is the special situation of a senator in our transition who many people do not understand and many people dont like.'
p7709
sg19
(lp7710
(S'root'
p7711
S'ROOT'
p7712
S'fighting'
p7713
tp7714
a(S'dep'
p7715
S'fighting'
p7716
S'What'
p7717
tp7718
a(S'nsubj'
p7719
S'fighting'
p7720
S'we'
p7721
tp7722
a(S'aux'
p7723
S'fighting'
p7724
S'are'
p7725
tp7726
a(S'prep'
p7727
S'fighting'
p7728
S'for'
p7729
tp7730
a(S'conj_and'
p7731
S'fighting'
p7732
S'discussing'
p7733
tp7734
a(S'mark'
p7735
S'situation'
p7736
S'with'
p7737
tp7738
a(S'det'
p7739
S'government'
p7740
S'the'
p7741
tp7742
a(S'dep'
p7743
S'government'
p7744
S'British'
p7745
tp7746
a(S'nsubj'
p7747
S'situation'
p7748
S'government'
p7749
tp7750
a(S'cop'
p7751
S'situation'
p7752
S'is'
p7753
tp7754
a(S'det'
p7755
S'situation'
p7756
S'the'
p7757
tp7758
a(S'amod'
p7759
S'situation'
p7760
S'special'
p7761
tp7762
a(S'advcl'
p7763
S'discussing'
p7764
S'situation'
p7765
tp7766
a(S'det'
p7767
S'senator'
p7768
g1164
tp7769
a(S'prep_of'
p7770
S'situation'
p7771
S'senator'
p7772
tp7773
a(S'poss'
p7774
S'transition'
p7775
S'our'
p7776
tp7777
a(S'prep_in'
p7778
S'senator'
p7779
S'transition'
p7780
tp7781
a(S'det'
p7782
S'people'
p7783
S'who'
p7784
tp7785
a(S'amod'
p7786
S'people'
p7787
S'many'
p7788
tp7789
a(S'nsubj'
p7790
S'understand'
p7791
S'people'
p7792
tp7793
a(S'aux'
p7794
S'understand'
p7795
S'do'
p7796
tp7797
a(S'neg'
p7798
S'understand'
p7799
S'not'
p7800
tp7801
a(S'rcmod'
p7802
S'situation'
p7803
S'understand'
p7804
tp7805
a(S'amod'
p7806
S'people'
p7807
S'many'
p7808
tp7809
a(S'nsubj'
p7810
S'dont'
p7811
S'people'
p7812
tp7813
a(S'conj_and'
p7814
S'fighting'
p7815
S'dont'
p7816
tp7817
a(S'prep'
p7818
S'dont'
p7819
S'like'
p7820
tp7821
asg57
(lp7822
(g7711
S'ROOT-0'
p7823
S'fighting-4'
p7824
tp7825
a(g7715
S'fighting-4'
p7826
S'What-1'
p7827
tp7828
a(g7719
S'fighting-4'
p7829
S'we-2'
p7830
tp7831
a(g7723
S'fighting-4'
p7832
S'are-3'
p7833
tp7834
a(g7727
S'fighting-4'
p7835
S'for-5'
p7836
tp7837
a(g7731
S'fighting-4'
p7838
S'discussing-7'
p7839
tp7840
a(g7735
S'situation-17'
p7841
S'with-8'
p7842
tp7843
a(g7739
S'government-13'
p7844
S'the-9'
p7845
tp7846
a(g7743
S'government-13'
p7847
S'British-11'
p7848
tp7849
a(g7747
S'situation-17'
p7850
S'government-13'
p7851
tp7852
a(g7751
S'situation-17'
p7853
S'is-14'
p7854
tp7855
a(g7755
S'situation-17'
p7856
S'the-15'
p7857
tp7858
a(g7759
S'situation-17'
p7859
S'special-16'
p7860
tp7861
a(g7763
S'discussing-7'
p7862
S'situation-17'
p7863
tp7864
a(g7767
S'senator-20'
p7865
S'a-19'
p7866
tp7867
a(g7770
S'situation-17'
p7868
S'senator-20'
p7869
tp7870
a(g7774
S'transition-23'
p7871
S'our-22'
p7872
tp7873
a(g7778
S'senator-20'
p7874
S'transition-23'
p7875
tp7876
a(g7782
S'people-26'
p7877
S'who-24'
p7878
tp7879
a(g7786
S'people-26'
p7880
S'many-25'
p7881
tp7882
a(g7790
S'understand-29'
p7883
S'people-26'
p7884
tp7885
a(g7794
S'understand-29'
p7886
S'do-27'
p7887
tp7888
a(g7798
S'understand-29'
p7889
S'not-28'
p7890
tp7891
a(g7802
S'situation-17'
p7892
S'understand-29'
p7893
tp7894
a(g7806
S'people-32'
p7895
S'many-31'
p7896
tp7897
a(g7810
S'dont-33'
p7898
S'people-32'
p7899
tp7900
a(g7814
S'fighting-4'
p7901
S'dont-33'
p7902
tp7903
a(g7818
S'dont-33'
p7904
S'like-34'
p7905
tp7906
asg86
(lp7907
(S'What'
p7908
(dp7909
S'NamedEntityTag'
p7910
g104
sS'CharacterOffsetEnd'
p7911
S'2213'
p7912
sS'Lemma'
p7913
S'what'
p7914
sS'PartOfSpeech'
p7915
S'WP'
p7916
sS'CharacterOffsetBegin'
p7917
S'2209'
p7918
stp7919
a(S'we'
p7920
(dp7921
S'NamedEntityTag'
p7922
g104
sS'CharacterOffsetEnd'
p7923
S'2216'
p7924
sS'Lemma'
p7925
S'we'
p7926
sS'PartOfSpeech'
p7927
S'PRP'
p7928
sS'CharacterOffsetBegin'
p7929
S'2214'
p7930
stp7931
a(S'are'
p7932
(dp7933
S'NamedEntityTag'
p7934
g104
sS'CharacterOffsetEnd'
p7935
S'2220'
p7936
sS'Lemma'
p7937
S'be'
p7938
sS'PartOfSpeech'
p7939
S'VBP'
p7940
sS'CharacterOffsetBegin'
p7941
S'2217'
p7942
stp7943
a(S'fighting'
p7944
(dp7945
S'NamedEntityTag'
p7946
g104
sS'CharacterOffsetEnd'
p7947
S'2229'
p7948
sS'Lemma'
p7949
S'fight'
p7950
sS'PartOfSpeech'
p7951
S'VBG'
p7952
sS'CharacterOffsetBegin'
p7953
S'2221'
p7954
stp7955
a(S'for'
p7956
(dp7957
S'NamedEntityTag'
p7958
g104
sS'CharacterOffsetEnd'
p7959
S'2233'
p7960
sS'Lemma'
p7961
S'for'
p7962
sS'PartOfSpeech'
p7963
S'IN'
p7964
sS'CharacterOffsetBegin'
p7965
S'2230'
p7966
stp7967
a(S'and'
p7968
(dp7969
S'NamedEntityTag'
p7970
g104
sS'CharacterOffsetEnd'
p7971
S'2237'
p7972
sS'Lemma'
p7973
S'and'
p7974
sS'PartOfSpeech'
p7975
S'CC'
p7976
sS'CharacterOffsetBegin'
p7977
S'2234'
p7978
stp7979
a(S'discussing'
p7980
(dp7981
S'NamedEntityTag'
p7982
g104
sS'CharacterOffsetEnd'
p7983
S'2248'
p7984
sS'Lemma'
p7985
S'discuss'
p7986
sS'PartOfSpeech'
p7987
S'VBG'
p7988
sS'CharacterOffsetBegin'
p7989
S'2238'
p7990
stp7991
a(S'with'
p7992
(dp7993
S'NamedEntityTag'
p7994
g104
sS'CharacterOffsetEnd'
p7995
S'2253'
p7996
sS'Lemma'
p7997
S'with'
p7998
sS'PartOfSpeech'
p7999
S'IN'
p8000
sS'CharacterOffsetBegin'
p8001
S'2249'
p8002
stp8003
a(S'the'
p8004
(dp8005
S'NamedEntityTag'
p8006
g104
sS'CharacterOffsetEnd'
p8007
S'2257'
p8008
sS'Lemma'
p8009
S'the'
p8010
sS'PartOfSpeech'
p8011
S'DT'
p8012
sS'CharacterOffsetBegin'
p8013
S'2254'
p8014
stp8015
a(S'-LRB-'
p8016
(dp8017
S'NamedEntityTag'
p8018
g104
sS'CharacterOffsetEnd'
p8019
S'2259'
p8020
sS'Lemma'
p8021
S'-lrb-'
p8022
sS'PartOfSpeech'
p8023
S'-LRB-'
p8024
sS'CharacterOffsetBegin'
p8025
S'2258'
p8026
stp8027
a(S'British'
p8028
(dp8029
S'NamedEntityTag'
p8030
S'MISC'
p8031
sS'CharacterOffsetEnd'
p8032
S'2266'
p8033
sS'Lemma'
p8034
S'british'
p8035
sS'PartOfSpeech'
p8036
S'JJ'
p8037
sS'CharacterOffsetBegin'
p8038
S'2259'
p8039
stp8040
a(S'-RRB-'
p8041
(dp8042
S'NamedEntityTag'
p8043
g104
sS'CharacterOffsetEnd'
p8044
S'2267'
p8045
sS'Lemma'
p8046
S'-rrb-'
p8047
sS'PartOfSpeech'
p8048
S'-RRB-'
p8049
sS'CharacterOffsetBegin'
p8050
S'2266'
p8051
stp8052
a(S'government'
p8053
(dp8054
S'NamedEntityTag'
p8055
g104
sS'CharacterOffsetEnd'
p8056
S'2278'
p8057
sS'Lemma'
p8058
S'government'
p8059
sS'PartOfSpeech'
p8060
S'NN'
p8061
sS'CharacterOffsetBegin'
p8062
S'2268'
p8063
stp8064
a(S'is'
p8065
(dp8066
S'NamedEntityTag'
p8067
g104
sS'CharacterOffsetEnd'
p8068
S'2281'
p8069
sS'Lemma'
p8070
S'be'
p8071
sS'PartOfSpeech'
p8072
S'VBZ'
p8073
sS'CharacterOffsetBegin'
p8074
S'2279'
p8075
stp8076
a(S'the'
p8077
(dp8078
S'NamedEntityTag'
p8079
g104
sS'CharacterOffsetEnd'
p8080
S'2285'
p8081
sS'Lemma'
p8082
S'the'
p8083
sS'PartOfSpeech'
p8084
S'DT'
p8085
sS'CharacterOffsetBegin'
p8086
S'2282'
p8087
stp8088
a(S'special'
p8089
(dp8090
S'NamedEntityTag'
p8091
g104
sS'CharacterOffsetEnd'
p8092
S'2293'
p8093
sS'Lemma'
p8094
S'special'
p8095
sS'PartOfSpeech'
p8096
S'JJ'
p8097
sS'CharacterOffsetBegin'
p8098
S'2286'
p8099
stp8100
a(S'situation'
p8101
(dp8102
S'NamedEntityTag'
p8103
g104
sS'CharacterOffsetEnd'
p8104
S'2303'
p8105
sS'Lemma'
p8106
S'situation'
p8107
sS'PartOfSpeech'
p8108
S'NN'
p8109
sS'CharacterOffsetBegin'
p8110
S'2294'
p8111
stp8112
a(S'of'
p8113
(dp8114
S'NamedEntityTag'
p8115
g104
sS'CharacterOffsetEnd'
p8116
S'2306'
p8117
sS'Lemma'
p8118
S'of'
p8119
sS'PartOfSpeech'
p8120
S'IN'
p8121
sS'CharacterOffsetBegin'
p8122
S'2304'
p8123
stp8124
a(g1164
(dp8125
S'NamedEntityTag'
p8126
g104
sS'CharacterOffsetEnd'
p8127
S'2308'
p8128
sS'Lemma'
p8129
g1164
sS'PartOfSpeech'
p8130
S'DT'
p8131
sS'CharacterOffsetBegin'
p8132
S'2307'
p8133
stp8134
a(S'senator'
p8135
(dp8136
S'NamedEntityTag'
p8137
g104
sS'CharacterOffsetEnd'
p8138
S'2316'
p8139
sS'Lemma'
p8140
S'senator'
p8141
sS'PartOfSpeech'
p8142
S'NN'
p8143
sS'CharacterOffsetBegin'
p8144
S'2309'
p8145
stp8146
a(S'in'
p8147
(dp8148
S'NamedEntityTag'
p8149
g104
sS'CharacterOffsetEnd'
p8150
S'2319'
p8151
sS'Lemma'
p8152
S'in'
p8153
sS'PartOfSpeech'
p8154
S'IN'
p8155
sS'CharacterOffsetBegin'
p8156
S'2317'
p8157
stp8158
a(S'our'
p8159
(dp8160
S'NamedEntityTag'
p8161
g104
sS'CharacterOffsetEnd'
p8162
S'2323'
p8163
sS'Lemma'
p8164
S'we'
p8165
sS'PartOfSpeech'
p8166
S'PRP$'
p8167
sS'CharacterOffsetBegin'
p8168
S'2320'
p8169
stp8170
a(S'transition'
p8171
(dp8172
S'NamedEntityTag'
p8173
g104
sS'CharacterOffsetEnd'
p8174
S'2334'
p8175
sS'Lemma'
p8176
S'transition'
p8177
sS'PartOfSpeech'
p8178
S'NN'
p8179
sS'CharacterOffsetBegin'
p8180
S'2324'
p8181
stp8182
a(S'who'
p8183
(dp8184
S'NamedEntityTag'
p8185
g104
sS'CharacterOffsetEnd'
p8186
S'2338'
p8187
sS'Lemma'
p8188
S'who'
p8189
sS'PartOfSpeech'
p8190
S'WP'
p8191
sS'CharacterOffsetBegin'
p8192
S'2335'
p8193
stp8194
a(S'many'
p8195
(dp8196
S'NamedEntityTag'
p8197
g104
sS'CharacterOffsetEnd'
p8198
S'2343'
p8199
sS'Lemma'
p8200
S'many'
p8201
sS'PartOfSpeech'
p8202
S'JJ'
p8203
sS'CharacterOffsetBegin'
p8204
S'2339'
p8205
stp8206
a(S'people'
p8207
(dp8208
S'NamedEntityTag'
p8209
g104
sS'CharacterOffsetEnd'
p8210
S'2350'
p8211
sS'Lemma'
p8212
S'people'
p8213
sS'PartOfSpeech'
p8214
S'NNS'
p8215
sS'CharacterOffsetBegin'
p8216
S'2344'
p8217
stp8218
a(S'do'
p8219
(dp8220
S'NamedEntityTag'
p8221
g104
sS'CharacterOffsetEnd'
p8222
S'2353'
p8223
sS'Lemma'
p8224
S'do'
p8225
sS'PartOfSpeech'
p8226
S'VBP'
p8227
sS'CharacterOffsetBegin'
p8228
S'2351'
p8229
stp8230
a(S'not'
p8231
(dp8232
S'NamedEntityTag'
p8233
g104
sS'CharacterOffsetEnd'
p8234
S'2357'
p8235
sS'Lemma'
p8236
S'not'
p8237
sS'PartOfSpeech'
p8238
S'RB'
p8239
sS'CharacterOffsetBegin'
p8240
S'2354'
p8241
stp8242
a(S'understand'
p8243
(dp8244
S'NamedEntityTag'
p8245
g104
sS'CharacterOffsetEnd'
p8246
S'2368'
p8247
sS'Lemma'
p8248
S'understand'
p8249
sS'PartOfSpeech'
p8250
S'VB'
p8251
sS'CharacterOffsetBegin'
p8252
S'2358'
p8253
stp8254
a(S'and'
p8255
(dp8256
S'NamedEntityTag'
p8257
g104
sS'CharacterOffsetEnd'
p8258
S'2372'
p8259
sS'Lemma'
p8260
S'and'
p8261
sS'PartOfSpeech'
p8262
S'CC'
p8263
sS'CharacterOffsetBegin'
p8264
S'2369'
p8265
stp8266
a(S'many'
p8267
(dp8268
S'NamedEntityTag'
p8269
g104
sS'CharacterOffsetEnd'
p8270
S'2377'
p8271
sS'Lemma'
p8272
S'many'
p8273
sS'PartOfSpeech'
p8274
S'JJ'
p8275
sS'CharacterOffsetBegin'
p8276
S'2373'
p8277
stp8278
a(S'people'
p8279
(dp8280
S'NamedEntityTag'
p8281
g104
sS'CharacterOffsetEnd'
p8282
S'2384'
p8283
sS'Lemma'
p8284
S'people'
p8285
sS'PartOfSpeech'
p8286
S'NNS'
p8287
sS'CharacterOffsetBegin'
p8288
S'2378'
p8289
stp8290
a(S'dont'
p8291
(dp8292
S'NamedEntityTag'
p8293
g104
sS'CharacterOffsetEnd'
p8294
S'2389'
p8295
sS'Lemma'
p8296
S'dont'
p8297
sS'PartOfSpeech'
p8298
S'VBP'
p8299
sS'CharacterOffsetBegin'
p8300
S'2385'
p8301
stp8302
a(S'like'
p8303
(dp8304
S'NamedEntityTag'
p8305
g104
sS'CharacterOffsetEnd'
p8306
S'2394'
p8307
sS'Lemma'
p8308
S'like'
p8309
sS'PartOfSpeech'
p8310
S'IN'
p8311
sS'CharacterOffsetBegin'
p8312
S'2390'
p8313
stp8314
a(g241
(dp8315
S'NamedEntityTag'
p8316
g104
sS'CharacterOffsetEnd'
p8317
S'2395'
p8318
sS'Lemma'
p8319
g241
sS'PartOfSpeech'
p8320
g241
sS'CharacterOffsetBegin'
p8321
S'2394'
p8322
stp8323
asa(dp8324
g15
S'(ROOT (S (S (VP (VBD Were) (RB not) (VP (VBG discussing) (NP (PRP$ his) (NN record)) (PP (IN during) (NP (NP (PRP$ his) (NN period)) (PP (IN of) (NP (NN dictatorship)))))))) (PRN (, ,) (SBAR (IN that) (S (NP (DT the) (JJ present) (NN government)) (VP (VBZ does) (RB not) (VP (VB support) (ADVP (IN at) (DT all)))))) (, ,)) (VP (VBD added) (NP (DT the) (NN ambassador))) (. .)))'
p8325
sg17
S'Were not discussing his record during his period of dictatorship, that the present government does not support at all, added the ambassador.'
p8326
sg19
(lp8327
(S'root'
p8328
S'ROOT'
p8329
S'added'
p8330
tp8331
a(S'aux'
p8332
S'discussing'
p8333
S'Were'
p8334
tp8335
a(S'neg'
p8336
S'discussing'
p8337
S'not'
p8338
tp8339
a(S'csubj'
p8340
S'added'
p8341
S'discussing'
p8342
tp8343
a(S'poss'
p8344
S'record'
p8345
S'his'
p8346
tp8347
a(S'dobj'
p8348
S'discussing'
p8349
S'record'
p8350
tp8351
a(S'poss'
p8352
S'period'
p8353
S'his'
p8354
tp8355
a(S'prep_during'
p8356
S'discussing'
p8357
S'period'
p8358
tp8359
a(S'prep_of'
p8360
S'period'
p8361
S'dictatorship'
p8362
tp8363
a(S'mark'
p8364
S'support'
p8365
S'that'
p8366
tp8367
a(S'det'
p8368
S'government'
p8369
S'the'
p8370
tp8371
a(S'amod'
p8372
S'government'
p8373
S'present'
p8374
tp8375
a(S'nsubj'
p8376
S'support'
p8377
S'government'
p8378
tp8379
a(S'aux'
p8380
S'support'
p8381
S'does'
p8382
tp8383
a(S'neg'
p8384
S'support'
p8385
S'not'
p8386
tp8387
a(S'parataxis'
p8388
S'added'
p8389
S'support'
p8390
tp8391
a(S'advmod'
p8392
S'support'
p8393
S'at'
p8394
tp8395
a(S'pobj'
p8396
S'at'
p8397
S'all'
p8398
tp8399
a(S'det'
p8400
S'ambassador'
p8401
S'the'
p8402
tp8403
a(S'dobj'
p8404
S'added'
p8405
S'ambassador'
p8406
tp8407
asg57
(lp8408
(g8328
S'ROOT-0'
p8409
S'added-22'
p8410
tp8411
a(g8332
S'discussing-3'
p8412
S'Were-1'
p8413
tp8414
a(g8336
S'discussing-3'
p8415
S'not-2'
p8416
tp8417
a(g8340
S'added-22'
p8418
S'discussing-3'
p8419
tp8420
a(g8344
S'record-5'
p8421
S'his-4'
p8422
tp8423
a(g8348
S'discussing-3'
p8424
S'record-5'
p8425
tp8426
a(g8352
S'period-8'
p8427
S'his-7'
p8428
tp8429
a(g8356
S'discussing-3'
p8430
S'period-8'
p8431
tp8432
a(g8360
S'period-8'
p8433
S'dictatorship-10'
p8434
tp8435
a(g8364
S'support-18'
p8436
S'that-12'
p8437
tp8438
a(g8368
S'government-15'
p8439
S'the-13'
p8440
tp8441
a(g8372
S'government-15'
p8442
S'present-14'
p8443
tp8444
a(g8376
S'support-18'
p8445
S'government-15'
p8446
tp8447
a(g8380
S'support-18'
p8448
S'does-16'
p8449
tp8450
a(g8384
S'support-18'
p8451
S'not-17'
p8452
tp8453
a(g8388
S'added-22'
p8454
S'support-18'
p8455
tp8456
a(g8392
S'support-18'
p8457
S'at-19'
p8458
tp8459
a(g8396
S'at-19'
p8460
S'all-20'
p8461
tp8462
a(g8400
S'ambassador-24'
p8463
S'the-23'
p8464
tp8465
a(g8404
S'added-22'
p8466
S'ambassador-24'
p8467
tp8468
asg86
(lp8469
(S'Were'
p8470
(dp8471
S'NamedEntityTag'
p8472
g104
sS'CharacterOffsetEnd'
p8473
S'2400'
p8474
sS'Lemma'
p8475
S'be'
p8476
sS'PartOfSpeech'
p8477
S'VBD'
p8478
sS'CharacterOffsetBegin'
p8479
S'2396'
p8480
stp8481
a(S'not'
p8482
(dp8483
S'NamedEntityTag'
p8484
g104
sS'CharacterOffsetEnd'
p8485
S'2404'
p8486
sS'Lemma'
p8487
S'not'
p8488
sS'PartOfSpeech'
p8489
S'RB'
p8490
sS'CharacterOffsetBegin'
p8491
S'2401'
p8492
stp8493
a(S'discussing'
p8494
(dp8495
S'NamedEntityTag'
p8496
g104
sS'CharacterOffsetEnd'
p8497
S'2415'
p8498
sS'Lemma'
p8499
S'discuss'
p8500
sS'PartOfSpeech'
p8501
S'VBG'
p8502
sS'CharacterOffsetBegin'
p8503
S'2405'
p8504
stp8505
a(S'his'
p8506
(dp8507
S'NamedEntityTag'
p8508
g104
sS'CharacterOffsetEnd'
p8509
S'2419'
p8510
sS'Lemma'
p8511
S'he'
p8512
sS'PartOfSpeech'
p8513
S'PRP$'
p8514
sS'CharacterOffsetBegin'
p8515
S'2416'
p8516
stp8517
a(S'record'
p8518
(dp8519
S'NamedEntityTag'
p8520
g104
sS'CharacterOffsetEnd'
p8521
S'2426'
p8522
sS'Lemma'
p8523
S'record'
p8524
sS'PartOfSpeech'
p8525
S'NN'
p8526
sS'CharacterOffsetBegin'
p8527
S'2420'
p8528
stp8529
a(S'during'
p8530
(dp8531
S'NamedEntityTag'
p8532
g104
sS'CharacterOffsetEnd'
p8533
S'2433'
p8534
sS'Lemma'
p8535
S'during'
p8536
sS'PartOfSpeech'
p8537
S'IN'
p8538
sS'CharacterOffsetBegin'
p8539
S'2427'
p8540
stp8541
a(S'his'
p8542
(dp8543
S'NamedEntityTag'
p8544
g104
sS'CharacterOffsetEnd'
p8545
S'2437'
p8546
sS'Lemma'
p8547
S'he'
p8548
sS'PartOfSpeech'
p8549
S'PRP$'
p8550
sS'CharacterOffsetBegin'
p8551
S'2434'
p8552
stp8553
a(S'period'
p8554
(dp8555
S'NamedEntityTag'
p8556
g104
sS'CharacterOffsetEnd'
p8557
S'2444'
p8558
sS'Lemma'
p8559
S'period'
p8560
sS'PartOfSpeech'
p8561
S'NN'
p8562
sS'CharacterOffsetBegin'
p8563
S'2438'
p8564
stp8565
a(S'of'
p8566
(dp8567
S'NamedEntityTag'
p8568
g104
sS'CharacterOffsetEnd'
p8569
S'2447'
p8570
sS'Lemma'
p8571
S'of'
p8572
sS'PartOfSpeech'
p8573
S'IN'
p8574
sS'CharacterOffsetBegin'
p8575
S'2445'
p8576
stp8577
a(S'dictatorship'
p8578
(dp8579
S'NamedEntityTag'
p8580
g104
sS'CharacterOffsetEnd'
p8581
S'2460'
p8582
sS'Lemma'
p8583
S'dictatorship'
p8584
sS'PartOfSpeech'
p8585
S'NN'
p8586
sS'CharacterOffsetBegin'
p8587
S'2448'
p8588
stp8589
a(g1634
(dp8590
S'NamedEntityTag'
p8591
g104
sS'CharacterOffsetEnd'
p8592
S'2461'
p8593
sS'Lemma'
p8594
g1634
sS'PartOfSpeech'
p8595
g1634
sS'CharacterOffsetBegin'
p8596
S'2460'
p8597
stp8598
a(S'that'
p8599
(dp8600
S'NamedEntityTag'
p8601
g104
sS'CharacterOffsetEnd'
p8602
S'2466'
p8603
sS'Lemma'
p8604
S'that'
p8605
sS'PartOfSpeech'
p8606
S'IN'
p8607
sS'CharacterOffsetBegin'
p8608
S'2462'
p8609
stp8610
a(S'the'
p8611
(dp8612
S'NamedEntityTag'
p8613
g104
sS'CharacterOffsetEnd'
p8614
S'2470'
p8615
sS'Lemma'
p8616
S'the'
p8617
sS'PartOfSpeech'
p8618
S'DT'
p8619
sS'CharacterOffsetBegin'
p8620
S'2467'
p8621
stp8622
a(S'present'
p8623
(dp8624
S'NormalizedNamedEntityTag'
p8625
S'PRESENT_REF'
p8626
sS'Timex'
p8627
S'<TIMEX3 tid="t17" type="DATE" value="PRESENT_REF">present</TIMEX3>'
p8628
sS'Lemma'
p8629
S'present'
p8630
sS'CharacterOffsetEnd'
p8631
S'2478'
p8632
sS'PartOfSpeech'
p8633
S'JJ'
p8634
sS'CharacterOffsetBegin'
p8635
S'2471'
p8636
sS'NamedEntityTag'
p8637
S'DATE'
p8638
stp8639
a(S'government'
p8640
(dp8641
S'NamedEntityTag'
p8642
g104
sS'CharacterOffsetEnd'
p8643
S'2489'
p8644
sS'Lemma'
p8645
S'government'
p8646
sS'PartOfSpeech'
p8647
S'NN'
p8648
sS'CharacterOffsetBegin'
p8649
S'2479'
p8650
stp8651
a(S'does'
p8652
(dp8653
S'NamedEntityTag'
p8654
g104
sS'CharacterOffsetEnd'
p8655
S'2494'
p8656
sS'Lemma'
p8657
S'do'
p8658
sS'PartOfSpeech'
p8659
S'VBZ'
p8660
sS'CharacterOffsetBegin'
p8661
S'2490'
p8662
stp8663
a(S'not'
p8664
(dp8665
S'NamedEntityTag'
p8666
g104
sS'CharacterOffsetEnd'
p8667
S'2498'
p8668
sS'Lemma'
p8669
S'not'
p8670
sS'PartOfSpeech'
p8671
S'RB'
p8672
sS'CharacterOffsetBegin'
p8673
S'2495'
p8674
stp8675
a(S'support'
p8676
(dp8677
S'NamedEntityTag'
p8678
g104
sS'CharacterOffsetEnd'
p8679
S'2506'
p8680
sS'Lemma'
p8681
S'support'
p8682
sS'PartOfSpeech'
p8683
S'VB'
p8684
sS'CharacterOffsetBegin'
p8685
S'2499'
p8686
stp8687
a(S'at'
p8688
(dp8689
S'NamedEntityTag'
p8690
g104
sS'CharacterOffsetEnd'
p8691
S'2509'
p8692
sS'Lemma'
p8693
S'at'
p8694
sS'PartOfSpeech'
p8695
S'IN'
p8696
sS'CharacterOffsetBegin'
p8697
S'2507'
p8698
stp8699
a(S'all'
p8700
(dp8701
S'NamedEntityTag'
p8702
g104
sS'CharacterOffsetEnd'
p8703
S'2513'
p8704
sS'Lemma'
p8705
S'all'
p8706
sS'PartOfSpeech'
p8707
S'DT'
p8708
sS'CharacterOffsetBegin'
p8709
S'2510'
p8710
stp8711
a(g1634
(dp8712
S'NamedEntityTag'
p8713
g104
sS'CharacterOffsetEnd'
p8714
S'2514'
p8715
sS'Lemma'
p8716
g1634
sS'PartOfSpeech'
p8717
g1634
sS'CharacterOffsetBegin'
p8718
S'2513'
p8719
stp8720
a(S'added'
p8721
(dp8722
S'NamedEntityTag'
p8723
g104
sS'CharacterOffsetEnd'
p8724
S'2520'
p8725
sS'Lemma'
p8726
S'add'
p8727
sS'PartOfSpeech'
p8728
S'VBD'
p8729
sS'CharacterOffsetBegin'
p8730
S'2515'
p8731
stp8732
a(S'the'
p8733
(dp8734
S'NamedEntityTag'
p8735
g104
sS'CharacterOffsetEnd'
p8736
S'2524'
p8737
sS'Lemma'
p8738
S'the'
p8739
sS'PartOfSpeech'
p8740
S'DT'
p8741
sS'CharacterOffsetBegin'
p8742
S'2521'
p8743
stp8744
a(S'ambassador'
p8745
(dp8746
S'NamedEntityTag'
p8747
g104
sS'CharacterOffsetEnd'
p8748
S'2535'
p8749
sS'Lemma'
p8750
S'ambassador'
p8751
sS'PartOfSpeech'
p8752
S'NN'
p8753
sS'CharacterOffsetBegin'
p8754
S'2525'
p8755
stp8756
a(g241
(dp8757
S'NamedEntityTag'
p8758
g104
sS'CharacterOffsetEnd'
p8759
S'2536'
p8760
sS'Lemma'
p8761
g241
sS'PartOfSpeech'
p8762
g241
sS'CharacterOffsetBegin'
p8763
S'2535'
p8764
stp8765
asa(dp8766
g15
S'(ROOT (S (S (NP (NP (DT A) (JJ Chilean) (NN specialist)) (PP (IN in) (NP (JJ international) (NN law)))) (VP (VBD was) (VP (VBG traveling) (PP (TO to) (NP (NP (NNP London)) (PP (IN for) (NP (JJ further) (NNS meetings))))) (PP (IN with) (NP (JJ British) (NNS officials)))))) (, ,) (NP (NNP Artaza)) (VP (VBD said)) (. .)))'
p8767
sg17
S'A Chilean specialist in international law was traveling to London for further meetings with British officials, Artaza said.'
p8768
sg19
(lp8769
(S'root'
p8770
S'ROOT'
p8771
S'said'
p8772
tp8773
a(S'det'
p8774
S'specialist'
p8775
S'A'
p8776
tp8777
a(S'amod'
p8778
S'specialist'
p8779
S'Chilean'
p8780
tp8781
a(S'nsubj'
p8782
S'traveling'
p8783
S'specialist'
p8784
tp8785
a(S'amod'
p8786
S'law'
p8787
S'international'
p8788
tp8789
a(S'prep_in'
p8790
S'specialist'
p8791
S'law'
p8792
tp8793
a(S'aux'
p8794
S'traveling'
p8795
S'was'
p8796
tp8797
a(S'ccomp'
p8798
S'said'
p8799
S'traveling'
p8800
tp8801
a(S'prep_to'
p8802
S'traveling'
p8803
S'London'
p8804
tp8805
a(S'amod'
p8806
S'meetings'
p8807
S'further'
p8808
tp8809
a(S'prep_for'
p8810
S'London'
p8811
S'meetings'
p8812
tp8813
a(S'amod'
p8814
S'officials'
p8815
S'British'
p8816
tp8817
a(S'prep_with'
p8818
S'traveling'
p8819
S'officials'
p8820
tp8821
a(S'nsubj'
p8822
S'said'
p8823
S'Artaza'
p8824
tp8825
asg57
(lp8826
(g8770
S'ROOT-0'
p8827
S'said-19'
p8828
tp8829
a(g8774
S'specialist-3'
p8830
S'A-1'
p8831
tp8832
a(g8778
S'specialist-3'
p8833
S'Chilean-2'
p8834
tp8835
a(g8782
S'traveling-8'
p8836
S'specialist-3'
p8837
tp8838
a(g8786
S'law-6'
p8839
S'international-5'
p8840
tp8841
a(g8790
S'specialist-3'
p8842
S'law-6'
p8843
tp8844
a(g8794
S'traveling-8'
p8845
S'was-7'
p8846
tp8847
a(g8798
S'said-19'
p8848
S'traveling-8'
p8849
tp8850
a(g8802
S'traveling-8'
p8851
S'London-10'
p8852
tp8853
a(g8806
S'meetings-13'
p8854
S'further-12'
p8855
tp8856
a(g8810
S'London-10'
p8857
S'meetings-13'
p8858
tp8859
a(g8814
S'officials-16'
p8860
S'British-15'
p8861
tp8862
a(g8818
S'traveling-8'
p8863
S'officials-16'
p8864
tp8865
a(g8822
S'said-19'
p8866
S'Artaza-18'
p8867
tp8868
asg86
(lp8869
(g8776
(dp8870
S'NamedEntityTag'
p8871
g104
sS'CharacterOffsetEnd'
p8872
S'2538'
p8873
sS'Lemma'
p8874
g1164
sS'PartOfSpeech'
p8875
S'DT'
p8876
sS'CharacterOffsetBegin'
p8877
S'2537'
p8878
stp8879
a(S'Chilean'
p8880
(dp8881
S'NamedEntityTag'
p8882
S'MISC'
p8883
sS'CharacterOffsetEnd'
p8884
S'2546'
p8885
sS'Lemma'
p8886
S'chilean'
p8887
sS'PartOfSpeech'
p8888
S'JJ'
p8889
sS'CharacterOffsetBegin'
p8890
S'2539'
p8891
stp8892
a(S'specialist'
p8893
(dp8894
S'NamedEntityTag'
p8895
g104
sS'CharacterOffsetEnd'
p8896
S'2557'
p8897
sS'Lemma'
p8898
S'specialist'
p8899
sS'PartOfSpeech'
p8900
S'NN'
p8901
sS'CharacterOffsetBegin'
p8902
S'2547'
p8903
stp8904
a(S'in'
p8905
(dp8906
S'NamedEntityTag'
p8907
g104
sS'CharacterOffsetEnd'
p8908
S'2560'
p8909
sS'Lemma'
p8910
S'in'
p8911
sS'PartOfSpeech'
p8912
S'IN'
p8913
sS'CharacterOffsetBegin'
p8914
S'2558'
p8915
stp8916
a(S'international'
p8917
(dp8918
S'NamedEntityTag'
p8919
g104
sS'CharacterOffsetEnd'
p8920
S'2574'
p8921
sS'Lemma'
p8922
S'international'
p8923
sS'PartOfSpeech'
p8924
S'JJ'
p8925
sS'CharacterOffsetBegin'
p8926
S'2561'
p8927
stp8928
a(S'law'
p8929
(dp8930
S'NamedEntityTag'
p8931
g104
sS'CharacterOffsetEnd'
p8932
S'2578'
p8933
sS'Lemma'
p8934
S'law'
p8935
sS'PartOfSpeech'
p8936
S'NN'
p8937
sS'CharacterOffsetBegin'
p8938
S'2575'
p8939
stp8940
a(S'was'
p8941
(dp8942
S'NamedEntityTag'
p8943
g104
sS'CharacterOffsetEnd'
p8944
S'2582'
p8945
sS'Lemma'
p8946
S'be'
p8947
sS'PartOfSpeech'
p8948
S'VBD'
p8949
sS'CharacterOffsetBegin'
p8950
S'2579'
p8951
stp8952
a(S'traveling'
p8953
(dp8954
S'NamedEntityTag'
p8955
g104
sS'CharacterOffsetEnd'
p8956
S'2592'
p8957
sS'Lemma'
p8958
S'travel'
p8959
sS'PartOfSpeech'
p8960
S'VBG'
p8961
sS'CharacterOffsetBegin'
p8962
S'2583'
p8963
stp8964
a(S'to'
p8965
(dp8966
S'NamedEntityTag'
p8967
g104
sS'CharacterOffsetEnd'
p8968
S'2595'
p8969
sS'Lemma'
p8970
S'to'
p8971
sS'PartOfSpeech'
p8972
S'TO'
p8973
sS'CharacterOffsetBegin'
p8974
S'2593'
p8975
stp8976
a(S'London'
p8977
(dp8978
S'NamedEntityTag'
p8979
S'LOCATION'
p8980
sS'CharacterOffsetEnd'
p8981
S'2602'
p8982
sS'Lemma'
p8983
S'London'
p8984
sS'PartOfSpeech'
p8985
S'NNP'
p8986
sS'CharacterOffsetBegin'
p8987
S'2596'
p8988
stp8989
a(S'for'
p8990
(dp8991
S'NamedEntityTag'
p8992
g104
sS'CharacterOffsetEnd'
p8993
S'2606'
p8994
sS'Lemma'
p8995
S'for'
p8996
sS'PartOfSpeech'
p8997
S'IN'
p8998
sS'CharacterOffsetBegin'
p8999
S'2603'
p9000
stp9001
a(S'further'
p9002
(dp9003
S'NamedEntityTag'
p9004
g104
sS'CharacterOffsetEnd'
p9005
S'2614'
p9006
sS'Lemma'
p9007
S'further'
p9008
sS'PartOfSpeech'
p9009
S'JJ'
p9010
sS'CharacterOffsetBegin'
p9011
S'2607'
p9012
stp9013
a(S'meetings'
p9014
(dp9015
S'NamedEntityTag'
p9016
g104
sS'CharacterOffsetEnd'
p9017
S'2623'
p9018
sS'Lemma'
p9019
S'meeting'
p9020
sS'PartOfSpeech'
p9021
S'NNS'
p9022
sS'CharacterOffsetBegin'
p9023
S'2615'
p9024
stp9025
a(S'with'
p9026
(dp9027
S'NamedEntityTag'
p9028
g104
sS'CharacterOffsetEnd'
p9029
S'2628'
p9030
sS'Lemma'
p9031
S'with'
p9032
sS'PartOfSpeech'
p9033
S'IN'
p9034
sS'CharacterOffsetBegin'
p9035
S'2624'
p9036
stp9037
a(S'British'
p9038
(dp9039
S'NamedEntityTag'
p9040
S'MISC'
p9041
sS'CharacterOffsetEnd'
p9042
S'2636'
p9043
sS'Lemma'
p9044
S'british'
p9045
sS'PartOfSpeech'
p9046
S'JJ'
p9047
sS'CharacterOffsetBegin'
p9048
S'2629'
p9049
stp9050
a(S'officials'
p9051
(dp9052
S'NamedEntityTag'
p9053
g104
sS'CharacterOffsetEnd'
p9054
S'2646'
p9055
sS'Lemma'
p9056
S'official'
p9057
sS'PartOfSpeech'
p9058
S'NNS'
p9059
sS'CharacterOffsetBegin'
p9060
S'2637'
p9061
stp9062
a(g1634
(dp9063
S'NamedEntityTag'
p9064
g104
sS'CharacterOffsetEnd'
p9065
S'2647'
p9066
sS'Lemma'
p9067
g1634
sS'PartOfSpeech'
p9068
g1634
sS'CharacterOffsetBegin'
p9069
S'2646'
p9070
stp9071
a(S'Artaza'
p9072
(dp9073
S'NamedEntityTag'
p9074
S'PERSON'
p9075
sS'CharacterOffsetEnd'
p9076
S'2654'
p9077
sS'Lemma'
p9078
S'Artaza'
p9079
sS'PartOfSpeech'
p9080
S'NNP'
p9081
sS'CharacterOffsetBegin'
p9082
S'2648'
p9083
stp9084
a(S'said'
p9085
(dp9086
S'NamedEntityTag'
p9087
g104
sS'CharacterOffsetEnd'
p9088
S'2659'
p9089
sS'Lemma'
p9090
S'say'
p9091
sS'PartOfSpeech'
p9092
S'VBD'
p9093
sS'CharacterOffsetBegin'
p9094
S'2655'
p9095
stp9096
a(g241
(dp9097
S'NamedEntityTag'
p9098
g104
sS'CharacterOffsetEnd'
p9099
S'2660'
p9100
sS'Lemma'
p9101
g241
sS'PartOfSpeech'
p9102
g241
sS'CharacterOffsetBegin'
p9103
S'2659'
p9104
stp9105
asa(dp9106
g15
S'(ROOT (S (NP (NP (NNP Pinochet)) (, ,) (VP (VBN expected) (S (VP (TO to) (VP (VB be) (VP (VBN hospitalized) (PP (IN for) (ADVP (RB perhaps))) (NP-TMP (QP (CD two) (JJR more)) (NNS weeks)))))))) (VP (VBZ faces) (NP (DT a) (JJ long) (NN battle)) (PP (IN through) (NP (JJ British) (NNS courts))) (S (VP (TO to) (VP (VB avoid) (NP (NN extradition)) (, ,) (S (VP (VBG questioning) (PP (IN by) (NP (NP (NP (CD two) (JJ Spanish) (NNS judges)) (SBAR (WHNP (WP who)) (S (VP (VBD instigated) (NP (DT the) (NNS proceedings)))))) (, ,) (CC and) (NP (NP (NP (DT an) (NN appearance)) (PP (IN at) (NP (NNPS Londons)))) (NP (NNP Bow) (NNP Street) (NNS magistrates) (NN court))))))))))) (. .)))'
p9107
sg17
S'Pinochet, expected to be hospitalized for perhaps two more weeks faces a long battle through British courts to avoid extradition, questioning by two Spanish judges who instigated the proceedings, and an appearance at Londons Bow Street magistrates court.'
p9108
sg19
(lp9109
(S'root'
p9110
S'ROOT'
p9111
S'faces'
p9112
tp9113
a(S'nsubj'
p9114
S'faces'
p9115
S'Pinochet'
p9116
tp9117
a(S'partmod'
p9118
S'Pinochet'
p9119
S'expected'
p9120
tp9121
a(S'aux'
p9122
S'hospitalized'
p9123
S'to'
p9124
tp9125
a(S'auxpass'
p9126
S'hospitalized'
p9127
S'be'
p9128
tp9129
a(S'xcomp'
p9130
S'expected'
p9131
S'hospitalized'
p9132
tp9133
a(S'prep'
p9134
S'hospitalized'
p9135
S'for'
p9136
tp9137
a(S'pcomp'
p9138
S'for'
p9139
S'perhaps'
p9140
tp9141
a(S'num'
p9142
S'weeks'
p9143
S'two'
p9144
tp9145
a(S'quantmod'
p9146
S'two'
p9147
S'more'
p9148
tp9149
a(S'tmod'
p9150
S'hospitalized'
p9151
S'weeks'
p9152
tp9153
a(S'det'
p9154
S'battle'
p9155
g1164
tp9156
a(S'amod'
p9157
S'battle'
p9158
S'long'
p9159
tp9160
a(S'dobj'
p9161
S'faces'
p9162
S'battle'
p9163
tp9164
a(S'amod'
p9165
S'courts'
p9166
S'British'
p9167
tp9168
a(S'prep_through'
p9169
S'faces'
p9170
S'courts'
p9171
tp9172
a(S'aux'
p9173
S'avoid'
p9174
S'to'
p9175
tp9176
a(S'xcomp'
p9177
S'faces'
p9178
S'avoid'
p9179
tp9180
a(S'dobj'
p9181
S'avoid'
p9182
S'extradition'
p9183
tp9184
a(S'partmod'
p9185
S'avoid'
p9186
S'questioning'
p9187
tp9188
a(S'num'
p9189
S'judges'
p9190
S'two'
p9191
tp9192
a(S'amod'
p9193
S'judges'
p9194
S'Spanish'
p9195
tp9196
a(S'agent'
p9197
S'questioning'
p9198
S'judges'
p9199
tp9200
a(S'nsubj'
p9201
S'instigated'
p9202
S'who'
p9203
tp9204
a(S'rcmod'
p9205
S'judges'
p9206
S'instigated'
p9207
tp9208
a(S'det'
p9209
S'proceedings'
p9210
S'the'
p9211
tp9212
a(S'dobj'
p9213
S'instigated'
p9214
S'proceedings'
p9215
tp9216
a(S'det'
p9217
S'appearance'
p9218
S'an'
p9219
tp9220
a(S'conj_and'
p9221
S'judges'
p9222
S'appearance'
p9223
tp9224
a(S'prep_at'
p9225
S'appearance'
p9226
S'Londons'
p9227
tp9228
a(S'nn'
p9229
S'court'
p9230
S'Bow'
p9231
tp9232
a(S'nn'
p9233
S'court'
p9234
S'Street'
p9235
tp9236
a(S'nn'
p9237
S'court'
p9238
S'magistrates'
p9239
tp9240
a(S'dep'
p9241
S'appearance'
p9242
S'court'
p9243
tp9244
asg57
(lp9245
(g9110
S'ROOT-0'
p9246
S'faces-12'
p9247
tp9248
a(g9114
S'faces-12'
p9249
S'Pinochet-1'
p9250
tp9251
a(g9118
S'Pinochet-1'
p9252
S'expected-3'
p9253
tp9254
a(g9122
S'hospitalized-6'
p9255
S'to-4'
p9256
tp9257
a(g9126
S'hospitalized-6'
p9258
S'be-5'
p9259
tp9260
a(g9130
S'expected-3'
p9261
S'hospitalized-6'
p9262
tp9263
a(g9134
S'hospitalized-6'
p9264
S'for-7'
p9265
tp9266
a(g9138
S'for-7'
p9267
S'perhaps-8'
p9268
tp9269
a(g9142
S'weeks-11'
p9270
S'two-9'
p9271
tp9272
a(g9146
S'two-9'
p9273
S'more-10'
p9274
tp9275
a(g9150
S'hospitalized-6'
p9276
S'weeks-11'
p9277
tp9278
a(g9154
S'battle-15'
p9279
S'a-13'
p9280
tp9281
a(g9157
S'battle-15'
p9282
S'long-14'
p9283
tp9284
a(g9161
S'faces-12'
p9285
S'battle-15'
p9286
tp9287
a(g9165
S'courts-18'
p9288
S'British-17'
p9289
tp9290
a(g9169
S'faces-12'
p9291
S'courts-18'
p9292
tp9293
a(g9173
S'avoid-20'
p9294
S'to-19'
p9295
tp9296
a(g9177
S'faces-12'
p9297
S'avoid-20'
p9298
tp9299
a(g9181
S'avoid-20'
p9300
S'extradition-21'
p9301
tp9302
a(g9185
S'avoid-20'
p9303
S'questioning-23'
p9304
tp9305
a(g9189
S'judges-27'
p9306
S'two-25'
p9307
tp9308
a(g9193
S'judges-27'
p9309
S'Spanish-26'
p9310
tp9311
a(g9197
S'questioning-23'
p9312
S'judges-27'
p9313
tp9314
a(g9201
S'instigated-29'
p9315
S'who-28'
p9316
tp9317
a(g9205
S'judges-27'
p9318
S'instigated-29'
p9319
tp9320
a(g9209
S'proceedings-31'
p9321
S'the-30'
p9322
tp9323
a(g9213
S'instigated-29'
p9324
S'proceedings-31'
p9325
tp9326
a(g9217
S'appearance-35'
p9327
S'an-34'
p9328
tp9329
a(g9221
S'judges-27'
p9330
S'appearance-35'
p9331
tp9332
a(g9225
S'appearance-35'
p9333
S'Londons-37'
p9334
tp9335
a(g9229
S'court-41'
p9336
S'Bow-38'
p9337
tp9338
a(g9233
S'court-41'
p9339
S'Street-39'
p9340
tp9341
a(g9237
S'court-41'
p9342
S'magistrates-40'
p9343
tp9344
a(g9241
S'appearance-35'
p9345
S'court-41'
p9346
tp9347
asg86
(lp9348
(S'Pinochet'
p9349
(dp9350
S'NamedEntityTag'
p9351
S'PERSON'
p9352
sS'CharacterOffsetEnd'
p9353
S'2669'
p9354
sS'Lemma'
p9355
S'Pinochet'
p9356
sS'PartOfSpeech'
p9357
S'NNP'
p9358
sS'CharacterOffsetBegin'
p9359
S'2661'
p9360
stp9361
a(g1634
(dp9362
S'NamedEntityTag'
p9363
g104
sS'CharacterOffsetEnd'
p9364
S'2670'
p9365
sS'Lemma'
p9366
g1634
sS'PartOfSpeech'
p9367
g1634
sS'CharacterOffsetBegin'
p9368
S'2669'
p9369
stp9370
a(S'expected'
p9371
(dp9372
S'NamedEntityTag'
p9373
g104
sS'CharacterOffsetEnd'
p9374
S'2679'
p9375
sS'Lemma'
p9376
S'expect'
p9377
sS'PartOfSpeech'
p9378
S'VBN'
p9379
sS'CharacterOffsetBegin'
p9380
S'2671'
p9381
stp9382
a(S'to'
p9383
(dp9384
S'NamedEntityTag'
p9385
g104
sS'CharacterOffsetEnd'
p9386
S'2682'
p9387
sS'Lemma'
p9388
S'to'
p9389
sS'PartOfSpeech'
p9390
S'TO'
p9391
sS'CharacterOffsetBegin'
p9392
S'2680'
p9393
stp9394
a(S'be'
p9395
(dp9396
S'NamedEntityTag'
p9397
g104
sS'CharacterOffsetEnd'
p9398
S'2685'
p9399
sS'Lemma'
p9400
S'be'
p9401
sS'PartOfSpeech'
p9402
S'VB'
p9403
sS'CharacterOffsetBegin'
p9404
S'2683'
p9405
stp9406
a(S'hospitalized'
p9407
(dp9408
S'NamedEntityTag'
p9409
g104
sS'CharacterOffsetEnd'
p9410
S'2698'
p9411
sS'Lemma'
p9412
S'hospitalize'
p9413
sS'PartOfSpeech'
p9414
S'VBN'
p9415
sS'CharacterOffsetBegin'
p9416
S'2686'
p9417
stp9418
a(S'for'
p9419
(dp9420
S'NamedEntityTag'
p9421
g104
sS'CharacterOffsetEnd'
p9422
S'2702'
p9423
sS'Lemma'
p9424
S'for'
p9425
sS'PartOfSpeech'
p9426
S'IN'
p9427
sS'CharacterOffsetBegin'
p9428
S'2699'
p9429
stp9430
a(S'perhaps'
p9431
(dp9432
S'NamedEntityTag'
p9433
g104
sS'CharacterOffsetEnd'
p9434
S'2710'
p9435
sS'Lemma'
p9436
S'perhaps'
p9437
sS'PartOfSpeech'
p9438
S'RB'
p9439
sS'CharacterOffsetBegin'
p9440
S'2703'
p9441
stp9442
a(S'two'
p9443
(dp9444
S'NormalizedNamedEntityTag'
p9445
S'2.0'
p9446
sS'Lemma'
p9447
S'two'
p9448
sS'CharacterOffsetEnd'
p9449
S'2714'
p9450
sS'PartOfSpeech'
p9451
S'CD'
p9452
sS'CharacterOffsetBegin'
p9453
S'2711'
p9454
sS'NamedEntityTag'
p9455
S'NUMBER'
p9456
stp9457
a(S'more'
p9458
(dp9459
S'NamedEntityTag'
p9460
g104
sS'CharacterOffsetEnd'
p9461
S'2719'
p9462
sS'Lemma'
p9463
S'more'
p9464
sS'PartOfSpeech'
p9465
S'JJR'
p9466
sS'CharacterOffsetBegin'
p9467
S'2715'
p9468
stp9469
a(S'weeks'
p9470
(dp9471
S'NormalizedNamedEntityTag'
p9472
S'PXW'
p9473
sS'Timex'
p9474
S'<TIMEX3 tid="t18" type="DURATION" value="PXW">weeks</TIMEX3>'
p9475
sS'Lemma'
p9476
S'week'
p9477
sS'CharacterOffsetEnd'
p9478
S'2725'
p9479
sS'PartOfSpeech'
p9480
S'NNS'
p9481
sS'CharacterOffsetBegin'
p9482
S'2720'
p9483
sS'NamedEntityTag'
p9484
S'DURATION'
p9485
stp9486
a(S'faces'
p9487
(dp9488
S'NamedEntityTag'
p9489
g104
sS'CharacterOffsetEnd'
p9490
S'2731'
p9491
sS'Lemma'
p9492
S'face'
p9493
sS'PartOfSpeech'
p9494
S'VBZ'
p9495
sS'CharacterOffsetBegin'
p9496
S'2726'
p9497
stp9498
a(g1164
(dp9499
S'NamedEntityTag'
p9500
g104
sS'CharacterOffsetEnd'
p9501
S'2733'
p9502
sS'Lemma'
p9503
g1164
sS'PartOfSpeech'
p9504
S'DT'
p9505
sS'CharacterOffsetBegin'
p9506
S'2732'
p9507
stp9508
a(S'long'
p9509
(dp9510
S'NamedEntityTag'
p9511
g104
sS'CharacterOffsetEnd'
p9512
S'2738'
p9513
sS'Lemma'
p9514
S'long'
p9515
sS'PartOfSpeech'
p9516
S'JJ'
p9517
sS'CharacterOffsetBegin'
p9518
S'2734'
p9519
stp9520
a(S'battle'
p9521
(dp9522
S'NamedEntityTag'
p9523
g104
sS'CharacterOffsetEnd'
p9524
S'2745'
p9525
sS'Lemma'
p9526
S'battle'
p9527
sS'PartOfSpeech'
p9528
S'NN'
p9529
sS'CharacterOffsetBegin'
p9530
S'2739'
p9531
stp9532
a(S'through'
p9533
(dp9534
S'NamedEntityTag'
p9535
g104
sS'CharacterOffsetEnd'
p9536
S'2753'
p9537
sS'Lemma'
p9538
S'through'
p9539
sS'PartOfSpeech'
p9540
S'IN'
p9541
sS'CharacterOffsetBegin'
p9542
S'2746'
p9543
stp9544
a(S'British'
p9545
(dp9546
S'NamedEntityTag'
p9547
S'MISC'
p9548
sS'CharacterOffsetEnd'
p9549
S'2761'
p9550
sS'Lemma'
p9551
S'british'
p9552
sS'PartOfSpeech'
p9553
S'JJ'
p9554
sS'CharacterOffsetBegin'
p9555
S'2754'
p9556
stp9557
a(S'courts'
p9558
(dp9559
S'NamedEntityTag'
p9560
g104
sS'CharacterOffsetEnd'
p9561
S'2768'
p9562
sS'Lemma'
p9563
S'court'
p9564
sS'PartOfSpeech'
p9565
S'NNS'
p9566
sS'CharacterOffsetBegin'
p9567
S'2762'
p9568
stp9569
a(S'to'
p9570
(dp9571
S'NamedEntityTag'
p9572
g104
sS'CharacterOffsetEnd'
p9573
S'2771'
p9574
sS'Lemma'
p9575
S'to'
p9576
sS'PartOfSpeech'
p9577
S'TO'
p9578
sS'CharacterOffsetBegin'
p9579
S'2769'
p9580
stp9581
a(S'avoid'
p9582
(dp9583
S'NamedEntityTag'
p9584
g104
sS'CharacterOffsetEnd'
p9585
S'2777'
p9586
sS'Lemma'
p9587
S'avoid'
p9588
sS'PartOfSpeech'
p9589
S'VB'
p9590
sS'CharacterOffsetBegin'
p9591
S'2772'
p9592
stp9593
a(S'extradition'
p9594
(dp9595
S'NamedEntityTag'
p9596
g104
sS'CharacterOffsetEnd'
p9597
S'2789'
p9598
sS'Lemma'
p9599
S'extradition'
p9600
sS'PartOfSpeech'
p9601
S'NN'
p9602
sS'CharacterOffsetBegin'
p9603
S'2778'
p9604
stp9605
a(g1634
(dp9606
S'NamedEntityTag'
p9607
g104
sS'CharacterOffsetEnd'
p9608
S'2790'
p9609
sS'Lemma'
p9610
g1634
sS'PartOfSpeech'
p9611
g1634
sS'CharacterOffsetBegin'
p9612
S'2789'
p9613
stp9614
a(S'questioning'
p9615
(dp9616
S'NamedEntityTag'
p9617
g104
sS'CharacterOffsetEnd'
p9618
S'2802'
p9619
sS'Lemma'
p9620
S'question'
p9621
sS'PartOfSpeech'
p9622
S'VBG'
p9623
sS'CharacterOffsetBegin'
p9624
S'2791'
p9625
stp9626
a(S'by'
p9627
(dp9628
S'NamedEntityTag'
p9629
g104
sS'CharacterOffsetEnd'
p9630
S'2805'
p9631
sS'Lemma'
p9632
S'by'
p9633
sS'PartOfSpeech'
p9634
S'IN'
p9635
sS'CharacterOffsetBegin'
p9636
S'2803'
p9637
stp9638
a(S'two'
p9639
(dp9640
S'NormalizedNamedEntityTag'
p9641
S'2.0'
p9642
sS'Lemma'
p9643
S'two'
p9644
sS'CharacterOffsetEnd'
p9645
S'2809'
p9646
sS'PartOfSpeech'
p9647
S'CD'
p9648
sS'CharacterOffsetBegin'
p9649
S'2806'
p9650
sS'NamedEntityTag'
p9651
S'NUMBER'
p9652
stp9653
a(S'Spanish'
p9654
(dp9655
S'NamedEntityTag'
p9656
S'MISC'
p9657
sS'CharacterOffsetEnd'
p9658
S'2817'
p9659
sS'Lemma'
p9660
S'spanish'
p9661
sS'PartOfSpeech'
p9662
S'JJ'
p9663
sS'CharacterOffsetBegin'
p9664
S'2810'
p9665
stp9666
a(S'judges'
p9667
(dp9668
S'NamedEntityTag'
p9669
g104
sS'CharacterOffsetEnd'
p9670
S'2824'
p9671
sS'Lemma'
p9672
S'judge'
p9673
sS'PartOfSpeech'
p9674
S'NNS'
p9675
sS'CharacterOffsetBegin'
p9676
S'2818'
p9677
stp9678
a(S'who'
p9679
(dp9680
S'NamedEntityTag'
p9681
g104
sS'CharacterOffsetEnd'
p9682
S'2828'
p9683
sS'Lemma'
p9684
S'who'
p9685
sS'PartOfSpeech'
p9686
S'WP'
p9687
sS'CharacterOffsetBegin'
p9688
S'2825'
p9689
stp9690
a(S'instigated'
p9691
(dp9692
S'NamedEntityTag'
p9693
g104
sS'CharacterOffsetEnd'
p9694
S'2839'
p9695
sS'Lemma'
p9696
S'instigate'
p9697
sS'PartOfSpeech'
p9698
S'VBD'
p9699
sS'CharacterOffsetBegin'
p9700
S'2829'
p9701
stp9702
a(S'the'
p9703
(dp9704
S'NamedEntityTag'
p9705
g104
sS'CharacterOffsetEnd'
p9706
S'2843'
p9707
sS'Lemma'
p9708
S'the'
p9709
sS'PartOfSpeech'
p9710
S'DT'
p9711
sS'CharacterOffsetBegin'
p9712
S'2840'
p9713
stp9714
a(S'proceedings'
p9715
(dp9716
S'NamedEntityTag'
p9717
g104
sS'CharacterOffsetEnd'
p9718
S'2855'
p9719
sS'Lemma'
p9720
S'proceedings'
p9721
sS'PartOfSpeech'
p9722
S'NNS'
p9723
sS'CharacterOffsetBegin'
p9724
S'2844'
p9725
stp9726
a(g1634
(dp9727
S'NamedEntityTag'
p9728
g104
sS'CharacterOffsetEnd'
p9729
S'2856'
p9730
sS'Lemma'
p9731
g1634
sS'PartOfSpeech'
p9732
g1634
sS'CharacterOffsetBegin'
p9733
S'2855'
p9734
stp9735
a(S'and'
p9736
(dp9737
S'NamedEntityTag'
p9738
g104
sS'CharacterOffsetEnd'
p9739
S'2860'
p9740
sS'Lemma'
p9741
S'and'
p9742
sS'PartOfSpeech'
p9743
S'CC'
p9744
sS'CharacterOffsetBegin'
p9745
S'2857'
p9746
stp9747
a(S'an'
p9748
(dp9749
S'NamedEntityTag'
p9750
g104
sS'CharacterOffsetEnd'
p9751
S'2863'
p9752
sS'Lemma'
p9753
g1164
sS'PartOfSpeech'
p9754
S'DT'
p9755
sS'CharacterOffsetBegin'
p9756
S'2861'
p9757
stp9758
a(S'appearance'
p9759
(dp9760
S'NamedEntityTag'
p9761
g104
sS'CharacterOffsetEnd'
p9762
S'2874'
p9763
sS'Lemma'
p9764
S'appearance'
p9765
sS'PartOfSpeech'
p9766
S'NN'
p9767
sS'CharacterOffsetBegin'
p9768
S'2864'
p9769
stp9770
a(S'at'
p9771
(dp9772
S'NamedEntityTag'
p9773
g104
sS'CharacterOffsetEnd'
p9774
S'2877'
p9775
sS'Lemma'
p9776
S'at'
p9777
sS'PartOfSpeech'
p9778
S'IN'
p9779
sS'CharacterOffsetBegin'
p9780
S'2875'
p9781
stp9782
a(S'Londons'
p9783
(dp9784
S'NamedEntityTag'
p9785
g104
sS'CharacterOffsetEnd'
p9786
S'2885'
p9787
sS'Lemma'
p9788
S'Londons'
p9789
sS'PartOfSpeech'
p9790
S'NNPS'
p9791
sS'CharacterOffsetBegin'
p9792
S'2878'
p9793
stp9794
a(S'Bow'
p9795
(dp9796
S'NamedEntityTag'
p9797
g104
sS'CharacterOffsetEnd'
p9798
S'2889'
p9799
sS'Lemma'
p9800
S'Bow'
p9801
sS'PartOfSpeech'
p9802
S'NNP'
p9803
sS'CharacterOffsetBegin'
p9804
S'2886'
p9805
stp9806
a(S'Street'
p9807
(dp9808
S'NamedEntityTag'
p9809
g104
sS'CharacterOffsetEnd'
p9810
S'2896'
p9811
sS'Lemma'
p9812
S'Street'
p9813
sS'PartOfSpeech'
p9814
S'NNP'
p9815
sS'CharacterOffsetBegin'
p9816
S'2890'
p9817
stp9818
a(S'magistrates'
p9819
(dp9820
S'NamedEntityTag'
p9821
g104
sS'CharacterOffsetEnd'
p9822
S'2908'
p9823
sS'Lemma'
p9824
S'magistrate'
p9825
sS'PartOfSpeech'
p9826
S'NNS'
p9827
sS'CharacterOffsetBegin'
p9828
S'2897'
p9829
stp9830
a(S'court'
p9831
(dp9832
S'NamedEntityTag'
p9833
g104
sS'CharacterOffsetEnd'
p9834
S'2914'
p9835
sS'Lemma'
p9836
S'court'
p9837
sS'PartOfSpeech'
p9838
S'NN'
p9839
sS'CharacterOffsetBegin'
p9840
S'2909'
p9841
stp9842
a(g241
(dp9843
S'NamedEntityTag'
p9844
g104
sS'CharacterOffsetEnd'
p9845
S'2915'
p9846
sS'Lemma'
p9847
g241
sS'PartOfSpeech'
p9848
g241
sS'CharacterOffsetBegin'
p9849
S'2914'
p9850
stp9851
asa(dp9852
g15
S'(ROOT (S (S (NP (JJ British) (NNP Conservative) (NNP Party) (NNS lawmakers)) (VP (VBP accuse) (NP (NP (DT the) (NN Labor) (NN government)) (PP (IN of) (NP (NN gesture) (NNS politics)))))) (CC and) (S (VP (VBG pandering) (PP (TO to) (NP (NP (DT the) (NNS partys)) (JJ left-wing))))) (. .)))'
p9853
sg17
S'British Conservative Party lawmakers accuse the Labor government of gesture politics and pandering to the partys left-wing.'
p9854
sg19
(lp9855
(S'root'
p9856
S'ROOT'
p9857
S'accuse'
p9858
tp9859
a(S'amod'
p9860
S'lawmakers'
p9861
S'British'
p9862
tp9863
a(S'nn'
p9864
S'lawmakers'
p9865
S'Conservative'
p9866
tp9867
a(S'nn'
p9868
S'lawmakers'
p9869
S'Party'
p9870
tp9871
a(S'nsubj'
p9872
S'accuse'
p9873
S'lawmakers'
p9874
tp9875
a(S'det'
p9876
S'government'
p9877
S'the'
p9878
tp9879
a(S'nn'
p9880
S'government'
p9881
S'Labor'
p9882
tp9883
a(S'dobj'
p9884
S'accuse'
p9885
S'government'
p9886
tp9887
a(S'nn'
p9888
S'politics'
p9889
S'gesture'
p9890
tp9891
a(S'prep_of'
p9892
S'government'
p9893
S'politics'
p9894
tp9895
a(S'conj_and'
p9896
S'accuse'
p9897
S'pandering'
p9898
tp9899
a(S'det'
p9900
S'partys'
p9901
S'the'
p9902
tp9903
a(S'prep_to'
p9904
S'pandering'
p9905
S'partys'
p9906
tp9907
a(S'amod'
p9908
S'partys'
p9909
S'left-wing'
p9910
tp9911
asg57
(lp9912
(g9856
S'ROOT-0'
p9913
S'accuse-5'
p9914
tp9915
a(g9860
S'lawmakers-4'
p9916
S'British-1'
p9917
tp9918
a(g9864
S'lawmakers-4'
p9919
S'Conservative-2'
p9920
tp9921
a(g9868
S'lawmakers-4'
p9922
S'Party-3'
p9923
tp9924
a(g9872
S'accuse-5'
p9925
S'lawmakers-4'
p9926
tp9927
a(g9876
S'government-8'
p9928
S'the-6'
p9929
tp9930
a(g9880
S'government-8'
p9931
S'Labor-7'
p9932
tp9933
a(g9884
S'accuse-5'
p9934
S'government-8'
p9935
tp9936
a(g9888
S'politics-11'
p9937
S'gesture-10'
p9938
tp9939
a(g9892
S'government-8'
p9940
S'politics-11'
p9941
tp9942
a(g9896
S'accuse-5'
p9943
S'pandering-13'
p9944
tp9945
a(g9900
S'partys-16'
p9946
S'the-15'
p9947
tp9948
a(g9904
S'pandering-13'
p9949
S'partys-16'
p9950
tp9951
a(g9908
S'partys-16'
p9952
S'left-wing-17'
p9953
tp9954
asg86
(lp9955
(S'British'
p9956
(dp9957
S'NamedEntityTag'
p9958
S'ORGANIZATION'
p9959
sS'CharacterOffsetEnd'
p9960
S'2923'
p9961
sS'Lemma'
p9962
S'british'
p9963
sS'PartOfSpeech'
p9964
S'JJ'
p9965
sS'CharacterOffsetBegin'
p9966
S'2916'
p9967
stp9968
a(S'Conservative'
p9969
(dp9970
S'NamedEntityTag'
p9971
S'ORGANIZATION'
p9972
sS'CharacterOffsetEnd'
p9973
S'2936'
p9974
sS'Lemma'
p9975
S'Conservative'
p9976
sS'PartOfSpeech'
p9977
S'NNP'
p9978
sS'CharacterOffsetBegin'
p9979
S'2924'
p9980
stp9981
a(S'Party'
p9982
(dp9983
S'NamedEntityTag'
p9984
S'ORGANIZATION'
p9985
sS'CharacterOffsetEnd'
p9986
S'2942'
p9987
sS'Lemma'
p9988
S'Party'
p9989
sS'PartOfSpeech'
p9990
S'NNP'
p9991
sS'CharacterOffsetBegin'
p9992
S'2937'
p9993
stp9994
a(S'lawmakers'
p9995
(dp9996
S'NamedEntityTag'
p9997
g104
sS'CharacterOffsetEnd'
p9998
S'2952'
p9999
sS'Lemma'
p10000
S'lawmaker'
p10001
sS'PartOfSpeech'
p10002
S'NNS'
p10003
sS'CharacterOffsetBegin'
p10004
S'2943'
p10005
stp10006
a(S'accuse'
p10007
(dp10008
S'NamedEntityTag'
p10009
g104
sS'CharacterOffsetEnd'
p10010
S'2959'
p10011
sS'Lemma'
p10012
S'accuse'
p10013
sS'PartOfSpeech'
p10014
S'VBP'
p10015
sS'CharacterOffsetBegin'
p10016
S'2953'
p10017
stp10018
a(S'the'
p10019
(dp10020
S'NamedEntityTag'
p10021
g104
sS'CharacterOffsetEnd'
p10022
S'2963'
p10023
sS'Lemma'
p10024
S'the'
p10025
sS'PartOfSpeech'
p10026
S'DT'
p10027
sS'CharacterOffsetBegin'
p10028
S'2960'
p10029
stp10030
a(S'Labor'
p10031
(dp10032
S'NamedEntityTag'
p10033
S'ORGANIZATION'
p10034
sS'CharacterOffsetEnd'
p10035
S'2969'
p10036
sS'Lemma'
p10037
S'labor'
p10038
sS'PartOfSpeech'
p10039
S'NN'
p10040
sS'CharacterOffsetBegin'
p10041
S'2964'
p10042
stp10043
a(S'government'
p10044
(dp10045
S'NamedEntityTag'
p10046
g104
sS'CharacterOffsetEnd'
p10047
S'2980'
p10048
sS'Lemma'
p10049
S'government'
p10050
sS'PartOfSpeech'
p10051
S'NN'
p10052
sS'CharacterOffsetBegin'
p10053
S'2970'
p10054
stp10055
a(S'of'
p10056
(dp10057
S'NamedEntityTag'
p10058
g104
sS'CharacterOffsetEnd'
p10059
S'2983'
p10060
sS'Lemma'
p10061
S'of'
p10062
sS'PartOfSpeech'
p10063
S'IN'
p10064
sS'CharacterOffsetBegin'
p10065
S'2981'
p10066
stp10067
a(S'gesture'
p10068
(dp10069
S'NamedEntityTag'
p10070
g104
sS'CharacterOffsetEnd'
p10071
S'2991'
p10072
sS'Lemma'
p10073
S'gesture'
p10074
sS'PartOfSpeech'
p10075
S'NN'
p10076
sS'CharacterOffsetBegin'
p10077
S'2984'
p10078
stp10079
a(S'politics'
p10080
(dp10081
S'NamedEntityTag'
p10082
g104
sS'CharacterOffsetEnd'
p10083
S'3000'
p10084
sS'Lemma'
p10085
S'politics'
p10086
sS'PartOfSpeech'
p10087
S'NNS'
p10088
sS'CharacterOffsetBegin'
p10089
S'2992'
p10090
stp10091
a(S'and'
p10092
(dp10093
S'NamedEntityTag'
p10094
g104
sS'CharacterOffsetEnd'
p10095
S'3004'
p10096
sS'Lemma'
p10097
S'and'
p10098
sS'PartOfSpeech'
p10099
S'CC'
p10100
sS'CharacterOffsetBegin'
p10101
S'3001'
p10102
stp10103
a(S'pandering'
p10104
(dp10105
S'NamedEntityTag'
p10106
g104
sS'CharacterOffsetEnd'
p10107
S'3014'
p10108
sS'Lemma'
p10109
S'pander'
p10110
sS'PartOfSpeech'
p10111
S'VBG'
p10112
sS'CharacterOffsetBegin'
p10113
S'3005'
p10114
stp10115
a(S'to'
p10116
(dp10117
S'NamedEntityTag'
p10118
g104
sS'CharacterOffsetEnd'
p10119
S'3017'
p10120
sS'Lemma'
p10121
S'to'
p10122
sS'PartOfSpeech'
p10123
S'TO'
p10124
sS'CharacterOffsetBegin'
p10125
S'3015'
p10126
stp10127
a(S'the'
p10128
(dp10129
S'NamedEntityTag'
p10130
g104
sS'CharacterOffsetEnd'
p10131
S'3021'
p10132
sS'Lemma'
p10133
S'the'
p10134
sS'PartOfSpeech'
p10135
S'DT'
p10136
sS'CharacterOffsetBegin'
p10137
S'3018'
p10138
stp10139
a(S'partys'
p10140
(dp10141
S'NamedEntityTag'
p10142
g104
sS'CharacterOffsetEnd'
p10143
S'3028'
p10144
sS'Lemma'
p10145
S'party'
p10146
sS'PartOfSpeech'
p10147
S'NNS'
p10148
sS'CharacterOffsetBegin'
p10149
S'3022'
p10150
stp10151
a(S'left-wing'
p10152
(dp10153
S'NamedEntityTag'
p10154
g104
sS'CharacterOffsetEnd'
p10155
S'3038'
p10156
sS'Lemma'
p10157
S'left-wing'
p10158
sS'PartOfSpeech'
p10159
S'JJ'
p10160
sS'CharacterOffsetBegin'
p10161
S'3029'
p10162
stp10163
a(g241
(dp10164
S'NamedEntityTag'
p10165
g104
sS'CharacterOffsetEnd'
p10166
S'3039'
p10167
sS'Lemma'
p10168
g241
sS'PartOfSpeech'
p10169
g241
sS'CharacterOffsetBegin'
p10170
S'3038'
p10171
stp10172
asass.