(dp0
S'models'
p1
(lp2
(dp3
S'sentences'
p4
(lp5
(dp6
S'parsetree'
p7
S'(ROOT (FRAG (PP (IN In) (NP (NP (NN wake)) (PP (IN of) (NP (NNP Hurricane) (NNP Mitch))))) (, ,) (NP (NP (NN aid) (NNS workers)) (VP (VBN hampered) (PP (IN by) (NP (JJ wide-spread) (NN damage)))))))'
p8
sS'text'
p9
S'In wake of Hurricane Mitch, aid workers hampered by wide-spread damage'
p10
sS'dependencies'
p11
(lp12
(S'root'
p13
S'ROOT'
p14
S'workers'
p15
tp16
a(S'prep_in'
p17
S'workers'
p18
S'wake'
p19
tp20
a(S'nn'
p21
S'Mitch'
p22
S'Hurricane'
p23
tp24
a(S'prep_of'
p25
S'wake'
p26
S'Mitch'
p27
tp28
a(S'nn'
p29
S'workers'
p30
S'aid'
p31
tp32
a(S'partmod'
p33
S'workers'
p34
S'hampered'
p35
tp36
a(S'amod'
p37
S'damage'
p38
S'wide-spread'
p39
tp40
a(S'agent'
p41
S'hampered'
p42
S'damage'
p43
tp44
asS'indexeddependencies'
p45
(lp46
(g13
S'ROOT-0'
p47
S'workers-8'
p48
tp49
a(g17
S'workers-8'
p50
S'wake-2'
p51
tp52
a(g21
S'Mitch-5'
p53
S'Hurricane-4'
p54
tp55
a(g25
S'wake-2'
p56
S'Mitch-5'
p57
tp58
a(g29
S'workers-8'
p59
S'aid-7'
p60
tp61
a(g33
S'workers-8'
p62
S'hampered-9'
p63
tp64
a(g37
S'damage-12'
p65
S'wide-spread-11'
p66
tp67
a(g41
S'hampered-9'
p68
S'damage-12'
p69
tp70
asS'words'
p71
(lp72
(S'In'
p73
(dp74
S'NamedEntityTag'
p75
S'O'
p76
sS'CharacterOffsetEnd'
p77
S'3'
p78
sS'Lemma'
p79
S'in'
p80
sS'PartOfSpeech'
p81
S'IN'
p82
sS'CharacterOffsetBegin'
p83
S'1'
p84
stp85
a(S'wake'
p86
(dp87
S'NamedEntityTag'
p88
g76
sS'CharacterOffsetEnd'
p89
S'8'
p90
sS'Lemma'
p91
S'wake'
p92
sS'PartOfSpeech'
p93
S'NN'
p94
sS'CharacterOffsetBegin'
p95
S'4'
p96
stp97
a(S'of'
p98
(dp99
S'NamedEntityTag'
p100
g76
sS'CharacterOffsetEnd'
p101
S'11'
p102
sS'Lemma'
p103
S'of'
p104
sS'PartOfSpeech'
p105
S'IN'
p106
sS'CharacterOffsetBegin'
p107
S'9'
p108
stp109
a(S'Hurricane'
p110
(dp111
S'NamedEntityTag'
p112
g76
sS'CharacterOffsetEnd'
p113
S'21'
p114
sS'Lemma'
p115
S'Hurricane'
p116
sS'PartOfSpeech'
p117
S'NNP'
p118
sS'CharacterOffsetBegin'
p119
S'12'
p120
stp121
a(S'Mitch'
p122
(dp123
S'NamedEntityTag'
p124
S'PERSON'
p125
sS'CharacterOffsetEnd'
p126
S'27'
p127
sS'Lemma'
p128
S'Mitch'
p129
sS'PartOfSpeech'
p130
S'NNP'
p131
sS'CharacterOffsetBegin'
p132
S'22'
p133
stp134
a(S','
p135
(dp136
S'NamedEntityTag'
p137
g76
sS'CharacterOffsetEnd'
p138
S'28'
p139
sS'Lemma'
p140
g135
sS'PartOfSpeech'
p141
g135
sS'CharacterOffsetBegin'
p142
S'27'
p143
stp144
a(S'aid'
p145
(dp146
S'NamedEntityTag'
p147
g76
sS'CharacterOffsetEnd'
p148
S'32'
p149
sS'Lemma'
p150
S'aid'
p151
sS'PartOfSpeech'
p152
S'NN'
p153
sS'CharacterOffsetBegin'
p154
S'29'
p155
stp156
a(S'workers'
p157
(dp158
S'NamedEntityTag'
p159
g76
sS'CharacterOffsetEnd'
p160
S'40'
p161
sS'Lemma'
p162
S'worker'
p163
sS'PartOfSpeech'
p164
S'NNS'
p165
sS'CharacterOffsetBegin'
p166
S'33'
p167
stp168
a(S'hampered'
p169
(dp170
S'NamedEntityTag'
p171
g76
sS'CharacterOffsetEnd'
p172
S'49'
p173
sS'Lemma'
p174
S'hamper'
p175
sS'PartOfSpeech'
p176
S'VBN'
p177
sS'CharacterOffsetBegin'
p178
S'41'
p179
stp180
a(S'by'
p181
(dp182
S'NamedEntityTag'
p183
g76
sS'CharacterOffsetEnd'
p184
S'52'
p185
sS'Lemma'
p186
S'by'
p187
sS'PartOfSpeech'
p188
S'IN'
p189
sS'CharacterOffsetBegin'
p190
S'50'
p191
stp192
a(S'wide-spread'
p193
(dp194
S'NamedEntityTag'
p195
g76
sS'CharacterOffsetEnd'
p196
S'64'
p197
sS'Lemma'
p198
S'wide-spread'
p199
sS'PartOfSpeech'
p200
S'JJ'
p201
sS'CharacterOffsetBegin'
p202
S'53'
p203
stp204
a(S'damage'
p205
(dp206
S'NamedEntityTag'
p207
g76
sS'CharacterOffsetEnd'
p208
S'71'
p209
sS'Lemma'
p210
S'damage'
p211
sS'PartOfSpeech'
p212
S'NN'
p213
sS'CharacterOffsetBegin'
p214
S'65'
p215
stp216
asasa(dp217
g4
(lp218
(dp219
g7
S'(ROOT (S (S (NP (NN Aid) (NNS workers)) (VP (VBP struggle) (S (VP (TO to) (VP (VB reach) (NP (NNP Mitch) (NNS survivors)) (PP (IN in) (NP (NN danger)))))))) (: ;) (S (NP (IN over) (CD 10,000)) (ADJP (JJ dead))) (. .)))'
p220
sg9
S'Aid workers struggle to reach Mitch survivors in danger; over 10,000 dead.'
p221
sg11
(lp222
(S'root'
p223
S'ROOT'
p224
S'struggle'
p225
tp226
a(S'nn'
p227
S'workers'
p228
S'Aid'
p229
tp230
a(S'nsubj'
p231
S'struggle'
p232
S'workers'
p233
tp234
a(S'aux'
p235
S'reach'
p236
S'to'
p237
tp238
a(S'xcomp'
p239
S'struggle'
p240
S'reach'
p241
tp242
a(S'nn'
p243
S'survivors'
p244
S'Mitch'
p245
tp246
a(S'dobj'
p247
S'reach'
p248
S'survivors'
p249
tp250
a(S'prep_in'
p251
S'reach'
p252
S'danger'
p253
tp254
a(S'amod'
p255
S'10,000'
p256
S'over'
p257
tp258
a(S'dep'
p259
S'dead'
p260
S'10,000'
p261
tp262
a(S'parataxis'
p263
S'struggle'
p264
S'dead'
p265
tp266
asg45
(lp267
(g223
S'ROOT-0'
p268
S'struggle-3'
p269
tp270
a(g227
S'workers-2'
p271
S'Aid-1'
p272
tp273
a(g231
S'struggle-3'
p274
S'workers-2'
p275
tp276
a(g235
S'reach-5'
p277
S'to-4'
p278
tp279
a(g239
S'struggle-3'
p280
S'reach-5'
p281
tp282
a(g243
S'survivors-7'
p283
S'Mitch-6'
p284
tp285
a(g247
S'reach-5'
p286
S'survivors-7'
p287
tp288
a(g251
S'reach-5'
p289
S'danger-9'
p290
tp291
a(g255
S'10,000-12'
p292
S'over-11'
p293
tp294
a(g259
S'dead-13'
p295
S'10,000-12'
p296
tp297
a(g263
S'struggle-3'
p298
S'dead-13'
p299
tp300
asg71
(lp301
(S'Aid'
p302
(dp303
S'NamedEntityTag'
p304
g76
sS'CharacterOffsetEnd'
p305
g96
sS'Lemma'
p306
S'aid'
p307
sS'PartOfSpeech'
p308
S'NN'
p309
sS'CharacterOffsetBegin'
p310
g84
stp311
a(S'workers'
p312
(dp313
S'NamedEntityTag'
p314
g76
sS'CharacterOffsetEnd'
p315
S'12'
p316
sS'Lemma'
p317
S'worker'
p318
sS'PartOfSpeech'
p319
S'NNS'
p320
sS'CharacterOffsetBegin'
p321
S'5'
p322
stp323
a(S'struggle'
p324
(dp325
S'NamedEntityTag'
p326
g76
sS'CharacterOffsetEnd'
p327
S'21'
p328
sS'Lemma'
p329
S'struggle'
p330
sS'PartOfSpeech'
p331
S'VBP'
p332
sS'CharacterOffsetBegin'
p333
S'13'
p334
stp335
a(S'to'
p336
(dp337
S'NamedEntityTag'
p338
g76
sS'CharacterOffsetEnd'
p339
S'24'
p340
sS'Lemma'
p341
S'to'
p342
sS'PartOfSpeech'
p343
S'TO'
p344
sS'CharacterOffsetBegin'
p345
S'22'
p346
stp347
a(S'reach'
p348
(dp349
S'NamedEntityTag'
p350
g76
sS'CharacterOffsetEnd'
p351
S'30'
p352
sS'Lemma'
p353
S'reach'
p354
sS'PartOfSpeech'
p355
S'VB'
p356
sS'CharacterOffsetBegin'
p357
S'25'
p358
stp359
a(S'Mitch'
p360
(dp361
S'NamedEntityTag'
p362
S'PERSON'
p363
sS'CharacterOffsetEnd'
p364
S'36'
p365
sS'Lemma'
p366
S'Mitch'
p367
sS'PartOfSpeech'
p368
S'NNP'
p369
sS'CharacterOffsetBegin'
p370
S'31'
p371
stp372
a(S'survivors'
p373
(dp374
S'NamedEntityTag'
p375
g76
sS'CharacterOffsetEnd'
p376
S'46'
p377
sS'Lemma'
p378
S'survivor'
p379
sS'PartOfSpeech'
p380
S'NNS'
p381
sS'CharacterOffsetBegin'
p382
S'37'
p383
stp384
a(S'in'
p385
(dp386
S'NamedEntityTag'
p387
g76
sS'CharacterOffsetEnd'
p388
S'49'
p389
sS'Lemma'
p390
S'in'
p391
sS'PartOfSpeech'
p392
S'IN'
p393
sS'CharacterOffsetBegin'
p394
S'47'
p395
stp396
a(S'danger'
p397
(dp398
S'NamedEntityTag'
p399
g76
sS'CharacterOffsetEnd'
p400
S'56'
p401
sS'Lemma'
p402
S'danger'
p403
sS'PartOfSpeech'
p404
S'NN'
p405
sS'CharacterOffsetBegin'
p406
S'50'
p407
stp408
a(S';'
p409
(dp410
S'NamedEntityTag'
p411
g76
sS'CharacterOffsetEnd'
p412
S'57'
p413
sS'Lemma'
p414
g409
sS'PartOfSpeech'
p415
S':'
p416
sS'CharacterOffsetBegin'
p417
S'56'
p418
stp419
a(S'over'
p420
(dp421
S'NamedEntityTag'
p422
g76
sS'CharacterOffsetEnd'
p423
S'62'
p424
sS'Lemma'
p425
S'over'
p426
sS'PartOfSpeech'
p427
S'IN'
p428
sS'CharacterOffsetBegin'
p429
S'58'
p430
stp431
a(S'10,000'
p432
(dp433
S'NormalizedNamedEntityTag'
p434
S'>10000.0'
p435
sS'Lemma'
p436
S'10,000'
p437
sS'CharacterOffsetEnd'
p438
S'69'
p439
sS'PartOfSpeech'
p440
S'CD'
p441
sS'CharacterOffsetBegin'
p442
S'63'
p443
sS'NamedEntityTag'
p444
S'NUMBER'
p445
stp446
a(S'dead'
p447
(dp448
S'NamedEntityTag'
p449
g76
sS'CharacterOffsetEnd'
p450
S'74'
p451
sS'Lemma'
p452
S'dead'
p453
sS'PartOfSpeech'
p454
S'JJ'
p455
sS'CharacterOffsetBegin'
p456
S'70'
p457
stp458
a(S'.'
p459
(dp460
S'NamedEntityTag'
p461
g76
sS'CharacterOffsetEnd'
p462
S'75'
p463
sS'Lemma'
p464
g459
sS'PartOfSpeech'
p465
g459
sS'CharacterOffsetBegin'
p466
S'74'
p467
stp468
asasa(dp469
g4
(lp470
(dp471
g7
S'(ROOT (S (NP (JJ Foreign) (NN aid)) (VP (VBZ pours) (PP (IN into) (NP (NNP Central) (NNP America))) (SBAR (IN as) (S (NP (NNP Mitch) (NN death) (NN toll)) (VP (VBZ exceeds) (NP (CD 10,000))))))))'
p472
sg9
S'Foreign aid pours into Central America as Mitch death toll exceeds 10,000'
p473
sg11
(lp474
(S'root'
p475
S'ROOT'
p476
S'pours'
p477
tp478
a(S'amod'
p479
S'aid'
p480
S'Foreign'
p481
tp482
a(S'nsubj'
p483
S'pours'
p484
S'aid'
p485
tp486
a(S'nn'
p487
S'America'
p488
S'Central'
p489
tp490
a(S'prep_into'
p491
S'pours'
p492
S'America'
p493
tp494
a(S'mark'
p495
S'exceeds'
p496
S'as'
p497
tp498
a(S'nn'
p499
S'toll'
p500
S'Mitch'
p501
tp502
a(S'nn'
p503
S'toll'
p504
S'death'
p505
tp506
a(S'nsubj'
p507
S'exceeds'
p508
S'toll'
p509
tp510
a(S'advcl'
p511
S'pours'
p512
S'exceeds'
p513
tp514
a(S'dobj'
p515
S'exceeds'
p516
S'10,000'
p517
tp518
asg45
(lp519
(g475
S'ROOT-0'
p520
S'pours-3'
p521
tp522
a(g479
S'aid-2'
p523
S'Foreign-1'
p524
tp525
a(g483
S'pours-3'
p526
S'aid-2'
p527
tp528
a(g487
S'America-6'
p529
S'Central-5'
p530
tp531
a(g491
S'pours-3'
p532
S'America-6'
p533
tp534
a(g495
S'exceeds-11'
p535
S'as-7'
p536
tp537
a(g499
S'toll-10'
p538
S'Mitch-8'
p539
tp540
a(g503
S'toll-10'
p541
S'death-9'
p542
tp543
a(g507
S'exceeds-11'
p544
S'toll-10'
p545
tp546
a(g511
S'pours-3'
p547
S'exceeds-11'
p548
tp549
a(g515
S'exceeds-11'
p550
S'10,000-12'
p551
tp552
asg71
(lp553
(S'Foreign'
p554
(dp555
S'NamedEntityTag'
p556
g76
sS'CharacterOffsetEnd'
p557
g90
sS'Lemma'
p558
S'foreign'
p559
sS'PartOfSpeech'
p560
S'JJ'
p561
sS'CharacterOffsetBegin'
p562
g84
stp563
a(S'aid'
p564
(dp565
S'NamedEntityTag'
p566
g76
sS'CharacterOffsetEnd'
p567
S'12'
p568
sS'Lemma'
p569
S'aid'
p570
sS'PartOfSpeech'
p571
S'NN'
p572
sS'CharacterOffsetBegin'
p573
g108
stp574
a(S'pours'
p575
(dp576
S'NamedEntityTag'
p577
g76
sS'CharacterOffsetEnd'
p578
S'18'
p579
sS'Lemma'
p580
S'pour'
p581
sS'PartOfSpeech'
p582
S'VBZ'
p583
sS'CharacterOffsetBegin'
p584
S'13'
p585
stp586
a(S'into'
p587
(dp588
S'NamedEntityTag'
p589
g76
sS'CharacterOffsetEnd'
p590
S'23'
p591
sS'Lemma'
p592
S'into'
p593
sS'PartOfSpeech'
p594
S'IN'
p595
sS'CharacterOffsetBegin'
p596
S'19'
p597
stp598
a(S'Central'
p599
(dp600
S'NamedEntityTag'
p601
S'LOCATION'
p602
sS'CharacterOffsetEnd'
p603
S'31'
p604
sS'Lemma'
p605
S'Central'
p606
sS'PartOfSpeech'
p607
S'NNP'
p608
sS'CharacterOffsetBegin'
p609
S'24'
p610
stp611
a(S'America'
p612
(dp613
S'NamedEntityTag'
p614
S'LOCATION'
p615
sS'CharacterOffsetEnd'
p616
S'39'
p617
sS'Lemma'
p618
S'America'
p619
sS'PartOfSpeech'
p620
S'NNP'
p621
sS'CharacterOffsetBegin'
p622
S'32'
p623
stp624
a(S'as'
p625
(dp626
S'NamedEntityTag'
p627
g76
sS'CharacterOffsetEnd'
p628
S'42'
p629
sS'Lemma'
p630
S'as'
p631
sS'PartOfSpeech'
p632
S'IN'
p633
sS'CharacterOffsetBegin'
p634
S'40'
p635
stp636
a(S'Mitch'
p637
(dp638
S'NamedEntityTag'
p639
S'PERSON'
p640
sS'CharacterOffsetEnd'
p641
S'48'
p642
sS'Lemma'
p643
S'Mitch'
p644
sS'PartOfSpeech'
p645
S'NNP'
p646
sS'CharacterOffsetBegin'
p647
S'43'
p648
stp649
a(S'death'
p650
(dp651
S'NamedEntityTag'
p652
g76
sS'CharacterOffsetEnd'
p653
S'54'
p654
sS'Lemma'
p655
S'death'
p656
sS'PartOfSpeech'
p657
S'NN'
p658
sS'CharacterOffsetBegin'
p659
S'49'
p660
stp661
a(S'toll'
p662
(dp663
S'NamedEntityTag'
p664
g76
sS'CharacterOffsetEnd'
p665
S'59'
p666
sS'Lemma'
p667
S'toll'
p668
sS'PartOfSpeech'
p669
S'NN'
p670
sS'CharacterOffsetBegin'
p671
S'55'
p672
stp673
a(S'exceeds'
p674
(dp675
S'NamedEntityTag'
p676
g76
sS'CharacterOffsetEnd'
p677
S'67'
p678
sS'Lemma'
p679
S'exceed'
p680
sS'PartOfSpeech'
p681
S'VBZ'
p682
sS'CharacterOffsetBegin'
p683
S'60'
p684
stp685
a(S'10,000'
p686
(dp687
S'NormalizedNamedEntityTag'
p688
S'10000.0'
p689
sS'Lemma'
p690
S'10,000'
p691
sS'CharacterOffsetEnd'
p692
S'74'
p693
sS'PartOfSpeech'
p694
S'CD'
p695
sS'CharacterOffsetBegin'
p696
S'68'
p697
sS'NamedEntityTag'
p698
S'NUMBER'
p699
stp700
asasa(dp701
g4
(lp702
(dp703
g7
S'(ROOT (NP (NP (JJ Foreign) (NN aid) (NNS deliveries)) (PP (TO to) (NP (NP (NNP Central) (NNP America)) (VP (VBN hampered) (PP (IN by) (NP (JJ severe) (NN storm) (NN damage))))))))'
p704
sg9
S'Foreign aid deliveries to Central America hampered by severe storm damage'
p705
sg11
(lp706
(S'root'
p707
S'ROOT'
p708
S'deliveries'
p709
tp710
a(S'amod'
p711
S'deliveries'
p712
S'Foreign'
p713
tp714
a(S'nn'
p715
S'deliveries'
p716
S'aid'
p717
tp718
a(S'nn'
p719
S'America'
p720
S'Central'
p721
tp722
a(S'prep_to'
p723
S'deliveries'
p724
S'America'
p725
tp726
a(S'partmod'
p727
S'America'
p728
S'hampered'
p729
tp730
a(S'amod'
p731
S'damage'
p732
S'severe'
p733
tp734
a(S'nn'
p735
S'damage'
p736
S'storm'
p737
tp738
a(S'agent'
p739
S'hampered'
p740
S'damage'
p741
tp742
asg45
(lp743
(g707
S'ROOT-0'
p744
S'deliveries-3'
p745
tp746
a(g711
S'deliveries-3'
p747
S'Foreign-1'
p748
tp749
a(g715
S'deliveries-3'
p750
S'aid-2'
p751
tp752
a(g719
S'America-6'
p753
S'Central-5'
p754
tp755
a(g723
S'deliveries-3'
p756
S'America-6'
p757
tp758
a(g727
S'America-6'
p759
S'hampered-7'
p760
tp761
a(g731
S'damage-11'
p762
S'severe-9'
p763
tp764
a(g735
S'damage-11'
p765
S'storm-10'
p766
tp767
a(g739
S'hampered-7'
p768
S'damage-11'
p769
tp770
asg71
(lp771
(S'Foreign'
p772
(dp773
S'NamedEntityTag'
p774
g76
sS'CharacterOffsetEnd'
p775
g90
sS'Lemma'
p776
S'foreign'
p777
sS'PartOfSpeech'
p778
S'JJ'
p779
sS'CharacterOffsetBegin'
p780
g84
stp781
a(S'aid'
p782
(dp783
S'NamedEntityTag'
p784
g76
sS'CharacterOffsetEnd'
p785
S'12'
p786
sS'Lemma'
p787
S'aid'
p788
sS'PartOfSpeech'
p789
S'NN'
p790
sS'CharacterOffsetBegin'
p791
g108
stp792
a(S'deliveries'
p793
(dp794
S'NamedEntityTag'
p795
g76
sS'CharacterOffsetEnd'
p796
S'23'
p797
sS'Lemma'
p798
S'delivery'
p799
sS'PartOfSpeech'
p800
S'NNS'
p801
sS'CharacterOffsetBegin'
p802
S'13'
p803
stp804
a(S'to'
p805
(dp806
S'NamedEntityTag'
p807
g76
sS'CharacterOffsetEnd'
p808
S'26'
p809
sS'Lemma'
p810
S'to'
p811
sS'PartOfSpeech'
p812
S'TO'
p813
sS'CharacterOffsetBegin'
p814
S'24'
p815
stp816
a(S'Central'
p817
(dp818
S'NamedEntityTag'
p819
S'LOCATION'
p820
sS'CharacterOffsetEnd'
p821
S'34'
p822
sS'Lemma'
p823
S'Central'
p824
sS'PartOfSpeech'
p825
S'NNP'
p826
sS'CharacterOffsetBegin'
p827
S'27'
p828
stp829
a(S'America'
p830
(dp831
S'NamedEntityTag'
p832
S'LOCATION'
p833
sS'CharacterOffsetEnd'
p834
S'42'
p835
sS'Lemma'
p836
S'America'
p837
sS'PartOfSpeech'
p838
S'NNP'
p839
sS'CharacterOffsetBegin'
p840
S'35'
p841
stp842
a(S'hampered'
p843
(dp844
S'NamedEntityTag'
p845
g76
sS'CharacterOffsetEnd'
p846
S'51'
p847
sS'Lemma'
p848
S'hamper'
p849
sS'PartOfSpeech'
p850
S'VBN'
p851
sS'CharacterOffsetBegin'
p852
S'43'
p853
stp854
a(S'by'
p855
(dp856
S'NamedEntityTag'
p857
g76
sS'CharacterOffsetEnd'
p858
S'54'
p859
sS'Lemma'
p860
S'by'
p861
sS'PartOfSpeech'
p862
S'IN'
p863
sS'CharacterOffsetBegin'
p864
S'52'
p865
stp866
a(S'severe'
p867
(dp868
S'NamedEntityTag'
p869
g76
sS'CharacterOffsetEnd'
p870
S'61'
p871
sS'Lemma'
p872
S'severe'
p873
sS'PartOfSpeech'
p874
S'JJ'
p875
sS'CharacterOffsetBegin'
p876
S'55'
p877
stp878
a(S'storm'
p879
(dp880
S'NamedEntityTag'
p881
g76
sS'CharacterOffsetEnd'
p882
S'67'
p883
sS'Lemma'
p884
S'storm'
p885
sS'PartOfSpeech'
p886
S'NN'
p887
sS'CharacterOffsetBegin'
p888
S'62'
p889
stp890
a(S'damage'
p891
(dp892
S'NamedEntityTag'
p893
g76
sS'CharacterOffsetEnd'
p894
S'74'
p895
sS'Lemma'
p896
S'damage'
p897
sS'PartOfSpeech'
p898
S'NN'
p899
sS'CharacterOffsetBegin'
p900
S'68'
p901
stp902
asasasS'article'
p903
(dp904
S'coref'
p905
(lp906
(lp907
((S'Friday'
p908
I9
I6
I16
I17
tp909
(S'Friday'
p910
I0
I3
I3
I4
tp911
tp912
a((S'Friday'
p913
I16
I6
I26
I27
tp914
(S'Friday'
p915
I0
I3
I3
I4
tp916
tp917
a((S'Friday'
p918
I18
I2
I2
I3
tp919
(S'Friday'
p920
I0
I3
I3
I4
tp921
tp922
aa(lp923
((S'Central America'
p924
I11
I2
I11
I13
tp925
(S'Central America'
p926
I1
I-1
I8
I10
tp927
tp928
aa(lp929
((S'Honduras'
p930
I12
I7
I27
I28
tp931
(S'Honduras'
p932
I2
I7
I7
I8
tp933
tp934
a((S'Honduras'
p935
I13
I8
I8
I9
tp936
(S'Honduras'
p937
I2
I7
I7
I8
tp938
tp939
a((S'Honduras'
p940
I14
I2
I12
I13
tp941
(S'Honduras'
p942
I2
I7
I7
I8
tp943
tp944
a((S'Honduras'
p945
I16
I6
I16
I17
tp946
(S'Honduras'
p947
I2
I7
I7
I8
tp948
tp949
aa(lp950
((S'Residents'
p951
I5
I0
I0
I1
tp952
(S'residents'
p953
I3
I5
I5
I6
tp954
tp955
aa(lp956
((S'the saddest thing'
p957
I6
I6
I4
I7
tp958
(S'The worst thing'
p959
I6
I2
I0
I3
tp960
tp961
aa(lp962
((S'children'
p963
I5
I3
I3
I4
tp964
(S'the children'
p965
I6
I0
I9
I11
tp966
tp967
a((S'The children'
p968
I7
I1
I0
I2
tp969
(S'the children'
p970
I6
I0
I9
I11
tp971
tp972
aa(lp973
((S'his'
p974
I9
I6
I6
I7
tp975
(S'Jimmy Carter'
p976
I9
I4
I3
I5
tp977
tp978
a((S'Carter'
p979
I10
I-1
I19
I20
tp980
(S'Jimmy Carter'
p981
I9
I4
I3
I5
tp982
tp983
aa(lp984
((S'Nicaragua'
p985
I12
I-1
I29
I30
tp986
(S'Nicaragua on Friday'
p987
I9
I4
I14
I17
tp988
tp989
a((S'Nicaragua'
p990
I13
I6
I6
I7
tp991
(S'Nicaragua on Friday'
p992
I9
I4
I14
I17
tp993
tp994
a((S'Nicaragua'
p995
I14
I4
I14
I15
tp996
(S'Nicaragua on Friday'
p997
I9
I4
I14
I17
tp998
tp999
a((S'Nicaragua'
p1000
I18
I0
I0
I1
tp1001
(S'Nicaragua on Friday'
p1002
I9
I4
I14
I17
tp1003
tp1004
a((S'it'
p1005
I18
I3
I3
I4
tp1006
(S'Nicaragua on Friday'
p1007
I9
I4
I14
I17
tp1008
tp1009
aa(lp1010
((S'Tipper Gore'
p1011
I12
I0
I9
I11
tp1012
(S'Vice President Al Gore'
p1013
I12
I7
I14
I18
tp1014
tp1015
a((S'wife of Vice President Al Gore'
p1016
I12
I2
I12
I18
tp1017
(S'Vice President Al Gore'
p1018
I12
I7
I14
I18
tp1019
tp1020
a((S'Al Gore'
p1021
I12
I7
I16
I18
tp1022
(S'Vice President Al Gore'
p1023
I12
I7
I14
I18
tp1024
tp1025
aa(lp1026
((S'Clinton'
p1027
I12
I0
I0
I1
tp1028
(S'U.S. President Bill Clinton'
p1029
I11
I3
I0
I4
tp1030
tp1031
aa(lp1032
((S'Guatemala'
p1033
I14
I-1
I19
I20
tp1034
(S'Guatemala'
p1035
I12
I4
I34
I35
tp1036
tp1037
aa(lp1038
((S'El Salvador'
p1039
I14
I7
I16
I18
tp1040
(S'El Salvador'
p1041
I12
I2
I31
I33
tp1042
tp1043
aa(lp1044
((S'Nicaragua and Honduras'
p1045
I13
I6
I6
I9
tp1046
(S'Honduras , Nicaragua , El Salvador and Guatemala'
p1047
I12
I2
I27
I35
tp1048
tp1049
a((S'Honduras , Nicaragua , El Salvador and Guatemala'
p1050
I14
I7
I12
I20
tp1051
(S'Honduras , Nicaragua , El Salvador and Guatemala'
p1052
I12
I2
I27
I35
tp1053
tp1054
aa(lp1055
((S'Taiwan'
p1056
I14
I0
I0
I1
tp1057
(S'Taiwan , which China claims is a breakaway province'
p1058
I15
I2
I12
I21
tp1059
tp1060
a((S'it'
p1061
I14
I3
I3
I4
tp1062
(S'Taiwan , which China claims is a breakaway province'
p1063
I15
I2
I12
I21
tp1064
tp1065
a((S'Taiwan'
p1066
I15
I2
I12
I13
tp1067
(S'Taiwan , which China claims is a breakaway province'
p1068
I15
I2
I12
I21
tp1069
tp1070
aa(lp1071
((S'she'
p1072
I13
I2
I12
I13
tp1073
(S'First lady Hillary Rodham Clinton'
p1074
I13
I4
I0
I5
tp1075
tp1076
aa(lp1077
((S'their'
p1078
I16
I3
I13
I14
tp1079
(S'dlrs'
p1080
I14
I6
I6
I7
tp1081
tp1082
aa(lp1083
((S'Its'
p1084
I17
I0
I0
I1
tp1085
(S'Two'
p1086
I16
I0
I0
I1
tp1087
tp1088
aa(lp1089
((S'the ships'
p1090
I17
I5
I4
I6
tp1091
(S'Two British ships that were in the area on an exercise'
p1092
I16
I2
I0
I11
tp1093
tp1094
aa(lp1095
((S'their'
p1096
I20
I2
I12
I13
tp1097
(S'Nicaraguan leaders'
p1098
I19
I1
I0
I2
tp1099
tp1100
aa(lp1101
((S'it'
p1102
I19
I2
I12
I13
tp1103
(S'Cubas offer of medical help'
p1104
I19
I6
I5
I10
tp1105
tp1106
aa(lp1107
((S'Cubas'
p1108
I19
I5
I5
I6
tp1109
(S'Cubas'
p1110
I18
I6
I6
I7
tp1111
tp1112
aa(lp1113
((S'doctors'
p1114
I18
I0
I10
I11
tp1115
(S'the doctors'
p1116
I19
I3
I22
I24
tp1117
tp1118
a((S'them'
p1119
I18
I8
I18
I19
tp1120
(S'the doctors'
p1121
I19
I3
I22
I24
tp1122
tp1123
a((S'their'
p1124
I18
I6
I26
I27
tp1125
(S'the doctors'
p1126
I19
I3
I22
I24
tp1127
tp1128
aa(lp1129
((S'its'
p1130
I18
I1
I21
I22
tp1131
(S'the communist nation'
p1132
I18
I6
I14
I17
tp1133
tp1134
aasg4
(lp1135
(dp1136
g7
S'(ROOT (S (NP (NN Aid) (NNS workers)) (VP (VBD struggled) (NP-TMP (NNP Friday)) (S (VP (TO to) (VP (VB reach) (NP (NP (NNS survivors)) (PP (IN of) (NP (NP (NNP Hurricane) (NNP Mitch)) (, ,) (SBAR (WHNP (WP who)) (S (VP (VBP are) (PP (IN in) (NP (NP (NN danger)) (PP (IN of) (S (VP (VBG dying) (PP (IN from) (NP (NN starvation) (CC and) (NN disease))) (PP (IN in) (NP (NP (DT the) (NN wake)) (PP (IN of) (NP (NP (DT the) (NN storm)) (SBAR (WHNP (WDT that)) (S (NP (NNS officials)) (VP (VBP estimate) (VP (VBN killed) (NP (QP (XS (JJR more) (IN than)) (CD 10,000)) (NNS people))))))))))))))))))))))))) (. .)))'
p1137
sg9
S'Aid workers struggled Friday to reach survivors of Hurricane Mitch, who are in danger of dying from starvation and disease in the wake of the storm that officials estimate killed more than 10,000 people.'
p1138
sg11
(lp1139
(S'root'
p1140
S'ROOT'
p1141
S'struggled'
p1142
tp1143
a(S'nn'
p1144
S'workers'
p1145
S'Aid'
p1146
tp1147
a(S'nsubj'
p1148
S'struggled'
p1149
S'workers'
p1150
tp1151
a(S'tmod'
p1152
S'struggled'
p1153
S'Friday'
p1154
tp1155
a(S'aux'
p1156
S'reach'
p1157
S'to'
p1158
tp1159
a(S'xcomp'
p1160
S'struggled'
p1161
S'reach'
p1162
tp1163
a(S'dobj'
p1164
S'reach'
p1165
S'survivors'
p1166
tp1167
a(S'nn'
p1168
S'Mitch'
p1169
S'Hurricane'
p1170
tp1171
a(S'prep_of'
p1172
S'survivors'
p1173
S'Mitch'
p1174
tp1175
a(S'nsubj'
p1176
S'are'
p1177
S'who'
p1178
tp1179
a(S'rcmod'
p1180
S'Mitch'
p1181
S'are'
p1182
tp1183
a(S'prep_in'
p1184
S'are'
p1185
S'danger'
p1186
tp1187
a(S'prepc_of'
p1188
S'danger'
p1189
S'dying'
p1190
tp1191
a(S'prep_from'
p1192
S'dying'
p1193
S'starvation'
p1194
tp1195
a(S'conj_and'
p1196
S'starvation'
p1197
S'disease'
p1198
tp1199
a(S'det'
p1200
S'wake'
p1201
S'the'
p1202
tp1203
a(S'prep_in'
p1204
S'dying'
p1205
S'wake'
p1206
tp1207
a(S'det'
p1208
S'storm'
p1209
S'the'
p1210
tp1211
a(S'prep_of'
p1212
S'wake'
p1213
S'storm'
p1214
tp1215
a(S'dobj'
p1216
S'estimate'
p1217
S'that'
p1218
tp1219
a(S'nsubj'
p1220
S'estimate'
p1221
S'officials'
p1222
tp1223
a(S'rcmod'
p1224
S'storm'
p1225
S'estimate'
p1226
tp1227
a(S'dep'
p1228
S'estimate'
p1229
S'killed'
p1230
tp1231
a(S'mwe'
p1232
S'than'
p1233
S'more'
p1234
tp1235
a(S'quantmod'
p1236
S'10,000'
p1237
S'than'
p1238
tp1239
a(S'num'
p1240
S'people'
p1241
S'10,000'
p1242
tp1243
a(S'dobj'
p1244
S'killed'
p1245
S'people'
p1246
tp1247
asg45
(lp1248
(g1140
S'ROOT-0'
p1249
S'struggled-3'
p1250
tp1251
a(g1144
S'workers-2'
p1252
S'Aid-1'
p1253
tp1254
a(g1148
S'struggled-3'
p1255
S'workers-2'
p1256
tp1257
a(g1152
S'struggled-3'
p1258
S'Friday-4'
p1259
tp1260
a(g1156
S'reach-6'
p1261
S'to-5'
p1262
tp1263
a(g1160
S'struggled-3'
p1264
S'reach-6'
p1265
tp1266
a(g1164
S'reach-6'
p1267
S'survivors-7'
p1268
tp1269
a(g1168
S'Mitch-10'
p1270
S'Hurricane-9'
p1271
tp1272
a(g1172
S'survivors-7'
p1273
S'Mitch-10'
p1274
tp1275
a(g1176
S'are-13'
p1276
S'who-12'
p1277
tp1278
a(g1180
S'Mitch-10'
p1279
S'are-13'
p1280
tp1281
a(g1184
S'are-13'
p1282
S'danger-15'
p1283
tp1284
a(g1188
S'danger-15'
p1285
S'dying-17'
p1286
tp1287
a(g1192
S'dying-17'
p1288
S'starvation-19'
p1289
tp1290
a(g1196
S'starvation-19'
p1291
S'disease-21'
p1292
tp1293
a(g1200
S'wake-24'
p1294
S'the-23'
p1295
tp1296
a(g1204
S'dying-17'
p1297
S'wake-24'
p1298
tp1299
a(g1208
S'storm-27'
p1300
S'the-26'
p1301
tp1302
a(g1212
S'wake-24'
p1303
S'storm-27'
p1304
tp1305
a(g1216
S'estimate-30'
p1306
S'that-28'
p1307
tp1308
a(g1220
S'estimate-30'
p1309
S'officials-29'
p1310
tp1311
a(g1224
S'storm-27'
p1312
S'estimate-30'
p1313
tp1314
a(g1228
S'estimate-30'
p1315
S'killed-31'
p1316
tp1317
a(g1232
S'than-33'
p1318
S'more-32'
p1319
tp1320
a(g1236
S'10,000-34'
p1321
S'than-33'
p1322
tp1323
a(g1240
S'people-35'
p1324
S'10,000-34'
p1325
tp1326
a(g1244
S'killed-31'
p1327
S'people-35'
p1328
tp1329
asg71
(lp1330
(S'Aid'
p1331
(dp1332
S'NamedEntityTag'
p1333
g76
sS'CharacterOffsetEnd'
p1334
g78
sS'Lemma'
p1335
S'aid'
p1336
sS'PartOfSpeech'
p1337
S'NN'
p1338
sS'CharacterOffsetBegin'
p1339
S'0'
p1340
stp1341
a(S'workers'
p1342
(dp1343
S'NamedEntityTag'
p1344
g76
sS'CharacterOffsetEnd'
p1345
S'11'
p1346
sS'Lemma'
p1347
S'worker'
p1348
sS'PartOfSpeech'
p1349
S'NNS'
p1350
sS'CharacterOffsetBegin'
p1351
g96
stp1352
a(S'struggled'
p1353
(dp1354
S'NamedEntityTag'
p1355
g76
sS'CharacterOffsetEnd'
p1356
S'21'
p1357
sS'Lemma'
p1358
S'struggle'
p1359
sS'PartOfSpeech'
p1360
S'VBD'
p1361
sS'CharacterOffsetBegin'
p1362
S'12'
p1363
stp1364
a(S'Friday'
p1365
(dp1366
S'NormalizedNamedEntityTag'
p1367
S'XXXX-WXX-5'
p1368
sS'Timex'
p1369
S'<TIMEX3 tid="t1" type="DATE" value="XXXX-WXX-5">Friday</TIMEX3>'
p1370
sS'Lemma'
p1371
S'Friday'
p1372
sS'CharacterOffsetEnd'
p1373
S'28'
p1374
sS'PartOfSpeech'
p1375
S'NNP'
p1376
sS'CharacterOffsetBegin'
p1377
S'22'
p1378
sS'NamedEntityTag'
p1379
S'DATE'
p1380
stp1381
a(S'to'
p1382
(dp1383
S'NamedEntityTag'
p1384
g76
sS'CharacterOffsetEnd'
p1385
S'31'
p1386
sS'Lemma'
p1387
S'to'
p1388
sS'PartOfSpeech'
p1389
S'TO'
p1390
sS'CharacterOffsetBegin'
p1391
S'29'
p1392
stp1393
a(S'reach'
p1394
(dp1395
S'NamedEntityTag'
p1396
g76
sS'CharacterOffsetEnd'
p1397
S'37'
p1398
sS'Lemma'
p1399
S'reach'
p1400
sS'PartOfSpeech'
p1401
S'VB'
p1402
sS'CharacterOffsetBegin'
p1403
S'32'
p1404
stp1405
a(S'survivors'
p1406
(dp1407
S'NamedEntityTag'
p1408
g76
sS'CharacterOffsetEnd'
p1409
S'47'
p1410
sS'Lemma'
p1411
S'survivor'
p1412
sS'PartOfSpeech'
p1413
S'NNS'
p1414
sS'CharacterOffsetBegin'
p1415
S'38'
p1416
stp1417
a(S'of'
p1418
(dp1419
S'NamedEntityTag'
p1420
g76
sS'CharacterOffsetEnd'
p1421
S'50'
p1422
sS'Lemma'
p1423
S'of'
p1424
sS'PartOfSpeech'
p1425
S'IN'
p1426
sS'CharacterOffsetBegin'
p1427
S'48'
p1428
stp1429
a(S'Hurricane'
p1430
(dp1431
S'NamedEntityTag'
p1432
g76
sS'CharacterOffsetEnd'
p1433
S'60'
p1434
sS'Lemma'
p1435
S'Hurricane'
p1436
sS'PartOfSpeech'
p1437
S'NNP'
p1438
sS'CharacterOffsetBegin'
p1439
S'51'
p1440
stp1441
a(S'Mitch'
p1442
(dp1443
S'NamedEntityTag'
p1444
S'PERSON'
p1445
sS'CharacterOffsetEnd'
p1446
S'66'
p1447
sS'Lemma'
p1448
S'Mitch'
p1449
sS'PartOfSpeech'
p1450
S'NNP'
p1451
sS'CharacterOffsetBegin'
p1452
S'61'
p1453
stp1454
a(g135
(dp1455
S'NamedEntityTag'
p1456
g76
sS'CharacterOffsetEnd'
p1457
S'67'
p1458
sS'Lemma'
p1459
g135
sS'PartOfSpeech'
p1460
g135
sS'CharacterOffsetBegin'
p1461
S'66'
p1462
stp1463
a(S'who'
p1464
(dp1465
S'NamedEntityTag'
p1466
g76
sS'CharacterOffsetEnd'
p1467
S'71'
p1468
sS'Lemma'
p1469
S'who'
p1470
sS'PartOfSpeech'
p1471
S'WP'
p1472
sS'CharacterOffsetBegin'
p1473
S'68'
p1474
stp1475
a(S'are'
p1476
(dp1477
S'NamedEntityTag'
p1478
g76
sS'CharacterOffsetEnd'
p1479
S'75'
p1480
sS'Lemma'
p1481
S'be'
p1482
sS'PartOfSpeech'
p1483
S'VBP'
p1484
sS'CharacterOffsetBegin'
p1485
S'72'
p1486
stp1487
a(S'in'
p1488
(dp1489
S'NamedEntityTag'
p1490
g76
sS'CharacterOffsetEnd'
p1491
S'78'
p1492
sS'Lemma'
p1493
S'in'
p1494
sS'PartOfSpeech'
p1495
S'IN'
p1496
sS'CharacterOffsetBegin'
p1497
S'76'
p1498
stp1499
a(S'danger'
p1500
(dp1501
S'NamedEntityTag'
p1502
g76
sS'CharacterOffsetEnd'
p1503
S'85'
p1504
sS'Lemma'
p1505
S'danger'
p1506
sS'PartOfSpeech'
p1507
S'NN'
p1508
sS'CharacterOffsetBegin'
p1509
S'79'
p1510
stp1511
a(S'of'
p1512
(dp1513
S'NamedEntityTag'
p1514
g76
sS'CharacterOffsetEnd'
p1515
S'88'
p1516
sS'Lemma'
p1517
S'of'
p1518
sS'PartOfSpeech'
p1519
S'IN'
p1520
sS'CharacterOffsetBegin'
p1521
S'86'
p1522
stp1523
a(S'dying'
p1524
(dp1525
S'NamedEntityTag'
p1526
g76
sS'CharacterOffsetEnd'
p1527
S'94'
p1528
sS'Lemma'
p1529
S'die'
p1530
sS'PartOfSpeech'
p1531
S'VBG'
p1532
sS'CharacterOffsetBegin'
p1533
S'89'
p1534
stp1535
a(S'from'
p1536
(dp1537
S'NamedEntityTag'
p1538
g76
sS'CharacterOffsetEnd'
p1539
S'99'
p1540
sS'Lemma'
p1541
S'from'
p1542
sS'PartOfSpeech'
p1543
S'IN'
p1544
sS'CharacterOffsetBegin'
p1545
S'95'
p1546
stp1547
a(S'starvation'
p1548
(dp1549
S'NamedEntityTag'
p1550
g76
sS'CharacterOffsetEnd'
p1551
S'110'
p1552
sS'Lemma'
p1553
S'starvation'
p1554
sS'PartOfSpeech'
p1555
S'NN'
p1556
sS'CharacterOffsetBegin'
p1557
S'100'
p1558
stp1559
a(S'and'
p1560
(dp1561
S'NamedEntityTag'
p1562
g76
sS'CharacterOffsetEnd'
p1563
S'114'
p1564
sS'Lemma'
p1565
S'and'
p1566
sS'PartOfSpeech'
p1567
S'CC'
p1568
sS'CharacterOffsetBegin'
p1569
S'111'
p1570
stp1571
a(S'disease'
p1572
(dp1573
S'NamedEntityTag'
p1574
g76
sS'CharacterOffsetEnd'
p1575
S'122'
p1576
sS'Lemma'
p1577
S'disease'
p1578
sS'PartOfSpeech'
p1579
S'NN'
p1580
sS'CharacterOffsetBegin'
p1581
S'115'
p1582
stp1583
a(S'in'
p1584
(dp1585
S'NamedEntityTag'
p1586
g76
sS'CharacterOffsetEnd'
p1587
S'125'
p1588
sS'Lemma'
p1589
S'in'
p1590
sS'PartOfSpeech'
p1591
S'IN'
p1592
sS'CharacterOffsetBegin'
p1593
S'123'
p1594
stp1595
a(S'the'
p1596
(dp1597
S'NamedEntityTag'
p1598
g76
sS'CharacterOffsetEnd'
p1599
S'129'
p1600
sS'Lemma'
p1601
S'the'
p1602
sS'PartOfSpeech'
p1603
S'DT'
p1604
sS'CharacterOffsetBegin'
p1605
S'126'
p1606
stp1607
a(S'wake'
p1608
(dp1609
S'NamedEntityTag'
p1610
g76
sS'CharacterOffsetEnd'
p1611
S'134'
p1612
sS'Lemma'
p1613
S'wake'
p1614
sS'PartOfSpeech'
p1615
S'NN'
p1616
sS'CharacterOffsetBegin'
p1617
S'130'
p1618
stp1619
a(S'of'
p1620
(dp1621
S'NamedEntityTag'
p1622
g76
sS'CharacterOffsetEnd'
p1623
S'137'
p1624
sS'Lemma'
p1625
S'of'
p1626
sS'PartOfSpeech'
p1627
S'IN'
p1628
sS'CharacterOffsetBegin'
p1629
S'135'
p1630
stp1631
a(S'the'
p1632
(dp1633
S'NamedEntityTag'
p1634
g76
sS'CharacterOffsetEnd'
p1635
S'141'
p1636
sS'Lemma'
p1637
S'the'
p1638
sS'PartOfSpeech'
p1639
S'DT'
p1640
sS'CharacterOffsetBegin'
p1641
S'138'
p1642
stp1643
a(S'storm'
p1644
(dp1645
S'NamedEntityTag'
p1646
g76
sS'CharacterOffsetEnd'
p1647
S'147'
p1648
sS'Lemma'
p1649
S'storm'
p1650
sS'PartOfSpeech'
p1651
S'NN'
p1652
sS'CharacterOffsetBegin'
p1653
S'142'
p1654
stp1655
a(S'that'
p1656
(dp1657
S'NamedEntityTag'
p1658
g76
sS'CharacterOffsetEnd'
p1659
S'152'
p1660
sS'Lemma'
p1661
S'that'
p1662
sS'PartOfSpeech'
p1663
S'WDT'
p1664
sS'CharacterOffsetBegin'
p1665
S'148'
p1666
stp1667
a(S'officials'
p1668
(dp1669
S'NamedEntityTag'
p1670
g76
sS'CharacterOffsetEnd'
p1671
S'162'
p1672
sS'Lemma'
p1673
S'official'
p1674
sS'PartOfSpeech'
p1675
S'NNS'
p1676
sS'CharacterOffsetBegin'
p1677
S'153'
p1678
stp1679
a(S'estimate'
p1680
(dp1681
S'NamedEntityTag'
p1682
g76
sS'CharacterOffsetEnd'
p1683
S'171'
p1684
sS'Lemma'
p1685
S'estimate'
p1686
sS'PartOfSpeech'
p1687
S'VBP'
p1688
sS'CharacterOffsetBegin'
p1689
S'163'
p1690
stp1691
a(S'killed'
p1692
(dp1693
S'NamedEntityTag'
p1694
g76
sS'CharacterOffsetEnd'
p1695
S'178'
p1696
sS'Lemma'
p1697
S'kill'
p1698
sS'PartOfSpeech'
p1699
S'VBN'
p1700
sS'CharacterOffsetBegin'
p1701
S'172'
p1702
stp1703
a(S'more'
p1704
(dp1705
S'NamedEntityTag'
p1706
g76
sS'CharacterOffsetEnd'
p1707
S'183'
p1708
sS'Lemma'
p1709
S'more'
p1710
sS'PartOfSpeech'
p1711
S'JJR'
p1712
sS'CharacterOffsetBegin'
p1713
S'179'
p1714
stp1715
a(S'than'
p1716
(dp1717
S'NamedEntityTag'
p1718
g76
sS'CharacterOffsetEnd'
p1719
S'188'
p1720
sS'Lemma'
p1721
S'than'
p1722
sS'PartOfSpeech'
p1723
S'IN'
p1724
sS'CharacterOffsetBegin'
p1725
S'184'
p1726
stp1727
a(S'10,000'
p1728
(dp1729
S'NormalizedNamedEntityTag'
p1730
S'>10000.0'
p1731
sS'Lemma'
p1732
S'10,000'
p1733
sS'CharacterOffsetEnd'
p1734
S'195'
p1735
sS'PartOfSpeech'
p1736
S'CD'
p1737
sS'CharacterOffsetBegin'
p1738
S'189'
p1739
sS'NamedEntityTag'
p1740
S'NUMBER'
p1741
stp1742
a(S'people'
p1743
(dp1744
S'NamedEntityTag'
p1745
g76
sS'CharacterOffsetEnd'
p1746
S'202'
p1747
sS'Lemma'
p1748
S'people'
p1749
sS'PartOfSpeech'
p1750
S'NNS'
p1751
sS'CharacterOffsetBegin'
p1752
S'196'
p1753
stp1754
a(g459
(dp1755
S'NamedEntityTag'
p1756
g76
sS'CharacterOffsetEnd'
p1757
S'203'
p1758
sS'Lemma'
p1759
g459
sS'PartOfSpeech'
p1760
g459
sS'CharacterOffsetBegin'
p1761
S'202'
p1762
stp1763
asa(dp1764
g7
S'(ROOT (S (S (NP (NP (JJ Foreign) (NN aid) (CC and) (NNS pledges)) (PP (IN of) (NP (NN assistance)))) (VP (VBD poured) (PP (IN into) (NP (NNP Central) (NNP America))))) (, ,) (CC but) (S (NP (NP (NN damage)) (PP (TO to) (NP (NNS roads) (CC and) (NNS bridges)))) (VP (VBD reduced) (NP (NP (DT the) (NN amount)) (PP (IN of) (NP (NP (NNS supplies)) (VP (VBG reaching) (NP (NP (NNS hundreds)) (PP (IN of) (NP (VBN isolated) (NNS communities) (S (VP (TO to) (VP (ADVP (DT a)) (VB trickle)))))))) (: :) (NP (NP (QP (RB only) (RB as) (JJ much))) (SBAR (IN as) (S (VP (MD could) (VP (VB be) (VP (VBN dropped) (PP (IN from) (NP (DT a) (NN helicopter))))))))) (, ,) (SBAR (WHADVP (WRB when)) (S (NP (DT the) (NN aircraft)) (VP (MD can) (VP (VB get) (PP (IN through))))))))))) (. .)))'
p1765
sg9
S'Foreign aid and pledges of assistance poured into Central America, but damage to roads and bridges reduced the amount of supplies reaching hundreds of isolated communities to a trickle: only as much as could be dropped from a helicopter, when the aircraft can get through.'
p1766
sg11
(lp1767
(S'root'
p1768
S'ROOT'
p1769
S'poured'
p1770
tp1771
a(S'amod'
p1772
S'aid'
p1773
S'Foreign'
p1774
tp1775
a(S'nsubj'
p1776
S'poured'
p1777
S'aid'
p1778
tp1779
a(S'conj_and'
p1780
S'aid'
p1781
S'pledges'
p1782
tp1783
a(S'prep_of'
p1784
S'aid'
p1785
S'assistance'
p1786
tp1787
a(S'nn'
p1788
S'America'
p1789
S'Central'
p1790
tp1791
a(S'prep_into'
p1792
S'poured'
p1793
S'America'
p1794
tp1795
a(S'nsubj'
p1796
S'reduced'
p1797
S'damage'
p1798
tp1799
a(S'prep_to'
p1800
S'damage'
p1801
S'roads'
p1802
tp1803
a(S'conj_and'
p1804
S'roads'
p1805
S'bridges'
p1806
tp1807
a(S'conj_but'
p1808
S'poured'
p1809
S'reduced'
p1810
tp1811
a(S'det'
p1812
S'amount'
p1813
S'the'
p1814
tp1815
a(S'dobj'
p1816
S'reduced'
p1817
S'amount'
p1818
tp1819
a(S'prep_of'
p1820
S'amount'
p1821
S'supplies'
p1822
tp1823
a(S'partmod'
p1824
S'supplies'
p1825
S'reaching'
p1826
tp1827
a(S'dobj'
p1828
S'reaching'
p1829
S'hundreds'
p1830
tp1831
a(S'amod'
p1832
S'communities'
p1833
S'isolated'
p1834
tp1835
a(S'prep_of'
p1836
S'hundreds'
p1837
S'communities'
p1838
tp1839
a(S'aux'
p1840
S'trickle'
p1841
S'to'
p1842
tp1843
a(S'advmod'
p1844
S'trickle'
p1845
S'a'
p1846
tp1847
a(S'infmod'
p1848
S'communities'
p1849
S'trickle'
p1850
tp1851
a(S'quantmod'
p1852
S'much'
p1853
S'only'
p1854
tp1855
a(S'quantmod'
p1856
S'much'
p1857
S'as'
p1858
tp1859
a(S'dep'
p1860
S'supplies'
p1861
S'much'
p1862
tp1863
a(S'mark'
p1864
S'dropped'
p1865
S'as'
p1866
tp1867
a(S'aux'
p1868
S'dropped'
p1869
S'could'
p1870
tp1871
a(S'auxpass'
p1872
S'dropped'
p1873
S'be'
p1874
tp1875
a(S'dep'
p1876
S'much'
p1877
S'dropped'
p1878
tp1879
a(S'det'
p1880
S'helicopter'
p1881
g1846
tp1882
a(S'prep_from'
p1883
S'dropped'
p1884
S'helicopter'
p1885
tp1886
a(S'advmod'
p1887
S'get'
p1888
S'when'
p1889
tp1890
a(S'det'
p1891
S'aircraft'
p1892
S'the'
p1893
tp1894
a(S'nsubj'
p1895
S'get'
p1896
S'aircraft'
p1897
tp1898
a(S'aux'
p1899
S'get'
p1900
S'can'
p1901
tp1902
a(S'rcmod'
p1903
S'supplies'
p1904
S'get'
p1905
tp1906
a(S'prep'
p1907
S'get'
p1908
S'through'
p1909
tp1910
asg45
(lp1911
(g1768
S'ROOT-0'
p1912
S'poured-7'
p1913
tp1914
a(g1772
S'aid-2'
p1915
S'Foreign-1'
p1916
tp1917
a(g1776
S'poured-7'
p1918
S'aid-2'
p1919
tp1920
a(g1780
S'aid-2'
p1921
S'pledges-4'
p1922
tp1923
a(g1784
S'aid-2'
p1924
S'assistance-6'
p1925
tp1926
a(g1788
S'America-10'
p1927
S'Central-9'
p1928
tp1929
a(g1792
S'poured-7'
p1930
S'America-10'
p1931
tp1932
a(g1796
S'reduced-18'
p1933
S'damage-13'
p1934
tp1935
a(g1800
S'damage-13'
p1936
S'roads-15'
p1937
tp1938
a(g1804
S'roads-15'
p1939
S'bridges-17'
p1940
tp1941
a(g1808
S'poured-7'
p1942
S'reduced-18'
p1943
tp1944
a(g1812
S'amount-20'
p1945
S'the-19'
p1946
tp1947
a(g1816
S'reduced-18'
p1948
S'amount-20'
p1949
tp1950
a(g1820
S'amount-20'
p1951
S'supplies-22'
p1952
tp1953
a(g1824
S'supplies-22'
p1954
S'reaching-23'
p1955
tp1956
a(g1828
S'reaching-23'
p1957
S'hundreds-24'
p1958
tp1959
a(g1832
S'communities-27'
p1960
S'isolated-26'
p1961
tp1962
a(g1836
S'hundreds-24'
p1963
S'communities-27'
p1964
tp1965
a(g1840
S'trickle-30'
p1966
S'to-28'
p1967
tp1968
a(g1844
S'trickle-30'
p1969
S'a-29'
p1970
tp1971
a(g1848
S'communities-27'
p1972
S'trickle-30'
p1973
tp1974
a(g1852
S'much-34'
p1975
S'only-32'
p1976
tp1977
a(g1856
S'much-34'
p1978
S'as-33'
p1979
tp1980
a(g1860
S'supplies-22'
p1981
S'much-34'
p1982
tp1983
a(g1864
S'dropped-38'
p1984
S'as-35'
p1985
tp1986
a(g1868
S'dropped-38'
p1987
S'could-36'
p1988
tp1989
a(g1872
S'dropped-38'
p1990
S'be-37'
p1991
tp1992
a(g1876
S'much-34'
p1993
S'dropped-38'
p1994
tp1995
a(g1880
S'helicopter-41'
p1996
S'a-40'
p1997
tp1998
a(g1883
S'dropped-38'
p1999
S'helicopter-41'
p2000
tp2001
a(g1887
S'get-47'
p2002
S'when-43'
p2003
tp2004
a(g1891
S'aircraft-45'
p2005
S'the-44'
p2006
tp2007
a(g1895
S'get-47'
p2008
S'aircraft-45'
p2009
tp2010
a(g1899
S'get-47'
p2011
S'can-46'
p2012
tp2013
a(g1903
S'supplies-22'
p2014
S'get-47'
p2015
tp2016
a(g1907
S'get-47'
p2017
S'through-48'
p2018
tp2019
asg71
(lp2020
(S'Foreign'
p2021
(dp2022
S'NamedEntityTag'
p2023
g76
sS'CharacterOffsetEnd'
p2024
S'211'
p2025
sS'Lemma'
p2026
S'foreign'
p2027
sS'PartOfSpeech'
p2028
S'JJ'
p2029
sS'CharacterOffsetBegin'
p2030
S'204'
p2031
stp2032
a(S'aid'
p2033
(dp2034
S'NamedEntityTag'
p2035
g76
sS'CharacterOffsetEnd'
p2036
S'215'
p2037
sS'Lemma'
p2038
S'aid'
p2039
sS'PartOfSpeech'
p2040
S'NN'
p2041
sS'CharacterOffsetBegin'
p2042
S'212'
p2043
stp2044
a(S'and'
p2045
(dp2046
S'NamedEntityTag'
p2047
g76
sS'CharacterOffsetEnd'
p2048
S'219'
p2049
sS'Lemma'
p2050
S'and'
p2051
sS'PartOfSpeech'
p2052
S'CC'
p2053
sS'CharacterOffsetBegin'
p2054
S'216'
p2055
stp2056
a(S'pledges'
p2057
(dp2058
S'NamedEntityTag'
p2059
g76
sS'CharacterOffsetEnd'
p2060
S'227'
p2061
sS'Lemma'
p2062
S'pledge'
p2063
sS'PartOfSpeech'
p2064
S'NNS'
p2065
sS'CharacterOffsetBegin'
p2066
S'220'
p2067
stp2068
a(S'of'
p2069
(dp2070
S'NamedEntityTag'
p2071
g76
sS'CharacterOffsetEnd'
p2072
S'230'
p2073
sS'Lemma'
p2074
S'of'
p2075
sS'PartOfSpeech'
p2076
S'IN'
p2077
sS'CharacterOffsetBegin'
p2078
S'228'
p2079
stp2080
a(S'assistance'
p2081
(dp2082
S'NamedEntityTag'
p2083
g76
sS'CharacterOffsetEnd'
p2084
S'241'
p2085
sS'Lemma'
p2086
S'assistance'
p2087
sS'PartOfSpeech'
p2088
S'NN'
p2089
sS'CharacterOffsetBegin'
p2090
S'231'
p2091
stp2092
a(S'poured'
p2093
(dp2094
S'NamedEntityTag'
p2095
g76
sS'CharacterOffsetEnd'
p2096
S'248'
p2097
sS'Lemma'
p2098
S'pour'
p2099
sS'PartOfSpeech'
p2100
S'VBD'
p2101
sS'CharacterOffsetBegin'
p2102
S'242'
p2103
stp2104
a(S'into'
p2105
(dp2106
S'NamedEntityTag'
p2107
g76
sS'CharacterOffsetEnd'
p2108
S'253'
p2109
sS'Lemma'
p2110
S'into'
p2111
sS'PartOfSpeech'
p2112
S'IN'
p2113
sS'CharacterOffsetBegin'
p2114
S'249'
p2115
stp2116
a(S'Central'
p2117
(dp2118
S'NamedEntityTag'
p2119
S'LOCATION'
p2120
sS'CharacterOffsetEnd'
p2121
S'261'
p2122
sS'Lemma'
p2123
S'Central'
p2124
sS'PartOfSpeech'
p2125
S'NNP'
p2126
sS'CharacterOffsetBegin'
p2127
S'254'
p2128
stp2129
a(S'America'
p2130
(dp2131
S'NamedEntityTag'
p2132
S'LOCATION'
p2133
sS'CharacterOffsetEnd'
p2134
S'269'
p2135
sS'Lemma'
p2136
S'America'
p2137
sS'PartOfSpeech'
p2138
S'NNP'
p2139
sS'CharacterOffsetBegin'
p2140
S'262'
p2141
stp2142
a(g135
(dp2143
S'NamedEntityTag'
p2144
g76
sS'CharacterOffsetEnd'
p2145
S'270'
p2146
sS'Lemma'
p2147
g135
sS'PartOfSpeech'
p2148
g135
sS'CharacterOffsetBegin'
p2149
S'269'
p2150
stp2151
a(S'but'
p2152
(dp2153
S'NamedEntityTag'
p2154
g76
sS'CharacterOffsetEnd'
p2155
S'274'
p2156
sS'Lemma'
p2157
S'but'
p2158
sS'PartOfSpeech'
p2159
S'CC'
p2160
sS'CharacterOffsetBegin'
p2161
S'271'
p2162
stp2163
a(S'damage'
p2164
(dp2165
S'NamedEntityTag'
p2166
g76
sS'CharacterOffsetEnd'
p2167
S'281'
p2168
sS'Lemma'
p2169
S'damage'
p2170
sS'PartOfSpeech'
p2171
S'NN'
p2172
sS'CharacterOffsetBegin'
p2173
S'275'
p2174
stp2175
a(S'to'
p2176
(dp2177
S'NamedEntityTag'
p2178
g76
sS'CharacterOffsetEnd'
p2179
S'284'
p2180
sS'Lemma'
p2181
S'to'
p2182
sS'PartOfSpeech'
p2183
S'TO'
p2184
sS'CharacterOffsetBegin'
p2185
S'282'
p2186
stp2187
a(S'roads'
p2188
(dp2189
S'NamedEntityTag'
p2190
g76
sS'CharacterOffsetEnd'
p2191
S'290'
p2192
sS'Lemma'
p2193
S'road'
p2194
sS'PartOfSpeech'
p2195
S'NNS'
p2196
sS'CharacterOffsetBegin'
p2197
S'285'
p2198
stp2199
a(S'and'
p2200
(dp2201
S'NamedEntityTag'
p2202
g76
sS'CharacterOffsetEnd'
p2203
S'294'
p2204
sS'Lemma'
p2205
S'and'
p2206
sS'PartOfSpeech'
p2207
S'CC'
p2208
sS'CharacterOffsetBegin'
p2209
S'291'
p2210
stp2211
a(S'bridges'
p2212
(dp2213
S'NamedEntityTag'
p2214
g76
sS'CharacterOffsetEnd'
p2215
S'302'
p2216
sS'Lemma'
p2217
S'bridge'
p2218
sS'PartOfSpeech'
p2219
S'NNS'
p2220
sS'CharacterOffsetBegin'
p2221
S'295'
p2222
stp2223
a(S'reduced'
p2224
(dp2225
S'NamedEntityTag'
p2226
g76
sS'CharacterOffsetEnd'
p2227
S'310'
p2228
sS'Lemma'
p2229
S'reduce'
p2230
sS'PartOfSpeech'
p2231
S'VBD'
p2232
sS'CharacterOffsetBegin'
p2233
S'303'
p2234
stp2235
a(S'the'
p2236
(dp2237
S'NamedEntityTag'
p2238
g76
sS'CharacterOffsetEnd'
p2239
S'314'
p2240
sS'Lemma'
p2241
S'the'
p2242
sS'PartOfSpeech'
p2243
S'DT'
p2244
sS'CharacterOffsetBegin'
p2245
S'311'
p2246
stp2247
a(S'amount'
p2248
(dp2249
S'NamedEntityTag'
p2250
g76
sS'CharacterOffsetEnd'
p2251
S'321'
p2252
sS'Lemma'
p2253
S'amount'
p2254
sS'PartOfSpeech'
p2255
S'NN'
p2256
sS'CharacterOffsetBegin'
p2257
S'315'
p2258
stp2259
a(S'of'
p2260
(dp2261
S'NamedEntityTag'
p2262
g76
sS'CharacterOffsetEnd'
p2263
S'324'
p2264
sS'Lemma'
p2265
S'of'
p2266
sS'PartOfSpeech'
p2267
S'IN'
p2268
sS'CharacterOffsetBegin'
p2269
S'322'
p2270
stp2271
a(S'supplies'
p2272
(dp2273
S'NamedEntityTag'
p2274
g76
sS'CharacterOffsetEnd'
p2275
S'333'
p2276
sS'Lemma'
p2277
S'supplies'
p2278
sS'PartOfSpeech'
p2279
S'NNS'
p2280
sS'CharacterOffsetBegin'
p2281
S'325'
p2282
stp2283
a(S'reaching'
p2284
(dp2285
S'NamedEntityTag'
p2286
g76
sS'CharacterOffsetEnd'
p2287
S'342'
p2288
sS'Lemma'
p2289
S'reach'
p2290
sS'PartOfSpeech'
p2291
S'VBG'
p2292
sS'CharacterOffsetBegin'
p2293
S'334'
p2294
stp2295
a(S'hundreds'
p2296
(dp2297
S'NamedEntityTag'
p2298
g76
sS'CharacterOffsetEnd'
p2299
S'351'
p2300
sS'Lemma'
p2301
S'hundred'
p2302
sS'PartOfSpeech'
p2303
S'NNS'
p2304
sS'CharacterOffsetBegin'
p2305
S'343'
p2306
stp2307
a(S'of'
p2308
(dp2309
S'NamedEntityTag'
p2310
g76
sS'CharacterOffsetEnd'
p2311
S'354'
p2312
sS'Lemma'
p2313
S'of'
p2314
sS'PartOfSpeech'
p2315
S'IN'
p2316
sS'CharacterOffsetBegin'
p2317
S'352'
p2318
stp2319
a(S'isolated'
p2320
(dp2321
S'NamedEntityTag'
p2322
g76
sS'CharacterOffsetEnd'
p2323
S'363'
p2324
sS'Lemma'
p2325
S'isolate'
p2326
sS'PartOfSpeech'
p2327
S'VBN'
p2328
sS'CharacterOffsetBegin'
p2329
S'355'
p2330
stp2331
a(S'communities'
p2332
(dp2333
S'NamedEntityTag'
p2334
g76
sS'CharacterOffsetEnd'
p2335
S'375'
p2336
sS'Lemma'
p2337
S'community'
p2338
sS'PartOfSpeech'
p2339
S'NNS'
p2340
sS'CharacterOffsetBegin'
p2341
S'364'
p2342
stp2343
a(S'to'
p2344
(dp2345
S'NamedEntityTag'
p2346
g76
sS'CharacterOffsetEnd'
p2347
S'378'
p2348
sS'Lemma'
p2349
S'to'
p2350
sS'PartOfSpeech'
p2351
S'TO'
p2352
sS'CharacterOffsetBegin'
p2353
S'376'
p2354
stp2355
a(g1846
(dp2356
S'NamedEntityTag'
p2357
g76
sS'CharacterOffsetEnd'
p2358
S'380'
p2359
sS'Lemma'
p2360
g1846
sS'PartOfSpeech'
p2361
S'DT'
p2362
sS'CharacterOffsetBegin'
p2363
S'379'
p2364
stp2365
a(S'trickle'
p2366
(dp2367
S'NamedEntityTag'
p2368
g76
sS'CharacterOffsetEnd'
p2369
S'388'
p2370
sS'Lemma'
p2371
S'trickle'
p2372
sS'PartOfSpeech'
p2373
S'VB'
p2374
sS'CharacterOffsetBegin'
p2375
S'381'
p2376
stp2377
a(g416
(dp2378
S'NamedEntityTag'
p2379
g76
sS'CharacterOffsetEnd'
p2380
S'389'
p2381
sS'Lemma'
p2382
g416
sS'PartOfSpeech'
p2383
g416
sS'CharacterOffsetBegin'
p2384
S'388'
p2385
stp2386
a(S'only'
p2387
(dp2388
S'NamedEntityTag'
p2389
g76
sS'CharacterOffsetEnd'
p2390
S'394'
p2391
sS'Lemma'
p2392
S'only'
p2393
sS'PartOfSpeech'
p2394
S'RB'
p2395
sS'CharacterOffsetBegin'
p2396
S'390'
p2397
stp2398
a(S'as'
p2399
(dp2400
S'NamedEntityTag'
p2401
g76
sS'CharacterOffsetEnd'
p2402
S'397'
p2403
sS'Lemma'
p2404
S'as'
p2405
sS'PartOfSpeech'
p2406
S'RB'
p2407
sS'CharacterOffsetBegin'
p2408
S'395'
p2409
stp2410
a(S'much'
p2411
(dp2412
S'NamedEntityTag'
p2413
g76
sS'CharacterOffsetEnd'
p2414
S'402'
p2415
sS'Lemma'
p2416
S'much'
p2417
sS'PartOfSpeech'
p2418
S'JJ'
p2419
sS'CharacterOffsetBegin'
p2420
S'398'
p2421
stp2422
a(S'as'
p2423
(dp2424
S'NamedEntityTag'
p2425
g76
sS'CharacterOffsetEnd'
p2426
S'405'
p2427
sS'Lemma'
p2428
S'as'
p2429
sS'PartOfSpeech'
p2430
S'IN'
p2431
sS'CharacterOffsetBegin'
p2432
S'403'
p2433
stp2434
a(S'could'
p2435
(dp2436
S'NamedEntityTag'
p2437
g76
sS'CharacterOffsetEnd'
p2438
S'411'
p2439
sS'Lemma'
p2440
S'could'
p2441
sS'PartOfSpeech'
p2442
S'MD'
p2443
sS'CharacterOffsetBegin'
p2444
S'406'
p2445
stp2446
a(S'be'
p2447
(dp2448
S'NamedEntityTag'
p2449
g76
sS'CharacterOffsetEnd'
p2450
S'414'
p2451
sS'Lemma'
p2452
S'be'
p2453
sS'PartOfSpeech'
p2454
S'VB'
p2455
sS'CharacterOffsetBegin'
p2456
S'412'
p2457
stp2458
a(S'dropped'
p2459
(dp2460
S'NamedEntityTag'
p2461
g76
sS'CharacterOffsetEnd'
p2462
S'422'
p2463
sS'Lemma'
p2464
S'drop'
p2465
sS'PartOfSpeech'
p2466
S'VBN'
p2467
sS'CharacterOffsetBegin'
p2468
S'415'
p2469
stp2470
a(S'from'
p2471
(dp2472
S'NamedEntityTag'
p2473
g76
sS'CharacterOffsetEnd'
p2474
S'427'
p2475
sS'Lemma'
p2476
S'from'
p2477
sS'PartOfSpeech'
p2478
S'IN'
p2479
sS'CharacterOffsetBegin'
p2480
S'423'
p2481
stp2482
a(g1846
(dp2483
S'NamedEntityTag'
p2484
g76
sS'CharacterOffsetEnd'
p2485
S'429'
p2486
sS'Lemma'
p2487
g1846
sS'PartOfSpeech'
p2488
S'DT'
p2489
sS'CharacterOffsetBegin'
p2490
S'428'
p2491
stp2492
a(S'helicopter'
p2493
(dp2494
S'NamedEntityTag'
p2495
g76
sS'CharacterOffsetEnd'
p2496
S'440'
p2497
sS'Lemma'
p2498
S'helicopter'
p2499
sS'PartOfSpeech'
p2500
S'NN'
p2501
sS'CharacterOffsetBegin'
p2502
S'430'
p2503
stp2504
a(g135
(dp2505
S'NamedEntityTag'
p2506
g76
sS'CharacterOffsetEnd'
p2507
S'441'
p2508
sS'Lemma'
p2509
g135
sS'PartOfSpeech'
p2510
g135
sS'CharacterOffsetBegin'
p2511
S'440'
p2512
stp2513
a(S'when'
p2514
(dp2515
S'NamedEntityTag'
p2516
g76
sS'CharacterOffsetEnd'
p2517
S'446'
p2518
sS'Lemma'
p2519
S'when'
p2520
sS'PartOfSpeech'
p2521
S'WRB'
p2522
sS'CharacterOffsetBegin'
p2523
S'442'
p2524
stp2525
a(S'the'
p2526
(dp2527
S'NamedEntityTag'
p2528
g76
sS'CharacterOffsetEnd'
p2529
S'450'
p2530
sS'Lemma'
p2531
S'the'
p2532
sS'PartOfSpeech'
p2533
S'DT'
p2534
sS'CharacterOffsetBegin'
p2535
S'447'
p2536
stp2537
a(S'aircraft'
p2538
(dp2539
S'NamedEntityTag'
p2540
g76
sS'CharacterOffsetEnd'
p2541
S'459'
p2542
sS'Lemma'
p2543
S'aircraft'
p2544
sS'PartOfSpeech'
p2545
S'NN'
p2546
sS'CharacterOffsetBegin'
p2547
S'451'
p2548
stp2549
a(S'can'
p2550
(dp2551
S'NamedEntityTag'
p2552
g76
sS'CharacterOffsetEnd'
p2553
S'463'
p2554
sS'Lemma'
p2555
S'can'
p2556
sS'PartOfSpeech'
p2557
S'MD'
p2558
sS'CharacterOffsetBegin'
p2559
S'460'
p2560
stp2561
a(S'get'
p2562
(dp2563
S'NamedEntityTag'
p2564
g76
sS'CharacterOffsetEnd'
p2565
S'467'
p2566
sS'Lemma'
p2567
S'get'
p2568
sS'PartOfSpeech'
p2569
S'VB'
p2570
sS'CharacterOffsetBegin'
p2571
S'464'
p2572
stp2573
a(S'through'
p2574
(dp2575
S'NamedEntityTag'
p2576
g76
sS'CharacterOffsetEnd'
p2577
S'475'
p2578
sS'Lemma'
p2579
S'through'
p2580
sS'PartOfSpeech'
p2581
S'IN'
p2582
sS'CharacterOffsetBegin'
p2583
S'468'
p2584
stp2585
a(g459
(dp2586
S'NamedEntityTag'
p2587
g76
sS'CharacterOffsetEnd'
p2588
S'476'
p2589
sS'Lemma'
p2590
g459
sS'PartOfSpeech'
p2591
g459
sS'CharacterOffsetBegin'
p2592
S'475'
p2593
stp2594
asa(dp2595
g7
S'(ROOT (S (PP (IN In) (NP (NP (DT the) (NNP Aguan) (NNP River) (NNP Valley)) (PP (IN in) (NP (JJ northern) (NNP Honduras))))) (, ,) (NP (NNS floodwaters)) (VP (VBP have) (VP (VBN receded) (, ,) (S (VP (VBG leaving) (NP (NP (DT a) (NN carpet)) (PP (IN of) (NP (NN mud)))) (PP (IN over) (NP (NP (NNS hundreds)) (PP (IN of) (NP (NP (NNS acres)) (PRN (-LRB- -LRB-) (NP (NNS hectares)) (-RRB- -RRB-)))))))))) (. .)))'
p2596
sg9
S'In the Aguan River Valley in northern Honduras, floodwaters have receded, leaving a carpet of mud over hundreds of acres (hectares).'
p2597
sg11
(lp2598
(S'root'
p2599
S'ROOT'
p2600
S'receded'
p2601
tp2602
a(S'det'
p2603
S'Valley'
p2604
S'the'
p2605
tp2606
a(S'nn'
p2607
S'Valley'
p2608
S'Aguan'
p2609
tp2610
a(S'nn'
p2611
S'Valley'
p2612
S'River'
p2613
tp2614
a(S'prep_in'
p2615
S'receded'
p2616
S'Valley'
p2617
tp2618
a(S'amod'
p2619
S'Honduras'
p2620
S'northern'
p2621
tp2622
a(S'prep_in'
p2623
S'Valley'
p2624
S'Honduras'
p2625
tp2626
a(S'nsubj'
p2627
S'receded'
p2628
S'floodwaters'
p2629
tp2630
a(S'aux'
p2631
S'receded'
p2632
S'have'
p2633
tp2634
a(S'xcomp'
p2635
S'receded'
p2636
S'leaving'
p2637
tp2638
a(S'det'
p2639
S'carpet'
p2640
g1846
tp2641
a(S'dobj'
p2642
S'leaving'
p2643
S'carpet'
p2644
tp2645
a(S'prep_of'
p2646
S'carpet'
p2647
S'mud'
p2648
tp2649
a(S'prep_over'
p2650
S'leaving'
p2651
S'hundreds'
p2652
tp2653
a(S'prep_of'
p2654
S'hundreds'
p2655
S'acres'
p2656
tp2657
a(S'appos'
p2658
S'acres'
p2659
S'hectares'
p2660
tp2661
asg45
(lp2662
(g2599
S'ROOT-0'
p2663
S'receded-12'
p2664
tp2665
a(g2603
S'Valley-5'
p2666
S'the-2'
p2667
tp2668
a(g2607
S'Valley-5'
p2669
S'Aguan-3'
p2670
tp2671
a(g2611
S'Valley-5'
p2672
S'River-4'
p2673
tp2674
a(g2615
S'receded-12'
p2675
S'Valley-5'
p2676
tp2677
a(g2619
S'Honduras-8'
p2678
S'northern-7'
p2679
tp2680
a(g2623
S'Valley-5'
p2681
S'Honduras-8'
p2682
tp2683
a(g2627
S'receded-12'
p2684
S'floodwaters-10'
p2685
tp2686
a(g2631
S'receded-12'
p2687
S'have-11'
p2688
tp2689
a(g2635
S'receded-12'
p2690
S'leaving-14'
p2691
tp2692
a(g2639
S'carpet-16'
p2693
S'a-15'
p2694
tp2695
a(g2642
S'leaving-14'
p2696
S'carpet-16'
p2697
tp2698
a(g2646
S'carpet-16'
p2699
S'mud-18'
p2700
tp2701
a(g2650
S'leaving-14'
p2702
S'hundreds-20'
p2703
tp2704
a(g2654
S'hundreds-20'
p2705
S'acres-22'
p2706
tp2707
a(g2658
S'acres-22'
p2708
S'hectares-24'
p2709
tp2710
asg71
(lp2711
(S'In'
p2712
(dp2713
S'NamedEntityTag'
p2714
g76
sS'CharacterOffsetEnd'
p2715
S'479'
p2716
sS'Lemma'
p2717
S'in'
p2718
sS'PartOfSpeech'
p2719
S'IN'
p2720
sS'CharacterOffsetBegin'
p2721
S'477'
p2722
stp2723
a(S'the'
p2724
(dp2725
S'NamedEntityTag'
p2726
g76
sS'CharacterOffsetEnd'
p2727
S'483'
p2728
sS'Lemma'
p2729
S'the'
p2730
sS'PartOfSpeech'
p2731
S'DT'
p2732
sS'CharacterOffsetBegin'
p2733
S'480'
p2734
stp2735
a(S'Aguan'
p2736
(dp2737
S'NamedEntityTag'
p2738
S'LOCATION'
p2739
sS'CharacterOffsetEnd'
p2740
S'489'
p2741
sS'Lemma'
p2742
S'Aguan'
p2743
sS'PartOfSpeech'
p2744
S'NNP'
p2745
sS'CharacterOffsetBegin'
p2746
S'484'
p2747
stp2748
a(S'River'
p2749
(dp2750
S'NamedEntityTag'
p2751
S'LOCATION'
p2752
sS'CharacterOffsetEnd'
p2753
S'495'
p2754
sS'Lemma'
p2755
S'River'
p2756
sS'PartOfSpeech'
p2757
S'NNP'
p2758
sS'CharacterOffsetBegin'
p2759
S'490'
p2760
stp2761
a(S'Valley'
p2762
(dp2763
S'NamedEntityTag'
p2764
S'LOCATION'
p2765
sS'CharacterOffsetEnd'
p2766
S'502'
p2767
sS'Lemma'
p2768
S'Valley'
p2769
sS'PartOfSpeech'
p2770
S'NNP'
p2771
sS'CharacterOffsetBegin'
p2772
S'496'
p2773
stp2774
a(S'in'
p2775
(dp2776
S'NamedEntityTag'
p2777
g76
sS'CharacterOffsetEnd'
p2778
S'505'
p2779
sS'Lemma'
p2780
S'in'
p2781
sS'PartOfSpeech'
p2782
S'IN'
p2783
sS'CharacterOffsetBegin'
p2784
S'503'
p2785
stp2786
a(S'northern'
p2787
(dp2788
S'NamedEntityTag'
p2789
g76
sS'CharacterOffsetEnd'
p2790
S'514'
p2791
sS'Lemma'
p2792
S'northern'
p2793
sS'PartOfSpeech'
p2794
S'JJ'
p2795
sS'CharacterOffsetBegin'
p2796
S'506'
p2797
stp2798
a(S'Honduras'
p2799
(dp2800
S'NamedEntityTag'
p2801
S'LOCATION'
p2802
sS'CharacterOffsetEnd'
p2803
S'523'
p2804
sS'Lemma'
p2805
S'Honduras'
p2806
sS'PartOfSpeech'
p2807
S'NNP'
p2808
sS'CharacterOffsetBegin'
p2809
S'515'
p2810
stp2811
a(g135
(dp2812
S'NamedEntityTag'
p2813
g76
sS'CharacterOffsetEnd'
p2814
S'524'
p2815
sS'Lemma'
p2816
g135
sS'PartOfSpeech'
p2817
g135
sS'CharacterOffsetBegin'
p2818
S'523'
p2819
stp2820
a(S'floodwaters'
p2821
(dp2822
S'NamedEntityTag'
p2823
g76
sS'CharacterOffsetEnd'
p2824
S'536'
p2825
sS'Lemma'
p2826
S'floodwater'
p2827
sS'PartOfSpeech'
p2828
S'NNS'
p2829
sS'CharacterOffsetBegin'
p2830
S'525'
p2831
stp2832
a(S'have'
p2833
(dp2834
S'NamedEntityTag'
p2835
g76
sS'CharacterOffsetEnd'
p2836
S'541'
p2837
sS'Lemma'
p2838
S'have'
p2839
sS'PartOfSpeech'
p2840
S'VBP'
p2841
sS'CharacterOffsetBegin'
p2842
S'537'
p2843
stp2844
a(S'receded'
p2845
(dp2846
S'NamedEntityTag'
p2847
g76
sS'CharacterOffsetEnd'
p2848
S'549'
p2849
sS'Lemma'
p2850
S'recede'
p2851
sS'PartOfSpeech'
p2852
S'VBN'
p2853
sS'CharacterOffsetBegin'
p2854
S'542'
p2855
stp2856
a(g135
(dp2857
S'NamedEntityTag'
p2858
g76
sS'CharacterOffsetEnd'
p2859
S'550'
p2860
sS'Lemma'
p2861
g135
sS'PartOfSpeech'
p2862
g135
sS'CharacterOffsetBegin'
p2863
S'549'
p2864
stp2865
a(S'leaving'
p2866
(dp2867
S'NamedEntityTag'
p2868
g76
sS'CharacterOffsetEnd'
p2869
S'558'
p2870
sS'Lemma'
p2871
S'leave'
p2872
sS'PartOfSpeech'
p2873
S'VBG'
p2874
sS'CharacterOffsetBegin'
p2875
S'551'
p2876
stp2877
a(g1846
(dp2878
S'NamedEntityTag'
p2879
g76
sS'CharacterOffsetEnd'
p2880
S'560'
p2881
sS'Lemma'
p2882
g1846
sS'PartOfSpeech'
p2883
S'DT'
p2884
sS'CharacterOffsetBegin'
p2885
S'559'
p2886
stp2887
a(S'carpet'
p2888
(dp2889
S'NamedEntityTag'
p2890
g76
sS'CharacterOffsetEnd'
p2891
S'567'
p2892
sS'Lemma'
p2893
S'carpet'
p2894
sS'PartOfSpeech'
p2895
S'NN'
p2896
sS'CharacterOffsetBegin'
p2897
S'561'
p2898
stp2899
a(S'of'
p2900
(dp2901
S'NamedEntityTag'
p2902
g76
sS'CharacterOffsetEnd'
p2903
S'570'
p2904
sS'Lemma'
p2905
S'of'
p2906
sS'PartOfSpeech'
p2907
S'IN'
p2908
sS'CharacterOffsetBegin'
p2909
S'568'
p2910
stp2911
a(S'mud'
p2912
(dp2913
S'NamedEntityTag'
p2914
g76
sS'CharacterOffsetEnd'
p2915
S'574'
p2916
sS'Lemma'
p2917
S'mud'
p2918
sS'PartOfSpeech'
p2919
S'NN'
p2920
sS'CharacterOffsetBegin'
p2921
S'571'
p2922
stp2923
a(S'over'
p2924
(dp2925
S'NamedEntityTag'
p2926
g76
sS'CharacterOffsetEnd'
p2927
S'579'
p2928
sS'Lemma'
p2929
S'over'
p2930
sS'PartOfSpeech'
p2931
S'IN'
p2932
sS'CharacterOffsetBegin'
p2933
S'575'
p2934
stp2935
a(S'hundreds'
p2936
(dp2937
S'NamedEntityTag'
p2938
g76
sS'CharacterOffsetEnd'
p2939
S'588'
p2940
sS'Lemma'
p2941
S'hundred'
p2942
sS'PartOfSpeech'
p2943
S'NNS'
p2944
sS'CharacterOffsetBegin'
p2945
S'580'
p2946
stp2947
a(S'of'
p2948
(dp2949
S'NamedEntityTag'
p2950
g76
sS'CharacterOffsetEnd'
p2951
S'591'
p2952
sS'Lemma'
p2953
S'of'
p2954
sS'PartOfSpeech'
p2955
S'IN'
p2956
sS'CharacterOffsetBegin'
p2957
S'589'
p2958
stp2959
a(S'acres'
p2960
(dp2961
S'NamedEntityTag'
p2962
g76
sS'CharacterOffsetEnd'
p2963
S'597'
p2964
sS'Lemma'
p2965
S'acre'
p2966
sS'PartOfSpeech'
p2967
S'NNS'
p2968
sS'CharacterOffsetBegin'
p2969
S'592'
p2970
stp2971
a(S'-LRB-'
p2972
(dp2973
S'NamedEntityTag'
p2974
g76
sS'CharacterOffsetEnd'
p2975
S'599'
p2976
sS'Lemma'
p2977
S'-lrb-'
p2978
sS'PartOfSpeech'
p2979
S'-LRB-'
p2980
sS'CharacterOffsetBegin'
p2981
S'598'
p2982
stp2983
a(S'hectares'
p2984
(dp2985
S'NamedEntityTag'
p2986
g76
sS'CharacterOffsetEnd'
p2987
S'607'
p2988
sS'Lemma'
p2989
S'hectare'
p2990
sS'PartOfSpeech'
p2991
S'NNS'
p2992
sS'CharacterOffsetBegin'
p2993
S'599'
p2994
stp2995
a(S'-RRB-'
p2996
(dp2997
S'NamedEntityTag'
p2998
g76
sS'CharacterOffsetEnd'
p2999
S'608'
p3000
sS'Lemma'
p3001
S'-rrb-'
p3002
sS'PartOfSpeech'
p3003
S'-RRB-'
p3004
sS'CharacterOffsetBegin'
p3005
S'607'
p3006
stp3007
a(g459
(dp3008
S'NamedEntityTag'
p3009
g76
sS'CharacterOffsetEnd'
p3010
S'609'
p3011
sS'Lemma'
p3012
g459
sS'PartOfSpeech'
p3013
g459
sS'CharacterOffsetBegin'
p3014
S'608'
p3015
stp3016
asa(dp3017
g7
S'(ROOT (S (PP (IN In) (NP (JJ many) (JJ nearby) (NNS villages))) (, ,) (NP (NNS residents)) (VP (VBP have) (VP (VBN gone) (NP (NNS days)) (PP (IN without) (NP (JJ potable) (NN water) (CC or) (NN food))))) (. .)))'
p3018
sg9
S'In many nearby villages, residents have gone days without potable water or food.'
p3019
sg11
(lp3020
(S'root'
p3021
S'ROOT'
p3022
S'gone'
p3023
tp3024
a(S'amod'
p3025
S'villages'
p3026
S'many'
p3027
tp3028
a(S'amod'
p3029
S'villages'
p3030
S'nearby'
p3031
tp3032
a(S'prep_in'
p3033
S'gone'
p3034
S'villages'
p3035
tp3036
a(S'nsubj'
p3037
S'gone'
p3038
S'residents'
p3039
tp3040
a(S'aux'
p3041
S'gone'
p3042
S'have'
p3043
tp3044
a(S'tmod'
p3045
S'gone'
p3046
S'days'
p3047
tp3048
a(S'amod'
p3049
S'water'
p3050
S'potable'
p3051
tp3052
a(S'prep_without'
p3053
S'gone'
p3054
S'water'
p3055
tp3056
a(S'conj_or'
p3057
S'water'
p3058
S'food'
p3059
tp3060
asg45
(lp3061
(g3021
S'ROOT-0'
p3062
S'gone-8'
p3063
tp3064
a(g3025
S'villages-4'
p3065
S'many-2'
p3066
tp3067
a(g3029
S'villages-4'
p3068
S'nearby-3'
p3069
tp3070
a(g3033
S'gone-8'
p3071
S'villages-4'
p3072
tp3073
a(g3037
S'gone-8'
p3074
S'residents-6'
p3075
tp3076
a(g3041
S'gone-8'
p3077
S'have-7'
p3078
tp3079
a(g3045
S'gone-8'
p3080
S'days-9'
p3081
tp3082
a(g3049
S'water-12'
p3083
S'potable-11'
p3084
tp3085
a(g3053
S'gone-8'
p3086
S'water-12'
p3087
tp3088
a(g3057
S'water-12'
p3089
S'food-14'
p3090
tp3091
asg71
(lp3092
(S'In'
p3093
(dp3094
S'NamedEntityTag'
p3095
g76
sS'CharacterOffsetEnd'
p3096
S'612'
p3097
sS'Lemma'
p3098
S'in'
p3099
sS'PartOfSpeech'
p3100
S'IN'
p3101
sS'CharacterOffsetBegin'
p3102
S'610'
p3103
stp3104
a(S'many'
p3105
(dp3106
S'NamedEntityTag'
p3107
g76
sS'CharacterOffsetEnd'
p3108
S'617'
p3109
sS'Lemma'
p3110
S'many'
p3111
sS'PartOfSpeech'
p3112
S'JJ'
p3113
sS'CharacterOffsetBegin'
p3114
S'613'
p3115
stp3116
a(S'nearby'
p3117
(dp3118
S'NamedEntityTag'
p3119
g76
sS'CharacterOffsetEnd'
p3120
S'624'
p3121
sS'Lemma'
p3122
S'nearby'
p3123
sS'PartOfSpeech'
p3124
S'JJ'
p3125
sS'CharacterOffsetBegin'
p3126
S'618'
p3127
stp3128
a(S'villages'
p3129
(dp3130
S'NamedEntityTag'
p3131
g76
sS'CharacterOffsetEnd'
p3132
S'633'
p3133
sS'Lemma'
p3134
S'village'
p3135
sS'PartOfSpeech'
p3136
S'NNS'
p3137
sS'CharacterOffsetBegin'
p3138
S'625'
p3139
stp3140
a(g135
(dp3141
S'NamedEntityTag'
p3142
g76
sS'CharacterOffsetEnd'
p3143
S'634'
p3144
sS'Lemma'
p3145
g135
sS'PartOfSpeech'
p3146
g135
sS'CharacterOffsetBegin'
p3147
S'633'
p3148
stp3149
a(S'residents'
p3150
(dp3151
S'NamedEntityTag'
p3152
g76
sS'CharacterOffsetEnd'
p3153
S'644'
p3154
sS'Lemma'
p3155
S'resident'
p3156
sS'PartOfSpeech'
p3157
S'NNS'
p3158
sS'CharacterOffsetBegin'
p3159
S'635'
p3160
stp3161
a(S'have'
p3162
(dp3163
S'NamedEntityTag'
p3164
g76
sS'CharacterOffsetEnd'
p3165
S'649'
p3166
sS'Lemma'
p3167
S'have'
p3168
sS'PartOfSpeech'
p3169
S'VBP'
p3170
sS'CharacterOffsetBegin'
p3171
S'645'
p3172
stp3173
a(S'gone'
p3174
(dp3175
S'NamedEntityTag'
p3176
g76
sS'CharacterOffsetEnd'
p3177
S'654'
p3178
sS'Lemma'
p3179
S'go'
p3180
sS'PartOfSpeech'
p3181
S'VBN'
p3182
sS'CharacterOffsetBegin'
p3183
S'650'
p3184
stp3185
a(S'days'
p3186
(dp3187
S'NormalizedNamedEntityTag'
p3188
S'PXD'
p3189
sS'Timex'
p3190
S'<TIMEX3 tid="t2" type="DURATION" value="PXD">days</TIMEX3>'
p3191
sS'Lemma'
p3192
S'day'
p3193
sS'CharacterOffsetEnd'
p3194
S'659'
p3195
sS'PartOfSpeech'
p3196
S'NNS'
p3197
sS'CharacterOffsetBegin'
p3198
S'655'
p3199
sS'NamedEntityTag'
p3200
S'DURATION'
p3201
stp3202
a(S'without'
p3203
(dp3204
S'NamedEntityTag'
p3205
g76
sS'CharacterOffsetEnd'
p3206
S'667'
p3207
sS'Lemma'
p3208
S'without'
p3209
sS'PartOfSpeech'
p3210
S'IN'
p3211
sS'CharacterOffsetBegin'
p3212
S'660'
p3213
stp3214
a(S'potable'
p3215
(dp3216
S'NamedEntityTag'
p3217
g76
sS'CharacterOffsetEnd'
p3218
S'675'
p3219
sS'Lemma'
p3220
S'potable'
p3221
sS'PartOfSpeech'
p3222
S'JJ'
p3223
sS'CharacterOffsetBegin'
p3224
S'668'
p3225
stp3226
a(S'water'
p3227
(dp3228
S'NamedEntityTag'
p3229
g76
sS'CharacterOffsetEnd'
p3230
S'681'
p3231
sS'Lemma'
p3232
S'water'
p3233
sS'PartOfSpeech'
p3234
S'NN'
p3235
sS'CharacterOffsetBegin'
p3236
S'676'
p3237
stp3238
a(S'or'
p3239
(dp3240
S'NamedEntityTag'
p3241
g76
sS'CharacterOffsetEnd'
p3242
S'684'
p3243
sS'Lemma'
p3244
S'or'
p3245
sS'PartOfSpeech'
p3246
S'CC'
p3247
sS'CharacterOffsetBegin'
p3248
S'682'
p3249
stp3250
a(S'food'
p3251
(dp3252
S'NamedEntityTag'
p3253
g76
sS'CharacterOffsetEnd'
p3254
S'689'
p3255
sS'Lemma'
p3256
S'food'
p3257
sS'PartOfSpeech'
p3258
S'NN'
p3259
sS'CharacterOffsetBegin'
p3260
S'685'
p3261
stp3262
a(g459
(dp3263
S'NamedEntityTag'
p3264
g76
sS'CharacterOffsetEnd'
p3265
S'690'
p3266
sS'Lemma'
p3267
g459
sS'PartOfSpeech'
p3268
g459
sS'CharacterOffsetBegin'
p3269
S'689'
p3270
stp3271
asa(dp3272
g7
S'(ROOT (S (NP (DT A) (JJ 7-month-old) (NN baby)) (VP (VBD died) (PP (IN in) (NP (NP (DT the) (NN village)) (PP (IN of) (NP (NNP Olvido))))) (PP (IN after) (NP (CD three) (NNS days))) (PP (IN without) (NP (NN food)))) (. .)))'
p3273
sg9
S'A 7-month-old baby died in the village of Olvido after three days without food.'
p3274
sg11
(lp3275
(S'root'
p3276
S'ROOT'
p3277
S'died'
p3278
tp3279
a(S'det'
p3280
S'baby'
p3281
S'A'
p3282
tp3283
a(S'amod'
p3284
S'baby'
p3285
S'7-month-old'
p3286
tp3287
a(S'nsubj'
p3288
S'died'
p3289
S'baby'
p3290
tp3291
a(S'det'
p3292
S'village'
p3293
S'the'
p3294
tp3295
a(S'prep_in'
p3296
S'died'
p3297
S'village'
p3298
tp3299
a(S'prep_of'
p3300
S'village'
p3301
S'Olvido'
p3302
tp3303
a(S'num'
p3304
S'days'
p3305
S'three'
p3306
tp3307
a(S'prep_after'
p3308
S'died'
p3309
S'days'
p3310
tp3311
a(S'prep_without'
p3312
S'died'
p3313
S'food'
p3314
tp3315
asg45
(lp3316
(g3276
S'ROOT-0'
p3317
S'died-4'
p3318
tp3319
a(g3280
S'baby-3'
p3320
S'A-1'
p3321
tp3322
a(g3284
S'baby-3'
p3323
S'7-month-old-2'
p3324
tp3325
a(g3288
S'died-4'
p3326
S'baby-3'
p3327
tp3328
a(g3292
S'village-7'
p3329
S'the-6'
p3330
tp3331
a(g3296
S'died-4'
p3332
S'village-7'
p3333
tp3334
a(g3300
S'village-7'
p3335
S'Olvido-9'
p3336
tp3337
a(g3304
S'days-12'
p3338
S'three-11'
p3339
tp3340
a(g3308
S'died-4'
p3341
S'days-12'
p3342
tp3343
a(g3312
S'died-4'
p3344
S'food-14'
p3345
tp3346
asg71
(lp3347
(g3282
(dp3348
S'NamedEntityTag'
p3349
g76
sS'CharacterOffsetEnd'
p3350
S'692'
p3351
sS'Lemma'
p3352
g1846
sS'PartOfSpeech'
p3353
S'DT'
p3354
sS'CharacterOffsetBegin'
p3355
S'691'
p3356
stp3357
a(S'7-month-old'
p3358
(dp3359
S'NormalizedNamedEntityTag'
p3360
S'P7M'
p3361
sS'Timex'
p3362
S'<TIMEX3 tid="t3" type="DURATION" value="P7M">7-month-old</TIMEX3>'
p3363
sS'Lemma'
p3364
S'7-month-old'
p3365
sS'CharacterOffsetEnd'
p3366
S'704'
p3367
sS'PartOfSpeech'
p3368
S'JJ'
p3369
sS'CharacterOffsetBegin'
p3370
S'693'
p3371
sS'NamedEntityTag'
p3372
S'DURATION'
p3373
stp3374
a(S'baby'
p3375
(dp3376
S'NamedEntityTag'
p3377
g76
sS'CharacterOffsetEnd'
p3378
S'709'
p3379
sS'Lemma'
p3380
S'baby'
p3381
sS'PartOfSpeech'
p3382
S'NN'
p3383
sS'CharacterOffsetBegin'
p3384
S'705'
p3385
stp3386
a(S'died'
p3387
(dp3388
S'NamedEntityTag'
p3389
g76
sS'CharacterOffsetEnd'
p3390
S'714'
p3391
sS'Lemma'
p3392
S'die'
p3393
sS'PartOfSpeech'
p3394
S'VBD'
p3395
sS'CharacterOffsetBegin'
p3396
S'710'
p3397
stp3398
a(S'in'
p3399
(dp3400
S'NamedEntityTag'
p3401
g76
sS'CharacterOffsetEnd'
p3402
S'717'
p3403
sS'Lemma'
p3404
S'in'
p3405
sS'PartOfSpeech'
p3406
S'IN'
p3407
sS'CharacterOffsetBegin'
p3408
S'715'
p3409
stp3410
a(S'the'
p3411
(dp3412
S'NamedEntityTag'
p3413
g76
sS'CharacterOffsetEnd'
p3414
S'721'
p3415
sS'Lemma'
p3416
S'the'
p3417
sS'PartOfSpeech'
p3418
S'DT'
p3419
sS'CharacterOffsetBegin'
p3420
S'718'
p3421
stp3422
a(S'village'
p3423
(dp3424
S'NamedEntityTag'
p3425
g76
sS'CharacterOffsetEnd'
p3426
S'729'
p3427
sS'Lemma'
p3428
S'village'
p3429
sS'PartOfSpeech'
p3430
S'NN'
p3431
sS'CharacterOffsetBegin'
p3432
S'722'
p3433
stp3434
a(S'of'
p3435
(dp3436
S'NamedEntityTag'
p3437
g76
sS'CharacterOffsetEnd'
p3438
S'732'
p3439
sS'Lemma'
p3440
S'of'
p3441
sS'PartOfSpeech'
p3442
S'IN'
p3443
sS'CharacterOffsetBegin'
p3444
S'730'
p3445
stp3446
a(S'Olvido'
p3447
(dp3448
S'NamedEntityTag'
p3449
S'LOCATION'
p3450
sS'CharacterOffsetEnd'
p3451
S'739'
p3452
sS'Lemma'
p3453
S'Olvido'
p3454
sS'PartOfSpeech'
p3455
S'NNP'
p3456
sS'CharacterOffsetBegin'
p3457
S'733'
p3458
stp3459
a(S'after'
p3460
(dp3461
S'NamedEntityTag'
p3462
g76
sS'CharacterOffsetEnd'
p3463
S'745'
p3464
sS'Lemma'
p3465
S'after'
p3466
sS'PartOfSpeech'
p3467
S'IN'
p3468
sS'CharacterOffsetBegin'
p3469
S'740'
p3470
stp3471
a(S'three'
p3472
(dp3473
S'NormalizedNamedEntityTag'
p3474
S'P3D'
p3475
sS'Timex'
p3476
S'<TIMEX3 tid="t4" type="DURATION" value="P3D">three days</TIMEX3>'
p3477
sS'Lemma'
p3478
S'three'
p3479
sS'CharacterOffsetEnd'
p3480
S'751'
p3481
sS'PartOfSpeech'
p3482
S'CD'
p3483
sS'CharacterOffsetBegin'
p3484
S'746'
p3485
sS'NamedEntityTag'
p3486
S'DURATION'
p3487
stp3488
a(S'days'
p3489
(dp3490
S'NormalizedNamedEntityTag'
p3491
S'P3D'
p3492
sS'Timex'
p3493
S'<TIMEX3 tid="t4" type="DURATION" value="P3D">three days</TIMEX3>'
p3494
sS'Lemma'
p3495
S'day'
p3496
sS'CharacterOffsetEnd'
p3497
S'756'
p3498
sS'PartOfSpeech'
p3499
S'NNS'
p3500
sS'CharacterOffsetBegin'
p3501
S'752'
p3502
sS'NamedEntityTag'
p3503
S'DURATION'
p3504
stp3505
a(S'without'
p3506
(dp3507
S'NamedEntityTag'
p3508
g76
sS'CharacterOffsetEnd'
p3509
S'764'
p3510
sS'Lemma'
p3511
S'without'
p3512
sS'PartOfSpeech'
p3513
S'IN'
p3514
sS'CharacterOffsetBegin'
p3515
S'757'
p3516
stp3517
a(S'food'
p3518
(dp3519
S'NamedEntityTag'
p3520
g76
sS'CharacterOffsetEnd'
p3521
S'769'
p3522
sS'Lemma'
p3523
S'food'
p3524
sS'PartOfSpeech'
p3525
S'NN'
p3526
sS'CharacterOffsetBegin'
p3527
S'765'
p3528
stp3529
a(g459
(dp3530
S'NamedEntityTag'
p3531
g76
sS'CharacterOffsetEnd'
p3532
S'770'
p3533
sS'Lemma'
p3534
g459
sS'PartOfSpeech'
p3535
g459
sS'CharacterOffsetBegin'
p3536
S'769'
p3537
stp3538
asa(dp3539
g7
S'(ROOT (S (NP (NNS Residents)) (VP (VBD feared) (ADVP (RBR more)) (SBAR (S (NP (NNS children)) (VP (MD would) (VP (VB die)))))) (. .)))'
p3540
sg9
S'Residents feared more children would die.'
p3541
sg11
(lp3542
(S'root'
p3543
S'ROOT'
p3544
S'feared'
p3545
tp3546
a(S'nsubj'
p3547
S'feared'
p3548
S'Residents'
p3549
tp3550
a(S'advmod'
p3551
S'feared'
p3552
S'more'
p3553
tp3554
a(S'nsubj'
p3555
S'die'
p3556
S'children'
p3557
tp3558
a(S'aux'
p3559
S'die'
p3560
S'would'
p3561
tp3562
a(S'ccomp'
p3563
S'feared'
p3564
S'die'
p3565
tp3566
asg45
(lp3567
(g3543
S'ROOT-0'
p3568
S'feared-2'
p3569
tp3570
a(g3547
S'feared-2'
p3571
S'Residents-1'
p3572
tp3573
a(g3551
S'feared-2'
p3574
S'more-3'
p3575
tp3576
a(g3555
S'die-6'
p3577
S'children-4'
p3578
tp3579
a(g3559
S'die-6'
p3580
S'would-5'
p3581
tp3582
a(g3563
S'feared-2'
p3583
S'die-6'
p3584
tp3585
asg71
(lp3586
(S'Residents'
p3587
(dp3588
S'NamedEntityTag'
p3589
g76
sS'CharacterOffsetEnd'
p3590
S'780'
p3591
sS'Lemma'
p3592
S'resident'
p3593
sS'PartOfSpeech'
p3594
S'NNS'
p3595
sS'CharacterOffsetBegin'
p3596
S'771'
p3597
stp3598
a(S'feared'
p3599
(dp3600
S'NamedEntityTag'
p3601
g76
sS'CharacterOffsetEnd'
p3602
S'787'
p3603
sS'Lemma'
p3604
S'fear'
p3605
sS'PartOfSpeech'
p3606
S'VBD'
p3607
sS'CharacterOffsetBegin'
p3608
S'781'
p3609
stp3610
a(S'more'
p3611
(dp3612
S'NamedEntityTag'
p3613
g76
sS'CharacterOffsetEnd'
p3614
S'792'
p3615
sS'Lemma'
p3616
S'more'
p3617
sS'PartOfSpeech'
p3618
S'RBR'
p3619
sS'CharacterOffsetBegin'
p3620
S'788'
p3621
stp3622
a(S'children'
p3623
(dp3624
S'NamedEntityTag'
p3625
g76
sS'CharacterOffsetEnd'
p3626
S'801'
p3627
sS'Lemma'
p3628
S'child'
p3629
sS'PartOfSpeech'
p3630
S'NNS'
p3631
sS'CharacterOffsetBegin'
p3632
S'793'
p3633
stp3634
a(S'would'
p3635
(dp3636
S'NamedEntityTag'
p3637
g76
sS'CharacterOffsetEnd'
p3638
S'807'
p3639
sS'Lemma'
p3640
S'would'
p3641
sS'PartOfSpeech'
p3642
S'MD'
p3643
sS'CharacterOffsetBegin'
p3644
S'802'
p3645
stp3646
a(S'die'
p3647
(dp3648
S'NamedEntityTag'
p3649
g76
sS'CharacterOffsetEnd'
p3650
S'811'
p3651
sS'Lemma'
p3652
S'die'
p3653
sS'PartOfSpeech'
p3654
S'VB'
p3655
sS'CharacterOffsetBegin'
p3656
S'808'
p3657
stp3658
a(g459
(dp3659
S'NamedEntityTag'
p3660
g76
sS'CharacterOffsetEnd'
p3661
S'812'
p3662
sS'Lemma'
p3663
g459
sS'PartOfSpeech'
p3664
g459
sS'CharacterOffsetBegin'
p3665
S'811'
p3666
stp3667
asa(dp3668
g7
S'(ROOT (S (NP (NP (DT The) (JJS worst) (NN thing)) (, ,) (NP (DT the) (JJS saddest) (NN thing)) (, ,)) (VP (VBP are) (NP (DT the) (NNS children))) (. .)))'
p3669
sg9
S'The worst thing, the saddest thing, are the children.'
p3670
sg11
(lp3671
(S'root'
p3672
S'ROOT'
p3673
S'children'
p3674
tp3675
a(S'det'
p3676
S'thing'
p3677
S'The'
p3678
tp3679
a(S'amod'
p3680
S'thing'
p3681
S'worst'
p3682
tp3683
a(S'nsubj'
p3684
S'children'
p3685
S'thing'
p3686
tp3687
a(S'det'
p3688
S'thing'
p3689
S'the'
p3690
tp3691
a(S'amod'
p3692
S'thing'
p3693
S'saddest'
p3694
tp3695
a(S'appos'
p3696
S'thing'
p3697
S'thing'
p3698
tp3699
a(S'cop'
p3700
S'children'
p3701
S'are'
p3702
tp3703
a(S'det'
p3704
S'children'
p3705
S'the'
p3706
tp3707
asg45
(lp3708
(g3672
S'ROOT-0'
p3709
S'children-11'
p3710
tp3711
a(g3676
S'thing-3'
p3712
S'The-1'
p3713
tp3714
a(g3680
S'thing-3'
p3715
S'worst-2'
p3716
tp3717
a(g3684
S'children-11'
p3718
S'thing-3'
p3719
tp3720
a(g3688
S'thing-7'
p3721
S'the-5'
p3722
tp3723
a(g3692
S'thing-7'
p3724
S'saddest-6'
p3725
tp3726
a(g3696
S'thing-3'
p3727
S'thing-7'
p3728
tp3729
a(g3700
S'children-11'
p3730
S'are-9'
p3731
tp3732
a(g3704
S'children-11'
p3733
S'the-10'
p3734
tp3735
asg71
(lp3736
(S'The'
p3737
(dp3738
S'NamedEntityTag'
p3739
g76
sS'CharacterOffsetEnd'
p3740
S'816'
p3741
sS'Lemma'
p3742
S'the'
p3743
sS'PartOfSpeech'
p3744
S'DT'
p3745
sS'CharacterOffsetBegin'
p3746
S'813'
p3747
stp3748
a(S'worst'
p3749
(dp3750
S'NamedEntityTag'
p3751
g76
sS'CharacterOffsetEnd'
p3752
S'822'
p3753
sS'Lemma'
p3754
S'worst'
p3755
sS'PartOfSpeech'
p3756
S'JJS'
p3757
sS'CharacterOffsetBegin'
p3758
S'817'
p3759
stp3760
a(S'thing'
p3761
(dp3762
S'NamedEntityTag'
p3763
g76
sS'CharacterOffsetEnd'
p3764
S'828'
p3765
sS'Lemma'
p3766
S'thing'
p3767
sS'PartOfSpeech'
p3768
S'NN'
p3769
sS'CharacterOffsetBegin'
p3770
S'823'
p3771
stp3772
a(g135
(dp3773
S'NamedEntityTag'
p3774
g76
sS'CharacterOffsetEnd'
p3775
S'829'
p3776
sS'Lemma'
p3777
g135
sS'PartOfSpeech'
p3778
g135
sS'CharacterOffsetBegin'
p3779
S'828'
p3780
stp3781
a(S'the'
p3782
(dp3783
S'NamedEntityTag'
p3784
g76
sS'CharacterOffsetEnd'
p3785
S'833'
p3786
sS'Lemma'
p3787
S'the'
p3788
sS'PartOfSpeech'
p3789
S'DT'
p3790
sS'CharacterOffsetBegin'
p3791
S'830'
p3792
stp3793
a(S'saddest'
p3794
(dp3795
S'NamedEntityTag'
p3796
g76
sS'CharacterOffsetEnd'
p3797
S'841'
p3798
sS'Lemma'
p3799
S'saddest'
p3800
sS'PartOfSpeech'
p3801
S'JJS'
p3802
sS'CharacterOffsetBegin'
p3803
S'834'
p3804
stp3805
a(S'thing'
p3806
(dp3807
S'NamedEntityTag'
p3808
g76
sS'CharacterOffsetEnd'
p3809
S'847'
p3810
sS'Lemma'
p3811
S'thing'
p3812
sS'PartOfSpeech'
p3813
S'NN'
p3814
sS'CharacterOffsetBegin'
p3815
S'842'
p3816
stp3817
a(g135
(dp3818
S'NamedEntityTag'
p3819
g76
sS'CharacterOffsetEnd'
p3820
S'848'
p3821
sS'Lemma'
p3822
g135
sS'PartOfSpeech'
p3823
g135
sS'CharacterOffsetBegin'
p3824
S'847'
p3825
stp3826
a(S'are'
p3827
(dp3828
S'NamedEntityTag'
p3829
g76
sS'CharacterOffsetEnd'
p3830
S'852'
p3831
sS'Lemma'
p3832
S'be'
p3833
sS'PartOfSpeech'
p3834
S'VBP'
p3835
sS'CharacterOffsetBegin'
p3836
S'849'
p3837
stp3838
a(S'the'
p3839
(dp3840
S'NamedEntityTag'
p3841
g76
sS'CharacterOffsetEnd'
p3842
S'856'
p3843
sS'Lemma'
p3844
S'the'
p3845
sS'PartOfSpeech'
p3846
S'DT'
p3847
sS'CharacterOffsetBegin'
p3848
S'853'
p3849
stp3850
a(S'children'
p3851
(dp3852
S'NamedEntityTag'
p3853
g76
sS'CharacterOffsetEnd'
p3854
S'865'
p3855
sS'Lemma'
p3856
S'child'
p3857
sS'PartOfSpeech'
p3858
S'NNS'
p3859
sS'CharacterOffsetBegin'
p3860
S'857'
p3861
stp3862
a(g459
(dp3863
S'NamedEntityTag'
p3864
g76
sS'CharacterOffsetEnd'
p3865
S'866'
p3866
sS'Lemma'
p3867
g459
sS'PartOfSpeech'
p3868
g459
sS'CharacterOffsetBegin'
p3869
S'865'
p3870
stp3871
asa(dp3872
g7
S'(ROOT (SINV (S (NP (DT The) (NNS children)) (VP (VBP are) (VP (VP (VBG suffering)) (, ,) (ADVP (RB even)) (VP (VBG dying))))) (, ,) (VP (VBD said)) (NP (NP (DT the) (NNP Rev.) (NNP Cecilio) (NNP Escobar) (NNP Gallindo)) (, ,) (NP (DT the) (NN parish) (NN priest))) (. .)))'
p3873
sg9
S'The children are suffering, even dying, said the Rev. Cecilio Escobar Gallindo, the parish priest.'
p3874
sg11
(lp3875
(S'root'
p3876
S'ROOT'
p3877
S'said'
p3878
tp3879
a(S'det'
p3880
S'children'
p3881
S'The'
p3882
tp3883
a(S'nsubj'
p3884
S'suffering'
p3885
S'children'
p3886
tp3887
a(S'aux'
p3888
S'suffering'
p3889
S'are'
p3890
tp3891
a(S'ccomp'
p3892
S'said'
p3893
S'suffering'
p3894
tp3895
a(S'advmod'
p3896
S'suffering'
p3897
S'even'
p3898
tp3899
a(S'dep'
p3900
S'suffering'
p3901
S'dying'
p3902
tp3903
a(S'det'
p3904
S'Gallindo'
p3905
S'the'
p3906
tp3907
a(S'nn'
p3908
S'Gallindo'
p3909
S'Rev.'
p3910
tp3911
a(S'nn'
p3912
S'Gallindo'
p3913
S'Cecilio'
p3914
tp3915
a(S'nn'
p3916
S'Gallindo'
p3917
S'Escobar'
p3918
tp3919
a(S'nsubj'
p3920
S'said'
p3921
S'Gallindo'
p3922
tp3923
a(S'det'
p3924
S'priest'
p3925
S'the'
p3926
tp3927
a(S'nn'
p3928
S'priest'
p3929
S'parish'
p3930
tp3931
a(S'appos'
p3932
S'Gallindo'
p3933
S'priest'
p3934
tp3935
asg45
(lp3936
(g3876
S'ROOT-0'
p3937
S'said-9'
p3938
tp3939
a(g3880
S'children-2'
p3940
S'The-1'
p3941
tp3942
a(g3884
S'suffering-4'
p3943
S'children-2'
p3944
tp3945
a(g3888
S'suffering-4'
p3946
S'are-3'
p3947
tp3948
a(g3892
S'said-9'
p3949
S'suffering-4'
p3950
tp3951
a(g3896
S'suffering-4'
p3952
S'even-6'
p3953
tp3954
a(g3900
S'suffering-4'
p3955
S'dying-7'
p3956
tp3957
a(g3904
S'Gallindo-14'
p3958
S'the-10'
p3959
tp3960
a(g3908
S'Gallindo-14'
p3961
S'Rev.-11'
p3962
tp3963
a(g3912
S'Gallindo-14'
p3964
S'Cecilio-12'
p3965
tp3966
a(g3916
S'Gallindo-14'
p3967
S'Escobar-13'
p3968
tp3969
a(g3920
S'said-9'
p3970
S'Gallindo-14'
p3971
tp3972
a(g3924
S'priest-18'
p3973
S'the-16'
p3974
tp3975
a(g3928
S'priest-18'
p3976
S'parish-17'
p3977
tp3978
a(g3932
S'Gallindo-14'
p3979
S'priest-18'
p3980
tp3981
asg71
(lp3982
(S'The'
p3983
(dp3984
S'NamedEntityTag'
p3985
g76
sS'CharacterOffsetEnd'
p3986
S'870'
p3987
sS'Lemma'
p3988
S'the'
p3989
sS'PartOfSpeech'
p3990
S'DT'
p3991
sS'CharacterOffsetBegin'
p3992
S'867'
p3993
stp3994
a(S'children'
p3995
(dp3996
S'NamedEntityTag'
p3997
g76
sS'CharacterOffsetEnd'
p3998
S'879'
p3999
sS'Lemma'
p4000
S'child'
p4001
sS'PartOfSpeech'
p4002
S'NNS'
p4003
sS'CharacterOffsetBegin'
p4004
S'871'
p4005
stp4006
a(S'are'
p4007
(dp4008
S'NamedEntityTag'
p4009
g76
sS'CharacterOffsetEnd'
p4010
S'883'
p4011
sS'Lemma'
p4012
S'be'
p4013
sS'PartOfSpeech'
p4014
S'VBP'
p4015
sS'CharacterOffsetBegin'
p4016
S'880'
p4017
stp4018
a(S'suffering'
p4019
(dp4020
S'NamedEntityTag'
p4021
g76
sS'CharacterOffsetEnd'
p4022
S'893'
p4023
sS'Lemma'
p4024
S'suffer'
p4025
sS'PartOfSpeech'
p4026
S'VBG'
p4027
sS'CharacterOffsetBegin'
p4028
S'884'
p4029
stp4030
a(g135
(dp4031
S'NamedEntityTag'
p4032
g76
sS'CharacterOffsetEnd'
p4033
S'894'
p4034
sS'Lemma'
p4035
g135
sS'PartOfSpeech'
p4036
g135
sS'CharacterOffsetBegin'
p4037
S'893'
p4038
stp4039
a(S'even'
p4040
(dp4041
S'NamedEntityTag'
p4042
g76
sS'CharacterOffsetEnd'
p4043
S'899'
p4044
sS'Lemma'
p4045
S'even'
p4046
sS'PartOfSpeech'
p4047
S'RB'
p4048
sS'CharacterOffsetBegin'
p4049
S'895'
p4050
stp4051
a(S'dying'
p4052
(dp4053
S'NamedEntityTag'
p4054
g76
sS'CharacterOffsetEnd'
p4055
S'905'
p4056
sS'Lemma'
p4057
S'die'
p4058
sS'PartOfSpeech'
p4059
S'VBG'
p4060
sS'CharacterOffsetBegin'
p4061
S'900'
p4062
stp4063
a(g135
(dp4064
S'NamedEntityTag'
p4065
g76
sS'CharacterOffsetEnd'
p4066
S'906'
p4067
sS'Lemma'
p4068
g135
sS'PartOfSpeech'
p4069
g135
sS'CharacterOffsetBegin'
p4070
S'905'
p4071
stp4072
a(S'said'
p4073
(dp4074
S'NamedEntityTag'
p4075
g76
sS'CharacterOffsetEnd'
p4076
S'911'
p4077
sS'Lemma'
p4078
S'say'
p4079
sS'PartOfSpeech'
p4080
S'VBD'
p4081
sS'CharacterOffsetBegin'
p4082
S'907'
p4083
stp4084
a(S'the'
p4085
(dp4086
S'NamedEntityTag'
p4087
g76
sS'CharacterOffsetEnd'
p4088
S'915'
p4089
sS'Lemma'
p4090
S'the'
p4091
sS'PartOfSpeech'
p4092
S'DT'
p4093
sS'CharacterOffsetBegin'
p4094
S'912'
p4095
stp4096
a(S'Rev.'
p4097
(dp4098
S'NamedEntityTag'
p4099
g76
sS'CharacterOffsetEnd'
p4100
S'920'
p4101
sS'Lemma'
p4102
S'Rev.'
p4103
sS'PartOfSpeech'
p4104
S'NNP'
p4105
sS'CharacterOffsetBegin'
p4106
S'916'
p4107
stp4108
a(S'Cecilio'
p4109
(dp4110
S'NamedEntityTag'
p4111
S'PERSON'
p4112
sS'CharacterOffsetEnd'
p4113
S'928'
p4114
sS'Lemma'
p4115
S'Cecilio'
p4116
sS'PartOfSpeech'
p4117
S'NNP'
p4118
sS'CharacterOffsetBegin'
p4119
S'921'
p4120
stp4121
a(S'Escobar'
p4122
(dp4123
S'NamedEntityTag'
p4124
S'PERSON'
p4125
sS'CharacterOffsetEnd'
p4126
S'936'
p4127
sS'Lemma'
p4128
S'Escobar'
p4129
sS'PartOfSpeech'
p4130
S'NNP'
p4131
sS'CharacterOffsetBegin'
p4132
S'929'
p4133
stp4134
a(S'Gallindo'
p4135
(dp4136
S'NamedEntityTag'
p4137
S'PERSON'
p4138
sS'CharacterOffsetEnd'
p4139
S'945'
p4140
sS'Lemma'
p4141
S'Gallindo'
p4142
sS'PartOfSpeech'
p4143
S'NNP'
p4144
sS'CharacterOffsetBegin'
p4145
S'937'
p4146
stp4147
a(g135
(dp4148
S'NamedEntityTag'
p4149
g76
sS'CharacterOffsetEnd'
p4150
S'946'
p4151
sS'Lemma'
p4152
g135
sS'PartOfSpeech'
p4153
g135
sS'CharacterOffsetBegin'
p4154
S'945'
p4155
stp4156
a(S'the'
p4157
(dp4158
S'NamedEntityTag'
p4159
g76
sS'CharacterOffsetEnd'
p4160
S'950'
p4161
sS'Lemma'
p4162
S'the'
p4163
sS'PartOfSpeech'
p4164
S'DT'
p4165
sS'CharacterOffsetBegin'
p4166
S'947'
p4167
stp4168
a(S'parish'
p4169
(dp4170
S'NamedEntityTag'
p4171
g76
sS'CharacterOffsetEnd'
p4172
S'957'
p4173
sS'Lemma'
p4174
S'parish'
p4175
sS'PartOfSpeech'
p4176
S'NN'
p4177
sS'CharacterOffsetBegin'
p4178
S'951'
p4179
stp4180
a(S'priest'
p4181
(dp4182
S'NamedEntityTag'
p4183
g76
sS'CharacterOffsetEnd'
p4184
S'964'
p4185
sS'Lemma'
p4186
S'priest'
p4187
sS'PartOfSpeech'
p4188
S'NN'
p4189
sS'CharacterOffsetBegin'
p4190
S'958'
p4191
stp4192
a(g459
(dp4193
S'NamedEntityTag'
p4194
g76
sS'CharacterOffsetEnd'
p4195
S'965'
p4196
sS'Lemma'
p4197
g459
sS'PartOfSpeech'
p4198
g459
sS'CharacterOffsetBegin'
p4199
S'964'
p4200
stp4201
asa(dp4202
g7
S'(ROOT (S (NP (NP (DT A) (NN score)) (PP (IN of) (NP (NN cargo) (NN aircraft)))) (VP (VBD landed) (NP-TMP (NNP Thursday)) (PP (IN at) (NP (NP (DT the) (ADJP (ADVP (RB normally)) (JJ quiet)) (NNP Toncontin) (NN airport)) (PP (IN in) (NP (NP (DT the) (JJ Honduran) (NN capital)) (PP (IN of) (NP (NNP Tegucigalpa))))))) (, ,) (S (VP (VBG delivering) (NP (NN aid)) (PP (IN from) (NP (NP (NNP Mexico)) (, ,) (NP (DT the) (NNP United) (NNPS States)) (, ,) (NP (NNP Japan)) (CC and) (NP (NNP Argentina))))))) (. .)))'
p4203
sg9
S'A score of cargo aircraft landed Thursday at the normally quiet Toncontin airport in the Honduran capital of Tegucigalpa, delivering aid from Mexico, the United States, Japan and Argentina.'
p4204
sg11
(lp4205
(S'root'
p4206
S'ROOT'
p4207
S'landed'
p4208
tp4209
a(S'det'
p4210
S'score'
p4211
g3282
tp4212
a(S'nsubj'
p4213
S'landed'
p4214
S'score'
p4215
tp4216
a(S'nn'
p4217
S'aircraft'
p4218
S'cargo'
p4219
tp4220
a(S'prep_of'
p4221
S'score'
p4222
S'aircraft'
p4223
tp4224
a(S'tmod'
p4225
S'landed'
p4226
S'Thursday'
p4227
tp4228
a(S'det'
p4229
S'airport'
p4230
S'the'
p4231
tp4232
a(S'advmod'
p4233
S'quiet'
p4234
S'normally'
p4235
tp4236
a(S'amod'
p4237
S'airport'
p4238
S'quiet'
p4239
tp4240
a(S'nn'
p4241
S'airport'
p4242
S'Toncontin'
p4243
tp4244
a(S'prep_at'
p4245
S'landed'
p4246
S'airport'
p4247
tp4248
a(S'det'
p4249
S'capital'
p4250
S'the'
p4251
tp4252
a(S'amod'
p4253
S'capital'
p4254
S'Honduran'
p4255
tp4256
a(S'prep_in'
p4257
S'airport'
p4258
S'capital'
p4259
tp4260
a(S'prep_of'
p4261
S'capital'
p4262
S'Tegucigalpa'
p4263
tp4264
a(S'partmod'
p4265
S'landed'
p4266
S'delivering'
p4267
tp4268
a(S'dobj'
p4269
S'delivering'
p4270
S'aid'
p4271
tp4272
a(S'prep_from'
p4273
S'delivering'
p4274
S'Mexico'
p4275
tp4276
a(S'det'
p4277
S'States'
p4278
S'the'
p4279
tp4280
a(S'nn'
p4281
S'States'
p4282
S'United'
p4283
tp4284
a(S'conj_and'
p4285
S'Mexico'
p4286
S'States'
p4287
tp4288
a(S'conj_and'
p4289
S'Mexico'
p4290
S'Japan'
p4291
tp4292
a(S'conj_and'
p4293
S'Mexico'
p4294
S'Argentina'
p4295
tp4296
asg45
(lp4297
(g4206
S'ROOT-0'
p4298
S'landed-6'
p4299
tp4300
a(g4210
S'score-2'
p4301
S'A-1'
p4302
tp4303
a(g4213
S'landed-6'
p4304
S'score-2'
p4305
tp4306
a(g4217
S'aircraft-5'
p4307
S'cargo-4'
p4308
tp4309
a(g4221
S'score-2'
p4310
S'aircraft-5'
p4311
tp4312
a(g4225
S'landed-6'
p4313
S'Thursday-7'
p4314
tp4315
a(g4229
S'airport-13'
p4316
S'the-9'
p4317
tp4318
a(g4233
S'quiet-11'
p4319
S'normally-10'
p4320
tp4321
a(g4237
S'airport-13'
p4322
S'quiet-11'
p4323
tp4324
a(g4241
S'airport-13'
p4325
S'Toncontin-12'
p4326
tp4327
a(g4245
S'landed-6'
p4328
S'airport-13'
p4329
tp4330
a(g4249
S'capital-17'
p4331
S'the-15'
p4332
tp4333
a(g4253
S'capital-17'
p4334
S'Honduran-16'
p4335
tp4336
a(g4257
S'airport-13'
p4337
S'capital-17'
p4338
tp4339
a(g4261
S'capital-17'
p4340
S'Tegucigalpa-19'
p4341
tp4342
a(g4265
S'landed-6'
p4343
S'delivering-21'
p4344
tp4345
a(g4269
S'delivering-21'
p4346
S'aid-22'
p4347
tp4348
a(g4273
S'delivering-21'
p4349
S'Mexico-24'
p4350
tp4351
a(g4277
S'States-28'
p4352
S'the-26'
p4353
tp4354
a(g4281
S'States-28'
p4355
S'United-27'
p4356
tp4357
a(g4285
S'Mexico-24'
p4358
S'States-28'
p4359
tp4360
a(g4289
S'Mexico-24'
p4361
S'Japan-30'
p4362
tp4363
a(g4293
S'Mexico-24'
p4364
S'Argentina-32'
p4365
tp4366
asg71
(lp4367
(g3282
(dp4368
S'NamedEntityTag'
p4369
g76
sS'CharacterOffsetEnd'
p4370
S'967'
p4371
sS'Lemma'
p4372
g1846
sS'PartOfSpeech'
p4373
S'DT'
p4374
sS'CharacterOffsetBegin'
p4375
S'966'
p4376
stp4377
a(S'score'
p4378
(dp4379
S'NormalizedNamedEntityTag'
p4380
S'20.0'
p4381
sS'Lemma'
p4382
S'score'
p4383
sS'CharacterOffsetEnd'
p4384
S'973'
p4385
sS'PartOfSpeech'
p4386
S'NN'
p4387
sS'CharacterOffsetBegin'
p4388
S'968'
p4389
sS'NamedEntityTag'
p4390
S'NUMBER'
p4391
stp4392
a(S'of'
p4393
(dp4394
S'NamedEntityTag'
p4395
g76
sS'CharacterOffsetEnd'
p4396
S'976'
p4397
sS'Lemma'
p4398
S'of'
p4399
sS'PartOfSpeech'
p4400
S'IN'
p4401
sS'CharacterOffsetBegin'
p4402
S'974'
p4403
stp4404
a(S'cargo'
p4405
(dp4406
S'NamedEntityTag'
p4407
g76
sS'CharacterOffsetEnd'
p4408
S'982'
p4409
sS'Lemma'
p4410
S'cargo'
p4411
sS'PartOfSpeech'
p4412
S'NN'
p4413
sS'CharacterOffsetBegin'
p4414
S'977'
p4415
stp4416
a(S'aircraft'
p4417
(dp4418
S'NamedEntityTag'
p4419
g76
sS'CharacterOffsetEnd'
p4420
S'991'
p4421
sS'Lemma'
p4422
S'aircraft'
p4423
sS'PartOfSpeech'
p4424
S'NN'
p4425
sS'CharacterOffsetBegin'
p4426
S'983'
p4427
stp4428
a(S'landed'
p4429
(dp4430
S'NamedEntityTag'
p4431
g76
sS'CharacterOffsetEnd'
p4432
S'998'
p4433
sS'Lemma'
p4434
S'land'
p4435
sS'PartOfSpeech'
p4436
S'VBD'
p4437
sS'CharacterOffsetBegin'
p4438
S'992'
p4439
stp4440
a(S'Thursday'
p4441
(dp4442
S'NormalizedNamedEntityTag'
p4443
S'XXXX-WXX-4'
p4444
sS'Timex'
p4445
S'<TIMEX3 tid="t5" type="DATE" value="XXXX-WXX-4">Thursday</TIMEX3>'
p4446
sS'Lemma'
p4447
S'Thursday'
p4448
sS'CharacterOffsetEnd'
p4449
S'1007'
p4450
sS'PartOfSpeech'
p4451
S'NNP'
p4452
sS'CharacterOffsetBegin'
p4453
S'999'
p4454
sS'NamedEntityTag'
p4455
S'DATE'
p4456
stp4457
a(S'at'
p4458
(dp4459
S'NamedEntityTag'
p4460
g76
sS'CharacterOffsetEnd'
p4461
S'1010'
p4462
sS'Lemma'
p4463
S'at'
p4464
sS'PartOfSpeech'
p4465
S'IN'
p4466
sS'CharacterOffsetBegin'
p4467
S'1008'
p4468
stp4469
a(S'the'
p4470
(dp4471
S'NamedEntityTag'
p4472
g76
sS'CharacterOffsetEnd'
p4473
S'1014'
p4474
sS'Lemma'
p4475
S'the'
p4476
sS'PartOfSpeech'
p4477
S'DT'
p4478
sS'CharacterOffsetBegin'
p4479
S'1011'
p4480
stp4481
a(S'normally'
p4482
(dp4483
S'NamedEntityTag'
p4484
g76
sS'CharacterOffsetEnd'
p4485
S'1023'
p4486
sS'Lemma'
p4487
S'normally'
p4488
sS'PartOfSpeech'
p4489
S'RB'
p4490
sS'CharacterOffsetBegin'
p4491
S'1015'
p4492
stp4493
a(S'quiet'
p4494
(dp4495
S'NamedEntityTag'
p4496
g76
sS'CharacterOffsetEnd'
p4497
S'1029'
p4498
sS'Lemma'
p4499
S'quiet'
p4500
sS'PartOfSpeech'
p4501
S'JJ'
p4502
sS'CharacterOffsetBegin'
p4503
S'1024'
p4504
stp4505
a(S'Toncontin'
p4506
(dp4507
S'NamedEntityTag'
p4508
S'LOCATION'
p4509
sS'CharacterOffsetEnd'
p4510
S'1039'
p4511
sS'Lemma'
p4512
S'Toncontin'
p4513
sS'PartOfSpeech'
p4514
S'NNP'
p4515
sS'CharacterOffsetBegin'
p4516
S'1030'
p4517
stp4518
a(S'airport'
p4519
(dp4520
S'NamedEntityTag'
p4521
g76
sS'CharacterOffsetEnd'
p4522
S'1047'
p4523
sS'Lemma'
p4524
S'airport'
p4525
sS'PartOfSpeech'
p4526
S'NN'
p4527
sS'CharacterOffsetBegin'
p4528
S'1040'
p4529
stp4530
a(S'in'
p4531
(dp4532
S'NamedEntityTag'
p4533
g76
sS'CharacterOffsetEnd'
p4534
S'1050'
p4535
sS'Lemma'
p4536
S'in'
p4537
sS'PartOfSpeech'
p4538
S'IN'
p4539
sS'CharacterOffsetBegin'
p4540
S'1048'
p4541
stp4542
a(S'the'
p4543
(dp4544
S'NamedEntityTag'
p4545
g76
sS'CharacterOffsetEnd'
p4546
S'1054'
p4547
sS'Lemma'
p4548
S'the'
p4549
sS'PartOfSpeech'
p4550
S'DT'
p4551
sS'CharacterOffsetBegin'
p4552
S'1051'
p4553
stp4554
a(S'Honduran'
p4555
(dp4556
S'NamedEntityTag'
p4557
S'MISC'
p4558
sS'CharacterOffsetEnd'
p4559
S'1063'
p4560
sS'Lemma'
p4561
S'honduran'
p4562
sS'PartOfSpeech'
p4563
S'JJ'
p4564
sS'CharacterOffsetBegin'
p4565
S'1055'
p4566
stp4567
a(S'capital'
p4568
(dp4569
S'NamedEntityTag'
p4570
g76
sS'CharacterOffsetEnd'
p4571
S'1071'
p4572
sS'Lemma'
p4573
S'capital'
p4574
sS'PartOfSpeech'
p4575
S'NN'
p4576
sS'CharacterOffsetBegin'
p4577
S'1064'
p4578
stp4579
a(S'of'
p4580
(dp4581
S'NamedEntityTag'
p4582
g76
sS'CharacterOffsetEnd'
p4583
S'1074'
p4584
sS'Lemma'
p4585
S'of'
p4586
sS'PartOfSpeech'
p4587
S'IN'
p4588
sS'CharacterOffsetBegin'
p4589
S'1072'
p4590
stp4591
a(S'Tegucigalpa'
p4592
(dp4593
S'NamedEntityTag'
p4594
S'LOCATION'
p4595
sS'CharacterOffsetEnd'
p4596
S'1086'
p4597
sS'Lemma'
p4598
S'Tegucigalpa'
p4599
sS'PartOfSpeech'
p4600
S'NNP'
p4601
sS'CharacterOffsetBegin'
p4602
S'1075'
p4603
stp4604
a(g135
(dp4605
S'NamedEntityTag'
p4606
g76
sS'CharacterOffsetEnd'
p4607
S'1087'
p4608
sS'Lemma'
p4609
g135
sS'PartOfSpeech'
p4610
g135
sS'CharacterOffsetBegin'
p4611
S'1086'
p4612
stp4613
a(S'delivering'
p4614
(dp4615
S'NamedEntityTag'
p4616
g76
sS'CharacterOffsetEnd'
p4617
S'1098'
p4618
sS'Lemma'
p4619
S'deliver'
p4620
sS'PartOfSpeech'
p4621
S'VBG'
p4622
sS'CharacterOffsetBegin'
p4623
S'1088'
p4624
stp4625
a(S'aid'
p4626
(dp4627
S'NamedEntityTag'
p4628
g76
sS'CharacterOffsetEnd'
p4629
S'1102'
p4630
sS'Lemma'
p4631
S'aid'
p4632
sS'PartOfSpeech'
p4633
S'NN'
p4634
sS'CharacterOffsetBegin'
p4635
S'1099'
p4636
stp4637
a(S'from'
p4638
(dp4639
S'NamedEntityTag'
p4640
g76
sS'CharacterOffsetEnd'
p4641
S'1107'
p4642
sS'Lemma'
p4643
S'from'
p4644
sS'PartOfSpeech'
p4645
S'IN'
p4646
sS'CharacterOffsetBegin'
p4647
S'1103'
p4648
stp4649
a(S'Mexico'
p4650
(dp4651
S'NamedEntityTag'
p4652
S'LOCATION'
p4653
sS'CharacterOffsetEnd'
p4654
S'1114'
p4655
sS'Lemma'
p4656
S'Mexico'
p4657
sS'PartOfSpeech'
p4658
S'NNP'
p4659
sS'CharacterOffsetBegin'
p4660
S'1108'
p4661
stp4662
a(g135
(dp4663
S'NamedEntityTag'
p4664
g76
sS'CharacterOffsetEnd'
p4665
S'1115'
p4666
sS'Lemma'
p4667
g135
sS'PartOfSpeech'
p4668
g135
sS'CharacterOffsetBegin'
p4669
S'1114'
p4670
stp4671
a(S'the'
p4672
(dp4673
S'NamedEntityTag'
p4674
g76
sS'CharacterOffsetEnd'
p4675
S'1119'
p4676
sS'Lemma'
p4677
S'the'
p4678
sS'PartOfSpeech'
p4679
S'DT'
p4680
sS'CharacterOffsetBegin'
p4681
S'1116'
p4682
stp4683
a(S'United'
p4684
(dp4685
S'NamedEntityTag'
p4686
S'LOCATION'
p4687
sS'CharacterOffsetEnd'
p4688
S'1126'
p4689
sS'Lemma'
p4690
S'United'
p4691
sS'PartOfSpeech'
p4692
S'NNP'
p4693
sS'CharacterOffsetBegin'
p4694
S'1120'
p4695
stp4696
a(S'States'
p4697
(dp4698
S'NamedEntityTag'
p4699
S'LOCATION'
p4700
sS'CharacterOffsetEnd'
p4701
S'1133'
p4702
sS'Lemma'
p4703
S'States'
p4704
sS'PartOfSpeech'
p4705
S'NNPS'
p4706
sS'CharacterOffsetBegin'
p4707
S'1127'
p4708
stp4709
a(g135
(dp4710
S'NamedEntityTag'
p4711
g76
sS'CharacterOffsetEnd'
p4712
S'1134'
p4713
sS'Lemma'
p4714
g135
sS'PartOfSpeech'
p4715
g135
sS'CharacterOffsetBegin'
p4716
S'1133'
p4717
stp4718
a(S'Japan'
p4719
(dp4720
S'NamedEntityTag'
p4721
S'LOCATION'
p4722
sS'CharacterOffsetEnd'
p4723
S'1140'
p4724
sS'Lemma'
p4725
S'Japan'
p4726
sS'PartOfSpeech'
p4727
S'NNP'
p4728
sS'CharacterOffsetBegin'
p4729
S'1135'
p4730
stp4731
a(S'and'
p4732
(dp4733
S'NamedEntityTag'
p4734
g76
sS'CharacterOffsetEnd'
p4735
S'1144'
p4736
sS'Lemma'
p4737
S'and'
p4738
sS'PartOfSpeech'
p4739
S'CC'
p4740
sS'CharacterOffsetBegin'
p4741
S'1141'
p4742
stp4743
a(S'Argentina'
p4744
(dp4745
S'NamedEntityTag'
p4746
S'LOCATION'
p4747
sS'CharacterOffsetEnd'
p4748
S'1154'
p4749
sS'Lemma'
p4750
S'Argentina'
p4751
sS'PartOfSpeech'
p4752
S'NNP'
p4753
sS'CharacterOffsetBegin'
p4754
S'1145'
p4755
stp4756
a(g459
(dp4757
S'NamedEntityTag'
p4758
g76
sS'CharacterOffsetEnd'
p4759
S'1155'
p4760
sS'Lemma'
p4761
g459
sS'PartOfSpeech'
p4762
g459
sS'CharacterOffsetBegin'
p4763
S'1154'
p4764
stp4765
asa(dp4766
g7
S'(ROOT (S (NP (NP (NP (NP (JJ Former) (NNP U.S.) (NNP President) (NNP Jimmy) (NNP Carter)) (CC and) (NP (PRP$ his) (NN wife))) (, ,) (NP (NNP Rosalynn)) (, ,) (VP (VBN intended) (S (VP (TO to) (VP (VB visit) (NP (NP (NNP Nicaragua)) (PP (IN on) (NP (NNP Friday)))) (S (VP (TO to) (VP (VB learn) (NP (JJR more)) (PP (IN about) (NP (DT the) (NNS hurricanes) (NN impact))))))))))) (, ,) (NP (NP (DT The) (NNP Carter) (NNP Center)) (PP (IN in) (NP (NNP Atlanta))))) (VP (VBD announced)) (. .)))'
p4767
sg9
S'Former U.S. President Jimmy Carter and his wife, Rosalynn, intended to visit Nicaragua on Friday to learn more about the hurricanes impact, The Carter Center in Atlanta announced.'
p4768
sg11
(lp4769
(S'root'
p4770
S'ROOT'
p4771
S'announced'
p4772
tp4773
a(S'amod'
p4774
S'Carter'
p4775
S'Former'
p4776
tp4777
a(S'nn'
p4778
S'Carter'
p4779
S'U.S.'
p4780
tp4781
a(S'nn'
p4782
S'Carter'
p4783
S'President'
p4784
tp4785
a(S'nn'
p4786
S'Carter'
p4787
S'Jimmy'
p4788
tp4789
a(S'nsubj'
p4790
S'announced'
p4791
S'Carter'
p4792
tp4793
a(S'poss'
p4794
S'wife'
p4795
S'his'
p4796
tp4797
a(S'conj_and'
p4798
S'Carter'
p4799
S'wife'
p4800
tp4801
a(S'appos'
p4802
S'Carter'
p4803
S'Rosalynn'
p4804
tp4805
a(S'partmod'
p4806
S'Carter'
p4807
S'intended'
p4808
tp4809
a(S'aux'
p4810
S'visit'
p4811
S'to'
p4812
tp4813
a(S'xcomp'
p4814
S'intended'
p4815
S'visit'
p4816
tp4817
a(S'dobj'
p4818
S'visit'
p4819
S'Nicaragua'
p4820
tp4821
a(S'prep_on'
p4822
S'Nicaragua'
p4823
S'Friday'
p4824
tp4825
a(S'aux'
p4826
S'learn'
p4827
S'to'
p4828
tp4829
a(S'xcomp'
p4830
S'visit'
p4831
S'learn'
p4832
tp4833
a(S'dobj'
p4834
S'learn'
p4835
S'more'
p4836
tp4837
a(S'det'
p4838
S'impact'
p4839
S'the'
p4840
tp4841
a(S'nn'
p4842
S'impact'
p4843
S'hurricanes'
p4844
tp4845
a(S'prep_about'
p4846
S'learn'
p4847
S'impact'
p4848
tp4849
a(S'det'
p4850
S'Center'
p4851
S'The'
p4852
tp4853
a(S'nn'
p4854
S'Center'
p4855
S'Carter'
p4856
tp4857
a(S'appos'
p4858
S'Carter'
p4859
S'Center'
p4860
tp4861
a(S'prep_in'
p4862
S'Center'
p4863
S'Atlanta'
p4864
tp4865
asg45
(lp4866
(g4770
S'ROOT-0'
p4867
S'announced-31'
p4868
tp4869
a(g4774
S'Carter-5'
p4870
S'Former-1'
p4871
tp4872
a(g4778
S'Carter-5'
p4873
S'U.S.-2'
p4874
tp4875
a(g4782
S'Carter-5'
p4876
S'President-3'
p4877
tp4878
a(g4786
S'Carter-5'
p4879
S'Jimmy-4'
p4880
tp4881
a(g4790
S'announced-31'
p4882
S'Carter-5'
p4883
tp4884
a(g4794
S'wife-8'
p4885
S'his-7'
p4886
tp4887
a(g4798
S'Carter-5'
p4888
S'wife-8'
p4889
tp4890
a(g4802
S'Carter-5'
p4891
S'Rosalynn-10'
p4892
tp4893
a(g4806
S'Carter-5'
p4894
S'intended-12'
p4895
tp4896
a(g4810
S'visit-14'
p4897
S'to-13'
p4898
tp4899
a(g4814
S'intended-12'
p4900
S'visit-14'
p4901
tp4902
a(g4818
S'visit-14'
p4903
S'Nicaragua-15'
p4904
tp4905
a(g4822
S'Nicaragua-15'
p4906
S'Friday-17'
p4907
tp4908
a(g4826
S'learn-19'
p4909
S'to-18'
p4910
tp4911
a(g4830
S'visit-14'
p4912
S'learn-19'
p4913
tp4914
a(g4834
S'learn-19'
p4915
S'more-20'
p4916
tp4917
a(g4838
S'impact-24'
p4918
S'the-22'
p4919
tp4920
a(g4842
S'impact-24'
p4921
S'hurricanes-23'
p4922
tp4923
a(g4846
S'learn-19'
p4924
S'impact-24'
p4925
tp4926
a(g4850
S'Center-28'
p4927
S'The-26'
p4928
tp4929
a(g4854
S'Center-28'
p4930
S'Carter-27'
p4931
tp4932
a(g4858
S'Carter-5'
p4933
S'Center-28'
p4934
tp4935
a(g4862
S'Center-28'
p4936
S'Atlanta-30'
p4937
tp4938
asg71
(lp4939
(S'Former'
p4940
(dp4941
S'NamedEntityTag'
p4942
g76
sS'CharacterOffsetEnd'
p4943
S'1162'
p4944
sS'Lemma'
p4945
S'former'
p4946
sS'PartOfSpeech'
p4947
S'JJ'
p4948
sS'CharacterOffsetBegin'
p4949
S'1156'
p4950
stp4951
a(S'U.S.'
p4952
(dp4953
S'NamedEntityTag'
p4954
S'LOCATION'
p4955
sS'CharacterOffsetEnd'
p4956
S'1167'
p4957
sS'Lemma'
p4958
S'U.S.'
p4959
sS'PartOfSpeech'
p4960
S'NNP'
p4961
sS'CharacterOffsetBegin'
p4962
S'1163'
p4963
stp4964
a(S'President'
p4965
(dp4966
S'NamedEntityTag'
p4967
g76
sS'CharacterOffsetEnd'
p4968
S'1177'
p4969
sS'Lemma'
p4970
S'President'
p4971
sS'PartOfSpeech'
p4972
S'NNP'
p4973
sS'CharacterOffsetBegin'
p4974
S'1168'
p4975
stp4976
a(S'Jimmy'
p4977
(dp4978
S'NamedEntityTag'
p4979
S'PERSON'
p4980
sS'CharacterOffsetEnd'
p4981
S'1183'
p4982
sS'Lemma'
p4983
S'Jimmy'
p4984
sS'PartOfSpeech'
p4985
S'NNP'
p4986
sS'CharacterOffsetBegin'
p4987
S'1178'
p4988
stp4989
a(S'Carter'
p4990
(dp4991
S'NamedEntityTag'
p4992
S'PERSON'
p4993
sS'CharacterOffsetEnd'
p4994
S'1190'
p4995
sS'Lemma'
p4996
S'Carter'
p4997
sS'PartOfSpeech'
p4998
S'NNP'
p4999
sS'CharacterOffsetBegin'
p5000
S'1184'
p5001
stp5002
a(S'and'
p5003
(dp5004
S'NamedEntityTag'
p5005
g76
sS'CharacterOffsetEnd'
p5006
S'1194'
p5007
sS'Lemma'
p5008
S'and'
p5009
sS'PartOfSpeech'
p5010
S'CC'
p5011
sS'CharacterOffsetBegin'
p5012
S'1191'
p5013
stp5014
a(S'his'
p5015
(dp5016
S'NamedEntityTag'
p5017
g76
sS'CharacterOffsetEnd'
p5018
S'1198'
p5019
sS'Lemma'
p5020
S'he'
p5021
sS'PartOfSpeech'
p5022
S'PRP$'
p5023
sS'CharacterOffsetBegin'
p5024
S'1195'
p5025
stp5026
a(S'wife'
p5027
(dp5028
S'NamedEntityTag'
p5029
g76
sS'CharacterOffsetEnd'
p5030
S'1203'
p5031
sS'Lemma'
p5032
S'wife'
p5033
sS'PartOfSpeech'
p5034
S'NN'
p5035
sS'CharacterOffsetBegin'
p5036
S'1199'
p5037
stp5038
a(g135
(dp5039
S'NamedEntityTag'
p5040
g76
sS'CharacterOffsetEnd'
p5041
S'1204'
p5042
sS'Lemma'
p5043
g135
sS'PartOfSpeech'
p5044
g135
sS'CharacterOffsetBegin'
p5045
S'1203'
p5046
stp5047
a(S'Rosalynn'
p5048
(dp5049
S'NamedEntityTag'
p5050
S'PERSON'
p5051
sS'CharacterOffsetEnd'
p5052
S'1213'
p5053
sS'Lemma'
p5054
S'Rosalynn'
p5055
sS'PartOfSpeech'
p5056
S'NNP'
p5057
sS'CharacterOffsetBegin'
p5058
S'1205'
p5059
stp5060
a(g135
(dp5061
S'NamedEntityTag'
p5062
g76
sS'CharacterOffsetEnd'
p5063
S'1214'
p5064
sS'Lemma'
p5065
g135
sS'PartOfSpeech'
p5066
g135
sS'CharacterOffsetBegin'
p5067
S'1213'
p5068
stp5069
a(S'intended'
p5070
(dp5071
S'NamedEntityTag'
p5072
g76
sS'CharacterOffsetEnd'
p5073
S'1223'
p5074
sS'Lemma'
p5075
S'intend'
p5076
sS'PartOfSpeech'
p5077
S'VBN'
p5078
sS'CharacterOffsetBegin'
p5079
S'1215'
p5080
stp5081
a(S'to'
p5082
(dp5083
S'NamedEntityTag'
p5084
g76
sS'CharacterOffsetEnd'
p5085
S'1226'
p5086
sS'Lemma'
p5087
S'to'
p5088
sS'PartOfSpeech'
p5089
S'TO'
p5090
sS'CharacterOffsetBegin'
p5091
S'1224'
p5092
stp5093
a(S'visit'
p5094
(dp5095
S'NamedEntityTag'
p5096
g76
sS'CharacterOffsetEnd'
p5097
S'1232'
p5098
sS'Lemma'
p5099
S'visit'
p5100
sS'PartOfSpeech'
p5101
S'VB'
p5102
sS'CharacterOffsetBegin'
p5103
S'1227'
p5104
stp5105
a(S'Nicaragua'
p5106
(dp5107
S'NamedEntityTag'
p5108
S'LOCATION'
p5109
sS'CharacterOffsetEnd'
p5110
S'1242'
p5111
sS'Lemma'
p5112
S'Nicaragua'
p5113
sS'PartOfSpeech'
p5114
S'NNP'
p5115
sS'CharacterOffsetBegin'
p5116
S'1233'
p5117
stp5118
a(S'on'
p5119
(dp5120
S'NamedEntityTag'
p5121
g76
sS'CharacterOffsetEnd'
p5122
S'1245'
p5123
sS'Lemma'
p5124
S'on'
p5125
sS'PartOfSpeech'
p5126
S'IN'
p5127
sS'CharacterOffsetBegin'
p5128
S'1243'
p5129
stp5130
a(S'Friday'
p5131
(dp5132
S'NormalizedNamedEntityTag'
p5133
S'XXXX-WXX-5'
p5134
sS'Timex'
p5135
S'<TIMEX3 tid="t1" type="DATE" value="XXXX-WXX-5">Friday</TIMEX3>'
p5136
sS'Lemma'
p5137
S'Friday'
p5138
sS'CharacterOffsetEnd'
p5139
S'1252'
p5140
sS'PartOfSpeech'
p5141
S'NNP'
p5142
sS'CharacterOffsetBegin'
p5143
S'1246'
p5144
sS'NamedEntityTag'
p5145
S'DATE'
p5146
stp5147
a(S'to'
p5148
(dp5149
S'NamedEntityTag'
p5150
g76
sS'CharacterOffsetEnd'
p5151
S'1255'
p5152
sS'Lemma'
p5153
S'to'
p5154
sS'PartOfSpeech'
p5155
S'TO'
p5156
sS'CharacterOffsetBegin'
p5157
S'1253'
p5158
stp5159
a(S'learn'
p5160
(dp5161
S'NamedEntityTag'
p5162
g76
sS'CharacterOffsetEnd'
p5163
S'1261'
p5164
sS'Lemma'
p5165
S'learn'
p5166
sS'PartOfSpeech'
p5167
S'VB'
p5168
sS'CharacterOffsetBegin'
p5169
S'1256'
p5170
stp5171
a(S'more'
p5172
(dp5173
S'NamedEntityTag'
p5174
g76
sS'CharacterOffsetEnd'
p5175
S'1266'
p5176
sS'Lemma'
p5177
S'more'
p5178
sS'PartOfSpeech'
p5179
S'JJR'
p5180
sS'CharacterOffsetBegin'
p5181
S'1262'
p5182
stp5183
a(S'about'
p5184
(dp5185
S'NamedEntityTag'
p5186
g76
sS'CharacterOffsetEnd'
p5187
S'1272'
p5188
sS'Lemma'
p5189
S'about'
p5190
sS'PartOfSpeech'
p5191
S'IN'
p5192
sS'CharacterOffsetBegin'
p5193
S'1267'
p5194
stp5195
a(S'the'
p5196
(dp5197
S'NamedEntityTag'
p5198
g76
sS'CharacterOffsetEnd'
p5199
S'1276'
p5200
sS'Lemma'
p5201
S'the'
p5202
sS'PartOfSpeech'
p5203
S'DT'
p5204
sS'CharacterOffsetBegin'
p5205
S'1273'
p5206
stp5207
a(S'hurricanes'
p5208
(dp5209
S'NamedEntityTag'
p5210
g76
sS'CharacterOffsetEnd'
p5211
S'1287'
p5212
sS'Lemma'
p5213
S'hurricane'
p5214
sS'PartOfSpeech'
p5215
S'NNS'
p5216
sS'CharacterOffsetBegin'
p5217
S'1277'
p5218
stp5219
a(S'impact'
p5220
(dp5221
S'NamedEntityTag'
p5222
g76
sS'CharacterOffsetEnd'
p5223
S'1294'
p5224
sS'Lemma'
p5225
S'impact'
p5226
sS'PartOfSpeech'
p5227
S'NN'
p5228
sS'CharacterOffsetBegin'
p5229
S'1288'
p5230
stp5231
a(g135
(dp5232
S'NamedEntityTag'
p5233
g76
sS'CharacterOffsetEnd'
p5234
S'1295'
p5235
sS'Lemma'
p5236
g135
sS'PartOfSpeech'
p5237
g135
sS'CharacterOffsetBegin'
p5238
S'1294'
p5239
stp5240
a(S'The'
p5241
(dp5242
S'NamedEntityTag'
p5243
S'ORGANIZATION'
p5244
sS'CharacterOffsetEnd'
p5245
S'1299'
p5246
sS'Lemma'
p5247
S'the'
p5248
sS'PartOfSpeech'
p5249
S'DT'
p5250
sS'CharacterOffsetBegin'
p5251
S'1296'
p5252
stp5253
a(S'Carter'
p5254
(dp5255
S'NamedEntityTag'
p5256
S'ORGANIZATION'
p5257
sS'CharacterOffsetEnd'
p5258
S'1306'
p5259
sS'Lemma'
p5260
S'Carter'
p5261
sS'PartOfSpeech'
p5262
S'NNP'
p5263
sS'CharacterOffsetBegin'
p5264
S'1300'
p5265
stp5266
a(S'Center'
p5267
(dp5268
S'NamedEntityTag'
p5269
S'ORGANIZATION'
p5270
sS'CharacterOffsetEnd'
p5271
S'1313'
p5272
sS'Lemma'
p5273
S'Center'
p5274
sS'PartOfSpeech'
p5275
S'NNP'
p5276
sS'CharacterOffsetBegin'
p5277
S'1307'
p5278
stp5279
a(S'in'
p5280
(dp5281
S'NamedEntityTag'
p5282
g76
sS'CharacterOffsetEnd'
p5283
S'1316'
p5284
sS'Lemma'
p5285
S'in'
p5286
sS'PartOfSpeech'
p5287
S'IN'
p5288
sS'CharacterOffsetBegin'
p5289
S'1314'
p5290
stp5291
a(S'Atlanta'
p5292
(dp5293
S'NamedEntityTag'
p5294
S'LOCATION'
p5295
sS'CharacterOffsetEnd'
p5296
S'1324'
p5297
sS'Lemma'
p5298
S'Atlanta'
p5299
sS'PartOfSpeech'
p5300
S'NNP'
p5301
sS'CharacterOffsetBegin'
p5302
S'1317'
p5303
stp5304
a(S'announced'
p5305
(dp5306
S'NamedEntityTag'
p5307
g76
sS'CharacterOffsetEnd'
p5308
S'1334'
p5309
sS'Lemma'
p5310
S'announce'
p5311
sS'PartOfSpeech'
p5312
S'VBD'
p5313
sS'CharacterOffsetBegin'
p5314
S'1325'
p5315
stp5316
a(g459
(dp5317
S'NamedEntityTag'
p5318
g76
sS'CharacterOffsetEnd'
p5319
S'1335'
p5320
sS'Lemma'
p5321
g459
sS'PartOfSpeech'
p5322
g459
sS'CharacterOffsetBegin'
p5323
S'1334'
p5324
stp5325
asa(dp5326
g7
S'(ROOT (S (S (NP (PRP We)) (VP (VBP hope) (SBAR (S (NP (DT this) (NN visit)) (VP (MD will) (VP (VB help) (VP (VB call) (NP (NN attention)) (PP (TO to) (NP (NP (DT the) (NP (NN suffering) (CC and) (JJ humanitarian)) (NN need)) (SBAR (S (NP (DT this) (NN disaster)) (VP (VBZ has) (VP (VBN created)))))))))))))) (, ,) (NP (NNP Carter)) (VP (VBD said) (PP (IN in) (NP (DT a) (NN statement)))) (. .)))'
p5327
sg9
S'We hope this visit will help call attention to the suffering and humanitarian need this disaster has created, Carter said in a statement.'
p5328
sg11
(lp5329
(S'root'
p5330
S'ROOT'
p5331
S'said'
p5332
tp5333
a(S'nsubj'
p5334
S'hope'
p5335
S'We'
p5336
tp5337
a(S'ccomp'
p5338
S'said'
p5339
S'hope'
p5340
tp5341
a(S'det'
p5342
S'visit'
p5343
S'this'
p5344
tp5345
a(S'nsubj'
p5346
S'help'
p5347
S'visit'
p5348
tp5349
a(S'aux'
p5350
S'help'
p5351
S'will'
p5352
tp5353
a(S'ccomp'
p5354
S'hope'
p5355
S'help'
p5356
tp5357
a(S'xcomp'
p5358
S'help'
p5359
S'call'
p5360
tp5361
a(S'dobj'
p5362
S'call'
p5363
S'attention'
p5364
tp5365
a(S'det'
p5366
S'need'
p5367
S'the'
p5368
tp5369
a(S'nn'
p5370
S'need'
p5371
S'suffering'
p5372
tp5373
a(S'conj_and'
p5374
S'suffering'
p5375
S'humanitarian'
p5376
tp5377
a(S'prep_to'
p5378
S'call'
p5379
S'need'
p5380
tp5381
a(S'det'
p5382
S'disaster'
p5383
S'this'
p5384
tp5385
a(S'nsubj'
p5386
S'created'
p5387
S'disaster'
p5388
tp5389
a(S'aux'
p5390
S'created'
p5391
S'has'
p5392
tp5393
a(S'rcmod'
p5394
S'need'
p5395
S'created'
p5396
tp5397
a(S'nsubj'
p5398
S'said'
p5399
S'Carter'
p5400
tp5401
a(S'det'
p5402
S'statement'
p5403
g1846
tp5404
a(S'prep_in'
p5405
S'said'
p5406
S'statement'
p5407
tp5408
asg45
(lp5409
(g5330
S'ROOT-0'
p5410
S'said-21'
p5411
tp5412
a(g5334
S'hope-2'
p5413
S'We-1'
p5414
tp5415
a(g5338
S'said-21'
p5416
S'hope-2'
p5417
tp5418
a(g5342
S'visit-4'
p5419
S'this-3'
p5420
tp5421
a(g5346
S'help-6'
p5422
S'visit-4'
p5423
tp5424
a(g5350
S'help-6'
p5425
S'will-5'
p5426
tp5427
a(g5354
S'hope-2'
p5428
S'help-6'
p5429
tp5430
a(g5358
S'help-6'
p5431
S'call-7'
p5432
tp5433
a(g5362
S'call-7'
p5434
S'attention-8'
p5435
tp5436
a(g5366
S'need-14'
p5437
S'the-10'
p5438
tp5439
a(g5370
S'need-14'
p5440
S'suffering-11'
p5441
tp5442
a(g5374
S'suffering-11'
p5443
S'humanitarian-13'
p5444
tp5445
a(g5378
S'call-7'
p5446
S'need-14'
p5447
tp5448
a(g5382
S'disaster-16'
p5449
S'this-15'
p5450
tp5451
a(g5386
S'created-18'
p5452
S'disaster-16'
p5453
tp5454
a(g5390
S'created-18'
p5455
S'has-17'
p5456
tp5457
a(g5394
S'need-14'
p5458
S'created-18'
p5459
tp5460
a(g5398
S'said-21'
p5461
S'Carter-20'
p5462
tp5463
a(g5402
S'statement-24'
p5464
S'a-23'
p5465
tp5466
a(g5405
S'said-21'
p5467
S'statement-24'
p5468
tp5469
asg71
(lp5470
(S'We'
p5471
(dp5472
S'NamedEntityTag'
p5473
g76
sS'CharacterOffsetEnd'
p5474
S'1338'
p5475
sS'Lemma'
p5476
S'we'
p5477
sS'PartOfSpeech'
p5478
S'PRP'
p5479
sS'CharacterOffsetBegin'
p5480
S'1336'
p5481
stp5482
a(S'hope'
p5483
(dp5484
S'NamedEntityTag'
p5485
g76
sS'CharacterOffsetEnd'
p5486
S'1343'
p5487
sS'Lemma'
p5488
S'hope'
p5489
sS'PartOfSpeech'
p5490
S'VBP'
p5491
sS'CharacterOffsetBegin'
p5492
S'1339'
p5493
stp5494
a(S'this'
p5495
(dp5496
S'NamedEntityTag'
p5497
g76
sS'CharacterOffsetEnd'
p5498
S'1348'
p5499
sS'Lemma'
p5500
S'this'
p5501
sS'PartOfSpeech'
p5502
S'DT'
p5503
sS'CharacterOffsetBegin'
p5504
S'1344'
p5505
stp5506
a(S'visit'
p5507
(dp5508
S'NamedEntityTag'
p5509
g76
sS'CharacterOffsetEnd'
p5510
S'1354'
p5511
sS'Lemma'
p5512
S'visit'
p5513
sS'PartOfSpeech'
p5514
S'NN'
p5515
sS'CharacterOffsetBegin'
p5516
S'1349'
p5517
stp5518
a(S'will'
p5519
(dp5520
S'NamedEntityTag'
p5521
g76
sS'CharacterOffsetEnd'
p5522
S'1359'
p5523
sS'Lemma'
p5524
S'will'
p5525
sS'PartOfSpeech'
p5526
S'MD'
p5527
sS'CharacterOffsetBegin'
p5528
S'1355'
p5529
stp5530
a(S'help'
p5531
(dp5532
S'NamedEntityTag'
p5533
g76
sS'CharacterOffsetEnd'
p5534
S'1364'
p5535
sS'Lemma'
p5536
S'help'
p5537
sS'PartOfSpeech'
p5538
S'VB'
p5539
sS'CharacterOffsetBegin'
p5540
S'1360'
p5541
stp5542
a(S'call'
p5543
(dp5544
S'NamedEntityTag'
p5545
g76
sS'CharacterOffsetEnd'
p5546
S'1369'
p5547
sS'Lemma'
p5548
S'call'
p5549
sS'PartOfSpeech'
p5550
S'VB'
p5551
sS'CharacterOffsetBegin'
p5552
S'1365'
p5553
stp5554
a(S'attention'
p5555
(dp5556
S'NamedEntityTag'
p5557
g76
sS'CharacterOffsetEnd'
p5558
S'1379'
p5559
sS'Lemma'
p5560
S'attention'
p5561
sS'PartOfSpeech'
p5562
S'NN'
p5563
sS'CharacterOffsetBegin'
p5564
S'1370'
p5565
stp5566
a(S'to'
p5567
(dp5568
S'NamedEntityTag'
p5569
g76
sS'CharacterOffsetEnd'
p5570
S'1382'
p5571
sS'Lemma'
p5572
S'to'
p5573
sS'PartOfSpeech'
p5574
S'TO'
p5575
sS'CharacterOffsetBegin'
p5576
S'1380'
p5577
stp5578
a(S'the'
p5579
(dp5580
S'NamedEntityTag'
p5581
g76
sS'CharacterOffsetEnd'
p5582
S'1386'
p5583
sS'Lemma'
p5584
S'the'
p5585
sS'PartOfSpeech'
p5586
S'DT'
p5587
sS'CharacterOffsetBegin'
p5588
S'1383'
p5589
stp5590
a(S'suffering'
p5591
(dp5592
S'NamedEntityTag'
p5593
g76
sS'CharacterOffsetEnd'
p5594
S'1396'
p5595
sS'Lemma'
p5596
S'suffering'
p5597
sS'PartOfSpeech'
p5598
S'NN'
p5599
sS'CharacterOffsetBegin'
p5600
S'1387'
p5601
stp5602
a(S'and'
p5603
(dp5604
S'NamedEntityTag'
p5605
g76
sS'CharacterOffsetEnd'
p5606
S'1400'
p5607
sS'Lemma'
p5608
S'and'
p5609
sS'PartOfSpeech'
p5610
S'CC'
p5611
sS'CharacterOffsetBegin'
p5612
S'1397'
p5613
stp5614
a(S'humanitarian'
p5615
(dp5616
S'NamedEntityTag'
p5617
g76
sS'CharacterOffsetEnd'
p5618
S'1413'
p5619
sS'Lemma'
p5620
S'humanitarian'
p5621
sS'PartOfSpeech'
p5622
S'JJ'
p5623
sS'CharacterOffsetBegin'
p5624
S'1401'
p5625
stp5626
a(S'need'
p5627
(dp5628
S'NamedEntityTag'
p5629
g76
sS'CharacterOffsetEnd'
p5630
S'1418'
p5631
sS'Lemma'
p5632
S'need'
p5633
sS'PartOfSpeech'
p5634
S'NN'
p5635
sS'CharacterOffsetBegin'
p5636
S'1414'
p5637
stp5638
a(S'this'
p5639
(dp5640
S'NamedEntityTag'
p5641
g76
sS'CharacterOffsetEnd'
p5642
S'1423'
p5643
sS'Lemma'
p5644
S'this'
p5645
sS'PartOfSpeech'
p5646
S'DT'
p5647
sS'CharacterOffsetBegin'
p5648
S'1419'
p5649
stp5650
a(S'disaster'
p5651
(dp5652
S'NamedEntityTag'
p5653
g76
sS'CharacterOffsetEnd'
p5654
S'1432'
p5655
sS'Lemma'
p5656
S'disaster'
p5657
sS'PartOfSpeech'
p5658
S'NN'
p5659
sS'CharacterOffsetBegin'
p5660
S'1424'
p5661
stp5662
a(S'has'
p5663
(dp5664
S'NamedEntityTag'
p5665
g76
sS'CharacterOffsetEnd'
p5666
S'1436'
p5667
sS'Lemma'
p5668
S'have'
p5669
sS'PartOfSpeech'
p5670
S'VBZ'
p5671
sS'CharacterOffsetBegin'
p5672
S'1433'
p5673
stp5674
a(S'created'
p5675
(dp5676
S'NamedEntityTag'
p5677
g76
sS'CharacterOffsetEnd'
p5678
S'1444'
p5679
sS'Lemma'
p5680
S'create'
p5681
sS'PartOfSpeech'
p5682
S'VBN'
p5683
sS'CharacterOffsetBegin'
p5684
S'1437'
p5685
stp5686
a(g135
(dp5687
S'NamedEntityTag'
p5688
g76
sS'CharacterOffsetEnd'
p5689
S'1445'
p5690
sS'Lemma'
p5691
g135
sS'PartOfSpeech'
p5692
g135
sS'CharacterOffsetBegin'
p5693
S'1444'
p5694
stp5695
a(S'Carter'
p5696
(dp5697
S'NamedEntityTag'
p5698
S'PERSON'
p5699
sS'CharacterOffsetEnd'
p5700
S'1452'
p5701
sS'Lemma'
p5702
S'Carter'
p5703
sS'PartOfSpeech'
p5704
S'NNP'
p5705
sS'CharacterOffsetBegin'
p5706
S'1446'
p5707
stp5708
a(S'said'
p5709
(dp5710
S'NamedEntityTag'
p5711
g76
sS'CharacterOffsetEnd'
p5712
S'1457'
p5713
sS'Lemma'
p5714
S'say'
p5715
sS'PartOfSpeech'
p5716
S'VBD'
p5717
sS'CharacterOffsetBegin'
p5718
S'1453'
p5719
stp5720
a(S'in'
p5721
(dp5722
S'NamedEntityTag'
p5723
g76
sS'CharacterOffsetEnd'
p5724
S'1460'
p5725
sS'Lemma'
p5726
S'in'
p5727
sS'PartOfSpeech'
p5728
S'IN'
p5729
sS'CharacterOffsetBegin'
p5730
S'1458'
p5731
stp5732
a(g1846
(dp5733
S'NamedEntityTag'
p5734
g76
sS'CharacterOffsetEnd'
p5735
S'1462'
p5736
sS'Lemma'
p5737
g1846
sS'PartOfSpeech'
p5738
S'DT'
p5739
sS'CharacterOffsetBegin'
p5740
S'1461'
p5741
stp5742
a(S'statement'
p5743
(dp5744
S'NamedEntityTag'
p5745
g76
sS'CharacterOffsetEnd'
p5746
S'1472'
p5747
sS'Lemma'
p5748
S'statement'
p5749
sS'PartOfSpeech'
p5750
S'NN'
p5751
sS'CharacterOffsetBegin'
p5752
S'1463'
p5753
stp5754
a(g459
(dp5755
S'NamedEntityTag'
p5756
g76
sS'CharacterOffsetEnd'
p5757
S'1473'
p5758
sS'Lemma'
p5759
g459
sS'PartOfSpeech'
p5760
g459
sS'CharacterOffsetBegin'
p5761
S'1472'
p5762
stp5763
asa(dp5764
g7
S'(ROOT (S (NP (NNP U.S.) (NNP President) (NNP Bill) (NNP Clinton)) (VP (VP (VBD requested) (NP (DT a) (JJ global) (NN relief) (NN effort)) (S (VP (TO to) (VP (VB help) (NP (NNP Central) (NNP America)))))) (CC and) (VP (VBD boosted) (NP (NNP U.S.)) (NP (NN emergency) (NN aid)) (S (VP (TO to) (VP (VB dlrs) (NP (QP (CD 70) (CD million)))))))) (. .)))'
p5765
sg9
S'U.S. President Bill Clinton requested a global relief effort to help Central America and boosted U.S. emergency aid to dlrs 70 million.'
p5766
sg11
(lp5767
(S'root'
p5768
S'ROOT'
p5769
S'requested'
p5770
tp5771
a(S'nn'
p5772
S'Clinton'
p5773
S'U.S.'
p5774
tp5775
a(S'nn'
p5776
S'Clinton'
p5777
S'President'
p5778
tp5779
a(S'nn'
p5780
S'Clinton'
p5781
S'Bill'
p5782
tp5783
a(S'nsubj'
p5784
S'requested'
p5785
S'Clinton'
p5786
tp5787
a(S'det'
p5788
S'effort'
p5789
g1846
tp5790
a(S'amod'
p5791
S'effort'
p5792
S'global'
p5793
tp5794
a(S'nn'
p5795
S'effort'
p5796
S'relief'
p5797
tp5798
a(S'dobj'
p5799
S'requested'
p5800
S'effort'
p5801
tp5802
a(S'aux'
p5803
S'help'
p5804
S'to'
p5805
tp5806
a(S'xcomp'
p5807
S'requested'
p5808
S'help'
p5809
tp5810
a(S'nn'
p5811
S'America'
p5812
S'Central'
p5813
tp5814
a(S'dobj'
p5815
S'help'
p5816
S'America'
p5817
tp5818
a(S'conj_and'
p5819
S'requested'
p5820
S'boosted'
p5821
tp5822
a(S'iobj'
p5823
S'boosted'
p5824
S'U.S.'
p5825
tp5826
a(S'nn'
p5827
S'aid'
p5828
S'emergency'
p5829
tp5830
a(S'dobj'
p5831
S'boosted'
p5832
S'aid'
p5833
tp5834
a(S'aux'
p5835
S'dlrs'
p5836
S'to'
p5837
tp5838
a(S'xcomp'
p5839
S'boosted'
p5840
S'dlrs'
p5841
tp5842
a(S'number'
p5843
S'million'
p5844
S'70'
p5845
tp5846
a(S'dobj'
p5847
S'dlrs'
p5848
S'million'
p5849
tp5850
asg45
(lp5851
(g5768
S'ROOT-0'
p5852
S'requested-5'
p5853
tp5854
a(g5772
S'Clinton-4'
p5855
S'U.S.-1'
p5856
tp5857
a(g5776
S'Clinton-4'
p5858
S'President-2'
p5859
tp5860
a(g5780
S'Clinton-4'
p5861
S'Bill-3'
p5862
tp5863
a(g5784
S'requested-5'
p5864
S'Clinton-4'
p5865
tp5866
a(g5788
S'effort-9'
p5867
S'a-6'
p5868
tp5869
a(g5791
S'effort-9'
p5870
S'global-7'
p5871
tp5872
a(g5795
S'effort-9'
p5873
S'relief-8'
p5874
tp5875
a(g5799
S'requested-5'
p5876
S'effort-9'
p5877
tp5878
a(g5803
S'help-11'
p5879
S'to-10'
p5880
tp5881
a(g5807
S'requested-5'
p5882
S'help-11'
p5883
tp5884
a(g5811
S'America-13'
p5885
S'Central-12'
p5886
tp5887
a(g5815
S'help-11'
p5888
S'America-13'
p5889
tp5890
a(g5819
S'requested-5'
p5891
S'boosted-15'
p5892
tp5893
a(g5823
S'boosted-15'
p5894
S'U.S.-16'
p5895
tp5896
a(g5827
S'aid-18'
p5897
S'emergency-17'
p5898
tp5899
a(g5831
S'boosted-15'
p5900
S'aid-18'
p5901
tp5902
a(g5835
S'dlrs-20'
p5903
S'to-19'
p5904
tp5905
a(g5839
S'boosted-15'
p5906
S'dlrs-20'
p5907
tp5908
a(g5843
S'million-22'
p5909
S'70-21'
p5910
tp5911
a(g5847
S'dlrs-20'
p5912
S'million-22'
p5913
tp5914
asg71
(lp5915
(S'U.S.'
p5916
(dp5917
S'NamedEntityTag'
p5918
S'LOCATION'
p5919
sS'CharacterOffsetEnd'
p5920
S'1478'
p5921
sS'Lemma'
p5922
S'U.S.'
p5923
sS'PartOfSpeech'
p5924
S'NNP'
p5925
sS'CharacterOffsetBegin'
p5926
S'1474'
p5927
stp5928
a(S'President'
p5929
(dp5930
S'NamedEntityTag'
p5931
g76
sS'CharacterOffsetEnd'
p5932
S'1488'
p5933
sS'Lemma'
p5934
S'President'
p5935
sS'PartOfSpeech'
p5936
S'NNP'
p5937
sS'CharacterOffsetBegin'
p5938
S'1479'
p5939
stp5940
a(S'Bill'
p5941
(dp5942
S'NamedEntityTag'
p5943
S'PERSON'
p5944
sS'CharacterOffsetEnd'
p5945
S'1493'
p5946
sS'Lemma'
p5947
S'Bill'
p5948
sS'PartOfSpeech'
p5949
S'NNP'
p5950
sS'CharacterOffsetBegin'
p5951
S'1489'
p5952
stp5953
a(S'Clinton'
p5954
(dp5955
S'NamedEntityTag'
p5956
S'PERSON'
p5957
sS'CharacterOffsetEnd'
p5958
S'1501'
p5959
sS'Lemma'
p5960
S'Clinton'
p5961
sS'PartOfSpeech'
p5962
S'NNP'
p5963
sS'CharacterOffsetBegin'
p5964
S'1494'
p5965
stp5966
a(S'requested'
p5967
(dp5968
S'NamedEntityTag'
p5969
g76
sS'CharacterOffsetEnd'
p5970
S'1511'
p5971
sS'Lemma'
p5972
S'request'
p5973
sS'PartOfSpeech'
p5974
S'VBD'
p5975
sS'CharacterOffsetBegin'
p5976
S'1502'
p5977
stp5978
a(g1846
(dp5979
S'NamedEntityTag'
p5980
g76
sS'CharacterOffsetEnd'
p5981
S'1513'
p5982
sS'Lemma'
p5983
g1846
sS'PartOfSpeech'
p5984
S'DT'
p5985
sS'CharacterOffsetBegin'
p5986
S'1512'
p5987
stp5988
a(S'global'
p5989
(dp5990
S'NamedEntityTag'
p5991
g76
sS'CharacterOffsetEnd'
p5992
S'1520'
p5993
sS'Lemma'
p5994
S'global'
p5995
sS'PartOfSpeech'
p5996
S'JJ'
p5997
sS'CharacterOffsetBegin'
p5998
S'1514'
p5999
stp6000
a(S'relief'
p6001
(dp6002
S'NamedEntityTag'
p6003
g76
sS'CharacterOffsetEnd'
p6004
S'1527'
p6005
sS'Lemma'
p6006
S'relief'
p6007
sS'PartOfSpeech'
p6008
S'NN'
p6009
sS'CharacterOffsetBegin'
p6010
S'1521'
p6011
stp6012
a(S'effort'
p6013
(dp6014
S'NamedEntityTag'
p6015
g76
sS'CharacterOffsetEnd'
p6016
S'1534'
p6017
sS'Lemma'
p6018
S'effort'
p6019
sS'PartOfSpeech'
p6020
S'NN'
p6021
sS'CharacterOffsetBegin'
p6022
S'1528'
p6023
stp6024
a(S'to'
p6025
(dp6026
S'NamedEntityTag'
p6027
g76
sS'CharacterOffsetEnd'
p6028
S'1537'
p6029
sS'Lemma'
p6030
S'to'
p6031
sS'PartOfSpeech'
p6032
S'TO'
p6033
sS'CharacterOffsetBegin'
p6034
S'1535'
p6035
stp6036
a(S'help'
p6037
(dp6038
S'NamedEntityTag'
p6039
g76
sS'CharacterOffsetEnd'
p6040
S'1542'
p6041
sS'Lemma'
p6042
S'help'
p6043
sS'PartOfSpeech'
p6044
S'VB'
p6045
sS'CharacterOffsetBegin'
p6046
S'1538'
p6047
stp6048
a(S'Central'
p6049
(dp6050
S'NamedEntityTag'
p6051
S'LOCATION'
p6052
sS'CharacterOffsetEnd'
p6053
S'1550'
p6054
sS'Lemma'
p6055
S'Central'
p6056
sS'PartOfSpeech'
p6057
S'NNP'
p6058
sS'CharacterOffsetBegin'
p6059
S'1543'
p6060
stp6061
a(S'America'
p6062
(dp6063
S'NamedEntityTag'
p6064
S'LOCATION'
p6065
sS'CharacterOffsetEnd'
p6066
S'1558'
p6067
sS'Lemma'
p6068
S'America'
p6069
sS'PartOfSpeech'
p6070
S'NNP'
p6071
sS'CharacterOffsetBegin'
p6072
S'1551'
p6073
stp6074
a(S'and'
p6075
(dp6076
S'NamedEntityTag'
p6077
g76
sS'CharacterOffsetEnd'
p6078
S'1562'
p6079
sS'Lemma'
p6080
S'and'
p6081
sS'PartOfSpeech'
p6082
S'CC'
p6083
sS'CharacterOffsetBegin'
p6084
S'1559'
p6085
stp6086
a(S'boosted'
p6087
(dp6088
S'NamedEntityTag'
p6089
g76
sS'CharacterOffsetEnd'
p6090
S'1570'
p6091
sS'Lemma'
p6092
S'boost'
p6093
sS'PartOfSpeech'
p6094
S'VBD'
p6095
sS'CharacterOffsetBegin'
p6096
S'1563'
p6097
stp6098
a(S'U.S.'
p6099
(dp6100
S'NamedEntityTag'
p6101
S'LOCATION'
p6102
sS'CharacterOffsetEnd'
p6103
S'1575'
p6104
sS'Lemma'
p6105
S'U.S.'
p6106
sS'PartOfSpeech'
p6107
S'NNP'
p6108
sS'CharacterOffsetBegin'
p6109
S'1571'
p6110
stp6111
a(S'emergency'
p6112
(dp6113
S'NamedEntityTag'
p6114
g76
sS'CharacterOffsetEnd'
p6115
S'1585'
p6116
sS'Lemma'
p6117
S'emergency'
p6118
sS'PartOfSpeech'
p6119
S'NN'
p6120
sS'CharacterOffsetBegin'
p6121
S'1576'
p6122
stp6123
a(S'aid'
p6124
(dp6125
S'NamedEntityTag'
p6126
g76
sS'CharacterOffsetEnd'
p6127
S'1589'
p6128
sS'Lemma'
p6129
S'aid'
p6130
sS'PartOfSpeech'
p6131
S'NN'
p6132
sS'CharacterOffsetBegin'
p6133
S'1586'
p6134
stp6135
a(S'to'
p6136
(dp6137
S'NamedEntityTag'
p6138
g76
sS'CharacterOffsetEnd'
p6139
S'1592'
p6140
sS'Lemma'
p6141
S'to'
p6142
sS'PartOfSpeech'
p6143
S'TO'
p6144
sS'CharacterOffsetBegin'
p6145
S'1590'
p6146
stp6147
a(S'dlrs'
p6148
(dp6149
S'NamedEntityTag'
p6150
g76
sS'CharacterOffsetEnd'
p6151
S'1597'
p6152
sS'Lemma'
p6153
S'dlr'
p6154
sS'PartOfSpeech'
p6155
S'VB'
p6156
sS'CharacterOffsetBegin'
p6157
S'1593'
p6158
stp6159
a(S'70'
p6160
(dp6161
S'NormalizedNamedEntityTag'
p6162
S'7.0E7'
p6163
sS'Lemma'
p6164
S'70'
p6165
sS'CharacterOffsetEnd'
p6166
S'1600'
p6167
sS'PartOfSpeech'
p6168
S'CD'
p6169
sS'CharacterOffsetBegin'
p6170
S'1598'
p6171
sS'NamedEntityTag'
p6172
S'NUMBER'
p6173
stp6174
a(S'million'
p6175
(dp6176
S'NormalizedNamedEntityTag'
p6177
S'7.0E7'
p6178
sS'Lemma'
p6179
S'million'
p6180
sS'CharacterOffsetEnd'
p6181
S'1608'
p6182
sS'PartOfSpeech'
p6183
S'CD'
p6184
sS'CharacterOffsetBegin'
p6185
S'1601'
p6186
sS'NamedEntityTag'
p6187
S'NUMBER'
p6188
stp6189
a(g459
(dp6190
S'NamedEntityTag'
p6191
g76
sS'CharacterOffsetEnd'
p6192
S'1609'
p6193
sS'Lemma'
p6194
g459
sS'PartOfSpeech'
p6195
g459
sS'CharacterOffsetBegin'
p6196
S'1608'
p6197
stp6198
asa(dp6199
g7
S'(ROOT (S (NP (NNP Clinton)) (VP (VBZ is) (VP (VBG dispatching) (NP (DT a) (NN delegation)) (NP-TMP (JJ next) (NN week)) (S (VP (VBN led) (PP (IN by) (NP (NP (NNP Tipper) (NNP Gore)) (, ,) (NP (NP (NN wife)) (PP (IN of) (NP (NNP Vice) (NNP President) (NNP Al) (NNP Gore)))) (, ,))) (S (VP (TO to) (VP (VB deliver) (NP (NP (DT some)) (PP (IN of) (NP (NP (DT the) (NNS supplies)) (VP (VBN destined) (PP (IN for) (NP (NNP Honduras) (, ,) (NNP Nicaragua) (, ,) (NNP El) (NNP Salvador) (CC and) (NNP Guatemala)))))))))))))) (. .)))'
p6200
sg9
S'Clinton is dispatching a delegation next week led by Tipper Gore, wife of Vice President Al Gore, to deliver some of the supplies destined for Honduras, Nicaragua, El Salvador and Guatemala.'
p6201
sg11
(lp6202
(S'root'
p6203
S'ROOT'
p6204
S'dispatching'
p6205
tp6206
a(S'nsubj'
p6207
S'dispatching'
p6208
S'Clinton'
p6209
tp6210
a(S'aux'
p6211
S'dispatching'
p6212
S'is'
p6213
tp6214
a(S'det'
p6215
S'delegation'
p6216
g1846
tp6217
a(S'dobj'
p6218
S'dispatching'
p6219
S'delegation'
p6220
tp6221
a(S'amod'
p6222
S'week'
p6223
S'next'
p6224
tp6225
a(S'tmod'
p6226
S'dispatching'
p6227
S'week'
p6228
tp6229
a(S'dep'
p6230
S'dispatching'
p6231
S'led'
p6232
tp6233
a(S'nn'
p6234
S'Gore'
p6235
S'Tipper'
p6236
tp6237
a(S'prep_by'
p6238
S'led'
p6239
S'Gore'
p6240
tp6241
a(S'appos'
p6242
S'Gore'
p6243
S'wife'
p6244
tp6245
a(S'nn'
p6246
S'Gore'
p6247
S'Vice'
p6248
tp6249
a(S'nn'
p6250
S'Gore'
p6251
S'President'
p6252
tp6253
a(S'nn'
p6254
S'Gore'
p6255
S'Al'
p6256
tp6257
a(S'prep_of'
p6258
S'wife'
p6259
S'Gore'
p6260
tp6261
a(S'aux'
p6262
S'deliver'
p6263
S'to'
p6264
tp6265
a(S'xcomp'
p6266
S'led'
p6267
S'deliver'
p6268
tp6269
a(S'dobj'
p6270
S'deliver'
p6271
S'some'
p6272
tp6273
a(S'det'
p6274
S'supplies'
p6275
S'the'
p6276
tp6277
a(S'prep_of'
p6278
S'some'
p6279
S'supplies'
p6280
tp6281
a(S'partmod'
p6282
S'supplies'
p6283
S'destined'
p6284
tp6285
a(S'nn'
p6286
S'Salvador'
p6287
S'Honduras'
p6288
tp6289
a(S'conj_and'
p6290
S'Salvador'
p6291
S'Nicaragua'
p6292
tp6293
a(S'conj_and'
p6294
S'Salvador'
p6295
S'El'
p6296
tp6297
a(S'prep_for'
p6298
S'destined'
p6299
S'Salvador'
p6300
tp6301
a(S'conj_and'
p6302
S'Salvador'
p6303
S'Guatemala'
p6304
tp6305
asg45
(lp6306
(g6203
S'ROOT-0'
p6307
S'dispatching-3'
p6308
tp6309
a(g6207
S'dispatching-3'
p6310
S'Clinton-1'
p6311
tp6312
a(g6211
S'dispatching-3'
p6313
S'is-2'
p6314
tp6315
a(g6215
S'delegation-5'
p6316
S'a-4'
p6317
tp6318
a(g6218
S'dispatching-3'
p6319
S'delegation-5'
p6320
tp6321
a(g6222
S'week-7'
p6322
S'next-6'
p6323
tp6324
a(g6226
S'dispatching-3'
p6325
S'week-7'
p6326
tp6327
a(g6230
S'dispatching-3'
p6328
S'led-8'
p6329
tp6330
a(g6234
S'Gore-11'
p6331
S'Tipper-10'
p6332
tp6333
a(g6238
S'led-8'
p6334
S'Gore-11'
p6335
tp6336
a(g6242
S'Gore-11'
p6337
S'wife-13'
p6338
tp6339
a(g6246
S'Gore-18'
p6340
S'Vice-15'
p6341
tp6342
a(g6250
S'Gore-18'
p6343
S'President-16'
p6344
tp6345
a(g6254
S'Gore-18'
p6346
S'Al-17'
p6347
tp6348
a(g6258
S'wife-13'
p6349
S'Gore-18'
p6350
tp6351
a(g6262
S'deliver-21'
p6352
S'to-20'
p6353
tp6354
a(g6266
S'led-8'
p6355
S'deliver-21'
p6356
tp6357
a(g6270
S'deliver-21'
p6358
S'some-22'
p6359
tp6360
a(g6274
S'supplies-25'
p6361
S'the-24'
p6362
tp6363
a(g6278
S'some-22'
p6364
S'supplies-25'
p6365
tp6366
a(g6282
S'supplies-25'
p6367
S'destined-26'
p6368
tp6369
a(g6286
S'Salvador-33'
p6370
S'Honduras-28'
p6371
tp6372
a(g6290
S'Salvador-33'
p6373
S'Nicaragua-30'
p6374
tp6375
a(g6294
S'Salvador-33'
p6376
S'El-32'
p6377
tp6378
a(g6298
S'destined-26'
p6379
S'Salvador-33'
p6380
tp6381
a(g6302
S'Salvador-33'
p6382
S'Guatemala-35'
p6383
tp6384
asg71
(lp6385
(S'Clinton'
p6386
(dp6387
S'NamedEntityTag'
p6388
S'PERSON'
p6389
sS'CharacterOffsetEnd'
p6390
S'1617'
p6391
sS'Lemma'
p6392
S'Clinton'
p6393
sS'PartOfSpeech'
p6394
S'NNP'
p6395
sS'CharacterOffsetBegin'
p6396
S'1610'
p6397
stp6398
a(S'is'
p6399
(dp6400
S'NamedEntityTag'
p6401
g76
sS'CharacterOffsetEnd'
p6402
S'1620'
p6403
sS'Lemma'
p6404
S'be'
p6405
sS'PartOfSpeech'
p6406
S'VBZ'
p6407
sS'CharacterOffsetBegin'
p6408
S'1618'
p6409
stp6410
a(S'dispatching'
p6411
(dp6412
S'NamedEntityTag'
p6413
g76
sS'CharacterOffsetEnd'
p6414
S'1632'
p6415
sS'Lemma'
p6416
S'dispatch'
p6417
sS'PartOfSpeech'
p6418
S'VBG'
p6419
sS'CharacterOffsetBegin'
p6420
S'1621'
p6421
stp6422
a(g1846
(dp6423
S'NamedEntityTag'
p6424
g76
sS'CharacterOffsetEnd'
p6425
S'1634'
p6426
sS'Lemma'
p6427
g1846
sS'PartOfSpeech'
p6428
S'DT'
p6429
sS'CharacterOffsetBegin'
p6430
S'1633'
p6431
stp6432
a(S'delegation'
p6433
(dp6434
S'NamedEntityTag'
p6435
g76
sS'CharacterOffsetEnd'
p6436
S'1645'
p6437
sS'Lemma'
p6438
S'delegation'
p6439
sS'PartOfSpeech'
p6440
S'NN'
p6441
sS'CharacterOffsetBegin'
p6442
S'1635'
p6443
stp6444
a(S'next'
p6445
(dp6446
S'NormalizedNamedEntityTag'
p6447
S'THIS'
p6448
sS'Timex'
p6449
S'<TIMEX3 alt_value="THIS P1W OFFSET P1W" anchorTimeID="t7" temporalFunction="true" tid="t6" type="DATE" valueFromFunction="tf0">next week</TIMEX3>'
p6450
sS'Lemma'
p6451
S'next'
p6452
sS'CharacterOffsetEnd'
p6453
S'1650'
p6454
sS'PartOfSpeech'
p6455
S'JJ'
p6456
sS'CharacterOffsetBegin'
p6457
S'1646'
p6458
sS'NamedEntityTag'
p6459
S'DATE'
p6460
stp6461
a(S'week'
p6462
(dp6463
S'NormalizedNamedEntityTag'
p6464
S'THIS'
p6465
sS'Timex'
p6466
S'<TIMEX3 alt_value="THIS P1W OFFSET P1W" anchorTimeID="t7" temporalFunction="true" tid="t6" type="DATE" valueFromFunction="tf0">next week</TIMEX3>'
p6467
sS'Lemma'
p6468
S'week'
p6469
sS'CharacterOffsetEnd'
p6470
S'1655'
p6471
sS'PartOfSpeech'
p6472
S'NN'
p6473
sS'CharacterOffsetBegin'
p6474
S'1651'
p6475
sS'NamedEntityTag'
p6476
S'DATE'
p6477
stp6478
a(S'led'
p6479
(dp6480
S'NamedEntityTag'
p6481
g76
sS'CharacterOffsetEnd'
p6482
S'1659'
p6483
sS'Lemma'
p6484
S'lead'
p6485
sS'PartOfSpeech'
p6486
S'VBN'
p6487
sS'CharacterOffsetBegin'
p6488
S'1656'
p6489
stp6490
a(S'by'
p6491
(dp6492
S'NamedEntityTag'
p6493
g76
sS'CharacterOffsetEnd'
p6494
S'1662'
p6495
sS'Lemma'
p6496
S'by'
p6497
sS'PartOfSpeech'
p6498
S'IN'
p6499
sS'CharacterOffsetBegin'
p6500
S'1660'
p6501
stp6502
a(S'Tipper'
p6503
(dp6504
S'NamedEntityTag'
p6505
S'PERSON'
p6506
sS'CharacterOffsetEnd'
p6507
S'1669'
p6508
sS'Lemma'
p6509
S'Tipper'
p6510
sS'PartOfSpeech'
p6511
S'NNP'
p6512
sS'CharacterOffsetBegin'
p6513
S'1663'
p6514
stp6515
a(S'Gore'
p6516
(dp6517
S'NamedEntityTag'
p6518
S'PERSON'
p6519
sS'CharacterOffsetEnd'
p6520
S'1674'
p6521
sS'Lemma'
p6522
S'Gore'
p6523
sS'PartOfSpeech'
p6524
S'NNP'
p6525
sS'CharacterOffsetBegin'
p6526
S'1670'
p6527
stp6528
a(g135
(dp6529
S'NamedEntityTag'
p6530
g76
sS'CharacterOffsetEnd'
p6531
S'1675'
p6532
sS'Lemma'
p6533
g135
sS'PartOfSpeech'
p6534
g135
sS'CharacterOffsetBegin'
p6535
S'1674'
p6536
stp6537
a(S'wife'
p6538
(dp6539
S'NamedEntityTag'
p6540
g76
sS'CharacterOffsetEnd'
p6541
S'1680'
p6542
sS'Lemma'
p6543
S'wife'
p6544
sS'PartOfSpeech'
p6545
S'NN'
p6546
sS'CharacterOffsetBegin'
p6547
S'1676'
p6548
stp6549
a(S'of'
p6550
(dp6551
S'NamedEntityTag'
p6552
g76
sS'CharacterOffsetEnd'
p6553
S'1683'
p6554
sS'Lemma'
p6555
S'of'
p6556
sS'PartOfSpeech'
p6557
S'IN'
p6558
sS'CharacterOffsetBegin'
p6559
S'1681'
p6560
stp6561
a(S'Vice'
p6562
(dp6563
S'NamedEntityTag'
p6564
g76
sS'CharacterOffsetEnd'
p6565
S'1688'
p6566
sS'Lemma'
p6567
S'Vice'
p6568
sS'PartOfSpeech'
p6569
S'NNP'
p6570
sS'CharacterOffsetBegin'
p6571
S'1684'
p6572
stp6573
a(S'President'
p6574
(dp6575
S'NamedEntityTag'
p6576
g76
sS'CharacterOffsetEnd'
p6577
S'1698'
p6578
sS'Lemma'
p6579
S'President'
p6580
sS'PartOfSpeech'
p6581
S'NNP'
p6582
sS'CharacterOffsetBegin'
p6583
S'1689'
p6584
stp6585
a(S'Al'
p6586
(dp6587
S'NamedEntityTag'
p6588
S'PERSON'
p6589
sS'CharacterOffsetEnd'
p6590
S'1701'
p6591
sS'Lemma'
p6592
S'Al'
p6593
sS'PartOfSpeech'
p6594
S'NNP'
p6595
sS'CharacterOffsetBegin'
p6596
S'1699'
p6597
stp6598
a(S'Gore'
p6599
(dp6600
S'NamedEntityTag'
p6601
S'PERSON'
p6602
sS'CharacterOffsetEnd'
p6603
S'1706'
p6604
sS'Lemma'
p6605
S'Gore'
p6606
sS'PartOfSpeech'
p6607
S'NNP'
p6608
sS'CharacterOffsetBegin'
p6609
S'1702'
p6610
stp6611
a(g135
(dp6612
S'NamedEntityTag'
p6613
g76
sS'CharacterOffsetEnd'
p6614
S'1707'
p6615
sS'Lemma'
p6616
g135
sS'PartOfSpeech'
p6617
g135
sS'CharacterOffsetBegin'
p6618
S'1706'
p6619
stp6620
a(S'to'
p6621
(dp6622
S'NamedEntityTag'
p6623
g76
sS'CharacterOffsetEnd'
p6624
S'1710'
p6625
sS'Lemma'
p6626
S'to'
p6627
sS'PartOfSpeech'
p6628
S'TO'
p6629
sS'CharacterOffsetBegin'
p6630
S'1708'
p6631
stp6632
a(S'deliver'
p6633
(dp6634
S'NamedEntityTag'
p6635
g76
sS'CharacterOffsetEnd'
p6636
S'1718'
p6637
sS'Lemma'
p6638
S'deliver'
p6639
sS'PartOfSpeech'
p6640
S'VB'
p6641
sS'CharacterOffsetBegin'
p6642
S'1711'
p6643
stp6644
a(S'some'
p6645
(dp6646
S'NamedEntityTag'
p6647
g76
sS'CharacterOffsetEnd'
p6648
S'1723'
p6649
sS'Lemma'
p6650
S'some'
p6651
sS'PartOfSpeech'
p6652
S'DT'
p6653
sS'CharacterOffsetBegin'
p6654
S'1719'
p6655
stp6656
a(S'of'
p6657
(dp6658
S'NamedEntityTag'
p6659
g76
sS'CharacterOffsetEnd'
p6660
S'1726'
p6661
sS'Lemma'
p6662
S'of'
p6663
sS'PartOfSpeech'
p6664
S'IN'
p6665
sS'CharacterOffsetBegin'
p6666
S'1724'
p6667
stp6668
a(S'the'
p6669
(dp6670
S'NamedEntityTag'
p6671
g76
sS'CharacterOffsetEnd'
p6672
S'1730'
p6673
sS'Lemma'
p6674
S'the'
p6675
sS'PartOfSpeech'
p6676
S'DT'
p6677
sS'CharacterOffsetBegin'
p6678
S'1727'
p6679
stp6680
a(S'supplies'
p6681
(dp6682
S'NamedEntityTag'
p6683
g76
sS'CharacterOffsetEnd'
p6684
S'1739'
p6685
sS'Lemma'
p6686
S'supplies'
p6687
sS'PartOfSpeech'
p6688
S'NNS'
p6689
sS'CharacterOffsetBegin'
p6690
S'1731'
p6691
stp6692
a(S'destined'
p6693
(dp6694
S'NamedEntityTag'
p6695
g76
sS'CharacterOffsetEnd'
p6696
S'1748'
p6697
sS'Lemma'
p6698
S'destine'
p6699
sS'PartOfSpeech'
p6700
S'VBN'
p6701
sS'CharacterOffsetBegin'
p6702
S'1740'
p6703
stp6704
a(S'for'
p6705
(dp6706
S'NamedEntityTag'
p6707
g76
sS'CharacterOffsetEnd'
p6708
S'1752'
p6709
sS'Lemma'
p6710
S'for'
p6711
sS'PartOfSpeech'
p6712
S'IN'
p6713
sS'CharacterOffsetBegin'
p6714
S'1749'
p6715
stp6716
a(S'Honduras'
p6717
(dp6718
S'NamedEntityTag'
p6719
S'LOCATION'
p6720
sS'CharacterOffsetEnd'
p6721
S'1761'
p6722
sS'Lemma'
p6723
S'Honduras'
p6724
sS'PartOfSpeech'
p6725
S'NNP'
p6726
sS'CharacterOffsetBegin'
p6727
S'1753'
p6728
stp6729
a(g135
(dp6730
S'NamedEntityTag'
p6731
g76
sS'CharacterOffsetEnd'
p6732
S'1762'
p6733
sS'Lemma'
p6734
g135
sS'PartOfSpeech'
p6735
g135
sS'CharacterOffsetBegin'
p6736
S'1761'
p6737
stp6738
a(S'Nicaragua'
p6739
(dp6740
S'NamedEntityTag'
p6741
S'LOCATION'
p6742
sS'CharacterOffsetEnd'
p6743
S'1772'
p6744
sS'Lemma'
p6745
S'Nicaragua'
p6746
sS'PartOfSpeech'
p6747
S'NNP'
p6748
sS'CharacterOffsetBegin'
p6749
S'1763'
p6750
stp6751
a(g135
(dp6752
S'NamedEntityTag'
p6753
g76
sS'CharacterOffsetEnd'
p6754
S'1773'
p6755
sS'Lemma'
p6756
g135
sS'PartOfSpeech'
p6757
g135
sS'CharacterOffsetBegin'
p6758
S'1772'
p6759
stp6760
a(S'El'
p6761
(dp6762
S'NamedEntityTag'
p6763
S'LOCATION'
p6764
sS'CharacterOffsetEnd'
p6765
S'1776'
p6766
sS'Lemma'
p6767
S'El'
p6768
sS'PartOfSpeech'
p6769
S'NNP'
p6770
sS'CharacterOffsetBegin'
p6771
S'1774'
p6772
stp6773
a(S'Salvador'
p6774
(dp6775
S'NamedEntityTag'
p6776
S'LOCATION'
p6777
sS'CharacterOffsetEnd'
p6778
S'1785'
p6779
sS'Lemma'
p6780
S'Salvador'
p6781
sS'PartOfSpeech'
p6782
S'NNP'
p6783
sS'CharacterOffsetBegin'
p6784
S'1777'
p6785
stp6786
a(S'and'
p6787
(dp6788
S'NamedEntityTag'
p6789
g76
sS'CharacterOffsetEnd'
p6790
S'1789'
p6791
sS'Lemma'
p6792
S'and'
p6793
sS'PartOfSpeech'
p6794
S'CC'
p6795
sS'CharacterOffsetBegin'
p6796
S'1786'
p6797
stp6798
a(S'Guatemala'
p6799
(dp6800
S'NamedEntityTag'
p6801
S'LOCATION'
p6802
sS'CharacterOffsetEnd'
p6803
S'1799'
p6804
sS'Lemma'
p6805
S'Guatemala'
p6806
sS'PartOfSpeech'
p6807
S'NNP'
p6808
sS'CharacterOffsetBegin'
p6809
S'1790'
p6810
stp6811
a(g459
(dp6812
S'NamedEntityTag'
p6813
g76
sS'CharacterOffsetEnd'
p6814
S'1800'
p6815
sS'Lemma'
p6816
g459
sS'PartOfSpeech'
p6817
g459
sS'CharacterOffsetBegin'
p6818
S'1799'
p6819
stp6820
asa(dp6821
g7
S'(ROOT (S (NP (JJ First) (NN lady) (NNP Hillary) (NNP Rodham) (NNP Clinton)) (VP (VBD added) (NP (NNP Nicaragua) (CC and) (NNP Honduras)) (PP (TO to) (NP (NP (DT a) (NN trip)) (SBAR (S (NP (PRP she)) (VP (VBZ plans) (PP (TO to) (NP (NP (DT the) (NN region)) (VP (VBG beginning) (NP-TMP (NNP Nov) (CD 16))))))))))) (. .)))'
p6822
sg9
S'First lady Hillary Rodham Clinton added Nicaragua and Honduras to a trip she plans to the region beginning Nov 16.'
p6823
sg11
(lp6824
(S'root'
p6825
S'ROOT'
p6826
S'added'
p6827
tp6828
a(S'amod'
p6829
S'Clinton'
p6830
S'First'
p6831
tp6832
a(S'nn'
p6833
S'Clinton'
p6834
S'lady'
p6835
tp6836
a(S'nn'
p6837
S'Clinton'
p6838
S'Hillary'
p6839
tp6840
a(S'nn'
p6841
S'Clinton'
p6842
S'Rodham'
p6843
tp6844
a(S'nsubj'
p6845
S'added'
p6846
S'Clinton'
p6847
tp6848
a(S'dobj'
p6849
S'added'
p6850
S'Nicaragua'
p6851
tp6852
a(S'conj_and'
p6853
S'Nicaragua'
p6854
S'Honduras'
p6855
tp6856
a(S'det'
p6857
S'trip'
p6858
g1846
tp6859
a(S'prep_to'
p6860
S'added'
p6861
S'trip'
p6862
tp6863
a(S'nsubj'
p6864
S'plans'
p6865
S'she'
p6866
tp6867
a(S'rcmod'
p6868
S'trip'
p6869
S'plans'
p6870
tp6871
a(S'det'
p6872
S'region'
p6873
S'the'
p6874
tp6875
a(S'prep_to'
p6876
S'plans'
p6877
S'region'
p6878
tp6879
a(S'partmod'
p6880
S'region'
p6881
S'beginning'
p6882
tp6883
a(S'tmod'
p6884
S'beginning'
p6885
S'Nov'
p6886
tp6887
a(S'num'
p6888
S'Nov'
p6889
S'16'
p6890
tp6891
asg45
(lp6892
(g6825
S'ROOT-0'
p6893
S'added-6'
p6894
tp6895
a(g6829
S'Clinton-5'
p6896
S'First-1'
p6897
tp6898
a(g6833
S'Clinton-5'
p6899
S'lady-2'
p6900
tp6901
a(g6837
S'Clinton-5'
p6902
S'Hillary-3'
p6903
tp6904
a(g6841
S'Clinton-5'
p6905
S'Rodham-4'
p6906
tp6907
a(g6845
S'added-6'
p6908
S'Clinton-5'
p6909
tp6910
a(g6849
S'added-6'
p6911
S'Nicaragua-7'
p6912
tp6913
a(g6853
S'Nicaragua-7'
p6914
S'Honduras-9'
p6915
tp6916
a(g6857
S'trip-12'
p6917
S'a-11'
p6918
tp6919
a(g6860
S'added-6'
p6920
S'trip-12'
p6921
tp6922
a(g6864
S'plans-14'
p6923
S'she-13'
p6924
tp6925
a(g6868
S'trip-12'
p6926
S'plans-14'
p6927
tp6928
a(g6872
S'region-17'
p6929
S'the-16'
p6930
tp6931
a(g6876
S'plans-14'
p6932
S'region-17'
p6933
tp6934
a(g6880
S'region-17'
p6935
S'beginning-18'
p6936
tp6937
a(g6884
S'beginning-18'
p6938
S'Nov-19'
p6939
tp6940
a(g6888
S'Nov-19'
p6941
S'16-20'
p6942
tp6943
asg71
(lp6944
(S'First'
p6945
(dp6946
S'NormalizedNamedEntityTag'
p6947
S'1.0'
p6948
sS'Lemma'
p6949
S'first'
p6950
sS'CharacterOffsetEnd'
p6951
S'1806'
p6952
sS'PartOfSpeech'
p6953
S'JJ'
p6954
sS'CharacterOffsetBegin'
p6955
S'1801'
p6956
sS'NamedEntityTag'
p6957
S'ORDINAL'
p6958
stp6959
a(S'lady'
p6960
(dp6961
S'NamedEntityTag'
p6962
g76
sS'CharacterOffsetEnd'
p6963
S'1811'
p6964
sS'Lemma'
p6965
S'lady'
p6966
sS'PartOfSpeech'
p6967
S'NN'
p6968
sS'CharacterOffsetBegin'
p6969
S'1807'
p6970
stp6971
a(S'Hillary'
p6972
(dp6973
S'NamedEntityTag'
p6974
S'PERSON'
p6975
sS'CharacterOffsetEnd'
p6976
S'1819'
p6977
sS'Lemma'
p6978
S'Hillary'
p6979
sS'PartOfSpeech'
p6980
S'NNP'
p6981
sS'CharacterOffsetBegin'
p6982
S'1812'
p6983
stp6984
a(S'Rodham'
p6985
(dp6986
S'NamedEntityTag'
p6987
S'PERSON'
p6988
sS'CharacterOffsetEnd'
p6989
S'1826'
p6990
sS'Lemma'
p6991
S'Rodham'
p6992
sS'PartOfSpeech'
p6993
S'NNP'
p6994
sS'CharacterOffsetBegin'
p6995
S'1820'
p6996
stp6997
a(S'Clinton'
p6998
(dp6999
S'NamedEntityTag'
p7000
S'PERSON'
p7001
sS'CharacterOffsetEnd'
p7002
S'1834'
p7003
sS'Lemma'
p7004
S'Clinton'
p7005
sS'PartOfSpeech'
p7006
S'NNP'
p7007
sS'CharacterOffsetBegin'
p7008
S'1827'
p7009
stp7010
a(S'added'
p7011
(dp7012
S'NamedEntityTag'
p7013
g76
sS'CharacterOffsetEnd'
p7014
S'1840'
p7015
sS'Lemma'
p7016
S'add'
p7017
sS'PartOfSpeech'
p7018
S'VBD'
p7019
sS'CharacterOffsetBegin'
p7020
S'1835'
p7021
stp7022
a(S'Nicaragua'
p7023
(dp7024
S'NamedEntityTag'
p7025
S'LOCATION'
p7026
sS'CharacterOffsetEnd'
p7027
S'1850'
p7028
sS'Lemma'
p7029
S'Nicaragua'
p7030
sS'PartOfSpeech'
p7031
S'NNP'
p7032
sS'CharacterOffsetBegin'
p7033
S'1841'
p7034
stp7035
a(S'and'
p7036
(dp7037
S'NamedEntityTag'
p7038
g76
sS'CharacterOffsetEnd'
p7039
S'1854'
p7040
sS'Lemma'
p7041
S'and'
p7042
sS'PartOfSpeech'
p7043
S'CC'
p7044
sS'CharacterOffsetBegin'
p7045
S'1851'
p7046
stp7047
a(S'Honduras'
p7048
(dp7049
S'NamedEntityTag'
p7050
S'LOCATION'
p7051
sS'CharacterOffsetEnd'
p7052
S'1863'
p7053
sS'Lemma'
p7054
S'Honduras'
p7055
sS'PartOfSpeech'
p7056
S'NNP'
p7057
sS'CharacterOffsetBegin'
p7058
S'1855'
p7059
stp7060
a(S'to'
p7061
(dp7062
S'NamedEntityTag'
p7063
g76
sS'CharacterOffsetEnd'
p7064
S'1866'
p7065
sS'Lemma'
p7066
S'to'
p7067
sS'PartOfSpeech'
p7068
S'TO'
p7069
sS'CharacterOffsetBegin'
p7070
S'1864'
p7071
stp7072
a(g1846
(dp7073
S'NamedEntityTag'
p7074
g76
sS'CharacterOffsetEnd'
p7075
S'1868'
p7076
sS'Lemma'
p7077
g1846
sS'PartOfSpeech'
p7078
S'DT'
p7079
sS'CharacterOffsetBegin'
p7080
S'1867'
p7081
stp7082
a(S'trip'
p7083
(dp7084
S'NamedEntityTag'
p7085
g76
sS'CharacterOffsetEnd'
p7086
S'1873'
p7087
sS'Lemma'
p7088
S'trip'
p7089
sS'PartOfSpeech'
p7090
S'NN'
p7091
sS'CharacterOffsetBegin'
p7092
S'1869'
p7093
stp7094
a(S'she'
p7095
(dp7096
S'NamedEntityTag'
p7097
g76
sS'CharacterOffsetEnd'
p7098
S'1877'
p7099
sS'Lemma'
p7100
S'she'
p7101
sS'PartOfSpeech'
p7102
S'PRP'
p7103
sS'CharacterOffsetBegin'
p7104
S'1874'
p7105
stp7106
a(S'plans'
p7107
(dp7108
S'NamedEntityTag'
p7109
g76
sS'CharacterOffsetEnd'
p7110
S'1883'
p7111
sS'Lemma'
p7112
S'plan'
p7113
sS'PartOfSpeech'
p7114
S'VBZ'
p7115
sS'CharacterOffsetBegin'
p7116
S'1878'
p7117
stp7118
a(S'to'
p7119
(dp7120
S'NamedEntityTag'
p7121
g76
sS'CharacterOffsetEnd'
p7122
S'1886'
p7123
sS'Lemma'
p7124
S'to'
p7125
sS'PartOfSpeech'
p7126
S'TO'
p7127
sS'CharacterOffsetBegin'
p7128
S'1884'
p7129
stp7130
a(S'the'
p7131
(dp7132
S'NamedEntityTag'
p7133
g76
sS'CharacterOffsetEnd'
p7134
S'1890'
p7135
sS'Lemma'
p7136
S'the'
p7137
sS'PartOfSpeech'
p7138
S'DT'
p7139
sS'CharacterOffsetBegin'
p7140
S'1887'
p7141
stp7142
a(S'region'
p7143
(dp7144
S'NamedEntityTag'
p7145
g76
sS'CharacterOffsetEnd'
p7146
S'1897'
p7147
sS'Lemma'
p7148
S'region'
p7149
sS'PartOfSpeech'
p7150
S'NN'
p7151
sS'CharacterOffsetBegin'
p7152
S'1891'
p7153
stp7154
a(S'beginning'
p7155
(dp7156
S'NormalizedNamedEntityTag'
p7157
S'XXXX-11-16'
p7158
sS'Timex'
p7159
S'<TIMEX3 mod="EARLY" tid="t8" type="DATE" value="XXXX-11-16">beginning Nov 16</TIMEX3>'
p7160
sS'Lemma'
p7161
S'begin'
p7162
sS'CharacterOffsetEnd'
p7163
S'1907'
p7164
sS'PartOfSpeech'
p7165
S'VBG'
p7166
sS'CharacterOffsetBegin'
p7167
S'1898'
p7168
sS'NamedEntityTag'
p7169
S'DATE'
p7170
stp7171
a(S'Nov'
p7172
(dp7173
S'NormalizedNamedEntityTag'
p7174
S'XXXX-11-16'
p7175
sS'Timex'
p7176
S'<TIMEX3 mod="EARLY" tid="t8" type="DATE" value="XXXX-11-16">beginning Nov 16</TIMEX3>'
p7177
sS'Lemma'
p7178
S'Nov'
p7179
sS'CharacterOffsetEnd'
p7180
S'1911'
p7181
sS'PartOfSpeech'
p7182
S'NNP'
p7183
sS'CharacterOffsetBegin'
p7184
S'1908'
p7185
sS'NamedEntityTag'
p7186
S'DATE'
p7187
stp7188
a(S'16'
p7189
(dp7190
S'NormalizedNamedEntityTag'
p7191
S'XXXX-11-16'
p7192
sS'Timex'
p7193
S'<TIMEX3 mod="EARLY" tid="t8" type="DATE" value="XXXX-11-16">beginning Nov 16</TIMEX3>'
p7194
sS'Lemma'
p7195
S'16'
p7196
sS'CharacterOffsetEnd'
p7197
S'1914'
p7198
sS'PartOfSpeech'
p7199
S'CD'
p7200
sS'CharacterOffsetBegin'
p7201
S'1912'
p7202
sS'NamedEntityTag'
p7203
S'DATE'
p7204
stp7205
a(g459
(dp7206
S'NamedEntityTag'
p7207
g76
sS'CharacterOffsetEnd'
p7208
S'1915'
p7209
sS'Lemma'
p7210
g459
sS'PartOfSpeech'
p7211
g459
sS'CharacterOffsetBegin'
p7212
S'1914'
p7213
stp7214
asa(dp7215
g7
S'(ROOT (S (NP (NNP Taiwan)) (VP (VBD said) (NP-TMP (NN today)) (SBAR (S (NP (PRP it)) (VP (MD will) (VP (VB donate) (NP (NNS dlrs)) (PP (NP (QP (CD 2.6) (CD million))) (IN in) (NP (NN relief))) (PP (TO to) (NP (NNP Honduras) (, ,) (NNP Nicaragua) (, ,) (NNP El) (NNP Salvador) (CC and) (NNP Guatemala)))))))) (. .)))'
p7216
sg9
S'Taiwan said today it will donate dlrs 2.6 million in relief to Honduras, Nicaragua, El Salvador and Guatemala.'
p7217
sg11
(lp7218
(S'root'
p7219
S'ROOT'
p7220
S'said'
p7221
tp7222
a(S'nsubj'
p7223
S'said'
p7224
S'Taiwan'
p7225
tp7226
a(S'tmod'
p7227
S'said'
p7228
S'today'
p7229
tp7230
a(S'nsubj'
p7231
S'donate'
p7232
S'it'
p7233
tp7234
a(S'aux'
p7235
S'donate'
p7236
S'will'
p7237
tp7238
a(S'ccomp'
p7239
S'said'
p7240
S'donate'
p7241
tp7242
a(S'dobj'
p7243
S'donate'
p7244
S'dlrs'
p7245
tp7246
a(S'number'
p7247
S'million'
p7248
S'2.6'
p7249
tp7250
a(S'npadvmod'
p7251
S'donate'
p7252
S'million'
p7253
tp7254
a(S'prep_in'
p7255
S'donate'
p7256
S'relief'
p7257
tp7258
a(S'nn'
p7259
S'Salvador'
p7260
S'Honduras'
p7261
tp7262
a(S'conj_and'
p7263
S'Salvador'
p7264
S'Nicaragua'
p7265
tp7266
a(S'conj_and'
p7267
S'Salvador'
p7268
S'El'
p7269
tp7270
a(S'prep_to'
p7271
S'donate'
p7272
S'Salvador'
p7273
tp7274
a(S'conj_and'
p7275
S'Salvador'
p7276
S'Guatemala'
p7277
tp7278
asg45
(lp7279
(g7219
S'ROOT-0'
p7280
S'said-2'
p7281
tp7282
a(g7223
S'said-2'
p7283
S'Taiwan-1'
p7284
tp7285
a(g7227
S'said-2'
p7286
S'today-3'
p7287
tp7288
a(g7231
S'donate-6'
p7289
S'it-4'
p7290
tp7291
a(g7235
S'donate-6'
p7292
S'will-5'
p7293
tp7294
a(g7239
S'said-2'
p7295
S'donate-6'
p7296
tp7297
a(g7243
S'donate-6'
p7298
S'dlrs-7'
p7299
tp7300
a(g7247
S'million-9'
p7301
S'2.6-8'
p7302
tp7303
a(g7251
S'donate-6'
p7304
S'million-9'
p7305
tp7306
a(g7255
S'donate-6'
p7307
S'relief-11'
p7308
tp7309
a(g7259
S'Salvador-18'
p7310
S'Honduras-13'
p7311
tp7312
a(g7263
S'Salvador-18'
p7313
S'Nicaragua-15'
p7314
tp7315
a(g7267
S'Salvador-18'
p7316
S'El-17'
p7317
tp7318
a(g7271
S'donate-6'
p7319
S'Salvador-18'
p7320
tp7321
a(g7275
S'Salvador-18'
p7322
S'Guatemala-20'
p7323
tp7324
asg71
(lp7325
(S'Taiwan'
p7326
(dp7327
S'NamedEntityTag'
p7328
S'LOCATION'
p7329
sS'CharacterOffsetEnd'
p7330
S'1922'
p7331
sS'Lemma'
p7332
S'Taiwan'
p7333
sS'PartOfSpeech'
p7334
S'NNP'
p7335
sS'CharacterOffsetBegin'
p7336
S'1916'
p7337
stp7338
a(S'said'
p7339
(dp7340
S'NamedEntityTag'
p7341
g76
sS'CharacterOffsetEnd'
p7342
S'1927'
p7343
sS'Lemma'
p7344
S'say'
p7345
sS'PartOfSpeech'
p7346
S'VBD'
p7347
sS'CharacterOffsetBegin'
p7348
S'1923'
p7349
stp7350
a(S'today'
p7351
(dp7352
S'NormalizedNamedEntityTag'
p7353
S'THIS'
p7354
sS'Timex'
p7355
S'<TIMEX3 alt_value="THIS P1D" anchorTimeID="t0" temporalFunction="true" tid="t9" type="DATE" valueFromFunction="tf1">today</TIMEX3>'
p7356
sS'Lemma'
p7357
S'today'
p7358
sS'CharacterOffsetEnd'
p7359
S'1933'
p7360
sS'PartOfSpeech'
p7361
S'NN'
p7362
sS'CharacterOffsetBegin'
p7363
S'1928'
p7364
sS'NamedEntityTag'
p7365
S'DATE'
p7366
stp7367
a(S'it'
p7368
(dp7369
S'NamedEntityTag'
p7370
g76
sS'CharacterOffsetEnd'
p7371
S'1936'
p7372
sS'Lemma'
p7373
S'it'
p7374
sS'PartOfSpeech'
p7375
S'PRP'
p7376
sS'CharacterOffsetBegin'
p7377
S'1934'
p7378
stp7379
a(S'will'
p7380
(dp7381
S'NamedEntityTag'
p7382
g76
sS'CharacterOffsetEnd'
p7383
S'1941'
p7384
sS'Lemma'
p7385
S'will'
p7386
sS'PartOfSpeech'
p7387
S'MD'
p7388
sS'CharacterOffsetBegin'
p7389
S'1937'
p7390
stp7391
a(S'donate'
p7392
(dp7393
S'NamedEntityTag'
p7394
g76
sS'CharacterOffsetEnd'
p7395
S'1948'
p7396
sS'Lemma'
p7397
S'donate'
p7398
sS'PartOfSpeech'
p7399
S'VB'
p7400
sS'CharacterOffsetBegin'
p7401
S'1942'
p7402
stp7403
a(S'dlrs'
p7404
(dp7405
S'NamedEntityTag'
p7406
g76
sS'CharacterOffsetEnd'
p7407
S'1953'
p7408
sS'Lemma'
p7409
S'dlr'
p7410
sS'PartOfSpeech'
p7411
S'NNS'
p7412
sS'CharacterOffsetBegin'
p7413
S'1949'
p7414
stp7415
a(S'2.6'
p7416
(dp7417
S'NormalizedNamedEntityTag'
p7418
S'2600000.0'
p7419
sS'Lemma'
p7420
S'2.6'
p7421
sS'CharacterOffsetEnd'
p7422
S'1957'
p7423
sS'PartOfSpeech'
p7424
S'CD'
p7425
sS'CharacterOffsetBegin'
p7426
S'1954'
p7427
sS'NamedEntityTag'
p7428
S'NUMBER'
p7429
stp7430
a(S'million'
p7431
(dp7432
S'NormalizedNamedEntityTag'
p7433
S'2600000.0'
p7434
sS'Lemma'
p7435
S'million'
p7436
sS'CharacterOffsetEnd'
p7437
S'1965'
p7438
sS'PartOfSpeech'
p7439
S'CD'
p7440
sS'CharacterOffsetBegin'
p7441
S'1958'
p7442
sS'NamedEntityTag'
p7443
S'NUMBER'
p7444
stp7445
a(S'in'
p7446
(dp7447
S'NamedEntityTag'
p7448
g76
sS'CharacterOffsetEnd'
p7449
S'1968'
p7450
sS'Lemma'
p7451
S'in'
p7452
sS'PartOfSpeech'
p7453
S'IN'
p7454
sS'CharacterOffsetBegin'
p7455
S'1966'
p7456
stp7457
a(S'relief'
p7458
(dp7459
S'NamedEntityTag'
p7460
g76
sS'CharacterOffsetEnd'
p7461
S'1975'
p7462
sS'Lemma'
p7463
S'relief'
p7464
sS'PartOfSpeech'
p7465
S'NN'
p7466
sS'CharacterOffsetBegin'
p7467
S'1969'
p7468
stp7469
a(S'to'
p7470
(dp7471
S'NamedEntityTag'
p7472
g76
sS'CharacterOffsetEnd'
p7473
S'1978'
p7474
sS'Lemma'
p7475
S'to'
p7476
sS'PartOfSpeech'
p7477
S'TO'
p7478
sS'CharacterOffsetBegin'
p7479
S'1976'
p7480
stp7481
a(S'Honduras'
p7482
(dp7483
S'NamedEntityTag'
p7484
S'LOCATION'
p7485
sS'CharacterOffsetEnd'
p7486
S'1987'
p7487
sS'Lemma'
p7488
S'Honduras'
p7489
sS'PartOfSpeech'
p7490
S'NNP'
p7491
sS'CharacterOffsetBegin'
p7492
S'1979'
p7493
stp7494
a(g135
(dp7495
S'NamedEntityTag'
p7496
g76
sS'CharacterOffsetEnd'
p7497
S'1988'
p7498
sS'Lemma'
p7499
g135
sS'PartOfSpeech'
p7500
g135
sS'CharacterOffsetBegin'
p7501
S'1987'
p7502
stp7503
a(S'Nicaragua'
p7504
(dp7505
S'NamedEntityTag'
p7506
S'LOCATION'
p7507
sS'CharacterOffsetEnd'
p7508
S'1998'
p7509
sS'Lemma'
p7510
S'Nicaragua'
p7511
sS'PartOfSpeech'
p7512
S'NNP'
p7513
sS'CharacterOffsetBegin'
p7514
S'1989'
p7515
stp7516
a(g135
(dp7517
S'NamedEntityTag'
p7518
g76
sS'CharacterOffsetEnd'
p7519
S'1999'
p7520
sS'Lemma'
p7521
g135
sS'PartOfSpeech'
p7522
g135
sS'CharacterOffsetBegin'
p7523
S'1998'
p7524
stp7525
a(S'El'
p7526
(dp7527
S'NamedEntityTag'
p7528
S'LOCATION'
p7529
sS'CharacterOffsetEnd'
p7530
S'2002'
p7531
sS'Lemma'
p7532
S'El'
p7533
sS'PartOfSpeech'
p7534
S'NNP'
p7535
sS'CharacterOffsetBegin'
p7536
S'2000'
p7537
stp7538
a(S'Salvador'
p7539
(dp7540
S'NamedEntityTag'
p7541
S'LOCATION'
p7542
sS'CharacterOffsetEnd'
p7543
S'2011'
p7544
sS'Lemma'
p7545
S'Salvador'
p7546
sS'PartOfSpeech'
p7547
S'NNP'
p7548
sS'CharacterOffsetBegin'
p7549
S'2003'
p7550
stp7551
a(S'and'
p7552
(dp7553
S'NamedEntityTag'
p7554
g76
sS'CharacterOffsetEnd'
p7555
S'2015'
p7556
sS'Lemma'
p7557
S'and'
p7558
sS'PartOfSpeech'
p7559
S'CC'
p7560
sS'CharacterOffsetBegin'
p7561
S'2012'
p7562
stp7563
a(S'Guatemala'
p7564
(dp7565
S'NamedEntityTag'
p7566
S'LOCATION'
p7567
sS'CharacterOffsetEnd'
p7568
S'2025'
p7569
sS'Lemma'
p7570
S'Guatemala'
p7571
sS'PartOfSpeech'
p7572
S'NNP'
p7573
sS'CharacterOffsetBegin'
p7574
S'2016'
p7575
stp7576
a(g459
(dp7577
S'NamedEntityTag'
p7578
g76
sS'CharacterOffsetEnd'
p7579
S'2026'
p7580
sS'Lemma'
p7581
g459
sS'PartOfSpeech'
p7582
g459
sS'CharacterOffsetBegin'
p7583
S'2025'
p7584
stp7585
asa(dp7586
g7
S'(ROOT (S (NP (DT The) (CD four) (NNS countries)) (VP (VBP are) (PP (IN among) (NP (NP (DT a) (VBG dwindling) (NN number)) (PP (IN of) (NP (NP (NNS nations)) (SBAR (WHNP (WDT that)) (S (VP (VBP recognize) (NP (NP (NNP Taiwan)) (, ,) (SBAR (WHNP (WDT which)) (S (NP (NNP China) (NNS claims)) (VP (VBZ is) (NP (DT a) (JJ breakaway) (NN province)))))))))))))) (. .)))'
p7587
sg9
S'The four countries are among a dwindling number of nations that recognize Taiwan, which China claims is a breakaway province.'
p7588
sg11
(lp7589
(S'root'
p7590
S'ROOT'
p7591
S'are'
p7592
tp7593
a(S'det'
p7594
S'countries'
p7595
S'The'
p7596
tp7597
a(S'num'
p7598
S'countries'
p7599
S'four'
p7600
tp7601
a(S'nsubj'
p7602
S'are'
p7603
S'countries'
p7604
tp7605
a(S'det'
p7606
S'number'
p7607
g1846
tp7608
a(S'amod'
p7609
S'number'
p7610
S'dwindling'
p7611
tp7612
a(S'prep_among'
p7613
S'are'
p7614
S'number'
p7615
tp7616
a(S'prep_of'
p7617
S'number'
p7618
S'nations'
p7619
tp7620
a(S'nsubj'
p7621
S'recognize'
p7622
S'that'
p7623
tp7624
a(S'rcmod'
p7625
S'nations'
p7626
S'recognize'
p7627
tp7628
a(S'dobj'
p7629
S'recognize'
p7630
S'Taiwan'
p7631
tp7632
a(S'dobj'
p7633
S'province'
p7634
S'which'
p7635
tp7636
a(S'nn'
p7637
S'claims'
p7638
S'China'
p7639
tp7640
a(S'nsubj'
p7641
S'province'
p7642
S'claims'
p7643
tp7644
a(S'cop'
p7645
S'province'
p7646
S'is'
p7647
tp7648
a(S'det'
p7649
S'province'
p7650
g1846
tp7651
a(S'amod'
p7652
S'province'
p7653
S'breakaway'
p7654
tp7655
a(S'rcmod'
p7656
S'Taiwan'
p7657
S'province'
p7658
tp7659
asg45
(lp7660
(g7590
S'ROOT-0'
p7661
S'are-4'
p7662
tp7663
a(g7594
S'countries-3'
p7664
S'The-1'
p7665
tp7666
a(g7598
S'countries-3'
p7667
S'four-2'
p7668
tp7669
a(g7602
S'are-4'
p7670
S'countries-3'
p7671
tp7672
a(g7606
S'number-8'
p7673
S'a-6'
p7674
tp7675
a(g7609
S'number-8'
p7676
S'dwindling-7'
p7677
tp7678
a(g7613
S'are-4'
p7679
S'number-8'
p7680
tp7681
a(g7617
S'number-8'
p7682
S'nations-10'
p7683
tp7684
a(g7621
S'recognize-12'
p7685
S'that-11'
p7686
tp7687
a(g7625
S'nations-10'
p7688
S'recognize-12'
p7689
tp7690
a(g7629
S'recognize-12'
p7691
S'Taiwan-13'
p7692
tp7693
a(g7633
S'province-21'
p7694
S'which-15'
p7695
tp7696
a(g7637
S'claims-17'
p7697
S'China-16'
p7698
tp7699
a(g7641
S'province-21'
p7700
S'claims-17'
p7701
tp7702
a(g7645
S'province-21'
p7703
S'is-18'
p7704
tp7705
a(g7649
S'province-21'
p7706
S'a-19'
p7707
tp7708
a(g7652
S'province-21'
p7709
S'breakaway-20'
p7710
tp7711
a(g7656
S'Taiwan-13'
p7712
S'province-21'
p7713
tp7714
asg71
(lp7715
(S'The'
p7716
(dp7717
S'NamedEntityTag'
p7718
g76
sS'CharacterOffsetEnd'
p7719
S'2030'
p7720
sS'Lemma'
p7721
S'the'
p7722
sS'PartOfSpeech'
p7723
S'DT'
p7724
sS'CharacterOffsetBegin'
p7725
S'2027'
p7726
stp7727
a(S'four'
p7728
(dp7729
S'NormalizedNamedEntityTag'
p7730
S'4.0'
p7731
sS'Lemma'
p7732
S'four'
p7733
sS'CharacterOffsetEnd'
p7734
S'2035'
p7735
sS'PartOfSpeech'
p7736
S'CD'
p7737
sS'CharacterOffsetBegin'
p7738
S'2031'
p7739
sS'NamedEntityTag'
p7740
S'NUMBER'
p7741
stp7742
a(S'countries'
p7743
(dp7744
S'NamedEntityTag'
p7745
g76
sS'CharacterOffsetEnd'
p7746
S'2045'
p7747
sS'Lemma'
p7748
S'country'
p7749
sS'PartOfSpeech'
p7750
S'NNS'
p7751
sS'CharacterOffsetBegin'
p7752
S'2036'
p7753
stp7754
a(S'are'
p7755
(dp7756
S'NamedEntityTag'
p7757
g76
sS'CharacterOffsetEnd'
p7758
S'2049'
p7759
sS'Lemma'
p7760
S'be'
p7761
sS'PartOfSpeech'
p7762
S'VBP'
p7763
sS'CharacterOffsetBegin'
p7764
S'2046'
p7765
stp7766
a(S'among'
p7767
(dp7768
S'NamedEntityTag'
p7769
g76
sS'CharacterOffsetEnd'
p7770
S'2055'
p7771
sS'Lemma'
p7772
S'among'
p7773
sS'PartOfSpeech'
p7774
S'IN'
p7775
sS'CharacterOffsetBegin'
p7776
S'2050'
p7777
stp7778
a(g1846
(dp7779
S'NamedEntityTag'
p7780
g76
sS'CharacterOffsetEnd'
p7781
S'2057'
p7782
sS'Lemma'
p7783
g1846
sS'PartOfSpeech'
p7784
S'DT'
p7785
sS'CharacterOffsetBegin'
p7786
S'2056'
p7787
stp7788
a(S'dwindling'
p7789
(dp7790
S'NamedEntityTag'
p7791
g76
sS'CharacterOffsetEnd'
p7792
S'2067'
p7793
sS'Lemma'
p7794
S'dwindle'
p7795
sS'PartOfSpeech'
p7796
S'VBG'
p7797
sS'CharacterOffsetBegin'
p7798
S'2058'
p7799
stp7800
a(S'number'
p7801
(dp7802
S'NamedEntityTag'
p7803
g76
sS'CharacterOffsetEnd'
p7804
S'2074'
p7805
sS'Lemma'
p7806
S'number'
p7807
sS'PartOfSpeech'
p7808
S'NN'
p7809
sS'CharacterOffsetBegin'
p7810
S'2068'
p7811
stp7812
a(S'of'
p7813
(dp7814
S'NamedEntityTag'
p7815
g76
sS'CharacterOffsetEnd'
p7816
S'2077'
p7817
sS'Lemma'
p7818
S'of'
p7819
sS'PartOfSpeech'
p7820
S'IN'
p7821
sS'CharacterOffsetBegin'
p7822
S'2075'
p7823
stp7824
a(S'nations'
p7825
(dp7826
S'NamedEntityTag'
p7827
g76
sS'CharacterOffsetEnd'
p7828
S'2085'
p7829
sS'Lemma'
p7830
S'nation'
p7831
sS'PartOfSpeech'
p7832
S'NNS'
p7833
sS'CharacterOffsetBegin'
p7834
S'2078'
p7835
stp7836
a(S'that'
p7837
(dp7838
S'NamedEntityTag'
p7839
g76
sS'CharacterOffsetEnd'
p7840
S'2090'
p7841
sS'Lemma'
p7842
S'that'
p7843
sS'PartOfSpeech'
p7844
S'WDT'
p7845
sS'CharacterOffsetBegin'
p7846
S'2086'
p7847
stp7848
a(S'recognize'
p7849
(dp7850
S'NamedEntityTag'
p7851
g76
sS'CharacterOffsetEnd'
p7852
S'2100'
p7853
sS'Lemma'
p7854
S'recognize'
p7855
sS'PartOfSpeech'
p7856
S'VBP'
p7857
sS'CharacterOffsetBegin'
p7858
S'2091'
p7859
stp7860
a(S'Taiwan'
p7861
(dp7862
S'NamedEntityTag'
p7863
S'LOCATION'
p7864
sS'CharacterOffsetEnd'
p7865
S'2107'
p7866
sS'Lemma'
p7867
S'Taiwan'
p7868
sS'PartOfSpeech'
p7869
S'NNP'
p7870
sS'CharacterOffsetBegin'
p7871
S'2101'
p7872
stp7873
a(g135
(dp7874
S'NamedEntityTag'
p7875
g76
sS'CharacterOffsetEnd'
p7876
S'2108'
p7877
sS'Lemma'
p7878
g135
sS'PartOfSpeech'
p7879
g135
sS'CharacterOffsetBegin'
p7880
S'2107'
p7881
stp7882
a(S'which'
p7883
(dp7884
S'NamedEntityTag'
p7885
g76
sS'CharacterOffsetEnd'
p7886
S'2114'
p7887
sS'Lemma'
p7888
S'which'
p7889
sS'PartOfSpeech'
p7890
S'WDT'
p7891
sS'CharacterOffsetBegin'
p7892
S'2109'
p7893
stp7894
a(S'China'
p7895
(dp7896
S'NamedEntityTag'
p7897
S'LOCATION'
p7898
sS'CharacterOffsetEnd'
p7899
S'2120'
p7900
sS'Lemma'
p7901
S'China'
p7902
sS'PartOfSpeech'
p7903
S'NNP'
p7904
sS'CharacterOffsetBegin'
p7905
S'2115'
p7906
stp7907
a(S'claims'
p7908
(dp7909
S'NamedEntityTag'
p7910
g76
sS'CharacterOffsetEnd'
p7911
S'2127'
p7912
sS'Lemma'
p7913
S'claim'
p7914
sS'PartOfSpeech'
p7915
S'NNS'
p7916
sS'CharacterOffsetBegin'
p7917
S'2121'
p7918
stp7919
a(S'is'
p7920
(dp7921
S'NamedEntityTag'
p7922
g76
sS'CharacterOffsetEnd'
p7923
S'2130'
p7924
sS'Lemma'
p7925
S'be'
p7926
sS'PartOfSpeech'
p7927
S'VBZ'
p7928
sS'CharacterOffsetBegin'
p7929
S'2128'
p7930
stp7931
a(g1846
(dp7932
S'NamedEntityTag'
p7933
g76
sS'CharacterOffsetEnd'
p7934
S'2132'
p7935
sS'Lemma'
p7936
g1846
sS'PartOfSpeech'
p7937
S'DT'
p7938
sS'CharacterOffsetBegin'
p7939
S'2131'
p7940
stp7941
a(S'breakaway'
p7942
(dp7943
S'NamedEntityTag'
p7944
g76
sS'CharacterOffsetEnd'
p7945
S'2142'
p7946
sS'Lemma'
p7947
S'breakaway'
p7948
sS'PartOfSpeech'
p7949
S'JJ'
p7950
sS'CharacterOffsetBegin'
p7951
S'2133'
p7952
stp7953
a(S'province'
p7954
(dp7955
S'NamedEntityTag'
p7956
g76
sS'CharacterOffsetEnd'
p7957
S'2151'
p7958
sS'Lemma'
p7959
S'province'
p7960
sS'PartOfSpeech'
p7961
S'NN'
p7962
sS'CharacterOffsetBegin'
p7963
S'2143'
p7964
stp7965
a(g459
(dp7966
S'NamedEntityTag'
p7967
g76
sS'CharacterOffsetEnd'
p7968
S'2152'
p7969
sS'Lemma'
p7970
g459
sS'PartOfSpeech'
p7971
g459
sS'CharacterOffsetBegin'
p7972
S'2151'
p7973
stp7974
asa(dp7975
g7
S'(ROOT (S (S (NP (NP (CD Two) (JJ British) (NNS ships)) (SBAR (WHNP (WDT that)) (S (VP (VBD were) (PP (IN in) (NP (NP (DT the) (NN area)) (PP (IN on) (NP (DT an) (NN exercise))))))))) (VP (VBD were) (PP (IN on) (NP (PRP$ their) (NN way))) (PP (TO to) (NP (NNP Honduras))) (S (VP (TO to) (VP (VB join) (NP (NN relief) (NNS efforts))))))) (, ,) (NP (DT the) (NNP Defense) (NNP Ministry)) (VP (VBD said) (NP-TMP (NNP Friday))) (. .)))'
p7976
sg9
S'Two British ships that were in the area on an exercise were on their way to Honduras to join relief efforts, the Defense Ministry said Friday.'
p7977
sg11
(lp7978
(S'root'
p7979
S'ROOT'
p7980
S'said'
p7981
tp7982
a(S'num'
p7983
S'ships'
p7984
S'Two'
p7985
tp7986
a(S'amod'
p7987
S'ships'
p7988
S'British'
p7989
tp7990
a(S'nsubj'
p7991
S'were'
p7992
S'ships'
p7993
tp7994
a(S'nsubj'
p7995
S'were'
p7996
S'that'
p7997
tp7998
a(S'rcmod'
p7999
S'ships'
p8000
S'were'
p8001
tp8002
a(S'det'
p8003
S'area'
p8004
S'the'
p8005
tp8006
a(S'prep_in'
p8007
S'were'
p8008
S'area'
p8009
tp8010
a(S'det'
p8011
S'exercise'
p8012
S'an'
p8013
tp8014
a(S'prep_on'
p8015
S'area'
p8016
S'exercise'
p8017
tp8018
a(S'ccomp'
p8019
S'said'
p8020
S'were'
p8021
tp8022
a(S'poss'
p8023
S'way'
p8024
S'their'
p8025
tp8026
a(S'prep_on'
p8027
S'were'
p8028
S'way'
p8029
tp8030
a(S'prep_to'
p8031
S'were'
p8032
S'Honduras'
p8033
tp8034
a(S'aux'
p8035
S'join'
p8036
S'to'
p8037
tp8038
a(S'xcomp'
p8039
S'were'
p8040
S'join'
p8041
tp8042
a(S'nn'
p8043
S'efforts'
p8044
S'relief'
p8045
tp8046
a(S'dobj'
p8047
S'join'
p8048
S'efforts'
p8049
tp8050
a(S'det'
p8051
S'Ministry'
p8052
S'the'
p8053
tp8054
a(S'nn'
p8055
S'Ministry'
p8056
S'Defense'
p8057
tp8058
a(S'nsubj'
p8059
S'said'
p8060
S'Ministry'
p8061
tp8062
a(S'tmod'
p8063
S'said'
p8064
S'Friday'
p8065
tp8066
asg45
(lp8067
(g7979
S'ROOT-0'
p8068
S'said-26'
p8069
tp8070
a(g7983
S'ships-3'
p8071
S'Two-1'
p8072
tp8073
a(g7987
S'ships-3'
p8074
S'British-2'
p8075
tp8076
a(g7991
S'were-12'
p8077
S'ships-3'
p8078
tp8079
a(g7995
S'were-5'
p8080
S'that-4'
p8081
tp8082
a(g7999
S'ships-3'
p8083
S'were-5'
p8084
tp8085
a(g8003
S'area-8'
p8086
S'the-7'
p8087
tp8088
a(g8007
S'were-5'
p8089
S'area-8'
p8090
tp8091
a(g8011
S'exercise-11'
p8092
S'an-10'
p8093
tp8094
a(g8015
S'area-8'
p8095
S'exercise-11'
p8096
tp8097
a(g8019
S'said-26'
p8098
S'were-12'
p8099
tp8100
a(g8023
S'way-15'
p8101
S'their-14'
p8102
tp8103
a(g8027
S'were-12'
p8104
S'way-15'
p8105
tp8106
a(g8031
S'were-12'
p8107
S'Honduras-17'
p8108
tp8109
a(g8035
S'join-19'
p8110
S'to-18'
p8111
tp8112
a(g8039
S'were-12'
p8113
S'join-19'
p8114
tp8115
a(g8043
S'efforts-21'
p8116
S'relief-20'
p8117
tp8118
a(g8047
S'join-19'
p8119
S'efforts-21'
p8120
tp8121
a(g8051
S'Ministry-25'
p8122
S'the-23'
p8123
tp8124
a(g8055
S'Ministry-25'
p8125
S'Defense-24'
p8126
tp8127
a(g8059
S'said-26'
p8128
S'Ministry-25'
p8129
tp8130
a(g8063
S'said-26'
p8131
S'Friday-27'
p8132
tp8133
asg71
(lp8134
(S'Two'
p8135
(dp8136
S'NormalizedNamedEntityTag'
p8137
S'2.0'
p8138
sS'Lemma'
p8139
S'two'
p8140
sS'CharacterOffsetEnd'
p8141
S'2156'
p8142
sS'PartOfSpeech'
p8143
S'CD'
p8144
sS'CharacterOffsetBegin'
p8145
S'2153'
p8146
sS'NamedEntityTag'
p8147
S'NUMBER'
p8148
stp8149
a(S'British'
p8150
(dp8151
S'NamedEntityTag'
p8152
S'MISC'
p8153
sS'CharacterOffsetEnd'
p8154
S'2164'
p8155
sS'Lemma'
p8156
S'british'
p8157
sS'PartOfSpeech'
p8158
S'JJ'
p8159
sS'CharacterOffsetBegin'
p8160
S'2157'
p8161
stp8162
a(S'ships'
p8163
(dp8164
S'NamedEntityTag'
p8165
g76
sS'CharacterOffsetEnd'
p8166
S'2170'
p8167
sS'Lemma'
p8168
S'ship'
p8169
sS'PartOfSpeech'
p8170
S'NNS'
p8171
sS'CharacterOffsetBegin'
p8172
S'2165'
p8173
stp8174
a(S'that'
p8175
(dp8176
S'NamedEntityTag'
p8177
g76
sS'CharacterOffsetEnd'
p8178
S'2175'
p8179
sS'Lemma'
p8180
S'that'
p8181
sS'PartOfSpeech'
p8182
S'WDT'
p8183
sS'CharacterOffsetBegin'
p8184
S'2171'
p8185
stp8186
a(S'were'
p8187
(dp8188
S'NamedEntityTag'
p8189
g76
sS'CharacterOffsetEnd'
p8190
S'2180'
p8191
sS'Lemma'
p8192
S'be'
p8193
sS'PartOfSpeech'
p8194
S'VBD'
p8195
sS'CharacterOffsetBegin'
p8196
S'2176'
p8197
stp8198
a(S'in'
p8199
(dp8200
S'NamedEntityTag'
p8201
g76
sS'CharacterOffsetEnd'
p8202
S'2183'
p8203
sS'Lemma'
p8204
S'in'
p8205
sS'PartOfSpeech'
p8206
S'IN'
p8207
sS'CharacterOffsetBegin'
p8208
S'2181'
p8209
stp8210
a(S'the'
p8211
(dp8212
S'NamedEntityTag'
p8213
g76
sS'CharacterOffsetEnd'
p8214
S'2187'
p8215
sS'Lemma'
p8216
S'the'
p8217
sS'PartOfSpeech'
p8218
S'DT'
p8219
sS'CharacterOffsetBegin'
p8220
S'2184'
p8221
stp8222
a(S'area'
p8223
(dp8224
S'NamedEntityTag'
p8225
g76
sS'CharacterOffsetEnd'
p8226
S'2192'
p8227
sS'Lemma'
p8228
S'area'
p8229
sS'PartOfSpeech'
p8230
S'NN'
p8231
sS'CharacterOffsetBegin'
p8232
S'2188'
p8233
stp8234
a(S'on'
p8235
(dp8236
S'NamedEntityTag'
p8237
g76
sS'CharacterOffsetEnd'
p8238
S'2195'
p8239
sS'Lemma'
p8240
S'on'
p8241
sS'PartOfSpeech'
p8242
S'IN'
p8243
sS'CharacterOffsetBegin'
p8244
S'2193'
p8245
stp8246
a(S'an'
p8247
(dp8248
S'NamedEntityTag'
p8249
g76
sS'CharacterOffsetEnd'
p8250
S'2198'
p8251
sS'Lemma'
p8252
g1846
sS'PartOfSpeech'
p8253
S'DT'
p8254
sS'CharacterOffsetBegin'
p8255
S'2196'
p8256
stp8257
a(S'exercise'
p8258
(dp8259
S'NamedEntityTag'
p8260
g76
sS'CharacterOffsetEnd'
p8261
S'2207'
p8262
sS'Lemma'
p8263
S'exercise'
p8264
sS'PartOfSpeech'
p8265
S'NN'
p8266
sS'CharacterOffsetBegin'
p8267
S'2199'
p8268
stp8269
a(S'were'
p8270
(dp8271
S'NamedEntityTag'
p8272
g76
sS'CharacterOffsetEnd'
p8273
S'2212'
p8274
sS'Lemma'
p8275
S'be'
p8276
sS'PartOfSpeech'
p8277
S'VBD'
p8278
sS'CharacterOffsetBegin'
p8279
S'2208'
p8280
stp8281
a(S'on'
p8282
(dp8283
S'NamedEntityTag'
p8284
g76
sS'CharacterOffsetEnd'
p8285
S'2215'
p8286
sS'Lemma'
p8287
S'on'
p8288
sS'PartOfSpeech'
p8289
S'IN'
p8290
sS'CharacterOffsetBegin'
p8291
S'2213'
p8292
stp8293
a(S'their'
p8294
(dp8295
S'NamedEntityTag'
p8296
g76
sS'CharacterOffsetEnd'
p8297
S'2221'
p8298
sS'Lemma'
p8299
S'they'
p8300
sS'PartOfSpeech'
p8301
S'PRP$'
p8302
sS'CharacterOffsetBegin'
p8303
S'2216'
p8304
stp8305
a(S'way'
p8306
(dp8307
S'NamedEntityTag'
p8308
g76
sS'CharacterOffsetEnd'
p8309
S'2225'
p8310
sS'Lemma'
p8311
S'way'
p8312
sS'PartOfSpeech'
p8313
S'NN'
p8314
sS'CharacterOffsetBegin'
p8315
S'2222'
p8316
stp8317
a(S'to'
p8318
(dp8319
S'NamedEntityTag'
p8320
g76
sS'CharacterOffsetEnd'
p8321
S'2228'
p8322
sS'Lemma'
p8323
S'to'
p8324
sS'PartOfSpeech'
p8325
S'TO'
p8326
sS'CharacterOffsetBegin'
p8327
S'2226'
p8328
stp8329
a(S'Honduras'
p8330
(dp8331
S'NamedEntityTag'
p8332
S'LOCATION'
p8333
sS'CharacterOffsetEnd'
p8334
S'2237'
p8335
sS'Lemma'
p8336
S'Honduras'
p8337
sS'PartOfSpeech'
p8338
S'NNP'
p8339
sS'CharacterOffsetBegin'
p8340
S'2229'
p8341
stp8342
a(S'to'
p8343
(dp8344
S'NamedEntityTag'
p8345
g76
sS'CharacterOffsetEnd'
p8346
S'2240'
p8347
sS'Lemma'
p8348
S'to'
p8349
sS'PartOfSpeech'
p8350
S'TO'
p8351
sS'CharacterOffsetBegin'
p8352
S'2238'
p8353
stp8354
a(S'join'
p8355
(dp8356
S'NamedEntityTag'
p8357
g76
sS'CharacterOffsetEnd'
p8358
S'2245'
p8359
sS'Lemma'
p8360
S'join'
p8361
sS'PartOfSpeech'
p8362
S'VB'
p8363
sS'CharacterOffsetBegin'
p8364
S'2241'
p8365
stp8366
a(S'relief'
p8367
(dp8368
S'NamedEntityTag'
p8369
g76
sS'CharacterOffsetEnd'
p8370
S'2252'
p8371
sS'Lemma'
p8372
S'relief'
p8373
sS'PartOfSpeech'
p8374
S'NN'
p8375
sS'CharacterOffsetBegin'
p8376
S'2246'
p8377
stp8378
a(S'efforts'
p8379
(dp8380
S'NamedEntityTag'
p8381
g76
sS'CharacterOffsetEnd'
p8382
S'2260'
p8383
sS'Lemma'
p8384
S'effort'
p8385
sS'PartOfSpeech'
p8386
S'NNS'
p8387
sS'CharacterOffsetBegin'
p8388
S'2253'
p8389
stp8390
a(g135
(dp8391
S'NamedEntityTag'
p8392
g76
sS'CharacterOffsetEnd'
p8393
S'2261'
p8394
sS'Lemma'
p8395
g135
sS'PartOfSpeech'
p8396
g135
sS'CharacterOffsetBegin'
p8397
S'2260'
p8398
stp8399
a(S'the'
p8400
(dp8401
S'NamedEntityTag'
p8402
g76
sS'CharacterOffsetEnd'
p8403
S'2265'
p8404
sS'Lemma'
p8405
S'the'
p8406
sS'PartOfSpeech'
p8407
S'DT'
p8408
sS'CharacterOffsetBegin'
p8409
S'2262'
p8410
stp8411
a(S'Defense'
p8412
(dp8413
S'NamedEntityTag'
p8414
S'ORGANIZATION'
p8415
sS'CharacterOffsetEnd'
p8416
S'2273'
p8417
sS'Lemma'
p8418
S'Defense'
p8419
sS'PartOfSpeech'
p8420
S'NNP'
p8421
sS'CharacterOffsetBegin'
p8422
S'2266'
p8423
stp8424
a(S'Ministry'
p8425
(dp8426
S'NamedEntityTag'
p8427
S'ORGANIZATION'
p8428
sS'CharacterOffsetEnd'
p8429
S'2282'
p8430
sS'Lemma'
p8431
S'Ministry'
p8432
sS'PartOfSpeech'
p8433
S'NNP'
p8434
sS'CharacterOffsetBegin'
p8435
S'2274'
p8436
stp8437
a(S'said'
p8438
(dp8439
S'NamedEntityTag'
p8440
g76
sS'CharacterOffsetEnd'
p8441
S'2287'
p8442
sS'Lemma'
p8443
S'say'
p8444
sS'PartOfSpeech'
p8445
S'VBD'
p8446
sS'CharacterOffsetBegin'
p8447
S'2283'
p8448
stp8449
a(S'Friday'
p8450
(dp8451
S'NormalizedNamedEntityTag'
p8452
S'XXXX-WXX-5'
p8453
sS'Timex'
p8454
S'<TIMEX3 tid="t1" type="DATE" value="XXXX-WXX-5">Friday</TIMEX3>'
p8455
sS'Lemma'
p8456
S'Friday'
p8457
sS'CharacterOffsetEnd'
p8458
S'2294'
p8459
sS'PartOfSpeech'
p8460
S'NNP'
p8461
sS'CharacterOffsetBegin'
p8462
S'2288'
p8463
sS'NamedEntityTag'
p8464
S'DATE'
p8465
stp8466
a(g459
(dp8467
S'NamedEntityTag'
p8468
g76
sS'CharacterOffsetEnd'
p8469
S'2295'
p8470
sS'Lemma'
p8471
g459
sS'PartOfSpeech'
p8472
g459
sS'CharacterOffsetBegin'
p8473
S'2294'
p8474
stp8475
asa(dp8476
g7
S'(ROOT (SINV (S (NP (PRP$ Its) (NX (NX (NP (DT a) (NN coincidence)) (SBAR (IN that) (S (NP (DT the) (NNS ships)) (VP (VBP are) (NP (EX there)))))) (PRN (CC but) (ADVP (RB theyve))))) (VP (VBD got) (NP (NP (NNS men) (CC and) (NN equipment)) (SBAR (WHNP (WDT that)) (S (VP (MD can) (VP (VB be) (VP (VBN put) (S (VP (TO to) (VP (VB work) (PP (IN in) (NP (DT an) (JJ organized) (NN way)))))))))))))) (, ,) (VP (VBD said)) (NP (NNP International) (NNP Development) (NNP Secretary) (NNP Clare) (NNP Short)) (. .)))'
p8477
sg9
S'Its a coincidence that the ships are there but theyve got men and equipment that can be put to work in an organized way, said International Development Secretary Clare Short.'
p8478
sg11
(lp8479
(S'root'
p8480
S'ROOT'
p8481
S'said'
p8482
tp8483
a(S'poss'
p8484
S'coincidence'
p8485
S'Its'
p8486
tp8487
a(S'det'
p8488
S'coincidence'
p8489
g1846
tp8490
a(S'nsubj'
p8491
S'got'
p8492
S'coincidence'
p8493
tp8494
a(S'mark'
p8495
S'there'
p8496
S'that'
p8497
tp8498
a(S'det'
p8499
S'ships'
p8500
S'the'
p8501
tp8502
a(S'nsubj'
p8503
S'there'
p8504
S'ships'
p8505
tp8506
a(S'cop'
p8507
S'there'
p8508
S'are'
p8509
tp8510
a(S'dep'
p8511
S'coincidence'
p8512
S'there'
p8513
tp8514
a(S'cc'
p8515
S'theyve'
p8516
S'but'
p8517
tp8518
a(S'dep'
p8519
S'coincidence'
p8520
S'theyve'
p8521
tp8522
a(S'ccomp'
p8523
S'said'
p8524
S'got'
p8525
tp8526
a(S'dobj'
p8527
S'got'
p8528
S'men'
p8529
tp8530
a(S'conj_and'
p8531
S'men'
p8532
S'equipment'
p8533
tp8534
a(S'nsubjpass'
p8535
S'put'
p8536
S'that'
p8537
tp8538
a(S'aux'
p8539
S'put'
p8540
S'can'
p8541
tp8542
a(S'auxpass'
p8543
S'put'
p8544
S'be'
p8545
tp8546
a(S'rcmod'
p8547
S'men'
p8548
S'put'
p8549
tp8550
a(S'aux'
p8551
S'work'
p8552
S'to'
p8553
tp8554
a(S'xcomp'
p8555
S'put'
p8556
S'work'
p8557
tp8558
a(S'det'
p8559
S'way'
p8560
S'an'
p8561
tp8562
a(S'amod'
p8563
S'way'
p8564
S'organized'
p8565
tp8566
a(S'prep_in'
p8567
S'work'
p8568
S'way'
p8569
tp8570
a(S'nn'
p8571
S'Short'
p8572
S'International'
p8573
tp8574
a(S'nn'
p8575
S'Short'
p8576
S'Development'
p8577
tp8578
a(S'nn'
p8579
S'Short'
p8580
S'Secretary'
p8581
tp8582
a(S'nn'
p8583
S'Short'
p8584
S'Clare'
p8585
tp8586
a(S'nsubj'
p8587
S'said'
p8588
S'Short'
p8589
tp8590
asg45
(lp8591
(g8480
S'ROOT-0'
p8592
S'said-26'
p8593
tp8594
a(g8484
S'coincidence-3'
p8595
S'Its-1'
p8596
tp8597
a(g8488
S'coincidence-3'
p8598
S'a-2'
p8599
tp8600
a(g8491
S'got-11'
p8601
S'coincidence-3'
p8602
tp8603
a(g8495
S'there-8'
p8604
S'that-4'
p8605
tp8606
a(g8499
S'ships-6'
p8607
S'the-5'
p8608
tp8609
a(g8503
S'there-8'
p8610
S'ships-6'
p8611
tp8612
a(g8507
S'there-8'
p8613
S'are-7'
p8614
tp8615
a(g8511
S'coincidence-3'
p8616
S'there-8'
p8617
tp8618
a(g8515
S'theyve-10'
p8619
S'but-9'
p8620
tp8621
a(g8519
S'coincidence-3'
p8622
S'theyve-10'
p8623
tp8624
a(g8523
S'said-26'
p8625
S'got-11'
p8626
tp8627
a(g8527
S'got-11'
p8628
S'men-12'
p8629
tp8630
a(g8531
S'men-12'
p8631
S'equipment-14'
p8632
tp8633
a(g8535
S'put-18'
p8634
S'that-15'
p8635
tp8636
a(g8539
S'put-18'
p8637
S'can-16'
p8638
tp8639
a(g8543
S'put-18'
p8640
S'be-17'
p8641
tp8642
a(g8547
S'men-12'
p8643
S'put-18'
p8644
tp8645
a(g8551
S'work-20'
p8646
S'to-19'
p8647
tp8648
a(g8555
S'put-18'
p8649
S'work-20'
p8650
tp8651
a(g8559
S'way-24'
p8652
S'an-22'
p8653
tp8654
a(g8563
S'way-24'
p8655
S'organized-23'
p8656
tp8657
a(g8567
S'work-20'
p8658
S'way-24'
p8659
tp8660
a(g8571
S'Short-31'
p8661
S'International-27'
p8662
tp8663
a(g8575
S'Short-31'
p8664
S'Development-28'
p8665
tp8666
a(g8579
S'Short-31'
p8667
S'Secretary-29'
p8668
tp8669
a(g8583
S'Short-31'
p8670
S'Clare-30'
p8671
tp8672
a(g8587
S'said-26'
p8673
S'Short-31'
p8674
tp8675
asg71
(lp8676
(S'Its'
p8677
(dp8678
S'NamedEntityTag'
p8679
g76
sS'CharacterOffsetEnd'
p8680
S'2299'
p8681
sS'Lemma'
p8682
S'its'
p8683
sS'PartOfSpeech'
p8684
S'PRP$'
p8685
sS'CharacterOffsetBegin'
p8686
S'2296'
p8687
stp8688
a(g1846
(dp8689
S'NamedEntityTag'
p8690
g76
sS'CharacterOffsetEnd'
p8691
S'2301'
p8692
sS'Lemma'
p8693
g1846
sS'PartOfSpeech'
p8694
S'DT'
p8695
sS'CharacterOffsetBegin'
p8696
S'2300'
p8697
stp8698
a(S'coincidence'
p8699
(dp8700
S'NamedEntityTag'
p8701
g76
sS'CharacterOffsetEnd'
p8702
S'2313'
p8703
sS'Lemma'
p8704
S'coincidence'
p8705
sS'PartOfSpeech'
p8706
S'NN'
p8707
sS'CharacterOffsetBegin'
p8708
S'2302'
p8709
stp8710
a(S'that'
p8711
(dp8712
S'NamedEntityTag'
p8713
g76
sS'CharacterOffsetEnd'
p8714
S'2318'
p8715
sS'Lemma'
p8716
S'that'
p8717
sS'PartOfSpeech'
p8718
S'IN'
p8719
sS'CharacterOffsetBegin'
p8720
S'2314'
p8721
stp8722
a(S'the'
p8723
(dp8724
S'NamedEntityTag'
p8725
g76
sS'CharacterOffsetEnd'
p8726
S'2322'
p8727
sS'Lemma'
p8728
S'the'
p8729
sS'PartOfSpeech'
p8730
S'DT'
p8731
sS'CharacterOffsetBegin'
p8732
S'2319'
p8733
stp8734
a(S'ships'
p8735
(dp8736
S'NamedEntityTag'
p8737
g76
sS'CharacterOffsetEnd'
p8738
S'2328'
p8739
sS'Lemma'
p8740
S'ship'
p8741
sS'PartOfSpeech'
p8742
S'NNS'
p8743
sS'CharacterOffsetBegin'
p8744
S'2323'
p8745
stp8746
a(S'are'
p8747
(dp8748
S'NamedEntityTag'
p8749
g76
sS'CharacterOffsetEnd'
p8750
S'2332'
p8751
sS'Lemma'
p8752
S'be'
p8753
sS'PartOfSpeech'
p8754
S'VBP'
p8755
sS'CharacterOffsetBegin'
p8756
S'2329'
p8757
stp8758
a(S'there'
p8759
(dp8760
S'NamedEntityTag'
p8761
g76
sS'CharacterOffsetEnd'
p8762
S'2338'
p8763
sS'Lemma'
p8764
S'there'
p8765
sS'PartOfSpeech'
p8766
S'EX'
p8767
sS'CharacterOffsetBegin'
p8768
S'2333'
p8769
stp8770
a(S'but'
p8771
(dp8772
S'NamedEntityTag'
p8773
g76
sS'CharacterOffsetEnd'
p8774
S'2342'
p8775
sS'Lemma'
p8776
S'but'
p8777
sS'PartOfSpeech'
p8778
S'CC'
p8779
sS'CharacterOffsetBegin'
p8780
S'2339'
p8781
stp8782
a(S'theyve'
p8783
(dp8784
S'NamedEntityTag'
p8785
g76
sS'CharacterOffsetEnd'
p8786
S'2349'
p8787
sS'Lemma'
p8788
S'theyve'
p8789
sS'PartOfSpeech'
p8790
S'RB'
p8791
sS'CharacterOffsetBegin'
p8792
S'2343'
p8793
stp8794
a(S'got'
p8795
(dp8796
S'NamedEntityTag'
p8797
g76
sS'CharacterOffsetEnd'
p8798
S'2353'
p8799
sS'Lemma'
p8800
S'get'
p8801
sS'PartOfSpeech'
p8802
S'VBD'
p8803
sS'CharacterOffsetBegin'
p8804
S'2350'
p8805
stp8806
a(S'men'
p8807
(dp8808
S'NamedEntityTag'
p8809
g76
sS'CharacterOffsetEnd'
p8810
S'2357'
p8811
sS'Lemma'
p8812
S'man'
p8813
sS'PartOfSpeech'
p8814
S'NNS'
p8815
sS'CharacterOffsetBegin'
p8816
S'2354'
p8817
stp8818
a(S'and'
p8819
(dp8820
S'NamedEntityTag'
p8821
g76
sS'CharacterOffsetEnd'
p8822
S'2361'
p8823
sS'Lemma'
p8824
S'and'
p8825
sS'PartOfSpeech'
p8826
S'CC'
p8827
sS'CharacterOffsetBegin'
p8828
S'2358'
p8829
stp8830
a(S'equipment'
p8831
(dp8832
S'NamedEntityTag'
p8833
g76
sS'CharacterOffsetEnd'
p8834
S'2371'
p8835
sS'Lemma'
p8836
S'equipment'
p8837
sS'PartOfSpeech'
p8838
S'NN'
p8839
sS'CharacterOffsetBegin'
p8840
S'2362'
p8841
stp8842
a(S'that'
p8843
(dp8844
S'NamedEntityTag'
p8845
g76
sS'CharacterOffsetEnd'
p8846
S'2376'
p8847
sS'Lemma'
p8848
S'that'
p8849
sS'PartOfSpeech'
p8850
S'WDT'
p8851
sS'CharacterOffsetBegin'
p8852
S'2372'
p8853
stp8854
a(S'can'
p8855
(dp8856
S'NamedEntityTag'
p8857
g76
sS'CharacterOffsetEnd'
p8858
S'2380'
p8859
sS'Lemma'
p8860
S'can'
p8861
sS'PartOfSpeech'
p8862
S'MD'
p8863
sS'CharacterOffsetBegin'
p8864
S'2377'
p8865
stp8866
a(S'be'
p8867
(dp8868
S'NamedEntityTag'
p8869
g76
sS'CharacterOffsetEnd'
p8870
S'2383'
p8871
sS'Lemma'
p8872
S'be'
p8873
sS'PartOfSpeech'
p8874
S'VB'
p8875
sS'CharacterOffsetBegin'
p8876
S'2381'
p8877
stp8878
a(S'put'
p8879
(dp8880
S'NamedEntityTag'
p8881
g76
sS'CharacterOffsetEnd'
p8882
S'2387'
p8883
sS'Lemma'
p8884
S'put'
p8885
sS'PartOfSpeech'
p8886
S'VBN'
p8887
sS'CharacterOffsetBegin'
p8888
S'2384'
p8889
stp8890
a(S'to'
p8891
(dp8892
S'NamedEntityTag'
p8893
g76
sS'CharacterOffsetEnd'
p8894
S'2390'
p8895
sS'Lemma'
p8896
S'to'
p8897
sS'PartOfSpeech'
p8898
S'TO'
p8899
sS'CharacterOffsetBegin'
p8900
S'2388'
p8901
stp8902
a(S'work'
p8903
(dp8904
S'NamedEntityTag'
p8905
g76
sS'CharacterOffsetEnd'
p8906
S'2395'
p8907
sS'Lemma'
p8908
S'work'
p8909
sS'PartOfSpeech'
p8910
S'VB'
p8911
sS'CharacterOffsetBegin'
p8912
S'2391'
p8913
stp8914
a(S'in'
p8915
(dp8916
S'NamedEntityTag'
p8917
g76
sS'CharacterOffsetEnd'
p8918
S'2398'
p8919
sS'Lemma'
p8920
S'in'
p8921
sS'PartOfSpeech'
p8922
S'IN'
p8923
sS'CharacterOffsetBegin'
p8924
S'2396'
p8925
stp8926
a(S'an'
p8927
(dp8928
S'NamedEntityTag'
p8929
g76
sS'CharacterOffsetEnd'
p8930
S'2401'
p8931
sS'Lemma'
p8932
g1846
sS'PartOfSpeech'
p8933
S'DT'
p8934
sS'CharacterOffsetBegin'
p8935
S'2399'
p8936
stp8937
a(S'organized'
p8938
(dp8939
S'NamedEntityTag'
p8940
g76
sS'CharacterOffsetEnd'
p8941
S'2411'
p8942
sS'Lemma'
p8943
S'organized'
p8944
sS'PartOfSpeech'
p8945
S'JJ'
p8946
sS'CharacterOffsetBegin'
p8947
S'2402'
p8948
stp8949
a(S'way'
p8950
(dp8951
S'NamedEntityTag'
p8952
g76
sS'CharacterOffsetEnd'
p8953
S'2415'
p8954
sS'Lemma'
p8955
S'way'
p8956
sS'PartOfSpeech'
p8957
S'NN'
p8958
sS'CharacterOffsetBegin'
p8959
S'2412'
p8960
stp8961
a(g135
(dp8962
S'NamedEntityTag'
p8963
g76
sS'CharacterOffsetEnd'
p8964
S'2416'
p8965
sS'Lemma'
p8966
g135
sS'PartOfSpeech'
p8967
g135
sS'CharacterOffsetBegin'
p8968
S'2415'
p8969
stp8970
a(S'said'
p8971
(dp8972
S'NamedEntityTag'
p8973
g76
sS'CharacterOffsetEnd'
p8974
S'2421'
p8975
sS'Lemma'
p8976
S'say'
p8977
sS'PartOfSpeech'
p8978
S'VBD'
p8979
sS'CharacterOffsetBegin'
p8980
S'2417'
p8981
stp8982
a(S'International'
p8983
(dp8984
S'NamedEntityTag'
p8985
g76
sS'CharacterOffsetEnd'
p8986
S'2435'
p8987
sS'Lemma'
p8988
S'International'
p8989
sS'PartOfSpeech'
p8990
S'NNP'
p8991
sS'CharacterOffsetBegin'
p8992
S'2422'
p8993
stp8994
a(S'Development'
p8995
(dp8996
S'NamedEntityTag'
p8997
g76
sS'CharacterOffsetEnd'
p8998
S'2447'
p8999
sS'Lemma'
p9000
S'Development'
p9001
sS'PartOfSpeech'
p9002
S'NNP'
p9003
sS'CharacterOffsetBegin'
p9004
S'2436'
p9005
stp9006
a(S'Secretary'
p9007
(dp9008
S'NamedEntityTag'
p9009
g76
sS'CharacterOffsetEnd'
p9010
S'2457'
p9011
sS'Lemma'
p9012
S'Secretary'
p9013
sS'PartOfSpeech'
p9014
S'NNP'
p9015
sS'CharacterOffsetBegin'
p9016
S'2448'
p9017
stp9018
a(S'Clare'
p9019
(dp9020
S'NamedEntityTag'
p9021
S'PERSON'
p9022
sS'CharacterOffsetEnd'
p9023
S'2463'
p9024
sS'Lemma'
p9025
S'Clare'
p9026
sS'PartOfSpeech'
p9027
S'NNP'
p9028
sS'CharacterOffsetBegin'
p9029
S'2458'
p9030
stp9031
a(S'Short'
p9032
(dp9033
S'NamedEntityTag'
p9034
S'PERSON'
p9035
sS'CharacterOffsetEnd'
p9036
S'2469'
p9037
sS'Lemma'
p9038
S'Short'
p9039
sS'PartOfSpeech'
p9040
S'NNP'
p9041
sS'CharacterOffsetBegin'
p9042
S'2464'
p9043
stp9044
a(g459
(dp9045
S'NamedEntityTag'
p9046
g76
sS'CharacterOffsetEnd'
p9047
S'2470'
p9048
sS'Lemma'
p9049
g459
sS'PartOfSpeech'
p9050
g459
sS'CharacterOffsetBegin'
p9051
S'2469'
p9052
stp9053
asa(dp9054
g7
S'(ROOT (S (NP (NNP Nicaragua)) (VP (VBD said) (NP-TMP (NNP Friday)) (SBAR (S (NP (PRP it)) (VP (MD will) (VP (VB accept) (NP (NNP Cubas) (NN offer) (S (VP (TO to) (VP (VB send) (NP (NNS doctors)) (ADVP (ADVP (RB as) (RB long)) (SBAR (IN as) (S (NP (DT the) (JJ communist) (NN nation)) (VP (VBZ flies) (NP (PRP them)) (PP (PP (IN in) (PP (IN on) (NP (PRP$ its) (JJ own) (NNS helicopters)))) (CC and) (PP (IN with) (NP (PRP$ their) (JJ own) (NNS supplies))))))))))))))))) (. .)))'
p9055
sg9
S'Nicaragua said Friday it will accept Cubas offer to send doctors as long as the communist nation flies them in on its own helicopters and with their own supplies.'
p9056
sg11
(lp9057
(S'root'
p9058
S'ROOT'
p9059
S'said'
p9060
tp9061
a(S'nsubj'
p9062
S'said'
p9063
S'Nicaragua'
p9064
tp9065
a(S'tmod'
p9066
S'said'
p9067
S'Friday'
p9068
tp9069
a(S'nsubj'
p9070
S'accept'
p9071
S'it'
p9072
tp9073
a(S'aux'
p9074
S'accept'
p9075
S'will'
p9076
tp9077
a(S'ccomp'
p9078
S'said'
p9079
S'accept'
p9080
tp9081
a(S'nn'
p9082
S'offer'
p9083
S'Cubas'
p9084
tp9085
a(S'dobj'
p9086
S'accept'
p9087
S'offer'
p9088
tp9089
a(S'aux'
p9090
S'send'
p9091
S'to'
p9092
tp9093
a(S'infmod'
p9094
S'offer'
p9095
S'send'
p9096
tp9097
a(S'dobj'
p9098
S'send'
p9099
S'doctors'
p9100
tp9101
a(S'advmod'
p9102
S'long'
p9103
S'as'
p9104
tp9105
a(S'advmod'
p9106
S'send'
p9107
S'long'
p9108
tp9109
a(S'mark'
p9110
S'flies'
p9111
S'as'
p9112
tp9113
a(S'det'
p9114
S'nation'
p9115
S'the'
p9116
tp9117
a(S'amod'
p9118
S'nation'
p9119
S'communist'
p9120
tp9121
a(S'nsubj'
p9122
S'flies'
p9123
S'nation'
p9124
tp9125
a(S'ccomp'
p9126
S'long'
p9127
S'flies'
p9128
tp9129
a(S'dobj'
p9130
S'flies'
p9131
S'them'
p9132
tp9133
a(S'prep'
p9134
S'flies'
p9135
S'in'
p9136
tp9137
a(S'pcomp'
p9138
S'in'
p9139
S'on'
p9140
tp9141
a(S'poss'
p9142
S'helicopters'
p9143
S'its'
p9144
tp9145
a(S'amod'
p9146
S'helicopters'
p9147
S'own'
p9148
tp9149
a(S'pobj'
p9150
S'on'
p9151
S'helicopters'
p9152
tp9153
a(S'conj_and'
p9154
S'in'
p9155
S'with'
p9156
tp9157
a(S'poss'
p9158
S'supplies'
p9159
S'their'
p9160
tp9161
a(S'amod'
p9162
S'supplies'
p9163
S'own'
p9164
tp9165
a(S'pobj'
p9166
S'with'
p9167
S'supplies'
p9168
tp9169
asg45
(lp9170
(g9058
S'ROOT-0'
p9171
S'said-2'
p9172
tp9173
a(g9062
S'said-2'
p9174
S'Nicaragua-1'
p9175
tp9176
a(g9066
S'said-2'
p9177
S'Friday-3'
p9178
tp9179
a(g9070
S'accept-6'
p9180
S'it-4'
p9181
tp9182
a(g9074
S'accept-6'
p9183
S'will-5'
p9184
tp9185
a(g9078
S'said-2'
p9186
S'accept-6'
p9187
tp9188
a(g9082
S'offer-8'
p9189
S'Cubas-7'
p9190
tp9191
a(g9086
S'accept-6'
p9192
S'offer-8'
p9193
tp9194
a(g9090
S'send-10'
p9195
S'to-9'
p9196
tp9197
a(g9094
S'offer-8'
p9198
S'send-10'
p9199
tp9200
a(g9098
S'send-10'
p9201
S'doctors-11'
p9202
tp9203
a(g9102
S'long-13'
p9204
S'as-12'
p9205
tp9206
a(g9106
S'send-10'
p9207
S'long-13'
p9208
tp9209
a(g9110
S'flies-18'
p9210
S'as-14'
p9211
tp9212
a(g9114
S'nation-17'
p9213
S'the-15'
p9214
tp9215
a(g9118
S'nation-17'
p9216
S'communist-16'
p9217
tp9218
a(g9122
S'flies-18'
p9219
S'nation-17'
p9220
tp9221
a(g9126
S'long-13'
p9222
S'flies-18'
p9223
tp9224
a(g9130
S'flies-18'
p9225
S'them-19'
p9226
tp9227
a(g9134
S'flies-18'
p9228
S'in-20'
p9229
tp9230
a(g9138
S'in-20'
p9231
S'on-21'
p9232
tp9233
a(g9142
S'helicopters-24'
p9234
S'its-22'
p9235
tp9236
a(g9146
S'helicopters-24'
p9237
S'own-23'
p9238
tp9239
a(g9150
S'on-21'
p9240
S'helicopters-24'
p9241
tp9242
a(g9154
S'in-20'
p9243
S'with-26'
p9244
tp9245
a(g9158
S'supplies-29'
p9246
S'their-27'
p9247
tp9248
a(g9162
S'supplies-29'
p9249
S'own-28'
p9250
tp9251
a(g9166
S'with-26'
p9252
S'supplies-29'
p9253
tp9254
asg71
(lp9255
(S'Nicaragua'
p9256
(dp9257
S'NamedEntityTag'
p9258
S'LOCATION'
p9259
sS'CharacterOffsetEnd'
p9260
S'2480'
p9261
sS'Lemma'
p9262
S'Nicaragua'
p9263
sS'PartOfSpeech'
p9264
S'NNP'
p9265
sS'CharacterOffsetBegin'
p9266
S'2471'
p9267
stp9268
a(S'said'
p9269
(dp9270
S'NamedEntityTag'
p9271
g76
sS'CharacterOffsetEnd'
p9272
S'2485'
p9273
sS'Lemma'
p9274
S'say'
p9275
sS'PartOfSpeech'
p9276
S'VBD'
p9277
sS'CharacterOffsetBegin'
p9278
S'2481'
p9279
stp9280
a(S'Friday'
p9281
(dp9282
S'NormalizedNamedEntityTag'
p9283
S'XXXX-WXX-5'
p9284
sS'Timex'
p9285
S'<TIMEX3 tid="t1" type="DATE" value="XXXX-WXX-5">Friday</TIMEX3>'
p9286
sS'Lemma'
p9287
S'Friday'
p9288
sS'CharacterOffsetEnd'
p9289
S'2492'
p9290
sS'PartOfSpeech'
p9291
S'NNP'
p9292
sS'CharacterOffsetBegin'
p9293
S'2486'
p9294
sS'NamedEntityTag'
p9295
S'DATE'
p9296
stp9297
a(S'it'
p9298
(dp9299
S'NamedEntityTag'
p9300
g76
sS'CharacterOffsetEnd'
p9301
S'2495'
p9302
sS'Lemma'
p9303
S'it'
p9304
sS'PartOfSpeech'
p9305
S'PRP'
p9306
sS'CharacterOffsetBegin'
p9307
S'2493'
p9308
stp9309
a(S'will'
p9310
(dp9311
S'NamedEntityTag'
p9312
g76
sS'CharacterOffsetEnd'
p9313
S'2500'
p9314
sS'Lemma'
p9315
S'will'
p9316
sS'PartOfSpeech'
p9317
S'MD'
p9318
sS'CharacterOffsetBegin'
p9319
S'2496'
p9320
stp9321
a(S'accept'
p9322
(dp9323
S'NamedEntityTag'
p9324
g76
sS'CharacterOffsetEnd'
p9325
S'2507'
p9326
sS'Lemma'
p9327
S'accept'
p9328
sS'PartOfSpeech'
p9329
S'VB'
p9330
sS'CharacterOffsetBegin'
p9331
S'2501'
p9332
stp9333
a(S'Cubas'
p9334
(dp9335
S'NamedEntityTag'
p9336
S'PERSON'
p9337
sS'CharacterOffsetEnd'
p9338
S'2513'
p9339
sS'Lemma'
p9340
S'Cubas'
p9341
sS'PartOfSpeech'
p9342
S'NNP'
p9343
sS'CharacterOffsetBegin'
p9344
S'2508'
p9345
stp9346
a(S'offer'
p9347
(dp9348
S'NamedEntityTag'
p9349
g76
sS'CharacterOffsetEnd'
p9350
S'2519'
p9351
sS'Lemma'
p9352
S'offer'
p9353
sS'PartOfSpeech'
p9354
S'NN'
p9355
sS'CharacterOffsetBegin'
p9356
S'2514'
p9357
stp9358
a(S'to'
p9359
(dp9360
S'NamedEntityTag'
p9361
g76
sS'CharacterOffsetEnd'
p9362
S'2522'
p9363
sS'Lemma'
p9364
S'to'
p9365
sS'PartOfSpeech'
p9366
S'TO'
p9367
sS'CharacterOffsetBegin'
p9368
S'2520'
p9369
stp9370
a(S'send'
p9371
(dp9372
S'NamedEntityTag'
p9373
g76
sS'CharacterOffsetEnd'
p9374
S'2527'
p9375
sS'Lemma'
p9376
S'send'
p9377
sS'PartOfSpeech'
p9378
S'VB'
p9379
sS'CharacterOffsetBegin'
p9380
S'2523'
p9381
stp9382
a(S'doctors'
p9383
(dp9384
S'NamedEntityTag'
p9385
g76
sS'CharacterOffsetEnd'
p9386
S'2535'
p9387
sS'Lemma'
p9388
S'doctor'
p9389
sS'PartOfSpeech'
p9390
S'NNS'
p9391
sS'CharacterOffsetBegin'
p9392
S'2528'
p9393
stp9394
a(S'as'
p9395
(dp9396
S'NamedEntityTag'
p9397
g76
sS'CharacterOffsetEnd'
p9398
S'2538'
p9399
sS'Lemma'
p9400
S'as'
p9401
sS'PartOfSpeech'
p9402
S'RB'
p9403
sS'CharacterOffsetBegin'
p9404
S'2536'
p9405
stp9406
a(S'long'
p9407
(dp9408
S'NamedEntityTag'
p9409
g76
sS'CharacterOffsetEnd'
p9410
S'2543'
p9411
sS'Lemma'
p9412
S'long'
p9413
sS'PartOfSpeech'
p9414
S'RB'
p9415
sS'CharacterOffsetBegin'
p9416
S'2539'
p9417
stp9418
a(S'as'
p9419
(dp9420
S'NamedEntityTag'
p9421
g76
sS'CharacterOffsetEnd'
p9422
S'2546'
p9423
sS'Lemma'
p9424
S'as'
p9425
sS'PartOfSpeech'
p9426
S'IN'
p9427
sS'CharacterOffsetBegin'
p9428
S'2544'
p9429
stp9430
a(S'the'
p9431
(dp9432
S'NamedEntityTag'
p9433
g76
sS'CharacterOffsetEnd'
p9434
S'2550'
p9435
sS'Lemma'
p9436
S'the'
p9437
sS'PartOfSpeech'
p9438
S'DT'
p9439
sS'CharacterOffsetBegin'
p9440
S'2547'
p9441
stp9442
a(S'communist'
p9443
(dp9444
S'NamedEntityTag'
p9445
g76
sS'CharacterOffsetEnd'
p9446
S'2560'
p9447
sS'Lemma'
p9448
S'communist'
p9449
sS'PartOfSpeech'
p9450
S'JJ'
p9451
sS'CharacterOffsetBegin'
p9452
S'2551'
p9453
stp9454
a(S'nation'
p9455
(dp9456
S'NamedEntityTag'
p9457
g76
sS'CharacterOffsetEnd'
p9458
S'2567'
p9459
sS'Lemma'
p9460
S'nation'
p9461
sS'PartOfSpeech'
p9462
S'NN'
p9463
sS'CharacterOffsetBegin'
p9464
S'2561'
p9465
stp9466
a(S'flies'
p9467
(dp9468
S'NamedEntityTag'
p9469
g76
sS'CharacterOffsetEnd'
p9470
S'2573'
p9471
sS'Lemma'
p9472
S'fly'
p9473
sS'PartOfSpeech'
p9474
S'VBZ'
p9475
sS'CharacterOffsetBegin'
p9476
S'2568'
p9477
stp9478
a(S'them'
p9479
(dp9480
S'NamedEntityTag'
p9481
g76
sS'CharacterOffsetEnd'
p9482
S'2578'
p9483
sS'Lemma'
p9484
S'they'
p9485
sS'PartOfSpeech'
p9486
S'PRP'
p9487
sS'CharacterOffsetBegin'
p9488
S'2574'
p9489
stp9490
a(S'in'
p9491
(dp9492
S'NamedEntityTag'
p9493
g76
sS'CharacterOffsetEnd'
p9494
S'2581'
p9495
sS'Lemma'
p9496
S'in'
p9497
sS'PartOfSpeech'
p9498
S'IN'
p9499
sS'CharacterOffsetBegin'
p9500
S'2579'
p9501
stp9502
a(S'on'
p9503
(dp9504
S'NamedEntityTag'
p9505
g76
sS'CharacterOffsetEnd'
p9506
S'2584'
p9507
sS'Lemma'
p9508
S'on'
p9509
sS'PartOfSpeech'
p9510
S'IN'
p9511
sS'CharacterOffsetBegin'
p9512
S'2582'
p9513
stp9514
a(S'its'
p9515
(dp9516
S'NamedEntityTag'
p9517
g76
sS'CharacterOffsetEnd'
p9518
S'2588'
p9519
sS'Lemma'
p9520
S'its'
p9521
sS'PartOfSpeech'
p9522
S'PRP$'
p9523
sS'CharacterOffsetBegin'
p9524
S'2585'
p9525
stp9526
a(S'own'
p9527
(dp9528
S'NamedEntityTag'
p9529
g76
sS'CharacterOffsetEnd'
p9530
S'2592'
p9531
sS'Lemma'
p9532
S'own'
p9533
sS'PartOfSpeech'
p9534
S'JJ'
p9535
sS'CharacterOffsetBegin'
p9536
S'2589'
p9537
stp9538
a(S'helicopters'
p9539
(dp9540
S'NamedEntityTag'
p9541
g76
sS'CharacterOffsetEnd'
p9542
S'2604'
p9543
sS'Lemma'
p9544
S'helicopter'
p9545
sS'PartOfSpeech'
p9546
S'NNS'
p9547
sS'CharacterOffsetBegin'
p9548
S'2593'
p9549
stp9550
a(S'and'
p9551
(dp9552
S'NamedEntityTag'
p9553
g76
sS'CharacterOffsetEnd'
p9554
S'2608'
p9555
sS'Lemma'
p9556
S'and'
p9557
sS'PartOfSpeech'
p9558
S'CC'
p9559
sS'CharacterOffsetBegin'
p9560
S'2605'
p9561
stp9562
a(S'with'
p9563
(dp9564
S'NamedEntityTag'
p9565
g76
sS'CharacterOffsetEnd'
p9566
S'2613'
p9567
sS'Lemma'
p9568
S'with'
p9569
sS'PartOfSpeech'
p9570
S'IN'
p9571
sS'CharacterOffsetBegin'
p9572
S'2609'
p9573
stp9574
a(S'their'
p9575
(dp9576
S'NamedEntityTag'
p9577
g76
sS'CharacterOffsetEnd'
p9578
S'2619'
p9579
sS'Lemma'
p9580
S'they'
p9581
sS'PartOfSpeech'
p9582
S'PRP$'
p9583
sS'CharacterOffsetBegin'
p9584
S'2614'
p9585
stp9586
a(S'own'
p9587
(dp9588
S'NamedEntityTag'
p9589
g76
sS'CharacterOffsetEnd'
p9590
S'2623'
p9591
sS'Lemma'
p9592
S'own'
p9593
sS'PartOfSpeech'
p9594
S'JJ'
p9595
sS'CharacterOffsetBegin'
p9596
S'2620'
p9597
stp9598
a(S'supplies'
p9599
(dp9600
S'NamedEntityTag'
p9601
g76
sS'CharacterOffsetEnd'
p9602
S'2632'
p9603
sS'Lemma'
p9604
S'supplies'
p9605
sS'PartOfSpeech'
p9606
S'NNS'
p9607
sS'CharacterOffsetBegin'
p9608
S'2624'
p9609
stp9610
a(g459
(dp9611
S'NamedEntityTag'
p9612
g76
sS'CharacterOffsetEnd'
p9613
S'2633'
p9614
sS'Lemma'
p9615
g459
sS'PartOfSpeech'
p9616
g459
sS'CharacterOffsetBegin'
p9617
S'2632'
p9618
stp9619
asa(dp9620
g7
S'(ROOT (S (NP (JJ Nicaraguan) (NNS leaders)) (ADVP (RB previously)) (VP (VBD had) (VP (VBN refused) (NP (NP (NNP Cubas) (NN offer)) (PP (IN of) (NP (JJ medical) (NN help)))) (, ,) (S (VP (VBG saying) (SBAR (S (NP (PRP it)) (VP (VBD did) (RB not) (VP (VB have) (S (NP (DT the) (NNS means)) (VP (TO to) (VP (VB transport) (CC or) (VB support) (NP (DT the) (NNS doctors))))))))))))) (. .)))'
p9621
sg9
S'Nicaraguan leaders previously had refused Cubas offer of medical help, saying it did not have the means to transport or support the doctors.'
p9622
sg11
(lp9623
(S'root'
p9624
S'ROOT'
p9625
S'refused'
p9626
tp9627
a(S'amod'
p9628
S'leaders'
p9629
S'Nicaraguan'
p9630
tp9631
a(S'nsubj'
p9632
S'refused'
p9633
S'leaders'
p9634
tp9635
a(S'advmod'
p9636
S'refused'
p9637
S'previously'
p9638
tp9639
a(S'aux'
p9640
S'refused'
p9641
S'had'
p9642
tp9643
a(S'nn'
p9644
S'offer'
p9645
S'Cubas'
p9646
tp9647
a(S'dobj'
p9648
S'refused'
p9649
S'offer'
p9650
tp9651
a(S'amod'
p9652
S'help'
p9653
S'medical'
p9654
tp9655
a(S'prep_of'
p9656
S'offer'
p9657
S'help'
p9658
tp9659
a(S'partmod'
p9660
S'refused'
p9661
S'saying'
p9662
tp9663
a(S'nsubj'
p9664
S'have'
p9665
S'it'
p9666
tp9667
a(S'aux'
p9668
S'have'
p9669
S'did'
p9670
tp9671
a(S'neg'
p9672
S'have'
p9673
S'not'
p9674
tp9675
a(S'ccomp'
p9676
S'saying'
p9677
S'have'
p9678
tp9679
a(S'det'
p9680
S'means'
p9681
S'the'
p9682
tp9683
a(S'nsubj'
p9684
S'transport'
p9685
S'means'
p9686
tp9687
a(S'aux'
p9688
S'transport'
p9689
S'to'
p9690
tp9691
a(S'ccomp'
p9692
S'have'
p9693
S'transport'
p9694
tp9695
a(S'conj_or'
p9696
S'transport'
p9697
S'support'
p9698
tp9699
a(S'det'
p9700
S'doctors'
p9701
S'the'
p9702
tp9703
a(S'dobj'
p9704
S'transport'
p9705
S'doctors'
p9706
tp9707
asg45
(lp9708
(g9624
S'ROOT-0'
p9709
S'refused-5'
p9710
tp9711
a(g9628
S'leaders-2'
p9712
S'Nicaraguan-1'
p9713
tp9714
a(g9632
S'refused-5'
p9715
S'leaders-2'
p9716
tp9717
a(g9636
S'refused-5'
p9718
S'previously-3'
p9719
tp9720
a(g9640
S'refused-5'
p9721
S'had-4'
p9722
tp9723
a(g9644
S'offer-7'
p9724
S'Cubas-6'
p9725
tp9726
a(g9648
S'refused-5'
p9727
S'offer-7'
p9728
tp9729
a(g9652
S'help-10'
p9730
S'medical-9'
p9731
tp9732
a(g9656
S'offer-7'
p9733
S'help-10'
p9734
tp9735
a(g9660
S'refused-5'
p9736
S'saying-12'
p9737
tp9738
a(g9664
S'have-16'
p9739
S'it-13'
p9740
tp9741
a(g9668
S'have-16'
p9742
S'did-14'
p9743
tp9744
a(g9672
S'have-16'
p9745
S'not-15'
p9746
tp9747
a(g9676
S'saying-12'
p9748
S'have-16'
p9749
tp9750
a(g9680
S'means-18'
p9751
S'the-17'
p9752
tp9753
a(g9684
S'transport-20'
p9754
S'means-18'
p9755
tp9756
a(g9688
S'transport-20'
p9757
S'to-19'
p9758
tp9759
a(g9692
S'have-16'
p9760
S'transport-20'
p9761
tp9762
a(g9696
S'transport-20'
p9763
S'support-22'
p9764
tp9765
a(g9700
S'doctors-24'
p9766
S'the-23'
p9767
tp9768
a(g9704
S'transport-20'
p9769
S'doctors-24'
p9770
tp9771
asg71
(lp9772
(S'Nicaraguan'
p9773
(dp9774
S'NamedEntityTag'
p9775
S'MISC'
p9776
sS'CharacterOffsetEnd'
p9777
S'2644'
p9778
sS'Lemma'
p9779
S'nicaraguan'
p9780
sS'PartOfSpeech'
p9781
S'JJ'
p9782
sS'CharacterOffsetBegin'
p9783
S'2634'
p9784
stp9785
a(S'leaders'
p9786
(dp9787
S'NamedEntityTag'
p9788
g76
sS'CharacterOffsetEnd'
p9789
S'2652'
p9790
sS'Lemma'
p9791
S'leader'
p9792
sS'PartOfSpeech'
p9793
S'NNS'
p9794
sS'CharacterOffsetBegin'
p9795
S'2645'
p9796
stp9797
a(S'previously'
p9798
(dp9799
S'NormalizedNamedEntityTag'
p9800
S'PAST_REF'
p9801
sS'Timex'
p9802
S'<TIMEX3 tid="t10" type="DATE" value="PAST_REF">previously</TIMEX3>'
p9803
sS'Lemma'
p9804
S'previously'
p9805
sS'CharacterOffsetEnd'
p9806
S'2663'
p9807
sS'PartOfSpeech'
p9808
S'RB'
p9809
sS'CharacterOffsetBegin'
p9810
S'2653'
p9811
sS'NamedEntityTag'
p9812
S'DATE'
p9813
stp9814
a(S'had'
p9815
(dp9816
S'NamedEntityTag'
p9817
g76
sS'CharacterOffsetEnd'
p9818
S'2667'
p9819
sS'Lemma'
p9820
S'have'
p9821
sS'PartOfSpeech'
p9822
S'VBD'
p9823
sS'CharacterOffsetBegin'
p9824
S'2664'
p9825
stp9826
a(S'refused'
p9827
(dp9828
S'NamedEntityTag'
p9829
g76
sS'CharacterOffsetEnd'
p9830
S'2675'
p9831
sS'Lemma'
p9832
S'refuse'
p9833
sS'PartOfSpeech'
p9834
S'VBN'
p9835
sS'CharacterOffsetBegin'
p9836
S'2668'
p9837
stp9838
a(S'Cubas'
p9839
(dp9840
S'NamedEntityTag'
p9841
S'PERSON'
p9842
sS'CharacterOffsetEnd'
p9843
S'2681'
p9844
sS'Lemma'
p9845
S'Cubas'
p9846
sS'PartOfSpeech'
p9847
S'NNP'
p9848
sS'CharacterOffsetBegin'
p9849
S'2676'
p9850
stp9851
a(S'offer'
p9852
(dp9853
S'NamedEntityTag'
p9854
g76
sS'CharacterOffsetEnd'
p9855
S'2687'
p9856
sS'Lemma'
p9857
S'offer'
p9858
sS'PartOfSpeech'
p9859
S'NN'
p9860
sS'CharacterOffsetBegin'
p9861
S'2682'
p9862
stp9863
a(S'of'
p9864
(dp9865
S'NamedEntityTag'
p9866
g76
sS'CharacterOffsetEnd'
p9867
S'2690'
p9868
sS'Lemma'
p9869
S'of'
p9870
sS'PartOfSpeech'
p9871
S'IN'
p9872
sS'CharacterOffsetBegin'
p9873
S'2688'
p9874
stp9875
a(S'medical'
p9876
(dp9877
S'NamedEntityTag'
p9878
g76
sS'CharacterOffsetEnd'
p9879
S'2698'
p9880
sS'Lemma'
p9881
S'medical'
p9882
sS'PartOfSpeech'
p9883
S'JJ'
p9884
sS'CharacterOffsetBegin'
p9885
S'2691'
p9886
stp9887
a(S'help'
p9888
(dp9889
S'NamedEntityTag'
p9890
g76
sS'CharacterOffsetEnd'
p9891
S'2703'
p9892
sS'Lemma'
p9893
S'help'
p9894
sS'PartOfSpeech'
p9895
S'NN'
p9896
sS'CharacterOffsetBegin'
p9897
S'2699'
p9898
stp9899
a(g135
(dp9900
S'NamedEntityTag'
p9901
g76
sS'CharacterOffsetEnd'
p9902
S'2704'
p9903
sS'Lemma'
p9904
g135
sS'PartOfSpeech'
p9905
g135
sS'CharacterOffsetBegin'
p9906
S'2703'
p9907
stp9908
a(S'saying'
p9909
(dp9910
S'NamedEntityTag'
p9911
g76
sS'CharacterOffsetEnd'
p9912
S'2711'
p9913
sS'Lemma'
p9914
S'say'
p9915
sS'PartOfSpeech'
p9916
S'VBG'
p9917
sS'CharacterOffsetBegin'
p9918
S'2705'
p9919
stp9920
a(S'it'
p9921
(dp9922
S'NamedEntityTag'
p9923
g76
sS'CharacterOffsetEnd'
p9924
S'2714'
p9925
sS'Lemma'
p9926
S'it'
p9927
sS'PartOfSpeech'
p9928
S'PRP'
p9929
sS'CharacterOffsetBegin'
p9930
S'2712'
p9931
stp9932
a(S'did'
p9933
(dp9934
S'NamedEntityTag'
p9935
g76
sS'CharacterOffsetEnd'
p9936
S'2718'
p9937
sS'Lemma'
p9938
S'do'
p9939
sS'PartOfSpeech'
p9940
S'VBD'
p9941
sS'CharacterOffsetBegin'
p9942
S'2715'
p9943
stp9944
a(S'not'
p9945
(dp9946
S'NamedEntityTag'
p9947
g76
sS'CharacterOffsetEnd'
p9948
S'2722'
p9949
sS'Lemma'
p9950
S'not'
p9951
sS'PartOfSpeech'
p9952
S'RB'
p9953
sS'CharacterOffsetBegin'
p9954
S'2719'
p9955
stp9956
a(S'have'
p9957
(dp9958
S'NamedEntityTag'
p9959
g76
sS'CharacterOffsetEnd'
p9960
S'2727'
p9961
sS'Lemma'
p9962
S'have'
p9963
sS'PartOfSpeech'
p9964
S'VB'
p9965
sS'CharacterOffsetBegin'
p9966
S'2723'
p9967
stp9968
a(S'the'
p9969
(dp9970
S'NamedEntityTag'
p9971
g76
sS'CharacterOffsetEnd'
p9972
S'2731'
p9973
sS'Lemma'
p9974
S'the'
p9975
sS'PartOfSpeech'
p9976
S'DT'
p9977
sS'CharacterOffsetBegin'
p9978
S'2728'
p9979
stp9980
a(S'means'
p9981
(dp9982
S'NamedEntityTag'
p9983
g76
sS'CharacterOffsetEnd'
p9984
S'2737'
p9985
sS'Lemma'
p9986
S'means'
p9987
sS'PartOfSpeech'
p9988
S'NNS'
p9989
sS'CharacterOffsetBegin'
p9990
S'2732'
p9991
stp9992
a(S'to'
p9993
(dp9994
S'NamedEntityTag'
p9995
g76
sS'CharacterOffsetEnd'
p9996
S'2740'
p9997
sS'Lemma'
p9998
S'to'
p9999
sS'PartOfSpeech'
p10000
S'TO'
p10001
sS'CharacterOffsetBegin'
p10002
S'2738'
p10003
stp10004
a(S'transport'
p10005
(dp10006
S'NamedEntityTag'
p10007
g76
sS'CharacterOffsetEnd'
p10008
S'2750'
p10009
sS'Lemma'
p10010
S'transport'
p10011
sS'PartOfSpeech'
p10012
S'VB'
p10013
sS'CharacterOffsetBegin'
p10014
S'2741'
p10015
stp10016
a(S'or'
p10017
(dp10018
S'NamedEntityTag'
p10019
g76
sS'CharacterOffsetEnd'
p10020
S'2753'
p10021
sS'Lemma'
p10022
S'or'
p10023
sS'PartOfSpeech'
p10024
S'CC'
p10025
sS'CharacterOffsetBegin'
p10026
S'2751'
p10027
stp10028
a(S'support'
p10029
(dp10030
S'NamedEntityTag'
p10031
g76
sS'CharacterOffsetEnd'
p10032
S'2761'
p10033
sS'Lemma'
p10034
S'support'
p10035
sS'PartOfSpeech'
p10036
S'VB'
p10037
sS'CharacterOffsetBegin'
p10038
S'2754'
p10039
stp10040
a(S'the'
p10041
(dp10042
S'NamedEntityTag'
p10043
g76
sS'CharacterOffsetEnd'
p10044
S'2765'
p10045
sS'Lemma'
p10046
S'the'
p10047
sS'PartOfSpeech'
p10048
S'DT'
p10049
sS'CharacterOffsetBegin'
p10050
S'2762'
p10051
stp10052
a(S'doctors'
p10053
(dp10054
S'NamedEntityTag'
p10055
g76
sS'CharacterOffsetEnd'
p10056
S'2773'
p10057
sS'Lemma'
p10058
S'doctor'
p10059
sS'PartOfSpeech'
p10060
S'NNS'
p10061
sS'CharacterOffsetBegin'
p10062
S'2766'
p10063
stp10064
a(g459
(dp10065
S'NamedEntityTag'
p10066
g76
sS'CharacterOffsetEnd'
p10067
S'2774'
p10068
sS'Lemma'
p10069
g459
sS'PartOfSpeech'
p10070
g459
sS'CharacterOffsetBegin'
p10071
S'2773'
p10072
stp10073
asa(dp10074
g7
S'(ROOT (S (NP (NP (NP (NNPS Nicaraguas)) (NP (JJ leftist) (NNS Sandinistas))) (, ,) (SBAR (WHNP (WP who)) (S (VP (VBD maintained) (NP (JJ close) (NNS relations)) (PP (IN with) (NP (NNP Fidel) (NNP Castro))) (PP (IN during) (NP (PRP$ their) (CD 1979-90) (NN rule)))))) (, ,)) (VP (VBD had) (VP (VBN criticized) (NP (DT the) (NN refusal)) (PP (IN by) (NP (NNP President) (NNP Arnoldo) (NNP Alemans) (NN administration))))) (. .)))'
p10075
sg9
S'Nicaraguas leftist Sandinistas, who maintained close relations with Fidel Castro during their 1979-90 rule, had criticized the refusal by President Arnoldo Alemans administration.'
p10076
sg11
(lp10077
(S'root'
p10078
S'ROOT'
p10079
S'criticized'
p10080
tp10081
a(S'nsubj'
p10082
S'criticized'
p10083
S'Nicaraguas'
p10084
tp10085
a(S'amod'
p10086
S'Sandinistas'
p10087
S'leftist'
p10088
tp10089
a(S'dep'
p10090
S'Nicaraguas'
p10091
S'Sandinistas'
p10092
tp10093
a(S'nsubj'
p10094
S'maintained'
p10095
S'who'
p10096
tp10097
a(S'rcmod'
p10098
S'Nicaraguas'
p10099
S'maintained'
p10100
tp10101
a(S'amod'
p10102
S'relations'
p10103
S'close'
p10104
tp10105
a(S'dobj'
p10106
S'maintained'
p10107
S'relations'
p10108
tp10109
a(S'nn'
p10110
S'Castro'
p10111
S'Fidel'
p10112
tp10113
a(S'prep_with'
p10114
S'maintained'
p10115
S'Castro'
p10116
tp10117
a(S'poss'
p10118
S'rule'
p10119
S'their'
p10120
tp10121
a(S'num'
p10122
S'rule'
p10123
S'1979-90'
p10124
tp10125
a(S'prep_during'
p10126
S'maintained'
p10127
S'rule'
p10128
tp10129
a(S'aux'
p10130
S'criticized'
p10131
S'had'
p10132
tp10133
a(S'det'
p10134
S'refusal'
p10135
S'the'
p10136
tp10137
a(S'dobj'
p10138
S'criticized'
p10139
S'refusal'
p10140
tp10141
a(S'nn'
p10142
S'administration'
p10143
S'President'
p10144
tp10145
a(S'nn'
p10146
S'administration'
p10147
S'Arnoldo'
p10148
tp10149
a(S'nn'
p10150
S'administration'
p10151
S'Alemans'
p10152
tp10153
a(S'prep_by'
p10154
S'criticized'
p10155
S'administration'
p10156
tp10157
asg45
(lp10158
(g10078
S'ROOT-0'
p10159
S'criticized-18'
p10160
tp10161
a(g10082
S'criticized-18'
p10162
S'Nicaraguas-1'
p10163
tp10164
a(g10086
S'Sandinistas-3'
p10165
S'leftist-2'
p10166
tp10167
a(g10090
S'Nicaraguas-1'
p10168
S'Sandinistas-3'
p10169
tp10170
a(g10094
S'maintained-6'
p10171
S'who-5'
p10172
tp10173
a(g10098
S'Nicaraguas-1'
p10174
S'maintained-6'
p10175
tp10176
a(g10102
S'relations-8'
p10177
S'close-7'
p10178
tp10179
a(g10106
S'maintained-6'
p10180
S'relations-8'
p10181
tp10182
a(g10110
S'Castro-11'
p10183
S'Fidel-10'
p10184
tp10185
a(g10114
S'maintained-6'
p10186
S'Castro-11'
p10187
tp10188
a(g10118
S'rule-15'
p10189
S'their-13'
p10190
tp10191
a(g10122
S'rule-15'
p10192
S'1979-90-14'
p10193
tp10194
a(g10126
S'maintained-6'
p10195
S'rule-15'
p10196
tp10197
a(g10130
S'criticized-18'
p10198
S'had-17'
p10199
tp10200
a(g10134
S'refusal-20'
p10201
S'the-19'
p10202
tp10203
a(g10138
S'criticized-18'
p10204
S'refusal-20'
p10205
tp10206
a(g10142
S'administration-25'
p10207
S'President-22'
p10208
tp10209
a(g10146
S'administration-25'
p10210
S'Arnoldo-23'
p10211
tp10212
a(g10150
S'administration-25'
p10213
S'Alemans-24'
p10214
tp10215
a(g10154
S'criticized-18'
p10216
S'administration-25'
p10217
tp10218
asg71
(lp10219
(S'Nicaraguas'
p10220
(dp10221
S'NamedEntityTag'
p10222
S'MISC'
p10223
sS'CharacterOffsetEnd'
p10224
S'2785'
p10225
sS'Lemma'
p10226
S'Nicaraguas'
p10227
sS'PartOfSpeech'
p10228
S'NNPS'
p10229
sS'CharacterOffsetBegin'
p10230
S'2775'
p10231
stp10232
a(S'leftist'
p10233
(dp10234
S'NamedEntityTag'
p10235
g76
sS'CharacterOffsetEnd'
p10236
S'2793'
p10237
sS'Lemma'
p10238
S'leftist'
p10239
sS'PartOfSpeech'
p10240
S'JJ'
p10241
sS'CharacterOffsetBegin'
p10242
S'2786'
p10243
stp10244
a(S'Sandinistas'
p10245
(dp10246
S'NamedEntityTag'
p10247
S'PERSON'
p10248
sS'CharacterOffsetEnd'
p10249
S'2805'
p10250
sS'Lemma'
p10251
S'sandinista'
p10252
sS'PartOfSpeech'
p10253
S'NNS'
p10254
sS'CharacterOffsetBegin'
p10255
S'2794'
p10256
stp10257
a(g135
(dp10258
S'NamedEntityTag'
p10259
g76
sS'CharacterOffsetEnd'
p10260
S'2806'
p10261
sS'Lemma'
p10262
g135
sS'PartOfSpeech'
p10263
g135
sS'CharacterOffsetBegin'
p10264
S'2805'
p10265
stp10266
a(S'who'
p10267
(dp10268
S'NamedEntityTag'
p10269
g76
sS'CharacterOffsetEnd'
p10270
S'2810'
p10271
sS'Lemma'
p10272
S'who'
p10273
sS'PartOfSpeech'
p10274
S'WP'
p10275
sS'CharacterOffsetBegin'
p10276
S'2807'
p10277
stp10278
a(S'maintained'
p10279
(dp10280
S'NamedEntityTag'
p10281
g76
sS'CharacterOffsetEnd'
p10282
S'2821'
p10283
sS'Lemma'
p10284
S'maintain'
p10285
sS'PartOfSpeech'
p10286
S'VBD'
p10287
sS'CharacterOffsetBegin'
p10288
S'2811'
p10289
stp10290
a(S'close'
p10291
(dp10292
S'NamedEntityTag'
p10293
g76
sS'CharacterOffsetEnd'
p10294
S'2827'
p10295
sS'Lemma'
p10296
S'close'
p10297
sS'PartOfSpeech'
p10298
S'JJ'
p10299
sS'CharacterOffsetBegin'
p10300
S'2822'
p10301
stp10302
a(S'relations'
p10303
(dp10304
S'NamedEntityTag'
p10305
g76
sS'CharacterOffsetEnd'
p10306
S'2837'
p10307
sS'Lemma'
p10308
S'relation'
p10309
sS'PartOfSpeech'
p10310
S'NNS'
p10311
sS'CharacterOffsetBegin'
p10312
S'2828'
p10313
stp10314
a(S'with'
p10315
(dp10316
S'NamedEntityTag'
p10317
g76
sS'CharacterOffsetEnd'
p10318
S'2842'
p10319
sS'Lemma'
p10320
S'with'
p10321
sS'PartOfSpeech'
p10322
S'IN'
p10323
sS'CharacterOffsetBegin'
p10324
S'2838'
p10325
stp10326
a(S'Fidel'
p10327
(dp10328
S'NamedEntityTag'
p10329
S'PERSON'
p10330
sS'CharacterOffsetEnd'
p10331
S'2848'
p10332
sS'Lemma'
p10333
S'Fidel'
p10334
sS'PartOfSpeech'
p10335
S'NNP'
p10336
sS'CharacterOffsetBegin'
p10337
S'2843'
p10338
stp10339
a(S'Castro'
p10340
(dp10341
S'NamedEntityTag'
p10342
S'PERSON'
p10343
sS'CharacterOffsetEnd'
p10344
S'2855'
p10345
sS'Lemma'
p10346
S'Castro'
p10347
sS'PartOfSpeech'
p10348
S'NNP'
p10349
sS'CharacterOffsetBegin'
p10350
S'2849'
p10351
stp10352
a(S'during'
p10353
(dp10354
S'NamedEntityTag'
p10355
g76
sS'CharacterOffsetEnd'
p10356
S'2862'
p10357
sS'Lemma'
p10358
S'during'
p10359
sS'PartOfSpeech'
p10360
S'IN'
p10361
sS'CharacterOffsetBegin'
p10362
S'2856'
p10363
stp10364
a(S'their'
p10365
(dp10366
S'NamedEntityTag'
p10367
g76
sS'CharacterOffsetEnd'
p10368
S'2868'
p10369
sS'Lemma'
p10370
S'they'
p10371
sS'PartOfSpeech'
p10372
S'PRP$'
p10373
sS'CharacterOffsetBegin'
p10374
S'2863'
p10375
stp10376
a(S'1979-90'
p10377
(dp10378
S'NormalizedNamedEntityTag'
p10379
S'1979.0'
p10380
sS'Lemma'
p10381
S'1979-90'
p10382
sS'CharacterOffsetEnd'
p10383
S'2876'
p10384
sS'PartOfSpeech'
p10385
S'CD'
p10386
sS'CharacterOffsetBegin'
p10387
S'2869'
p10388
sS'NamedEntityTag'
p10389
S'NUMBER'
p10390
stp10391
a(S'rule'
p10392
(dp10393
S'NamedEntityTag'
p10394
g76
sS'CharacterOffsetEnd'
p10395
S'2881'
p10396
sS'Lemma'
p10397
S'rule'
p10398
sS'PartOfSpeech'
p10399
S'NN'
p10400
sS'CharacterOffsetBegin'
p10401
S'2877'
p10402
stp10403
a(g135
(dp10404
S'NamedEntityTag'
p10405
g76
sS'CharacterOffsetEnd'
p10406
S'2882'
p10407
sS'Lemma'
p10408
g135
sS'PartOfSpeech'
p10409
g135
sS'CharacterOffsetBegin'
p10410
S'2881'
p10411
stp10412
a(S'had'
p10413
(dp10414
S'NamedEntityTag'
p10415
g76
sS'CharacterOffsetEnd'
p10416
S'2886'
p10417
sS'Lemma'
p10418
S'have'
p10419
sS'PartOfSpeech'
p10420
S'VBD'
p10421
sS'CharacterOffsetBegin'
p10422
S'2883'
p10423
stp10424
a(S'criticized'
p10425
(dp10426
S'NamedEntityTag'
p10427
g76
sS'CharacterOffsetEnd'
p10428
S'2897'
p10429
sS'Lemma'
p10430
S'criticize'
p10431
sS'PartOfSpeech'
p10432
S'VBN'
p10433
sS'CharacterOffsetBegin'
p10434
S'2887'
p10435
stp10436
a(S'the'
p10437
(dp10438
S'NamedEntityTag'
p10439
g76
sS'CharacterOffsetEnd'
p10440
S'2901'
p10441
sS'Lemma'
p10442
S'the'
p10443
sS'PartOfSpeech'
p10444
S'DT'
p10445
sS'CharacterOffsetBegin'
p10446
S'2898'
p10447
stp10448
a(S'refusal'
p10449
(dp10450
S'NamedEntityTag'
p10451
g76
sS'CharacterOffsetEnd'
p10452
S'2909'
p10453
sS'Lemma'
p10454
S'refusal'
p10455
sS'PartOfSpeech'
p10456
S'NN'
p10457
sS'CharacterOffsetBegin'
p10458
S'2902'
p10459
stp10460
a(S'by'
p10461
(dp10462
S'NamedEntityTag'
p10463
g76
sS'CharacterOffsetEnd'
p10464
S'2912'
p10465
sS'Lemma'
p10466
S'by'
p10467
sS'PartOfSpeech'
p10468
S'IN'
p10469
sS'CharacterOffsetBegin'
p10470
S'2910'
p10471
stp10472
a(S'President'
p10473
(dp10474
S'NamedEntityTag'
p10475
g76
sS'CharacterOffsetEnd'
p10476
S'2922'
p10477
sS'Lemma'
p10478
S'President'
p10479
sS'PartOfSpeech'
p10480
S'NNP'
p10481
sS'CharacterOffsetBegin'
p10482
S'2913'
p10483
stp10484
a(S'Arnoldo'
p10485
(dp10486
S'NamedEntityTag'
p10487
S'PERSON'
p10488
sS'CharacterOffsetEnd'
p10489
S'2930'
p10490
sS'Lemma'
p10491
S'Arnoldo'
p10492
sS'PartOfSpeech'
p10493
S'NNP'
p10494
sS'CharacterOffsetBegin'
p10495
S'2923'
p10496
stp10497
a(S'Alemans'
p10498
(dp10499
S'NamedEntityTag'
p10500
S'PERSON'
p10501
sS'CharacterOffsetEnd'
p10502
S'2938'
p10503
sS'Lemma'
p10504
S'Alemans'
p10505
sS'PartOfSpeech'
p10506
S'NNP'
p10507
sS'CharacterOffsetBegin'
p10508
S'2931'
p10509
stp10510
a(S'administration'
p10511
(dp10512
S'NamedEntityTag'
p10513
g76
sS'CharacterOffsetEnd'
p10514
S'2953'
p10515
sS'Lemma'
p10516
S'administration'
p10517
sS'PartOfSpeech'
p10518
S'NN'
p10519
sS'CharacterOffsetBegin'
p10520
S'2939'
p10521
stp10522
a(g459
(dp10523
S'NamedEntityTag'
p10524
g76
sS'CharacterOffsetEnd'
p10525
S'2954'
p10526
sS'Lemma'
p10527
g459
sS'PartOfSpeech'
p10528
g459
sS'CharacterOffsetBegin'
p10529
S'2953'
p10530
stp10531
asass.