(dp0
S'models'
p1
(lp2
(dp3
S'sentences'
p4
(lp5
(dp6
S'parsetree'
p7
S'(ROOT (NP (NP (NNP Chile)) (PP (IN near) (NP (JJ domestic) (NN turmoil))) (PP (IN over) (NP (NN extradition))) (. .)))'
p8
sS'text'
p9
S'Chile near domestic turmoil over extradition.'
p10
sS'dependencies'
p11
(lp12
(S'root'
p13
S'ROOT'
p14
S'Chile'
p15
tp16
a(S'amod'
p17
S'turmoil'
p18
S'domestic'
p19
tp20
a(S'prep_near'
p21
S'Chile'
p22
S'turmoil'
p23
tp24
a(S'prep_over'
p25
S'Chile'
p26
S'extradition'
p27
tp28
asS'indexeddependencies'
p29
(lp30
(g13
S'ROOT-0'
p31
S'Chile-1'
p32
tp33
a(g17
S'turmoil-4'
p34
S'domestic-3'
p35
tp36
a(g21
S'Chile-1'
p37
S'turmoil-4'
p38
tp39
a(g25
S'Chile-1'
p40
S'extradition-6'
p41
tp42
asS'words'
p43
(lp44
(S'Chile'
p45
(dp46
S'NamedEntityTag'
p47
S'LOCATION'
p48
sS'CharacterOffsetEnd'
p49
S'6'
p50
sS'Lemma'
p51
S'Chile'
p52
sS'PartOfSpeech'
p53
S'NNP'
p54
sS'CharacterOffsetBegin'
p55
S'1'
p56
stp57
a(S'near'
p58
(dp59
S'NamedEntityTag'
p60
S'O'
p61
sS'CharacterOffsetEnd'
p62
S'11'
p63
sS'Lemma'
p64
S'near'
p65
sS'PartOfSpeech'
p66
S'IN'
p67
sS'CharacterOffsetBegin'
p68
S'7'
p69
stp70
a(S'domestic'
p71
(dp72
S'NamedEntityTag'
p73
g61
sS'CharacterOffsetEnd'
p74
S'20'
p75
sS'Lemma'
p76
S'domestic'
p77
sS'PartOfSpeech'
p78
S'JJ'
p79
sS'CharacterOffsetBegin'
p80
S'12'
p81
stp82
a(S'turmoil'
p83
(dp84
S'NamedEntityTag'
p85
g61
sS'CharacterOffsetEnd'
p86
S'28'
p87
sS'Lemma'
p88
S'turmoil'
p89
sS'PartOfSpeech'
p90
S'NN'
p91
sS'CharacterOffsetBegin'
p92
S'21'
p93
stp94
a(S'over'
p95
(dp96
S'NamedEntityTag'
p97
g61
sS'CharacterOffsetEnd'
p98
S'33'
p99
sS'Lemma'
p100
S'over'
p101
sS'PartOfSpeech'
p102
S'IN'
p103
sS'CharacterOffsetBegin'
p104
S'29'
p105
stp106
a(S'extradition'
p107
(dp108
S'NamedEntityTag'
p109
g61
sS'CharacterOffsetEnd'
p110
S'45'
p111
sS'Lemma'
p112
S'extradition'
p113
sS'PartOfSpeech'
p114
S'NN'
p115
sS'CharacterOffsetBegin'
p116
S'34'
p117
stp118
a(S'.'
p119
(dp120
S'NamedEntityTag'
p121
g61
sS'CharacterOffsetEnd'
p122
S'46'
p123
sS'Lemma'
p124
g119
sS'PartOfSpeech'
p125
g119
sS'CharacterOffsetBegin'
p126
S'45'
p127
stp128
asa(dp129
g7
S'(ROOT (NP (NP (NNP Spain) (NNS debates)) (VP (VBG proceeding)) (. .)))'
p130
sg9
S'Spain debates proceeding.'
p131
sg11
(lp132
(S'root'
p133
S'ROOT'
p134
S'debates'
p135
tp136
a(S'nn'
p137
S'debates'
p138
S'Spain'
p139
tp140
a(S'partmod'
p141
S'debates'
p142
S'proceeding'
p143
tp144
asg29
(lp145
(g133
S'ROOT-0'
p146
S'debates-2'
p147
tp148
a(g137
S'debates-2'
p149
S'Spain-1'
p150
tp151
a(g141
S'debates-2'
p152
S'proceeding-3'
p153
tp154
asg43
(lp155
(S'Spain'
p156
(dp157
S'NamedEntityTag'
p158
S'LOCATION'
p159
sS'CharacterOffsetEnd'
p160
S'52'
p161
sS'Lemma'
p162
S'Spain'
p163
sS'PartOfSpeech'
p164
S'NNP'
p165
sS'CharacterOffsetBegin'
p166
S'47'
p167
stp168
a(S'debates'
p169
(dp170
S'NamedEntityTag'
p171
g61
sS'CharacterOffsetEnd'
p172
S'60'
p173
sS'Lemma'
p174
S'debate'
p175
sS'PartOfSpeech'
p176
S'NNS'
p177
sS'CharacterOffsetBegin'
p178
S'53'
p179
stp180
a(S'proceeding'
p181
(dp182
S'NamedEntityTag'
p183
g61
sS'CharacterOffsetEnd'
p184
S'71'
p185
sS'Lemma'
p186
S'proceed'
p187
sS'PartOfSpeech'
p188
S'VBG'
p189
sS'CharacterOffsetBegin'
p190
S'61'
p191
stp192
a(g119
(dp193
S'NamedEntityTag'
p194
g61
sS'CharacterOffsetEnd'
p195
S'72'
p196
sS'Lemma'
p197
g119
sS'PartOfSpeech'
p198
g119
sS'CharacterOffsetBegin'
p199
S'71'
p200
stp201
asasa(dp202
g4
(lp203
(dp204
g7
S'(ROOT (FRAG (NP (JJ Chilean) (NN delegation)) (S (VP (VBG protesting) (NP (NP (NN arrest)) (PP (IN of) (NP (NNP Pinochet)))) (PP (IN on) (NP (NN genocide) (NN charge)))))))'
p205
sg9
S'Chilean delegation protesting arrest of Pinochet on genocide charge'
p206
sg11
(lp207
(S'root'
p208
S'ROOT'
p209
S'delegation'
p210
tp211
a(S'amod'
p212
S'delegation'
p213
S'Chilean'
p214
tp215
a(S'dep'
p216
S'delegation'
p217
S'protesting'
p218
tp219
a(S'dobj'
p220
S'protesting'
p221
S'arrest'
p222
tp223
a(S'prep_of'
p224
S'arrest'
p225
S'Pinochet'
p226
tp227
a(S'nn'
p228
S'charge'
p229
S'genocide'
p230
tp231
a(S'prep_on'
p232
S'protesting'
p233
S'charge'
p234
tp235
asg29
(lp236
(g208
S'ROOT-0'
p237
S'delegation-2'
p238
tp239
a(g212
S'delegation-2'
p240
S'Chilean-1'
p241
tp242
a(g216
S'delegation-2'
p243
S'protesting-3'
p244
tp245
a(g220
S'protesting-3'
p246
S'arrest-4'
p247
tp248
a(g224
S'arrest-4'
p249
S'Pinochet-6'
p250
tp251
a(g228
S'charge-9'
p252
S'genocide-8'
p253
tp254
a(g232
S'protesting-3'
p255
S'charge-9'
p256
tp257
asg43
(lp258
(S'Chilean'
p259
(dp260
S'NamedEntityTag'
p261
S'MISC'
p262
sS'CharacterOffsetEnd'
p263
S'8'
p264
sS'Lemma'
p265
S'chilean'
p266
sS'PartOfSpeech'
p267
S'JJ'
p268
sS'CharacterOffsetBegin'
p269
g56
stp270
a(S'delegation'
p271
(dp272
S'NamedEntityTag'
p273
g61
sS'CharacterOffsetEnd'
p274
S'19'
p275
sS'Lemma'
p276
S'delegation'
p277
sS'PartOfSpeech'
p278
S'NN'
p279
sS'CharacterOffsetBegin'
p280
S'9'
p281
stp282
a(S'protesting'
p283
(dp284
S'NamedEntityTag'
p285
g61
sS'CharacterOffsetEnd'
p286
S'30'
p287
sS'Lemma'
p288
S'protest'
p289
sS'PartOfSpeech'
p290
S'VBG'
p291
sS'CharacterOffsetBegin'
p292
S'20'
p293
stp294
a(S'arrest'
p295
(dp296
S'NamedEntityTag'
p297
g61
sS'CharacterOffsetEnd'
p298
S'37'
p299
sS'Lemma'
p300
S'arrest'
p301
sS'PartOfSpeech'
p302
S'NN'
p303
sS'CharacterOffsetBegin'
p304
S'31'
p305
stp306
a(S'of'
p307
(dp308
S'NamedEntityTag'
p309
g61
sS'CharacterOffsetEnd'
p310
S'40'
p311
sS'Lemma'
p312
S'of'
p313
sS'PartOfSpeech'
p314
S'IN'
p315
sS'CharacterOffsetBegin'
p316
S'38'
p317
stp318
a(S'Pinochet'
p319
(dp320
S'NamedEntityTag'
p321
S'PERSON'
p322
sS'CharacterOffsetEnd'
p323
S'49'
p324
sS'Lemma'
p325
S'Pinochet'
p326
sS'PartOfSpeech'
p327
S'NNP'
p328
sS'CharacterOffsetBegin'
p329
S'41'
p330
stp331
a(S'on'
p332
(dp333
S'NamedEntityTag'
p334
g61
sS'CharacterOffsetEnd'
p335
S'52'
p336
sS'Lemma'
p337
S'on'
p338
sS'PartOfSpeech'
p339
S'IN'
p340
sS'CharacterOffsetBegin'
p341
S'50'
p342
stp343
a(S'genocide'
p344
(dp345
S'NamedEntityTag'
p346
g61
sS'CharacterOffsetEnd'
p347
S'61'
p348
sS'Lemma'
p349
S'genocide'
p350
sS'PartOfSpeech'
p351
S'NN'
p352
sS'CharacterOffsetBegin'
p353
S'53'
p354
stp355
a(S'charge'
p356
(dp357
S'NamedEntityTag'
p358
g61
sS'CharacterOffsetEnd'
p359
S'68'
p360
sS'Lemma'
p361
S'charge'
p362
sS'PartOfSpeech'
p363
S'NN'
p364
sS'CharacterOffsetBegin'
p365
S'62'
p366
stp367
asasa(dp368
g4
(lp369
(dp370
g7
S'(ROOT (S (NP (JJ Chilean) (NNS legislators)) (VP (NN lobby) (PP (IN against) (NP (NP (NN extradition)) (PP (IN of) (NP (NNP Pinochet))))) (PP (TO to) (NP (NNP Spain)))) (. .)))'
p371
sg9
S'Chilean legislators lobby against extradition of Pinochet to Spain.'
p372
sg11
(lp373
(S'root'
p374
S'ROOT'
p375
S'lobby'
p376
tp377
a(S'amod'
p378
S'legislators'
p379
S'Chilean'
p380
tp381
a(S'nsubj'
p382
S'lobby'
p383
S'legislators'
p384
tp385
a(S'prep_against'
p386
S'lobby'
p387
S'extradition'
p388
tp389
a(S'prep_of'
p390
S'extradition'
p391
S'Pinochet'
p392
tp393
a(S'prep_to'
p394
S'lobby'
p395
S'Spain'
p396
tp397
asg29
(lp398
(g374
S'ROOT-0'
p399
S'lobby-3'
p400
tp401
a(g378
S'legislators-2'
p402
S'Chilean-1'
p403
tp404
a(g382
S'lobby-3'
p405
S'legislators-2'
p406
tp407
a(g386
S'lobby-3'
p408
S'extradition-5'
p409
tp410
a(g390
S'extradition-5'
p411
S'Pinochet-7'
p412
tp413
a(g394
S'lobby-3'
p414
S'Spain-9'
p415
tp416
asg43
(lp417
(S'Chilean'
p418
(dp419
S'NamedEntityTag'
p420
S'MISC'
p421
sS'CharacterOffsetEnd'
p422
g264
sS'Lemma'
p423
S'chilean'
p424
sS'PartOfSpeech'
p425
S'JJ'
p426
sS'CharacterOffsetBegin'
p427
g56
stp428
a(S'legislators'
p429
(dp430
S'NamedEntityTag'
p431
g61
sS'CharacterOffsetEnd'
p432
S'20'
p433
sS'Lemma'
p434
S'legislator'
p435
sS'PartOfSpeech'
p436
S'NNS'
p437
sS'CharacterOffsetBegin'
p438
g281
stp439
a(S'lobby'
p440
(dp441
S'NamedEntityTag'
p442
g61
sS'CharacterOffsetEnd'
p443
S'26'
p444
sS'Lemma'
p445
S'lobby'
p446
sS'PartOfSpeech'
p447
S'NN'
p448
sS'CharacterOffsetBegin'
p449
S'21'
p450
stp451
a(S'against'
p452
(dp453
S'NamedEntityTag'
p454
g61
sS'CharacterOffsetEnd'
p455
S'34'
p456
sS'Lemma'
p457
S'against'
p458
sS'PartOfSpeech'
p459
S'IN'
p460
sS'CharacterOffsetBegin'
p461
S'27'
p462
stp463
a(S'extradition'
p464
(dp465
S'NamedEntityTag'
p466
g61
sS'CharacterOffsetEnd'
p467
S'46'
p468
sS'Lemma'
p469
S'extradition'
p470
sS'PartOfSpeech'
p471
S'NN'
p472
sS'CharacterOffsetBegin'
p473
S'35'
p474
stp475
a(S'of'
p476
(dp477
S'NamedEntityTag'
p478
g61
sS'CharacterOffsetEnd'
p479
S'49'
p480
sS'Lemma'
p481
S'of'
p482
sS'PartOfSpeech'
p483
S'IN'
p484
sS'CharacterOffsetBegin'
p485
S'47'
p486
stp487
a(S'Pinochet'
p488
(dp489
S'NamedEntityTag'
p490
S'PERSON'
p491
sS'CharacterOffsetEnd'
p492
S'58'
p493
sS'Lemma'
p494
S'Pinochet'
p495
sS'PartOfSpeech'
p496
S'NNP'
p497
sS'CharacterOffsetBegin'
p498
S'50'
p499
stp500
a(S'to'
p501
(dp502
S'NamedEntityTag'
p503
g61
sS'CharacterOffsetEnd'
p504
S'61'
p505
sS'Lemma'
p506
S'to'
p507
sS'PartOfSpeech'
p508
S'TO'
p509
sS'CharacterOffsetBegin'
p510
S'59'
p511
stp512
a(S'Spain'
p513
(dp514
S'NamedEntityTag'
p515
S'LOCATION'
p516
sS'CharacterOffsetEnd'
p517
S'67'
p518
sS'Lemma'
p519
S'Spain'
p520
sS'PartOfSpeech'
p521
S'NNP'
p522
sS'CharacterOffsetBegin'
p523
S'62'
p524
stp525
a(g119
(dp526
S'NamedEntityTag'
p527
g61
sS'CharacterOffsetEnd'
p528
S'68'
p529
sS'Lemma'
p530
g119
sS'PartOfSpeech'
p531
g119
sS'CharacterOffsetBegin'
p532
S'67'
p533
stp534
asasa(dp535
g4
(lp536
(dp537
g7
S'(ROOT (NP (NP (JJ Chilean) (NNS legislators)) (NP (NP (NN protest)) (PP (IN in) (NP (NP (NNP Madrid)) (PP (IN against) (NP (NP (NN extradition)) (PP (IN of) (NP (NNP Pinochet))))))))))'
p538
sg9
S'Chilean legislators protest in Madrid against extradition of Pinochet'
p539
sg11
(lp540
(S'root'
p541
S'ROOT'
p542
S'legislators'
p543
tp544
a(S'amod'
p545
S'legislators'
p546
S'Chilean'
p547
tp548
a(S'dep'
p549
S'legislators'
p550
S'protest'
p551
tp552
a(S'prep_in'
p553
S'protest'
p554
S'Madrid'
p555
tp556
a(S'prep_against'
p557
S'Madrid'
p558
S'extradition'
p559
tp560
a(S'prep_of'
p561
S'extradition'
p562
S'Pinochet'
p563
tp564
asg29
(lp565
(g541
S'ROOT-0'
p566
S'legislators-2'
p567
tp568
a(g545
S'legislators-2'
p569
S'Chilean-1'
p570
tp571
a(g549
S'legislators-2'
p572
S'protest-3'
p573
tp574
a(g553
S'protest-3'
p575
S'Madrid-5'
p576
tp577
a(g557
S'Madrid-5'
p578
S'extradition-7'
p579
tp580
a(g561
S'extradition-7'
p581
S'Pinochet-9'
p582
tp583
asg43
(lp584
(S'Chilean'
p585
(dp586
S'NamedEntityTag'
p587
S'MISC'
p588
sS'CharacterOffsetEnd'
p589
g264
sS'Lemma'
p590
S'chilean'
p591
sS'PartOfSpeech'
p592
S'JJ'
p593
sS'CharacterOffsetBegin'
p594
g56
stp595
a(S'legislators'
p596
(dp597
S'NamedEntityTag'
p598
g61
sS'CharacterOffsetEnd'
p599
S'20'
p600
sS'Lemma'
p601
S'legislator'
p602
sS'PartOfSpeech'
p603
S'NNS'
p604
sS'CharacterOffsetBegin'
p605
g281
stp606
a(S'protest'
p607
(dp608
S'NamedEntityTag'
p609
g61
sS'CharacterOffsetEnd'
p610
S'28'
p611
sS'Lemma'
p612
S'protest'
p613
sS'PartOfSpeech'
p614
S'NN'
p615
sS'CharacterOffsetBegin'
p616
S'21'
p617
stp618
a(S'in'
p619
(dp620
S'NamedEntityTag'
p621
g61
sS'CharacterOffsetEnd'
p622
S'31'
p623
sS'Lemma'
p624
S'in'
p625
sS'PartOfSpeech'
p626
S'IN'
p627
sS'CharacterOffsetBegin'
p628
S'29'
p629
stp630
a(S'Madrid'
p631
(dp632
S'NamedEntityTag'
p633
S'LOCATION'
p634
sS'CharacterOffsetEnd'
p635
S'38'
p636
sS'Lemma'
p637
S'Madrid'
p638
sS'PartOfSpeech'
p639
S'NNP'
p640
sS'CharacterOffsetBegin'
p641
S'32'
p642
stp643
a(S'against'
p644
(dp645
S'NamedEntityTag'
p646
g61
sS'CharacterOffsetEnd'
p647
S'46'
p648
sS'Lemma'
p649
S'against'
p650
sS'PartOfSpeech'
p651
S'IN'
p652
sS'CharacterOffsetBegin'
p653
S'39'
p654
stp655
a(S'extradition'
p656
(dp657
S'NamedEntityTag'
p658
g61
sS'CharacterOffsetEnd'
p659
S'58'
p660
sS'Lemma'
p661
S'extradition'
p662
sS'PartOfSpeech'
p663
S'NN'
p664
sS'CharacterOffsetBegin'
p665
S'47'
p666
stp667
a(S'of'
p668
(dp669
S'NamedEntityTag'
p670
g61
sS'CharacterOffsetEnd'
p671
S'61'
p672
sS'Lemma'
p673
S'of'
p674
sS'PartOfSpeech'
p675
S'IN'
p676
sS'CharacterOffsetBegin'
p677
S'59'
p678
stp679
a(S'Pinochet'
p680
(dp681
S'NamedEntityTag'
p682
S'LOCATION'
p683
sS'CharacterOffsetEnd'
p684
S'70'
p685
sS'Lemma'
p686
S'Pinochet'
p687
sS'PartOfSpeech'
p688
S'NNP'
p689
sS'CharacterOffsetBegin'
p690
S'62'
p691
stp692
asasasS'article'
p693
(dp694
S'coref'
p695
(lp696
(lp697
((S'Spain'
p698
I0
I4
I14
I15
tp699
(S'Chile Spain'
p700
I4
I1
I10
I12
tp701
tp702
a((S'Spain'
p703
I5
I0
I0
I1
tp704
(S'Chile Spain'
p705
I4
I1
I10
I12
tp706
tp707
a((S'Spain'
p708
I9
I5
I5
I6
tp709
(S'Chile Spain'
p710
I4
I1
I10
I12
tp711
tp712
a((S'Spain'
p713
I13
I1
I11
I12
tp714
(S'Chile Spain'
p715
I4
I1
I10
I12
tp716
tp717
aa(lp718
((S'Chile'
p719
I1
I1
I11
I12
tp720
(S'Chile'
p721
I0
I2
I22
I23
tp722
tp723
a((S'Chile'
p724
I3
I1
I1
I2
tp725
(S'Chile'
p726
I0
I2
I22
I23
tp727
tp728
a((S'Chile'
p729
I5
I7
I7
I8
tp730
(S'Chile'
p731
I0
I2
I22
I23
tp732
tp733
a((S'Chile'
p734
I16
I5
I25
I26
tp735
(S'Chile'
p736
I0
I2
I22
I23
tp737
tp738
aa(lp739
((S'A delegation of Chilean legislators lobbying against the possible extradition of Augusto Pinochet to Spain to face trial'
p740
I0
I1
I0
I18
tp741
(S'an offshoot of a larger group of Chilean parliamentarians currently protesting the detention in London on behalf of the opposition parties Independent Democratic Union and the National Renovation Party'
p742
I7
I4
I3
I32
tp743
tp744
a((S'The delegation'
p745
I7
I1
I0
I2
tp746
(S'an offshoot of a larger group of Chilean parliamentarians currently protesting the detention in London on behalf of the opposition parties Independent Democratic Union and the National Renovation Party'
p747
I7
I4
I3
I32
tp748
tp749
a((S'the delegation'
p750
I11
I6
I15
I17
tp751
(S'an offshoot of a larger group of Chilean parliamentarians currently protesting the detention in London on behalf of the opposition parties Independent Democratic Union and the National Renovation Party'
p752
I7
I4
I3
I32
tp753
tp754
aa(lp755
((S'Pinochet'
p756
I2
I0
I0
I1
tp757
(S'Augusto Pinochet to Spain'
p758
I0
I2
I11
I15
tp759
tp760
aa(lp761
((S'Thursday'
p762
I15
I1
I1
I2
tp763
(S'Thursday'
p764
I0
I0
I20
I21
tp765
tp766
aa(lp767
((S'Madrid'
p768
I6
I4
I4
I5
tp769
(S'Madrid'
p770
I1
I0
I20
I21
tp771
tp772
aa(lp773
((S'Espina'
p774
I4
I0
I0
I1
tp775
(S'parliamentary deputy Alberto Espina'
p776
I1
I6
I13
I17
tp777
tp778
a((S'Espina'
p779
I8
I0
I0
I1
tp780
(S'parliamentary deputy Alberto Espina'
p781
I1
I6
I13
I17
tp782
tp783
a((S'Espina'
p784
I9
I3
I13
I14
tp785
(S'parliamentary deputy Alberto Espina'
p786
I1
I6
I13
I17
tp787
tp788
a((S'he'
p789
I10
I-1
I19
I20
tp790
(S'parliamentary deputy Alberto Espina'
p791
I1
I6
I13
I17
tp792
tp793
aa(lp794
((S'London'
p795
I15
I6
I26
I27
tp796
(S'London'
p797
I2
I4
I4
I5
tp798
tp799
aa(lp800
((S'genocide and terrorism'
p801
I18
I8
I8
I11
tp802
(S'genocide , terrorism'
p803
I2
I7
I27
I30
tp804
tp805
aa(lp806
((S'Pinochets'
p807
I14
I-1
I9
I10
tp808
(S'Pinochets'
p809
I3
I3
I13
I14
tp810
tp811
aa(lp812
((S'the detention'
p813
I7
I5
I14
I16
tp814
(S'the detention'
p815
I3
I4
I3
I5
tp816
tp817
aa(lp818
((S'Britain'
p819
I5
I4
I14
I15
tp820
(S'Britain'
p821
I4
I3
I13
I14
tp822
tp823
a((S'Britain'
p824
I13
I0
I20
I21
tp825
(S'Britain'
p826
I4
I3
I13
I14
tp827
tp828
aa(lp829
((S'Movoa'
p830
I8
I2
I2
I3
tp831
(S'Jovino Movoa'
p832
I6
I2
I11
I13
tp833
tp834
aa(lp835
((S'Lagos'
p836
I8
I4
I4
I5
tp837
(S'Julio Lagos'
p838
I6
I5
I14
I16
tp839
tp840
aa(lp841
((S'The courts'
p842
I16
I1
I0
I2
tp843
(S'Chilean courts'
p844
I9
I6
I25
I27
tp845
tp846
aa(lp847
((S'our'
p848
I9
I-1
I9
I10
tp849
(S'we'
p850
I9
I1
I1
I2
tp851
tp852
a((S'We'
p853
I10
I0
I0
I1
tp854
(S'we'
p855
I9
I1
I1
I2
tp856
tp857
a((S'we'
p858
I10
I0
I10
I11
tp859
(S'we'
p860
I9
I1
I1
I2
tp861
tp862
aa(lp863
((S'Aznar'
p864
I12
I0
I0
I1
tp865
(S'Prime Minister Jose Maria Aznar'
p866
I11
I-1
I5
I10
tp867
tp868
a((S'his'
p869
I12
I3
I3
I4
tp870
(S'Prime Minister Jose Maria Aznar'
p871
I11
I-1
I5
I10
tp872
tp873
aa(lp874
((S'The deadline'
p875
I14
I1
I0
I2
tp876
(S'the deadline for presenting it in Britain'
p877
I13
I5
I14
I21
tp878
tp879
aa(lp880
((S'it'
p881
I13
I8
I18
I19
tp882
(S'the extradition attempt'
p883
I13
I3
I1
I4
tp884
tp885
aa(lp886
((S'he'
p887
I15
I-1
I29
I30
tp888
(S'the head prosecutor from the National Court'
p889
I15
I4
I2
I9
tp890
tp891
aa(lp892
((S'Garzons'
p893
I16
I0
I30
I31
tp894
(S'Judge Garzon related to Pinochets detention in the London clinic where he was recovering from back surgery'
p895
I15
I-1
I18
I35
tp896
tp897
aa(lp898
((S'the investigations'
p899
I17
I4
I3
I5
tp900
(S'the Spanish judicial investigations'
p901
I16
I-1
I16
I20
tp902
tp903
aasg4
(lp904
(dp905
g7
S'(ROOT (S (NP (NP (DT A) (NN delegation)) (PP (IN of) (NP (NP (JJ Chilean) (NNS legislators)) (VP (VBG lobbying) (PP (IN against) (NP (NP (DT the) (JJ possible) (NN extradition)) (PP (IN of) (NP (NP (NNP Augusto) (NNP Pinochet)) (PP (TO to) (NP (NNP Spain))))))) (S (VP (TO to) (VP (VB face) (NP (NN trial))))))))) (, ,) (VP (VBD warned) (NP-TMP (NNP Thursday)) (SBAR (IN that) (S (NP (NNP Chile)) (VP (VBD was) (PP (IN on) (NP (NP (DT the) (NN brink)) (PP (IN of) (NP (JJ political) (NN turmoil))))))))) (. .)))'
p906
sg9
S'A delegation of Chilean legislators lobbying against the possible extradition of Augusto Pinochet to Spain to face trial, warned Thursday that Chile was on the brink of political turmoil.'
p907
sg11
(lp908
(S'root'
p909
S'ROOT'
p910
S'warned'
p911
tp912
a(S'det'
p913
S'delegation'
p914
S'A'
p915
tp916
a(S'nsubj'
p917
S'warned'
p918
S'delegation'
p919
tp920
a(S'amod'
p921
S'legislators'
p922
S'Chilean'
p923
tp924
a(S'prep_of'
p925
S'delegation'
p926
S'legislators'
p927
tp928
a(S'partmod'
p929
S'legislators'
p930
S'lobbying'
p931
tp932
a(S'det'
p933
S'extradition'
p934
S'the'
p935
tp936
a(S'amod'
p937
S'extradition'
p938
S'possible'
p939
tp940
a(S'prep_against'
p941
S'lobbying'
p942
S'extradition'
p943
tp944
a(S'nn'
p945
S'Pinochet'
p946
S'Augusto'
p947
tp948
a(S'prep_of'
p949
S'extradition'
p950
S'Pinochet'
p951
tp952
a(S'prep_to'
p953
S'Pinochet'
p954
S'Spain'
p955
tp956
a(S'aux'
p957
S'face'
p958
S'to'
p959
tp960
a(S'xcomp'
p961
S'lobbying'
p962
S'face'
p963
tp964
a(S'dobj'
p965
S'face'
p966
S'trial'
p967
tp968
a(S'tmod'
p969
S'warned'
p970
S'Thursday'
p971
tp972
a(S'mark'
p973
S'was'
p974
S'that'
p975
tp976
a(S'nsubj'
p977
S'was'
p978
S'Chile'
p979
tp980
a(S'ccomp'
p981
S'warned'
p982
S'was'
p983
tp984
a(S'det'
p985
S'brink'
p986
S'the'
p987
tp988
a(S'prep_on'
p989
S'was'
p990
S'brink'
p991
tp992
a(S'amod'
p993
S'turmoil'
p994
S'political'
p995
tp996
a(S'prep_of'
p997
S'brink'
p998
S'turmoil'
p999
tp1000
asg29
(lp1001
(g909
S'ROOT-0'
p1002
S'warned-20'
p1003
tp1004
a(g913
S'delegation-2'
p1005
S'A-1'
p1006
tp1007
a(g917
S'warned-20'
p1008
S'delegation-2'
p1009
tp1010
a(g921
S'legislators-5'
p1011
S'Chilean-4'
p1012
tp1013
a(g925
S'delegation-2'
p1014
S'legislators-5'
p1015
tp1016
a(g929
S'legislators-5'
p1017
S'lobbying-6'
p1018
tp1019
a(g933
S'extradition-10'
p1020
S'the-8'
p1021
tp1022
a(g937
S'extradition-10'
p1023
S'possible-9'
p1024
tp1025
a(g941
S'lobbying-6'
p1026
S'extradition-10'
p1027
tp1028
a(g945
S'Pinochet-13'
p1029
S'Augusto-12'
p1030
tp1031
a(g949
S'extradition-10'
p1032
S'Pinochet-13'
p1033
tp1034
a(g953
S'Pinochet-13'
p1035
S'Spain-15'
p1036
tp1037
a(g957
S'face-17'
p1038
S'to-16'
p1039
tp1040
a(g961
S'lobbying-6'
p1041
S'face-17'
p1042
tp1043
a(g965
S'face-17'
p1044
S'trial-18'
p1045
tp1046
a(g969
S'warned-20'
p1047
S'Thursday-21'
p1048
tp1049
a(g973
S'was-24'
p1050
S'that-22'
p1051
tp1052
a(g977
S'was-24'
p1053
S'Chile-23'
p1054
tp1055
a(g981
S'warned-20'
p1056
S'was-24'
p1057
tp1058
a(g985
S'brink-27'
p1059
S'the-26'
p1060
tp1061
a(g989
S'was-24'
p1062
S'brink-27'
p1063
tp1064
a(g993
S'turmoil-30'
p1065
S'political-29'
p1066
tp1067
a(g997
S'brink-27'
p1068
S'turmoil-30'
p1069
tp1070
asg43
(lp1071
(g915
(dp1072
S'NamedEntityTag'
p1073
g61
sS'CharacterOffsetEnd'
p1074
g56
sS'Lemma'
p1075
S'a'
p1076
sS'PartOfSpeech'
p1077
S'DT'
p1078
sS'CharacterOffsetBegin'
p1079
S'0'
p1080
stp1081
a(S'delegation'
p1082
(dp1083
S'NamedEntityTag'
p1084
g61
sS'CharacterOffsetEnd'
p1085
S'12'
p1086
sS'Lemma'
p1087
S'delegation'
p1088
sS'PartOfSpeech'
p1089
S'NN'
p1090
sS'CharacterOffsetBegin'
p1091
S'2'
p1092
stp1093
a(S'of'
p1094
(dp1095
S'NamedEntityTag'
p1096
g61
sS'CharacterOffsetEnd'
p1097
S'15'
p1098
sS'Lemma'
p1099
S'of'
p1100
sS'PartOfSpeech'
p1101
S'IN'
p1102
sS'CharacterOffsetBegin'
p1103
S'13'
p1104
stp1105
a(S'Chilean'
p1106
(dp1107
S'NamedEntityTag'
p1108
S'MISC'
p1109
sS'CharacterOffsetEnd'
p1110
S'23'
p1111
sS'Lemma'
p1112
S'chilean'
p1113
sS'PartOfSpeech'
p1114
S'JJ'
p1115
sS'CharacterOffsetBegin'
p1116
S'16'
p1117
stp1118
a(S'legislators'
p1119
(dp1120
S'NamedEntityTag'
p1121
g61
sS'CharacterOffsetEnd'
p1122
S'35'
p1123
sS'Lemma'
p1124
S'legislator'
p1125
sS'PartOfSpeech'
p1126
S'NNS'
p1127
sS'CharacterOffsetBegin'
p1128
S'24'
p1129
stp1130
a(S'lobbying'
p1131
(dp1132
S'NamedEntityTag'
p1133
g61
sS'CharacterOffsetEnd'
p1134
S'44'
p1135
sS'Lemma'
p1136
S'lobby'
p1137
sS'PartOfSpeech'
p1138
S'VBG'
p1139
sS'CharacterOffsetBegin'
p1140
S'36'
p1141
stp1142
a(S'against'
p1143
(dp1144
S'NamedEntityTag'
p1145
g61
sS'CharacterOffsetEnd'
p1146
S'52'
p1147
sS'Lemma'
p1148
S'against'
p1149
sS'PartOfSpeech'
p1150
S'IN'
p1151
sS'CharacterOffsetBegin'
p1152
S'45'
p1153
stp1154
a(S'the'
p1155
(dp1156
S'NamedEntityTag'
p1157
g61
sS'CharacterOffsetEnd'
p1158
S'56'
p1159
sS'Lemma'
p1160
S'the'
p1161
sS'PartOfSpeech'
p1162
S'DT'
p1163
sS'CharacterOffsetBegin'
p1164
S'53'
p1165
stp1166
a(S'possible'
p1167
(dp1168
S'NamedEntityTag'
p1169
g61
sS'CharacterOffsetEnd'
p1170
S'65'
p1171
sS'Lemma'
p1172
S'possible'
p1173
sS'PartOfSpeech'
p1174
S'JJ'
p1175
sS'CharacterOffsetBegin'
p1176
S'57'
p1177
stp1178
a(S'extradition'
p1179
(dp1180
S'NamedEntityTag'
p1181
g61
sS'CharacterOffsetEnd'
p1182
S'77'
p1183
sS'Lemma'
p1184
S'extradition'
p1185
sS'PartOfSpeech'
p1186
S'NN'
p1187
sS'CharacterOffsetBegin'
p1188
S'66'
p1189
stp1190
a(S'of'
p1191
(dp1192
S'NamedEntityTag'
p1193
g61
sS'CharacterOffsetEnd'
p1194
S'80'
p1195
sS'Lemma'
p1196
S'of'
p1197
sS'PartOfSpeech'
p1198
S'IN'
p1199
sS'CharacterOffsetBegin'
p1200
S'78'
p1201
stp1202
a(S'Augusto'
p1203
(dp1204
S'NamedEntityTag'
p1205
S'PERSON'
p1206
sS'CharacterOffsetEnd'
p1207
S'88'
p1208
sS'Lemma'
p1209
S'Augusto'
p1210
sS'PartOfSpeech'
p1211
S'NNP'
p1212
sS'CharacterOffsetBegin'
p1213
S'81'
p1214
stp1215
a(S'Pinochet'
p1216
(dp1217
S'NamedEntityTag'
p1218
S'PERSON'
p1219
sS'CharacterOffsetEnd'
p1220
S'97'
p1221
sS'Lemma'
p1222
S'Pinochet'
p1223
sS'PartOfSpeech'
p1224
S'NNP'
p1225
sS'CharacterOffsetBegin'
p1226
S'89'
p1227
stp1228
a(S'to'
p1229
(dp1230
S'NamedEntityTag'
p1231
g61
sS'CharacterOffsetEnd'
p1232
S'100'
p1233
sS'Lemma'
p1234
S'to'
p1235
sS'PartOfSpeech'
p1236
S'TO'
p1237
sS'CharacterOffsetBegin'
p1238
S'98'
p1239
stp1240
a(S'Spain'
p1241
(dp1242
S'NamedEntityTag'
p1243
S'LOCATION'
p1244
sS'CharacterOffsetEnd'
p1245
S'106'
p1246
sS'Lemma'
p1247
S'Spain'
p1248
sS'PartOfSpeech'
p1249
S'NNP'
p1250
sS'CharacterOffsetBegin'
p1251
S'101'
p1252
stp1253
a(S'to'
p1254
(dp1255
S'NamedEntityTag'
p1256
g61
sS'CharacterOffsetEnd'
p1257
S'109'
p1258
sS'Lemma'
p1259
S'to'
p1260
sS'PartOfSpeech'
p1261
S'TO'
p1262
sS'CharacterOffsetBegin'
p1263
S'107'
p1264
stp1265
a(S'face'
p1266
(dp1267
S'NamedEntityTag'
p1268
g61
sS'CharacterOffsetEnd'
p1269
S'114'
p1270
sS'Lemma'
p1271
S'face'
p1272
sS'PartOfSpeech'
p1273
S'VB'
p1274
sS'CharacterOffsetBegin'
p1275
S'110'
p1276
stp1277
a(S'trial'
p1278
(dp1279
S'NamedEntityTag'
p1280
g61
sS'CharacterOffsetEnd'
p1281
S'120'
p1282
sS'Lemma'
p1283
S'trial'
p1284
sS'PartOfSpeech'
p1285
S'NN'
p1286
sS'CharacterOffsetBegin'
p1287
S'115'
p1288
stp1289
a(S','
p1290
(dp1291
S'NamedEntityTag'
p1292
g61
sS'CharacterOffsetEnd'
p1293
S'121'
p1294
sS'Lemma'
p1295
g1290
sS'PartOfSpeech'
p1296
g1290
sS'CharacterOffsetBegin'
p1297
S'120'
p1298
stp1299
a(S'warned'
p1300
(dp1301
S'NamedEntityTag'
p1302
g61
sS'CharacterOffsetEnd'
p1303
S'128'
p1304
sS'Lemma'
p1305
S'warn'
p1306
sS'PartOfSpeech'
p1307
S'VBD'
p1308
sS'CharacterOffsetBegin'
p1309
S'122'
p1310
stp1311
a(S'Thursday'
p1312
(dp1313
S'NormalizedNamedEntityTag'
p1314
S'XXXX-WXX-4'
p1315
sS'Timex'
p1316
S'<TIMEX3 tid="t1" type="DATE" value="XXXX-WXX-4">Thursday</TIMEX3>'
p1317
sS'Lemma'
p1318
S'Thursday'
p1319
sS'CharacterOffsetEnd'
p1320
S'137'
p1321
sS'PartOfSpeech'
p1322
S'NNP'
p1323
sS'CharacterOffsetBegin'
p1324
S'129'
p1325
sS'NamedEntityTag'
p1326
S'DATE'
p1327
stp1328
a(S'that'
p1329
(dp1330
S'NamedEntityTag'
p1331
g61
sS'CharacterOffsetEnd'
p1332
S'142'
p1333
sS'Lemma'
p1334
S'that'
p1335
sS'PartOfSpeech'
p1336
S'IN'
p1337
sS'CharacterOffsetBegin'
p1338
S'138'
p1339
stp1340
a(S'Chile'
p1341
(dp1342
S'NamedEntityTag'
p1343
S'LOCATION'
p1344
sS'CharacterOffsetEnd'
p1345
S'148'
p1346
sS'Lemma'
p1347
S'Chile'
p1348
sS'PartOfSpeech'
p1349
S'NNP'
p1350
sS'CharacterOffsetBegin'
p1351
S'143'
p1352
stp1353
a(S'was'
p1354
(dp1355
S'NamedEntityTag'
p1356
g61
sS'CharacterOffsetEnd'
p1357
S'152'
p1358
sS'Lemma'
p1359
S'be'
p1360
sS'PartOfSpeech'
p1361
S'VBD'
p1362
sS'CharacterOffsetBegin'
p1363
S'149'
p1364
stp1365
a(S'on'
p1366
(dp1367
S'NamedEntityTag'
p1368
g61
sS'CharacterOffsetEnd'
p1369
S'155'
p1370
sS'Lemma'
p1371
S'on'
p1372
sS'PartOfSpeech'
p1373
S'IN'
p1374
sS'CharacterOffsetBegin'
p1375
S'153'
p1376
stp1377
a(S'the'
p1378
(dp1379
S'NamedEntityTag'
p1380
g61
sS'CharacterOffsetEnd'
p1381
S'159'
p1382
sS'Lemma'
p1383
S'the'
p1384
sS'PartOfSpeech'
p1385
S'DT'
p1386
sS'CharacterOffsetBegin'
p1387
S'156'
p1388
stp1389
a(S'brink'
p1390
(dp1391
S'NamedEntityTag'
p1392
g61
sS'CharacterOffsetEnd'
p1393
S'165'
p1394
sS'Lemma'
p1395
S'brink'
p1396
sS'PartOfSpeech'
p1397
S'NN'
p1398
sS'CharacterOffsetBegin'
p1399
S'160'
p1400
stp1401
a(S'of'
p1402
(dp1403
S'NamedEntityTag'
p1404
g61
sS'CharacterOffsetEnd'
p1405
S'168'
p1406
sS'Lemma'
p1407
S'of'
p1408
sS'PartOfSpeech'
p1409
S'IN'
p1410
sS'CharacterOffsetBegin'
p1411
S'166'
p1412
stp1413
a(S'political'
p1414
(dp1415
S'NamedEntityTag'
p1416
g61
sS'CharacterOffsetEnd'
p1417
S'178'
p1418
sS'Lemma'
p1419
S'political'
p1420
sS'PartOfSpeech'
p1421
S'JJ'
p1422
sS'CharacterOffsetBegin'
p1423
S'169'
p1424
stp1425
a(S'turmoil'
p1426
(dp1427
S'NamedEntityTag'
p1428
g61
sS'CharacterOffsetEnd'
p1429
S'186'
p1430
sS'Lemma'
p1431
S'turmoil'
p1432
sS'PartOfSpeech'
p1433
S'NN'
p1434
sS'CharacterOffsetBegin'
p1435
S'179'
p1436
stp1437
a(g119
(dp1438
S'NamedEntityTag'
p1439
g61
sS'CharacterOffsetEnd'
p1440
S'187'
p1441
sS'Lemma'
p1442
g119
sS'PartOfSpeech'
p1443
g119
sS'CharacterOffsetBegin'
p1444
S'186'
p1445
stp1446
asa(dp1447
g7
S'(ROOT (S (S (NP (EX There)) (VP (VBZ is) (NP (NP (DT a) (NN climate)) (PP (IN of) (NP (NN division) (, ,) (NN confrontation) (CC and) (NN instability))) (PP (IN in) (NP (NNP Chile)))))) (, ,) (NP (JJ parliamentary) (NN deputy) (NNP Alberto) (NNP Espina)) (VP (VBD told) (NP (NNS reporters)) (PP (IN in) (NP (NNP Madrid))) (PP (IN after) (S (VP (VBG meeting) (NP (DT the) (JJ Chilean) (NN ambassador)))))) (. .)))'
p1448
sg9
S'There is a climate of division, confrontation and instability in Chile, parliamentary deputy Alberto Espina told reporters in Madrid after meeting the Chilean ambassador.'
p1449
sg11
(lp1450
(S'root'
p1451
S'ROOT'
p1452
S'told'
p1453
tp1454
a(S'expl'
p1455
S'is'
p1456
S'There'
p1457
tp1458
a(S'ccomp'
p1459
S'told'
p1460
S'is'
p1461
tp1462
a(S'det'
p1463
S'climate'
p1464
g1076
tp1465
a(S'nsubj'
p1466
S'is'
p1467
S'climate'
p1468
tp1469
a(S'prep_of'
p1470
S'climate'
p1471
S'division'
p1472
tp1473
a(S'conj_and'
p1474
S'division'
p1475
S'confrontation'
p1476
tp1477
a(S'conj_and'
p1478
S'division'
p1479
S'instability'
p1480
tp1481
a(S'prep_in'
p1482
S'climate'
p1483
S'Chile'
p1484
tp1485
a(S'amod'
p1486
S'Espina'
p1487
S'parliamentary'
p1488
tp1489
a(S'nn'
p1490
S'Espina'
p1491
S'deputy'
p1492
tp1493
a(S'nn'
p1494
S'Espina'
p1495
S'Alberto'
p1496
tp1497
a(S'nsubj'
p1498
S'told'
p1499
S'Espina'
p1500
tp1501
a(S'dobj'
p1502
S'told'
p1503
S'reporters'
p1504
tp1505
a(S'prep_in'
p1506
S'told'
p1507
S'Madrid'
p1508
tp1509
a(S'prepc_after'
p1510
S'told'
p1511
S'meeting'
p1512
tp1513
a(S'det'
p1514
S'ambassador'
p1515
S'the'
p1516
tp1517
a(S'amod'
p1518
S'ambassador'
p1519
S'Chilean'
p1520
tp1521
a(S'dobj'
p1522
S'meeting'
p1523
S'ambassador'
p1524
tp1525
asg29
(lp1526
(g1451
S'ROOT-0'
p1527
S'told-18'
p1528
tp1529
a(g1455
S'is-2'
p1530
S'There-1'
p1531
tp1532
a(g1459
S'told-18'
p1533
S'is-2'
p1534
tp1535
a(g1463
S'climate-4'
p1536
S'a-3'
p1537
tp1538
a(g1466
S'is-2'
p1539
S'climate-4'
p1540
tp1541
a(g1470
S'climate-4'
p1542
S'division-6'
p1543
tp1544
a(g1474
S'division-6'
p1545
S'confrontation-8'
p1546
tp1547
a(g1478
S'division-6'
p1548
S'instability-10'
p1549
tp1550
a(g1482
S'climate-4'
p1551
S'Chile-12'
p1552
tp1553
a(g1486
S'Espina-17'
p1554
S'parliamentary-14'
p1555
tp1556
a(g1490
S'Espina-17'
p1557
S'deputy-15'
p1558
tp1559
a(g1494
S'Espina-17'
p1560
S'Alberto-16'
p1561
tp1562
a(g1498
S'told-18'
p1563
S'Espina-17'
p1564
tp1565
a(g1502
S'told-18'
p1566
S'reporters-19'
p1567
tp1568
a(g1506
S'told-18'
p1569
S'Madrid-21'
p1570
tp1571
a(g1510
S'told-18'
p1572
S'meeting-23'
p1573
tp1574
a(g1514
S'ambassador-26'
p1575
S'the-24'
p1576
tp1577
a(g1518
S'ambassador-26'
p1578
S'Chilean-25'
p1579
tp1580
a(g1522
S'meeting-23'
p1581
S'ambassador-26'
p1582
tp1583
asg43
(lp1584
(S'There'
p1585
(dp1586
S'NamedEntityTag'
p1587
g61
sS'CharacterOffsetEnd'
p1588
S'193'
p1589
sS'Lemma'
p1590
S'there'
p1591
sS'PartOfSpeech'
p1592
S'EX'
p1593
sS'CharacterOffsetBegin'
p1594
S'188'
p1595
stp1596
a(S'is'
p1597
(dp1598
S'NamedEntityTag'
p1599
g61
sS'CharacterOffsetEnd'
p1600
S'196'
p1601
sS'Lemma'
p1602
S'be'
p1603
sS'PartOfSpeech'
p1604
S'VBZ'
p1605
sS'CharacterOffsetBegin'
p1606
S'194'
p1607
stp1608
a(g1076
(dp1609
S'NamedEntityTag'
p1610
g61
sS'CharacterOffsetEnd'
p1611
S'198'
p1612
sS'Lemma'
p1613
g1076
sS'PartOfSpeech'
p1614
S'DT'
p1615
sS'CharacterOffsetBegin'
p1616
S'197'
p1617
stp1618
a(S'climate'
p1619
(dp1620
S'NamedEntityTag'
p1621
g61
sS'CharacterOffsetEnd'
p1622
S'206'
p1623
sS'Lemma'
p1624
S'climate'
p1625
sS'PartOfSpeech'
p1626
S'NN'
p1627
sS'CharacterOffsetBegin'
p1628
S'199'
p1629
stp1630
a(S'of'
p1631
(dp1632
S'NamedEntityTag'
p1633
g61
sS'CharacterOffsetEnd'
p1634
S'209'
p1635
sS'Lemma'
p1636
S'of'
p1637
sS'PartOfSpeech'
p1638
S'IN'
p1639
sS'CharacterOffsetBegin'
p1640
S'207'
p1641
stp1642
a(S'division'
p1643
(dp1644
S'NamedEntityTag'
p1645
g61
sS'CharacterOffsetEnd'
p1646
S'218'
p1647
sS'Lemma'
p1648
S'division'
p1649
sS'PartOfSpeech'
p1650
S'NN'
p1651
sS'CharacterOffsetBegin'
p1652
S'210'
p1653
stp1654
a(g1290
(dp1655
S'NamedEntityTag'
p1656
g61
sS'CharacterOffsetEnd'
p1657
S'219'
p1658
sS'Lemma'
p1659
g1290
sS'PartOfSpeech'
p1660
g1290
sS'CharacterOffsetBegin'
p1661
S'218'
p1662
stp1663
a(S'confrontation'
p1664
(dp1665
S'NamedEntityTag'
p1666
g61
sS'CharacterOffsetEnd'
p1667
S'233'
p1668
sS'Lemma'
p1669
S'confrontation'
p1670
sS'PartOfSpeech'
p1671
S'NN'
p1672
sS'CharacterOffsetBegin'
p1673
S'220'
p1674
stp1675
a(S'and'
p1676
(dp1677
S'NamedEntityTag'
p1678
g61
sS'CharacterOffsetEnd'
p1679
S'237'
p1680
sS'Lemma'
p1681
S'and'
p1682
sS'PartOfSpeech'
p1683
S'CC'
p1684
sS'CharacterOffsetBegin'
p1685
S'234'
p1686
stp1687
a(S'instability'
p1688
(dp1689
S'NamedEntityTag'
p1690
g61
sS'CharacterOffsetEnd'
p1691
S'249'
p1692
sS'Lemma'
p1693
S'instability'
p1694
sS'PartOfSpeech'
p1695
S'NN'
p1696
sS'CharacterOffsetBegin'
p1697
S'238'
p1698
stp1699
a(S'in'
p1700
(dp1701
S'NamedEntityTag'
p1702
g61
sS'CharacterOffsetEnd'
p1703
S'252'
p1704
sS'Lemma'
p1705
S'in'
p1706
sS'PartOfSpeech'
p1707
S'IN'
p1708
sS'CharacterOffsetBegin'
p1709
S'250'
p1710
stp1711
a(S'Chile'
p1712
(dp1713
S'NamedEntityTag'
p1714
S'LOCATION'
p1715
sS'CharacterOffsetEnd'
p1716
S'258'
p1717
sS'Lemma'
p1718
S'Chile'
p1719
sS'PartOfSpeech'
p1720
S'NNP'
p1721
sS'CharacterOffsetBegin'
p1722
S'253'
p1723
stp1724
a(g1290
(dp1725
S'NamedEntityTag'
p1726
g61
sS'CharacterOffsetEnd'
p1727
S'259'
p1728
sS'Lemma'
p1729
g1290
sS'PartOfSpeech'
p1730
g1290
sS'CharacterOffsetBegin'
p1731
S'258'
p1732
stp1733
a(S'parliamentary'
p1734
(dp1735
S'NamedEntityTag'
p1736
g61
sS'CharacterOffsetEnd'
p1737
S'273'
p1738
sS'Lemma'
p1739
S'parliamentary'
p1740
sS'PartOfSpeech'
p1741
S'JJ'
p1742
sS'CharacterOffsetBegin'
p1743
S'260'
p1744
stp1745
a(S'deputy'
p1746
(dp1747
S'NamedEntityTag'
p1748
g61
sS'CharacterOffsetEnd'
p1749
S'280'
p1750
sS'Lemma'
p1751
S'deputy'
p1752
sS'PartOfSpeech'
p1753
S'NN'
p1754
sS'CharacterOffsetBegin'
p1755
S'274'
p1756
stp1757
a(S'Alberto'
p1758
(dp1759
S'NamedEntityTag'
p1760
S'PERSON'
p1761
sS'CharacterOffsetEnd'
p1762
S'288'
p1763
sS'Lemma'
p1764
S'Alberto'
p1765
sS'PartOfSpeech'
p1766
S'NNP'
p1767
sS'CharacterOffsetBegin'
p1768
S'281'
p1769
stp1770
a(S'Espina'
p1771
(dp1772
S'NamedEntityTag'
p1773
S'PERSON'
p1774
sS'CharacterOffsetEnd'
p1775
S'295'
p1776
sS'Lemma'
p1777
S'Espina'
p1778
sS'PartOfSpeech'
p1779
S'NNP'
p1780
sS'CharacterOffsetBegin'
p1781
S'289'
p1782
stp1783
a(S'told'
p1784
(dp1785
S'NamedEntityTag'
p1786
g61
sS'CharacterOffsetEnd'
p1787
S'300'
p1788
sS'Lemma'
p1789
S'tell'
p1790
sS'PartOfSpeech'
p1791
S'VBD'
p1792
sS'CharacterOffsetBegin'
p1793
S'296'
p1794
stp1795
a(S'reporters'
p1796
(dp1797
S'NamedEntityTag'
p1798
g61
sS'CharacterOffsetEnd'
p1799
S'310'
p1800
sS'Lemma'
p1801
S'reporter'
p1802
sS'PartOfSpeech'
p1803
S'NNS'
p1804
sS'CharacterOffsetBegin'
p1805
S'301'
p1806
stp1807
a(S'in'
p1808
(dp1809
S'NamedEntityTag'
p1810
g61
sS'CharacterOffsetEnd'
p1811
S'313'
p1812
sS'Lemma'
p1813
S'in'
p1814
sS'PartOfSpeech'
p1815
S'IN'
p1816
sS'CharacterOffsetBegin'
p1817
S'311'
p1818
stp1819
a(S'Madrid'
p1820
(dp1821
S'NamedEntityTag'
p1822
S'LOCATION'
p1823
sS'CharacterOffsetEnd'
p1824
S'320'
p1825
sS'Lemma'
p1826
S'Madrid'
p1827
sS'PartOfSpeech'
p1828
S'NNP'
p1829
sS'CharacterOffsetBegin'
p1830
S'314'
p1831
stp1832
a(S'after'
p1833
(dp1834
S'NamedEntityTag'
p1835
g61
sS'CharacterOffsetEnd'
p1836
S'326'
p1837
sS'Lemma'
p1838
S'after'
p1839
sS'PartOfSpeech'
p1840
S'IN'
p1841
sS'CharacterOffsetBegin'
p1842
S'321'
p1843
stp1844
a(S'meeting'
p1845
(dp1846
S'NamedEntityTag'
p1847
g61
sS'CharacterOffsetEnd'
p1848
S'334'
p1849
sS'Lemma'
p1850
S'meet'
p1851
sS'PartOfSpeech'
p1852
S'VBG'
p1853
sS'CharacterOffsetBegin'
p1854
S'327'
p1855
stp1856
a(S'the'
p1857
(dp1858
S'NamedEntityTag'
p1859
g61
sS'CharacterOffsetEnd'
p1860
S'338'
p1861
sS'Lemma'
p1862
S'the'
p1863
sS'PartOfSpeech'
p1864
S'DT'
p1865
sS'CharacterOffsetBegin'
p1866
S'335'
p1867
stp1868
a(S'Chilean'
p1869
(dp1870
S'NamedEntityTag'
p1871
S'MISC'
p1872
sS'CharacterOffsetEnd'
p1873
S'346'
p1874
sS'Lemma'
p1875
S'chilean'
p1876
sS'PartOfSpeech'
p1877
S'JJ'
p1878
sS'CharacterOffsetBegin'
p1879
S'339'
p1880
stp1881
a(S'ambassador'
p1882
(dp1883
S'NamedEntityTag'
p1884
g61
sS'CharacterOffsetEnd'
p1885
S'357'
p1886
sS'Lemma'
p1887
S'ambassador'
p1888
sS'PartOfSpeech'
p1889
S'NN'
p1890
sS'CharacterOffsetBegin'
p1891
S'347'
p1892
stp1893
a(g119
(dp1894
S'NamedEntityTag'
p1895
g61
sS'CharacterOffsetEnd'
p1896
S'358'
p1897
sS'Lemma'
p1898
g119
sS'PartOfSpeech'
p1899
g119
sS'CharacterOffsetBegin'
p1900
S'357'
p1901
stp1902
asa(dp1903
g7
S'(ROOT (S (NP (NNP Pinochet)) (VP (VBD was) (VP (VBN arrested) (PP (IN in) (NP (NNP London))) (PP (IN on) (NP (NP (NNP Oct) (CD 16)) (PP (IN at) (NP (NP (DT the) (NN instigation)) (PP (IN of) (NP (JJ Spanish) (NN magistrate) (NNP Baltasar) (NNP Garzon))))) (SBAR (WHNP (WP who)) (S (VP (VBZ is) (VP (VBG seeking) (S (VP (TO to) (VP (VP (VB extradite) (NP (DT the) (JJ former) (NN dictator)) (PP (IN on) (NP (NP (NNS charges)) (PP (IN of) (NP (NP (NN genocide)) (, ,) (NP (NN terrorism))))))) (CC and) (VP (VB torture))))))))))))) (. .)))'
p1904
sg9
S'Pinochet was arrested in London on Oct 16 at the instigation of Spanish magistrate Baltasar Garzon who is seeking to extradite the former dictator on charges of genocide, terrorism and torture.'
p1905
sg11
(lp1906
(S'root'
p1907
S'ROOT'
p1908
S'arrested'
p1909
tp1910
a(S'nsubjpass'
p1911
S'arrested'
p1912
S'Pinochet'
p1913
tp1914
a(S'auxpass'
p1915
S'arrested'
p1916
S'was'
p1917
tp1918
a(S'prep_in'
p1919
S'arrested'
p1920
S'London'
p1921
tp1922
a(S'prep_on'
p1923
S'arrested'
p1924
S'Oct'
p1925
tp1926
a(S'num'
p1927
S'Oct'
p1928
S'16'
p1929
tp1930
a(S'det'
p1931
S'instigation'
p1932
S'the'
p1933
tp1934
a(S'prep_at'
p1935
S'Oct'
p1936
S'instigation'
p1937
tp1938
a(S'amod'
p1939
S'Garzon'
p1940
S'Spanish'
p1941
tp1942
a(S'nn'
p1943
S'Garzon'
p1944
S'magistrate'
p1945
tp1946
a(S'nn'
p1947
S'Garzon'
p1948
S'Baltasar'
p1949
tp1950
a(S'prep_of'
p1951
S'instigation'
p1952
S'Garzon'
p1953
tp1954
a(S'nsubj'
p1955
S'seeking'
p1956
S'who'
p1957
tp1958
a(S'aux'
p1959
S'seeking'
p1960
S'is'
p1961
tp1962
a(S'rcmod'
p1963
S'Oct'
p1964
S'seeking'
p1965
tp1966
a(S'aux'
p1967
S'extradite'
p1968
S'to'
p1969
tp1970
a(S'xcomp'
p1971
S'seeking'
p1972
S'extradite'
p1973
tp1974
a(S'det'
p1975
S'dictator'
p1976
S'the'
p1977
tp1978
a(S'amod'
p1979
S'dictator'
p1980
S'former'
p1981
tp1982
a(S'dobj'
p1983
S'extradite'
p1984
S'dictator'
p1985
tp1986
a(S'prep_on'
p1987
S'extradite'
p1988
S'charges'
p1989
tp1990
a(S'prep_of'
p1991
S'charges'
p1992
S'genocide'
p1993
tp1994
a(S'appos'
p1995
S'genocide'
p1996
S'terrorism'
p1997
tp1998
a(S'conj_and'
p1999
S'extradite'
p2000
S'torture'
p2001
tp2002
asg29
(lp2003
(g1907
S'ROOT-0'
p2004
S'arrested-3'
p2005
tp2006
a(g1911
S'arrested-3'
p2007
S'Pinochet-1'
p2008
tp2009
a(g1915
S'arrested-3'
p2010
S'was-2'
p2011
tp2012
a(g1919
S'arrested-3'
p2013
S'London-5'
p2014
tp2015
a(g1923
S'arrested-3'
p2016
S'Oct-7'
p2017
tp2018
a(g1927
S'Oct-7'
p2019
S'16-8'
p2020
tp2021
a(g1931
S'instigation-11'
p2022
S'the-10'
p2023
tp2024
a(g1935
S'Oct-7'
p2025
S'instigation-11'
p2026
tp2027
a(g1939
S'Garzon-16'
p2028
S'Spanish-13'
p2029
tp2030
a(g1943
S'Garzon-16'
p2031
S'magistrate-14'
p2032
tp2033
a(g1947
S'Garzon-16'
p2034
S'Baltasar-15'
p2035
tp2036
a(g1951
S'instigation-11'
p2037
S'Garzon-16'
p2038
tp2039
a(g1955
S'seeking-19'
p2040
S'who-17'
p2041
tp2042
a(g1959
S'seeking-19'
p2043
S'is-18'
p2044
tp2045
a(g1963
S'Oct-7'
p2046
S'seeking-19'
p2047
tp2048
a(g1967
S'extradite-21'
p2049
S'to-20'
p2050
tp2051
a(g1971
S'seeking-19'
p2052
S'extradite-21'
p2053
tp2054
a(g1975
S'dictator-24'
p2055
S'the-22'
p2056
tp2057
a(g1979
S'dictator-24'
p2058
S'former-23'
p2059
tp2060
a(g1983
S'extradite-21'
p2061
S'dictator-24'
p2062
tp2063
a(g1987
S'extradite-21'
p2064
S'charges-26'
p2065
tp2066
a(g1991
S'charges-26'
p2067
S'genocide-28'
p2068
tp2069
a(g1995
S'genocide-28'
p2070
S'terrorism-30'
p2071
tp2072
a(g1999
S'extradite-21'
p2073
S'torture-32'
p2074
tp2075
asg43
(lp2076
(S'Pinochet'
p2077
(dp2078
S'NamedEntityTag'
p2079
S'PERSON'
p2080
sS'CharacterOffsetEnd'
p2081
S'367'
p2082
sS'Lemma'
p2083
S'Pinochet'
p2084
sS'PartOfSpeech'
p2085
S'NNP'
p2086
sS'CharacterOffsetBegin'
p2087
S'359'
p2088
stp2089
a(S'was'
p2090
(dp2091
S'NamedEntityTag'
p2092
g61
sS'CharacterOffsetEnd'
p2093
S'371'
p2094
sS'Lemma'
p2095
S'be'
p2096
sS'PartOfSpeech'
p2097
S'VBD'
p2098
sS'CharacterOffsetBegin'
p2099
S'368'
p2100
stp2101
a(S'arrested'
p2102
(dp2103
S'NamedEntityTag'
p2104
g61
sS'CharacterOffsetEnd'
p2105
S'380'
p2106
sS'Lemma'
p2107
S'arrest'
p2108
sS'PartOfSpeech'
p2109
S'VBN'
p2110
sS'CharacterOffsetBegin'
p2111
S'372'
p2112
stp2113
a(S'in'
p2114
(dp2115
S'NamedEntityTag'
p2116
g61
sS'CharacterOffsetEnd'
p2117
S'383'
p2118
sS'Lemma'
p2119
S'in'
p2120
sS'PartOfSpeech'
p2121
S'IN'
p2122
sS'CharacterOffsetBegin'
p2123
S'381'
p2124
stp2125
a(S'London'
p2126
(dp2127
S'NamedEntityTag'
p2128
S'LOCATION'
p2129
sS'CharacterOffsetEnd'
p2130
S'390'
p2131
sS'Lemma'
p2132
S'London'
p2133
sS'PartOfSpeech'
p2134
S'NNP'
p2135
sS'CharacterOffsetBegin'
p2136
S'384'
p2137
stp2138
a(S'on'
p2139
(dp2140
S'NamedEntityTag'
p2141
g61
sS'CharacterOffsetEnd'
p2142
S'393'
p2143
sS'Lemma'
p2144
S'on'
p2145
sS'PartOfSpeech'
p2146
S'IN'
p2147
sS'CharacterOffsetBegin'
p2148
S'391'
p2149
stp2150
a(S'Oct'
p2151
(dp2152
S'NormalizedNamedEntityTag'
p2153
S'XXXX-10-16'
p2154
sS'Timex'
p2155
S'<TIMEX3 tid="t2" type="DATE" value="XXXX-10-16">Oct 16</TIMEX3>'
p2156
sS'Lemma'
p2157
S'Oct'
p2158
sS'CharacterOffsetEnd'
p2159
S'397'
p2160
sS'PartOfSpeech'
p2161
S'NNP'
p2162
sS'CharacterOffsetBegin'
p2163
S'394'
p2164
sS'NamedEntityTag'
p2165
S'DATE'
p2166
stp2167
a(S'16'
p2168
(dp2169
S'NormalizedNamedEntityTag'
p2170
S'XXXX-10-16'
p2171
sS'Timex'
p2172
S'<TIMEX3 tid="t2" type="DATE" value="XXXX-10-16">Oct 16</TIMEX3>'
p2173
sS'Lemma'
p2174
S'16'
p2175
sS'CharacterOffsetEnd'
p2176
S'400'
p2177
sS'PartOfSpeech'
p2178
S'CD'
p2179
sS'CharacterOffsetBegin'
p2180
S'398'
p2181
sS'NamedEntityTag'
p2182
S'DATE'
p2183
stp2184
a(S'at'
p2185
(dp2186
S'NamedEntityTag'
p2187
g61
sS'CharacterOffsetEnd'
p2188
S'403'
p2189
sS'Lemma'
p2190
S'at'
p2191
sS'PartOfSpeech'
p2192
S'IN'
p2193
sS'CharacterOffsetBegin'
p2194
S'401'
p2195
stp2196
a(S'the'
p2197
(dp2198
S'NamedEntityTag'
p2199
g61
sS'CharacterOffsetEnd'
p2200
S'407'
p2201
sS'Lemma'
p2202
S'the'
p2203
sS'PartOfSpeech'
p2204
S'DT'
p2205
sS'CharacterOffsetBegin'
p2206
S'404'
p2207
stp2208
a(S'instigation'
p2209
(dp2210
S'NamedEntityTag'
p2211
g61
sS'CharacterOffsetEnd'
p2212
S'419'
p2213
sS'Lemma'
p2214
S'instigation'
p2215
sS'PartOfSpeech'
p2216
S'NN'
p2217
sS'CharacterOffsetBegin'
p2218
S'408'
p2219
stp2220
a(S'of'
p2221
(dp2222
S'NamedEntityTag'
p2223
g61
sS'CharacterOffsetEnd'
p2224
S'422'
p2225
sS'Lemma'
p2226
S'of'
p2227
sS'PartOfSpeech'
p2228
S'IN'
p2229
sS'CharacterOffsetBegin'
p2230
S'420'
p2231
stp2232
a(S'Spanish'
p2233
(dp2234
S'NamedEntityTag'
p2235
S'LOCATION'
p2236
sS'CharacterOffsetEnd'
p2237
S'430'
p2238
sS'Lemma'
p2239
S'spanish'
p2240
sS'PartOfSpeech'
p2241
S'JJ'
p2242
sS'CharacterOffsetBegin'
p2243
S'423'
p2244
stp2245
a(S'magistrate'
p2246
(dp2247
S'NamedEntityTag'
p2248
g61
sS'CharacterOffsetEnd'
p2249
S'441'
p2250
sS'Lemma'
p2251
S'magistrate'
p2252
sS'PartOfSpeech'
p2253
S'NN'
p2254
sS'CharacterOffsetBegin'
p2255
S'431'
p2256
stp2257
a(S'Baltasar'
p2258
(dp2259
S'NamedEntityTag'
p2260
S'PERSON'
p2261
sS'CharacterOffsetEnd'
p2262
S'450'
p2263
sS'Lemma'
p2264
S'Baltasar'
p2265
sS'PartOfSpeech'
p2266
S'NNP'
p2267
sS'CharacterOffsetBegin'
p2268
S'442'
p2269
stp2270
a(S'Garzon'
p2271
(dp2272
S'NamedEntityTag'
p2273
S'PERSON'
p2274
sS'CharacterOffsetEnd'
p2275
S'457'
p2276
sS'Lemma'
p2277
S'Garzon'
p2278
sS'PartOfSpeech'
p2279
S'NNP'
p2280
sS'CharacterOffsetBegin'
p2281
S'451'
p2282
stp2283
a(S'who'
p2284
(dp2285
S'NamedEntityTag'
p2286
g61
sS'CharacterOffsetEnd'
p2287
S'461'
p2288
sS'Lemma'
p2289
S'who'
p2290
sS'PartOfSpeech'
p2291
S'WP'
p2292
sS'CharacterOffsetBegin'
p2293
S'458'
p2294
stp2295
a(S'is'
p2296
(dp2297
S'NamedEntityTag'
p2298
g61
sS'CharacterOffsetEnd'
p2299
S'464'
p2300
sS'Lemma'
p2301
S'be'
p2302
sS'PartOfSpeech'
p2303
S'VBZ'
p2304
sS'CharacterOffsetBegin'
p2305
S'462'
p2306
stp2307
a(S'seeking'
p2308
(dp2309
S'NamedEntityTag'
p2310
g61
sS'CharacterOffsetEnd'
p2311
S'472'
p2312
sS'Lemma'
p2313
S'seek'
p2314
sS'PartOfSpeech'
p2315
S'VBG'
p2316
sS'CharacterOffsetBegin'
p2317
S'465'
p2318
stp2319
a(S'to'
p2320
(dp2321
S'NamedEntityTag'
p2322
g61
sS'CharacterOffsetEnd'
p2323
S'475'
p2324
sS'Lemma'
p2325
S'to'
p2326
sS'PartOfSpeech'
p2327
S'TO'
p2328
sS'CharacterOffsetBegin'
p2329
S'473'
p2330
stp2331
a(S'extradite'
p2332
(dp2333
S'NamedEntityTag'
p2334
g61
sS'CharacterOffsetEnd'
p2335
S'485'
p2336
sS'Lemma'
p2337
S'extradite'
p2338
sS'PartOfSpeech'
p2339
S'VB'
p2340
sS'CharacterOffsetBegin'
p2341
S'476'
p2342
stp2343
a(S'the'
p2344
(dp2345
S'NamedEntityTag'
p2346
g61
sS'CharacterOffsetEnd'
p2347
S'489'
p2348
sS'Lemma'
p2349
S'the'
p2350
sS'PartOfSpeech'
p2351
S'DT'
p2352
sS'CharacterOffsetBegin'
p2353
S'486'
p2354
stp2355
a(S'former'
p2356
(dp2357
S'NamedEntityTag'
p2358
g61
sS'CharacterOffsetEnd'
p2359
S'496'
p2360
sS'Lemma'
p2361
S'former'
p2362
sS'PartOfSpeech'
p2363
S'JJ'
p2364
sS'CharacterOffsetBegin'
p2365
S'490'
p2366
stp2367
a(S'dictator'
p2368
(dp2369
S'NamedEntityTag'
p2370
g61
sS'CharacterOffsetEnd'
p2371
S'505'
p2372
sS'Lemma'
p2373
S'dictator'
p2374
sS'PartOfSpeech'
p2375
S'NN'
p2376
sS'CharacterOffsetBegin'
p2377
S'497'
p2378
stp2379
a(S'on'
p2380
(dp2381
S'NamedEntityTag'
p2382
g61
sS'CharacterOffsetEnd'
p2383
S'508'
p2384
sS'Lemma'
p2385
S'on'
p2386
sS'PartOfSpeech'
p2387
S'IN'
p2388
sS'CharacterOffsetBegin'
p2389
S'506'
p2390
stp2391
a(S'charges'
p2392
(dp2393
S'NamedEntityTag'
p2394
g61
sS'CharacterOffsetEnd'
p2395
S'516'
p2396
sS'Lemma'
p2397
S'charge'
p2398
sS'PartOfSpeech'
p2399
S'NNS'
p2400
sS'CharacterOffsetBegin'
p2401
S'509'
p2402
stp2403
a(S'of'
p2404
(dp2405
S'NamedEntityTag'
p2406
g61
sS'CharacterOffsetEnd'
p2407
S'519'
p2408
sS'Lemma'
p2409
S'of'
p2410
sS'PartOfSpeech'
p2411
S'IN'
p2412
sS'CharacterOffsetBegin'
p2413
S'517'
p2414
stp2415
a(S'genocide'
p2416
(dp2417
S'NamedEntityTag'
p2418
g61
sS'CharacterOffsetEnd'
p2419
S'528'
p2420
sS'Lemma'
p2421
S'genocide'
p2422
sS'PartOfSpeech'
p2423
S'NN'
p2424
sS'CharacterOffsetBegin'
p2425
S'520'
p2426
stp2427
a(g1290
(dp2428
S'NamedEntityTag'
p2429
g61
sS'CharacterOffsetEnd'
p2430
S'529'
p2431
sS'Lemma'
p2432
g1290
sS'PartOfSpeech'
p2433
g1290
sS'CharacterOffsetBegin'
p2434
S'528'
p2435
stp2436
a(S'terrorism'
p2437
(dp2438
S'NamedEntityTag'
p2439
g61
sS'CharacterOffsetEnd'
p2440
S'539'
p2441
sS'Lemma'
p2442
S'terrorism'
p2443
sS'PartOfSpeech'
p2444
S'NN'
p2445
sS'CharacterOffsetBegin'
p2446
S'530'
p2447
stp2448
a(S'and'
p2449
(dp2450
S'NamedEntityTag'
p2451
g61
sS'CharacterOffsetEnd'
p2452
S'543'
p2453
sS'Lemma'
p2454
S'and'
p2455
sS'PartOfSpeech'
p2456
S'CC'
p2457
sS'CharacterOffsetBegin'
p2458
S'540'
p2459
stp2460
a(S'torture'
p2461
(dp2462
S'NamedEntityTag'
p2463
g61
sS'CharacterOffsetEnd'
p2464
S'551'
p2465
sS'Lemma'
p2466
S'torture'
p2467
sS'PartOfSpeech'
p2468
S'VB'
p2469
sS'CharacterOffsetBegin'
p2470
S'544'
p2471
stp2472
a(g119
(dp2473
S'NamedEntityTag'
p2474
g61
sS'CharacterOffsetEnd'
p2475
S'552'
p2476
sS'Lemma'
p2477
g119
sS'PartOfSpeech'
p2478
g119
sS'CharacterOffsetBegin'
p2479
S'551'
p2480
stp2481
asa(dp2482
g7
S'(ROOT (S (PP (IN In) (NP (NNP Chile))) (, ,) (NP (DT the) (NN detention)) (VP (VBD triggered) (NP (CC both) (NP (NP (NNS celebrations)) (PP (IN by) (NP (NP (NNS relatives)) (PP (IN of) (NP (NP (NNS victims)) (PP (IN of) (NP (NNP Pinochets) (CD 1973-1990) (NN regime)))))))) (CC and) (NP (NP (NNS protests)) (PP (IN from) (NP (DT the) (VBN retired) (NNS generals) (NNS supporters)))))) (. .)))'
p2483
sg9
S'In Chile, the detention triggered both celebrations by relatives of victims of Pinochets 1973-1990 regime and protests from the retired generals supporters.'
p2484
sg11
(lp2485
(S'root'
p2486
S'ROOT'
p2487
S'triggered'
p2488
tp2489
a(S'prep_in'
p2490
S'triggered'
p2491
S'Chile'
p2492
tp2493
a(S'det'
p2494
S'detention'
p2495
S'the'
p2496
tp2497
a(S'nsubj'
p2498
S'triggered'
p2499
S'detention'
p2500
tp2501
a(S'preconj'
p2502
S'celebrations'
p2503
S'both'
p2504
tp2505
a(S'dobj'
p2506
S'triggered'
p2507
S'celebrations'
p2508
tp2509
a(S'prep_by'
p2510
S'celebrations'
p2511
S'relatives'
p2512
tp2513
a(S'prep_of'
p2514
S'relatives'
p2515
S'victims'
p2516
tp2517
a(S'nn'
p2518
S'regime'
p2519
S'Pinochets'
p2520
tp2521
a(S'num'
p2522
S'regime'
p2523
S'1973-1990'
p2524
tp2525
a(S'prep_of'
p2526
S'victims'
p2527
S'regime'
p2528
tp2529
a(S'conj_and'
p2530
S'celebrations'
p2531
S'protests'
p2532
tp2533
a(S'det'
p2534
S'supporters'
p2535
S'the'
p2536
tp2537
a(S'amod'
p2538
S'supporters'
p2539
S'retired'
p2540
tp2541
a(S'nn'
p2542
S'supporters'
p2543
S'generals'
p2544
tp2545
a(S'prep_from'
p2546
S'protests'
p2547
S'supporters'
p2548
tp2549
asg29
(lp2550
(g2486
S'ROOT-0'
p2551
S'triggered-6'
p2552
tp2553
a(g2490
S'triggered-6'
p2554
S'Chile-2'
p2555
tp2556
a(g2494
S'detention-5'
p2557
S'the-4'
p2558
tp2559
a(g2498
S'triggered-6'
p2560
S'detention-5'
p2561
tp2562
a(g2502
S'celebrations-8'
p2563
S'both-7'
p2564
tp2565
a(g2506
S'triggered-6'
p2566
S'celebrations-8'
p2567
tp2568
a(g2510
S'celebrations-8'
p2569
S'relatives-10'
p2570
tp2571
a(g2514
S'relatives-10'
p2572
S'victims-12'
p2573
tp2574
a(g2518
S'regime-16'
p2575
S'Pinochets-14'
p2576
tp2577
a(g2522
S'regime-16'
p2578
S'1973-1990-15'
p2579
tp2580
a(g2526
S'victims-12'
p2581
S'regime-16'
p2582
tp2583
a(g2530
S'celebrations-8'
p2584
S'protests-18'
p2585
tp2586
a(g2534
S'supporters-23'
p2587
S'the-20'
p2588
tp2589
a(g2538
S'supporters-23'
p2590
S'retired-21'
p2591
tp2592
a(g2542
S'supporters-23'
p2593
S'generals-22'
p2594
tp2595
a(g2546
S'protests-18'
p2596
S'supporters-23'
p2597
tp2598
asg43
(lp2599
(S'In'
p2600
(dp2601
S'NamedEntityTag'
p2602
g61
sS'CharacterOffsetEnd'
p2603
S'555'
p2604
sS'Lemma'
p2605
S'in'
p2606
sS'PartOfSpeech'
p2607
S'IN'
p2608
sS'CharacterOffsetBegin'
p2609
S'553'
p2610
stp2611
a(S'Chile'
p2612
(dp2613
S'NamedEntityTag'
p2614
S'LOCATION'
p2615
sS'CharacterOffsetEnd'
p2616
S'561'
p2617
sS'Lemma'
p2618
S'Chile'
p2619
sS'PartOfSpeech'
p2620
S'NNP'
p2621
sS'CharacterOffsetBegin'
p2622
S'556'
p2623
stp2624
a(g1290
(dp2625
S'NamedEntityTag'
p2626
g61
sS'CharacterOffsetEnd'
p2627
S'562'
p2628
sS'Lemma'
p2629
g1290
sS'PartOfSpeech'
p2630
g1290
sS'CharacterOffsetBegin'
p2631
S'561'
p2632
stp2633
a(S'the'
p2634
(dp2635
S'NamedEntityTag'
p2636
g61
sS'CharacterOffsetEnd'
p2637
S'566'
p2638
sS'Lemma'
p2639
S'the'
p2640
sS'PartOfSpeech'
p2641
S'DT'
p2642
sS'CharacterOffsetBegin'
p2643
S'563'
p2644
stp2645
a(S'detention'
p2646
(dp2647
S'NamedEntityTag'
p2648
g61
sS'CharacterOffsetEnd'
p2649
S'576'
p2650
sS'Lemma'
p2651
S'detention'
p2652
sS'PartOfSpeech'
p2653
S'NN'
p2654
sS'CharacterOffsetBegin'
p2655
S'567'
p2656
stp2657
a(S'triggered'
p2658
(dp2659
S'NamedEntityTag'
p2660
g61
sS'CharacterOffsetEnd'
p2661
S'586'
p2662
sS'Lemma'
p2663
S'trigger'
p2664
sS'PartOfSpeech'
p2665
S'VBD'
p2666
sS'CharacterOffsetBegin'
p2667
S'577'
p2668
stp2669
a(S'both'
p2670
(dp2671
S'NamedEntityTag'
p2672
g61
sS'CharacterOffsetEnd'
p2673
S'591'
p2674
sS'Lemma'
p2675
S'both'
p2676
sS'PartOfSpeech'
p2677
S'CC'
p2678
sS'CharacterOffsetBegin'
p2679
S'587'
p2680
stp2681
a(S'celebrations'
p2682
(dp2683
S'NamedEntityTag'
p2684
g61
sS'CharacterOffsetEnd'
p2685
S'604'
p2686
sS'Lemma'
p2687
S'celebration'
p2688
sS'PartOfSpeech'
p2689
S'NNS'
p2690
sS'CharacterOffsetBegin'
p2691
S'592'
p2692
stp2693
a(S'by'
p2694
(dp2695
S'NamedEntityTag'
p2696
g61
sS'CharacterOffsetEnd'
p2697
S'607'
p2698
sS'Lemma'
p2699
S'by'
p2700
sS'PartOfSpeech'
p2701
S'IN'
p2702
sS'CharacterOffsetBegin'
p2703
S'605'
p2704
stp2705
a(S'relatives'
p2706
(dp2707
S'NamedEntityTag'
p2708
g61
sS'CharacterOffsetEnd'
p2709
S'617'
p2710
sS'Lemma'
p2711
S'relative'
p2712
sS'PartOfSpeech'
p2713
S'NNS'
p2714
sS'CharacterOffsetBegin'
p2715
S'608'
p2716
stp2717
a(S'of'
p2718
(dp2719
S'NamedEntityTag'
p2720
g61
sS'CharacterOffsetEnd'
p2721
S'620'
p2722
sS'Lemma'
p2723
S'of'
p2724
sS'PartOfSpeech'
p2725
S'IN'
p2726
sS'CharacterOffsetBegin'
p2727
S'618'
p2728
stp2729
a(S'victims'
p2730
(dp2731
S'NamedEntityTag'
p2732
g61
sS'CharacterOffsetEnd'
p2733
S'628'
p2734
sS'Lemma'
p2735
S'victim'
p2736
sS'PartOfSpeech'
p2737
S'NNS'
p2738
sS'CharacterOffsetBegin'
p2739
S'621'
p2740
stp2741
a(S'of'
p2742
(dp2743
S'NamedEntityTag'
p2744
g61
sS'CharacterOffsetEnd'
p2745
S'631'
p2746
sS'Lemma'
p2747
S'of'
p2748
sS'PartOfSpeech'
p2749
S'IN'
p2750
sS'CharacterOffsetBegin'
p2751
S'629'
p2752
stp2753
a(S'Pinochets'
p2754
(dp2755
S'NamedEntityTag'
p2756
S'LOCATION'
p2757
sS'CharacterOffsetEnd'
p2758
S'641'
p2759
sS'Lemma'
p2760
S'Pinochets'
p2761
sS'PartOfSpeech'
p2762
S'NNP'
p2763
sS'CharacterOffsetBegin'
p2764
S'632'
p2765
stp2766
a(S'1973-1990'
p2767
(dp2768
S'NormalizedNamedEntityTag'
p2769
S'PT149016H'
p2770
sS'Timex'
p2771
S'<TIMEX3 beginPoint="t3" endPoint="t4" tid="t5" type="DURATION" value="PT149016H">1973-1990</TIMEX3>'
p2772
sS'Lemma'
p2773
S'1973-1990'
p2774
sS'CharacterOffsetEnd'
p2775
S'651'
p2776
sS'PartOfSpeech'
p2777
S'CD'
p2778
sS'CharacterOffsetBegin'
p2779
S'642'
p2780
sS'NamedEntityTag'
p2781
S'DURATION'
p2782
stp2783
a(S'regime'
p2784
(dp2785
S'NamedEntityTag'
p2786
g61
sS'CharacterOffsetEnd'
p2787
S'658'
p2788
sS'Lemma'
p2789
S'regime'
p2790
sS'PartOfSpeech'
p2791
S'NN'
p2792
sS'CharacterOffsetBegin'
p2793
S'652'
p2794
stp2795
a(S'and'
p2796
(dp2797
S'NamedEntityTag'
p2798
g61
sS'CharacterOffsetEnd'
p2799
S'662'
p2800
sS'Lemma'
p2801
S'and'
p2802
sS'PartOfSpeech'
p2803
S'CC'
p2804
sS'CharacterOffsetBegin'
p2805
S'659'
p2806
stp2807
a(S'protests'
p2808
(dp2809
S'NamedEntityTag'
p2810
g61
sS'CharacterOffsetEnd'
p2811
S'671'
p2812
sS'Lemma'
p2813
S'protest'
p2814
sS'PartOfSpeech'
p2815
S'NNS'
p2816
sS'CharacterOffsetBegin'
p2817
S'663'
p2818
stp2819
a(S'from'
p2820
(dp2821
S'NamedEntityTag'
p2822
g61
sS'CharacterOffsetEnd'
p2823
S'676'
p2824
sS'Lemma'
p2825
S'from'
p2826
sS'PartOfSpeech'
p2827
S'IN'
p2828
sS'CharacterOffsetBegin'
p2829
S'672'
p2830
stp2831
a(S'the'
p2832
(dp2833
S'NamedEntityTag'
p2834
g61
sS'CharacterOffsetEnd'
p2835
S'680'
p2836
sS'Lemma'
p2837
S'the'
p2838
sS'PartOfSpeech'
p2839
S'DT'
p2840
sS'CharacterOffsetBegin'
p2841
S'677'
p2842
stp2843
a(S'retired'
p2844
(dp2845
S'NamedEntityTag'
p2846
g61
sS'CharacterOffsetEnd'
p2847
S'688'
p2848
sS'Lemma'
p2849
S'retire'
p2850
sS'PartOfSpeech'
p2851
S'VBN'
p2852
sS'CharacterOffsetBegin'
p2853
S'681'
p2854
stp2855
a(S'generals'
p2856
(dp2857
S'NamedEntityTag'
p2858
g61
sS'CharacterOffsetEnd'
p2859
S'697'
p2860
sS'Lemma'
p2861
S'general'
p2862
sS'PartOfSpeech'
p2863
S'NNS'
p2864
sS'CharacterOffsetBegin'
p2865
S'689'
p2866
stp2867
a(S'supporters'
p2868
(dp2869
S'NamedEntityTag'
p2870
g61
sS'CharacterOffsetEnd'
p2871
S'708'
p2872
sS'Lemma'
p2873
S'supporter'
p2874
sS'PartOfSpeech'
p2875
S'NNS'
p2876
sS'CharacterOffsetBegin'
p2877
S'698'
p2878
stp2879
a(g119
(dp2880
S'NamedEntityTag'
p2881
g61
sS'CharacterOffsetEnd'
p2882
S'709'
p2883
sS'Lemma'
p2884
g119
sS'PartOfSpeech'
p2885
g119
sS'CharacterOffsetBegin'
p2886
S'708'
p2887
stp2888
asa(dp2889
g7
S'(ROOT (S (NP (NNP Espina)) (ADVP (RB also)) (VP (VBD warned) (SBAR (IN that) (S (NP (DT the) (NN issue)) (VP (VBD was) (NP (NP (JJ damaging) (NNS relations)) (PP (IN between) (NP (NNP Chile) (NNP Spain) (CC and) (NNP Britain)))))))) (. .)))'
p2890
sg9
S'Espina also warned that the issue was damaging relations between Chile Spain and Britain.'
p2891
sg11
(lp2892
(S'root'
p2893
S'ROOT'
p2894
S'warned'
p2895
tp2896
a(S'nsubj'
p2897
S'warned'
p2898
S'Espina'
p2899
tp2900
a(S'advmod'
p2901
S'warned'
p2902
S'also'
p2903
tp2904
a(S'mark'
p2905
S'relations'
p2906
S'that'
p2907
tp2908
a(S'det'
p2909
S'issue'
p2910
S'the'
p2911
tp2912
a(S'nsubj'
p2913
S'relations'
p2914
S'issue'
p2915
tp2916
a(S'cop'
p2917
S'relations'
p2918
S'was'
p2919
tp2920
a(S'amod'
p2921
S'relations'
p2922
S'damaging'
p2923
tp2924
a(S'ccomp'
p2925
S'warned'
p2926
S'relations'
p2927
tp2928
a(S'nn'
p2929
S'Spain'
p2930
S'Chile'
p2931
tp2932
a(S'prep_between'
p2933
S'relations'
p2934
S'Spain'
p2935
tp2936
a(S'conj_and'
p2937
S'Spain'
p2938
S'Britain'
p2939
tp2940
asg29
(lp2941
(g2893
S'ROOT-0'
p2942
S'warned-3'
p2943
tp2944
a(g2897
S'warned-3'
p2945
S'Espina-1'
p2946
tp2947
a(g2901
S'warned-3'
p2948
S'also-2'
p2949
tp2950
a(g2905
S'relations-9'
p2951
S'that-4'
p2952
tp2953
a(g2909
S'issue-6'
p2954
S'the-5'
p2955
tp2956
a(g2913
S'relations-9'
p2957
S'issue-6'
p2958
tp2959
a(g2917
S'relations-9'
p2960
S'was-7'
p2961
tp2962
a(g2921
S'relations-9'
p2963
S'damaging-8'
p2964
tp2965
a(g2925
S'warned-3'
p2966
S'relations-9'
p2967
tp2968
a(g2929
S'Spain-12'
p2969
S'Chile-11'
p2970
tp2971
a(g2933
S'relations-9'
p2972
S'Spain-12'
p2973
tp2974
a(g2937
S'Spain-12'
p2975
S'Britain-14'
p2976
tp2977
asg43
(lp2978
(S'Espina'
p2979
(dp2980
S'NamedEntityTag'
p2981
S'PERSON'
p2982
sS'CharacterOffsetEnd'
p2983
S'716'
p2984
sS'Lemma'
p2985
S'Espina'
p2986
sS'PartOfSpeech'
p2987
S'NNP'
p2988
sS'CharacterOffsetBegin'
p2989
S'710'
p2990
stp2991
a(S'also'
p2992
(dp2993
S'NamedEntityTag'
p2994
g61
sS'CharacterOffsetEnd'
p2995
S'721'
p2996
sS'Lemma'
p2997
S'also'
p2998
sS'PartOfSpeech'
p2999
S'RB'
p3000
sS'CharacterOffsetBegin'
p3001
S'717'
p3002
stp3003
a(S'warned'
p3004
(dp3005
S'NamedEntityTag'
p3006
g61
sS'CharacterOffsetEnd'
p3007
S'728'
p3008
sS'Lemma'
p3009
S'warn'
p3010
sS'PartOfSpeech'
p3011
S'VBD'
p3012
sS'CharacterOffsetBegin'
p3013
S'722'
p3014
stp3015
a(S'that'
p3016
(dp3017
S'NamedEntityTag'
p3018
g61
sS'CharacterOffsetEnd'
p3019
S'733'
p3020
sS'Lemma'
p3021
S'that'
p3022
sS'PartOfSpeech'
p3023
S'IN'
p3024
sS'CharacterOffsetBegin'
p3025
S'729'
p3026
stp3027
a(S'the'
p3028
(dp3029
S'NamedEntityTag'
p3030
g61
sS'CharacterOffsetEnd'
p3031
S'737'
p3032
sS'Lemma'
p3033
S'the'
p3034
sS'PartOfSpeech'
p3035
S'DT'
p3036
sS'CharacterOffsetBegin'
p3037
S'734'
p3038
stp3039
a(S'issue'
p3040
(dp3041
S'NamedEntityTag'
p3042
g61
sS'CharacterOffsetEnd'
p3043
S'743'
p3044
sS'Lemma'
p3045
S'issue'
p3046
sS'PartOfSpeech'
p3047
S'NN'
p3048
sS'CharacterOffsetBegin'
p3049
S'738'
p3050
stp3051
a(S'was'
p3052
(dp3053
S'NamedEntityTag'
p3054
g61
sS'CharacterOffsetEnd'
p3055
S'747'
p3056
sS'Lemma'
p3057
S'be'
p3058
sS'PartOfSpeech'
p3059
S'VBD'
p3060
sS'CharacterOffsetBegin'
p3061
S'744'
p3062
stp3063
a(S'damaging'
p3064
(dp3065
S'NamedEntityTag'
p3066
g61
sS'CharacterOffsetEnd'
p3067
S'756'
p3068
sS'Lemma'
p3069
S'damaging'
p3070
sS'PartOfSpeech'
p3071
S'JJ'
p3072
sS'CharacterOffsetBegin'
p3073
S'748'
p3074
stp3075
a(S'relations'
p3076
(dp3077
S'NamedEntityTag'
p3078
g61
sS'CharacterOffsetEnd'
p3079
S'766'
p3080
sS'Lemma'
p3081
S'relation'
p3082
sS'PartOfSpeech'
p3083
S'NNS'
p3084
sS'CharacterOffsetBegin'
p3085
S'757'
p3086
stp3087
a(S'between'
p3088
(dp3089
S'NamedEntityTag'
p3090
g61
sS'CharacterOffsetEnd'
p3091
S'774'
p3092
sS'Lemma'
p3093
S'between'
p3094
sS'PartOfSpeech'
p3095
S'IN'
p3096
sS'CharacterOffsetBegin'
p3097
S'767'
p3098
stp3099
a(S'Chile'
p3100
(dp3101
S'NamedEntityTag'
p3102
S'LOCATION'
p3103
sS'CharacterOffsetEnd'
p3104
S'780'
p3105
sS'Lemma'
p3106
S'Chile'
p3107
sS'PartOfSpeech'
p3108
S'NNP'
p3109
sS'CharacterOffsetBegin'
p3110
S'775'
p3111
stp3112
a(S'Spain'
p3113
(dp3114
S'NamedEntityTag'
p3115
S'LOCATION'
p3116
sS'CharacterOffsetEnd'
p3117
S'786'
p3118
sS'Lemma'
p3119
S'Spain'
p3120
sS'PartOfSpeech'
p3121
S'NNP'
p3122
sS'CharacterOffsetBegin'
p3123
S'781'
p3124
stp3125
a(S'and'
p3126
(dp3127
S'NamedEntityTag'
p3128
g61
sS'CharacterOffsetEnd'
p3129
S'790'
p3130
sS'Lemma'
p3131
S'and'
p3132
sS'PartOfSpeech'
p3133
S'CC'
p3134
sS'CharacterOffsetBegin'
p3135
S'787'
p3136
stp3137
a(S'Britain'
p3138
(dp3139
S'NamedEntityTag'
p3140
S'LOCATION'
p3141
sS'CharacterOffsetEnd'
p3142
S'798'
p3143
sS'Lemma'
p3144
S'Britain'
p3145
sS'PartOfSpeech'
p3146
S'NNP'
p3147
sS'CharacterOffsetBegin'
p3148
S'791'
p3149
stp3150
a(g119
(dp3151
S'NamedEntityTag'
p3152
g61
sS'CharacterOffsetEnd'
p3153
S'799'
p3154
sS'Lemma'
p3155
g119
sS'PartOfSpeech'
p3156
g119
sS'CharacterOffsetBegin'
p3157
S'798'
p3158
stp3159
asa(dp3160
g7
S'(ROOT (S (NP (NNP Spain)) (VP (VBD was) (NP (NP (DT the) (JJS biggest) (JJ single) (NN investor)) (SBAR (S (PP (IN in) (NP (NNP Chile))) (NP-TMP (JJ last) (NN year)) (, ,) (VP (VBD followed) (ADVP (RB closely)) (PP (IN by) (NP (NNP Britain)))))))) (. .)))'
p3161
sg9
S'Spain was the biggest single investor in Chile last year, followed closely by Britain.'
p3162
sg11
(lp3163
(S'root'
p3164
S'ROOT'
p3165
S'investor'
p3166
tp3167
a(S'nsubj'
p3168
S'investor'
p3169
S'Spain'
p3170
tp3171
a(S'cop'
p3172
S'investor'
p3173
S'was'
p3174
tp3175
a(S'det'
p3176
S'investor'
p3177
S'the'
p3178
tp3179
a(S'amod'
p3180
S'investor'
p3181
S'biggest'
p3182
tp3183
a(S'amod'
p3184
S'investor'
p3185
S'single'
p3186
tp3187
a(S'prep_in'
p3188
S'followed'
p3189
S'Chile'
p3190
tp3191
a(S'amod'
p3192
S'year'
p3193
S'last'
p3194
tp3195
a(S'dep'
p3196
S'followed'
p3197
S'year'
p3198
tp3199
a(S'rcmod'
p3200
S'investor'
p3201
S'followed'
p3202
tp3203
a(S'advmod'
p3204
S'followed'
p3205
S'closely'
p3206
tp3207
a(S'prep_by'
p3208
S'followed'
p3209
S'Britain'
p3210
tp3211
asg29
(lp3212
(g3164
S'ROOT-0'
p3213
S'investor-6'
p3214
tp3215
a(g3168
S'investor-6'
p3216
S'Spain-1'
p3217
tp3218
a(g3172
S'investor-6'
p3219
S'was-2'
p3220
tp3221
a(g3176
S'investor-6'
p3222
S'the-3'
p3223
tp3224
a(g3180
S'investor-6'
p3225
S'biggest-4'
p3226
tp3227
a(g3184
S'investor-6'
p3228
S'single-5'
p3229
tp3230
a(g3188
S'followed-12'
p3231
S'Chile-8'
p3232
tp3233
a(g3192
S'year-10'
p3234
S'last-9'
p3235
tp3236
a(g3196
S'followed-12'
p3237
S'year-10'
p3238
tp3239
a(g3200
S'investor-6'
p3240
S'followed-12'
p3241
tp3242
a(g3204
S'followed-12'
p3243
S'closely-13'
p3244
tp3245
a(g3208
S'followed-12'
p3246
S'Britain-15'
p3247
tp3248
asg43
(lp3249
(S'Spain'
p3250
(dp3251
S'NamedEntityTag'
p3252
S'LOCATION'
p3253
sS'CharacterOffsetEnd'
p3254
S'805'
p3255
sS'Lemma'
p3256
S'Spain'
p3257
sS'PartOfSpeech'
p3258
S'NNP'
p3259
sS'CharacterOffsetBegin'
p3260
S'800'
p3261
stp3262
a(S'was'
p3263
(dp3264
S'NamedEntityTag'
p3265
g61
sS'CharacterOffsetEnd'
p3266
S'809'
p3267
sS'Lemma'
p3268
S'be'
p3269
sS'PartOfSpeech'
p3270
S'VBD'
p3271
sS'CharacterOffsetBegin'
p3272
S'806'
p3273
stp3274
a(S'the'
p3275
(dp3276
S'NamedEntityTag'
p3277
g61
sS'CharacterOffsetEnd'
p3278
S'813'
p3279
sS'Lemma'
p3280
S'the'
p3281
sS'PartOfSpeech'
p3282
S'DT'
p3283
sS'CharacterOffsetBegin'
p3284
S'810'
p3285
stp3286
a(S'biggest'
p3287
(dp3288
S'NamedEntityTag'
p3289
g61
sS'CharacterOffsetEnd'
p3290
S'821'
p3291
sS'Lemma'
p3292
S'biggest'
p3293
sS'PartOfSpeech'
p3294
S'JJS'
p3295
sS'CharacterOffsetBegin'
p3296
S'814'
p3297
stp3298
a(S'single'
p3299
(dp3300
S'NamedEntityTag'
p3301
g61
sS'CharacterOffsetEnd'
p3302
S'828'
p3303
sS'Lemma'
p3304
S'single'
p3305
sS'PartOfSpeech'
p3306
S'JJ'
p3307
sS'CharacterOffsetBegin'
p3308
S'822'
p3309
stp3310
a(S'investor'
p3311
(dp3312
S'NamedEntityTag'
p3313
g61
sS'CharacterOffsetEnd'
p3314
S'837'
p3315
sS'Lemma'
p3316
S'investor'
p3317
sS'PartOfSpeech'
p3318
S'NN'
p3319
sS'CharacterOffsetBegin'
p3320
S'829'
p3321
stp3322
a(S'in'
p3323
(dp3324
S'NamedEntityTag'
p3325
g61
sS'CharacterOffsetEnd'
p3326
S'840'
p3327
sS'Lemma'
p3328
S'in'
p3329
sS'PartOfSpeech'
p3330
S'IN'
p3331
sS'CharacterOffsetBegin'
p3332
S'838'
p3333
stp3334
a(S'Chile'
p3335
(dp3336
S'NamedEntityTag'
p3337
S'LOCATION'
p3338
sS'CharacterOffsetEnd'
p3339
S'846'
p3340
sS'Lemma'
p3341
S'Chile'
p3342
sS'PartOfSpeech'
p3343
S'NNP'
p3344
sS'CharacterOffsetBegin'
p3345
S'841'
p3346
stp3347
a(S'last'
p3348
(dp3349
S'NormalizedNamedEntityTag'
p3350
S'THIS'
p3351
sS'Timex'
p3352
S'<TIMEX3 alt_value="THIS P1Y OFFSET P-1Y" anchorTimeID="t7" temporalFunction="true" tid="t6" type="DATE" valueFromFunction="tf0">last year</TIMEX3>'
p3353
sS'Lemma'
p3354
S'last'
p3355
sS'CharacterOffsetEnd'
p3356
S'851'
p3357
sS'PartOfSpeech'
p3358
S'JJ'
p3359
sS'CharacterOffsetBegin'
p3360
S'847'
p3361
sS'NamedEntityTag'
p3362
S'DATE'
p3363
stp3364
a(S'year'
p3365
(dp3366
S'NormalizedNamedEntityTag'
p3367
S'THIS'
p3368
sS'Timex'
p3369
S'<TIMEX3 alt_value="THIS P1Y OFFSET P-1Y" anchorTimeID="t7" temporalFunction="true" tid="t6" type="DATE" valueFromFunction="tf0">last year</TIMEX3>'
p3370
sS'Lemma'
p3371
S'year'
p3372
sS'CharacterOffsetEnd'
p3373
S'856'
p3374
sS'PartOfSpeech'
p3375
S'NN'
p3376
sS'CharacterOffsetBegin'
p3377
S'852'
p3378
sS'NamedEntityTag'
p3379
S'DATE'
p3380
stp3381
a(g1290
(dp3382
S'NamedEntityTag'
p3383
g61
sS'CharacterOffsetEnd'
p3384
S'857'
p3385
sS'Lemma'
p3386
g1290
sS'PartOfSpeech'
p3387
g1290
sS'CharacterOffsetBegin'
p3388
S'856'
p3389
stp3390
a(S'followed'
p3391
(dp3392
S'NamedEntityTag'
p3393
g61
sS'CharacterOffsetEnd'
p3394
S'866'
p3395
sS'Lemma'
p3396
S'follow'
p3397
sS'PartOfSpeech'
p3398
S'VBD'
p3399
sS'CharacterOffsetBegin'
p3400
S'858'
p3401
stp3402
a(S'closely'
p3403
(dp3404
S'NamedEntityTag'
p3405
g61
sS'CharacterOffsetEnd'
p3406
S'874'
p3407
sS'Lemma'
p3408
S'closely'
p3409
sS'PartOfSpeech'
p3410
S'RB'
p3411
sS'CharacterOffsetBegin'
p3412
S'867'
p3413
stp3414
a(S'by'
p3415
(dp3416
S'NamedEntityTag'
p3417
g61
sS'CharacterOffsetEnd'
p3418
S'877'
p3419
sS'Lemma'
p3420
S'by'
p3421
sS'PartOfSpeech'
p3422
S'IN'
p3423
sS'CharacterOffsetBegin'
p3424
S'875'
p3425
stp3426
a(S'Britain'
p3427
(dp3428
S'NamedEntityTag'
p3429
S'LOCATION'
p3430
sS'CharacterOffsetEnd'
p3431
S'885'
p3432
sS'Lemma'
p3433
S'Britain'
p3434
sS'PartOfSpeech'
p3435
S'NNP'
p3436
sS'CharacterOffsetBegin'
p3437
S'878'
p3438
stp3439
a(g119
(dp3440
S'NamedEntityTag'
p3441
g61
sS'CharacterOffsetEnd'
p3442
S'886'
p3443
sS'Lemma'
p3444
g119
sS'PartOfSpeech'
p3445
g119
sS'CharacterOffsetBegin'
p3446
S'885'
p3447
stp3448
asa(dp3449
g7
S'(ROOT (S (NP (DT The) (NN deputy)) (VP (VBD arrived) (PP (IN in) (NP (NNP Madrid))) (NP-TMP (JJ late) (NNP Wednesday)) (S (VP (VBN accompanied) (PP (IN by) (NP (NP (DT the) (NNS senators) (NNP Jovino) (NNP Movoa)) (CC and) (NP (NNP Julio) (NNP Lagos))))))) (. .)))'
p3450
sg9
S'The deputy arrived in Madrid late Wednesday accompanied by the senators Jovino Movoa and Julio Lagos.'
p3451
sg11
(lp3452
(S'root'
p3453
S'ROOT'
p3454
S'arrived'
p3455
tp3456
a(S'det'
p3457
S'deputy'
p3458
S'The'
p3459
tp3460
a(S'nsubj'
p3461
S'arrived'
p3462
S'deputy'
p3463
tp3464
a(S'prep_in'
p3465
S'arrived'
p3466
S'Madrid'
p3467
tp3468
a(S'amod'
p3469
S'Wednesday'
p3470
S'late'
p3471
tp3472
a(S'tmod'
p3473
S'arrived'
p3474
S'Wednesday'
p3475
tp3476
a(S'dep'
p3477
S'arrived'
p3478
S'accompanied'
p3479
tp3480
a(S'det'
p3481
S'Movoa'
p3482
S'the'
p3483
tp3484
a(S'nn'
p3485
S'Movoa'
p3486
S'senators'
p3487
tp3488
a(S'nn'
p3489
S'Movoa'
p3490
S'Jovino'
p3491
tp3492
a(S'prep_by'
p3493
S'accompanied'
p3494
S'Movoa'
p3495
tp3496
a(S'nn'
p3497
S'Lagos'
p3498
S'Julio'
p3499
tp3500
a(S'conj_and'
p3501
S'Movoa'
p3502
S'Lagos'
p3503
tp3504
asg29
(lp3505
(g3453
S'ROOT-0'
p3506
S'arrived-3'
p3507
tp3508
a(g3457
S'deputy-2'
p3509
S'The-1'
p3510
tp3511
a(g3461
S'arrived-3'
p3512
S'deputy-2'
p3513
tp3514
a(g3465
S'arrived-3'
p3515
S'Madrid-5'
p3516
tp3517
a(g3469
S'Wednesday-7'
p3518
S'late-6'
p3519
tp3520
a(g3473
S'arrived-3'
p3521
S'Wednesday-7'
p3522
tp3523
a(g3477
S'arrived-3'
p3524
S'accompanied-8'
p3525
tp3526
a(g3481
S'Movoa-13'
p3527
S'the-10'
p3528
tp3529
a(g3485
S'Movoa-13'
p3530
S'senators-11'
p3531
tp3532
a(g3489
S'Movoa-13'
p3533
S'Jovino-12'
p3534
tp3535
a(g3493
S'accompanied-8'
p3536
S'Movoa-13'
p3537
tp3538
a(g3497
S'Lagos-16'
p3539
S'Julio-15'
p3540
tp3541
a(g3501
S'Movoa-13'
p3542
S'Lagos-16'
p3543
tp3544
asg43
(lp3545
(S'The'
p3546
(dp3547
S'NamedEntityTag'
p3548
g61
sS'CharacterOffsetEnd'
p3549
S'890'
p3550
sS'Lemma'
p3551
S'the'
p3552
sS'PartOfSpeech'
p3553
S'DT'
p3554
sS'CharacterOffsetBegin'
p3555
S'887'
p3556
stp3557
a(S'deputy'
p3558
(dp3559
S'NamedEntityTag'
p3560
g61
sS'CharacterOffsetEnd'
p3561
S'897'
p3562
sS'Lemma'
p3563
S'deputy'
p3564
sS'PartOfSpeech'
p3565
S'NN'
p3566
sS'CharacterOffsetBegin'
p3567
S'891'
p3568
stp3569
a(S'arrived'
p3570
(dp3571
S'NamedEntityTag'
p3572
g61
sS'CharacterOffsetEnd'
p3573
S'905'
p3574
sS'Lemma'
p3575
S'arrive'
p3576
sS'PartOfSpeech'
p3577
S'VBD'
p3578
sS'CharacterOffsetBegin'
p3579
S'898'
p3580
stp3581
a(S'in'
p3582
(dp3583
S'NamedEntityTag'
p3584
g61
sS'CharacterOffsetEnd'
p3585
S'908'
p3586
sS'Lemma'
p3587
S'in'
p3588
sS'PartOfSpeech'
p3589
S'IN'
p3590
sS'CharacterOffsetBegin'
p3591
S'906'
p3592
stp3593
a(S'Madrid'
p3594
(dp3595
S'NamedEntityTag'
p3596
S'LOCATION'
p3597
sS'CharacterOffsetEnd'
p3598
S'915'
p3599
sS'Lemma'
p3600
S'Madrid'
p3601
sS'PartOfSpeech'
p3602
S'NNP'
p3603
sS'CharacterOffsetBegin'
p3604
S'909'
p3605
stp3606
a(S'late'
p3607
(dp3608
S'NormalizedNamedEntityTag'
p3609
S'XXXX-WXX-3'
p3610
sS'Timex'
p3611
S'<TIMEX3 mod="LATE" tid="t8" type="DATE" value="XXXX-WXX-3">late Wednesday</TIMEX3>'
p3612
sS'Lemma'
p3613
S'late'
p3614
sS'CharacterOffsetEnd'
p3615
S'920'
p3616
sS'PartOfSpeech'
p3617
S'JJ'
p3618
sS'CharacterOffsetBegin'
p3619
S'916'
p3620
sS'NamedEntityTag'
p3621
S'DATE'
p3622
stp3623
a(S'Wednesday'
p3624
(dp3625
S'NormalizedNamedEntityTag'
p3626
S'XXXX-WXX-3'
p3627
sS'Timex'
p3628
S'<TIMEX3 mod="LATE" tid="t8" type="DATE" value="XXXX-WXX-3">late Wednesday</TIMEX3>'
p3629
sS'Lemma'
p3630
S'Wednesday'
p3631
sS'CharacterOffsetEnd'
p3632
S'930'
p3633
sS'PartOfSpeech'
p3634
S'NNP'
p3635
sS'CharacterOffsetBegin'
p3636
S'921'
p3637
sS'NamedEntityTag'
p3638
S'DATE'
p3639
stp3640
a(S'accompanied'
p3641
(dp3642
S'NamedEntityTag'
p3643
g61
sS'CharacterOffsetEnd'
p3644
S'942'
p3645
sS'Lemma'
p3646
S'accompany'
p3647
sS'PartOfSpeech'
p3648
S'VBN'
p3649
sS'CharacterOffsetBegin'
p3650
S'931'
p3651
stp3652
a(S'by'
p3653
(dp3654
S'NamedEntityTag'
p3655
g61
sS'CharacterOffsetEnd'
p3656
S'945'
p3657
sS'Lemma'
p3658
S'by'
p3659
sS'PartOfSpeech'
p3660
S'IN'
p3661
sS'CharacterOffsetBegin'
p3662
S'943'
p3663
stp3664
a(S'the'
p3665
(dp3666
S'NamedEntityTag'
p3667
g61
sS'CharacterOffsetEnd'
p3668
S'949'
p3669
sS'Lemma'
p3670
S'the'
p3671
sS'PartOfSpeech'
p3672
S'DT'
p3673
sS'CharacterOffsetBegin'
p3674
S'946'
p3675
stp3676
a(S'senators'
p3677
(dp3678
S'NamedEntityTag'
p3679
g61
sS'CharacterOffsetEnd'
p3680
S'958'
p3681
sS'Lemma'
p3682
S'senator'
p3683
sS'PartOfSpeech'
p3684
S'NNS'
p3685
sS'CharacterOffsetBegin'
p3686
S'950'
p3687
stp3688
a(S'Jovino'
p3689
(dp3690
S'NamedEntityTag'
p3691
S'PERSON'
p3692
sS'CharacterOffsetEnd'
p3693
S'965'
p3694
sS'Lemma'
p3695
S'Jovino'
p3696
sS'PartOfSpeech'
p3697
S'NNP'
p3698
sS'CharacterOffsetBegin'
p3699
S'959'
p3700
stp3701
a(S'Movoa'
p3702
(dp3703
S'NamedEntityTag'
p3704
S'PERSON'
p3705
sS'CharacterOffsetEnd'
p3706
S'971'
p3707
sS'Lemma'
p3708
S'Movoa'
p3709
sS'PartOfSpeech'
p3710
S'NNP'
p3711
sS'CharacterOffsetBegin'
p3712
S'966'
p3713
stp3714
a(S'and'
p3715
(dp3716
S'NamedEntityTag'
p3717
g61
sS'CharacterOffsetEnd'
p3718
S'975'
p3719
sS'Lemma'
p3720
S'and'
p3721
sS'PartOfSpeech'
p3722
S'CC'
p3723
sS'CharacterOffsetBegin'
p3724
S'972'
p3725
stp3726
a(S'Julio'
p3727
(dp3728
S'NamedEntityTag'
p3729
S'PERSON'
p3730
sS'CharacterOffsetEnd'
p3731
S'981'
p3732
sS'Lemma'
p3733
S'Julio'
p3734
sS'PartOfSpeech'
p3735
S'NNP'
p3736
sS'CharacterOffsetBegin'
p3737
S'976'
p3738
stp3739
a(S'Lagos'
p3740
(dp3741
S'NamedEntityTag'
p3742
S'PERSON'
p3743
sS'CharacterOffsetEnd'
p3744
S'987'
p3745
sS'Lemma'
p3746
S'Lagos'
p3747
sS'PartOfSpeech'
p3748
S'NNP'
p3749
sS'CharacterOffsetBegin'
p3750
S'982'
p3751
stp3752
a(g119
(dp3753
S'NamedEntityTag'
p3754
g61
sS'CharacterOffsetEnd'
p3755
S'988'
p3756
sS'Lemma'
p3757
g119
sS'PartOfSpeech'
p3758
g119
sS'CharacterOffsetBegin'
p3759
S'987'
p3760
stp3761
asa(dp3762
g7
S'(ROOT (S (NP (DT The) (NN delegation)) (VP (VBZ is) (NP (NP (DT an) (NN offshoot)) (PP (IN of) (S (NP (NP (DT a) (JJR larger) (NN group)) (PP (IN of) (NP (JJ Chilean) (NNS parliamentarians)))) (ADVP (RB currently)) (VP (VBG protesting) (NP (DT the) (NN detention)) (PP (IN in) (NP (NP (NNP London)) (PP (IN on) (NP (NP (NN behalf)) (PP (IN of) (NP (DT the) (NN opposition) (NNS parties))))))) (NP-TMP (NP (NNP Independent) (NNP Democratic) (NNP Union)) (CC and) (NP (DT the) (NNP National) (NNP Renovation) (NNP Party)))))))) (. .)))'
p3763
sg9
S'The delegation is an offshoot of a larger group of Chilean parliamentarians currently protesting the detention in London on behalf of the opposition parties Independent Democratic Union and the National Renovation Party.'
p3764
sg11
(lp3765
(S'root'
p3766
S'ROOT'
p3767
S'offshoot'
p3768
tp3769
a(S'det'
p3770
S'delegation'
p3771
S'The'
p3772
tp3773
a(S'nsubj'
p3774
S'offshoot'
p3775
S'delegation'
p3776
tp3777
a(S'cop'
p3778
S'offshoot'
p3779
S'is'
p3780
tp3781
a(S'det'
p3782
S'offshoot'
p3783
S'an'
p3784
tp3785
a(S'det'
p3786
S'group'
p3787
g1076
tp3788
a(S'amod'
p3789
S'group'
p3790
S'larger'
p3791
tp3792
a(S'nsubj'
p3793
S'protesting'
p3794
S'group'
p3795
tp3796
a(S'amod'
p3797
S'parliamentarians'
p3798
S'Chilean'
p3799
tp3800
a(S'prep_of'
p3801
S'group'
p3802
S'parliamentarians'
p3803
tp3804
a(S'advmod'
p3805
S'protesting'
p3806
S'currently'
p3807
tp3808
a(S'prepc_of'
p3809
S'offshoot'
p3810
S'protesting'
p3811
tp3812
a(S'det'
p3813
S'detention'
p3814
S'the'
p3815
tp3816
a(S'dobj'
p3817
S'protesting'
p3818
S'detention'
p3819
tp3820
a(S'prep_in'
p3821
S'protesting'
p3822
S'London'
p3823
tp3824
a(S'det'
p3825
S'parties'
p3826
S'the'
p3827
tp3828
a(S'nn'
p3829
S'parties'
p3830
S'opposition'
p3831
tp3832
a(S'prep_on_behalf_of'
p3833
S'London'
p3834
S'parties'
p3835
tp3836
a(S'nn'
p3837
S'Union'
p3838
S'Independent'
p3839
tp3840
a(S'nn'
p3841
S'Union'
p3842
S'Democratic'
p3843
tp3844
a(S'tmod'
p3845
S'protesting'
p3846
S'Union'
p3847
tp3848
a(S'det'
p3849
S'Party'
p3850
S'the'
p3851
tp3852
a(S'nn'
p3853
S'Party'
p3854
S'National'
p3855
tp3856
a(S'nn'
p3857
S'Party'
p3858
S'Renovation'
p3859
tp3860
a(S'conj_and'
p3861
S'Union'
p3862
S'Party'
p3863
tp3864
asg29
(lp3865
(g3766
S'ROOT-0'
p3866
S'offshoot-5'
p3867
tp3868
a(g3770
S'delegation-2'
p3869
S'The-1'
p3870
tp3871
a(g3774
S'offshoot-5'
p3872
S'delegation-2'
p3873
tp3874
a(g3778
S'offshoot-5'
p3875
S'is-3'
p3876
tp3877
a(g3782
S'offshoot-5'
p3878
S'an-4'
p3879
tp3880
a(g3786
S'group-9'
p3881
S'a-7'
p3882
tp3883
a(g3789
S'group-9'
p3884
S'larger-8'
p3885
tp3886
a(g3793
S'protesting-14'
p3887
S'group-9'
p3888
tp3889
a(g3797
S'parliamentarians-12'
p3890
S'Chilean-11'
p3891
tp3892
a(g3801
S'group-9'
p3893
S'parliamentarians-12'
p3894
tp3895
a(g3805
S'protesting-14'
p3896
S'currently-13'
p3897
tp3898
a(g3809
S'offshoot-5'
p3899
S'protesting-14'
p3900
tp3901
a(g3813
S'detention-16'
p3902
S'the-15'
p3903
tp3904
a(g3817
S'protesting-14'
p3905
S'detention-16'
p3906
tp3907
a(g3821
S'protesting-14'
p3908
S'London-18'
p3909
tp3910
a(g3825
S'parties-24'
p3911
S'the-22'
p3912
tp3913
a(g3829
S'parties-24'
p3914
S'opposition-23'
p3915
tp3916
a(g3833
S'London-18'
p3917
S'parties-24'
p3918
tp3919
a(g3837
S'Union-27'
p3920
S'Independent-25'
p3921
tp3922
a(g3841
S'Union-27'
p3923
S'Democratic-26'
p3924
tp3925
a(g3845
S'protesting-14'
p3926
S'Union-27'
p3927
tp3928
a(g3849
S'Party-32'
p3929
S'the-29'
p3930
tp3931
a(g3853
S'Party-32'
p3932
S'National-30'
p3933
tp3934
a(g3857
S'Party-32'
p3935
S'Renovation-31'
p3936
tp3937
a(g3861
S'Union-27'
p3938
S'Party-32'
p3939
tp3940
asg43
(lp3941
(S'The'
p3942
(dp3943
S'NamedEntityTag'
p3944
g61
sS'CharacterOffsetEnd'
p3945
S'992'
p3946
sS'Lemma'
p3947
S'the'
p3948
sS'PartOfSpeech'
p3949
S'DT'
p3950
sS'CharacterOffsetBegin'
p3951
S'989'
p3952
stp3953
a(S'delegation'
p3954
(dp3955
S'NamedEntityTag'
p3956
g61
sS'CharacterOffsetEnd'
p3957
S'1003'
p3958
sS'Lemma'
p3959
S'delegation'
p3960
sS'PartOfSpeech'
p3961
S'NN'
p3962
sS'CharacterOffsetBegin'
p3963
S'993'
p3964
stp3965
a(S'is'
p3966
(dp3967
S'NamedEntityTag'
p3968
g61
sS'CharacterOffsetEnd'
p3969
S'1006'
p3970
sS'Lemma'
p3971
S'be'
p3972
sS'PartOfSpeech'
p3973
S'VBZ'
p3974
sS'CharacterOffsetBegin'
p3975
S'1004'
p3976
stp3977
a(S'an'
p3978
(dp3979
S'NamedEntityTag'
p3980
g61
sS'CharacterOffsetEnd'
p3981
S'1009'
p3982
sS'Lemma'
p3983
g1076
sS'PartOfSpeech'
p3984
S'DT'
p3985
sS'CharacterOffsetBegin'
p3986
S'1007'
p3987
stp3988
a(S'offshoot'
p3989
(dp3990
S'NamedEntityTag'
p3991
g61
sS'CharacterOffsetEnd'
p3992
S'1018'
p3993
sS'Lemma'
p3994
S'offshoot'
p3995
sS'PartOfSpeech'
p3996
S'NN'
p3997
sS'CharacterOffsetBegin'
p3998
S'1010'
p3999
stp4000
a(S'of'
p4001
(dp4002
S'NamedEntityTag'
p4003
g61
sS'CharacterOffsetEnd'
p4004
S'1021'
p4005
sS'Lemma'
p4006
S'of'
p4007
sS'PartOfSpeech'
p4008
S'IN'
p4009
sS'CharacterOffsetBegin'
p4010
S'1019'
p4011
stp4012
a(g1076
(dp4013
S'NamedEntityTag'
p4014
g61
sS'CharacterOffsetEnd'
p4015
S'1023'
p4016
sS'Lemma'
p4017
g1076
sS'PartOfSpeech'
p4018
S'DT'
p4019
sS'CharacterOffsetBegin'
p4020
S'1022'
p4021
stp4022
a(S'larger'
p4023
(dp4024
S'NamedEntityTag'
p4025
g61
sS'CharacterOffsetEnd'
p4026
S'1030'
p4027
sS'Lemma'
p4028
S'larger'
p4029
sS'PartOfSpeech'
p4030
S'JJR'
p4031
sS'CharacterOffsetBegin'
p4032
S'1024'
p4033
stp4034
a(S'group'
p4035
(dp4036
S'NamedEntityTag'
p4037
g61
sS'CharacterOffsetEnd'
p4038
S'1036'
p4039
sS'Lemma'
p4040
S'group'
p4041
sS'PartOfSpeech'
p4042
S'NN'
p4043
sS'CharacterOffsetBegin'
p4044
S'1031'
p4045
stp4046
a(S'of'
p4047
(dp4048
S'NamedEntityTag'
p4049
g61
sS'CharacterOffsetEnd'
p4050
S'1039'
p4051
sS'Lemma'
p4052
S'of'
p4053
sS'PartOfSpeech'
p4054
S'IN'
p4055
sS'CharacterOffsetBegin'
p4056
S'1037'
p4057
stp4058
a(S'Chilean'
p4059
(dp4060
S'NamedEntityTag'
p4061
S'MISC'
p4062
sS'CharacterOffsetEnd'
p4063
S'1047'
p4064
sS'Lemma'
p4065
S'chilean'
p4066
sS'PartOfSpeech'
p4067
S'JJ'
p4068
sS'CharacterOffsetBegin'
p4069
S'1040'
p4070
stp4071
a(S'parliamentarians'
p4072
(dp4073
S'NamedEntityTag'
p4074
g61
sS'CharacterOffsetEnd'
p4075
S'1064'
p4076
sS'Lemma'
p4077
S'parliamentarian'
p4078
sS'PartOfSpeech'
p4079
S'NNS'
p4080
sS'CharacterOffsetBegin'
p4081
S'1048'
p4082
stp4083
a(S'currently'
p4084
(dp4085
S'NormalizedNamedEntityTag'
p4086
S'PRESENT_REF'
p4087
sS'Timex'
p4088
S'<TIMEX3 tid="t9" type="DATE" value="PRESENT_REF">currently</TIMEX3>'
p4089
sS'Lemma'
p4090
S'currently'
p4091
sS'CharacterOffsetEnd'
p4092
S'1074'
p4093
sS'PartOfSpeech'
p4094
S'RB'
p4095
sS'CharacterOffsetBegin'
p4096
S'1065'
p4097
sS'NamedEntityTag'
p4098
S'DATE'
p4099
stp4100
a(S'protesting'
p4101
(dp4102
S'NamedEntityTag'
p4103
g61
sS'CharacterOffsetEnd'
p4104
S'1085'
p4105
sS'Lemma'
p4106
S'protest'
p4107
sS'PartOfSpeech'
p4108
S'VBG'
p4109
sS'CharacterOffsetBegin'
p4110
S'1075'
p4111
stp4112
a(S'the'
p4113
(dp4114
S'NamedEntityTag'
p4115
g61
sS'CharacterOffsetEnd'
p4116
S'1089'
p4117
sS'Lemma'
p4118
S'the'
p4119
sS'PartOfSpeech'
p4120
S'DT'
p4121
sS'CharacterOffsetBegin'
p4122
S'1086'
p4123
stp4124
a(S'detention'
p4125
(dp4126
S'NamedEntityTag'
p4127
g61
sS'CharacterOffsetEnd'
p4128
S'1099'
p4129
sS'Lemma'
p4130
S'detention'
p4131
sS'PartOfSpeech'
p4132
S'NN'
p4133
sS'CharacterOffsetBegin'
p4134
S'1090'
p4135
stp4136
a(S'in'
p4137
(dp4138
S'NamedEntityTag'
p4139
g61
sS'CharacterOffsetEnd'
p4140
S'1102'
p4141
sS'Lemma'
p4142
S'in'
p4143
sS'PartOfSpeech'
p4144
S'IN'
p4145
sS'CharacterOffsetBegin'
p4146
S'1100'
p4147
stp4148
a(S'London'
p4149
(dp4150
S'NamedEntityTag'
p4151
S'LOCATION'
p4152
sS'CharacterOffsetEnd'
p4153
S'1109'
p4154
sS'Lemma'
p4155
S'London'
p4156
sS'PartOfSpeech'
p4157
S'NNP'
p4158
sS'CharacterOffsetBegin'
p4159
S'1103'
p4160
stp4161
a(S'on'
p4162
(dp4163
S'NamedEntityTag'
p4164
g61
sS'CharacterOffsetEnd'
p4165
S'1112'
p4166
sS'Lemma'
p4167
S'on'
p4168
sS'PartOfSpeech'
p4169
S'IN'
p4170
sS'CharacterOffsetBegin'
p4171
S'1110'
p4172
stp4173
a(S'behalf'
p4174
(dp4175
S'NamedEntityTag'
p4176
g61
sS'CharacterOffsetEnd'
p4177
S'1119'
p4178
sS'Lemma'
p4179
S'behalf'
p4180
sS'PartOfSpeech'
p4181
S'NN'
p4182
sS'CharacterOffsetBegin'
p4183
S'1113'
p4184
stp4185
a(S'of'
p4186
(dp4187
S'NamedEntityTag'
p4188
g61
sS'CharacterOffsetEnd'
p4189
S'1122'
p4190
sS'Lemma'
p4191
S'of'
p4192
sS'PartOfSpeech'
p4193
S'IN'
p4194
sS'CharacterOffsetBegin'
p4195
S'1120'
p4196
stp4197
a(S'the'
p4198
(dp4199
S'NamedEntityTag'
p4200
g61
sS'CharacterOffsetEnd'
p4201
S'1126'
p4202
sS'Lemma'
p4203
S'the'
p4204
sS'PartOfSpeech'
p4205
S'DT'
p4206
sS'CharacterOffsetBegin'
p4207
S'1123'
p4208
stp4209
a(S'opposition'
p4210
(dp4211
S'NamedEntityTag'
p4212
g61
sS'CharacterOffsetEnd'
p4213
S'1137'
p4214
sS'Lemma'
p4215
S'opposition'
p4216
sS'PartOfSpeech'
p4217
S'NN'
p4218
sS'CharacterOffsetBegin'
p4219
S'1127'
p4220
stp4221
a(S'parties'
p4222
(dp4223
S'NamedEntityTag'
p4224
g61
sS'CharacterOffsetEnd'
p4225
S'1145'
p4226
sS'Lemma'
p4227
S'party'
p4228
sS'PartOfSpeech'
p4229
S'NNS'
p4230
sS'CharacterOffsetBegin'
p4231
S'1138'
p4232
stp4233
a(S'Independent'
p4234
(dp4235
S'NamedEntityTag'
p4236
S'ORGANIZATION'
p4237
sS'CharacterOffsetEnd'
p4238
S'1157'
p4239
sS'Lemma'
p4240
S'Independent'
p4241
sS'PartOfSpeech'
p4242
S'NNP'
p4243
sS'CharacterOffsetBegin'
p4244
S'1146'
p4245
stp4246
a(S'Democratic'
p4247
(dp4248
S'NamedEntityTag'
p4249
S'ORGANIZATION'
p4250
sS'CharacterOffsetEnd'
p4251
S'1168'
p4252
sS'Lemma'
p4253
S'Democratic'
p4254
sS'PartOfSpeech'
p4255
S'NNP'
p4256
sS'CharacterOffsetBegin'
p4257
S'1158'
p4258
stp4259
a(S'Union'
p4260
(dp4261
S'NamedEntityTag'
p4262
S'ORGANIZATION'
p4263
sS'CharacterOffsetEnd'
p4264
S'1174'
p4265
sS'Lemma'
p4266
S'Union'
p4267
sS'PartOfSpeech'
p4268
S'NNP'
p4269
sS'CharacterOffsetBegin'
p4270
S'1169'
p4271
stp4272
a(S'and'
p4273
(dp4274
S'NamedEntityTag'
p4275
g61
sS'CharacterOffsetEnd'
p4276
S'1178'
p4277
sS'Lemma'
p4278
S'and'
p4279
sS'PartOfSpeech'
p4280
S'CC'
p4281
sS'CharacterOffsetBegin'
p4282
S'1175'
p4283
stp4284
a(S'the'
p4285
(dp4286
S'NamedEntityTag'
p4287
g61
sS'CharacterOffsetEnd'
p4288
S'1182'
p4289
sS'Lemma'
p4290
S'the'
p4291
sS'PartOfSpeech'
p4292
S'DT'
p4293
sS'CharacterOffsetBegin'
p4294
S'1179'
p4295
stp4296
a(S'National'
p4297
(dp4298
S'NamedEntityTag'
p4299
S'ORGANIZATION'
p4300
sS'CharacterOffsetEnd'
p4301
S'1191'
p4302
sS'Lemma'
p4303
S'National'
p4304
sS'PartOfSpeech'
p4305
S'NNP'
p4306
sS'CharacterOffsetBegin'
p4307
S'1183'
p4308
stp4309
a(S'Renovation'
p4310
(dp4311
S'NamedEntityTag'
p4312
S'ORGANIZATION'
p4313
sS'CharacterOffsetEnd'
p4314
S'1202'
p4315
sS'Lemma'
p4316
S'Renovation'
p4317
sS'PartOfSpeech'
p4318
S'NNP'
p4319
sS'CharacterOffsetBegin'
p4320
S'1192'
p4321
stp4322
a(S'Party'
p4323
(dp4324
S'NamedEntityTag'
p4325
S'ORGANIZATION'
p4326
sS'CharacterOffsetEnd'
p4327
S'1208'
p4328
sS'Lemma'
p4329
S'Party'
p4330
sS'PartOfSpeech'
p4331
S'NNP'
p4332
sS'CharacterOffsetBegin'
p4333
S'1203'
p4334
stp4335
a(g119
(dp4336
S'NamedEntityTag'
p4337
g61
sS'CharacterOffsetEnd'
p4338
S'1209'
p4339
sS'Lemma'
p4340
g119
sS'PartOfSpeech'
p4341
g119
sS'CharacterOffsetBegin'
p4342
S'1208'
p4343
stp4344
asa(dp4345
g7
S'(ROOT (S (NP (NNP Espina) (, ,) (NNP Movoa) (CC and) (NNP Lagos)) (VP (VBD were) (VP (VBG hoping) (S (VP (TO to) (VP (VB talk) (PP (TO to) (NP (NNS officials))) (PP (IN from) (NP (NP (DT the) (NNP Spanish) (NNP Foreign) (NNP Ministry)) (CC and) (NP (JJ other) (NN government) (NNS representatives))))))))) (. .)))'
p4346
sg9
S'Espina, Movoa and Lagos were hoping to talk to officials from the Spanish Foreign Ministry and other government representatives.'
p4347
sg11
(lp4348
(S'root'
p4349
S'ROOT'
p4350
S'hoping'
p4351
tp4352
a(S'nsubj'
p4353
S'hoping'
p4354
S'Espina'
p4355
tp4356
a(S'conj_and'
p4357
S'Espina'
p4358
S'Movoa'
p4359
tp4360
a(S'conj_and'
p4361
S'Espina'
p4362
S'Lagos'
p4363
tp4364
a(S'aux'
p4365
S'hoping'
p4366
S'were'
p4367
tp4368
a(S'aux'
p4369
S'talk'
p4370
S'to'
p4371
tp4372
a(S'xcomp'
p4373
S'hoping'
p4374
S'talk'
p4375
tp4376
a(S'prep_to'
p4377
S'talk'
p4378
S'officials'
p4379
tp4380
a(S'det'
p4381
S'Ministry'
p4382
S'the'
p4383
tp4384
a(S'nn'
p4385
S'Ministry'
p4386
S'Spanish'
p4387
tp4388
a(S'nn'
p4389
S'Ministry'
p4390
S'Foreign'
p4391
tp4392
a(S'prep_from'
p4393
S'talk'
p4394
S'Ministry'
p4395
tp4396
a(S'amod'
p4397
S'representatives'
p4398
S'other'
p4399
tp4400
a(S'nn'
p4401
S'representatives'
p4402
S'government'
p4403
tp4404
a(S'conj_and'
p4405
S'Ministry'
p4406
S'representatives'
p4407
tp4408
asg29
(lp4409
(g4349
S'ROOT-0'
p4410
S'hoping-7'
p4411
tp4412
a(g4353
S'hoping-7'
p4413
S'Espina-1'
p4414
tp4415
a(g4357
S'Espina-1'
p4416
S'Movoa-3'
p4417
tp4418
a(g4361
S'Espina-1'
p4419
S'Lagos-5'
p4420
tp4421
a(g4365
S'hoping-7'
p4422
S'were-6'
p4423
tp4424
a(g4369
S'talk-9'
p4425
S'to-8'
p4426
tp4427
a(g4373
S'hoping-7'
p4428
S'talk-9'
p4429
tp4430
a(g4377
S'talk-9'
p4431
S'officials-11'
p4432
tp4433
a(g4381
S'Ministry-16'
p4434
S'the-13'
p4435
tp4436
a(g4385
S'Ministry-16'
p4437
S'Spanish-14'
p4438
tp4439
a(g4389
S'Ministry-16'
p4440
S'Foreign-15'
p4441
tp4442
a(g4393
S'talk-9'
p4443
S'Ministry-16'
p4444
tp4445
a(g4397
S'representatives-20'
p4446
S'other-18'
p4447
tp4448
a(g4401
S'representatives-20'
p4449
S'government-19'
p4450
tp4451
a(g4405
S'Ministry-16'
p4452
S'representatives-20'
p4453
tp4454
asg43
(lp4455
(S'Espina'
p4456
(dp4457
S'NamedEntityTag'
p4458
S'PERSON'
p4459
sS'CharacterOffsetEnd'
p4460
S'1216'
p4461
sS'Lemma'
p4462
S'Espina'
p4463
sS'PartOfSpeech'
p4464
S'NNP'
p4465
sS'CharacterOffsetBegin'
p4466
S'1210'
p4467
stp4468
a(g1290
(dp4469
S'NamedEntityTag'
p4470
g61
sS'CharacterOffsetEnd'
p4471
S'1217'
p4472
sS'Lemma'
p4473
g1290
sS'PartOfSpeech'
p4474
g1290
sS'CharacterOffsetBegin'
p4475
S'1216'
p4476
stp4477
a(S'Movoa'
p4478
(dp4479
S'NamedEntityTag'
p4480
S'PERSON'
p4481
sS'CharacterOffsetEnd'
p4482
S'1223'
p4483
sS'Lemma'
p4484
S'Movoa'
p4485
sS'PartOfSpeech'
p4486
S'NNP'
p4487
sS'CharacterOffsetBegin'
p4488
S'1218'
p4489
stp4490
a(S'and'
p4491
(dp4492
S'NamedEntityTag'
p4493
g61
sS'CharacterOffsetEnd'
p4494
S'1227'
p4495
sS'Lemma'
p4496
S'and'
p4497
sS'PartOfSpeech'
p4498
S'CC'
p4499
sS'CharacterOffsetBegin'
p4500
S'1224'
p4501
stp4502
a(S'Lagos'
p4503
(dp4504
S'NamedEntityTag'
p4505
S'LOCATION'
p4506
sS'CharacterOffsetEnd'
p4507
S'1233'
p4508
sS'Lemma'
p4509
S'Lagos'
p4510
sS'PartOfSpeech'
p4511
S'NNP'
p4512
sS'CharacterOffsetBegin'
p4513
S'1228'
p4514
stp4515
a(S'were'
p4516
(dp4517
S'NamedEntityTag'
p4518
g61
sS'CharacterOffsetEnd'
p4519
S'1238'
p4520
sS'Lemma'
p4521
S'be'
p4522
sS'PartOfSpeech'
p4523
S'VBD'
p4524
sS'CharacterOffsetBegin'
p4525
S'1234'
p4526
stp4527
a(S'hoping'
p4528
(dp4529
S'NamedEntityTag'
p4530
g61
sS'CharacterOffsetEnd'
p4531
S'1245'
p4532
sS'Lemma'
p4533
S'hope'
p4534
sS'PartOfSpeech'
p4535
S'VBG'
p4536
sS'CharacterOffsetBegin'
p4537
S'1239'
p4538
stp4539
a(S'to'
p4540
(dp4541
S'NamedEntityTag'
p4542
g61
sS'CharacterOffsetEnd'
p4543
S'1248'
p4544
sS'Lemma'
p4545
S'to'
p4546
sS'PartOfSpeech'
p4547
S'TO'
p4548
sS'CharacterOffsetBegin'
p4549
S'1246'
p4550
stp4551
a(S'talk'
p4552
(dp4553
S'NamedEntityTag'
p4554
g61
sS'CharacterOffsetEnd'
p4555
S'1253'
p4556
sS'Lemma'
p4557
S'talk'
p4558
sS'PartOfSpeech'
p4559
S'VB'
p4560
sS'CharacterOffsetBegin'
p4561
S'1249'
p4562
stp4563
a(S'to'
p4564
(dp4565
S'NamedEntityTag'
p4566
g61
sS'CharacterOffsetEnd'
p4567
S'1256'
p4568
sS'Lemma'
p4569
S'to'
p4570
sS'PartOfSpeech'
p4571
S'TO'
p4572
sS'CharacterOffsetBegin'
p4573
S'1254'
p4574
stp4575
a(S'officials'
p4576
(dp4577
S'NamedEntityTag'
p4578
g61
sS'CharacterOffsetEnd'
p4579
S'1266'
p4580
sS'Lemma'
p4581
S'official'
p4582
sS'PartOfSpeech'
p4583
S'NNS'
p4584
sS'CharacterOffsetBegin'
p4585
S'1257'
p4586
stp4587
a(S'from'
p4588
(dp4589
S'NamedEntityTag'
p4590
g61
sS'CharacterOffsetEnd'
p4591
S'1271'
p4592
sS'Lemma'
p4593
S'from'
p4594
sS'PartOfSpeech'
p4595
S'IN'
p4596
sS'CharacterOffsetBegin'
p4597
S'1267'
p4598
stp4599
a(S'the'
p4600
(dp4601
S'NamedEntityTag'
p4602
g61
sS'CharacterOffsetEnd'
p4603
S'1275'
p4604
sS'Lemma'
p4605
S'the'
p4606
sS'PartOfSpeech'
p4607
S'DT'
p4608
sS'CharacterOffsetBegin'
p4609
S'1272'
p4610
stp4611
a(S'Spanish'
p4612
(dp4613
S'NamedEntityTag'
p4614
S'LOCATION'
p4615
sS'CharacterOffsetEnd'
p4616
S'1283'
p4617
sS'Lemma'
p4618
S'Spanish'
p4619
sS'PartOfSpeech'
p4620
S'NNP'
p4621
sS'CharacterOffsetBegin'
p4622
S'1276'
p4623
stp4624
a(S'Foreign'
p4625
(dp4626
S'NamedEntityTag'
p4627
S'ORGANIZATION'
p4628
sS'CharacterOffsetEnd'
p4629
S'1291'
p4630
sS'Lemma'
p4631
S'Foreign'
p4632
sS'PartOfSpeech'
p4633
S'NNP'
p4634
sS'CharacterOffsetBegin'
p4635
S'1284'
p4636
stp4637
a(S'Ministry'
p4638
(dp4639
S'NamedEntityTag'
p4640
S'ORGANIZATION'
p4641
sS'CharacterOffsetEnd'
p4642
S'1300'
p4643
sS'Lemma'
p4644
S'Ministry'
p4645
sS'PartOfSpeech'
p4646
S'NNP'
p4647
sS'CharacterOffsetBegin'
p4648
S'1292'
p4649
stp4650
a(S'and'
p4651
(dp4652
S'NamedEntityTag'
p4653
g61
sS'CharacterOffsetEnd'
p4654
S'1304'
p4655
sS'Lemma'
p4656
S'and'
p4657
sS'PartOfSpeech'
p4658
S'CC'
p4659
sS'CharacterOffsetBegin'
p4660
S'1301'
p4661
stp4662
a(S'other'
p4663
(dp4664
S'NamedEntityTag'
p4665
g61
sS'CharacterOffsetEnd'
p4666
S'1310'
p4667
sS'Lemma'
p4668
S'other'
p4669
sS'PartOfSpeech'
p4670
S'JJ'
p4671
sS'CharacterOffsetBegin'
p4672
S'1305'
p4673
stp4674
a(S'government'
p4675
(dp4676
S'NamedEntityTag'
p4677
g61
sS'CharacterOffsetEnd'
p4678
S'1321'
p4679
sS'Lemma'
p4680
S'government'
p4681
sS'PartOfSpeech'
p4682
S'NN'
p4683
sS'CharacterOffsetBegin'
p4684
S'1311'
p4685
stp4686
a(S'representatives'
p4687
(dp4688
S'NamedEntityTag'
p4689
g61
sS'CharacterOffsetEnd'
p4690
S'1337'
p4691
sS'Lemma'
p4692
S'representative'
p4693
sS'PartOfSpeech'
p4694
S'NNS'
p4695
sS'CharacterOffsetBegin'
p4696
S'1322'
p4697
stp4698
a(g119
(dp4699
S'NamedEntityTag'
p4700
g61
sS'CharacterOffsetEnd'
p4701
S'1338'
p4702
sS'Lemma'
p4703
g119
sS'PartOfSpeech'
p4704
g119
sS'CharacterOffsetBegin'
p4705
S'1337'
p4706
stp4707
asa(dp4708
g7
S'(ROOT (S (S (NP (NP (DT All)) (SBAR (S (NP (PRP we)) (VP (VBP ask))))) (VP (VBZ is) (SBAR (IN that) (S (NP (NNP Spain)) (VP (VBZ stops) (S (VP (VBG meddling) (PP (IN in) (NP (PRP$ our) (JJ internal) (NNS affairs)))))))))) (, ,) (NP (NNP Espina)) (VP (VBD said) (, ,) (S (VP (VBG arguing) (SBAR (IN that) (S (NP (JJ Chilean) (NNS problems)) (VP (MD should) (VP (VB be) (VP (VBN dealt) (PP (IN with) (PP (IN by) (NP (JJ Chilean) (NNS courts)))))))))))) (. .)))'
p4709
sg9
S'All we ask is that Spain stops meddling in our internal affairs, Espina said, arguing that Chilean problems should be dealt with by Chilean courts.'
p4710
sg11
(lp4711
(S'root'
p4712
S'ROOT'
p4713
S'said'
p4714
tp4715
a(S'nsubj'
p4716
S'is'
p4717
S'All'
p4718
tp4719
a(S'nsubj'
p4720
S'ask'
p4721
S'we'
p4722
tp4723
a(S'rcmod'
p4724
S'All'
p4725
S'ask'
p4726
tp4727
a(S'ccomp'
p4728
S'said'
p4729
S'is'
p4730
tp4731
a(S'mark'
p4732
S'stops'
p4733
S'that'
p4734
tp4735
a(S'nsubj'
p4736
S'stops'
p4737
S'Spain'
p4738
tp4739
a(S'ccomp'
p4740
S'is'
p4741
S'stops'
p4742
tp4743
a(S'xcomp'
p4744
S'stops'
p4745
S'meddling'
p4746
tp4747
a(S'poss'
p4748
S'affairs'
p4749
S'our'
p4750
tp4751
a(S'amod'
p4752
S'affairs'
p4753
S'internal'
p4754
tp4755
a(S'prep_in'
p4756
S'meddling'
p4757
S'affairs'
p4758
tp4759
a(S'nsubj'
p4760
S'said'
p4761
S'Espina'
p4762
tp4763
a(S'xcomp'
p4764
S'said'
p4765
S'arguing'
p4766
tp4767
a(S'mark'
p4768
S'dealt'
p4769
S'that'
p4770
tp4771
a(S'amod'
p4772
S'problems'
p4773
S'Chilean'
p4774
tp4775
a(S'nsubjpass'
p4776
S'dealt'
p4777
S'problems'
p4778
tp4779
a(S'aux'
p4780
S'dealt'
p4781
S'should'
p4782
tp4783
a(S'auxpass'
p4784
S'dealt'
p4785
S'be'
p4786
tp4787
a(S'ccomp'
p4788
S'arguing'
p4789
S'dealt'
p4790
tp4791
a(S'prep'
p4792
S'dealt'
p4793
S'with'
p4794
tp4795
a(S'pcomp'
p4796
S'with'
p4797
S'by'
p4798
tp4799
a(S'amod'
p4800
S'courts'
p4801
S'Chilean'
p4802
tp4803
a(S'pobj'
p4804
S'by'
p4805
S'courts'
p4806
tp4807
asg29
(lp4808
(g4712
S'ROOT-0'
p4809
S'said-15'
p4810
tp4811
a(g4716
S'is-4'
p4812
S'All-1'
p4813
tp4814
a(g4720
S'ask-3'
p4815
S'we-2'
p4816
tp4817
a(g4724
S'All-1'
p4818
S'ask-3'
p4819
tp4820
a(g4728
S'said-15'
p4821
S'is-4'
p4822
tp4823
a(g4732
S'stops-7'
p4824
S'that-5'
p4825
tp4826
a(g4736
S'stops-7'
p4827
S'Spain-6'
p4828
tp4829
a(g4740
S'is-4'
p4830
S'stops-7'
p4831
tp4832
a(g4744
S'stops-7'
p4833
S'meddling-8'
p4834
tp4835
a(g4748
S'affairs-12'
p4836
S'our-10'
p4837
tp4838
a(g4752
S'affairs-12'
p4839
S'internal-11'
p4840
tp4841
a(g4756
S'meddling-8'
p4842
S'affairs-12'
p4843
tp4844
a(g4760
S'said-15'
p4845
S'Espina-14'
p4846
tp4847
a(g4764
S'said-15'
p4848
S'arguing-17'
p4849
tp4850
a(g4768
S'dealt-23'
p4851
S'that-18'
p4852
tp4853
a(g4772
S'problems-20'
p4854
S'Chilean-19'
p4855
tp4856
a(g4776
S'dealt-23'
p4857
S'problems-20'
p4858
tp4859
a(g4780
S'dealt-23'
p4860
S'should-21'
p4861
tp4862
a(g4784
S'dealt-23'
p4863
S'be-22'
p4864
tp4865
a(g4788
S'arguing-17'
p4866
S'dealt-23'
p4867
tp4868
a(g4792
S'dealt-23'
p4869
S'with-24'
p4870
tp4871
a(g4796
S'with-24'
p4872
S'by-25'
p4873
tp4874
a(g4800
S'courts-27'
p4875
S'Chilean-26'
p4876
tp4877
a(g4804
S'by-25'
p4878
S'courts-27'
p4879
tp4880
asg43
(lp4881
(S'All'
p4882
(dp4883
S'NamedEntityTag'
p4884
g61
sS'CharacterOffsetEnd'
p4885
S'1342'
p4886
sS'Lemma'
p4887
S'all'
p4888
sS'PartOfSpeech'
p4889
S'DT'
p4890
sS'CharacterOffsetBegin'
p4891
S'1339'
p4892
stp4893
a(S'we'
p4894
(dp4895
S'NamedEntityTag'
p4896
g61
sS'CharacterOffsetEnd'
p4897
S'1345'
p4898
sS'Lemma'
p4899
S'we'
p4900
sS'PartOfSpeech'
p4901
S'PRP'
p4902
sS'CharacterOffsetBegin'
p4903
S'1343'
p4904
stp4905
a(S'ask'
p4906
(dp4907
S'NamedEntityTag'
p4908
g61
sS'CharacterOffsetEnd'
p4909
S'1349'
p4910
sS'Lemma'
p4911
S'ask'
p4912
sS'PartOfSpeech'
p4913
S'VBP'
p4914
sS'CharacterOffsetBegin'
p4915
S'1346'
p4916
stp4917
a(S'is'
p4918
(dp4919
S'NamedEntityTag'
p4920
g61
sS'CharacterOffsetEnd'
p4921
S'1352'
p4922
sS'Lemma'
p4923
S'be'
p4924
sS'PartOfSpeech'
p4925
S'VBZ'
p4926
sS'CharacterOffsetBegin'
p4927
S'1350'
p4928
stp4929
a(S'that'
p4930
(dp4931
S'NamedEntityTag'
p4932
g61
sS'CharacterOffsetEnd'
p4933
S'1357'
p4934
sS'Lemma'
p4935
S'that'
p4936
sS'PartOfSpeech'
p4937
S'IN'
p4938
sS'CharacterOffsetBegin'
p4939
S'1353'
p4940
stp4941
a(S'Spain'
p4942
(dp4943
S'NamedEntityTag'
p4944
S'LOCATION'
p4945
sS'CharacterOffsetEnd'
p4946
S'1363'
p4947
sS'Lemma'
p4948
S'Spain'
p4949
sS'PartOfSpeech'
p4950
S'NNP'
p4951
sS'CharacterOffsetBegin'
p4952
S'1358'
p4953
stp4954
a(S'stops'
p4955
(dp4956
S'NamedEntityTag'
p4957
g61
sS'CharacterOffsetEnd'
p4958
S'1369'
p4959
sS'Lemma'
p4960
S'stop'
p4961
sS'PartOfSpeech'
p4962
S'VBZ'
p4963
sS'CharacterOffsetBegin'
p4964
S'1364'
p4965
stp4966
a(S'meddling'
p4967
(dp4968
S'NamedEntityTag'
p4969
g61
sS'CharacterOffsetEnd'
p4970
S'1378'
p4971
sS'Lemma'
p4972
S'meddle'
p4973
sS'PartOfSpeech'
p4974
S'VBG'
p4975
sS'CharacterOffsetBegin'
p4976
S'1370'
p4977
stp4978
a(S'in'
p4979
(dp4980
S'NamedEntityTag'
p4981
g61
sS'CharacterOffsetEnd'
p4982
S'1381'
p4983
sS'Lemma'
p4984
S'in'
p4985
sS'PartOfSpeech'
p4986
S'IN'
p4987
sS'CharacterOffsetBegin'
p4988
S'1379'
p4989
stp4990
a(S'our'
p4991
(dp4992
S'NamedEntityTag'
p4993
g61
sS'CharacterOffsetEnd'
p4994
S'1385'
p4995
sS'Lemma'
p4996
S'we'
p4997
sS'PartOfSpeech'
p4998
S'PRP$'
p4999
sS'CharacterOffsetBegin'
p5000
S'1382'
p5001
stp5002
a(S'internal'
p5003
(dp5004
S'NamedEntityTag'
p5005
g61
sS'CharacterOffsetEnd'
p5006
S'1394'
p5007
sS'Lemma'
p5008
S'internal'
p5009
sS'PartOfSpeech'
p5010
S'JJ'
p5011
sS'CharacterOffsetBegin'
p5012
S'1386'
p5013
stp5014
a(S'affairs'
p5015
(dp5016
S'NamedEntityTag'
p5017
g61
sS'CharacterOffsetEnd'
p5018
S'1402'
p5019
sS'Lemma'
p5020
S'affair'
p5021
sS'PartOfSpeech'
p5022
S'NNS'
p5023
sS'CharacterOffsetBegin'
p5024
S'1395'
p5025
stp5026
a(g1290
(dp5027
S'NamedEntityTag'
p5028
g61
sS'CharacterOffsetEnd'
p5029
S'1403'
p5030
sS'Lemma'
p5031
g1290
sS'PartOfSpeech'
p5032
g1290
sS'CharacterOffsetBegin'
p5033
S'1402'
p5034
stp5035
a(S'Espina'
p5036
(dp5037
S'NamedEntityTag'
p5038
S'PERSON'
p5039
sS'CharacterOffsetEnd'
p5040
S'1410'
p5041
sS'Lemma'
p5042
S'Espina'
p5043
sS'PartOfSpeech'
p5044
S'NNP'
p5045
sS'CharacterOffsetBegin'
p5046
S'1404'
p5047
stp5048
a(S'said'
p5049
(dp5050
S'NamedEntityTag'
p5051
g61
sS'CharacterOffsetEnd'
p5052
S'1415'
p5053
sS'Lemma'
p5054
S'say'
p5055
sS'PartOfSpeech'
p5056
S'VBD'
p5057
sS'CharacterOffsetBegin'
p5058
S'1411'
p5059
stp5060
a(g1290
(dp5061
S'NamedEntityTag'
p5062
g61
sS'CharacterOffsetEnd'
p5063
S'1416'
p5064
sS'Lemma'
p5065
g1290
sS'PartOfSpeech'
p5066
g1290
sS'CharacterOffsetBegin'
p5067
S'1415'
p5068
stp5069
a(S'arguing'
p5070
(dp5071
S'NamedEntityTag'
p5072
g61
sS'CharacterOffsetEnd'
p5073
S'1424'
p5074
sS'Lemma'
p5075
S'argue'
p5076
sS'PartOfSpeech'
p5077
S'VBG'
p5078
sS'CharacterOffsetBegin'
p5079
S'1417'
p5080
stp5081
a(S'that'
p5082
(dp5083
S'NamedEntityTag'
p5084
g61
sS'CharacterOffsetEnd'
p5085
S'1429'
p5086
sS'Lemma'
p5087
S'that'
p5088
sS'PartOfSpeech'
p5089
S'IN'
p5090
sS'CharacterOffsetBegin'
p5091
S'1425'
p5092
stp5093
a(S'Chilean'
p5094
(dp5095
S'NamedEntityTag'
p5096
S'MISC'
p5097
sS'CharacterOffsetEnd'
p5098
S'1437'
p5099
sS'Lemma'
p5100
S'chilean'
p5101
sS'PartOfSpeech'
p5102
S'JJ'
p5103
sS'CharacterOffsetBegin'
p5104
S'1430'
p5105
stp5106
a(S'problems'
p5107
(dp5108
S'NamedEntityTag'
p5109
g61
sS'CharacterOffsetEnd'
p5110
S'1446'
p5111
sS'Lemma'
p5112
S'problem'
p5113
sS'PartOfSpeech'
p5114
S'NNS'
p5115
sS'CharacterOffsetBegin'
p5116
S'1438'
p5117
stp5118
a(S'should'
p5119
(dp5120
S'NamedEntityTag'
p5121
g61
sS'CharacterOffsetEnd'
p5122
S'1453'
p5123
sS'Lemma'
p5124
S'should'
p5125
sS'PartOfSpeech'
p5126
S'MD'
p5127
sS'CharacterOffsetBegin'
p5128
S'1447'
p5129
stp5130
a(S'be'
p5131
(dp5132
S'NamedEntityTag'
p5133
g61
sS'CharacterOffsetEnd'
p5134
S'1456'
p5135
sS'Lemma'
p5136
S'be'
p5137
sS'PartOfSpeech'
p5138
S'VB'
p5139
sS'CharacterOffsetBegin'
p5140
S'1454'
p5141
stp5142
a(S'dealt'
p5143
(dp5144
S'NamedEntityTag'
p5145
g61
sS'CharacterOffsetEnd'
p5146
S'1462'
p5147
sS'Lemma'
p5148
S'deal'
p5149
sS'PartOfSpeech'
p5150
S'VBN'
p5151
sS'CharacterOffsetBegin'
p5152
S'1457'
p5153
stp5154
a(S'with'
p5155
(dp5156
S'NamedEntityTag'
p5157
g61
sS'CharacterOffsetEnd'
p5158
S'1467'
p5159
sS'Lemma'
p5160
S'with'
p5161
sS'PartOfSpeech'
p5162
S'IN'
p5163
sS'CharacterOffsetBegin'
p5164
S'1463'
p5165
stp5166
a(S'by'
p5167
(dp5168
S'NamedEntityTag'
p5169
g61
sS'CharacterOffsetEnd'
p5170
S'1470'
p5171
sS'Lemma'
p5172
S'by'
p5173
sS'PartOfSpeech'
p5174
S'IN'
p5175
sS'CharacterOffsetBegin'
p5176
S'1468'
p5177
stp5178
a(S'Chilean'
p5179
(dp5180
S'NamedEntityTag'
p5181
S'MISC'
p5182
sS'CharacterOffsetEnd'
p5183
S'1478'
p5184
sS'Lemma'
p5185
S'chilean'
p5186
sS'PartOfSpeech'
p5187
S'JJ'
p5188
sS'CharacterOffsetBegin'
p5189
S'1471'
p5190
stp5191
a(S'courts'
p5192
(dp5193
S'NamedEntityTag'
p5194
g61
sS'CharacterOffsetEnd'
p5195
S'1485'
p5196
sS'Lemma'
p5197
S'court'
p5198
sS'PartOfSpeech'
p5199
S'NNS'
p5200
sS'CharacterOffsetBegin'
p5201
S'1479'
p5202
stp5203
a(g119
(dp5204
S'NamedEntityTag'
p5205
g61
sS'CharacterOffsetEnd'
p5206
S'1486'
p5207
sS'Lemma'
p5208
g119
sS'PartOfSpeech'
p5209
g119
sS'CharacterOffsetBegin'
p5210
S'1485'
p5211
stp5212
asa(dp5213
g7
S'(ROOT (S (S (S (NP (PRP We)) (VP (VBD stopped) (S (VP (VBG being) (NP (DT a) (JJ Spanish) (NN colony)))) (ADVP (NP (CD 188) (NNS years)) (RB ago)))) (CC and) (S (NP (PRP we)) (VP (VBP have) (NP (NP (DT no) (NN intention)) (PP (IN of) (S (VP (VBG becoming) (NP (CD one)) (ADVP (RB again))))))))) (, ,) (NP (PRP he)) (VP (VBD added)) (. .)))'
p5214
sg9
S'We stopped being a Spanish colony 188 years ago and we have no intention of becoming one again, he added.'
p5215
sg11
(lp5216
(S'root'
p5217
S'ROOT'
p5218
S'added'
p5219
tp5220
a(S'nsubj'
p5221
S'stopped'
p5222
S'We'
p5223
tp5224
a(S'ccomp'
p5225
S'added'
p5226
S'stopped'
p5227
tp5228
a(S'cop'
p5229
S'colony'
p5230
S'being'
p5231
tp5232
a(S'det'
p5233
S'colony'
p5234
g1076
tp5235
a(S'amod'
p5236
S'colony'
p5237
S'Spanish'
p5238
tp5239
a(S'xcomp'
p5240
S'stopped'
p5241
S'colony'
p5242
tp5243
a(S'num'
p5244
S'years'
p5245
S'188'
p5246
tp5247
a(S'npadvmod'
p5248
S'ago'
p5249
S'years'
p5250
tp5251
a(S'advmod'
p5252
S'stopped'
p5253
S'ago'
p5254
tp5255
a(S'nsubj'
p5256
S'have'
p5257
S'we'
p5258
tp5259
a(S'conj_and'
p5260
S'stopped'
p5261
S'have'
p5262
tp5263
a(S'det'
p5264
S'intention'
p5265
S'no'
p5266
tp5267
a(S'dobj'
p5268
S'have'
p5269
S'intention'
p5270
tp5271
a(S'prepc_of'
p5272
S'intention'
p5273
S'becoming'
p5274
tp5275
a(S'xcomp'
p5276
S'becoming'
p5277
S'one'
p5278
tp5279
a(S'advmod'
p5280
S'becoming'
p5281
S'again'
p5282
tp5283
a(S'nsubj'
p5284
S'added'
p5285
S'he'
p5286
tp5287
asg29
(lp5288
(g5217
S'ROOT-0'
p5289
S'added-21'
p5290
tp5291
a(g5221
S'stopped-2'
p5292
S'We-1'
p5293
tp5294
a(g5225
S'added-21'
p5295
S'stopped-2'
p5296
tp5297
a(g5229
S'colony-6'
p5298
S'being-3'
p5299
tp5300
a(g5233
S'colony-6'
p5301
S'a-4'
p5302
tp5303
a(g5236
S'colony-6'
p5304
S'Spanish-5'
p5305
tp5306
a(g5240
S'stopped-2'
p5307
S'colony-6'
p5308
tp5309
a(g5244
S'years-8'
p5310
S'188-7'
p5311
tp5312
a(g5248
S'ago-9'
p5313
S'years-8'
p5314
tp5315
a(g5252
S'stopped-2'
p5316
S'ago-9'
p5317
tp5318
a(g5256
S'have-12'
p5319
S'we-11'
p5320
tp5321
a(g5260
S'stopped-2'
p5322
S'have-12'
p5323
tp5324
a(g5264
S'intention-14'
p5325
S'no-13'
p5326
tp5327
a(g5268
S'have-12'
p5328
S'intention-14'
p5329
tp5330
a(g5272
S'intention-14'
p5331
S'becoming-16'
p5332
tp5333
a(g5276
S'becoming-16'
p5334
S'one-17'
p5335
tp5336
a(g5280
S'becoming-16'
p5337
S'again-18'
p5338
tp5339
a(g5284
S'added-21'
p5340
S'he-20'
p5341
tp5342
asg43
(lp5343
(S'We'
p5344
(dp5345
S'NamedEntityTag'
p5346
g61
sS'CharacterOffsetEnd'
p5347
S'1489'
p5348
sS'Lemma'
p5349
S'we'
p5350
sS'PartOfSpeech'
p5351
S'PRP'
p5352
sS'CharacterOffsetBegin'
p5353
S'1487'
p5354
stp5355
a(S'stopped'
p5356
(dp5357
S'NamedEntityTag'
p5358
g61
sS'CharacterOffsetEnd'
p5359
S'1497'
p5360
sS'Lemma'
p5361
S'stop'
p5362
sS'PartOfSpeech'
p5363
S'VBD'
p5364
sS'CharacterOffsetBegin'
p5365
S'1490'
p5366
stp5367
a(S'being'
p5368
(dp5369
S'NamedEntityTag'
p5370
g61
sS'CharacterOffsetEnd'
p5371
S'1503'
p5372
sS'Lemma'
p5373
S'be'
p5374
sS'PartOfSpeech'
p5375
S'VBG'
p5376
sS'CharacterOffsetBegin'
p5377
S'1498'
p5378
stp5379
a(g1076
(dp5380
S'NamedEntityTag'
p5381
g61
sS'CharacterOffsetEnd'
p5382
S'1505'
p5383
sS'Lemma'
p5384
g1076
sS'PartOfSpeech'
p5385
S'DT'
p5386
sS'CharacterOffsetBegin'
p5387
S'1504'
p5388
stp5389
a(S'Spanish'
p5390
(dp5391
S'NamedEntityTag'
p5392
S'LOCATION'
p5393
sS'CharacterOffsetEnd'
p5394
S'1513'
p5395
sS'Lemma'
p5396
S'spanish'
p5397
sS'PartOfSpeech'
p5398
S'JJ'
p5399
sS'CharacterOffsetBegin'
p5400
S'1506'
p5401
stp5402
a(S'colony'
p5403
(dp5404
S'NamedEntityTag'
p5405
g61
sS'CharacterOffsetEnd'
p5406
S'1520'
p5407
sS'Lemma'
p5408
S'colony'
p5409
sS'PartOfSpeech'
p5410
S'NN'
p5411
sS'CharacterOffsetBegin'
p5412
S'1514'
p5413
stp5414
a(S'188'
p5415
(dp5416
S'NormalizedNamedEntityTag'
p5417
S'OFFSET'
p5418
sS'Timex'
p5419
S'<TIMEX3 alt_value="OFFSET P-188Y" anchorTimeID="t0" temporalFunction="true" tid="t10" type="DATE" valueFromFunction="tf1">188 years ago</TIMEX3>'
p5420
sS'Lemma'
p5421
S'188'
p5422
sS'CharacterOffsetEnd'
p5423
S'1524'
p5424
sS'PartOfSpeech'
p5425
S'CD'
p5426
sS'CharacterOffsetBegin'
p5427
S'1521'
p5428
sS'NamedEntityTag'
p5429
S'DATE'
p5430
stp5431
a(S'years'
p5432
(dp5433
S'NormalizedNamedEntityTag'
p5434
S'OFFSET'
p5435
sS'Timex'
p5436
S'<TIMEX3 alt_value="OFFSET P-188Y" anchorTimeID="t0" temporalFunction="true" tid="t10" type="DATE" valueFromFunction="tf1">188 years ago</TIMEX3>'
p5437
sS'Lemma'
p5438
S'year'
p5439
sS'CharacterOffsetEnd'
p5440
S'1530'
p5441
sS'PartOfSpeech'
p5442
S'NNS'
p5443
sS'CharacterOffsetBegin'
p5444
S'1525'
p5445
sS'NamedEntityTag'
p5446
S'DATE'
p5447
stp5448
a(S'ago'
p5449
(dp5450
S'NormalizedNamedEntityTag'
p5451
S'OFFSET'
p5452
sS'Timex'
p5453
S'<TIMEX3 alt_value="OFFSET P-188Y" anchorTimeID="t0" temporalFunction="true" tid="t10" type="DATE" valueFromFunction="tf1">188 years ago</TIMEX3>'
p5454
sS'Lemma'
p5455
S'ago'
p5456
sS'CharacterOffsetEnd'
p5457
S'1534'
p5458
sS'PartOfSpeech'
p5459
S'RB'
p5460
sS'CharacterOffsetBegin'
p5461
S'1531'
p5462
sS'NamedEntityTag'
p5463
S'DATE'
p5464
stp5465
a(S'and'
p5466
(dp5467
S'NamedEntityTag'
p5468
g61
sS'CharacterOffsetEnd'
p5469
S'1538'
p5470
sS'Lemma'
p5471
S'and'
p5472
sS'PartOfSpeech'
p5473
S'CC'
p5474
sS'CharacterOffsetBegin'
p5475
S'1535'
p5476
stp5477
a(S'we'
p5478
(dp5479
S'NamedEntityTag'
p5480
g61
sS'CharacterOffsetEnd'
p5481
S'1541'
p5482
sS'Lemma'
p5483
S'we'
p5484
sS'PartOfSpeech'
p5485
S'PRP'
p5486
sS'CharacterOffsetBegin'
p5487
S'1539'
p5488
stp5489
a(S'have'
p5490
(dp5491
S'NamedEntityTag'
p5492
g61
sS'CharacterOffsetEnd'
p5493
S'1546'
p5494
sS'Lemma'
p5495
S'have'
p5496
sS'PartOfSpeech'
p5497
S'VBP'
p5498
sS'CharacterOffsetBegin'
p5499
S'1542'
p5500
stp5501
a(S'no'
p5502
(dp5503
S'NamedEntityTag'
p5504
g61
sS'CharacterOffsetEnd'
p5505
S'1549'
p5506
sS'Lemma'
p5507
S'no'
p5508
sS'PartOfSpeech'
p5509
S'DT'
p5510
sS'CharacterOffsetBegin'
p5511
S'1547'
p5512
stp5513
a(S'intention'
p5514
(dp5515
S'NamedEntityTag'
p5516
g61
sS'CharacterOffsetEnd'
p5517
S'1559'
p5518
sS'Lemma'
p5519
S'intention'
p5520
sS'PartOfSpeech'
p5521
S'NN'
p5522
sS'CharacterOffsetBegin'
p5523
S'1550'
p5524
stp5525
a(S'of'
p5526
(dp5527
S'NamedEntityTag'
p5528
g61
sS'CharacterOffsetEnd'
p5529
S'1562'
p5530
sS'Lemma'
p5531
S'of'
p5532
sS'PartOfSpeech'
p5533
S'IN'
p5534
sS'CharacterOffsetBegin'
p5535
S'1560'
p5536
stp5537
a(S'becoming'
p5538
(dp5539
S'NamedEntityTag'
p5540
g61
sS'CharacterOffsetEnd'
p5541
S'1571'
p5542
sS'Lemma'
p5543
S'become'
p5544
sS'PartOfSpeech'
p5545
S'VBG'
p5546
sS'CharacterOffsetBegin'
p5547
S'1563'
p5548
stp5549
a(S'one'
p5550
(dp5551
S'NormalizedNamedEntityTag'
p5552
S'1.0'
p5553
sS'Lemma'
p5554
S'one'
p5555
sS'CharacterOffsetEnd'
p5556
S'1575'
p5557
sS'PartOfSpeech'
p5558
S'CD'
p5559
sS'CharacterOffsetBegin'
p5560
S'1572'
p5561
sS'NamedEntityTag'
p5562
S'NUMBER'
p5563
stp5564
a(S'again'
p5565
(dp5566
S'NamedEntityTag'
p5567
g61
sS'CharacterOffsetEnd'
p5568
S'1581'
p5569
sS'Lemma'
p5570
S'again'
p5571
sS'PartOfSpeech'
p5572
S'RB'
p5573
sS'CharacterOffsetBegin'
p5574
S'1576'
p5575
stp5576
a(g1290
(dp5577
S'NamedEntityTag'
p5578
g61
sS'CharacterOffsetEnd'
p5579
S'1582'
p5580
sS'Lemma'
p5581
g1290
sS'PartOfSpeech'
p5582
g1290
sS'CharacterOffsetBegin'
p5583
S'1581'
p5584
stp5585
a(S'he'
p5586
(dp5587
S'NamedEntityTag'
p5588
g61
sS'CharacterOffsetEnd'
p5589
S'1585'
p5590
sS'Lemma'
p5591
S'he'
p5592
sS'PartOfSpeech'
p5593
S'PRP'
p5594
sS'CharacterOffsetBegin'
p5595
S'1583'
p5596
stp5597
a(S'added'
p5598
(dp5599
S'NamedEntityTag'
p5600
g61
sS'CharacterOffsetEnd'
p5601
S'1591'
p5602
sS'Lemma'
p5603
S'add'
p5604
sS'PartOfSpeech'
p5605
S'VBD'
p5606
sS'CharacterOffsetBegin'
p5607
S'1586'
p5608
stp5609
a(g119
(dp5610
S'NamedEntityTag'
p5611
g61
sS'CharacterOffsetEnd'
p5612
S'1592'
p5613
sS'Lemma'
p5614
g119
sS'PartOfSpeech'
p5615
g119
sS'CharacterOffsetBegin'
p5616
S'1591'
p5617
stp5618
asa(dp5619
g7
S'(ROOT (S (S (NP (NNP Government) (NN spokesman) (NNP Josep) (NNP Pique)) (VP (VBD said) (SBAR (S (NP (NNP Prime) (NNP Minister) (NNP Jose) (NNP Maria) (NNP Aznar)) (VP (VBD had) (S (NP (DT no) (NNS plans)) (VP (TO to) (VP (VB meet) (NP (DT the) (NN delegation)))))))))) (, ,) (NP (DT the) (JJ state-owned) (NN news) (NN agency) (NNP EFE)) (VP (VBD reported)) (. .)))'
p5620
sg9
S'Government spokesman Josep Pique said Prime Minister Jose Maria Aznar had no plans to meet the delegation, the state-owned news agency EFE reported.'
p5621
sg11
(lp5622
(S'root'
p5623
S'ROOT'
p5624
S'reported'
p5625
tp5626
a(S'nn'
p5627
S'Pique'
p5628
S'Government'
p5629
tp5630
a(S'nn'
p5631
S'Pique'
p5632
S'spokesman'
p5633
tp5634
a(S'nn'
p5635
S'Pique'
p5636
S'Josep'
p5637
tp5638
a(S'nsubj'
p5639
S'said'
p5640
S'Pique'
p5641
tp5642
a(S'ccomp'
p5643
S'reported'
p5644
S'said'
p5645
tp5646
a(S'nn'
p5647
S'Aznar'
p5648
S'Prime'
p5649
tp5650
a(S'nn'
p5651
S'Aznar'
p5652
S'Minister'
p5653
tp5654
a(S'nn'
p5655
S'Aznar'
p5656
S'Jose'
p5657
tp5658
a(S'nn'
p5659
S'Aznar'
p5660
S'Maria'
p5661
tp5662
a(S'nsubj'
p5663
S'had'
p5664
S'Aznar'
p5665
tp5666
a(S'ccomp'
p5667
S'said'
p5668
S'had'
p5669
tp5670
a(S'det'
p5671
S'plans'
p5672
S'no'
p5673
tp5674
a(S'nsubj'
p5675
S'meet'
p5676
S'plans'
p5677
tp5678
a(S'aux'
p5679
S'meet'
p5680
S'to'
p5681
tp5682
a(S'ccomp'
p5683
S'had'
p5684
S'meet'
p5685
tp5686
a(S'det'
p5687
S'delegation'
p5688
S'the'
p5689
tp5690
a(S'dobj'
p5691
S'meet'
p5692
S'delegation'
p5693
tp5694
a(S'det'
p5695
S'EFE'
p5696
S'the'
p5697
tp5698
a(S'amod'
p5699
S'EFE'
p5700
S'state-owned'
p5701
tp5702
a(S'nn'
p5703
S'EFE'
p5704
S'news'
p5705
tp5706
a(S'nn'
p5707
S'EFE'
p5708
S'agency'
p5709
tp5710
a(S'nsubj'
p5711
S'reported'
p5712
S'EFE'
p5713
tp5714
asg29
(lp5715
(g5623
S'ROOT-0'
p5716
S'reported-24'
p5717
tp5718
a(g5627
S'Pique-4'
p5719
S'Government-1'
p5720
tp5721
a(g5631
S'Pique-4'
p5722
S'spokesman-2'
p5723
tp5724
a(g5635
S'Pique-4'
p5725
S'Josep-3'
p5726
tp5727
a(g5639
S'said-5'
p5728
S'Pique-4'
p5729
tp5730
a(g5643
S'reported-24'
p5731
S'said-5'
p5732
tp5733
a(g5647
S'Aznar-10'
p5734
S'Prime-6'
p5735
tp5736
a(g5651
S'Aznar-10'
p5737
S'Minister-7'
p5738
tp5739
a(g5655
S'Aznar-10'
p5740
S'Jose-8'
p5741
tp5742
a(g5659
S'Aznar-10'
p5743
S'Maria-9'
p5744
tp5745
a(g5663
S'had-11'
p5746
S'Aznar-10'
p5747
tp5748
a(g5667
S'said-5'
p5749
S'had-11'
p5750
tp5751
a(g5671
S'plans-13'
p5752
S'no-12'
p5753
tp5754
a(g5675
S'meet-15'
p5755
S'plans-13'
p5756
tp5757
a(g5679
S'meet-15'
p5758
S'to-14'
p5759
tp5760
a(g5683
S'had-11'
p5761
S'meet-15'
p5762
tp5763
a(g5687
S'delegation-17'
p5764
S'the-16'
p5765
tp5766
a(g5691
S'meet-15'
p5767
S'delegation-17'
p5768
tp5769
a(g5695
S'EFE-23'
p5770
S'the-19'
p5771
tp5772
a(g5699
S'EFE-23'
p5773
S'state-owned-20'
p5774
tp5775
a(g5703
S'EFE-23'
p5776
S'news-21'
p5777
tp5778
a(g5707
S'EFE-23'
p5779
S'agency-22'
p5780
tp5781
a(g5711
S'reported-24'
p5782
S'EFE-23'
p5783
tp5784
asg43
(lp5785
(S'Government'
p5786
(dp5787
S'NamedEntityTag'
p5788
g61
sS'CharacterOffsetEnd'
p5789
S'1603'
p5790
sS'Lemma'
p5791
S'Government'
p5792
sS'PartOfSpeech'
p5793
S'NNP'
p5794
sS'CharacterOffsetBegin'
p5795
S'1593'
p5796
stp5797
a(S'spokesman'
p5798
(dp5799
S'NamedEntityTag'
p5800
g61
sS'CharacterOffsetEnd'
p5801
S'1613'
p5802
sS'Lemma'
p5803
S'spokesman'
p5804
sS'PartOfSpeech'
p5805
S'NN'
p5806
sS'CharacterOffsetBegin'
p5807
S'1604'
p5808
stp5809
a(S'Josep'
p5810
(dp5811
S'NamedEntityTag'
p5812
S'PERSON'
p5813
sS'CharacterOffsetEnd'
p5814
S'1619'
p5815
sS'Lemma'
p5816
S'Josep'
p5817
sS'PartOfSpeech'
p5818
S'NNP'
p5819
sS'CharacterOffsetBegin'
p5820
S'1614'
p5821
stp5822
a(S'Pique'
p5823
(dp5824
S'NamedEntityTag'
p5825
S'PERSON'
p5826
sS'CharacterOffsetEnd'
p5827
S'1625'
p5828
sS'Lemma'
p5829
S'Pique'
p5830
sS'PartOfSpeech'
p5831
S'NNP'
p5832
sS'CharacterOffsetBegin'
p5833
S'1620'
p5834
stp5835
a(S'said'
p5836
(dp5837
S'NamedEntityTag'
p5838
g61
sS'CharacterOffsetEnd'
p5839
S'1630'
p5840
sS'Lemma'
p5841
S'say'
p5842
sS'PartOfSpeech'
p5843
S'VBD'
p5844
sS'CharacterOffsetBegin'
p5845
S'1626'
p5846
stp5847
a(S'Prime'
p5848
(dp5849
S'NamedEntityTag'
p5850
g61
sS'CharacterOffsetEnd'
p5851
S'1636'
p5852
sS'Lemma'
p5853
S'Prime'
p5854
sS'PartOfSpeech'
p5855
S'NNP'
p5856
sS'CharacterOffsetBegin'
p5857
S'1631'
p5858
stp5859
a(S'Minister'
p5860
(dp5861
S'NamedEntityTag'
p5862
g61
sS'CharacterOffsetEnd'
p5863
S'1645'
p5864
sS'Lemma'
p5865
S'Minister'
p5866
sS'PartOfSpeech'
p5867
S'NNP'
p5868
sS'CharacterOffsetBegin'
p5869
S'1637'
p5870
stp5871
a(S'Jose'
p5872
(dp5873
S'NamedEntityTag'
p5874
S'PERSON'
p5875
sS'CharacterOffsetEnd'
p5876
S'1650'
p5877
sS'Lemma'
p5878
S'Jose'
p5879
sS'PartOfSpeech'
p5880
S'NNP'
p5881
sS'CharacterOffsetBegin'
p5882
S'1646'
p5883
stp5884
a(S'Maria'
p5885
(dp5886
S'NamedEntityTag'
p5887
S'PERSON'
p5888
sS'CharacterOffsetEnd'
p5889
S'1656'
p5890
sS'Lemma'
p5891
S'Maria'
p5892
sS'PartOfSpeech'
p5893
S'NNP'
p5894
sS'CharacterOffsetBegin'
p5895
S'1651'
p5896
stp5897
a(S'Aznar'
p5898
(dp5899
S'NamedEntityTag'
p5900
S'PERSON'
p5901
sS'CharacterOffsetEnd'
p5902
S'1662'
p5903
sS'Lemma'
p5904
S'Aznar'
p5905
sS'PartOfSpeech'
p5906
S'NNP'
p5907
sS'CharacterOffsetBegin'
p5908
S'1657'
p5909
stp5910
a(S'had'
p5911
(dp5912
S'NamedEntityTag'
p5913
g61
sS'CharacterOffsetEnd'
p5914
S'1666'
p5915
sS'Lemma'
p5916
S'have'
p5917
sS'PartOfSpeech'
p5918
S'VBD'
p5919
sS'CharacterOffsetBegin'
p5920
S'1663'
p5921
stp5922
a(S'no'
p5923
(dp5924
S'NamedEntityTag'
p5925
g61
sS'CharacterOffsetEnd'
p5926
S'1669'
p5927
sS'Lemma'
p5928
S'no'
p5929
sS'PartOfSpeech'
p5930
S'DT'
p5931
sS'CharacterOffsetBegin'
p5932
S'1667'
p5933
stp5934
a(S'plans'
p5935
(dp5936
S'NamedEntityTag'
p5937
g61
sS'CharacterOffsetEnd'
p5938
S'1675'
p5939
sS'Lemma'
p5940
S'plan'
p5941
sS'PartOfSpeech'
p5942
S'NNS'
p5943
sS'CharacterOffsetBegin'
p5944
S'1670'
p5945
stp5946
a(S'to'
p5947
(dp5948
S'NamedEntityTag'
p5949
g61
sS'CharacterOffsetEnd'
p5950
S'1678'
p5951
sS'Lemma'
p5952
S'to'
p5953
sS'PartOfSpeech'
p5954
S'TO'
p5955
sS'CharacterOffsetBegin'
p5956
S'1676'
p5957
stp5958
a(S'meet'
p5959
(dp5960
S'NamedEntityTag'
p5961
g61
sS'CharacterOffsetEnd'
p5962
S'1683'
p5963
sS'Lemma'
p5964
S'meet'
p5965
sS'PartOfSpeech'
p5966
S'VB'
p5967
sS'CharacterOffsetBegin'
p5968
S'1679'
p5969
stp5970
a(S'the'
p5971
(dp5972
S'NamedEntityTag'
p5973
g61
sS'CharacterOffsetEnd'
p5974
S'1687'
p5975
sS'Lemma'
p5976
S'the'
p5977
sS'PartOfSpeech'
p5978
S'DT'
p5979
sS'CharacterOffsetBegin'
p5980
S'1684'
p5981
stp5982
a(S'delegation'
p5983
(dp5984
S'NamedEntityTag'
p5985
g61
sS'CharacterOffsetEnd'
p5986
S'1698'
p5987
sS'Lemma'
p5988
S'delegation'
p5989
sS'PartOfSpeech'
p5990
S'NN'
p5991
sS'CharacterOffsetBegin'
p5992
S'1688'
p5993
stp5994
a(g1290
(dp5995
S'NamedEntityTag'
p5996
g61
sS'CharacterOffsetEnd'
p5997
S'1699'
p5998
sS'Lemma'
p5999
g1290
sS'PartOfSpeech'
p6000
g1290
sS'CharacterOffsetBegin'
p6001
S'1698'
p6002
stp6003
a(S'the'
p6004
(dp6005
S'NamedEntityTag'
p6006
g61
sS'CharacterOffsetEnd'
p6007
S'1703'
p6008
sS'Lemma'
p6009
S'the'
p6010
sS'PartOfSpeech'
p6011
S'DT'
p6012
sS'CharacterOffsetBegin'
p6013
S'1700'
p6014
stp6015
a(S'state-owned'
p6016
(dp6017
S'NamedEntityTag'
p6018
g61
sS'CharacterOffsetEnd'
p6019
S'1715'
p6020
sS'Lemma'
p6021
S'state-owned'
p6022
sS'PartOfSpeech'
p6023
S'JJ'
p6024
sS'CharacterOffsetBegin'
p6025
S'1704'
p6026
stp6027
a(S'news'
p6028
(dp6029
S'NamedEntityTag'
p6030
g61
sS'CharacterOffsetEnd'
p6031
S'1720'
p6032
sS'Lemma'
p6033
S'news'
p6034
sS'PartOfSpeech'
p6035
S'NN'
p6036
sS'CharacterOffsetBegin'
p6037
S'1716'
p6038
stp6039
a(S'agency'
p6040
(dp6041
S'NamedEntityTag'
p6042
g61
sS'CharacterOffsetEnd'
p6043
S'1727'
p6044
sS'Lemma'
p6045
S'agency'
p6046
sS'PartOfSpeech'
p6047
S'NN'
p6048
sS'CharacterOffsetBegin'
p6049
S'1721'
p6050
stp6051
a(S'EFE'
p6052
(dp6053
S'NamedEntityTag'
p6054
S'ORGANIZATION'
p6055
sS'CharacterOffsetEnd'
p6056
S'1731'
p6057
sS'Lemma'
p6058
S'EFE'
p6059
sS'PartOfSpeech'
p6060
S'NNP'
p6061
sS'CharacterOffsetBegin'
p6062
S'1728'
p6063
stp6064
a(S'reported'
p6065
(dp6066
S'NamedEntityTag'
p6067
g61
sS'CharacterOffsetEnd'
p6068
S'1740'
p6069
sS'Lemma'
p6070
S'report'
p6071
sS'PartOfSpeech'
p6072
S'VBD'
p6073
sS'CharacterOffsetBegin'
p6074
S'1732'
p6075
stp6076
a(g119
(dp6077
S'NamedEntityTag'
p6078
g61
sS'CharacterOffsetEnd'
p6079
S'1741'
p6080
sS'Lemma'
p6081
g119
sS'PartOfSpeech'
p6082
g119
sS'CharacterOffsetBegin'
p6083
S'1740'
p6084
stp6085
asa(dp6086
g7
S'(ROOT (S (NP (NNP Aznar)) (VP (VBZ has) (VP (VBN promised) (SBAR (S (NP (PRP$ his) (NN government)) (VP (MD will) (VP (NN rubber) (VB stamp) (NP (DT a) (JJ formal) (NN extradition) (NN request)) (PP (TO to) (NP (NP (DT the) (JJ British) (NN government)) (SBAR (IN if) (S (VP (VBN asked) (S (VP (TO to) (VP (VB do) (ADVP (RB so)))))))))) (PP (IN by) (NP (DT the) (JJ judicial) (NNS authorities))))))))) (. .)))'
p6087
sg9
S'Aznar has promised his government will rubber stamp a formal extradition request to the British government if asked to do so by the judicial authorities.'
p6088
sg11
(lp6089
(S'root'
p6090
S'ROOT'
p6091
S'promised'
p6092
tp6093
a(S'nsubj'
p6094
S'promised'
p6095
S'Aznar'
p6096
tp6097
a(S'aux'
p6098
S'promised'
p6099
S'has'
p6100
tp6101
a(S'poss'
p6102
S'government'
p6103
S'his'
p6104
tp6105
a(S'nsubj'
p6106
S'stamp'
p6107
S'government'
p6108
tp6109
a(S'aux'
p6110
S'stamp'
p6111
S'will'
p6112
tp6113
a(S'dep'
p6114
S'stamp'
p6115
S'rubber'
p6116
tp6117
a(S'ccomp'
p6118
S'promised'
p6119
S'stamp'
p6120
tp6121
a(S'det'
p6122
S'request'
p6123
g1076
tp6124
a(S'amod'
p6125
S'request'
p6126
S'formal'
p6127
tp6128
a(S'nn'
p6129
S'request'
p6130
S'extradition'
p6131
tp6132
a(S'dobj'
p6133
S'stamp'
p6134
S'request'
p6135
tp6136
a(S'det'
p6137
S'government'
p6138
S'the'
p6139
tp6140
a(S'amod'
p6141
S'government'
p6142
S'British'
p6143
tp6144
a(S'prep_to'
p6145
S'stamp'
p6146
S'government'
p6147
tp6148
a(S'mark'
p6149
S'asked'
p6150
S'if'
p6151
tp6152
a(S'dep'
p6153
S'government'
p6154
S'asked'
p6155
tp6156
a(S'aux'
p6157
S'do'
p6158
S'to'
p6159
tp6160
a(S'xcomp'
p6161
S'asked'
p6162
S'do'
p6163
tp6164
a(S'advmod'
p6165
S'do'
p6166
S'so'
p6167
tp6168
a(S'det'
p6169
S'authorities'
p6170
S'the'
p6171
tp6172
a(S'amod'
p6173
S'authorities'
p6174
S'judicial'
p6175
tp6176
a(S'prep_by'
p6177
S'stamp'
p6178
S'authorities'
p6179
tp6180
asg29
(lp6181
(g6090
S'ROOT-0'
p6182
S'promised-3'
p6183
tp6184
a(g6094
S'promised-3'
p6185
S'Aznar-1'
p6186
tp6187
a(g6098
S'promised-3'
p6188
S'has-2'
p6189
tp6190
a(g6102
S'government-5'
p6191
S'his-4'
p6192
tp6193
a(g6106
S'stamp-8'
p6194
S'government-5'
p6195
tp6196
a(g6110
S'stamp-8'
p6197
S'will-6'
p6198
tp6199
a(g6114
S'stamp-8'
p6200
S'rubber-7'
p6201
tp6202
a(g6118
S'promised-3'
p6203
S'stamp-8'
p6204
tp6205
a(g6122
S'request-12'
p6206
S'a-9'
p6207
tp6208
a(g6125
S'request-12'
p6209
S'formal-10'
p6210
tp6211
a(g6129
S'request-12'
p6212
S'extradition-11'
p6213
tp6214
a(g6133
S'stamp-8'
p6215
S'request-12'
p6216
tp6217
a(g6137
S'government-16'
p6218
S'the-14'
p6219
tp6220
a(g6141
S'government-16'
p6221
S'British-15'
p6222
tp6223
a(g6145
S'stamp-8'
p6224
S'government-16'
p6225
tp6226
a(g6149
S'asked-18'
p6227
S'if-17'
p6228
tp6229
a(g6153
S'government-16'
p6230
S'asked-18'
p6231
tp6232
a(g6157
S'do-20'
p6233
S'to-19'
p6234
tp6235
a(g6161
S'asked-18'
p6236
S'do-20'
p6237
tp6238
a(g6165
S'do-20'
p6239
S'so-21'
p6240
tp6241
a(g6169
S'authorities-25'
p6242
S'the-23'
p6243
tp6244
a(g6173
S'authorities-25'
p6245
S'judicial-24'
p6246
tp6247
a(g6177
S'stamp-8'
p6248
S'authorities-25'
p6249
tp6250
asg43
(lp6251
(S'Aznar'
p6252
(dp6253
S'NamedEntityTag'
p6254
S'PERSON'
p6255
sS'CharacterOffsetEnd'
p6256
S'1747'
p6257
sS'Lemma'
p6258
S'Aznar'
p6259
sS'PartOfSpeech'
p6260
S'NNP'
p6261
sS'CharacterOffsetBegin'
p6262
S'1742'
p6263
stp6264
a(S'has'
p6265
(dp6266
S'NamedEntityTag'
p6267
g61
sS'CharacterOffsetEnd'
p6268
S'1751'
p6269
sS'Lemma'
p6270
S'have'
p6271
sS'PartOfSpeech'
p6272
S'VBZ'
p6273
sS'CharacterOffsetBegin'
p6274
S'1748'
p6275
stp6276
a(S'promised'
p6277
(dp6278
S'NamedEntityTag'
p6279
g61
sS'CharacterOffsetEnd'
p6280
S'1760'
p6281
sS'Lemma'
p6282
S'promise'
p6283
sS'PartOfSpeech'
p6284
S'VBN'
p6285
sS'CharacterOffsetBegin'
p6286
S'1752'
p6287
stp6288
a(S'his'
p6289
(dp6290
S'NamedEntityTag'
p6291
g61
sS'CharacterOffsetEnd'
p6292
S'1764'
p6293
sS'Lemma'
p6294
S'he'
p6295
sS'PartOfSpeech'
p6296
S'PRP$'
p6297
sS'CharacterOffsetBegin'
p6298
S'1761'
p6299
stp6300
a(S'government'
p6301
(dp6302
S'NamedEntityTag'
p6303
g61
sS'CharacterOffsetEnd'
p6304
S'1775'
p6305
sS'Lemma'
p6306
S'government'
p6307
sS'PartOfSpeech'
p6308
S'NN'
p6309
sS'CharacterOffsetBegin'
p6310
S'1765'
p6311
stp6312
a(S'will'
p6313
(dp6314
S'NamedEntityTag'
p6315
g61
sS'CharacterOffsetEnd'
p6316
S'1780'
p6317
sS'Lemma'
p6318
S'will'
p6319
sS'PartOfSpeech'
p6320
S'MD'
p6321
sS'CharacterOffsetBegin'
p6322
S'1776'
p6323
stp6324
a(S'rubber'
p6325
(dp6326
S'NamedEntityTag'
p6327
g61
sS'CharacterOffsetEnd'
p6328
S'1787'
p6329
sS'Lemma'
p6330
S'rubber'
p6331
sS'PartOfSpeech'
p6332
S'NN'
p6333
sS'CharacterOffsetBegin'
p6334
S'1781'
p6335
stp6336
a(S'stamp'
p6337
(dp6338
S'NamedEntityTag'
p6339
g61
sS'CharacterOffsetEnd'
p6340
S'1793'
p6341
sS'Lemma'
p6342
S'stamp'
p6343
sS'PartOfSpeech'
p6344
S'VB'
p6345
sS'CharacterOffsetBegin'
p6346
S'1788'
p6347
stp6348
a(g1076
(dp6349
S'NamedEntityTag'
p6350
g61
sS'CharacterOffsetEnd'
p6351
S'1795'
p6352
sS'Lemma'
p6353
g1076
sS'PartOfSpeech'
p6354
S'DT'
p6355
sS'CharacterOffsetBegin'
p6356
S'1794'
p6357
stp6358
a(S'formal'
p6359
(dp6360
S'NamedEntityTag'
p6361
g61
sS'CharacterOffsetEnd'
p6362
S'1802'
p6363
sS'Lemma'
p6364
S'formal'
p6365
sS'PartOfSpeech'
p6366
S'JJ'
p6367
sS'CharacterOffsetBegin'
p6368
S'1796'
p6369
stp6370
a(S'extradition'
p6371
(dp6372
S'NamedEntityTag'
p6373
g61
sS'CharacterOffsetEnd'
p6374
S'1814'
p6375
sS'Lemma'
p6376
S'extradition'
p6377
sS'PartOfSpeech'
p6378
S'NN'
p6379
sS'CharacterOffsetBegin'
p6380
S'1803'
p6381
stp6382
a(S'request'
p6383
(dp6384
S'NamedEntityTag'
p6385
g61
sS'CharacterOffsetEnd'
p6386
S'1822'
p6387
sS'Lemma'
p6388
S'request'
p6389
sS'PartOfSpeech'
p6390
S'NN'
p6391
sS'CharacterOffsetBegin'
p6392
S'1815'
p6393
stp6394
a(S'to'
p6395
(dp6396
S'NamedEntityTag'
p6397
g61
sS'CharacterOffsetEnd'
p6398
S'1825'
p6399
sS'Lemma'
p6400
S'to'
p6401
sS'PartOfSpeech'
p6402
S'TO'
p6403
sS'CharacterOffsetBegin'
p6404
S'1823'
p6405
stp6406
a(S'the'
p6407
(dp6408
S'NamedEntityTag'
p6409
g61
sS'CharacterOffsetEnd'
p6410
S'1829'
p6411
sS'Lemma'
p6412
S'the'
p6413
sS'PartOfSpeech'
p6414
S'DT'
p6415
sS'CharacterOffsetBegin'
p6416
S'1826'
p6417
stp6418
a(S'British'
p6419
(dp6420
S'NamedEntityTag'
p6421
S'MISC'
p6422
sS'CharacterOffsetEnd'
p6423
S'1837'
p6424
sS'Lemma'
p6425
S'british'
p6426
sS'PartOfSpeech'
p6427
S'JJ'
p6428
sS'CharacterOffsetBegin'
p6429
S'1830'
p6430
stp6431
a(S'government'
p6432
(dp6433
S'NamedEntityTag'
p6434
g61
sS'CharacterOffsetEnd'
p6435
S'1848'
p6436
sS'Lemma'
p6437
S'government'
p6438
sS'PartOfSpeech'
p6439
S'NN'
p6440
sS'CharacterOffsetBegin'
p6441
S'1838'
p6442
stp6443
a(S'if'
p6444
(dp6445
S'NamedEntityTag'
p6446
g61
sS'CharacterOffsetEnd'
p6447
S'1851'
p6448
sS'Lemma'
p6449
S'if'
p6450
sS'PartOfSpeech'
p6451
S'IN'
p6452
sS'CharacterOffsetBegin'
p6453
S'1849'
p6454
stp6455
a(S'asked'
p6456
(dp6457
S'NamedEntityTag'
p6458
g61
sS'CharacterOffsetEnd'
p6459
S'1857'
p6460
sS'Lemma'
p6461
S'ask'
p6462
sS'PartOfSpeech'
p6463
S'VBN'
p6464
sS'CharacterOffsetBegin'
p6465
S'1852'
p6466
stp6467
a(S'to'
p6468
(dp6469
S'NamedEntityTag'
p6470
g61
sS'CharacterOffsetEnd'
p6471
S'1860'
p6472
sS'Lemma'
p6473
S'to'
p6474
sS'PartOfSpeech'
p6475
S'TO'
p6476
sS'CharacterOffsetBegin'
p6477
S'1858'
p6478
stp6479
a(S'do'
p6480
(dp6481
S'NamedEntityTag'
p6482
g61
sS'CharacterOffsetEnd'
p6483
S'1863'
p6484
sS'Lemma'
p6485
S'do'
p6486
sS'PartOfSpeech'
p6487
S'VB'
p6488
sS'CharacterOffsetBegin'
p6489
S'1861'
p6490
stp6491
a(S'so'
p6492
(dp6493
S'NamedEntityTag'
p6494
g61
sS'CharacterOffsetEnd'
p6495
S'1866'
p6496
sS'Lemma'
p6497
S'so'
p6498
sS'PartOfSpeech'
p6499
S'RB'
p6500
sS'CharacterOffsetBegin'
p6501
S'1864'
p6502
stp6503
a(S'by'
p6504
(dp6505
S'NamedEntityTag'
p6506
g61
sS'CharacterOffsetEnd'
p6507
S'1869'
p6508
sS'Lemma'
p6509
S'by'
p6510
sS'PartOfSpeech'
p6511
S'IN'
p6512
sS'CharacterOffsetBegin'
p6513
S'1867'
p6514
stp6515
a(S'the'
p6516
(dp6517
S'NamedEntityTag'
p6518
g61
sS'CharacterOffsetEnd'
p6519
S'1873'
p6520
sS'Lemma'
p6521
S'the'
p6522
sS'PartOfSpeech'
p6523
S'DT'
p6524
sS'CharacterOffsetBegin'
p6525
S'1870'
p6526
stp6527
a(S'judicial'
p6528
(dp6529
S'NamedEntityTag'
p6530
g61
sS'CharacterOffsetEnd'
p6531
S'1882'
p6532
sS'Lemma'
p6533
S'judicial'
p6534
sS'PartOfSpeech'
p6535
S'JJ'
p6536
sS'CharacterOffsetBegin'
p6537
S'1874'
p6538
stp6539
a(S'authorities'
p6540
(dp6541
S'NamedEntityTag'
p6542
g61
sS'CharacterOffsetEnd'
p6543
S'1894'
p6544
sS'Lemma'
p6545
S'authority'
p6546
sS'PartOfSpeech'
p6547
S'NNS'
p6548
sS'CharacterOffsetBegin'
p6549
S'1883'
p6550
stp6551
a(g119
(dp6552
S'NamedEntityTag'
p6553
g61
sS'CharacterOffsetEnd'
p6554
S'1895'
p6555
sS'Lemma'
p6556
g119
sS'PartOfSpeech'
p6557
g119
sS'CharacterOffsetBegin'
p6558
S'1894'
p6559
stp6560
asa(dp6561
g7
S'(ROOT (S (CC But) (NP (DT the) (NN extradition) (NN attempt)) (VP (MD could) (VP (VB be) (VP (VBN annulled) (PP (IN by) (NP (NP (JJ legal) (NNS challenges)) (PP (IN in) (NP (NNP Spain))))) (PP (RB well) (IN before) (NP (NP (DT the) (NN deadline)) (PP (IN for) (S (VP (VBG presenting) (NP (PRP it)) (PP (IN in) (NP (NNP Britain))))))))))) (. .)))'
p6562
sg9
S'But the extradition attempt could be annulled by legal challenges in Spain well before the deadline for presenting it in Britain.'
p6563
sg11
(lp6564
(S'root'
p6565
S'ROOT'
p6566
S'annulled'
p6567
tp6568
a(S'cc'
p6569
S'annulled'
p6570
S'But'
p6571
tp6572
a(S'det'
p6573
S'attempt'
p6574
S'the'
p6575
tp6576
a(S'nn'
p6577
S'attempt'
p6578
S'extradition'
p6579
tp6580
a(S'nsubjpass'
p6581
S'annulled'
p6582
S'attempt'
p6583
tp6584
a(S'aux'
p6585
S'annulled'
p6586
S'could'
p6587
tp6588
a(S'auxpass'
p6589
S'annulled'
p6590
S'be'
p6591
tp6592
a(S'amod'
p6593
S'challenges'
p6594
S'legal'
p6595
tp6596
a(S'agent'
p6597
S'annulled'
p6598
S'challenges'
p6599
tp6600
a(S'prep_in'
p6601
S'challenges'
p6602
S'Spain'
p6603
tp6604
a(S'advmod'
p6605
S'annulled'
p6606
S'well'
p6607
tp6608
a(S'det'
p6609
S'deadline'
p6610
S'the'
p6611
tp6612
a(S'prep_before'
p6613
S'annulled'
p6614
S'deadline'
p6615
tp6616
a(S'prepc_for'
p6617
S'deadline'
p6618
S'presenting'
p6619
tp6620
a(S'dobj'
p6621
S'presenting'
p6622
S'it'
p6623
tp6624
a(S'prep_in'
p6625
S'presenting'
p6626
S'Britain'
p6627
tp6628
asg29
(lp6629
(g6565
S'ROOT-0'
p6630
S'annulled-7'
p6631
tp6632
a(g6569
S'annulled-7'
p6633
S'But-1'
p6634
tp6635
a(g6573
S'attempt-4'
p6636
S'the-2'
p6637
tp6638
a(g6577
S'attempt-4'
p6639
S'extradition-3'
p6640
tp6641
a(g6581
S'annulled-7'
p6642
S'attempt-4'
p6643
tp6644
a(g6585
S'annulled-7'
p6645
S'could-5'
p6646
tp6647
a(g6589
S'annulled-7'
p6648
S'be-6'
p6649
tp6650
a(g6593
S'challenges-10'
p6651
S'legal-9'
p6652
tp6653
a(g6597
S'annulled-7'
p6654
S'challenges-10'
p6655
tp6656
a(g6601
S'challenges-10'
p6657
S'Spain-12'
p6658
tp6659
a(g6605
S'annulled-7'
p6660
S'well-13'
p6661
tp6662
a(g6609
S'deadline-16'
p6663
S'the-15'
p6664
tp6665
a(g6613
S'annulled-7'
p6666
S'deadline-16'
p6667
tp6668
a(g6617
S'deadline-16'
p6669
S'presenting-18'
p6670
tp6671
a(g6621
S'presenting-18'
p6672
S'it-19'
p6673
tp6674
a(g6625
S'presenting-18'
p6675
S'Britain-21'
p6676
tp6677
asg43
(lp6678
(S'But'
p6679
(dp6680
S'NamedEntityTag'
p6681
g61
sS'CharacterOffsetEnd'
p6682
S'1899'
p6683
sS'Lemma'
p6684
S'but'
p6685
sS'PartOfSpeech'
p6686
S'CC'
p6687
sS'CharacterOffsetBegin'
p6688
S'1896'
p6689
stp6690
a(S'the'
p6691
(dp6692
S'NamedEntityTag'
p6693
g61
sS'CharacterOffsetEnd'
p6694
S'1903'
p6695
sS'Lemma'
p6696
S'the'
p6697
sS'PartOfSpeech'
p6698
S'DT'
p6699
sS'CharacterOffsetBegin'
p6700
S'1900'
p6701
stp6702
a(S'extradition'
p6703
(dp6704
S'NamedEntityTag'
p6705
g61
sS'CharacterOffsetEnd'
p6706
S'1915'
p6707
sS'Lemma'
p6708
S'extradition'
p6709
sS'PartOfSpeech'
p6710
S'NN'
p6711
sS'CharacterOffsetBegin'
p6712
S'1904'
p6713
stp6714
a(S'attempt'
p6715
(dp6716
S'NamedEntityTag'
p6717
g61
sS'CharacterOffsetEnd'
p6718
S'1923'
p6719
sS'Lemma'
p6720
S'attempt'
p6721
sS'PartOfSpeech'
p6722
S'NN'
p6723
sS'CharacterOffsetBegin'
p6724
S'1916'
p6725
stp6726
a(S'could'
p6727
(dp6728
S'NamedEntityTag'
p6729
g61
sS'CharacterOffsetEnd'
p6730
S'1929'
p6731
sS'Lemma'
p6732
S'could'
p6733
sS'PartOfSpeech'
p6734
S'MD'
p6735
sS'CharacterOffsetBegin'
p6736
S'1924'
p6737
stp6738
a(S'be'
p6739
(dp6740
S'NamedEntityTag'
p6741
g61
sS'CharacterOffsetEnd'
p6742
S'1932'
p6743
sS'Lemma'
p6744
S'be'
p6745
sS'PartOfSpeech'
p6746
S'VB'
p6747
sS'CharacterOffsetBegin'
p6748
S'1930'
p6749
stp6750
a(S'annulled'
p6751
(dp6752
S'NamedEntityTag'
p6753
g61
sS'CharacterOffsetEnd'
p6754
S'1941'
p6755
sS'Lemma'
p6756
S'annul'
p6757
sS'PartOfSpeech'
p6758
S'VBN'
p6759
sS'CharacterOffsetBegin'
p6760
S'1933'
p6761
stp6762
a(S'by'
p6763
(dp6764
S'NamedEntityTag'
p6765
g61
sS'CharacterOffsetEnd'
p6766
S'1944'
p6767
sS'Lemma'
p6768
S'by'
p6769
sS'PartOfSpeech'
p6770
S'IN'
p6771
sS'CharacterOffsetBegin'
p6772
S'1942'
p6773
stp6774
a(S'legal'
p6775
(dp6776
S'NamedEntityTag'
p6777
g61
sS'CharacterOffsetEnd'
p6778
S'1950'
p6779
sS'Lemma'
p6780
S'legal'
p6781
sS'PartOfSpeech'
p6782
S'JJ'
p6783
sS'CharacterOffsetBegin'
p6784
S'1945'
p6785
stp6786
a(S'challenges'
p6787
(dp6788
S'NamedEntityTag'
p6789
g61
sS'CharacterOffsetEnd'
p6790
S'1961'
p6791
sS'Lemma'
p6792
S'challenge'
p6793
sS'PartOfSpeech'
p6794
S'NNS'
p6795
sS'CharacterOffsetBegin'
p6796
S'1951'
p6797
stp6798
a(S'in'
p6799
(dp6800
S'NamedEntityTag'
p6801
g61
sS'CharacterOffsetEnd'
p6802
S'1964'
p6803
sS'Lemma'
p6804
S'in'
p6805
sS'PartOfSpeech'
p6806
S'IN'
p6807
sS'CharacterOffsetBegin'
p6808
S'1962'
p6809
stp6810
a(S'Spain'
p6811
(dp6812
S'NamedEntityTag'
p6813
S'LOCATION'
p6814
sS'CharacterOffsetEnd'
p6815
S'1970'
p6816
sS'Lemma'
p6817
S'Spain'
p6818
sS'PartOfSpeech'
p6819
S'NNP'
p6820
sS'CharacterOffsetBegin'
p6821
S'1965'
p6822
stp6823
a(S'well'
p6824
(dp6825
S'NamedEntityTag'
p6826
g61
sS'CharacterOffsetEnd'
p6827
S'1975'
p6828
sS'Lemma'
p6829
S'well'
p6830
sS'PartOfSpeech'
p6831
S'RB'
p6832
sS'CharacterOffsetBegin'
p6833
S'1971'
p6834
stp6835
a(S'before'
p6836
(dp6837
S'NamedEntityTag'
p6838
g61
sS'CharacterOffsetEnd'
p6839
S'1982'
p6840
sS'Lemma'
p6841
S'before'
p6842
sS'PartOfSpeech'
p6843
S'IN'
p6844
sS'CharacterOffsetBegin'
p6845
S'1976'
p6846
stp6847
a(S'the'
p6848
(dp6849
S'NamedEntityTag'
p6850
g61
sS'CharacterOffsetEnd'
p6851
S'1986'
p6852
sS'Lemma'
p6853
S'the'
p6854
sS'PartOfSpeech'
p6855
S'DT'
p6856
sS'CharacterOffsetBegin'
p6857
S'1983'
p6858
stp6859
a(S'deadline'
p6860
(dp6861
S'NamedEntityTag'
p6862
g61
sS'CharacterOffsetEnd'
p6863
S'1995'
p6864
sS'Lemma'
p6865
S'deadline'
p6866
sS'PartOfSpeech'
p6867
S'NN'
p6868
sS'CharacterOffsetBegin'
p6869
S'1987'
p6870
stp6871
a(S'for'
p6872
(dp6873
S'NamedEntityTag'
p6874
g61
sS'CharacterOffsetEnd'
p6875
S'1999'
p6876
sS'Lemma'
p6877
S'for'
p6878
sS'PartOfSpeech'
p6879
S'IN'
p6880
sS'CharacterOffsetBegin'
p6881
S'1996'
p6882
stp6883
a(S'presenting'
p6884
(dp6885
S'NamedEntityTag'
p6886
g61
sS'CharacterOffsetEnd'
p6887
S'2010'
p6888
sS'Lemma'
p6889
S'present'
p6890
sS'PartOfSpeech'
p6891
S'VBG'
p6892
sS'CharacterOffsetBegin'
p6893
S'2000'
p6894
stp6895
a(S'it'
p6896
(dp6897
S'NamedEntityTag'
p6898
g61
sS'CharacterOffsetEnd'
p6899
S'2013'
p6900
sS'Lemma'
p6901
S'it'
p6902
sS'PartOfSpeech'
p6903
S'PRP'
p6904
sS'CharacterOffsetBegin'
p6905
S'2011'
p6906
stp6907
a(S'in'
p6908
(dp6909
S'NamedEntityTag'
p6910
g61
sS'CharacterOffsetEnd'
p6911
S'2016'
p6912
sS'Lemma'
p6913
S'in'
p6914
sS'PartOfSpeech'
p6915
S'IN'
p6916
sS'CharacterOffsetBegin'
p6917
S'2014'
p6918
stp6919
a(S'Britain'
p6920
(dp6921
S'NamedEntityTag'
p6922
S'LOCATION'
p6923
sS'CharacterOffsetEnd'
p6924
S'2024'
p6925
sS'Lemma'
p6926
S'Britain'
p6927
sS'PartOfSpeech'
p6928
S'NNP'
p6929
sS'CharacterOffsetBegin'
p6930
S'2017'
p6931
stp6932
a(g119
(dp6933
S'NamedEntityTag'
p6934
g61
sS'CharacterOffsetEnd'
p6935
S'2025'
p6936
sS'Lemma'
p6937
g119
sS'PartOfSpeech'
p6938
g119
sS'CharacterOffsetBegin'
p6939
S'2024'
p6940
stp6941
asa(dp6942
g7
S'(ROOT (S (NP (DT The) (NN deadline)) (VP (VBZ is) (VP (VBN set) (SBAR (IN for) (S (NP (NNP November) (JJ 25th) (NN _)) (ADVP (RB coincidentally)) (VP (VBZ Pinochets) (NP (JJ 83rd) (NN birthday))))))) (. .)))'
p6943
sg9
S'The deadline is set for November 25th _ coincidentally Pinochets 83rd birthday.'
p6944
sg11
(lp6945
(S'root'
p6946
S'ROOT'
p6947
S'set'
p6948
tp6949
a(S'det'
p6950
S'deadline'
p6951
S'The'
p6952
tp6953
a(S'nsubjpass'
p6954
S'set'
p6955
S'deadline'
p6956
tp6957
a(S'auxpass'
p6958
S'set'
p6959
S'is'
p6960
tp6961
a(S'mark'
p6962
S'Pinochets'
p6963
S'for'
p6964
tp6965
a(S'nn'
p6966
S'_'
p6967
S'November'
p6968
tp6969
a(S'amod'
p6970
g6967
S'25th'
p6971
tp6972
a(S'nsubj'
p6973
S'Pinochets'
p6974
g6967
tp6975
a(S'advmod'
p6976
S'Pinochets'
p6977
S'coincidentally'
p6978
tp6979
a(S'advcl'
p6980
S'set'
p6981
S'Pinochets'
p6982
tp6983
a(S'amod'
p6984
S'birthday'
p6985
S'83rd'
p6986
tp6987
a(S'dobj'
p6988
S'Pinochets'
p6989
S'birthday'
p6990
tp6991
asg29
(lp6992
(g6946
S'ROOT-0'
p6993
S'set-4'
p6994
tp6995
a(g6950
S'deadline-2'
p6996
S'The-1'
p6997
tp6998
a(g6954
S'set-4'
p6999
S'deadline-2'
p7000
tp7001
a(g6958
S'set-4'
p7002
S'is-3'
p7003
tp7004
a(g6962
S'Pinochets-10'
p7005
S'for-5'
p7006
tp7007
a(g6966
S'_-8'
p7008
S'November-6'
p7009
tp7010
a(g6970
S'_-8'
p7011
S'25th-7'
p7012
tp7013
a(g6973
S'Pinochets-10'
p7014
S'_-8'
p7015
tp7016
a(g6976
S'Pinochets-10'
p7017
S'coincidentally-9'
p7018
tp7019
a(g6980
S'set-4'
p7020
S'Pinochets-10'
p7021
tp7022
a(g6984
S'birthday-12'
p7023
S'83rd-11'
p7024
tp7025
a(g6988
S'Pinochets-10'
p7026
S'birthday-12'
p7027
tp7028
asg43
(lp7029
(S'The'
p7030
(dp7031
S'NamedEntityTag'
p7032
g61
sS'CharacterOffsetEnd'
p7033
S'2029'
p7034
sS'Lemma'
p7035
S'the'
p7036
sS'PartOfSpeech'
p7037
S'DT'
p7038
sS'CharacterOffsetBegin'
p7039
S'2026'
p7040
stp7041
a(S'deadline'
p7042
(dp7043
S'NamedEntityTag'
p7044
g61
sS'CharacterOffsetEnd'
p7045
S'2038'
p7046
sS'Lemma'
p7047
S'deadline'
p7048
sS'PartOfSpeech'
p7049
S'NN'
p7050
sS'CharacterOffsetBegin'
p7051
S'2030'
p7052
stp7053
a(S'is'
p7054
(dp7055
S'NamedEntityTag'
p7056
g61
sS'CharacterOffsetEnd'
p7057
S'2041'
p7058
sS'Lemma'
p7059
S'be'
p7060
sS'PartOfSpeech'
p7061
S'VBZ'
p7062
sS'CharacterOffsetBegin'
p7063
S'2039'
p7064
stp7065
a(S'set'
p7066
(dp7067
S'NamedEntityTag'
p7068
g61
sS'CharacterOffsetEnd'
p7069
S'2045'
p7070
sS'Lemma'
p7071
S'set'
p7072
sS'PartOfSpeech'
p7073
S'VBN'
p7074
sS'CharacterOffsetBegin'
p7075
S'2042'
p7076
stp7077
a(S'for'
p7078
(dp7079
S'NamedEntityTag'
p7080
g61
sS'CharacterOffsetEnd'
p7081
S'2049'
p7082
sS'Lemma'
p7083
S'for'
p7084
sS'PartOfSpeech'
p7085
S'IN'
p7086
sS'CharacterOffsetBegin'
p7087
S'2046'
p7088
stp7089
a(S'November'
p7090
(dp7091
S'NormalizedNamedEntityTag'
p7092
S'XXXX-11-25'
p7093
sS'Timex'
p7094
S'<TIMEX3 tid="t11" type="DATE" value="XXXX-11-25">November 25th</TIMEX3>'
p7095
sS'Lemma'
p7096
S'November'
p7097
sS'CharacterOffsetEnd'
p7098
S'2058'
p7099
sS'PartOfSpeech'
p7100
S'NNP'
p7101
sS'CharacterOffsetBegin'
p7102
S'2050'
p7103
sS'NamedEntityTag'
p7104
S'DATE'
p7105
stp7106
a(S'25th'
p7107
(dp7108
S'NormalizedNamedEntityTag'
p7109
S'XXXX-11-25'
p7110
sS'Timex'
p7111
S'<TIMEX3 tid="t11" type="DATE" value="XXXX-11-25">November 25th</TIMEX3>'
p7112
sS'Lemma'
p7113
S'25th'
p7114
sS'CharacterOffsetEnd'
p7115
S'2063'
p7116
sS'PartOfSpeech'
p7117
S'JJ'
p7118
sS'CharacterOffsetBegin'
p7119
S'2059'
p7120
sS'NamedEntityTag'
p7121
S'DATE'
p7122
stp7123
a(g6967
(dp7124
S'NamedEntityTag'
p7125
g61
sS'CharacterOffsetEnd'
p7126
S'2065'
p7127
sS'Lemma'
p7128
g6967
sS'PartOfSpeech'
p7129
S'NN'
p7130
sS'CharacterOffsetBegin'
p7131
S'2064'
p7132
stp7133
a(S'coincidentally'
p7134
(dp7135
S'NamedEntityTag'
p7136
g61
sS'CharacterOffsetEnd'
p7137
S'2080'
p7138
sS'Lemma'
p7139
S'coincidentally'
p7140
sS'PartOfSpeech'
p7141
S'RB'
p7142
sS'CharacterOffsetBegin'
p7143
S'2066'
p7144
stp7145
a(S'Pinochets'
p7146
(dp7147
S'NamedEntityTag'
p7148
S'PERSON'
p7149
sS'CharacterOffsetEnd'
p7150
S'2090'
p7151
sS'Lemma'
p7152
S'pinochet'
p7153
sS'PartOfSpeech'
p7154
S'VBZ'
p7155
sS'CharacterOffsetBegin'
p7156
S'2081'
p7157
stp7158
a(S'83rd'
p7159
(dp7160
S'NormalizedNamedEntityTag'
p7161
S'83.0'
p7162
sS'Lemma'
p7163
S'83rd'
p7164
sS'CharacterOffsetEnd'
p7165
S'2095'
p7166
sS'PartOfSpeech'
p7167
S'JJ'
p7168
sS'CharacterOffsetBegin'
p7169
S'2091'
p7170
sS'NamedEntityTag'
p7171
S'ORDINAL'
p7172
stp7173
a(S'birthday'
p7174
(dp7175
S'NamedEntityTag'
p7176
g61
sS'CharacterOffsetEnd'
p7177
S'2104'
p7178
sS'Lemma'
p7179
S'birthday'
p7180
sS'PartOfSpeech'
p7181
S'NN'
p7182
sS'CharacterOffsetBegin'
p7183
S'2096'
p7184
stp7185
a(g119
(dp7186
S'NamedEntityTag'
p7187
g61
sS'CharacterOffsetEnd'
p7188
S'2105'
p7189
sS'Lemma'
p7190
g119
sS'PartOfSpeech'
p7191
g119
sS'CharacterOffsetBegin'
p7192
S'2104'
p7193
stp7194
asa(dp7195
g7
S'(ROOT (S (PP (IN On) (NP (NNP Thursday))) (NP (NP (DT the) (NN head) (NN prosecutor)) (PP (IN from) (NP (DT the) (NNP National) (NNP Court)))) (VP (VBD set) (PP (IN in) (NP (NN motion) (NNS appeals))) (PP (IN against) (NP (NP (JJ several) (NNS rulings)) (VP (VBN made) (PP (IN by) (NP (NP (NNP Judge) (NNP Garzon)) (VP (JJ related) (PP (TO to) (NP (NNPS Pinochets) (NN detention))) (PP (IN in) (NP (DT the) (NNP London) (NN clinic))) (SBAR (WHADVP (WRB where)) (S (NP (PRP he)) (VP (VBD was) (VP (VBG recovering) (PP (IN from) (NP (RB back) (NN surgery)))))))))))))) (. .)))'
p7196
sg9
S'On Thursday the head prosecutor from the National Court set in motion appeals against several rulings made by Judge Garzon related to Pinochets detention in the London clinic where he was recovering from back surgery.'
p7197
sg11
(lp7198
(S'root'
p7199
S'ROOT'
p7200
S'set'
p7201
tp7202
a(S'prep_on'
p7203
S'set'
p7204
S'Thursday'
p7205
tp7206
a(S'det'
p7207
S'prosecutor'
p7208
S'the'
p7209
tp7210
a(S'nn'
p7211
S'prosecutor'
p7212
S'head'
p7213
tp7214
a(S'nsubj'
p7215
S'set'
p7216
S'prosecutor'
p7217
tp7218
a(S'det'
p7219
S'Court'
p7220
S'the'
p7221
tp7222
a(S'nn'
p7223
S'Court'
p7224
S'National'
p7225
tp7226
a(S'prep_from'
p7227
S'prosecutor'
p7228
S'Court'
p7229
tp7230
a(S'nn'
p7231
S'appeals'
p7232
S'motion'
p7233
tp7234
a(S'prep_in'
p7235
S'set'
p7236
S'appeals'
p7237
tp7238
a(S'amod'
p7239
S'rulings'
p7240
S'several'
p7241
tp7242
a(S'prep_against'
p7243
S'set'
p7244
S'rulings'
p7245
tp7246
a(S'partmod'
p7247
S'rulings'
p7248
S'made'
p7249
tp7250
a(S'nn'
p7251
S'Garzon'
p7252
S'Judge'
p7253
tp7254
a(S'agent'
p7255
S'made'
p7256
S'Garzon'
p7257
tp7258
a(S'dep'
p7259
S'Garzon'
p7260
S'related'
p7261
tp7262
a(S'nn'
p7263
S'detention'
p7264
S'Pinochets'
p7265
tp7266
a(S'prep_to'
p7267
S'related'
p7268
S'detention'
p7269
tp7270
a(S'det'
p7271
S'clinic'
p7272
S'the'
p7273
tp7274
a(S'nn'
p7275
S'clinic'
p7276
S'London'
p7277
tp7278
a(S'prep_in'
p7279
S'related'
p7280
S'clinic'
p7281
tp7282
a(S'advmod'
p7283
S'recovering'
p7284
S'where'
p7285
tp7286
a(S'nsubj'
p7287
S'recovering'
p7288
S'he'
p7289
tp7290
a(S'aux'
p7291
S'recovering'
p7292
S'was'
p7293
tp7294
a(S'advcl'
p7295
S'related'
p7296
S'recovering'
p7297
tp7298
a(S'advmod'
p7299
S'surgery'
p7300
S'back'
p7301
tp7302
a(S'prep_from'
p7303
S'recovering'
p7304
S'surgery'
p7305
tp7306
asg29
(lp7307
(g7199
S'ROOT-0'
p7308
S'set-10'
p7309
tp7310
a(g7203
S'set-10'
p7311
S'Thursday-2'
p7312
tp7313
a(g7207
S'prosecutor-5'
p7314
S'the-3'
p7315
tp7316
a(g7211
S'prosecutor-5'
p7317
S'head-4'
p7318
tp7319
a(g7215
S'set-10'
p7320
S'prosecutor-5'
p7321
tp7322
a(g7219
S'Court-9'
p7323
S'the-7'
p7324
tp7325
a(g7223
S'Court-9'
p7326
S'National-8'
p7327
tp7328
a(g7227
S'prosecutor-5'
p7329
S'Court-9'
p7330
tp7331
a(g7231
S'appeals-13'
p7332
S'motion-12'
p7333
tp7334
a(g7235
S'set-10'
p7335
S'appeals-13'
p7336
tp7337
a(g7239
S'rulings-16'
p7338
S'several-15'
p7339
tp7340
a(g7243
S'set-10'
p7341
S'rulings-16'
p7342
tp7343
a(g7247
S'rulings-16'
p7344
S'made-17'
p7345
tp7346
a(g7251
S'Garzon-20'
p7347
S'Judge-19'
p7348
tp7349
a(g7255
S'made-17'
p7350
S'Garzon-20'
p7351
tp7352
a(g7259
S'Garzon-20'
p7353
S'related-21'
p7354
tp7355
a(g7263
S'detention-24'
p7356
S'Pinochets-23'
p7357
tp7358
a(g7267
S'related-21'
p7359
S'detention-24'
p7360
tp7361
a(g7271
S'clinic-28'
p7362
S'the-26'
p7363
tp7364
a(g7275
S'clinic-28'
p7365
S'London-27'
p7366
tp7367
a(g7279
S'related-21'
p7368
S'clinic-28'
p7369
tp7370
a(g7283
S'recovering-32'
p7371
S'where-29'
p7372
tp7373
a(g7287
S'recovering-32'
p7374
S'he-30'
p7375
tp7376
a(g7291
S'recovering-32'
p7377
S'was-31'
p7378
tp7379
a(g7295
S'related-21'
p7380
S'recovering-32'
p7381
tp7382
a(g7299
S'surgery-35'
p7383
S'back-34'
p7384
tp7385
a(g7303
S'recovering-32'
p7386
S'surgery-35'
p7387
tp7388
asg43
(lp7389
(S'On'
p7390
(dp7391
S'NamedEntityTag'
p7392
g61
sS'CharacterOffsetEnd'
p7393
S'2108'
p7394
sS'Lemma'
p7395
S'on'
p7396
sS'PartOfSpeech'
p7397
S'IN'
p7398
sS'CharacterOffsetBegin'
p7399
S'2106'
p7400
stp7401
a(S'Thursday'
p7402
(dp7403
S'NormalizedNamedEntityTag'
p7404
S'XXXX-WXX-4'
p7405
sS'Timex'
p7406
S'<TIMEX3 tid="t1" type="DATE" value="XXXX-WXX-4">Thursday</TIMEX3>'
p7407
sS'Lemma'
p7408
S'Thursday'
p7409
sS'CharacterOffsetEnd'
p7410
S'2117'
p7411
sS'PartOfSpeech'
p7412
S'NNP'
p7413
sS'CharacterOffsetBegin'
p7414
S'2109'
p7415
sS'NamedEntityTag'
p7416
S'DATE'
p7417
stp7418
a(S'the'
p7419
(dp7420
S'NamedEntityTag'
p7421
g61
sS'CharacterOffsetEnd'
p7422
S'2121'
p7423
sS'Lemma'
p7424
S'the'
p7425
sS'PartOfSpeech'
p7426
S'DT'
p7427
sS'CharacterOffsetBegin'
p7428
S'2118'
p7429
stp7430
a(S'head'
p7431
(dp7432
S'NamedEntityTag'
p7433
g61
sS'CharacterOffsetEnd'
p7434
S'2126'
p7435
sS'Lemma'
p7436
S'head'
p7437
sS'PartOfSpeech'
p7438
S'NN'
p7439
sS'CharacterOffsetBegin'
p7440
S'2122'
p7441
stp7442
a(S'prosecutor'
p7443
(dp7444
S'NamedEntityTag'
p7445
g61
sS'CharacterOffsetEnd'
p7446
S'2137'
p7447
sS'Lemma'
p7448
S'prosecutor'
p7449
sS'PartOfSpeech'
p7450
S'NN'
p7451
sS'CharacterOffsetBegin'
p7452
S'2127'
p7453
stp7454
a(S'from'
p7455
(dp7456
S'NamedEntityTag'
p7457
g61
sS'CharacterOffsetEnd'
p7458
S'2142'
p7459
sS'Lemma'
p7460
S'from'
p7461
sS'PartOfSpeech'
p7462
S'IN'
p7463
sS'CharacterOffsetBegin'
p7464
S'2138'
p7465
stp7466
a(S'the'
p7467
(dp7468
S'NamedEntityTag'
p7469
g61
sS'CharacterOffsetEnd'
p7470
S'2146'
p7471
sS'Lemma'
p7472
S'the'
p7473
sS'PartOfSpeech'
p7474
S'DT'
p7475
sS'CharacterOffsetBegin'
p7476
S'2143'
p7477
stp7478
a(S'National'
p7479
(dp7480
S'NamedEntityTag'
p7481
S'ORGANIZATION'
p7482
sS'CharacterOffsetEnd'
p7483
S'2155'
p7484
sS'Lemma'
p7485
S'National'
p7486
sS'PartOfSpeech'
p7487
S'NNP'
p7488
sS'CharacterOffsetBegin'
p7489
S'2147'
p7490
stp7491
a(S'Court'
p7492
(dp7493
S'NamedEntityTag'
p7494
S'ORGANIZATION'
p7495
sS'CharacterOffsetEnd'
p7496
S'2161'
p7497
sS'Lemma'
p7498
S'Court'
p7499
sS'PartOfSpeech'
p7500
S'NNP'
p7501
sS'CharacterOffsetBegin'
p7502
S'2156'
p7503
stp7504
a(S'set'
p7505
(dp7506
S'NamedEntityTag'
p7507
g61
sS'CharacterOffsetEnd'
p7508
S'2165'
p7509
sS'Lemma'
p7510
S'set'
p7511
sS'PartOfSpeech'
p7512
S'VBD'
p7513
sS'CharacterOffsetBegin'
p7514
S'2162'
p7515
stp7516
a(S'in'
p7517
(dp7518
S'NamedEntityTag'
p7519
g61
sS'CharacterOffsetEnd'
p7520
S'2168'
p7521
sS'Lemma'
p7522
S'in'
p7523
sS'PartOfSpeech'
p7524
S'IN'
p7525
sS'CharacterOffsetBegin'
p7526
S'2166'
p7527
stp7528
a(S'motion'
p7529
(dp7530
S'NamedEntityTag'
p7531
g61
sS'CharacterOffsetEnd'
p7532
S'2175'
p7533
sS'Lemma'
p7534
S'motion'
p7535
sS'PartOfSpeech'
p7536
S'NN'
p7537
sS'CharacterOffsetBegin'
p7538
S'2169'
p7539
stp7540
a(S'appeals'
p7541
(dp7542
S'NamedEntityTag'
p7543
g61
sS'CharacterOffsetEnd'
p7544
S'2183'
p7545
sS'Lemma'
p7546
S'appeal'
p7547
sS'PartOfSpeech'
p7548
S'NNS'
p7549
sS'CharacterOffsetBegin'
p7550
S'2176'
p7551
stp7552
a(S'against'
p7553
(dp7554
S'NamedEntityTag'
p7555
g61
sS'CharacterOffsetEnd'
p7556
S'2191'
p7557
sS'Lemma'
p7558
S'against'
p7559
sS'PartOfSpeech'
p7560
S'IN'
p7561
sS'CharacterOffsetBegin'
p7562
S'2184'
p7563
stp7564
a(S'several'
p7565
(dp7566
S'NamedEntityTag'
p7567
g61
sS'CharacterOffsetEnd'
p7568
S'2199'
p7569
sS'Lemma'
p7570
S'several'
p7571
sS'PartOfSpeech'
p7572
S'JJ'
p7573
sS'CharacterOffsetBegin'
p7574
S'2192'
p7575
stp7576
a(S'rulings'
p7577
(dp7578
S'NamedEntityTag'
p7579
g61
sS'CharacterOffsetEnd'
p7580
S'2207'
p7581
sS'Lemma'
p7582
S'ruling'
p7583
sS'PartOfSpeech'
p7584
S'NNS'
p7585
sS'CharacterOffsetBegin'
p7586
S'2200'
p7587
stp7588
a(S'made'
p7589
(dp7590
S'NamedEntityTag'
p7591
g61
sS'CharacterOffsetEnd'
p7592
S'2212'
p7593
sS'Lemma'
p7594
S'make'
p7595
sS'PartOfSpeech'
p7596
S'VBN'
p7597
sS'CharacterOffsetBegin'
p7598
S'2208'
p7599
stp7600
a(S'by'
p7601
(dp7602
S'NamedEntityTag'
p7603
g61
sS'CharacterOffsetEnd'
p7604
S'2215'
p7605
sS'Lemma'
p7606
S'by'
p7607
sS'PartOfSpeech'
p7608
S'IN'
p7609
sS'CharacterOffsetBegin'
p7610
S'2213'
p7611
stp7612
a(S'Judge'
p7613
(dp7614
S'NamedEntityTag'
p7615
g61
sS'CharacterOffsetEnd'
p7616
S'2221'
p7617
sS'Lemma'
p7618
S'Judge'
p7619
sS'PartOfSpeech'
p7620
S'NNP'
p7621
sS'CharacterOffsetBegin'
p7622
S'2216'
p7623
stp7624
a(S'Garzon'
p7625
(dp7626
S'NamedEntityTag'
p7627
S'PERSON'
p7628
sS'CharacterOffsetEnd'
p7629
S'2228'
p7630
sS'Lemma'
p7631
S'Garzon'
p7632
sS'PartOfSpeech'
p7633
S'NNP'
p7634
sS'CharacterOffsetBegin'
p7635
S'2222'
p7636
stp7637
a(S'related'
p7638
(dp7639
S'NamedEntityTag'
p7640
g61
sS'CharacterOffsetEnd'
p7641
S'2236'
p7642
sS'Lemma'
p7643
S'related'
p7644
sS'PartOfSpeech'
p7645
S'JJ'
p7646
sS'CharacterOffsetBegin'
p7647
S'2229'
p7648
stp7649
a(S'to'
p7650
(dp7651
S'NamedEntityTag'
p7652
g61
sS'CharacterOffsetEnd'
p7653
S'2239'
p7654
sS'Lemma'
p7655
S'to'
p7656
sS'PartOfSpeech'
p7657
S'TO'
p7658
sS'CharacterOffsetBegin'
p7659
S'2237'
p7660
stp7661
a(S'Pinochets'
p7662
(dp7663
S'NamedEntityTag'
p7664
g61
sS'CharacterOffsetEnd'
p7665
S'2249'
p7666
sS'Lemma'
p7667
S'Pinochets'
p7668
sS'PartOfSpeech'
p7669
S'NNPS'
p7670
sS'CharacterOffsetBegin'
p7671
S'2240'
p7672
stp7673
a(S'detention'
p7674
(dp7675
S'NamedEntityTag'
p7676
g61
sS'CharacterOffsetEnd'
p7677
S'2259'
p7678
sS'Lemma'
p7679
S'detention'
p7680
sS'PartOfSpeech'
p7681
S'NN'
p7682
sS'CharacterOffsetBegin'
p7683
S'2250'
p7684
stp7685
a(S'in'
p7686
(dp7687
S'NamedEntityTag'
p7688
g61
sS'CharacterOffsetEnd'
p7689
S'2262'
p7690
sS'Lemma'
p7691
S'in'
p7692
sS'PartOfSpeech'
p7693
S'IN'
p7694
sS'CharacterOffsetBegin'
p7695
S'2260'
p7696
stp7697
a(S'the'
p7698
(dp7699
S'NamedEntityTag'
p7700
g61
sS'CharacterOffsetEnd'
p7701
S'2266'
p7702
sS'Lemma'
p7703
S'the'
p7704
sS'PartOfSpeech'
p7705
S'DT'
p7706
sS'CharacterOffsetBegin'
p7707
S'2263'
p7708
stp7709
a(S'London'
p7710
(dp7711
S'NamedEntityTag'
p7712
S'LOCATION'
p7713
sS'CharacterOffsetEnd'
p7714
S'2273'
p7715
sS'Lemma'
p7716
S'London'
p7717
sS'PartOfSpeech'
p7718
S'NNP'
p7719
sS'CharacterOffsetBegin'
p7720
S'2267'
p7721
stp7722
a(S'clinic'
p7723
(dp7724
S'NamedEntityTag'
p7725
g61
sS'CharacterOffsetEnd'
p7726
S'2280'
p7727
sS'Lemma'
p7728
S'clinic'
p7729
sS'PartOfSpeech'
p7730
S'NN'
p7731
sS'CharacterOffsetBegin'
p7732
S'2274'
p7733
stp7734
a(S'where'
p7735
(dp7736
S'NamedEntityTag'
p7737
g61
sS'CharacterOffsetEnd'
p7738
S'2286'
p7739
sS'Lemma'
p7740
S'where'
p7741
sS'PartOfSpeech'
p7742
S'WRB'
p7743
sS'CharacterOffsetBegin'
p7744
S'2281'
p7745
stp7746
a(S'he'
p7747
(dp7748
S'NamedEntityTag'
p7749
g61
sS'CharacterOffsetEnd'
p7750
S'2289'
p7751
sS'Lemma'
p7752
S'he'
p7753
sS'PartOfSpeech'
p7754
S'PRP'
p7755
sS'CharacterOffsetBegin'
p7756
S'2287'
p7757
stp7758
a(S'was'
p7759
(dp7760
S'NamedEntityTag'
p7761
g61
sS'CharacterOffsetEnd'
p7762
S'2293'
p7763
sS'Lemma'
p7764
S'be'
p7765
sS'PartOfSpeech'
p7766
S'VBD'
p7767
sS'CharacterOffsetBegin'
p7768
S'2290'
p7769
stp7770
a(S'recovering'
p7771
(dp7772
S'NamedEntityTag'
p7773
g61
sS'CharacterOffsetEnd'
p7774
S'2304'
p7775
sS'Lemma'
p7776
S'recover'
p7777
sS'PartOfSpeech'
p7778
S'VBG'
p7779
sS'CharacterOffsetBegin'
p7780
S'2294'
p7781
stp7782
a(S'from'
p7783
(dp7784
S'NamedEntityTag'
p7785
g61
sS'CharacterOffsetEnd'
p7786
S'2309'
p7787
sS'Lemma'
p7788
S'from'
p7789
sS'PartOfSpeech'
p7790
S'IN'
p7791
sS'CharacterOffsetBegin'
p7792
S'2305'
p7793
stp7794
a(S'back'
p7795
(dp7796
S'NamedEntityTag'
p7797
g61
sS'CharacterOffsetEnd'
p7798
S'2314'
p7799
sS'Lemma'
p7800
S'back'
p7801
sS'PartOfSpeech'
p7802
S'RB'
p7803
sS'CharacterOffsetBegin'
p7804
S'2310'
p7805
stp7806
a(S'surgery'
p7807
(dp7808
S'NamedEntityTag'
p7809
g61
sS'CharacterOffsetEnd'
p7810
S'2322'
p7811
sS'Lemma'
p7812
S'surgery'
p7813
sS'PartOfSpeech'
p7814
S'NN'
p7815
sS'CharacterOffsetBegin'
p7816
S'2315'
p7817
stp7818
a(g119
(dp7819
S'NamedEntityTag'
p7820
g61
sS'CharacterOffsetEnd'
p7821
S'2323'
p7822
sS'Lemma'
p7823
g119
sS'PartOfSpeech'
p7824
g119
sS'CharacterOffsetBegin'
p7825
S'2322'
p7826
stp7827
asa(dp7828
g7
S'(ROOT (S (NP (DT The) (NNS courts)) (VP (VBP plenary) (SBAR (S (VP (VBZ is) (VP (VBN expected) (S (VP (TO to) (VP (VB meet) (NP-TMP (JJ next) (NN week)) (S (VP (TO to) (VP (VB decide) (PP (IN on) (NP (NP (DT an) (JJR earlier) (NN challenge)) (PP (IN of) (NP (DT the) (JJ Spanish) (JJ judicial) (NNS investigations))))) (PP (IN into) (NP (NP (JJ human) (NNS rights) (NNS abuses)) (PP (IN in) (NP (NNP Chile) (CC and) (NNP Argentina))) (SBAR (WHNP (WDT that)) (S (VP (VBP underpin) (NP (JJ Garzons) (NN arrest) (NN warrant)))))))))))))))))) (. .)))'
p7829
sg9
S'The courts plenary is expected to meet next week to decide on an earlier challenge of the Spanish judicial investigations into human rights abuses in Chile and Argentina that underpin Garzons arrest warrant.'
p7830
sg11
(lp7831
(S'root'
p7832
S'ROOT'
p7833
S'plenary'
p7834
tp7835
a(S'det'
p7836
S'courts'
p7837
S'The'
p7838
tp7839
a(S'nsubj'
p7840
S'plenary'
p7841
S'courts'
p7842
tp7843
a(S'auxpass'
p7844
S'expected'
p7845
S'is'
p7846
tp7847
a(S'ccomp'
p7848
S'plenary'
p7849
S'expected'
p7850
tp7851
a(S'aux'
p7852
S'meet'
p7853
S'to'
p7854
tp7855
a(S'xcomp'
p7856
S'expected'
p7857
S'meet'
p7858
tp7859
a(S'amod'
p7860
S'week'
p7861
S'next'
p7862
tp7863
a(S'tmod'
p7864
S'meet'
p7865
S'week'
p7866
tp7867
a(S'aux'
p7868
S'decide'
p7869
S'to'
p7870
tp7871
a(S'xcomp'
p7872
S'meet'
p7873
S'decide'
p7874
tp7875
a(S'det'
p7876
S'challenge'
p7877
S'an'
p7878
tp7879
a(S'amod'
p7880
S'challenge'
p7881
S'earlier'
p7882
tp7883
a(S'prep_on'
p7884
S'decide'
p7885
S'challenge'
p7886
tp7887
a(S'det'
p7888
S'investigations'
p7889
S'the'
p7890
tp7891
a(S'amod'
p7892
S'investigations'
p7893
S'Spanish'
p7894
tp7895
a(S'amod'
p7896
S'investigations'
p7897
S'judicial'
p7898
tp7899
a(S'prep_of'
p7900
S'challenge'
p7901
S'investigations'
p7902
tp7903
a(S'amod'
p7904
S'abuses'
p7905
S'human'
p7906
tp7907
a(S'nn'
p7908
S'abuses'
p7909
S'rights'
p7910
tp7911
a(S'prep_into'
p7912
S'decide'
p7913
S'abuses'
p7914
tp7915
a(S'prep_in'
p7916
S'abuses'
p7917
S'Chile'
p7918
tp7919
a(S'conj_and'
p7920
S'Chile'
p7921
S'Argentina'
p7922
tp7923
a(S'nsubj'
p7924
S'underpin'
p7925
S'that'
p7926
tp7927
a(S'rcmod'
p7928
S'abuses'
p7929
S'underpin'
p7930
tp7931
a(S'amod'
p7932
S'warrant'
p7933
S'Garzons'
p7934
tp7935
a(S'nn'
p7936
S'warrant'
p7937
S'arrest'
p7938
tp7939
a(S'dobj'
p7940
S'underpin'
p7941
S'warrant'
p7942
tp7943
asg29
(lp7944
(g7832
S'ROOT-0'
p7945
S'plenary-3'
p7946
tp7947
a(g7836
S'courts-2'
p7948
S'The-1'
p7949
tp7950
a(g7840
S'plenary-3'
p7951
S'courts-2'
p7952
tp7953
a(g7844
S'expected-5'
p7954
S'is-4'
p7955
tp7956
a(g7848
S'plenary-3'
p7957
S'expected-5'
p7958
tp7959
a(g7852
S'meet-7'
p7960
S'to-6'
p7961
tp7962
a(g7856
S'expected-5'
p7963
S'meet-7'
p7964
tp7965
a(g7860
S'week-9'
p7966
S'next-8'
p7967
tp7968
a(g7864
S'meet-7'
p7969
S'week-9'
p7970
tp7971
a(g7868
S'decide-11'
p7972
S'to-10'
p7973
tp7974
a(g7872
S'meet-7'
p7975
S'decide-11'
p7976
tp7977
a(g7876
S'challenge-15'
p7978
S'an-13'
p7979
tp7980
a(g7880
S'challenge-15'
p7981
S'earlier-14'
p7982
tp7983
a(g7884
S'decide-11'
p7984
S'challenge-15'
p7985
tp7986
a(g7888
S'investigations-20'
p7987
S'the-17'
p7988
tp7989
a(g7892
S'investigations-20'
p7990
S'Spanish-18'
p7991
tp7992
a(g7896
S'investigations-20'
p7993
S'judicial-19'
p7994
tp7995
a(g7900
S'challenge-15'
p7996
S'investigations-20'
p7997
tp7998
a(g7904
S'abuses-24'
p7999
S'human-22'
p8000
tp8001
a(g7908
S'abuses-24'
p8002
S'rights-23'
p8003
tp8004
a(g7912
S'decide-11'
p8005
S'abuses-24'
p8006
tp8007
a(g7916
S'abuses-24'
p8008
S'Chile-26'
p8009
tp8010
a(g7920
S'Chile-26'
p8011
S'Argentina-28'
p8012
tp8013
a(g7924
S'underpin-30'
p8014
S'that-29'
p8015
tp8016
a(g7928
S'abuses-24'
p8017
S'underpin-30'
p8018
tp8019
a(g7932
S'warrant-33'
p8020
S'Garzons-31'
p8021
tp8022
a(g7936
S'warrant-33'
p8023
S'arrest-32'
p8024
tp8025
a(g7940
S'underpin-30'
p8026
S'warrant-33'
p8027
tp8028
asg43
(lp8029
(S'The'
p8030
(dp8031
S'NamedEntityTag'
p8032
g61
sS'CharacterOffsetEnd'
p8033
S'2327'
p8034
sS'Lemma'
p8035
S'the'
p8036
sS'PartOfSpeech'
p8037
S'DT'
p8038
sS'CharacterOffsetBegin'
p8039
S'2324'
p8040
stp8041
a(S'courts'
p8042
(dp8043
S'NamedEntityTag'
p8044
g61
sS'CharacterOffsetEnd'
p8045
S'2334'
p8046
sS'Lemma'
p8047
S'court'
p8048
sS'PartOfSpeech'
p8049
S'NNS'
p8050
sS'CharacterOffsetBegin'
p8051
S'2328'
p8052
stp8053
a(S'plenary'
p8054
(dp8055
S'NamedEntityTag'
p8056
g61
sS'CharacterOffsetEnd'
p8057
S'2342'
p8058
sS'Lemma'
p8059
S'plenary'
p8060
sS'PartOfSpeech'
p8061
S'VBP'
p8062
sS'CharacterOffsetBegin'
p8063
S'2335'
p8064
stp8065
a(S'is'
p8066
(dp8067
S'NamedEntityTag'
p8068
g61
sS'CharacterOffsetEnd'
p8069
S'2345'
p8070
sS'Lemma'
p8071
S'be'
p8072
sS'PartOfSpeech'
p8073
S'VBZ'
p8074
sS'CharacterOffsetBegin'
p8075
S'2343'
p8076
stp8077
a(S'expected'
p8078
(dp8079
S'NamedEntityTag'
p8080
g61
sS'CharacterOffsetEnd'
p8081
S'2354'
p8082
sS'Lemma'
p8083
S'expect'
p8084
sS'PartOfSpeech'
p8085
S'VBN'
p8086
sS'CharacterOffsetBegin'
p8087
S'2346'
p8088
stp8089
a(S'to'
p8090
(dp8091
S'NamedEntityTag'
p8092
g61
sS'CharacterOffsetEnd'
p8093
S'2357'
p8094
sS'Lemma'
p8095
S'to'
p8096
sS'PartOfSpeech'
p8097
S'TO'
p8098
sS'CharacterOffsetBegin'
p8099
S'2355'
p8100
stp8101
a(S'meet'
p8102
(dp8103
S'NamedEntityTag'
p8104
g61
sS'CharacterOffsetEnd'
p8105
S'2362'
p8106
sS'Lemma'
p8107
S'meet'
p8108
sS'PartOfSpeech'
p8109
S'VB'
p8110
sS'CharacterOffsetBegin'
p8111
S'2358'
p8112
stp8113
a(S'next'
p8114
(dp8115
S'NormalizedNamedEntityTag'
p8116
S'THIS'
p8117
sS'Timex'
p8118
S'<TIMEX3 alt_value="THIS P1W OFFSET P1W" anchorTimeID="t13" temporalFunction="true" tid="t12" type="DATE" valueFromFunction="tf2">next week</TIMEX3>'
p8119
sS'Lemma'
p8120
S'next'
p8121
sS'CharacterOffsetEnd'
p8122
S'2367'
p8123
sS'PartOfSpeech'
p8124
S'JJ'
p8125
sS'CharacterOffsetBegin'
p8126
S'2363'
p8127
sS'NamedEntityTag'
p8128
S'DATE'
p8129
stp8130
a(S'week'
p8131
(dp8132
S'NormalizedNamedEntityTag'
p8133
S'THIS'
p8134
sS'Timex'
p8135
S'<TIMEX3 alt_value="THIS P1W OFFSET P1W" anchorTimeID="t13" temporalFunction="true" tid="t12" type="DATE" valueFromFunction="tf2">next week</TIMEX3>'
p8136
sS'Lemma'
p8137
S'week'
p8138
sS'CharacterOffsetEnd'
p8139
S'2372'
p8140
sS'PartOfSpeech'
p8141
S'NN'
p8142
sS'CharacterOffsetBegin'
p8143
S'2368'
p8144
sS'NamedEntityTag'
p8145
S'DATE'
p8146
stp8147
a(S'to'
p8148
(dp8149
S'NamedEntityTag'
p8150
g61
sS'CharacterOffsetEnd'
p8151
S'2375'
p8152
sS'Lemma'
p8153
S'to'
p8154
sS'PartOfSpeech'
p8155
S'TO'
p8156
sS'CharacterOffsetBegin'
p8157
S'2373'
p8158
stp8159
a(S'decide'
p8160
(dp8161
S'NamedEntityTag'
p8162
g61
sS'CharacterOffsetEnd'
p8163
S'2382'
p8164
sS'Lemma'
p8165
S'decide'
p8166
sS'PartOfSpeech'
p8167
S'VB'
p8168
sS'CharacterOffsetBegin'
p8169
S'2376'
p8170
stp8171
a(S'on'
p8172
(dp8173
S'NamedEntityTag'
p8174
g61
sS'CharacterOffsetEnd'
p8175
S'2385'
p8176
sS'Lemma'
p8177
S'on'
p8178
sS'PartOfSpeech'
p8179
S'IN'
p8180
sS'CharacterOffsetBegin'
p8181
S'2383'
p8182
stp8183
a(S'an'
p8184
(dp8185
S'NamedEntityTag'
p8186
g61
sS'CharacterOffsetEnd'
p8187
S'2388'
p8188
sS'Lemma'
p8189
g1076
sS'PartOfSpeech'
p8190
S'DT'
p8191
sS'CharacterOffsetBegin'
p8192
S'2386'
p8193
stp8194
a(S'earlier'
p8195
(dp8196
S'NamedEntityTag'
p8197
g61
sS'CharacterOffsetEnd'
p8198
S'2396'
p8199
sS'Lemma'
p8200
S'earlier'
p8201
sS'PartOfSpeech'
p8202
S'JJR'
p8203
sS'CharacterOffsetBegin'
p8204
S'2389'
p8205
stp8206
a(S'challenge'
p8207
(dp8208
S'NamedEntityTag'
p8209
g61
sS'CharacterOffsetEnd'
p8210
S'2406'
p8211
sS'Lemma'
p8212
S'challenge'
p8213
sS'PartOfSpeech'
p8214
S'NN'
p8215
sS'CharacterOffsetBegin'
p8216
S'2397'
p8217
stp8218
a(S'of'
p8219
(dp8220
S'NamedEntityTag'
p8221
g61
sS'CharacterOffsetEnd'
p8222
S'2409'
p8223
sS'Lemma'
p8224
S'of'
p8225
sS'PartOfSpeech'
p8226
S'IN'
p8227
sS'CharacterOffsetBegin'
p8228
S'2407'
p8229
stp8230
a(S'the'
p8231
(dp8232
S'NamedEntityTag'
p8233
g61
sS'CharacterOffsetEnd'
p8234
S'2413'
p8235
sS'Lemma'
p8236
S'the'
p8237
sS'PartOfSpeech'
p8238
S'DT'
p8239
sS'CharacterOffsetBegin'
p8240
S'2410'
p8241
stp8242
a(S'Spanish'
p8243
(dp8244
S'NamedEntityTag'
p8245
S'MISC'
p8246
sS'CharacterOffsetEnd'
p8247
S'2421'
p8248
sS'Lemma'
p8249
S'spanish'
p8250
sS'PartOfSpeech'
p8251
S'JJ'
p8252
sS'CharacterOffsetBegin'
p8253
S'2414'
p8254
stp8255
a(S'judicial'
p8256
(dp8257
S'NamedEntityTag'
p8258
g61
sS'CharacterOffsetEnd'
p8259
S'2430'
p8260
sS'Lemma'
p8261
S'judicial'
p8262
sS'PartOfSpeech'
p8263
S'JJ'
p8264
sS'CharacterOffsetBegin'
p8265
S'2422'
p8266
stp8267
a(S'investigations'
p8268
(dp8269
S'NamedEntityTag'
p8270
g61
sS'CharacterOffsetEnd'
p8271
S'2445'
p8272
sS'Lemma'
p8273
S'investigation'
p8274
sS'PartOfSpeech'
p8275
S'NNS'
p8276
sS'CharacterOffsetBegin'
p8277
S'2431'
p8278
stp8279
a(S'into'
p8280
(dp8281
S'NamedEntityTag'
p8282
g61
sS'CharacterOffsetEnd'
p8283
S'2450'
p8284
sS'Lemma'
p8285
S'into'
p8286
sS'PartOfSpeech'
p8287
S'IN'
p8288
sS'CharacterOffsetBegin'
p8289
S'2446'
p8290
stp8291
a(S'human'
p8292
(dp8293
S'NamedEntityTag'
p8294
g61
sS'CharacterOffsetEnd'
p8295
S'2456'
p8296
sS'Lemma'
p8297
S'human'
p8298
sS'PartOfSpeech'
p8299
S'JJ'
p8300
sS'CharacterOffsetBegin'
p8301
S'2451'
p8302
stp8303
a(S'rights'
p8304
(dp8305
S'NamedEntityTag'
p8306
g61
sS'CharacterOffsetEnd'
p8307
S'2463'
p8308
sS'Lemma'
p8309
S'rights'
p8310
sS'PartOfSpeech'
p8311
S'NNS'
p8312
sS'CharacterOffsetBegin'
p8313
S'2457'
p8314
stp8315
a(S'abuses'
p8316
(dp8317
S'NamedEntityTag'
p8318
g61
sS'CharacterOffsetEnd'
p8319
S'2470'
p8320
sS'Lemma'
p8321
S'abuse'
p8322
sS'PartOfSpeech'
p8323
S'NNS'
p8324
sS'CharacterOffsetBegin'
p8325
S'2464'
p8326
stp8327
a(S'in'
p8328
(dp8329
S'NamedEntityTag'
p8330
g61
sS'CharacterOffsetEnd'
p8331
S'2473'
p8332
sS'Lemma'
p8333
S'in'
p8334
sS'PartOfSpeech'
p8335
S'IN'
p8336
sS'CharacterOffsetBegin'
p8337
S'2471'
p8338
stp8339
a(S'Chile'
p8340
(dp8341
S'NamedEntityTag'
p8342
S'LOCATION'
p8343
sS'CharacterOffsetEnd'
p8344
S'2479'
p8345
sS'Lemma'
p8346
S'Chile'
p8347
sS'PartOfSpeech'
p8348
S'NNP'
p8349
sS'CharacterOffsetBegin'
p8350
S'2474'
p8351
stp8352
a(S'and'
p8353
(dp8354
S'NamedEntityTag'
p8355
g61
sS'CharacterOffsetEnd'
p8356
S'2483'
p8357
sS'Lemma'
p8358
S'and'
p8359
sS'PartOfSpeech'
p8360
S'CC'
p8361
sS'CharacterOffsetBegin'
p8362
S'2480'
p8363
stp8364
a(S'Argentina'
p8365
(dp8366
S'NamedEntityTag'
p8367
S'LOCATION'
p8368
sS'CharacterOffsetEnd'
p8369
S'2493'
p8370
sS'Lemma'
p8371
S'Argentina'
p8372
sS'PartOfSpeech'
p8373
S'NNP'
p8374
sS'CharacterOffsetBegin'
p8375
S'2484'
p8376
stp8377
a(S'that'
p8378
(dp8379
S'NamedEntityTag'
p8380
g61
sS'CharacterOffsetEnd'
p8381
S'2498'
p8382
sS'Lemma'
p8383
S'that'
p8384
sS'PartOfSpeech'
p8385
S'WDT'
p8386
sS'CharacterOffsetBegin'
p8387
S'2494'
p8388
stp8389
a(S'underpin'
p8390
(dp8391
S'NamedEntityTag'
p8392
g61
sS'CharacterOffsetEnd'
p8393
S'2507'
p8394
sS'Lemma'
p8395
S'underpin'
p8396
sS'PartOfSpeech'
p8397
S'VBP'
p8398
sS'CharacterOffsetBegin'
p8399
S'2499'
p8400
stp8401
a(S'Garzons'
p8402
(dp8403
S'NamedEntityTag'
p8404
S'PERSON'
p8405
sS'CharacterOffsetEnd'
p8406
S'2515'
p8407
sS'Lemma'
p8408
S'garzons'
p8409
sS'PartOfSpeech'
p8410
S'JJ'
p8411
sS'CharacterOffsetBegin'
p8412
S'2508'
p8413
stp8414
a(S'arrest'
p8415
(dp8416
S'NamedEntityTag'
p8417
g61
sS'CharacterOffsetEnd'
p8418
S'2522'
p8419
sS'Lemma'
p8420
S'arrest'
p8421
sS'PartOfSpeech'
p8422
S'NN'
p8423
sS'CharacterOffsetBegin'
p8424
S'2516'
p8425
stp8426
a(S'warrant'
p8427
(dp8428
S'NamedEntityTag'
p8429
g61
sS'CharacterOffsetEnd'
p8430
S'2530'
p8431
sS'Lemma'
p8432
S'warrant'
p8433
sS'PartOfSpeech'
p8434
S'NN'
p8435
sS'CharacterOffsetBegin'
p8436
S'2523'
p8437
stp8438
a(g119
(dp8439
S'NamedEntityTag'
p8440
g61
sS'CharacterOffsetEnd'
p8441
S'2531'
p8442
sS'Lemma'
p8443
g119
sS'PartOfSpeech'
p8444
g119
sS'CharacterOffsetBegin'
p8445
S'2530'
p8446
stp8447
asa(dp8448
g7
S'(ROOT (S (NP (NP (DT A) (NN ruling)) (SBAR (IN that) (S (NP (DT the) (NNS investigations)) (VP (VBP are) (PP (IN outside) (NP (NP (DT the) (NN jurisdiction)) (PP (IN of) (NP (JJ Spanish) (NN law))))))))) (VP (MD would) (VP (VBD made) (S (NP (DT any) (NN extradition) (NN request)) (ADJP (JJ difficult))))) (. .)))'
p8449
sg9
S'A ruling that the investigations are outside the jurisdiction of Spanish law would made any extradition request difficult.'
p8450
sg11
(lp8451
(S'root'
p8452
S'ROOT'
p8453
S'made'
p8454
tp8455
a(S'det'
p8456
S'ruling'
p8457
g915
tp8458
a(S'nsubj'
p8459
S'made'
p8460
S'ruling'
p8461
tp8462
a(S'mark'
p8463
S'are'
p8464
S'that'
p8465
tp8466
a(S'det'
p8467
S'investigations'
p8468
S'the'
p8469
tp8470
a(S'nsubj'
p8471
S'are'
p8472
S'investigations'
p8473
tp8474
a(S'dep'
p8475
S'ruling'
p8476
S'are'
p8477
tp8478
a(S'det'
p8479
S'jurisdiction'
p8480
S'the'
p8481
tp8482
a(S'prep_outside'
p8483
S'are'
p8484
S'jurisdiction'
p8485
tp8486
a(S'amod'
p8487
S'law'
p8488
S'Spanish'
p8489
tp8490
a(S'prep_of'
p8491
S'jurisdiction'
p8492
S'law'
p8493
tp8494
a(S'aux'
p8495
S'made'
p8496
S'would'
p8497
tp8498
a(S'det'
p8499
S'request'
p8500
S'any'
p8501
tp8502
a(S'nn'
p8503
S'request'
p8504
S'extradition'
p8505
tp8506
a(S'nsubj'
p8507
S'difficult'
p8508
S'request'
p8509
tp8510
a(S'xcomp'
p8511
S'made'
p8512
S'difficult'
p8513
tp8514
asg29
(lp8515
(g8452
S'ROOT-0'
p8516
S'made-14'
p8517
tp8518
a(g8456
S'ruling-2'
p8519
S'A-1'
p8520
tp8521
a(g8459
S'made-14'
p8522
S'ruling-2'
p8523
tp8524
a(g8463
S'are-6'
p8525
S'that-3'
p8526
tp8527
a(g8467
S'investigations-5'
p8528
S'the-4'
p8529
tp8530
a(g8471
S'are-6'
p8531
S'investigations-5'
p8532
tp8533
a(g8475
S'ruling-2'
p8534
S'are-6'
p8535
tp8536
a(g8479
S'jurisdiction-9'
p8537
S'the-8'
p8538
tp8539
a(g8483
S'are-6'
p8540
S'jurisdiction-9'
p8541
tp8542
a(g8487
S'law-12'
p8543
S'Spanish-11'
p8544
tp8545
a(g8491
S'jurisdiction-9'
p8546
S'law-12'
p8547
tp8548
a(g8495
S'made-14'
p8549
S'would-13'
p8550
tp8551
a(g8499
S'request-17'
p8552
S'any-15'
p8553
tp8554
a(g8503
S'request-17'
p8555
S'extradition-16'
p8556
tp8557
a(g8507
S'difficult-18'
p8558
S'request-17'
p8559
tp8560
a(g8511
S'made-14'
p8561
S'difficult-18'
p8562
tp8563
asg43
(lp8564
(g915
(dp8565
S'NamedEntityTag'
p8566
g61
sS'CharacterOffsetEnd'
p8567
S'2533'
p8568
sS'Lemma'
p8569
g1076
sS'PartOfSpeech'
p8570
S'DT'
p8571
sS'CharacterOffsetBegin'
p8572
S'2532'
p8573
stp8574
a(S'ruling'
p8575
(dp8576
S'NamedEntityTag'
p8577
g61
sS'CharacterOffsetEnd'
p8578
S'2540'
p8579
sS'Lemma'
p8580
S'ruling'
p8581
sS'PartOfSpeech'
p8582
S'NN'
p8583
sS'CharacterOffsetBegin'
p8584
S'2534'
p8585
stp8586
a(S'that'
p8587
(dp8588
S'NamedEntityTag'
p8589
g61
sS'CharacterOffsetEnd'
p8590
S'2545'
p8591
sS'Lemma'
p8592
S'that'
p8593
sS'PartOfSpeech'
p8594
S'IN'
p8595
sS'CharacterOffsetBegin'
p8596
S'2541'
p8597
stp8598
a(S'the'
p8599
(dp8600
S'NamedEntityTag'
p8601
g61
sS'CharacterOffsetEnd'
p8602
S'2549'
p8603
sS'Lemma'
p8604
S'the'
p8605
sS'PartOfSpeech'
p8606
S'DT'
p8607
sS'CharacterOffsetBegin'
p8608
S'2546'
p8609
stp8610
a(S'investigations'
p8611
(dp8612
S'NamedEntityTag'
p8613
g61
sS'CharacterOffsetEnd'
p8614
S'2564'
p8615
sS'Lemma'
p8616
S'investigation'
p8617
sS'PartOfSpeech'
p8618
S'NNS'
p8619
sS'CharacterOffsetBegin'
p8620
S'2550'
p8621
stp8622
a(S'are'
p8623
(dp8624
S'NamedEntityTag'
p8625
g61
sS'CharacterOffsetEnd'
p8626
S'2568'
p8627
sS'Lemma'
p8628
S'be'
p8629
sS'PartOfSpeech'
p8630
S'VBP'
p8631
sS'CharacterOffsetBegin'
p8632
S'2565'
p8633
stp8634
a(S'outside'
p8635
(dp8636
S'NamedEntityTag'
p8637
g61
sS'CharacterOffsetEnd'
p8638
S'2576'
p8639
sS'Lemma'
p8640
S'outside'
p8641
sS'PartOfSpeech'
p8642
S'IN'
p8643
sS'CharacterOffsetBegin'
p8644
S'2569'
p8645
stp8646
a(S'the'
p8647
(dp8648
S'NamedEntityTag'
p8649
g61
sS'CharacterOffsetEnd'
p8650
S'2580'
p8651
sS'Lemma'
p8652
S'the'
p8653
sS'PartOfSpeech'
p8654
S'DT'
p8655
sS'CharacterOffsetBegin'
p8656
S'2577'
p8657
stp8658
a(S'jurisdiction'
p8659
(dp8660
S'NamedEntityTag'
p8661
g61
sS'CharacterOffsetEnd'
p8662
S'2593'
p8663
sS'Lemma'
p8664
S'jurisdiction'
p8665
sS'PartOfSpeech'
p8666
S'NN'
p8667
sS'CharacterOffsetBegin'
p8668
S'2581'
p8669
stp8670
a(S'of'
p8671
(dp8672
S'NamedEntityTag'
p8673
g61
sS'CharacterOffsetEnd'
p8674
S'2596'
p8675
sS'Lemma'
p8676
S'of'
p8677
sS'PartOfSpeech'
p8678
S'IN'
p8679
sS'CharacterOffsetBegin'
p8680
S'2594'
p8681
stp8682
a(S'Spanish'
p8683
(dp8684
S'NamedEntityTag'
p8685
S'LOCATION'
p8686
sS'CharacterOffsetEnd'
p8687
S'2604'
p8688
sS'Lemma'
p8689
S'spanish'
p8690
sS'PartOfSpeech'
p8691
S'JJ'
p8692
sS'CharacterOffsetBegin'
p8693
S'2597'
p8694
stp8695
a(S'law'
p8696
(dp8697
S'NamedEntityTag'
p8698
g61
sS'CharacterOffsetEnd'
p8699
S'2608'
p8700
sS'Lemma'
p8701
S'law'
p8702
sS'PartOfSpeech'
p8703
S'NN'
p8704
sS'CharacterOffsetBegin'
p8705
S'2605'
p8706
stp8707
a(S'would'
p8708
(dp8709
S'NamedEntityTag'
p8710
g61
sS'CharacterOffsetEnd'
p8711
S'2614'
p8712
sS'Lemma'
p8713
S'would'
p8714
sS'PartOfSpeech'
p8715
S'MD'
p8716
sS'CharacterOffsetBegin'
p8717
S'2609'
p8718
stp8719
a(S'made'
p8720
(dp8721
S'NamedEntityTag'
p8722
g61
sS'CharacterOffsetEnd'
p8723
S'2619'
p8724
sS'Lemma'
p8725
S'make'
p8726
sS'PartOfSpeech'
p8727
S'VBD'
p8728
sS'CharacterOffsetBegin'
p8729
S'2615'
p8730
stp8731
a(S'any'
p8732
(dp8733
S'NamedEntityTag'
p8734
g61
sS'CharacterOffsetEnd'
p8735
S'2623'
p8736
sS'Lemma'
p8737
S'any'
p8738
sS'PartOfSpeech'
p8739
S'DT'
p8740
sS'CharacterOffsetBegin'
p8741
S'2620'
p8742
stp8743
a(S'extradition'
p8744
(dp8745
S'NamedEntityTag'
p8746
g61
sS'CharacterOffsetEnd'
p8747
S'2635'
p8748
sS'Lemma'
p8749
S'extradition'
p8750
sS'PartOfSpeech'
p8751
S'NN'
p8752
sS'CharacterOffsetBegin'
p8753
S'2624'
p8754
stp8755
a(S'request'
p8756
(dp8757
S'NamedEntityTag'
p8758
g61
sS'CharacterOffsetEnd'
p8759
S'2643'
p8760
sS'Lemma'
p8761
S'request'
p8762
sS'PartOfSpeech'
p8763
S'NN'
p8764
sS'CharacterOffsetBegin'
p8765
S'2636'
p8766
stp8767
a(S'difficult'
p8768
(dp8769
S'NamedEntityTag'
p8770
g61
sS'CharacterOffsetEnd'
p8771
S'2653'
p8772
sS'Lemma'
p8773
S'difficult'
p8774
sS'PartOfSpeech'
p8775
S'JJ'
p8776
sS'CharacterOffsetBegin'
p8777
S'2644'
p8778
stp8779
a(g119
(dp8780
S'NamedEntityTag'
p8781
g61
sS'CharacterOffsetEnd'
p8782
S'2654'
p8783
sS'Lemma'
p8784
g119
sS'PartOfSpeech'
p8785
g119
sS'CharacterOffsetBegin'
p8786
S'2653'
p8787
stp8788
asa(dp8789
g7
S'(ROOT (S (NP (DT The) (NN decision)) (VP (VBZ is) (ADJP (JJ likely) (S (VP (TO to) (VP (VB hang) (PP (IN on) (SBAR (WHADVP (WRB how)) (S (NP (NN genocide) (CC and) (NN terrorism)) (VP (VBP are) (VP (VBN interpreted)))))))))) (, ,) (SBAR (IN as) (S (NP (DT these) (NNS crimes)) (VP (VBP are) (ADVP (RB specifically)) (VP (VBN mentioned) (PP (IN in) (NP (DT the) (JJ Spanish) (JJ legal) (NN code)))))))) (. .)))'
p8790
sg9
S'The decision is likely to hang on how genocide and terrorism are interpreted, as these crimes are specifically mentioned in the Spanish legal code.'
p8791
sg11
(lp8792
(S'root'
p8793
S'ROOT'
p8794
S'likely'
p8795
tp8796
a(S'det'
p8797
S'decision'
p8798
S'The'
p8799
tp8800
a(S'nsubj'
p8801
S'likely'
p8802
S'decision'
p8803
tp8804
a(S'cop'
p8805
S'likely'
p8806
S'is'
p8807
tp8808
a(S'aux'
p8809
S'hang'
p8810
S'to'
p8811
tp8812
a(S'xcomp'
p8813
S'likely'
p8814
S'hang'
p8815
tp8816
a(S'advmod'
p8817
S'interpreted'
p8818
S'how'
p8819
tp8820
a(S'nsubjpass'
p8821
S'interpreted'
p8822
S'genocide'
p8823
tp8824
a(S'conj_and'
p8825
S'genocide'
p8826
S'terrorism'
p8827
tp8828
a(S'auxpass'
p8829
S'interpreted'
p8830
S'are'
p8831
tp8832
a(S'prepc_on'
p8833
S'hang'
p8834
S'interpreted'
p8835
tp8836
a(S'mark'
p8837
S'mentioned'
p8838
S'as'
p8839
tp8840
a(S'det'
p8841
S'crimes'
p8842
S'these'
p8843
tp8844
a(S'nsubjpass'
p8845
S'mentioned'
p8846
S'crimes'
p8847
tp8848
a(S'auxpass'
p8849
S'mentioned'
p8850
S'are'
p8851
tp8852
a(S'advmod'
p8853
S'mentioned'
p8854
S'specifically'
p8855
tp8856
a(S'advcl'
p8857
S'likely'
p8858
S'mentioned'
p8859
tp8860
a(S'det'
p8861
S'code'
p8862
S'the'
p8863
tp8864
a(S'amod'
p8865
S'code'
p8866
S'Spanish'
p8867
tp8868
a(S'amod'
p8869
S'code'
p8870
S'legal'
p8871
tp8872
a(S'prep_in'
p8873
S'mentioned'
p8874
S'code'
p8875
tp8876
asg29
(lp8877
(g8793
S'ROOT-0'
p8878
S'likely-4'
p8879
tp8880
a(g8797
S'decision-2'
p8881
S'The-1'
p8882
tp8883
a(g8801
S'likely-4'
p8884
S'decision-2'
p8885
tp8886
a(g8805
S'likely-4'
p8887
S'is-3'
p8888
tp8889
a(g8809
S'hang-6'
p8890
S'to-5'
p8891
tp8892
a(g8813
S'likely-4'
p8893
S'hang-6'
p8894
tp8895
a(g8817
S'interpreted-13'
p8896
S'how-8'
p8897
tp8898
a(g8821
S'interpreted-13'
p8899
S'genocide-9'
p8900
tp8901
a(g8825
S'genocide-9'
p8902
S'terrorism-11'
p8903
tp8904
a(g8829
S'interpreted-13'
p8905
S'are-12'
p8906
tp8907
a(g8833
S'hang-6'
p8908
S'interpreted-13'
p8909
tp8910
a(g8837
S'mentioned-20'
p8911
S'as-15'
p8912
tp8913
a(g8841
S'crimes-17'
p8914
S'these-16'
p8915
tp8916
a(g8845
S'mentioned-20'
p8917
S'crimes-17'
p8918
tp8919
a(g8849
S'mentioned-20'
p8920
S'are-18'
p8921
tp8922
a(g8853
S'mentioned-20'
p8923
S'specifically-19'
p8924
tp8925
a(g8857
S'likely-4'
p8926
S'mentioned-20'
p8927
tp8928
a(g8861
S'code-25'
p8929
S'the-22'
p8930
tp8931
a(g8865
S'code-25'
p8932
S'Spanish-23'
p8933
tp8934
a(g8869
S'code-25'
p8935
S'legal-24'
p8936
tp8937
a(g8873
S'mentioned-20'
p8938
S'code-25'
p8939
tp8940
asg43
(lp8941
(S'The'
p8942
(dp8943
S'NamedEntityTag'
p8944
g61
sS'CharacterOffsetEnd'
p8945
S'2658'
p8946
sS'Lemma'
p8947
S'the'
p8948
sS'PartOfSpeech'
p8949
S'DT'
p8950
sS'CharacterOffsetBegin'
p8951
S'2655'
p8952
stp8953
a(S'decision'
p8954
(dp8955
S'NamedEntityTag'
p8956
g61
sS'CharacterOffsetEnd'
p8957
S'2667'
p8958
sS'Lemma'
p8959
S'decision'
p8960
sS'PartOfSpeech'
p8961
S'NN'
p8962
sS'CharacterOffsetBegin'
p8963
S'2659'
p8964
stp8965
a(S'is'
p8966
(dp8967
S'NamedEntityTag'
p8968
g61
sS'CharacterOffsetEnd'
p8969
S'2670'
p8970
sS'Lemma'
p8971
S'be'
p8972
sS'PartOfSpeech'
p8973
S'VBZ'
p8974
sS'CharacterOffsetBegin'
p8975
S'2668'
p8976
stp8977
a(S'likely'
p8978
(dp8979
S'NamedEntityTag'
p8980
g61
sS'CharacterOffsetEnd'
p8981
S'2677'
p8982
sS'Lemma'
p8983
S'likely'
p8984
sS'PartOfSpeech'
p8985
S'JJ'
p8986
sS'CharacterOffsetBegin'
p8987
S'2671'
p8988
stp8989
a(S'to'
p8990
(dp8991
S'NamedEntityTag'
p8992
g61
sS'CharacterOffsetEnd'
p8993
S'2680'
p8994
sS'Lemma'
p8995
S'to'
p8996
sS'PartOfSpeech'
p8997
S'TO'
p8998
sS'CharacterOffsetBegin'
p8999
S'2678'
p9000
stp9001
a(S'hang'
p9002
(dp9003
S'NamedEntityTag'
p9004
g61
sS'CharacterOffsetEnd'
p9005
S'2685'
p9006
sS'Lemma'
p9007
S'hang'
p9008
sS'PartOfSpeech'
p9009
S'VB'
p9010
sS'CharacterOffsetBegin'
p9011
S'2681'
p9012
stp9013
a(S'on'
p9014
(dp9015
S'NamedEntityTag'
p9016
g61
sS'CharacterOffsetEnd'
p9017
S'2688'
p9018
sS'Lemma'
p9019
S'on'
p9020
sS'PartOfSpeech'
p9021
S'IN'
p9022
sS'CharacterOffsetBegin'
p9023
S'2686'
p9024
stp9025
a(S'how'
p9026
(dp9027
S'NamedEntityTag'
p9028
g61
sS'CharacterOffsetEnd'
p9029
S'2692'
p9030
sS'Lemma'
p9031
S'how'
p9032
sS'PartOfSpeech'
p9033
S'WRB'
p9034
sS'CharacterOffsetBegin'
p9035
S'2689'
p9036
stp9037
a(S'genocide'
p9038
(dp9039
S'NamedEntityTag'
p9040
g61
sS'CharacterOffsetEnd'
p9041
S'2701'
p9042
sS'Lemma'
p9043
S'genocide'
p9044
sS'PartOfSpeech'
p9045
S'NN'
p9046
sS'CharacterOffsetBegin'
p9047
S'2693'
p9048
stp9049
a(S'and'
p9050
(dp9051
S'NamedEntityTag'
p9052
g61
sS'CharacterOffsetEnd'
p9053
S'2705'
p9054
sS'Lemma'
p9055
S'and'
p9056
sS'PartOfSpeech'
p9057
S'CC'
p9058
sS'CharacterOffsetBegin'
p9059
S'2702'
p9060
stp9061
a(S'terrorism'
p9062
(dp9063
S'NamedEntityTag'
p9064
g61
sS'CharacterOffsetEnd'
p9065
S'2715'
p9066
sS'Lemma'
p9067
S'terrorism'
p9068
sS'PartOfSpeech'
p9069
S'NN'
p9070
sS'CharacterOffsetBegin'
p9071
S'2706'
p9072
stp9073
a(S'are'
p9074
(dp9075
S'NamedEntityTag'
p9076
g61
sS'CharacterOffsetEnd'
p9077
S'2719'
p9078
sS'Lemma'
p9079
S'be'
p9080
sS'PartOfSpeech'
p9081
S'VBP'
p9082
sS'CharacterOffsetBegin'
p9083
S'2716'
p9084
stp9085
a(S'interpreted'
p9086
(dp9087
S'NamedEntityTag'
p9088
g61
sS'CharacterOffsetEnd'
p9089
S'2731'
p9090
sS'Lemma'
p9091
S'interpret'
p9092
sS'PartOfSpeech'
p9093
S'VBN'
p9094
sS'CharacterOffsetBegin'
p9095
S'2720'
p9096
stp9097
a(g1290
(dp9098
S'NamedEntityTag'
p9099
g61
sS'CharacterOffsetEnd'
p9100
S'2732'
p9101
sS'Lemma'
p9102
g1290
sS'PartOfSpeech'
p9103
g1290
sS'CharacterOffsetBegin'
p9104
S'2731'
p9105
stp9106
a(S'as'
p9107
(dp9108
S'NamedEntityTag'
p9109
g61
sS'CharacterOffsetEnd'
p9110
S'2735'
p9111
sS'Lemma'
p9112
S'as'
p9113
sS'PartOfSpeech'
p9114
S'IN'
p9115
sS'CharacterOffsetBegin'
p9116
S'2733'
p9117
stp9118
a(S'these'
p9119
(dp9120
S'NamedEntityTag'
p9121
g61
sS'CharacterOffsetEnd'
p9122
S'2741'
p9123
sS'Lemma'
p9124
S'these'
p9125
sS'PartOfSpeech'
p9126
S'DT'
p9127
sS'CharacterOffsetBegin'
p9128
S'2736'
p9129
stp9130
a(S'crimes'
p9131
(dp9132
S'NamedEntityTag'
p9133
g61
sS'CharacterOffsetEnd'
p9134
S'2748'
p9135
sS'Lemma'
p9136
S'crime'
p9137
sS'PartOfSpeech'
p9138
S'NNS'
p9139
sS'CharacterOffsetBegin'
p9140
S'2742'
p9141
stp9142
a(S'are'
p9143
(dp9144
S'NamedEntityTag'
p9145
g61
sS'CharacterOffsetEnd'
p9146
S'2752'
p9147
sS'Lemma'
p9148
S'be'
p9149
sS'PartOfSpeech'
p9150
S'VBP'
p9151
sS'CharacterOffsetBegin'
p9152
S'2749'
p9153
stp9154
a(S'specifically'
p9155
(dp9156
S'NamedEntityTag'
p9157
g61
sS'CharacterOffsetEnd'
p9158
S'2765'
p9159
sS'Lemma'
p9160
S'specifically'
p9161
sS'PartOfSpeech'
p9162
S'RB'
p9163
sS'CharacterOffsetBegin'
p9164
S'2753'
p9165
stp9166
a(S'mentioned'
p9167
(dp9168
S'NamedEntityTag'
p9169
g61
sS'CharacterOffsetEnd'
p9170
S'2775'
p9171
sS'Lemma'
p9172
S'mention'
p9173
sS'PartOfSpeech'
p9174
S'VBN'
p9175
sS'CharacterOffsetBegin'
p9176
S'2766'
p9177
stp9178
a(S'in'
p9179
(dp9180
S'NamedEntityTag'
p9181
g61
sS'CharacterOffsetEnd'
p9182
S'2778'
p9183
sS'Lemma'
p9184
S'in'
p9185
sS'PartOfSpeech'
p9186
S'IN'
p9187
sS'CharacterOffsetBegin'
p9188
S'2776'
p9189
stp9190
a(S'the'
p9191
(dp9192
S'NamedEntityTag'
p9193
g61
sS'CharacterOffsetEnd'
p9194
S'2782'
p9195
sS'Lemma'
p9196
S'the'
p9197
sS'PartOfSpeech'
p9198
S'DT'
p9199
sS'CharacterOffsetBegin'
p9200
S'2779'
p9201
stp9202
a(S'Spanish'
p9203
(dp9204
S'NamedEntityTag'
p9205
S'MISC'
p9206
sS'CharacterOffsetEnd'
p9207
S'2790'
p9208
sS'Lemma'
p9209
S'spanish'
p9210
sS'PartOfSpeech'
p9211
S'JJ'
p9212
sS'CharacterOffsetBegin'
p9213
S'2783'
p9214
stp9215
a(S'legal'
p9216
(dp9217
S'NamedEntityTag'
p9218
g61
sS'CharacterOffsetEnd'
p9219
S'2796'
p9220
sS'Lemma'
p9221
S'legal'
p9222
sS'PartOfSpeech'
p9223
S'JJ'
p9224
sS'CharacterOffsetBegin'
p9225
S'2791'
p9226
stp9227
a(S'code'
p9228
(dp9229
S'NamedEntityTag'
p9230
g61
sS'CharacterOffsetEnd'
p9231
S'2801'
p9232
sS'Lemma'
p9233
S'code'
p9234
sS'PartOfSpeech'
p9235
S'NN'
p9236
sS'CharacterOffsetBegin'
p9237
S'2797'
p9238
stp9239
a(g119
(dp9240
S'NamedEntityTag'
p9241
g61
sS'CharacterOffsetEnd'
p9242
S'2802'
p9243
sS'Lemma'
p9244
g119
sS'PartOfSpeech'
p9245
g119
sS'CharacterOffsetBegin'
p9246
S'2801'
p9247
stp9248
asass.