(dp0
S'models'
p1
(lp2
(dp3
S'sentences'
p4
(lp5
(dp6
S'parsetree'
p7
S"(ROOT (S (NP (NNP Malaysia) (NNS grills)) (VP (ADVP (NP (NP (NNP Filipino)) (PP (IN on) (NP (NP (PRP$ his) (NN nation) (POS 's)) (NN support)))) (IN for)) (VBN arrested) (NP (JJ Malaysian)))))"
p8
sS'text'
p9
S"Malaysia grills Filipino on his nation's support for arrested Malaysian"
p10
sS'dependencies'
p11
(lp12
(S'root'
p13
S'ROOT'
p14
S'arrested'
p15
tp16
a(S'nn'
p17
S'grills'
p18
S'Malaysia'
p19
tp20
a(S'nsubj'
p21
S'arrested'
p22
S'grills'
p23
tp24
a(S'npadvmod'
p25
S'for'
p26
S'Filipino'
p27
tp28
a(S'poss'
p29
S'nation'
p30
S'his'
p31
tp32
a(S'poss'
p33
S'support'
p34
S'nation'
p35
tp36
a(S'prep_on'
p37
S'Filipino'
p38
S'support'
p39
tp40
a(S'advmod'
p41
S'arrested'
p42
S'for'
p43
tp44
a(S'dobj'
p45
S'arrested'
p46
S'Malaysian'
p47
tp48
asS'indexeddependencies'
p49
(lp50
(g13
S'ROOT-0'
p51
S'arrested-10'
p52
tp53
a(g17
S'grills-2'
p54
S'Malaysia-1'
p55
tp56
a(g21
S'arrested-10'
p57
S'grills-2'
p58
tp59
a(g25
S'for-9'
p60
S'Filipino-3'
p61
tp62
a(g29
S'nation-6'
p63
S'his-5'
p64
tp65
a(g33
S'support-8'
p66
S'nation-6'
p67
tp68
a(g37
S'Filipino-3'
p69
S'support-8'
p70
tp71
a(g41
S'arrested-10'
p72
S'for-9'
p73
tp74
a(g45
S'arrested-10'
p75
S'Malaysian-11'
p76
tp77
asS'words'
p78
(lp79
(S'Malaysia'
p80
(dp81
S'NamedEntityTag'
p82
S'LOCATION'
p83
sS'CharacterOffsetEnd'
p84
S'9'
p85
sS'Lemma'
p86
S'Malaysia'
p87
sS'PartOfSpeech'
p88
S'NNP'
p89
sS'CharacterOffsetBegin'
p90
S'1'
p91
stp92
a(S'grills'
p93
(dp94
S'NamedEntityTag'
p95
S'O'
p96
sS'CharacterOffsetEnd'
p97
S'16'
p98
sS'Lemma'
p99
S'grill'
p100
sS'PartOfSpeech'
p101
S'NNS'
p102
sS'CharacterOffsetBegin'
p103
S'10'
p104
stp105
a(S'Filipino'
p106
(dp107
S'NamedEntityTag'
p108
g96
sS'CharacterOffsetEnd'
p109
S'25'
p110
sS'Lemma'
p111
S'Filipino'
p112
sS'PartOfSpeech'
p113
S'NNP'
p114
sS'CharacterOffsetBegin'
p115
S'17'
p116
stp117
a(S'on'
p118
(dp119
S'NamedEntityTag'
p120
g96
sS'CharacterOffsetEnd'
p121
S'28'
p122
sS'Lemma'
p123
S'on'
p124
sS'PartOfSpeech'
p125
S'IN'
p126
sS'CharacterOffsetBegin'
p127
S'26'
p128
stp129
a(S'his'
p130
(dp131
S'NamedEntityTag'
p132
g96
sS'CharacterOffsetEnd'
p133
S'32'
p134
sS'Lemma'
p135
S'he'
p136
sS'PartOfSpeech'
p137
S'PRP$'
p138
sS'CharacterOffsetBegin'
p139
S'29'
p140
stp141
a(S'nation'
p142
(dp143
S'NamedEntityTag'
p144
g96
sS'CharacterOffsetEnd'
p145
S'39'
p146
sS'Lemma'
p147
S'nation'
p148
sS'PartOfSpeech'
p149
S'NN'
p150
sS'CharacterOffsetBegin'
p151
S'33'
p152
stp153
a(S"'s"
p154
(dp155
S'NamedEntityTag'
p156
g96
sS'CharacterOffsetEnd'
p157
S'41'
p158
sS'Lemma'
p159
S"'s"
p160
sS'PartOfSpeech'
p161
S'POS'
p162
sS'CharacterOffsetBegin'
p163
S'39'
p164
stp165
a(S'support'
p166
(dp167
S'NamedEntityTag'
p168
g96
sS'CharacterOffsetEnd'
p169
S'49'
p170
sS'Lemma'
p171
S'support'
p172
sS'PartOfSpeech'
p173
S'NN'
p174
sS'CharacterOffsetBegin'
p175
S'42'
p176
stp177
a(S'for'
p178
(dp179
S'NamedEntityTag'
p180
g96
sS'CharacterOffsetEnd'
p181
S'53'
p182
sS'Lemma'
p183
S'for'
p184
sS'PartOfSpeech'
p185
S'IN'
p186
sS'CharacterOffsetBegin'
p187
S'50'
p188
stp189
a(S'arrested'
p190
(dp191
S'NamedEntityTag'
p192
g96
sS'CharacterOffsetEnd'
p193
S'62'
p194
sS'Lemma'
p195
S'arrest'
p196
sS'PartOfSpeech'
p197
S'VBN'
p198
sS'CharacterOffsetBegin'
p199
S'54'
p200
stp201
a(S'Malaysian'
p202
(dp203
S'NamedEntityTag'
p204
S'LOCATION'
p205
sS'CharacterOffsetEnd'
p206
S'72'
p207
sS'Lemma'
p208
S'malaysian'
p209
sS'PartOfSpeech'
p210
S'JJ'
p211
sS'CharacterOffsetBegin'
p212
S'63'
p213
stp214
asasa(dp215
g4
(lp216
(dp217
g7
S"(ROOT (S (NP (JJ Philippine) (NN ambassador)) (VP (VBD summoned) (S (VP (TO to) (VP (VB explain) (NP (NP (NP (NN president) (POS 's)) (NN support)) (PP (IN of) (NP (NNP Anwar)))))))) (. .)))"
p218
sg9
S"Philippine ambassador summoned to explain president's support of Anwar."
p219
sg11
(lp220
(S'root'
p221
S'ROOT'
p222
S'summoned'
p223
tp224
a(S'amod'
p225
S'ambassador'
p226
S'Philippine'
p227
tp228
a(S'nsubj'
p229
S'summoned'
p230
S'ambassador'
p231
tp232
a(S'aux'
p233
S'explain'
p234
S'to'
p235
tp236
a(S'xcomp'
p237
S'summoned'
p238
S'explain'
p239
tp240
a(S'poss'
p241
S'support'
p242
S'president'
p243
tp244
a(S'dobj'
p245
S'explain'
p246
S'support'
p247
tp248
a(S'prep_of'
p249
S'support'
p250
S'Anwar'
p251
tp252
asg49
(lp253
(g221
S'ROOT-0'
p254
S'summoned-3'
p255
tp256
a(g225
S'ambassador-2'
p257
S'Philippine-1'
p258
tp259
a(g229
S'summoned-3'
p260
S'ambassador-2'
p261
tp262
a(g233
S'explain-5'
p263
S'to-4'
p264
tp265
a(g237
S'summoned-3'
p266
S'explain-5'
p267
tp268
a(g241
S'support-8'
p269
S'president-6'
p270
tp271
a(g245
S'explain-5'
p272
S'support-8'
p273
tp274
a(g249
S'support-8'
p275
S'Anwar-10'
p276
tp277
asg78
(lp278
(S'Philippine'
p279
(dp280
S'NamedEntityTag'
p281
S'LOCATION'
p282
sS'CharacterOffsetEnd'
p283
S'11'
p284
sS'Lemma'
p285
S'philippine'
p286
sS'PartOfSpeech'
p287
S'JJ'
p288
sS'CharacterOffsetBegin'
p289
g91
stp290
a(S'ambassador'
p291
(dp292
S'NamedEntityTag'
p293
g96
sS'CharacterOffsetEnd'
p294
S'22'
p295
sS'Lemma'
p296
S'ambassador'
p297
sS'PartOfSpeech'
p298
S'NN'
p299
sS'CharacterOffsetBegin'
p300
S'12'
p301
stp302
a(S'summoned'
p303
(dp304
S'NamedEntityTag'
p305
g96
sS'CharacterOffsetEnd'
p306
S'31'
p307
sS'Lemma'
p308
S'summon'
p309
sS'PartOfSpeech'
p310
S'VBD'
p311
sS'CharacterOffsetBegin'
p312
S'23'
p313
stp314
a(S'to'
p315
(dp316
S'NamedEntityTag'
p317
g96
sS'CharacterOffsetEnd'
p318
S'34'
p319
sS'Lemma'
p320
S'to'
p321
sS'PartOfSpeech'
p322
S'TO'
p323
sS'CharacterOffsetBegin'
p324
S'32'
p325
stp326
a(S'explain'
p327
(dp328
S'NamedEntityTag'
p329
g96
sS'CharacterOffsetEnd'
p330
S'42'
p331
sS'Lemma'
p332
S'explain'
p333
sS'PartOfSpeech'
p334
S'VB'
p335
sS'CharacterOffsetBegin'
p336
S'35'
p337
stp338
a(S'president'
p339
(dp340
S'NamedEntityTag'
p341
g96
sS'CharacterOffsetEnd'
p342
S'52'
p343
sS'Lemma'
p344
S'president'
p345
sS'PartOfSpeech'
p346
S'NN'
p347
sS'CharacterOffsetBegin'
p348
S'43'
p349
stp350
a(S"'s"
p351
(dp352
S'NamedEntityTag'
p353
g96
sS'CharacterOffsetEnd'
p354
S'54'
p355
sS'Lemma'
p356
S"'s"
p357
sS'PartOfSpeech'
p358
S'POS'
p359
sS'CharacterOffsetBegin'
p360
S'52'
p361
stp362
a(S'support'
p363
(dp364
S'NamedEntityTag'
p365
g96
sS'CharacterOffsetEnd'
p366
S'62'
p367
sS'Lemma'
p368
S'support'
p369
sS'PartOfSpeech'
p370
S'NN'
p371
sS'CharacterOffsetBegin'
p372
S'55'
p373
stp374
a(S'of'
p375
(dp376
S'NamedEntityTag'
p377
g96
sS'CharacterOffsetEnd'
p378
S'65'
p379
sS'Lemma'
p380
S'of'
p381
sS'PartOfSpeech'
p382
S'IN'
p383
sS'CharacterOffsetBegin'
p384
S'63'
p385
stp386
a(S'Anwar'
p387
(dp388
S'NamedEntityTag'
p389
S'PERSON'
p390
sS'CharacterOffsetEnd'
p391
S'71'
p392
sS'Lemma'
p393
S'Anwar'
p394
sS'PartOfSpeech'
p395
S'NNP'
p396
sS'CharacterOffsetBegin'
p397
S'66'
p398
stp399
a(S'.'
p400
(dp401
S'NamedEntityTag'
p402
g96
sS'CharacterOffsetEnd'
p403
S'72'
p404
sS'Lemma'
p405
g400
sS'PartOfSpeech'
p406
g400
sS'CharacterOffsetBegin'
p407
S'71'
p408
stp409
asasa(dp410
g4
(lp411
(dp412
g7
S'(ROOT (FRAG (NP (JJ Philippine) (NN support)) (PP (IN for) (NP (NP (VBN arrested) (JJ Malaysian) (NN deputy) (NN PM)) (, ,) (NP (NP (NN concern)) (PP (IN for) (NP (NNP Malaysia))))))))'
p413
sg9
S'Philippine support for arrested Malaysian deputy PM, concern for Malaysia'
p414
sg11
(lp415
(S'root'
p416
S'ROOT'
p417
S'support'
p418
tp419
a(S'amod'
p420
S'support'
p421
S'Philippine'
p422
tp423
a(S'amod'
p424
S'PM'
p425
S'arrested'
p426
tp427
a(S'amod'
p428
S'PM'
p429
S'Malaysian'
p430
tp431
a(S'nn'
p432
S'PM'
p433
S'deputy'
p434
tp435
a(S'prep_for'
p436
S'support'
p437
S'PM'
p438
tp439
a(S'appos'
p440
S'PM'
p441
S'concern'
p442
tp443
a(S'prep_for'
p444
S'concern'
p445
S'Malaysia'
p446
tp447
asg49
(lp448
(g416
S'ROOT-0'
p449
S'support-2'
p450
tp451
a(g420
S'support-2'
p452
S'Philippine-1'
p453
tp454
a(g424
S'PM-7'
p455
S'arrested-4'
p456
tp457
a(g428
S'PM-7'
p458
S'Malaysian-5'
p459
tp460
a(g432
S'PM-7'
p461
S'deputy-6'
p462
tp463
a(g436
S'support-2'
p464
S'PM-7'
p465
tp466
a(g440
S'PM-7'
p467
S'concern-9'
p468
tp469
a(g444
S'concern-9'
p470
S'Malaysia-11'
p471
tp472
asg78
(lp473
(S'Philippine'
p474
(dp475
S'NamedEntityTag'
p476
S'MISC'
p477
sS'CharacterOffsetEnd'
p478
S'11'
p479
sS'Lemma'
p480
S'philippine'
p481
sS'PartOfSpeech'
p482
S'JJ'
p483
sS'CharacterOffsetBegin'
p484
g91
stp485
a(S'support'
p486
(dp487
S'NamedEntityTag'
p488
g96
sS'CharacterOffsetEnd'
p489
S'19'
p490
sS'Lemma'
p491
S'support'
p492
sS'PartOfSpeech'
p493
S'NN'
p494
sS'CharacterOffsetBegin'
p495
S'12'
p496
stp497
a(S'for'
p498
(dp499
S'NamedEntityTag'
p500
g96
sS'CharacterOffsetEnd'
p501
S'23'
p502
sS'Lemma'
p503
S'for'
p504
sS'PartOfSpeech'
p505
S'IN'
p506
sS'CharacterOffsetBegin'
p507
S'20'
p508
stp509
a(S'arrested'
p510
(dp511
S'NamedEntityTag'
p512
g96
sS'CharacterOffsetEnd'
p513
S'32'
p514
sS'Lemma'
p515
S'arrest'
p516
sS'PartOfSpeech'
p517
S'VBN'
p518
sS'CharacterOffsetBegin'
p519
S'24'
p520
stp521
a(S'Malaysian'
p522
(dp523
S'NamedEntityTag'
p524
S'MISC'
p525
sS'CharacterOffsetEnd'
p526
S'42'
p527
sS'Lemma'
p528
S'malaysian'
p529
sS'PartOfSpeech'
p530
S'JJ'
p531
sS'CharacterOffsetBegin'
p532
S'33'
p533
stp534
a(S'deputy'
p535
(dp536
S'NamedEntityTag'
p537
g96
sS'CharacterOffsetEnd'
p538
S'49'
p539
sS'Lemma'
p540
S'deputy'
p541
sS'PartOfSpeech'
p542
S'NN'
p543
sS'CharacterOffsetBegin'
p544
S'43'
p545
stp546
a(S'PM'
p547
(dp548
S'NamedEntityTag'
p549
g96
sS'CharacterOffsetEnd'
p550
S'52'
p551
sS'Lemma'
p552
S'pm'
p553
sS'PartOfSpeech'
p554
S'NN'
p555
sS'CharacterOffsetBegin'
p556
S'50'
p557
stp558
a(S','
p559
(dp560
S'NamedEntityTag'
p561
g96
sS'CharacterOffsetEnd'
p562
S'53'
p563
sS'Lemma'
p564
g559
sS'PartOfSpeech'
p565
g559
sS'CharacterOffsetBegin'
p566
S'52'
p567
stp568
a(S'concern'
p569
(dp570
S'NamedEntityTag'
p571
g96
sS'CharacterOffsetEnd'
p572
S'61'
p573
sS'Lemma'
p574
S'concern'
p575
sS'PartOfSpeech'
p576
S'NN'
p577
sS'CharacterOffsetBegin'
p578
S'54'
p579
stp580
a(S'for'
p581
(dp582
S'NamedEntityTag'
p583
g96
sS'CharacterOffsetEnd'
p584
S'65'
p585
sS'Lemma'
p586
S'for'
p587
sS'PartOfSpeech'
p588
S'IN'
p589
sS'CharacterOffsetBegin'
p590
S'62'
p591
stp592
a(S'Malaysia'
p593
(dp594
S'NamedEntityTag'
p595
S'LOCATION'
p596
sS'CharacterOffsetEnd'
p597
S'74'
p598
sS'Lemma'
p599
S'Malaysia'
p600
sS'PartOfSpeech'
p601
S'NNP'
p602
sS'CharacterOffsetBegin'
p603
S'66'
p604
stp605
asasa(dp606
g4
(lp607
(dp608
g7
S'(ROOT (NP (NP (JJ Malaysian) (NN government) (NN summons)) (NP (NP (JJ Philippine) (NN ambassador)) (PP (IN in) (NP (NNS rights) (NN dispute))))))'
p609
sg9
S'Malaysian government summons Philippine ambassador in rights dispute'
p610
sg11
(lp611
(S'root'
p612
S'ROOT'
p613
S'summons'
p614
tp615
a(S'amod'
p616
S'summons'
p617
S'Malaysian'
p618
tp619
a(S'nn'
p620
S'summons'
p621
S'government'
p622
tp623
a(S'amod'
p624
S'ambassador'
p625
S'Philippine'
p626
tp627
a(S'dep'
p628
S'summons'
p629
S'ambassador'
p630
tp631
a(S'nn'
p632
S'dispute'
p633
S'rights'
p634
tp635
a(S'prep_in'
p636
S'ambassador'
p637
S'dispute'
p638
tp639
asg49
(lp640
(g612
S'ROOT-0'
p641
S'summons-3'
p642
tp643
a(g616
S'summons-3'
p644
S'Malaysian-1'
p645
tp646
a(g620
S'summons-3'
p647
S'government-2'
p648
tp649
a(g624
S'ambassador-5'
p650
S'Philippine-4'
p651
tp652
a(g628
S'summons-3'
p653
S'ambassador-5'
p654
tp655
a(g632
S'dispute-8'
p656
S'rights-7'
p657
tp658
a(g636
S'ambassador-5'
p659
S'dispute-8'
p660
tp661
asg78
(lp662
(S'Malaysian'
p663
(dp664
S'NamedEntityTag'
p665
S'LOCATION'
p666
sS'CharacterOffsetEnd'
p667
S'10'
p668
sS'Lemma'
p669
S'malaysian'
p670
sS'PartOfSpeech'
p671
S'JJ'
p672
sS'CharacterOffsetBegin'
p673
g91
stp674
a(S'government'
p675
(dp676
S'NamedEntityTag'
p677
g96
sS'CharacterOffsetEnd'
p678
S'21'
p679
sS'Lemma'
p680
S'government'
p681
sS'PartOfSpeech'
p682
S'NN'
p683
sS'CharacterOffsetBegin'
p684
S'11'
p685
stp686
a(S'summons'
p687
(dp688
S'NamedEntityTag'
p689
g96
sS'CharacterOffsetEnd'
p690
S'29'
p691
sS'Lemma'
p692
S'summons'
p693
sS'PartOfSpeech'
p694
S'NN'
p695
sS'CharacterOffsetBegin'
p696
S'22'
p697
stp698
a(S'Philippine'
p699
(dp700
S'NamedEntityTag'
p701
S'LOCATION'
p702
sS'CharacterOffsetEnd'
p703
S'40'
p704
sS'Lemma'
p705
S'philippine'
p706
sS'PartOfSpeech'
p707
S'JJ'
p708
sS'CharacterOffsetBegin'
p709
S'30'
p710
stp711
a(S'ambassador'
p712
(dp713
S'NamedEntityTag'
p714
g96
sS'CharacterOffsetEnd'
p715
S'51'
p716
sS'Lemma'
p717
S'ambassador'
p718
sS'PartOfSpeech'
p719
S'NN'
p720
sS'CharacterOffsetBegin'
p721
S'41'
p722
stp723
a(S'in'
p724
(dp725
S'NamedEntityTag'
p726
g96
sS'CharacterOffsetEnd'
p727
S'54'
p728
sS'Lemma'
p729
S'in'
p730
sS'PartOfSpeech'
p731
S'IN'
p732
sS'CharacterOffsetBegin'
p733
S'52'
p734
stp735
a(S'rights'
p736
(dp737
S'NamedEntityTag'
p738
g96
sS'CharacterOffsetEnd'
p739
S'61'
p740
sS'Lemma'
p741
S'rights'
p742
sS'PartOfSpeech'
p743
S'NNS'
p744
sS'CharacterOffsetBegin'
p745
S'55'
p746
stp747
a(S'dispute'
p748
(dp749
S'NamedEntityTag'
p750
g96
sS'CharacterOffsetEnd'
p751
S'69'
p752
sS'Lemma'
p753
S'dispute'
p754
sS'PartOfSpeech'
p755
S'NN'
p756
sS'CharacterOffsetBegin'
p757
S'62'
p758
stp759
asasasS'article'
p760
(dp761
S'coref'
p762
(lp763
(lp764
((S'Malaysia'
p765
I7
I8
I28
I29
tp766
(S'Malaysia'
p767
I0
I4
I4
I5
tp768
tp769
a((S'Malaysia'
p770
I11
I2
I22
I23
tp771
(S'Malaysia'
p772
I0
I4
I4
I5
tp773
tp774
aa(lp775
((S'he'
p776
I0
I7
I7
I8
tp777
(S'The Philippine ambassador to Malaysia'
p778
I0
I2
I0
I5
tp779
tp780
a((S'his'
p781
I0
I7
I17
I18
tp782
(S'The Philippine ambassador to Malaysia'
p783
I0
I2
I0
I5
tp784
tp785
aa(lp786
((S'support of dissident Anwar Ibrahim'
p787
I0
I1
I21
I26
tp788
(S'his support'
p789
I11
I7
I6
I8
tp790
tp791
aa(lp792
((S'he'
p793
I1
I2
I12
I13
tp794
(S'Ambassador Jose Brillantes'
p795
I1
I2
I0
I3
tp796
tp797
a((S'Brillantes'
p798
I2
I6
I16
I17
tp799
(S'Ambassador Jose Brillantes'
p800
I1
I2
I0
I3
tp801
tp802
a((S'Brillantes'
p803
I3
I0
I0
I1
tp804
(S'Ambassador Jose Brillantes'
p805
I1
I2
I0
I3
tp806
tp807
a((S'he'
p808
I3
I2
I2
I3
tp809
(S'Ambassador Jose Brillantes'
p810
I1
I2
I0
I3
tp811
tp812
a((S'he'
p813
I4
I8
I8
I9
tp814
(S'Ambassador Jose Brillantes'
p815
I1
I2
I0
I3
tp816
tp817
a((S'Brillantes'
p818
I12
I0
I0
I1
tp819
(S'Ambassador Jose Brillantes'
p820
I1
I2
I0
I3
tp821
tp822
a((S'He'
p823
I13
I0
I0
I1
tp824
(S'Ambassador Jose Brillantes'
p825
I1
I2
I0
I3
tp826
tp827
aa(lp828
((S'Thursday'
p829
I10
I1
I1
I2
tp830
(S'Thursday'
p831
I1
I5
I15
I16
tp832
tp833
aa(lp834
((S'They'
p835
I2
I0
I0
I1
tp836
(S'the Malaysian dissidents'
p837
I1
I-1
I17
I20
tp838
tp839
a((S'their'
p840
I2
I2
I2
I3
tp841
(S'the Malaysian dissidents'
p842
I1
I-1
I17
I20
tp843
tp844
aa(lp845
((S'Estrada'
p846
I7
I0
I0
I1
tp847
(S'Philippine President Joseph Estrada'
p848
I1
I6
I23
I27
tp849
tp850
a((S'he'
p851
I7
I8
I8
I9
tp852
(S'Philippine President Joseph Estrada'
p853
I1
I6
I23
I27
tp854
tp855
a((S'he'
p856
I7
I6
I16
I17
tp857
(S'Philippine President Joseph Estrada'
p858
I1
I6
I23
I27
tp859
tp860
a((S'He'
p861
I8
I0
I0
I1
tp862
(S'Philippine President Joseph Estrada'
p863
I1
I6
I23
I27
tp864
tp865
a((S'Estrada'
p866
I10
I3
I3
I4
tp867
(S'Philippine President Joseph Estrada'
p868
I1
I6
I23
I27
tp869
tp870
a((S'He'
p871
I11
I0
I0
I1
tp872
(S'Philippine President Joseph Estrada'
p873
I1
I6
I23
I27
tp874
tp875
a((S'his'
p876
I11
I6
I6
I7
tp877
(S'Philippine President Joseph Estrada'
p878
I1
I6
I23
I27
tp879
tp880
aa(lp881
((S'them'
p882
I4
I6
I6
I7
tp883
(S'1986 people'
p884
I3
I8
I7
I9
tp885
tp886
aa(lp887
((S'our culture'
p888
I12
I2
I11
I13
tp889
(S'our culture'
p890
I4
I4
I3
I5
tp891
tp892
aa(lp893
((S'Anwar'
p894
I5
I0
I0
I1
tp895
(S'Anwar , whom he considers a personal friend , and indicated he may not attend a summit of Asia Pacific Rim nations in Malaysia next month'
p896
I7
I5
I5
I31
tp897
tp898
a((S'He'
p899
I6
I0
I0
I1
tp900
(S'Anwar , whom he considers a personal friend , and indicated he may not attend a summit of Asia Pacific Rim nations in Malaysia next month'
p901
I7
I5
I5
I31
tp902
tp903
a((S'he'
p904
I6
I2
I2
I3
tp905
(S'Anwar , whom he considers a personal friend , and indicated he may not attend a summit of Asia Pacific Rim nations in Malaysia next month'
p906
I7
I5
I5
I31
tp907
tp908
a((S'Anwar'
p909
I7
I5
I5
I6
tp910
(S'Anwar , whom he considers a personal friend , and indicated he may not attend a summit of Asia Pacific Rim nations in Malaysia next month'
p911
I7
I5
I5
I31
tp912
tp913
a((S'Anwar'
p914
I8
I4
I4
I5
tp915
(S'Anwar , whom he considers a personal friend , and indicated he may not attend a summit of Asia Pacific Rim nations in Malaysia next month'
p916
I7
I5
I5
I31
tp917
tp918
a((S'his'
p919
I8
I2
I12
I13
tp920
(S'Anwar , whom he considers a personal friend , and indicated he may not attend a summit of Asia Pacific Rim nations in Malaysia next month'
p921
I7
I5
I5
I31
tp922
tp923
a((S'Anwar'
p924
I9
I0
I0
I1
tp925
(S'Anwar , whom he considers a personal friend , and indicated he may not attend a summit of Asia Pacific Rim nations in Malaysia next month'
p926
I7
I5
I5
I31
tp927
tp928
a((S'Anwars'
p929
I13
I8
I8
I9
tp930
(S'Anwar , whom he considers a personal friend , and indicated he may not attend a summit of Asia Pacific Rim nations in Malaysia next month'
p931
I7
I5
I5
I31
tp932
tp933
a((S'Anwars'
p934
I16
I1
I11
I12
tp935
(S'Anwar , whom he considers a personal friend , and indicated he may not attend a summit of Asia Pacific Rim nations in Malaysia next month'
p936
I7
I5
I5
I31
tp937
tp938
a((S'his'
p939
I17
I6
I6
I7
tp940
(S'Anwar , whom he considers a personal friend , and indicated he may not attend a summit of Asia Pacific Rim nations in Malaysia next month'
p941
I7
I5
I5
I31
tp942
tp943
aa(lp944
((S'them'
p945
I9
I7
I7
I8
tp946
(S'security guards'
p947
I6
I7
I6
I8
tp948
tp949
aa(lp950
((S'Asia'
p951
I13
I8
I18
I19
tp952
(S'Asia Pacific Rim'
p953
I7
I5
I23
I26
tp954
tp955
a((S'Asia'
p956
I17
I-1
I19
I20
tp957
(S'Asia Pacific Rim'
p958
I7
I5
I23
I26
tp959
tp960
aa(lp961
((S'his trial'
p962
I17
I7
I6
I8
tp963
(S'his upcoming trial on corruption and sexual misconduct charges'
p964
I8
I4
I12
I21
tp965
tp966
aa(lp967
((S'the charges'
p968
I9
I4
I3
I5
tp969
(S'corruption and sexual misconduct charges'
p970
I8
I0
I16
I21
tp971
tp972
aa(lp973
((S'a cause'
p974
I10
I4
I23
I25
tp975
(S'the cause of the Malaysian people'
p976
I10
I7
I26
I32
tp977
tp978
aa(lp979
((S'he'
p980
I10
I-1
I19
I20
tp981
(S'her father'
p982
I10
I4
I13
I15
tp983
tp984
aa(lp985
((S'Anwars daughter'
p986
I10
I6
I5
I7
tp987
(S'Nurul Izzah'
p988
I10
I-1
I8
I10
tp989
tp990
a((S'her'
p991
I10
I3
I13
I14
tp992
(S'Nurul Izzah'
p993
I10
I-1
I8
I10
tp994
tp995
aa(lp996
((S'that'
p997
I12
I-1
I19
I20
tp998
(S'our'
p999
I12
I1
I11
I12
tp1000
tp1001
a((S'We'
p1002
I14
I0
I0
I1
tp1003
(S'our'
p1004
I12
I1
I11
I12
tp1005
tp1006
a((S'our'
p1007
I14
I7
I7
I8
tp1008
(S'our'
p1009
I12
I1
I11
I12
tp1010
tp1011
a((S'us'
p1012
I14
I5
I15
I16
tp1013
(S'our'
p1014
I12
I1
I11
I12
tp1015
tp1016
a((S'We'
p1017
I17
I0
I0
I1
tp1018
(S'our'
p1019
I12
I1
I11
I12
tp1020
tp1021
a((S'our'
p1022
I17
I0
I10
I11
tp1023
(S'our'
p1024
I12
I1
I11
I12
tp1025
tp1026
a((S'our'
p1027
I17
I4
I14
I15
tp1028
(S'our'
p1029
I12
I1
I11
I12
tp1030
tp1031
aa(lp1032
((S'he'
p1033
I14
I7
I17
I18
tp1034
(S'our president'
p1035
I14
I8
I7
I9
tp1036
tp1037
a((S'He'
p1038
I15
I0
I0
I1
tp1039
(S'our president'
p1040
I14
I8
I7
I9
tp1041
tp1042
a((S'he'
p1043
I15
I1
I11
I12
tp1044
(S'our president'
p1045
I14
I8
I7
I9
tp1046
tp1047
a((S'he'
p1048
I15
I3
I13
I14
tp1049
(S'our president'
p1050
I14
I8
I7
I9
tp1051
tp1052
aa(lp1053
((S'the Asia Pacific Economic Cooperation forum'
p1054
I13
I2
I17
I23
tp1055
(S'APEC'
p1056
I14
I1
I11
I12
tp1057
tp1058
aa(lp1059
((S'they'
p1060
I16
I7
I7
I8
tp1061
(S'Philippine legislators'
p1062
I16
I5
I4
I6
tp1063
tp1064
aa(lp1065
((S'the group'
p1066
I17
I2
I21
I23
tp1067
(S'a group Philippine legislators'
p1068
I16
I3
I2
I6
tp1069
tp1070
aasg4
(lp1071
(dp1072
g7
S'(ROOT (S (NP (NP (DT The) (JJ Philippine) (NN ambassador)) (PP (TO to) (NP (NNP Malaysia)))) (VP (VBD said) (NP-TMP (NNP Friday)) (SBAR (S (NP (PRP he)) (VP (VBD was) (VP (VBN summoned) (PP (TO to) (NP (DT the) (JJ Malaysian) (NNP Foreign) (NNP Ministry))) (S (VP (TO to) (VP (VB explain) (NP (PRP$ his) (NNS presidents) (NNS statements)) (PP (IN in) (NP (NP (NN support)) (PP (IN of) (NP (JJ dissident) (NNP Anwar) (NNP Ibrahim))))))))))))) (. .)))'
p1073
sg9
S'The Philippine ambassador to Malaysia said Friday he was summoned to the Malaysian Foreign Ministry to explain his presidents statements in support of dissident Anwar Ibrahim.'
p1074
sg11
(lp1075
(S'root'
p1076
S'ROOT'
p1077
S'said'
p1078
tp1079
a(S'det'
p1080
S'ambassador'
p1081
S'The'
p1082
tp1083
a(S'amod'
p1084
S'ambassador'
p1085
S'Philippine'
p1086
tp1087
a(S'nsubj'
p1088
S'said'
p1089
S'ambassador'
p1090
tp1091
a(S'prep_to'
p1092
S'ambassador'
p1093
S'Malaysia'
p1094
tp1095
a(S'tmod'
p1096
S'said'
p1097
S'Friday'
p1098
tp1099
a(S'nsubjpass'
p1100
S'summoned'
p1101
S'he'
p1102
tp1103
a(S'auxpass'
p1104
S'summoned'
p1105
S'was'
p1106
tp1107
a(S'ccomp'
p1108
S'said'
p1109
S'summoned'
p1110
tp1111
a(S'det'
p1112
S'Ministry'
p1113
S'the'
p1114
tp1115
a(S'amod'
p1116
S'Ministry'
p1117
S'Malaysian'
p1118
tp1119
a(S'nn'
p1120
S'Ministry'
p1121
S'Foreign'
p1122
tp1123
a(S'prep_to'
p1124
S'summoned'
p1125
S'Ministry'
p1126
tp1127
a(S'aux'
p1128
S'explain'
p1129
S'to'
p1130
tp1131
a(S'xcomp'
p1132
S'summoned'
p1133
S'explain'
p1134
tp1135
a(S'poss'
p1136
S'statements'
p1137
S'his'
p1138
tp1139
a(S'nn'
p1140
S'statements'
p1141
S'presidents'
p1142
tp1143
a(S'dobj'
p1144
S'explain'
p1145
S'statements'
p1146
tp1147
a(S'prep_in'
p1148
S'explain'
p1149
S'support'
p1150
tp1151
a(S'amod'
p1152
S'Ibrahim'
p1153
S'dissident'
p1154
tp1155
a(S'nn'
p1156
S'Ibrahim'
p1157
S'Anwar'
p1158
tp1159
a(S'prep_of'
p1160
S'support'
p1161
S'Ibrahim'
p1162
tp1163
asg49
(lp1164
(g1076
S'ROOT-0'
p1165
S'said-6'
p1166
tp1167
a(g1080
S'ambassador-3'
p1168
S'The-1'
p1169
tp1170
a(g1084
S'ambassador-3'
p1171
S'Philippine-2'
p1172
tp1173
a(g1088
S'said-6'
p1174
S'ambassador-3'
p1175
tp1176
a(g1092
S'ambassador-3'
p1177
S'Malaysia-5'
p1178
tp1179
a(g1096
S'said-6'
p1180
S'Friday-7'
p1181
tp1182
a(g1100
S'summoned-10'
p1183
S'he-8'
p1184
tp1185
a(g1104
S'summoned-10'
p1186
S'was-9'
p1187
tp1188
a(g1108
S'said-6'
p1189
S'summoned-10'
p1190
tp1191
a(g1112
S'Ministry-15'
p1192
S'the-12'
p1193
tp1194
a(g1116
S'Ministry-15'
p1195
S'Malaysian-13'
p1196
tp1197
a(g1120
S'Ministry-15'
p1198
S'Foreign-14'
p1199
tp1200
a(g1124
S'summoned-10'
p1201
S'Ministry-15'
p1202
tp1203
a(g1128
S'explain-17'
p1204
S'to-16'
p1205
tp1206
a(g1132
S'summoned-10'
p1207
S'explain-17'
p1208
tp1209
a(g1136
S'statements-20'
p1210
S'his-18'
p1211
tp1212
a(g1140
S'statements-20'
p1213
S'presidents-19'
p1214
tp1215
a(g1144
S'explain-17'
p1216
S'statements-20'
p1217
tp1218
a(g1148
S'explain-17'
p1219
S'support-22'
p1220
tp1221
a(g1152
S'Ibrahim-26'
p1222
S'dissident-24'
p1223
tp1224
a(g1156
S'Ibrahim-26'
p1225
S'Anwar-25'
p1226
tp1227
a(g1160
S'support-22'
p1228
S'Ibrahim-26'
p1229
tp1230
asg78
(lp1231
(S'The'
p1232
(dp1233
S'NamedEntityTag'
p1234
g96
sS'CharacterOffsetEnd'
p1235
S'3'
p1236
sS'Lemma'
p1237
S'the'
p1238
sS'PartOfSpeech'
p1239
S'DT'
p1240
sS'CharacterOffsetBegin'
p1241
S'0'
p1242
stp1243
a(S'Philippine'
p1244
(dp1245
S'NamedEntityTag'
p1246
S'LOCATION'
p1247
sS'CharacterOffsetEnd'
p1248
S'14'
p1249
sS'Lemma'
p1250
S'philippine'
p1251
sS'PartOfSpeech'
p1252
S'JJ'
p1253
sS'CharacterOffsetBegin'
p1254
S'4'
p1255
stp1256
a(S'ambassador'
p1257
(dp1258
S'NamedEntityTag'
p1259
g96
sS'CharacterOffsetEnd'
p1260
S'25'
p1261
sS'Lemma'
p1262
S'ambassador'
p1263
sS'PartOfSpeech'
p1264
S'NN'
p1265
sS'CharacterOffsetBegin'
p1266
S'15'
p1267
stp1268
a(S'to'
p1269
(dp1270
S'NamedEntityTag'
p1271
g96
sS'CharacterOffsetEnd'
p1272
S'28'
p1273
sS'Lemma'
p1274
S'to'
p1275
sS'PartOfSpeech'
p1276
S'TO'
p1277
sS'CharacterOffsetBegin'
p1278
S'26'
p1279
stp1280
a(S'Malaysia'
p1281
(dp1282
S'NamedEntityTag'
p1283
S'LOCATION'
p1284
sS'CharacterOffsetEnd'
p1285
S'37'
p1286
sS'Lemma'
p1287
S'Malaysia'
p1288
sS'PartOfSpeech'
p1289
S'NNP'
p1290
sS'CharacterOffsetBegin'
p1291
S'29'
p1292
stp1293
a(S'said'
p1294
(dp1295
S'NamedEntityTag'
p1296
g96
sS'CharacterOffsetEnd'
p1297
S'42'
p1298
sS'Lemma'
p1299
S'say'
p1300
sS'PartOfSpeech'
p1301
S'VBD'
p1302
sS'CharacterOffsetBegin'
p1303
S'38'
p1304
stp1305
a(S'Friday'
p1306
(dp1307
S'NormalizedNamedEntityTag'
p1308
S'XXXX-WXX-5'
p1309
sS'Timex'
p1310
S'<TIMEX3 tid="t1" type="DATE" value="XXXX-WXX-5">Friday</TIMEX3>'
p1311
sS'Lemma'
p1312
S'Friday'
p1313
sS'CharacterOffsetEnd'
p1314
S'49'
p1315
sS'PartOfSpeech'
p1316
S'NNP'
p1317
sS'CharacterOffsetBegin'
p1318
S'43'
p1319
sS'NamedEntityTag'
p1320
S'DATE'
p1321
stp1322
a(S'he'
p1323
(dp1324
S'NamedEntityTag'
p1325
g96
sS'CharacterOffsetEnd'
p1326
S'52'
p1327
sS'Lemma'
p1328
S'he'
p1329
sS'PartOfSpeech'
p1330
S'PRP'
p1331
sS'CharacterOffsetBegin'
p1332
S'50'
p1333
stp1334
a(S'was'
p1335
(dp1336
S'NamedEntityTag'
p1337
g96
sS'CharacterOffsetEnd'
p1338
S'56'
p1339
sS'Lemma'
p1340
S'be'
p1341
sS'PartOfSpeech'
p1342
S'VBD'
p1343
sS'CharacterOffsetBegin'
p1344
S'53'
p1345
stp1346
a(S'summoned'
p1347
(dp1348
S'NamedEntityTag'
p1349
g96
sS'CharacterOffsetEnd'
p1350
S'65'
p1351
sS'Lemma'
p1352
S'summon'
p1353
sS'PartOfSpeech'
p1354
S'VBN'
p1355
sS'CharacterOffsetBegin'
p1356
S'57'
p1357
stp1358
a(S'to'
p1359
(dp1360
S'NamedEntityTag'
p1361
g96
sS'CharacterOffsetEnd'
p1362
S'68'
p1363
sS'Lemma'
p1364
S'to'
p1365
sS'PartOfSpeech'
p1366
S'TO'
p1367
sS'CharacterOffsetBegin'
p1368
S'66'
p1369
stp1370
a(S'the'
p1371
(dp1372
S'NamedEntityTag'
p1373
g96
sS'CharacterOffsetEnd'
p1374
S'72'
p1375
sS'Lemma'
p1376
S'the'
p1377
sS'PartOfSpeech'
p1378
S'DT'
p1379
sS'CharacterOffsetBegin'
p1380
S'69'
p1381
stp1382
a(S'Malaysian'
p1383
(dp1384
S'NamedEntityTag'
p1385
S'LOCATION'
p1386
sS'CharacterOffsetEnd'
p1387
S'82'
p1388
sS'Lemma'
p1389
S'malaysian'
p1390
sS'PartOfSpeech'
p1391
S'JJ'
p1392
sS'CharacterOffsetBegin'
p1393
S'73'
p1394
stp1395
a(S'Foreign'
p1396
(dp1397
S'NamedEntityTag'
p1398
S'ORGANIZATION'
p1399
sS'CharacterOffsetEnd'
p1400
S'90'
p1401
sS'Lemma'
p1402
S'Foreign'
p1403
sS'PartOfSpeech'
p1404
S'NNP'
p1405
sS'CharacterOffsetBegin'
p1406
S'83'
p1407
stp1408
a(S'Ministry'
p1409
(dp1410
S'NamedEntityTag'
p1411
S'ORGANIZATION'
p1412
sS'CharacterOffsetEnd'
p1413
S'99'
p1414
sS'Lemma'
p1415
S'Ministry'
p1416
sS'PartOfSpeech'
p1417
S'NNP'
p1418
sS'CharacterOffsetBegin'
p1419
S'91'
p1420
stp1421
a(S'to'
p1422
(dp1423
S'NamedEntityTag'
p1424
g96
sS'CharacterOffsetEnd'
p1425
S'102'
p1426
sS'Lemma'
p1427
S'to'
p1428
sS'PartOfSpeech'
p1429
S'TO'
p1430
sS'CharacterOffsetBegin'
p1431
S'100'
p1432
stp1433
a(S'explain'
p1434
(dp1435
S'NamedEntityTag'
p1436
g96
sS'CharacterOffsetEnd'
p1437
S'110'
p1438
sS'Lemma'
p1439
S'explain'
p1440
sS'PartOfSpeech'
p1441
S'VB'
p1442
sS'CharacterOffsetBegin'
p1443
S'103'
p1444
stp1445
a(S'his'
p1446
(dp1447
S'NamedEntityTag'
p1448
g96
sS'CharacterOffsetEnd'
p1449
S'114'
p1450
sS'Lemma'
p1451
S'he'
p1452
sS'PartOfSpeech'
p1453
S'PRP$'
p1454
sS'CharacterOffsetBegin'
p1455
S'111'
p1456
stp1457
a(S'presidents'
p1458
(dp1459
S'NamedEntityTag'
p1460
g96
sS'CharacterOffsetEnd'
p1461
S'125'
p1462
sS'Lemma'
p1463
S'president'
p1464
sS'PartOfSpeech'
p1465
S'NNS'
p1466
sS'CharacterOffsetBegin'
p1467
S'115'
p1468
stp1469
a(S'statements'
p1470
(dp1471
S'NamedEntityTag'
p1472
g96
sS'CharacterOffsetEnd'
p1473
S'136'
p1474
sS'Lemma'
p1475
S'statement'
p1476
sS'PartOfSpeech'
p1477
S'NNS'
p1478
sS'CharacterOffsetBegin'
p1479
S'126'
p1480
stp1481
a(S'in'
p1482
(dp1483
S'NamedEntityTag'
p1484
g96
sS'CharacterOffsetEnd'
p1485
S'139'
p1486
sS'Lemma'
p1487
S'in'
p1488
sS'PartOfSpeech'
p1489
S'IN'
p1490
sS'CharacterOffsetBegin'
p1491
S'137'
p1492
stp1493
a(S'support'
p1494
(dp1495
S'NamedEntityTag'
p1496
g96
sS'CharacterOffsetEnd'
p1497
S'147'
p1498
sS'Lemma'
p1499
S'support'
p1500
sS'PartOfSpeech'
p1501
S'NN'
p1502
sS'CharacterOffsetBegin'
p1503
S'140'
p1504
stp1505
a(S'of'
p1506
(dp1507
S'NamedEntityTag'
p1508
g96
sS'CharacterOffsetEnd'
p1509
S'150'
p1510
sS'Lemma'
p1511
S'of'
p1512
sS'PartOfSpeech'
p1513
S'IN'
p1514
sS'CharacterOffsetBegin'
p1515
S'148'
p1516
stp1517
a(S'dissident'
p1518
(dp1519
S'NamedEntityTag'
p1520
g96
sS'CharacterOffsetEnd'
p1521
S'160'
p1522
sS'Lemma'
p1523
S'dissident'
p1524
sS'PartOfSpeech'
p1525
S'JJ'
p1526
sS'CharacterOffsetBegin'
p1527
S'151'
p1528
stp1529
a(S'Anwar'
p1530
(dp1531
S'NamedEntityTag'
p1532
S'PERSON'
p1533
sS'CharacterOffsetEnd'
p1534
S'166'
p1535
sS'Lemma'
p1536
S'Anwar'
p1537
sS'PartOfSpeech'
p1538
S'NNP'
p1539
sS'CharacterOffsetBegin'
p1540
S'161'
p1541
stp1542
a(S'Ibrahim'
p1543
(dp1544
S'NamedEntityTag'
p1545
S'PERSON'
p1546
sS'CharacterOffsetEnd'
p1547
S'174'
p1548
sS'Lemma'
p1549
S'Ibrahim'
p1550
sS'PartOfSpeech'
p1551
S'NNP'
p1552
sS'CharacterOffsetBegin'
p1553
S'167'
p1554
stp1555
a(g400
(dp1556
S'NamedEntityTag'
p1557
g96
sS'CharacterOffsetEnd'
p1558
S'175'
p1559
sS'Lemma'
p1560
g400
sS'PartOfSpeech'
p1561
g400
sS'CharacterOffsetBegin'
p1562
S'174'
p1563
stp1564
asa(dp1565
g7
S'(ROOT (S (NP (NNP Ambassador) (NNP Jose) (NNP Brillantes)) (VP (VBD said) (PP (IN in) (NP (NP (DT a) (NN radio) (NN interview)) (PP (IN from) (NP (NNP Kuala) (NNP Lumpur))))) (SBAR (IN that) (S (NP (PRP he)) (VP (VBD was) (VP (VBN called) (NP-TMP (NNP Thursday)) (SBAR (IN after) (S (NP (DT the) (JJ Malaysian) (NNS dissidents)) (VP (VBP eldest) (SBAR (S (NP (NN daughter)) (VP (VBD met) (NP (JJ Philippine) (NNP President) (NNP Joseph) (NNP Estrada))))))))))))) (. .)))'
p1566
sg9
S'Ambassador Jose Brillantes said in a radio interview from Kuala Lumpur that he was called Thursday after the Malaysian dissidents eldest daughter met Philippine President Joseph Estrada.'
p1567
sg11
(lp1568
(S'root'
p1569
S'ROOT'
p1570
S'said'
p1571
tp1572
a(S'nn'
p1573
S'Brillantes'
p1574
S'Ambassador'
p1575
tp1576
a(S'nn'
p1577
S'Brillantes'
p1578
S'Jose'
p1579
tp1580
a(S'nsubj'
p1581
S'said'
p1582
S'Brillantes'
p1583
tp1584
a(S'det'
p1585
S'interview'
p1586
S'a'
p1587
tp1588
a(S'nn'
p1589
S'interview'
p1590
S'radio'
p1591
tp1592
a(S'prep_in'
p1593
S'said'
p1594
S'interview'
p1595
tp1596
a(S'nn'
p1597
S'Lumpur'
p1598
S'Kuala'
p1599
tp1600
a(S'prep_from'
p1601
S'interview'
p1602
S'Lumpur'
p1603
tp1604
a(S'mark'
p1605
S'called'
p1606
S'that'
p1607
tp1608
a(S'nsubjpass'
p1609
S'called'
p1610
S'he'
p1611
tp1612
a(S'auxpass'
p1613
S'called'
p1614
S'was'
p1615
tp1616
a(S'ccomp'
p1617
S'said'
p1618
S'called'
p1619
tp1620
a(S'tmod'
p1621
S'called'
p1622
S'Thursday'
p1623
tp1624
a(S'mark'
p1625
S'eldest'
p1626
S'after'
p1627
tp1628
a(S'det'
p1629
S'dissidents'
p1630
S'the'
p1631
tp1632
a(S'amod'
p1633
S'dissidents'
p1634
S'Malaysian'
p1635
tp1636
a(S'nsubj'
p1637
S'eldest'
p1638
S'dissidents'
p1639
tp1640
a(S'advcl'
p1641
S'called'
p1642
S'eldest'
p1643
tp1644
a(S'nsubj'
p1645
S'met'
p1646
S'daughter'
p1647
tp1648
a(S'ccomp'
p1649
S'eldest'
p1650
S'met'
p1651
tp1652
a(S'amod'
p1653
S'Estrada'
p1654
S'Philippine'
p1655
tp1656
a(S'nn'
p1657
S'Estrada'
p1658
S'President'
p1659
tp1660
a(S'nn'
p1661
S'Estrada'
p1662
S'Joseph'
p1663
tp1664
a(S'dobj'
p1665
S'met'
p1666
S'Estrada'
p1667
tp1668
asg49
(lp1669
(g1569
S'ROOT-0'
p1670
S'said-4'
p1671
tp1672
a(g1573
S'Brillantes-3'
p1673
S'Ambassador-1'
p1674
tp1675
a(g1577
S'Brillantes-3'
p1676
S'Jose-2'
p1677
tp1678
a(g1581
S'said-4'
p1679
S'Brillantes-3'
p1680
tp1681
a(g1585
S'interview-8'
p1682
S'a-6'
p1683
tp1684
a(g1589
S'interview-8'
p1685
S'radio-7'
p1686
tp1687
a(g1593
S'said-4'
p1688
S'interview-8'
p1689
tp1690
a(g1597
S'Lumpur-11'
p1691
S'Kuala-10'
p1692
tp1693
a(g1601
S'interview-8'
p1694
S'Lumpur-11'
p1695
tp1696
a(g1605
S'called-15'
p1697
S'that-12'
p1698
tp1699
a(g1609
S'called-15'
p1700
S'he-13'
p1701
tp1702
a(g1613
S'called-15'
p1703
S'was-14'
p1704
tp1705
a(g1617
S'said-4'
p1706
S'called-15'
p1707
tp1708
a(g1621
S'called-15'
p1709
S'Thursday-16'
p1710
tp1711
a(g1625
S'eldest-21'
p1712
S'after-17'
p1713
tp1714
a(g1629
S'dissidents-20'
p1715
S'the-18'
p1716
tp1717
a(g1633
S'dissidents-20'
p1718
S'Malaysian-19'
p1719
tp1720
a(g1637
S'eldest-21'
p1721
S'dissidents-20'
p1722
tp1723
a(g1641
S'called-15'
p1724
S'eldest-21'
p1725
tp1726
a(g1645
S'met-23'
p1727
S'daughter-22'
p1728
tp1729
a(g1649
S'eldest-21'
p1730
S'met-23'
p1731
tp1732
a(g1653
S'Estrada-27'
p1733
S'Philippine-24'
p1734
tp1735
a(g1657
S'Estrada-27'
p1736
S'President-25'
p1737
tp1738
a(g1661
S'Estrada-27'
p1739
S'Joseph-26'
p1740
tp1741
a(g1665
S'met-23'
p1742
S'Estrada-27'
p1743
tp1744
asg78
(lp1745
(S'Ambassador'
p1746
(dp1747
S'NamedEntityTag'
p1748
g96
sS'CharacterOffsetEnd'
p1749
S'186'
p1750
sS'Lemma'
p1751
S'Ambassador'
p1752
sS'PartOfSpeech'
p1753
S'NNP'
p1754
sS'CharacterOffsetBegin'
p1755
S'176'
p1756
stp1757
a(S'Jose'
p1758
(dp1759
S'NamedEntityTag'
p1760
S'PERSON'
p1761
sS'CharacterOffsetEnd'
p1762
S'191'
p1763
sS'Lemma'
p1764
S'Jose'
p1765
sS'PartOfSpeech'
p1766
S'NNP'
p1767
sS'CharacterOffsetBegin'
p1768
S'187'
p1769
stp1770
a(S'Brillantes'
p1771
(dp1772
S'NamedEntityTag'
p1773
S'PERSON'
p1774
sS'CharacterOffsetEnd'
p1775
S'202'
p1776
sS'Lemma'
p1777
S'Brillantes'
p1778
sS'PartOfSpeech'
p1779
S'NNP'
p1780
sS'CharacterOffsetBegin'
p1781
S'192'
p1782
stp1783
a(S'said'
p1784
(dp1785
S'NamedEntityTag'
p1786
g96
sS'CharacterOffsetEnd'
p1787
S'207'
p1788
sS'Lemma'
p1789
S'say'
p1790
sS'PartOfSpeech'
p1791
S'VBD'
p1792
sS'CharacterOffsetBegin'
p1793
S'203'
p1794
stp1795
a(S'in'
p1796
(dp1797
S'NamedEntityTag'
p1798
g96
sS'CharacterOffsetEnd'
p1799
S'210'
p1800
sS'Lemma'
p1801
S'in'
p1802
sS'PartOfSpeech'
p1803
S'IN'
p1804
sS'CharacterOffsetBegin'
p1805
S'208'
p1806
stp1807
a(g1587
(dp1808
S'NamedEntityTag'
p1809
g96
sS'CharacterOffsetEnd'
p1810
S'212'
p1811
sS'Lemma'
p1812
g1587
sS'PartOfSpeech'
p1813
S'DT'
p1814
sS'CharacterOffsetBegin'
p1815
S'211'
p1816
stp1817
a(S'radio'
p1818
(dp1819
S'NamedEntityTag'
p1820
g96
sS'CharacterOffsetEnd'
p1821
S'218'
p1822
sS'Lemma'
p1823
S'radio'
p1824
sS'PartOfSpeech'
p1825
S'NN'
p1826
sS'CharacterOffsetBegin'
p1827
S'213'
p1828
stp1829
a(S'interview'
p1830
(dp1831
S'NamedEntityTag'
p1832
g96
sS'CharacterOffsetEnd'
p1833
S'228'
p1834
sS'Lemma'
p1835
S'interview'
p1836
sS'PartOfSpeech'
p1837
S'NN'
p1838
sS'CharacterOffsetBegin'
p1839
S'219'
p1840
stp1841
a(S'from'
p1842
(dp1843
S'NamedEntityTag'
p1844
g96
sS'CharacterOffsetEnd'
p1845
S'233'
p1846
sS'Lemma'
p1847
S'from'
p1848
sS'PartOfSpeech'
p1849
S'IN'
p1850
sS'CharacterOffsetBegin'
p1851
S'229'
p1852
stp1853
a(S'Kuala'
p1854
(dp1855
S'NamedEntityTag'
p1856
S'LOCATION'
p1857
sS'CharacterOffsetEnd'
p1858
S'239'
p1859
sS'Lemma'
p1860
S'Kuala'
p1861
sS'PartOfSpeech'
p1862
S'NNP'
p1863
sS'CharacterOffsetBegin'
p1864
S'234'
p1865
stp1866
a(S'Lumpur'
p1867
(dp1868
S'NamedEntityTag'
p1869
S'LOCATION'
p1870
sS'CharacterOffsetEnd'
p1871
S'246'
p1872
sS'Lemma'
p1873
S'Lumpur'
p1874
sS'PartOfSpeech'
p1875
S'NNP'
p1876
sS'CharacterOffsetBegin'
p1877
S'240'
p1878
stp1879
a(S'that'
p1880
(dp1881
S'NamedEntityTag'
p1882
g96
sS'CharacterOffsetEnd'
p1883
S'251'
p1884
sS'Lemma'
p1885
S'that'
p1886
sS'PartOfSpeech'
p1887
S'IN'
p1888
sS'CharacterOffsetBegin'
p1889
S'247'
p1890
stp1891
a(S'he'
p1892
(dp1893
S'NamedEntityTag'
p1894
g96
sS'CharacterOffsetEnd'
p1895
S'254'
p1896
sS'Lemma'
p1897
S'he'
p1898
sS'PartOfSpeech'
p1899
S'PRP'
p1900
sS'CharacterOffsetBegin'
p1901
S'252'
p1902
stp1903
a(S'was'
p1904
(dp1905
S'NamedEntityTag'
p1906
g96
sS'CharacterOffsetEnd'
p1907
S'258'
p1908
sS'Lemma'
p1909
S'be'
p1910
sS'PartOfSpeech'
p1911
S'VBD'
p1912
sS'CharacterOffsetBegin'
p1913
S'255'
p1914
stp1915
a(S'called'
p1916
(dp1917
S'NamedEntityTag'
p1918
g96
sS'CharacterOffsetEnd'
p1919
S'265'
p1920
sS'Lemma'
p1921
S'call'
p1922
sS'PartOfSpeech'
p1923
S'VBN'
p1924
sS'CharacterOffsetBegin'
p1925
S'259'
p1926
stp1927
a(S'Thursday'
p1928
(dp1929
S'NormalizedNamedEntityTag'
p1930
S'XXXX-WXX-4'
p1931
sS'Timex'
p1932
S'<TIMEX3 tid="t2" type="DATE" value="XXXX-WXX-4">Thursday</TIMEX3>'
p1933
sS'Lemma'
p1934
S'Thursday'
p1935
sS'CharacterOffsetEnd'
p1936
S'274'
p1937
sS'PartOfSpeech'
p1938
S'NNP'
p1939
sS'CharacterOffsetBegin'
p1940
S'266'
p1941
sS'NamedEntityTag'
p1942
S'DATE'
p1943
stp1944
a(S'after'
p1945
(dp1946
S'NamedEntityTag'
p1947
g96
sS'CharacterOffsetEnd'
p1948
S'280'
p1949
sS'Lemma'
p1950
S'after'
p1951
sS'PartOfSpeech'
p1952
S'IN'
p1953
sS'CharacterOffsetBegin'
p1954
S'275'
p1955
stp1956
a(S'the'
p1957
(dp1958
S'NamedEntityTag'
p1959
g96
sS'CharacterOffsetEnd'
p1960
S'284'
p1961
sS'Lemma'
p1962
S'the'
p1963
sS'PartOfSpeech'
p1964
S'DT'
p1965
sS'CharacterOffsetBegin'
p1966
S'281'
p1967
stp1968
a(S'Malaysian'
p1969
(dp1970
S'NamedEntityTag'
p1971
S'MISC'
p1972
sS'CharacterOffsetEnd'
p1973
S'294'
p1974
sS'Lemma'
p1975
S'malaysian'
p1976
sS'PartOfSpeech'
p1977
S'JJ'
p1978
sS'CharacterOffsetBegin'
p1979
S'285'
p1980
stp1981
a(S'dissidents'
p1982
(dp1983
S'NamedEntityTag'
p1984
g96
sS'CharacterOffsetEnd'
p1985
S'305'
p1986
sS'Lemma'
p1987
S'dissident'
p1988
sS'PartOfSpeech'
p1989
S'NNS'
p1990
sS'CharacterOffsetBegin'
p1991
S'295'
p1992
stp1993
a(S'eldest'
p1994
(dp1995
S'NamedEntityTag'
p1996
g96
sS'CharacterOffsetEnd'
p1997
S'312'
p1998
sS'Lemma'
p1999
S'eldest'
p2000
sS'PartOfSpeech'
p2001
S'VBP'
p2002
sS'CharacterOffsetBegin'
p2003
S'306'
p2004
stp2005
a(S'daughter'
p2006
(dp2007
S'NamedEntityTag'
p2008
g96
sS'CharacterOffsetEnd'
p2009
S'321'
p2010
sS'Lemma'
p2011
S'daughter'
p2012
sS'PartOfSpeech'
p2013
S'NN'
p2014
sS'CharacterOffsetBegin'
p2015
S'313'
p2016
stp2017
a(S'met'
p2018
(dp2019
S'NamedEntityTag'
p2020
g96
sS'CharacterOffsetEnd'
p2021
S'325'
p2022
sS'Lemma'
p2023
S'meet'
p2024
sS'PartOfSpeech'
p2025
S'VBD'
p2026
sS'CharacterOffsetBegin'
p2027
S'322'
p2028
stp2029
a(S'Philippine'
p2030
(dp2031
S'NamedEntityTag'
p2032
S'MISC'
p2033
sS'CharacterOffsetEnd'
p2034
S'336'
p2035
sS'Lemma'
p2036
S'philippine'
p2037
sS'PartOfSpeech'
p2038
S'JJ'
p2039
sS'CharacterOffsetBegin'
p2040
S'326'
p2041
stp2042
a(S'President'
p2043
(dp2044
S'NamedEntityTag'
p2045
g96
sS'CharacterOffsetEnd'
p2046
S'346'
p2047
sS'Lemma'
p2048
S'President'
p2049
sS'PartOfSpeech'
p2050
S'NNP'
p2051
sS'CharacterOffsetBegin'
p2052
S'337'
p2053
stp2054
a(S'Joseph'
p2055
(dp2056
S'NamedEntityTag'
p2057
S'PERSON'
p2058
sS'CharacterOffsetEnd'
p2059
S'353'
p2060
sS'Lemma'
p2061
S'Joseph'
p2062
sS'PartOfSpeech'
p2063
S'NNP'
p2064
sS'CharacterOffsetBegin'
p2065
S'347'
p2066
stp2067
a(S'Estrada'
p2068
(dp2069
S'NamedEntityTag'
p2070
S'PERSON'
p2071
sS'CharacterOffsetEnd'
p2072
S'361'
p2073
sS'Lemma'
p2074
S'Estrada'
p2075
sS'PartOfSpeech'
p2076
S'NNP'
p2077
sS'CharacterOffsetBegin'
p2078
S'354'
p2079
stp2080
a(g400
(dp2081
S'NamedEntityTag'
p2082
g96
sS'CharacterOffsetEnd'
p2083
S'362'
p2084
sS'Lemma'
p2085
g400
sS'PartOfSpeech'
p2086
g400
sS'CharacterOffsetBegin'
p2087
S'361'
p2088
stp2089
asa(dp2090
g7
S'(ROOT (S (S (NP (PRP They)) (VP (VBD expressed) (NP (PRP$ their) (NN concern)) (PP (IN about) (NP (NP (NP (NNS whats)) (VP (VBG happening))) (CC and) (NP (NP (DT the) (NNS statements)) (VP (VBG coming) (PRT (IN out)) (PP (IN of) (NP (DT the) (NNPS Philippines))))))))) (, ,) (NP (NNPS Brillantes)) (VP (VBD told) (NP (NP (NN radio) (NN station) (NN DZXL)) (PP (IN in) (NP (NNP Manila))))) (. .)))'
p2091
sg9
S'They expressed their concern about whats happening and the statements coming out of the Philippines, Brillantes told radio station DZXL in Manila.'
p2092
sg11
(lp2093
(S'root'
p2094
S'ROOT'
p2095
S'told'
p2096
tp2097
a(S'nsubj'
p2098
S'expressed'
p2099
S'They'
p2100
tp2101
a(S'ccomp'
p2102
S'told'
p2103
S'expressed'
p2104
tp2105
a(S'poss'
p2106
S'concern'
p2107
S'their'
p2108
tp2109
a(S'dobj'
p2110
S'expressed'
p2111
S'concern'
p2112
tp2113
a(S'prep_about'
p2114
S'expressed'
p2115
S'whats'
p2116
tp2117
a(S'partmod'
p2118
S'whats'
p2119
S'happening'
p2120
tp2121
a(S'det'
p2122
S'statements'
p2123
S'the'
p2124
tp2125
a(S'conj_and'
p2126
S'whats'
p2127
S'statements'
p2128
tp2129
a(S'partmod'
p2130
S'statements'
p2131
S'coming'
p2132
tp2133
a(S'det'
p2134
S'Philippines'
p2135
S'the'
p2136
tp2137
a(S'prep_out_of'
p2138
S'coming'
p2139
S'Philippines'
p2140
tp2141
a(S'nsubj'
p2142
S'told'
p2143
S'Brillantes'
p2144
tp2145
a(S'nn'
p2146
S'DZXL'
p2147
S'radio'
p2148
tp2149
a(S'nn'
p2150
S'DZXL'
p2151
S'station'
p2152
tp2153
a(S'dobj'
p2154
S'told'
p2155
S'DZXL'
p2156
tp2157
a(S'prep_in'
p2158
S'DZXL'
p2159
S'Manila'
p2160
tp2161
asg49
(lp2162
(g2094
S'ROOT-0'
p2163
S'told-18'
p2164
tp2165
a(g2098
S'expressed-2'
p2166
S'They-1'
p2167
tp2168
a(g2102
S'told-18'
p2169
S'expressed-2'
p2170
tp2171
a(g2106
S'concern-4'
p2172
S'their-3'
p2173
tp2174
a(g2110
S'expressed-2'
p2175
S'concern-4'
p2176
tp2177
a(g2114
S'expressed-2'
p2178
S'whats-6'
p2179
tp2180
a(g2118
S'whats-6'
p2181
S'happening-7'
p2182
tp2183
a(g2122
S'statements-10'
p2184
S'the-9'
p2185
tp2186
a(g2126
S'whats-6'
p2187
S'statements-10'
p2188
tp2189
a(g2130
S'statements-10'
p2190
S'coming-11'
p2191
tp2192
a(g2134
S'Philippines-15'
p2193
S'the-14'
p2194
tp2195
a(g2138
S'coming-11'
p2196
S'Philippines-15'
p2197
tp2198
a(g2142
S'told-18'
p2199
S'Brillantes-17'
p2200
tp2201
a(g2146
S'DZXL-21'
p2202
S'radio-19'
p2203
tp2204
a(g2150
S'DZXL-21'
p2205
S'station-20'
p2206
tp2207
a(g2154
S'told-18'
p2208
S'DZXL-21'
p2209
tp2210
a(g2158
S'DZXL-21'
p2211
S'Manila-23'
p2212
tp2213
asg78
(lp2214
(S'They'
p2215
(dp2216
S'NamedEntityTag'
p2217
g96
sS'CharacterOffsetEnd'
p2218
S'367'
p2219
sS'Lemma'
p2220
S'they'
p2221
sS'PartOfSpeech'
p2222
S'PRP'
p2223
sS'CharacterOffsetBegin'
p2224
S'363'
p2225
stp2226
a(S'expressed'
p2227
(dp2228
S'NamedEntityTag'
p2229
g96
sS'CharacterOffsetEnd'
p2230
S'377'
p2231
sS'Lemma'
p2232
S'express'
p2233
sS'PartOfSpeech'
p2234
S'VBD'
p2235
sS'CharacterOffsetBegin'
p2236
S'368'
p2237
stp2238
a(S'their'
p2239
(dp2240
S'NamedEntityTag'
p2241
g96
sS'CharacterOffsetEnd'
p2242
S'383'
p2243
sS'Lemma'
p2244
S'they'
p2245
sS'PartOfSpeech'
p2246
S'PRP$'
p2247
sS'CharacterOffsetBegin'
p2248
S'378'
p2249
stp2250
a(S'concern'
p2251
(dp2252
S'NamedEntityTag'
p2253
g96
sS'CharacterOffsetEnd'
p2254
S'391'
p2255
sS'Lemma'
p2256
S'concern'
p2257
sS'PartOfSpeech'
p2258
S'NN'
p2259
sS'CharacterOffsetBegin'
p2260
S'384'
p2261
stp2262
a(S'about'
p2263
(dp2264
S'NamedEntityTag'
p2265
g96
sS'CharacterOffsetEnd'
p2266
S'397'
p2267
sS'Lemma'
p2268
S'about'
p2269
sS'PartOfSpeech'
p2270
S'IN'
p2271
sS'CharacterOffsetBegin'
p2272
S'392'
p2273
stp2274
a(S'whats'
p2275
(dp2276
S'NamedEntityTag'
p2277
g96
sS'CharacterOffsetEnd'
p2278
S'403'
p2279
sS'Lemma'
p2280
S'what'
p2281
sS'PartOfSpeech'
p2282
S'NNS'
p2283
sS'CharacterOffsetBegin'
p2284
S'398'
p2285
stp2286
a(S'happening'
p2287
(dp2288
S'NamedEntityTag'
p2289
g96
sS'CharacterOffsetEnd'
p2290
S'413'
p2291
sS'Lemma'
p2292
S'happen'
p2293
sS'PartOfSpeech'
p2294
S'VBG'
p2295
sS'CharacterOffsetBegin'
p2296
S'404'
p2297
stp2298
a(S'and'
p2299
(dp2300
S'NamedEntityTag'
p2301
g96
sS'CharacterOffsetEnd'
p2302
S'417'
p2303
sS'Lemma'
p2304
S'and'
p2305
sS'PartOfSpeech'
p2306
S'CC'
p2307
sS'CharacterOffsetBegin'
p2308
S'414'
p2309
stp2310
a(S'the'
p2311
(dp2312
S'NamedEntityTag'
p2313
g96
sS'CharacterOffsetEnd'
p2314
S'421'
p2315
sS'Lemma'
p2316
S'the'
p2317
sS'PartOfSpeech'
p2318
S'DT'
p2319
sS'CharacterOffsetBegin'
p2320
S'418'
p2321
stp2322
a(S'statements'
p2323
(dp2324
S'NamedEntityTag'
p2325
g96
sS'CharacterOffsetEnd'
p2326
S'432'
p2327
sS'Lemma'
p2328
S'statement'
p2329
sS'PartOfSpeech'
p2330
S'NNS'
p2331
sS'CharacterOffsetBegin'
p2332
S'422'
p2333
stp2334
a(S'coming'
p2335
(dp2336
S'NamedEntityTag'
p2337
g96
sS'CharacterOffsetEnd'
p2338
S'439'
p2339
sS'Lemma'
p2340
S'come'
p2341
sS'PartOfSpeech'
p2342
S'VBG'
p2343
sS'CharacterOffsetBegin'
p2344
S'433'
p2345
stp2346
a(S'out'
p2347
(dp2348
S'NamedEntityTag'
p2349
g96
sS'CharacterOffsetEnd'
p2350
S'443'
p2351
sS'Lemma'
p2352
S'out'
p2353
sS'PartOfSpeech'
p2354
S'IN'
p2355
sS'CharacterOffsetBegin'
p2356
S'440'
p2357
stp2358
a(S'of'
p2359
(dp2360
S'NamedEntityTag'
p2361
g96
sS'CharacterOffsetEnd'
p2362
S'446'
p2363
sS'Lemma'
p2364
S'of'
p2365
sS'PartOfSpeech'
p2366
S'IN'
p2367
sS'CharacterOffsetBegin'
p2368
S'444'
p2369
stp2370
a(S'the'
p2371
(dp2372
S'NamedEntityTag'
p2373
g96
sS'CharacterOffsetEnd'
p2374
S'450'
p2375
sS'Lemma'
p2376
S'the'
p2377
sS'PartOfSpeech'
p2378
S'DT'
p2379
sS'CharacterOffsetBegin'
p2380
S'447'
p2381
stp2382
a(S'Philippines'
p2383
(dp2384
S'NamedEntityTag'
p2385
S'LOCATION'
p2386
sS'CharacterOffsetEnd'
p2387
S'462'
p2388
sS'Lemma'
p2389
S'Philippines'
p2390
sS'PartOfSpeech'
p2391
S'NNPS'
p2392
sS'CharacterOffsetBegin'
p2393
S'451'
p2394
stp2395
a(g559
(dp2396
S'NamedEntityTag'
p2397
g96
sS'CharacterOffsetEnd'
p2398
S'463'
p2399
sS'Lemma'
p2400
g559
sS'PartOfSpeech'
p2401
g559
sS'CharacterOffsetBegin'
p2402
S'462'
p2403
stp2404
a(S'Brillantes'
p2405
(dp2406
S'NamedEntityTag'
p2407
S'PERSON'
p2408
sS'CharacterOffsetEnd'
p2409
S'474'
p2410
sS'Lemma'
p2411
S'Brillantes'
p2412
sS'PartOfSpeech'
p2413
S'NNPS'
p2414
sS'CharacterOffsetBegin'
p2415
S'464'
p2416
stp2417
a(S'told'
p2418
(dp2419
S'NamedEntityTag'
p2420
g96
sS'CharacterOffsetEnd'
p2421
S'479'
p2422
sS'Lemma'
p2423
S'tell'
p2424
sS'PartOfSpeech'
p2425
S'VBD'
p2426
sS'CharacterOffsetBegin'
p2427
S'475'
p2428
stp2429
a(S'radio'
p2430
(dp2431
S'NamedEntityTag'
p2432
g96
sS'CharacterOffsetEnd'
p2433
S'485'
p2434
sS'Lemma'
p2435
S'radio'
p2436
sS'PartOfSpeech'
p2437
S'NN'
p2438
sS'CharacterOffsetBegin'
p2439
S'480'
p2440
stp2441
a(S'station'
p2442
(dp2443
S'NamedEntityTag'
p2444
g96
sS'CharacterOffsetEnd'
p2445
S'493'
p2446
sS'Lemma'
p2447
S'station'
p2448
sS'PartOfSpeech'
p2449
S'NN'
p2450
sS'CharacterOffsetBegin'
p2451
S'486'
p2452
stp2453
a(S'DZXL'
p2454
(dp2455
S'NamedEntityTag'
p2456
S'ORGANIZATION'
p2457
sS'CharacterOffsetEnd'
p2458
S'498'
p2459
sS'Lemma'
p2460
S'dzxl'
p2461
sS'PartOfSpeech'
p2462
S'NN'
p2463
sS'CharacterOffsetBegin'
p2464
S'494'
p2465
stp2466
a(S'in'
p2467
(dp2468
S'NamedEntityTag'
p2469
g96
sS'CharacterOffsetEnd'
p2470
S'501'
p2471
sS'Lemma'
p2472
S'in'
p2473
sS'PartOfSpeech'
p2474
S'IN'
p2475
sS'CharacterOffsetBegin'
p2476
S'499'
p2477
stp2478
a(S'Manila'
p2479
(dp2480
S'NamedEntityTag'
p2481
S'LOCATION'
p2482
sS'CharacterOffsetEnd'
p2483
S'508'
p2484
sS'Lemma'
p2485
S'Manila'
p2486
sS'PartOfSpeech'
p2487
S'NNP'
p2488
sS'CharacterOffsetBegin'
p2489
S'502'
p2490
stp2491
a(g400
(dp2492
S'NamedEntityTag'
p2493
g96
sS'CharacterOffsetEnd'
p2494
S'509'
p2495
sS'Lemma'
p2496
g400
sS'PartOfSpeech'
p2497
g400
sS'CharacterOffsetBegin'
p2498
S'508'
p2499
stp2500
asa(dp2501
g7
S'(ROOT (S (NP (NNP Brillantes)) (VP (VBD said) (SBAR (S (NP (PRP he)) (VP (VBD explained) (SBAR (IN that) (S (PP (VBG following) (NP (NP (DT the) (ADJP (NP (CD 1986) (NNS people))) (NN power) (NN revolt)) (PP (IN against) (NP (DT the) (JJ late) (NN dictator) (NNP Ferdinand) (NNP Marcos))))) (, ,) (NP (NNPS Filipinos)) (VP (VBP react) (ADVP (RB strongly)) (PP (TO to) (NP (NP (JJ real)) (CC and) (NP (NP (VBN perceived) (NNS violations)) (PP (IN of) (NP (JJ human) (NNS rights))))))))))))) (. .)))'
p2502
sg9
S'Brillantes said he explained that following the 1986 people power revolt against the late dictator Ferdinand Marcos, Filipinos react strongly to real and perceived violations of human rights.'
p2503
sg11
(lp2504
(S'root'
p2505
S'ROOT'
p2506
S'said'
p2507
tp2508
a(S'nsubj'
p2509
S'said'
p2510
S'Brillantes'
p2511
tp2512
a(S'nsubj'
p2513
S'explained'
p2514
S'he'
p2515
tp2516
a(S'ccomp'
p2517
S'said'
p2518
S'explained'
p2519
tp2520
a(S'mark'
p2521
S'react'
p2522
S'that'
p2523
tp2524
a(S'det'
p2525
S'revolt'
p2526
S'the'
p2527
tp2528
a(S'num'
p2529
S'people'
p2530
S'1986'
p2531
tp2532
a(S'amod'
p2533
S'revolt'
p2534
S'people'
p2535
tp2536
a(S'nn'
p2537
S'revolt'
p2538
S'power'
p2539
tp2540
a(S'prep_following'
p2541
S'react'
p2542
S'revolt'
p2543
tp2544
a(S'det'
p2545
S'Marcos'
p2546
S'the'
p2547
tp2548
a(S'amod'
p2549
S'Marcos'
p2550
S'late'
p2551
tp2552
a(S'nn'
p2553
S'Marcos'
p2554
S'dictator'
p2555
tp2556
a(S'nn'
p2557
S'Marcos'
p2558
S'Ferdinand'
p2559
tp2560
a(S'prep_against'
p2561
S'revolt'
p2562
S'Marcos'
p2563
tp2564
a(S'nsubj'
p2565
S'react'
p2566
S'Filipinos'
p2567
tp2568
a(S'ccomp'
p2569
S'explained'
p2570
S'react'
p2571
tp2572
a(S'advmod'
p2573
S'react'
p2574
S'strongly'
p2575
tp2576
a(S'prep_to'
p2577
S'react'
p2578
S'real'
p2579
tp2580
a(S'amod'
p2581
S'violations'
p2582
S'perceived'
p2583
tp2584
a(S'conj_and'
p2585
S'real'
p2586
S'violations'
p2587
tp2588
a(S'amod'
p2589
S'rights'
p2590
S'human'
p2591
tp2592
a(S'prep_of'
p2593
S'violations'
p2594
S'rights'
p2595
tp2596
asg49
(lp2597
(g2505
S'ROOT-0'
p2598
S'said-2'
p2599
tp2600
a(g2509
S'said-2'
p2601
S'Brillantes-1'
p2602
tp2603
a(g2513
S'explained-4'
p2604
S'he-3'
p2605
tp2606
a(g2517
S'said-2'
p2607
S'explained-4'
p2608
tp2609
a(g2521
S'react-20'
p2610
S'that-5'
p2611
tp2612
a(g2525
S'revolt-11'
p2613
S'the-7'
p2614
tp2615
a(g2529
S'people-9'
p2616
S'1986-8'
p2617
tp2618
a(g2533
S'revolt-11'
p2619
S'people-9'
p2620
tp2621
a(g2537
S'revolt-11'
p2622
S'power-10'
p2623
tp2624
a(g2541
S'react-20'
p2625
S'revolt-11'
p2626
tp2627
a(g2545
S'Marcos-17'
p2628
S'the-13'
p2629
tp2630
a(g2549
S'Marcos-17'
p2631
S'late-14'
p2632
tp2633
a(g2553
S'Marcos-17'
p2634
S'dictator-15'
p2635
tp2636
a(g2557
S'Marcos-17'
p2637
S'Ferdinand-16'
p2638
tp2639
a(g2561
S'revolt-11'
p2640
S'Marcos-17'
p2641
tp2642
a(g2565
S'react-20'
p2643
S'Filipinos-19'
p2644
tp2645
a(g2569
S'explained-4'
p2646
S'react-20'
p2647
tp2648
a(g2573
S'react-20'
p2649
S'strongly-21'
p2650
tp2651
a(g2577
S'react-20'
p2652
S'real-23'
p2653
tp2654
a(g2581
S'violations-26'
p2655
S'perceived-25'
p2656
tp2657
a(g2585
S'real-23'
p2658
S'violations-26'
p2659
tp2660
a(g2589
S'rights-29'
p2661
S'human-28'
p2662
tp2663
a(g2593
S'violations-26'
p2664
S'rights-29'
p2665
tp2666
asg78
(lp2667
(S'Brillantes'
p2668
(dp2669
S'NamedEntityTag'
p2670
S'PERSON'
p2671
sS'CharacterOffsetEnd'
p2672
S'520'
p2673
sS'Lemma'
p2674
S'Brillantes'
p2675
sS'PartOfSpeech'
p2676
S'NNP'
p2677
sS'CharacterOffsetBegin'
p2678
S'510'
p2679
stp2680
a(S'said'
p2681
(dp2682
S'NamedEntityTag'
p2683
g96
sS'CharacterOffsetEnd'
p2684
S'525'
p2685
sS'Lemma'
p2686
S'say'
p2687
sS'PartOfSpeech'
p2688
S'VBD'
p2689
sS'CharacterOffsetBegin'
p2690
S'521'
p2691
stp2692
a(S'he'
p2693
(dp2694
S'NamedEntityTag'
p2695
g96
sS'CharacterOffsetEnd'
p2696
S'528'
p2697
sS'Lemma'
p2698
S'he'
p2699
sS'PartOfSpeech'
p2700
S'PRP'
p2701
sS'CharacterOffsetBegin'
p2702
S'526'
p2703
stp2704
a(S'explained'
p2705
(dp2706
S'NamedEntityTag'
p2707
g96
sS'CharacterOffsetEnd'
p2708
S'538'
p2709
sS'Lemma'
p2710
S'explain'
p2711
sS'PartOfSpeech'
p2712
S'VBD'
p2713
sS'CharacterOffsetBegin'
p2714
S'529'
p2715
stp2716
a(S'that'
p2717
(dp2718
S'NamedEntityTag'
p2719
g96
sS'CharacterOffsetEnd'
p2720
S'543'
p2721
sS'Lemma'
p2722
S'that'
p2723
sS'PartOfSpeech'
p2724
S'IN'
p2725
sS'CharacterOffsetBegin'
p2726
S'539'
p2727
stp2728
a(S'following'
p2729
(dp2730
S'NamedEntityTag'
p2731
g96
sS'CharacterOffsetEnd'
p2732
S'553'
p2733
sS'Lemma'
p2734
S'follow'
p2735
sS'PartOfSpeech'
p2736
S'VBG'
p2737
sS'CharacterOffsetBegin'
p2738
S'544'
p2739
stp2740
a(S'the'
p2741
(dp2742
S'NamedEntityTag'
p2743
g96
sS'CharacterOffsetEnd'
p2744
S'557'
p2745
sS'Lemma'
p2746
S'the'
p2747
sS'PartOfSpeech'
p2748
S'DT'
p2749
sS'CharacterOffsetBegin'
p2750
S'554'
p2751
stp2752
a(S'1986'
p2753
(dp2754
S'NormalizedNamedEntityTag'
p2755
S'1986'
p2756
sS'Lemma'
p2757
S'1986'
p2758
sS'CharacterOffsetEnd'
p2759
S'562'
p2760
sS'PartOfSpeech'
p2761
S'CD'
p2762
sS'CharacterOffsetBegin'
p2763
S'558'
p2764
sS'NamedEntityTag'
p2765
S'DATE'
p2766
stp2767
a(S'people'
p2768
(dp2769
S'NamedEntityTag'
p2770
g96
sS'CharacterOffsetEnd'
p2771
S'569'
p2772
sS'Lemma'
p2773
S'people'
p2774
sS'PartOfSpeech'
p2775
S'NNS'
p2776
sS'CharacterOffsetBegin'
p2777
S'563'
p2778
stp2779
a(S'power'
p2780
(dp2781
S'NamedEntityTag'
p2782
g96
sS'CharacterOffsetEnd'
p2783
S'575'
p2784
sS'Lemma'
p2785
S'power'
p2786
sS'PartOfSpeech'
p2787
S'NN'
p2788
sS'CharacterOffsetBegin'
p2789
S'570'
p2790
stp2791
a(S'revolt'
p2792
(dp2793
S'NamedEntityTag'
p2794
g96
sS'CharacterOffsetEnd'
p2795
S'582'
p2796
sS'Lemma'
p2797
S'revolt'
p2798
sS'PartOfSpeech'
p2799
S'NN'
p2800
sS'CharacterOffsetBegin'
p2801
S'576'
p2802
stp2803
a(S'against'
p2804
(dp2805
S'NamedEntityTag'
p2806
g96
sS'CharacterOffsetEnd'
p2807
S'590'
p2808
sS'Lemma'
p2809
S'against'
p2810
sS'PartOfSpeech'
p2811
S'IN'
p2812
sS'CharacterOffsetBegin'
p2813
S'583'
p2814
stp2815
a(S'the'
p2816
(dp2817
S'NamedEntityTag'
p2818
g96
sS'CharacterOffsetEnd'
p2819
S'594'
p2820
sS'Lemma'
p2821
S'the'
p2822
sS'PartOfSpeech'
p2823
S'DT'
p2824
sS'CharacterOffsetBegin'
p2825
S'591'
p2826
stp2827
a(S'late'
p2828
(dp2829
S'NamedEntityTag'
p2830
g96
sS'CharacterOffsetEnd'
p2831
S'599'
p2832
sS'Lemma'
p2833
S'late'
p2834
sS'PartOfSpeech'
p2835
S'JJ'
p2836
sS'CharacterOffsetBegin'
p2837
S'595'
p2838
stp2839
a(S'dictator'
p2840
(dp2841
S'NamedEntityTag'
p2842
g96
sS'CharacterOffsetEnd'
p2843
S'608'
p2844
sS'Lemma'
p2845
S'dictator'
p2846
sS'PartOfSpeech'
p2847
S'NN'
p2848
sS'CharacterOffsetBegin'
p2849
S'600'
p2850
stp2851
a(S'Ferdinand'
p2852
(dp2853
S'NamedEntityTag'
p2854
S'PERSON'
p2855
sS'CharacterOffsetEnd'
p2856
S'618'
p2857
sS'Lemma'
p2858
S'Ferdinand'
p2859
sS'PartOfSpeech'
p2860
S'NNP'
p2861
sS'CharacterOffsetBegin'
p2862
S'609'
p2863
stp2864
a(S'Marcos'
p2865
(dp2866
S'NamedEntityTag'
p2867
S'PERSON'
p2868
sS'CharacterOffsetEnd'
p2869
S'625'
p2870
sS'Lemma'
p2871
S'Marcos'
p2872
sS'PartOfSpeech'
p2873
S'NNP'
p2874
sS'CharacterOffsetBegin'
p2875
S'619'
p2876
stp2877
a(g559
(dp2878
S'NamedEntityTag'
p2879
g96
sS'CharacterOffsetEnd'
p2880
S'626'
p2881
sS'Lemma'
p2882
g559
sS'PartOfSpeech'
p2883
g559
sS'CharacterOffsetBegin'
p2884
S'625'
p2885
stp2886
a(S'Filipinos'
p2887
(dp2888
S'NamedEntityTag'
p2889
S'MISC'
p2890
sS'CharacterOffsetEnd'
p2891
S'636'
p2892
sS'Lemma'
p2893
S'Filipinos'
p2894
sS'PartOfSpeech'
p2895
S'NNPS'
p2896
sS'CharacterOffsetBegin'
p2897
S'627'
p2898
stp2899
a(S'react'
p2900
(dp2901
S'NamedEntityTag'
p2902
g96
sS'CharacterOffsetEnd'
p2903
S'642'
p2904
sS'Lemma'
p2905
S'react'
p2906
sS'PartOfSpeech'
p2907
S'VBP'
p2908
sS'CharacterOffsetBegin'
p2909
S'637'
p2910
stp2911
a(S'strongly'
p2912
(dp2913
S'NamedEntityTag'
p2914
g96
sS'CharacterOffsetEnd'
p2915
S'651'
p2916
sS'Lemma'
p2917
S'strongly'
p2918
sS'PartOfSpeech'
p2919
S'RB'
p2920
sS'CharacterOffsetBegin'
p2921
S'643'
p2922
stp2923
a(S'to'
p2924
(dp2925
S'NamedEntityTag'
p2926
g96
sS'CharacterOffsetEnd'
p2927
S'654'
p2928
sS'Lemma'
p2929
S'to'
p2930
sS'PartOfSpeech'
p2931
S'TO'
p2932
sS'CharacterOffsetBegin'
p2933
S'652'
p2934
stp2935
a(S'real'
p2936
(dp2937
S'NamedEntityTag'
p2938
g96
sS'CharacterOffsetEnd'
p2939
S'659'
p2940
sS'Lemma'
p2941
S'real'
p2942
sS'PartOfSpeech'
p2943
S'JJ'
p2944
sS'CharacterOffsetBegin'
p2945
S'655'
p2946
stp2947
a(S'and'
p2948
(dp2949
S'NamedEntityTag'
p2950
g96
sS'CharacterOffsetEnd'
p2951
S'663'
p2952
sS'Lemma'
p2953
S'and'
p2954
sS'PartOfSpeech'
p2955
S'CC'
p2956
sS'CharacterOffsetBegin'
p2957
S'660'
p2958
stp2959
a(S'perceived'
p2960
(dp2961
S'NamedEntityTag'
p2962
g96
sS'CharacterOffsetEnd'
p2963
S'673'
p2964
sS'Lemma'
p2965
S'perceive'
p2966
sS'PartOfSpeech'
p2967
S'VBN'
p2968
sS'CharacterOffsetBegin'
p2969
S'664'
p2970
stp2971
a(S'violations'
p2972
(dp2973
S'NamedEntityTag'
p2974
g96
sS'CharacterOffsetEnd'
p2975
S'684'
p2976
sS'Lemma'
p2977
S'violation'
p2978
sS'PartOfSpeech'
p2979
S'NNS'
p2980
sS'CharacterOffsetBegin'
p2981
S'674'
p2982
stp2983
a(S'of'
p2984
(dp2985
S'NamedEntityTag'
p2986
g96
sS'CharacterOffsetEnd'
p2987
S'687'
p2988
sS'Lemma'
p2989
S'of'
p2990
sS'PartOfSpeech'
p2991
S'IN'
p2992
sS'CharacterOffsetBegin'
p2993
S'685'
p2994
stp2995
a(S'human'
p2996
(dp2997
S'NamedEntityTag'
p2998
g96
sS'CharacterOffsetEnd'
p2999
S'693'
p3000
sS'Lemma'
p3001
S'human'
p3002
sS'PartOfSpeech'
p3003
S'JJ'
p3004
sS'CharacterOffsetBegin'
p3005
S'688'
p3006
stp3007
a(S'rights'
p3008
(dp3009
S'NamedEntityTag'
p3010
g96
sS'CharacterOffsetEnd'
p3011
S'700'
p3012
sS'Lemma'
p3013
S'rights'
p3014
sS'PartOfSpeech'
p3015
S'NNS'
p3016
sS'CharacterOffsetBegin'
p3017
S'694'
p3018
stp3019
a(g400
(dp3020
S'NamedEntityTag'
p3021
g96
sS'CharacterOffsetEnd'
p3022
S'701'
p3023
sS'Lemma'
p3024
g400
sS'PartOfSpeech'
p3025
g400
sS'CharacterOffsetBegin'
p3026
S'700'
p3027
stp3028
asa(dp3029
g7
S'(ROOT (S (S (NP (PRP I)) (ADVP (RB just)) (VP (VBD explained) (NP (PRP$ our) (NN culture)) (PP (TO to) (NP (PRP them))))) (, ,) (NP (PRP he)) (VP (VBD said)) (. .)))'
p3030
sg9
S'I just explained our culture to them, he said.'
p3031
sg11
(lp3032
(S'root'
p3033
S'ROOT'
p3034
S'said'
p3035
tp3036
a(S'nsubj'
p3037
S'explained'
p3038
S'I'
p3039
tp3040
a(S'advmod'
p3041
S'explained'
p3042
S'just'
p3043
tp3044
a(S'ccomp'
p3045
S'said'
p3046
S'explained'
p3047
tp3048
a(S'poss'
p3049
S'culture'
p3050
S'our'
p3051
tp3052
a(S'dobj'
p3053
S'explained'
p3054
S'culture'
p3055
tp3056
a(S'prep_to'
p3057
S'explained'
p3058
S'them'
p3059
tp3060
a(S'nsubj'
p3061
S'said'
p3062
S'he'
p3063
tp3064
asg49
(lp3065
(g3033
S'ROOT-0'
p3066
S'said-10'
p3067
tp3068
a(g3037
S'explained-3'
p3069
S'I-1'
p3070
tp3071
a(g3041
S'explained-3'
p3072
S'just-2'
p3073
tp3074
a(g3045
S'said-10'
p3075
S'explained-3'
p3076
tp3077
a(g3049
S'culture-5'
p3078
S'our-4'
p3079
tp3080
a(g3053
S'explained-3'
p3081
S'culture-5'
p3082
tp3083
a(g3057
S'explained-3'
p3084
S'them-7'
p3085
tp3086
a(g3061
S'said-10'
p3087
S'he-9'
p3088
tp3089
asg78
(lp3090
(g3039
(dp3091
S'NamedEntityTag'
p3092
g96
sS'CharacterOffsetEnd'
p3093
S'703'
p3094
sS'Lemma'
p3095
g3039
sS'PartOfSpeech'
p3096
S'PRP'
p3097
sS'CharacterOffsetBegin'
p3098
S'702'
p3099
stp3100
a(S'just'
p3101
(dp3102
S'NamedEntityTag'
p3103
g96
sS'CharacterOffsetEnd'
p3104
S'708'
p3105
sS'Lemma'
p3106
S'just'
p3107
sS'PartOfSpeech'
p3108
S'RB'
p3109
sS'CharacterOffsetBegin'
p3110
S'704'
p3111
stp3112
a(S'explained'
p3113
(dp3114
S'NamedEntityTag'
p3115
g96
sS'CharacterOffsetEnd'
p3116
S'718'
p3117
sS'Lemma'
p3118
S'explain'
p3119
sS'PartOfSpeech'
p3120
S'VBD'
p3121
sS'CharacterOffsetBegin'
p3122
S'709'
p3123
stp3124
a(S'our'
p3125
(dp3126
S'NamedEntityTag'
p3127
g96
sS'CharacterOffsetEnd'
p3128
S'722'
p3129
sS'Lemma'
p3130
S'we'
p3131
sS'PartOfSpeech'
p3132
S'PRP$'
p3133
sS'CharacterOffsetBegin'
p3134
S'719'
p3135
stp3136
a(S'culture'
p3137
(dp3138
S'NamedEntityTag'
p3139
g96
sS'CharacterOffsetEnd'
p3140
S'730'
p3141
sS'Lemma'
p3142
S'culture'
p3143
sS'PartOfSpeech'
p3144
S'NN'
p3145
sS'CharacterOffsetBegin'
p3146
S'723'
p3147
stp3148
a(S'to'
p3149
(dp3150
S'NamedEntityTag'
p3151
g96
sS'CharacterOffsetEnd'
p3152
S'733'
p3153
sS'Lemma'
p3154
S'to'
p3155
sS'PartOfSpeech'
p3156
S'TO'
p3157
sS'CharacterOffsetBegin'
p3158
S'731'
p3159
stp3160
a(S'them'
p3161
(dp3162
S'NamedEntityTag'
p3163
g96
sS'CharacterOffsetEnd'
p3164
S'738'
p3165
sS'Lemma'
p3166
S'they'
p3167
sS'PartOfSpeech'
p3168
S'PRP'
p3169
sS'CharacterOffsetBegin'
p3170
S'734'
p3171
stp3172
a(g559
(dp3173
S'NamedEntityTag'
p3174
g96
sS'CharacterOffsetEnd'
p3175
S'739'
p3176
sS'Lemma'
p3177
g559
sS'PartOfSpeech'
p3178
g559
sS'CharacterOffsetBegin'
p3179
S'738'
p3180
stp3181
a(S'he'
p3182
(dp3183
S'NamedEntityTag'
p3184
g96
sS'CharacterOffsetEnd'
p3185
S'742'
p3186
sS'Lemma'
p3187
S'he'
p3188
sS'PartOfSpeech'
p3189
S'PRP'
p3190
sS'CharacterOffsetBegin'
p3191
S'740'
p3192
stp3193
a(S'said'
p3194
(dp3195
S'NamedEntityTag'
p3196
g96
sS'CharacterOffsetEnd'
p3197
S'747'
p3198
sS'Lemma'
p3199
S'say'
p3200
sS'PartOfSpeech'
p3201
S'VBD'
p3202
sS'CharacterOffsetBegin'
p3203
S'743'
p3204
stp3205
a(g400
(dp3206
S'NamedEntityTag'
p3207
g96
sS'CharacterOffsetEnd'
p3208
S'748'
p3209
sS'Lemma'
p3210
g400
sS'PartOfSpeech'
p3211
g400
sS'CharacterOffsetBegin'
p3212
S'747'
p3213
stp3214
asa(dp3215
g7
S'(ROOT (S (NP (NNP Anwar)) (VP (VBD was) (VP (VP (VBN fired) (PP (IN as) (NP (NP (NN deputy) (NN premier)) (PP (IN in) (NP (NNP September)))))) (CC and) (VP (ADVP (RB later)) (VBN arrested) (, ,) (S (VP (VBG appearing) (PP (IN in) (NP (NP (NN court)) (PP (IN with) (NP (NP (DT a) (JJ black) (NN eye)) (, ,) (NP (NNS bruises)) (CC and) (NP (DT a) (NN neck)))))) (S (VP (VB brace)))))))) (. .)))'
p3216
sg9
S'Anwar was fired as deputy premier in September and later arrested, appearing in court with a black eye, bruises and a neck brace.'
p3217
sg11
(lp3218
(S'root'
p3219
S'ROOT'
p3220
S'fired'
p3221
tp3222
a(S'nsubjpass'
p3223
S'fired'
p3224
S'Anwar'
p3225
tp3226
a(S'auxpass'
p3227
S'fired'
p3228
S'was'
p3229
tp3230
a(S'nn'
p3231
S'premier'
p3232
S'deputy'
p3233
tp3234
a(S'prep_as'
p3235
S'fired'
p3236
S'premier'
p3237
tp3238
a(S'prep_in'
p3239
S'premier'
p3240
S'September'
p3241
tp3242
a(S'advmod'
p3243
S'arrested'
p3244
S'later'
p3245
tp3246
a(S'conj_and'
p3247
S'fired'
p3248
S'arrested'
p3249
tp3250
a(S'xcomp'
p3251
S'arrested'
p3252
S'appearing'
p3253
tp3254
a(S'prep_in'
p3255
S'appearing'
p3256
S'court'
p3257
tp3258
a(S'det'
p3259
S'eye'
p3260
g1587
tp3261
a(S'amod'
p3262
S'eye'
p3263
S'black'
p3264
tp3265
a(S'prep_with'
p3266
S'court'
p3267
S'eye'
p3268
tp3269
a(S'conj_and'
p3270
S'eye'
p3271
S'bruises'
p3272
tp3273
a(S'det'
p3274
S'neck'
p3275
g1587
tp3276
a(S'conj_and'
p3277
S'eye'
p3278
S'neck'
p3279
tp3280
a(S'ccomp'
p3281
S'appearing'
p3282
S'brace'
p3283
tp3284
asg49
(lp3285
(g3219
S'ROOT-0'
p3286
S'fired-3'
p3287
tp3288
a(g3223
S'fired-3'
p3289
S'Anwar-1'
p3290
tp3291
a(g3227
S'fired-3'
p3292
S'was-2'
p3293
tp3294
a(g3231
S'premier-6'
p3295
S'deputy-5'
p3296
tp3297
a(g3235
S'fired-3'
p3298
S'premier-6'
p3299
tp3300
a(g3239
S'premier-6'
p3301
S'September-8'
p3302
tp3303
a(g3243
S'arrested-11'
p3304
S'later-10'
p3305
tp3306
a(g3247
S'fired-3'
p3307
S'arrested-11'
p3308
tp3309
a(g3251
S'arrested-11'
p3310
S'appearing-13'
p3311
tp3312
a(g3255
S'appearing-13'
p3313
S'court-15'
p3314
tp3315
a(g3259
S'eye-19'
p3316
S'a-17'
p3317
tp3318
a(g3262
S'eye-19'
p3319
S'black-18'
p3320
tp3321
a(g3266
S'court-15'
p3322
S'eye-19'
p3323
tp3324
a(g3270
S'eye-19'
p3325
S'bruises-21'
p3326
tp3327
a(g3274
S'neck-24'
p3328
S'a-23'
p3329
tp3330
a(g3277
S'eye-19'
p3331
S'neck-24'
p3332
tp3333
a(g3281
S'appearing-13'
p3334
S'brace-25'
p3335
tp3336
asg78
(lp3337
(S'Anwar'
p3338
(dp3339
S'NamedEntityTag'
p3340
S'PERSON'
p3341
sS'CharacterOffsetEnd'
p3342
S'754'
p3343
sS'Lemma'
p3344
S'Anwar'
p3345
sS'PartOfSpeech'
p3346
S'NNP'
p3347
sS'CharacterOffsetBegin'
p3348
S'749'
p3349
stp3350
a(S'was'
p3351
(dp3352
S'NamedEntityTag'
p3353
g96
sS'CharacterOffsetEnd'
p3354
S'758'
p3355
sS'Lemma'
p3356
S'be'
p3357
sS'PartOfSpeech'
p3358
S'VBD'
p3359
sS'CharacterOffsetBegin'
p3360
S'755'
p3361
stp3362
a(S'fired'
p3363
(dp3364
S'NamedEntityTag'
p3365
g96
sS'CharacterOffsetEnd'
p3366
S'764'
p3367
sS'Lemma'
p3368
S'fire'
p3369
sS'PartOfSpeech'
p3370
S'VBN'
p3371
sS'CharacterOffsetBegin'
p3372
S'759'
p3373
stp3374
a(S'as'
p3375
(dp3376
S'NamedEntityTag'
p3377
g96
sS'CharacterOffsetEnd'
p3378
S'767'
p3379
sS'Lemma'
p3380
S'as'
p3381
sS'PartOfSpeech'
p3382
S'IN'
p3383
sS'CharacterOffsetBegin'
p3384
S'765'
p3385
stp3386
a(S'deputy'
p3387
(dp3388
S'NamedEntityTag'
p3389
g96
sS'CharacterOffsetEnd'
p3390
S'774'
p3391
sS'Lemma'
p3392
S'deputy'
p3393
sS'PartOfSpeech'
p3394
S'NN'
p3395
sS'CharacterOffsetBegin'
p3396
S'768'
p3397
stp3398
a(S'premier'
p3399
(dp3400
S'NamedEntityTag'
p3401
g96
sS'CharacterOffsetEnd'
p3402
S'782'
p3403
sS'Lemma'
p3404
S'premier'
p3405
sS'PartOfSpeech'
p3406
S'NN'
p3407
sS'CharacterOffsetBegin'
p3408
S'775'
p3409
stp3410
a(S'in'
p3411
(dp3412
S'NamedEntityTag'
p3413
g96
sS'CharacterOffsetEnd'
p3414
S'785'
p3415
sS'Lemma'
p3416
S'in'
p3417
sS'PartOfSpeech'
p3418
S'IN'
p3419
sS'CharacterOffsetBegin'
p3420
S'783'
p3421
stp3422
a(S'September'
p3423
(dp3424
S'NormalizedNamedEntityTag'
p3425
S'XXXX-09'
p3426
sS'Timex'
p3427
S'<TIMEX3 tid="t3" type="DATE" value="XXXX-09">September</TIMEX3>'
p3428
sS'Lemma'
p3429
S'September'
p3430
sS'CharacterOffsetEnd'
p3431
S'795'
p3432
sS'PartOfSpeech'
p3433
S'NNP'
p3434
sS'CharacterOffsetBegin'
p3435
S'786'
p3436
sS'NamedEntityTag'
p3437
S'DATE'
p3438
stp3439
a(S'and'
p3440
(dp3441
S'NamedEntityTag'
p3442
g96
sS'CharacterOffsetEnd'
p3443
S'799'
p3444
sS'Lemma'
p3445
S'and'
p3446
sS'PartOfSpeech'
p3447
S'CC'
p3448
sS'CharacterOffsetBegin'
p3449
S'796'
p3450
stp3451
a(S'later'
p3452
(dp3453
S'NamedEntityTag'
p3454
g96
sS'CharacterOffsetEnd'
p3455
S'805'
p3456
sS'Lemma'
p3457
S'later'
p3458
sS'PartOfSpeech'
p3459
S'RB'
p3460
sS'CharacterOffsetBegin'
p3461
S'800'
p3462
stp3463
a(S'arrested'
p3464
(dp3465
S'NamedEntityTag'
p3466
g96
sS'CharacterOffsetEnd'
p3467
S'814'
p3468
sS'Lemma'
p3469
S'arrest'
p3470
sS'PartOfSpeech'
p3471
S'VBN'
p3472
sS'CharacterOffsetBegin'
p3473
S'806'
p3474
stp3475
a(g559
(dp3476
S'NamedEntityTag'
p3477
g96
sS'CharacterOffsetEnd'
p3478
S'815'
p3479
sS'Lemma'
p3480
g559
sS'PartOfSpeech'
p3481
g559
sS'CharacterOffsetBegin'
p3482
S'814'
p3483
stp3484
a(S'appearing'
p3485
(dp3486
S'NamedEntityTag'
p3487
g96
sS'CharacterOffsetEnd'
p3488
S'825'
p3489
sS'Lemma'
p3490
S'appear'
p3491
sS'PartOfSpeech'
p3492
S'VBG'
p3493
sS'CharacterOffsetBegin'
p3494
S'816'
p3495
stp3496
a(S'in'
p3497
(dp3498
S'NamedEntityTag'
p3499
g96
sS'CharacterOffsetEnd'
p3500
S'828'
p3501
sS'Lemma'
p3502
S'in'
p3503
sS'PartOfSpeech'
p3504
S'IN'
p3505
sS'CharacterOffsetBegin'
p3506
S'826'
p3507
stp3508
a(S'court'
p3509
(dp3510
S'NamedEntityTag'
p3511
g96
sS'CharacterOffsetEnd'
p3512
S'834'
p3513
sS'Lemma'
p3514
S'court'
p3515
sS'PartOfSpeech'
p3516
S'NN'
p3517
sS'CharacterOffsetBegin'
p3518
S'829'
p3519
stp3520
a(S'with'
p3521
(dp3522
S'NamedEntityTag'
p3523
g96
sS'CharacterOffsetEnd'
p3524
S'839'
p3525
sS'Lemma'
p3526
S'with'
p3527
sS'PartOfSpeech'
p3528
S'IN'
p3529
sS'CharacterOffsetBegin'
p3530
S'835'
p3531
stp3532
a(g1587
(dp3533
S'NamedEntityTag'
p3534
g96
sS'CharacterOffsetEnd'
p3535
S'841'
p3536
sS'Lemma'
p3537
g1587
sS'PartOfSpeech'
p3538
S'DT'
p3539
sS'CharacterOffsetBegin'
p3540
S'840'
p3541
stp3542
a(S'black'
p3543
(dp3544
S'NamedEntityTag'
p3545
g96
sS'CharacterOffsetEnd'
p3546
S'847'
p3547
sS'Lemma'
p3548
S'black'
p3549
sS'PartOfSpeech'
p3550
S'JJ'
p3551
sS'CharacterOffsetBegin'
p3552
S'842'
p3553
stp3554
a(S'eye'
p3555
(dp3556
S'NamedEntityTag'
p3557
g96
sS'CharacterOffsetEnd'
p3558
S'851'
p3559
sS'Lemma'
p3560
S'eye'
p3561
sS'PartOfSpeech'
p3562
S'NN'
p3563
sS'CharacterOffsetBegin'
p3564
S'848'
p3565
stp3566
a(g559
(dp3567
S'NamedEntityTag'
p3568
g96
sS'CharacterOffsetEnd'
p3569
S'852'
p3570
sS'Lemma'
p3571
g559
sS'PartOfSpeech'
p3572
g559
sS'CharacterOffsetBegin'
p3573
S'851'
p3574
stp3575
a(S'bruises'
p3576
(dp3577
S'NamedEntityTag'
p3578
g96
sS'CharacterOffsetEnd'
p3579
S'860'
p3580
sS'Lemma'
p3581
S'bruise'
p3582
sS'PartOfSpeech'
p3583
S'NNS'
p3584
sS'CharacterOffsetBegin'
p3585
S'853'
p3586
stp3587
a(S'and'
p3588
(dp3589
S'NamedEntityTag'
p3590
g96
sS'CharacterOffsetEnd'
p3591
S'864'
p3592
sS'Lemma'
p3593
S'and'
p3594
sS'PartOfSpeech'
p3595
S'CC'
p3596
sS'CharacterOffsetBegin'
p3597
S'861'
p3598
stp3599
a(g1587
(dp3600
S'NamedEntityTag'
p3601
g96
sS'CharacterOffsetEnd'
p3602
S'866'
p3603
sS'Lemma'
p3604
g1587
sS'PartOfSpeech'
p3605
S'DT'
p3606
sS'CharacterOffsetBegin'
p3607
S'865'
p3608
stp3609
a(S'neck'
p3610
(dp3611
S'NamedEntityTag'
p3612
g96
sS'CharacterOffsetEnd'
p3613
S'871'
p3614
sS'Lemma'
p3615
S'neck'
p3616
sS'PartOfSpeech'
p3617
S'NN'
p3618
sS'CharacterOffsetBegin'
p3619
S'867'
p3620
stp3621
a(S'brace'
p3622
(dp3623
S'NamedEntityTag'
p3624
g96
sS'CharacterOffsetEnd'
p3625
S'877'
p3626
sS'Lemma'
p3627
S'brace'
p3628
sS'PartOfSpeech'
p3629
S'VB'
p3630
sS'CharacterOffsetBegin'
p3631
S'872'
p3632
stp3633
a(g400
(dp3634
S'NamedEntityTag'
p3635
g96
sS'CharacterOffsetEnd'
p3636
S'878'
p3637
sS'Lemma'
p3638
g400
sS'PartOfSpeech'
p3639
g400
sS'CharacterOffsetBegin'
p3640
S'877'
p3641
stp3642
asa(dp3643
g7
S'(ROOT (S (NP (PRP He)) (VP (VBZ says) (SBAR (S (NP (PRP he)) (VP (VBD was) (VP (VBN beaten) (PP (IN by) (NP (NN security) (NNS guards)))))))) (. .)))'
p3644
sg9
S'He says he was beaten by security guards.'
p3645
sg11
(lp3646
(S'root'
p3647
S'ROOT'
p3648
S'says'
p3649
tp3650
a(S'nsubj'
p3651
S'says'
p3652
S'He'
p3653
tp3654
a(S'nsubjpass'
p3655
S'beaten'
p3656
S'he'
p3657
tp3658
a(S'auxpass'
p3659
S'beaten'
p3660
S'was'
p3661
tp3662
a(S'ccomp'
p3663
S'says'
p3664
S'beaten'
p3665
tp3666
a(S'nn'
p3667
S'guards'
p3668
S'security'
p3669
tp3670
a(S'agent'
p3671
S'beaten'
p3672
S'guards'
p3673
tp3674
asg49
(lp3675
(g3647
S'ROOT-0'
p3676
S'says-2'
p3677
tp3678
a(g3651
S'says-2'
p3679
S'He-1'
p3680
tp3681
a(g3655
S'beaten-5'
p3682
S'he-3'
p3683
tp3684
a(g3659
S'beaten-5'
p3685
S'was-4'
p3686
tp3687
a(g3663
S'says-2'
p3688
S'beaten-5'
p3689
tp3690
a(g3667
S'guards-8'
p3691
S'security-7'
p3692
tp3693
a(g3671
S'beaten-5'
p3694
S'guards-8'
p3695
tp3696
asg78
(lp3697
(S'He'
p3698
(dp3699
S'NamedEntityTag'
p3700
g96
sS'CharacterOffsetEnd'
p3701
S'881'
p3702
sS'Lemma'
p3703
S'he'
p3704
sS'PartOfSpeech'
p3705
S'PRP'
p3706
sS'CharacterOffsetBegin'
p3707
S'879'
p3708
stp3709
a(S'says'
p3710
(dp3711
S'NamedEntityTag'
p3712
g96
sS'CharacterOffsetEnd'
p3713
S'886'
p3714
sS'Lemma'
p3715
S'say'
p3716
sS'PartOfSpeech'
p3717
S'VBZ'
p3718
sS'CharacterOffsetBegin'
p3719
S'882'
p3720
stp3721
a(S'he'
p3722
(dp3723
S'NamedEntityTag'
p3724
g96
sS'CharacterOffsetEnd'
p3725
S'889'
p3726
sS'Lemma'
p3727
S'he'
p3728
sS'PartOfSpeech'
p3729
S'PRP'
p3730
sS'CharacterOffsetBegin'
p3731
S'887'
p3732
stp3733
a(S'was'
p3734
(dp3735
S'NamedEntityTag'
p3736
g96
sS'CharacterOffsetEnd'
p3737
S'893'
p3738
sS'Lemma'
p3739
S'be'
p3740
sS'PartOfSpeech'
p3741
S'VBD'
p3742
sS'CharacterOffsetBegin'
p3743
S'890'
p3744
stp3745
a(S'beaten'
p3746
(dp3747
S'NamedEntityTag'
p3748
g96
sS'CharacterOffsetEnd'
p3749
S'900'
p3750
sS'Lemma'
p3751
S'beat'
p3752
sS'PartOfSpeech'
p3753
S'VBN'
p3754
sS'CharacterOffsetBegin'
p3755
S'894'
p3756
stp3757
a(S'by'
p3758
(dp3759
S'NamedEntityTag'
p3760
g96
sS'CharacterOffsetEnd'
p3761
S'903'
p3762
sS'Lemma'
p3763
S'by'
p3764
sS'PartOfSpeech'
p3765
S'IN'
p3766
sS'CharacterOffsetBegin'
p3767
S'901'
p3768
stp3769
a(S'security'
p3770
(dp3771
S'NamedEntityTag'
p3772
g96
sS'CharacterOffsetEnd'
p3773
S'912'
p3774
sS'Lemma'
p3775
S'security'
p3776
sS'PartOfSpeech'
p3777
S'NN'
p3778
sS'CharacterOffsetBegin'
p3779
S'904'
p3780
stp3781
a(S'guards'
p3782
(dp3783
S'NamedEntityTag'
p3784
g96
sS'CharacterOffsetEnd'
p3785
S'919'
p3786
sS'Lemma'
p3787
S'guard'
p3788
sS'PartOfSpeech'
p3789
S'NNS'
p3790
sS'CharacterOffsetBegin'
p3791
S'913'
p3792
stp3793
a(g400
(dp3794
S'NamedEntityTag'
p3795
g96
sS'CharacterOffsetEnd'
p3796
S'920'
p3797
sS'Lemma'
p3798
g400
sS'PartOfSpeech'
p3799
g400
sS'CharacterOffsetBegin'
p3800
S'919'
p3801
stp3802
asa(dp3803
g7
S'(ROOT (S (NP (NNP Estrada)) (VP (VBZ has) (VP (VBN expressed) (NP (NN support)) (PP (IN for) (NP (NP (NNP Anwar)) (, ,) (SBAR (WHNP (WP whom)) (S (NP (PRP he)) (VP (VP (VBZ considers) (NP (DT a) (JJ personal) (NN friend))) (, ,) (CC and) (VP (VBD indicated) (SBAR (S (NP (PRP he)) (VP (MD may) (RB not) (VP (VB attend) (NP (NP (DT a) (NN summit)) (PP (IN of) (NP (NNP Asia) (NNP Pacific) (NNP Rim) (NNS nations))) (PP (IN in) (NP (NNP Malaysia)))) (NP-TMP (JJ next) (NN month)))))))))))))) (. .)))'
p3804
sg9
S'Estrada has expressed support for Anwar, whom he considers a personal friend, and indicated he may not attend a summit of Asia Pacific Rim nations in Malaysia next month.'
p3805
sg11
(lp3806
(S'root'
p3807
S'ROOT'
p3808
S'expressed'
p3809
tp3810
a(S'nsubj'
p3811
S'expressed'
p3812
S'Estrada'
p3813
tp3814
a(S'aux'
p3815
S'expressed'
p3816
S'has'
p3817
tp3818
a(S'dobj'
p3819
S'expressed'
p3820
S'support'
p3821
tp3822
a(S'prep_for'
p3823
S'expressed'
p3824
S'Anwar'
p3825
tp3826
a(S'dobj'
p3827
S'considers'
p3828
S'whom'
p3829
tp3830
a(S'nsubj'
p3831
S'considers'
p3832
S'he'
p3833
tp3834
a(S'rcmod'
p3835
S'Anwar'
p3836
S'considers'
p3837
tp3838
a(S'det'
p3839
S'friend'
p3840
g1587
tp3841
a(S'amod'
p3842
S'friend'
p3843
S'personal'
p3844
tp3845
a(S'dobj'
p3846
S'considers'
p3847
S'friend'
p3848
tp3849
a(S'conj_and'
p3850
S'considers'
p3851
S'indicated'
p3852
tp3853
a(S'nsubj'
p3854
S'attend'
p3855
S'he'
p3856
tp3857
a(S'aux'
p3858
S'attend'
p3859
S'may'
p3860
tp3861
a(S'neg'
p3862
S'attend'
p3863
S'not'
p3864
tp3865
a(S'ccomp'
p3866
S'indicated'
p3867
S'attend'
p3868
tp3869
a(S'det'
p3870
S'summit'
p3871
g1587
tp3872
a(S'dobj'
p3873
S'attend'
p3874
S'summit'
p3875
tp3876
a(S'nn'
p3877
S'nations'
p3878
S'Asia'
p3879
tp3880
a(S'nn'
p3881
S'nations'
p3882
S'Pacific'
p3883
tp3884
a(S'nn'
p3885
S'nations'
p3886
S'Rim'
p3887
tp3888
a(S'prep_of'
p3889
S'summit'
p3890
S'nations'
p3891
tp3892
a(S'prep_in'
p3893
S'summit'
p3894
S'Malaysia'
p3895
tp3896
a(S'amod'
p3897
S'month'
p3898
S'next'
p3899
tp3900
a(S'tmod'
p3901
S'attend'
p3902
S'month'
p3903
tp3904
asg49
(lp3905
(g3807
S'ROOT-0'
p3906
S'expressed-3'
p3907
tp3908
a(g3811
S'expressed-3'
p3909
S'Estrada-1'
p3910
tp3911
a(g3815
S'expressed-3'
p3912
S'has-2'
p3913
tp3914
a(g3819
S'expressed-3'
p3915
S'support-4'
p3916
tp3917
a(g3823
S'expressed-3'
p3918
S'Anwar-6'
p3919
tp3920
a(g3827
S'considers-10'
p3921
S'whom-8'
p3922
tp3923
a(g3831
S'considers-10'
p3924
S'he-9'
p3925
tp3926
a(g3835
S'Anwar-6'
p3927
S'considers-10'
p3928
tp3929
a(g3839
S'friend-13'
p3930
S'a-11'
p3931
tp3932
a(g3842
S'friend-13'
p3933
S'personal-12'
p3934
tp3935
a(g3846
S'considers-10'
p3936
S'friend-13'
p3937
tp3938
a(g3850
S'considers-10'
p3939
S'indicated-16'
p3940
tp3941
a(g3854
S'attend-20'
p3942
S'he-17'
p3943
tp3944
a(g3858
S'attend-20'
p3945
S'may-18'
p3946
tp3947
a(g3862
S'attend-20'
p3948
S'not-19'
p3949
tp3950
a(g3866
S'indicated-16'
p3951
S'attend-20'
p3952
tp3953
a(g3870
S'summit-22'
p3954
S'a-21'
p3955
tp3956
a(g3873
S'attend-20'
p3957
S'summit-22'
p3958
tp3959
a(g3877
S'nations-27'
p3960
S'Asia-24'
p3961
tp3962
a(g3881
S'nations-27'
p3963
S'Pacific-25'
p3964
tp3965
a(g3885
S'nations-27'
p3966
S'Rim-26'
p3967
tp3968
a(g3889
S'summit-22'
p3969
S'nations-27'
p3970
tp3971
a(g3893
S'summit-22'
p3972
S'Malaysia-29'
p3973
tp3974
a(g3897
S'month-31'
p3975
S'next-30'
p3976
tp3977
a(g3901
S'attend-20'
p3978
S'month-31'
p3979
tp3980
asg78
(lp3981
(S'Estrada'
p3982
(dp3983
S'NamedEntityTag'
p3984
S'PERSON'
p3985
sS'CharacterOffsetEnd'
p3986
S'928'
p3987
sS'Lemma'
p3988
S'Estrada'
p3989
sS'PartOfSpeech'
p3990
S'NNP'
p3991
sS'CharacterOffsetBegin'
p3992
S'921'
p3993
stp3994
a(S'has'
p3995
(dp3996
S'NamedEntityTag'
p3997
g96
sS'CharacterOffsetEnd'
p3998
S'932'
p3999
sS'Lemma'
p4000
S'have'
p4001
sS'PartOfSpeech'
p4002
S'VBZ'
p4003
sS'CharacterOffsetBegin'
p4004
S'929'
p4005
stp4006
a(S'expressed'
p4007
(dp4008
S'NamedEntityTag'
p4009
g96
sS'CharacterOffsetEnd'
p4010
S'942'
p4011
sS'Lemma'
p4012
S'express'
p4013
sS'PartOfSpeech'
p4014
S'VBN'
p4015
sS'CharacterOffsetBegin'
p4016
S'933'
p4017
stp4018
a(S'support'
p4019
(dp4020
S'NamedEntityTag'
p4021
g96
sS'CharacterOffsetEnd'
p4022
S'950'
p4023
sS'Lemma'
p4024
S'support'
p4025
sS'PartOfSpeech'
p4026
S'NN'
p4027
sS'CharacterOffsetBegin'
p4028
S'943'
p4029
stp4030
a(S'for'
p4031
(dp4032
S'NamedEntityTag'
p4033
g96
sS'CharacterOffsetEnd'
p4034
S'954'
p4035
sS'Lemma'
p4036
S'for'
p4037
sS'PartOfSpeech'
p4038
S'IN'
p4039
sS'CharacterOffsetBegin'
p4040
S'951'
p4041
stp4042
a(S'Anwar'
p4043
(dp4044
S'NamedEntityTag'
p4045
S'PERSON'
p4046
sS'CharacterOffsetEnd'
p4047
S'960'
p4048
sS'Lemma'
p4049
S'Anwar'
p4050
sS'PartOfSpeech'
p4051
S'NNP'
p4052
sS'CharacterOffsetBegin'
p4053
S'955'
p4054
stp4055
a(g559
(dp4056
S'NamedEntityTag'
p4057
g96
sS'CharacterOffsetEnd'
p4058
S'961'
p4059
sS'Lemma'
p4060
g559
sS'PartOfSpeech'
p4061
g559
sS'CharacterOffsetBegin'
p4062
S'960'
p4063
stp4064
a(S'whom'
p4065
(dp4066
S'NamedEntityTag'
p4067
g96
sS'CharacterOffsetEnd'
p4068
S'966'
p4069
sS'Lemma'
p4070
S'whom'
p4071
sS'PartOfSpeech'
p4072
S'WP'
p4073
sS'CharacterOffsetBegin'
p4074
S'962'
p4075
stp4076
a(S'he'
p4077
(dp4078
S'NamedEntityTag'
p4079
g96
sS'CharacterOffsetEnd'
p4080
S'969'
p4081
sS'Lemma'
p4082
S'he'
p4083
sS'PartOfSpeech'
p4084
S'PRP'
p4085
sS'CharacterOffsetBegin'
p4086
S'967'
p4087
stp4088
a(S'considers'
p4089
(dp4090
S'NamedEntityTag'
p4091
g96
sS'CharacterOffsetEnd'
p4092
S'979'
p4093
sS'Lemma'
p4094
S'consider'
p4095
sS'PartOfSpeech'
p4096
S'VBZ'
p4097
sS'CharacterOffsetBegin'
p4098
S'970'
p4099
stp4100
a(g1587
(dp4101
S'NamedEntityTag'
p4102
g96
sS'CharacterOffsetEnd'
p4103
S'981'
p4104
sS'Lemma'
p4105
g1587
sS'PartOfSpeech'
p4106
S'DT'
p4107
sS'CharacterOffsetBegin'
p4108
S'980'
p4109
stp4110
a(S'personal'
p4111
(dp4112
S'NamedEntityTag'
p4113
g96
sS'CharacterOffsetEnd'
p4114
S'990'
p4115
sS'Lemma'
p4116
S'personal'
p4117
sS'PartOfSpeech'
p4118
S'JJ'
p4119
sS'CharacterOffsetBegin'
p4120
S'982'
p4121
stp4122
a(S'friend'
p4123
(dp4124
S'NamedEntityTag'
p4125
g96
sS'CharacterOffsetEnd'
p4126
S'997'
p4127
sS'Lemma'
p4128
S'friend'
p4129
sS'PartOfSpeech'
p4130
S'NN'
p4131
sS'CharacterOffsetBegin'
p4132
S'991'
p4133
stp4134
a(g559
(dp4135
S'NamedEntityTag'
p4136
g96
sS'CharacterOffsetEnd'
p4137
S'998'
p4138
sS'Lemma'
p4139
g559
sS'PartOfSpeech'
p4140
g559
sS'CharacterOffsetBegin'
p4141
S'997'
p4142
stp4143
a(S'and'
p4144
(dp4145
S'NamedEntityTag'
p4146
g96
sS'CharacterOffsetEnd'
p4147
S'1002'
p4148
sS'Lemma'
p4149
S'and'
p4150
sS'PartOfSpeech'
p4151
S'CC'
p4152
sS'CharacterOffsetBegin'
p4153
S'999'
p4154
stp4155
a(S'indicated'
p4156
(dp4157
S'NamedEntityTag'
p4158
g96
sS'CharacterOffsetEnd'
p4159
S'1012'
p4160
sS'Lemma'
p4161
S'indicate'
p4162
sS'PartOfSpeech'
p4163
S'VBD'
p4164
sS'CharacterOffsetBegin'
p4165
S'1003'
p4166
stp4167
a(S'he'
p4168
(dp4169
S'NamedEntityTag'
p4170
g96
sS'CharacterOffsetEnd'
p4171
S'1015'
p4172
sS'Lemma'
p4173
S'he'
p4174
sS'PartOfSpeech'
p4175
S'PRP'
p4176
sS'CharacterOffsetBegin'
p4177
S'1013'
p4178
stp4179
a(S'may'
p4180
(dp4181
S'NamedEntityTag'
p4182
g96
sS'CharacterOffsetEnd'
p4183
S'1019'
p4184
sS'Lemma'
p4185
S'may'
p4186
sS'PartOfSpeech'
p4187
S'MD'
p4188
sS'CharacterOffsetBegin'
p4189
S'1016'
p4190
stp4191
a(S'not'
p4192
(dp4193
S'NamedEntityTag'
p4194
g96
sS'CharacterOffsetEnd'
p4195
S'1023'
p4196
sS'Lemma'
p4197
S'not'
p4198
sS'PartOfSpeech'
p4199
S'RB'
p4200
sS'CharacterOffsetBegin'
p4201
S'1020'
p4202
stp4203
a(S'attend'
p4204
(dp4205
S'NamedEntityTag'
p4206
g96
sS'CharacterOffsetEnd'
p4207
S'1030'
p4208
sS'Lemma'
p4209
S'attend'
p4210
sS'PartOfSpeech'
p4211
S'VB'
p4212
sS'CharacterOffsetBegin'
p4213
S'1024'
p4214
stp4215
a(g1587
(dp4216
S'NamedEntityTag'
p4217
g96
sS'CharacterOffsetEnd'
p4218
S'1032'
p4219
sS'Lemma'
p4220
g1587
sS'PartOfSpeech'
p4221
S'DT'
p4222
sS'CharacterOffsetBegin'
p4223
S'1031'
p4224
stp4225
a(S'summit'
p4226
(dp4227
S'NamedEntityTag'
p4228
g96
sS'CharacterOffsetEnd'
p4229
S'1039'
p4230
sS'Lemma'
p4231
S'summit'
p4232
sS'PartOfSpeech'
p4233
S'NN'
p4234
sS'CharacterOffsetBegin'
p4235
S'1033'
p4236
stp4237
a(S'of'
p4238
(dp4239
S'NamedEntityTag'
p4240
g96
sS'CharacterOffsetEnd'
p4241
S'1042'
p4242
sS'Lemma'
p4243
S'of'
p4244
sS'PartOfSpeech'
p4245
S'IN'
p4246
sS'CharacterOffsetBegin'
p4247
S'1040'
p4248
stp4249
a(S'Asia'
p4250
(dp4251
S'NamedEntityTag'
p4252
S'LOCATION'
p4253
sS'CharacterOffsetEnd'
p4254
S'1047'
p4255
sS'Lemma'
p4256
S'Asia'
p4257
sS'PartOfSpeech'
p4258
S'NNP'
p4259
sS'CharacterOffsetBegin'
p4260
S'1043'
p4261
stp4262
a(S'Pacific'
p4263
(dp4264
S'NamedEntityTag'
p4265
S'LOCATION'
p4266
sS'CharacterOffsetEnd'
p4267
S'1055'
p4268
sS'Lemma'
p4269
S'Pacific'
p4270
sS'PartOfSpeech'
p4271
S'NNP'
p4272
sS'CharacterOffsetBegin'
p4273
S'1048'
p4274
stp4275
a(S'Rim'
p4276
(dp4277
S'NamedEntityTag'
p4278
S'LOCATION'
p4279
sS'CharacterOffsetEnd'
p4280
S'1059'
p4281
sS'Lemma'
p4282
S'Rim'
p4283
sS'PartOfSpeech'
p4284
S'NNP'
p4285
sS'CharacterOffsetBegin'
p4286
S'1056'
p4287
stp4288
a(S'nations'
p4289
(dp4290
S'NamedEntityTag'
p4291
g96
sS'CharacterOffsetEnd'
p4292
S'1067'
p4293
sS'Lemma'
p4294
S'nation'
p4295
sS'PartOfSpeech'
p4296
S'NNS'
p4297
sS'CharacterOffsetBegin'
p4298
S'1060'
p4299
stp4300
a(S'in'
p4301
(dp4302
S'NamedEntityTag'
p4303
g96
sS'CharacterOffsetEnd'
p4304
S'1070'
p4305
sS'Lemma'
p4306
S'in'
p4307
sS'PartOfSpeech'
p4308
S'IN'
p4309
sS'CharacterOffsetBegin'
p4310
S'1068'
p4311
stp4312
a(S'Malaysia'
p4313
(dp4314
S'NamedEntityTag'
p4315
S'LOCATION'
p4316
sS'CharacterOffsetEnd'
p4317
S'1079'
p4318
sS'Lemma'
p4319
S'Malaysia'
p4320
sS'PartOfSpeech'
p4321
S'NNP'
p4322
sS'CharacterOffsetBegin'
p4323
S'1071'
p4324
stp4325
a(S'next'
p4326
(dp4327
S'NormalizedNamedEntityTag'
p4328
S'THIS'
p4329
sS'Timex'
p4330
S'<TIMEX3 alt_value="THIS P1M OFFSET P1M" anchorTimeID="t5" temporalFunction="true" tid="t4" type="DATE" valueFromFunction="tf0">next month</TIMEX3>'
p4331
sS'Lemma'
p4332
S'next'
p4333
sS'CharacterOffsetEnd'
p4334
S'1084'
p4335
sS'PartOfSpeech'
p4336
S'JJ'
p4337
sS'CharacterOffsetBegin'
p4338
S'1080'
p4339
sS'NamedEntityTag'
p4340
S'DATE'
p4341
stp4342
a(S'month'
p4343
(dp4344
S'NormalizedNamedEntityTag'
p4345
S'THIS'
p4346
sS'Timex'
p4347
S'<TIMEX3 alt_value="THIS P1M OFFSET P1M" anchorTimeID="t5" temporalFunction="true" tid="t4" type="DATE" valueFromFunction="tf0">next month</TIMEX3>'
p4348
sS'Lemma'
p4349
S'month'
p4350
sS'CharacterOffsetEnd'
p4351
S'1090'
p4352
sS'PartOfSpeech'
p4353
S'NN'
p4354
sS'CharacterOffsetBegin'
p4355
S'1085'
p4356
sS'NamedEntityTag'
p4357
S'DATE'
p4358
stp4359
a(g400
(dp4360
S'NamedEntityTag'
p4361
g96
sS'CharacterOffsetEnd'
p4362
S'1091'
p4363
sS'Lemma'
p4364
g400
sS'PartOfSpeech'
p4365
g400
sS'CharacterOffsetBegin'
p4366
S'1090'
p4367
stp4368
asa(dp4369
g7
S'(ROOT (S (NP (PRP He)) (VP (VBZ has) (ADVP (RB also)) (VP (VBD said) (SBAR (S (NP (NNP Anwar)) (VP (MD should) (VP (VB be) (VP (VBN held) (PP (IN in) (NP (NN house) (NN arrest))) (PP (IN during) (NP (NP (PRP$ his) (JJ upcoming) (NN trial)) (PP (IN on) (NP (NP (NN corruption) (CC and) (JJ sexual)) (NN misconduct) (NNS charges)))))))))))) (. .)))'
p4370
sg9
S'He has also said Anwar should be held in house arrest during his upcoming trial on corruption and sexual misconduct charges.'
p4371
sg11
(lp4372
(S'root'
p4373
S'ROOT'
p4374
S'said'
p4375
tp4376
a(S'nsubj'
p4377
S'said'
p4378
S'He'
p4379
tp4380
a(S'aux'
p4381
S'said'
p4382
S'has'
p4383
tp4384
a(S'advmod'
p4385
S'said'
p4386
S'also'
p4387
tp4388
a(S'nsubjpass'
p4389
S'held'
p4390
S'Anwar'
p4391
tp4392
a(S'aux'
p4393
S'held'
p4394
S'should'
p4395
tp4396
a(S'auxpass'
p4397
S'held'
p4398
S'be'
p4399
tp4400
a(S'ccomp'
p4401
S'said'
p4402
S'held'
p4403
tp4404
a(S'nn'
p4405
S'arrest'
p4406
S'house'
p4407
tp4408
a(S'prep_in'
p4409
S'held'
p4410
S'arrest'
p4411
tp4412
a(S'poss'
p4413
S'trial'
p4414
S'his'
p4415
tp4416
a(S'amod'
p4417
S'trial'
p4418
S'upcoming'
p4419
tp4420
a(S'prep_during'
p4421
S'held'
p4422
S'trial'
p4423
tp4424
a(S'nn'
p4425
S'charges'
p4426
S'corruption'
p4427
tp4428
a(S'conj_and'
p4429
S'corruption'
p4430
S'sexual'
p4431
tp4432
a(S'nn'
p4433
S'charges'
p4434
S'misconduct'
p4435
tp4436
a(S'prep_on'
p4437
S'trial'
p4438
S'charges'
p4439
tp4440
asg49
(lp4441
(g4373
S'ROOT-0'
p4442
S'said-4'
p4443
tp4444
a(g4377
S'said-4'
p4445
S'He-1'
p4446
tp4447
a(g4381
S'said-4'
p4448
S'has-2'
p4449
tp4450
a(g4385
S'said-4'
p4451
S'also-3'
p4452
tp4453
a(g4389
S'held-8'
p4454
S'Anwar-5'
p4455
tp4456
a(g4393
S'held-8'
p4457
S'should-6'
p4458
tp4459
a(g4397
S'held-8'
p4460
S'be-7'
p4461
tp4462
a(g4401
S'said-4'
p4463
S'held-8'
p4464
tp4465
a(g4405
S'arrest-11'
p4466
S'house-10'
p4467
tp4468
a(g4409
S'held-8'
p4469
S'arrest-11'
p4470
tp4471
a(g4413
S'trial-15'
p4472
S'his-13'
p4473
tp4474
a(g4417
S'trial-15'
p4475
S'upcoming-14'
p4476
tp4477
a(g4421
S'held-8'
p4478
S'trial-15'
p4479
tp4480
a(g4425
S'charges-21'
p4481
S'corruption-17'
p4482
tp4483
a(g4429
S'corruption-17'
p4484
S'sexual-19'
p4485
tp4486
a(g4433
S'charges-21'
p4487
S'misconduct-20'
p4488
tp4489
a(g4437
S'trial-15'
p4490
S'charges-21'
p4491
tp4492
asg78
(lp4493
(S'He'
p4494
(dp4495
S'NamedEntityTag'
p4496
g96
sS'CharacterOffsetEnd'
p4497
S'1094'
p4498
sS'Lemma'
p4499
S'he'
p4500
sS'PartOfSpeech'
p4501
S'PRP'
p4502
sS'CharacterOffsetBegin'
p4503
S'1092'
p4504
stp4505
a(S'has'
p4506
(dp4507
S'NamedEntityTag'
p4508
g96
sS'CharacterOffsetEnd'
p4509
S'1098'
p4510
sS'Lemma'
p4511
S'have'
p4512
sS'PartOfSpeech'
p4513
S'VBZ'
p4514
sS'CharacterOffsetBegin'
p4515
S'1095'
p4516
stp4517
a(S'also'
p4518
(dp4519
S'NamedEntityTag'
p4520
g96
sS'CharacterOffsetEnd'
p4521
S'1103'
p4522
sS'Lemma'
p4523
S'also'
p4524
sS'PartOfSpeech'
p4525
S'RB'
p4526
sS'CharacterOffsetBegin'
p4527
S'1099'
p4528
stp4529
a(S'said'
p4530
(dp4531
S'NamedEntityTag'
p4532
g96
sS'CharacterOffsetEnd'
p4533
S'1108'
p4534
sS'Lemma'
p4535
S'say'
p4536
sS'PartOfSpeech'
p4537
S'VBD'
p4538
sS'CharacterOffsetBegin'
p4539
S'1104'
p4540
stp4541
a(S'Anwar'
p4542
(dp4543
S'NamedEntityTag'
p4544
S'PERSON'
p4545
sS'CharacterOffsetEnd'
p4546
S'1114'
p4547
sS'Lemma'
p4548
S'Anwar'
p4549
sS'PartOfSpeech'
p4550
S'NNP'
p4551
sS'CharacterOffsetBegin'
p4552
S'1109'
p4553
stp4554
a(S'should'
p4555
(dp4556
S'NamedEntityTag'
p4557
g96
sS'CharacterOffsetEnd'
p4558
S'1121'
p4559
sS'Lemma'
p4560
S'should'
p4561
sS'PartOfSpeech'
p4562
S'MD'
p4563
sS'CharacterOffsetBegin'
p4564
S'1115'
p4565
stp4566
a(S'be'
p4567
(dp4568
S'NamedEntityTag'
p4569
g96
sS'CharacterOffsetEnd'
p4570
S'1124'
p4571
sS'Lemma'
p4572
S'be'
p4573
sS'PartOfSpeech'
p4574
S'VB'
p4575
sS'CharacterOffsetBegin'
p4576
S'1122'
p4577
stp4578
a(S'held'
p4579
(dp4580
S'NamedEntityTag'
p4581
g96
sS'CharacterOffsetEnd'
p4582
S'1129'
p4583
sS'Lemma'
p4584
S'hold'
p4585
sS'PartOfSpeech'
p4586
S'VBN'
p4587
sS'CharacterOffsetBegin'
p4588
S'1125'
p4589
stp4590
a(S'in'
p4591
(dp4592
S'NamedEntityTag'
p4593
g96
sS'CharacterOffsetEnd'
p4594
S'1132'
p4595
sS'Lemma'
p4596
S'in'
p4597
sS'PartOfSpeech'
p4598
S'IN'
p4599
sS'CharacterOffsetBegin'
p4600
S'1130'
p4601
stp4602
a(S'house'
p4603
(dp4604
S'NamedEntityTag'
p4605
g96
sS'CharacterOffsetEnd'
p4606
S'1138'
p4607
sS'Lemma'
p4608
S'house'
p4609
sS'PartOfSpeech'
p4610
S'NN'
p4611
sS'CharacterOffsetBegin'
p4612
S'1133'
p4613
stp4614
a(S'arrest'
p4615
(dp4616
S'NamedEntityTag'
p4617
g96
sS'CharacterOffsetEnd'
p4618
S'1145'
p4619
sS'Lemma'
p4620
S'arrest'
p4621
sS'PartOfSpeech'
p4622
S'NN'
p4623
sS'CharacterOffsetBegin'
p4624
S'1139'
p4625
stp4626
a(S'during'
p4627
(dp4628
S'NamedEntityTag'
p4629
g96
sS'CharacterOffsetEnd'
p4630
S'1152'
p4631
sS'Lemma'
p4632
S'during'
p4633
sS'PartOfSpeech'
p4634
S'IN'
p4635
sS'CharacterOffsetBegin'
p4636
S'1146'
p4637
stp4638
a(S'his'
p4639
(dp4640
S'NamedEntityTag'
p4641
g96
sS'CharacterOffsetEnd'
p4642
S'1156'
p4643
sS'Lemma'
p4644
S'he'
p4645
sS'PartOfSpeech'
p4646
S'PRP$'
p4647
sS'CharacterOffsetBegin'
p4648
S'1153'
p4649
stp4650
a(S'upcoming'
p4651
(dp4652
S'NamedEntityTag'
p4653
g96
sS'CharacterOffsetEnd'
p4654
S'1165'
p4655
sS'Lemma'
p4656
S'upcoming'
p4657
sS'PartOfSpeech'
p4658
S'JJ'
p4659
sS'CharacterOffsetBegin'
p4660
S'1157'
p4661
stp4662
a(S'trial'
p4663
(dp4664
S'NamedEntityTag'
p4665
g96
sS'CharacterOffsetEnd'
p4666
S'1171'
p4667
sS'Lemma'
p4668
S'trial'
p4669
sS'PartOfSpeech'
p4670
S'NN'
p4671
sS'CharacterOffsetBegin'
p4672
S'1166'
p4673
stp4674
a(S'on'
p4675
(dp4676
S'NamedEntityTag'
p4677
g96
sS'CharacterOffsetEnd'
p4678
S'1174'
p4679
sS'Lemma'
p4680
S'on'
p4681
sS'PartOfSpeech'
p4682
S'IN'
p4683
sS'CharacterOffsetBegin'
p4684
S'1172'
p4685
stp4686
a(S'corruption'
p4687
(dp4688
S'NamedEntityTag'
p4689
g96
sS'CharacterOffsetEnd'
p4690
S'1185'
p4691
sS'Lemma'
p4692
S'corruption'
p4693
sS'PartOfSpeech'
p4694
S'NN'
p4695
sS'CharacterOffsetBegin'
p4696
S'1175'
p4697
stp4698
a(S'and'
p4699
(dp4700
S'NamedEntityTag'
p4701
g96
sS'CharacterOffsetEnd'
p4702
S'1189'
p4703
sS'Lemma'
p4704
S'and'
p4705
sS'PartOfSpeech'
p4706
S'CC'
p4707
sS'CharacterOffsetBegin'
p4708
S'1186'
p4709
stp4710
a(S'sexual'
p4711
(dp4712
S'NamedEntityTag'
p4713
g96
sS'CharacterOffsetEnd'
p4714
S'1196'
p4715
sS'Lemma'
p4716
S'sexual'
p4717
sS'PartOfSpeech'
p4718
S'JJ'
p4719
sS'CharacterOffsetBegin'
p4720
S'1190'
p4721
stp4722
a(S'misconduct'
p4723
(dp4724
S'NamedEntityTag'
p4725
g96
sS'CharacterOffsetEnd'
p4726
S'1207'
p4727
sS'Lemma'
p4728
S'misconduct'
p4729
sS'PartOfSpeech'
p4730
S'NN'
p4731
sS'CharacterOffsetBegin'
p4732
S'1197'
p4733
stp4734
a(S'charges'
p4735
(dp4736
S'NamedEntityTag'
p4737
g96
sS'CharacterOffsetEnd'
p4738
S'1215'
p4739
sS'Lemma'
p4740
S'charge'
p4741
sS'PartOfSpeech'
p4742
S'NNS'
p4743
sS'CharacterOffsetBegin'
p4744
S'1208'
p4745
stp4746
a(g400
(dp4747
S'NamedEntityTag'
p4748
g96
sS'CharacterOffsetEnd'
p4749
S'1216'
p4750
sS'Lemma'
p4751
g400
sS'PartOfSpeech'
p4752
g400
sS'CharacterOffsetBegin'
p4753
S'1215'
p4754
stp4755
asa(dp4756
g7
S'(ROOT (S (NP (NNP Anwar)) (VP (VBZ has) (VP (VBN denied) (NP (DT the) (NNS charges)) (, ,) (S (VP (VBG calling) (SBAR (S (NP (PRP them)) (ADVP (RB politically)) (VP (VBD motivated)))))))) (. .)))'
p4757
sg9
S'Anwar has denied the charges, calling them politically motivated.'
p4758
sg11
(lp4759
(S'root'
p4760
S'ROOT'
p4761
S'denied'
p4762
tp4763
a(S'nsubj'
p4764
S'denied'
p4765
S'Anwar'
p4766
tp4767
a(S'aux'
p4768
S'denied'
p4769
S'has'
p4770
tp4771
a(S'det'
p4772
S'charges'
p4773
S'the'
p4774
tp4775
a(S'dobj'
p4776
S'denied'
p4777
S'charges'
p4778
tp4779
a(S'partmod'
p4780
S'denied'
p4781
S'calling'
p4782
tp4783
a(S'nsubj'
p4784
S'motivated'
p4785
S'them'
p4786
tp4787
a(S'advmod'
p4788
S'motivated'
p4789
S'politically'
p4790
tp4791
a(S'ccomp'
p4792
S'calling'
p4793
S'motivated'
p4794
tp4795
asg49
(lp4796
(g4760
S'ROOT-0'
p4797
S'denied-3'
p4798
tp4799
a(g4764
S'denied-3'
p4800
S'Anwar-1'
p4801
tp4802
a(g4768
S'denied-3'
p4803
S'has-2'
p4804
tp4805
a(g4772
S'charges-5'
p4806
S'the-4'
p4807
tp4808
a(g4776
S'denied-3'
p4809
S'charges-5'
p4810
tp4811
a(g4780
S'denied-3'
p4812
S'calling-7'
p4813
tp4814
a(g4784
S'motivated-10'
p4815
S'them-8'
p4816
tp4817
a(g4788
S'motivated-10'
p4818
S'politically-9'
p4819
tp4820
a(g4792
S'calling-7'
p4821
S'motivated-10'
p4822
tp4823
asg78
(lp4824
(S'Anwar'
p4825
(dp4826
S'NamedEntityTag'
p4827
S'PERSON'
p4828
sS'CharacterOffsetEnd'
p4829
S'1222'
p4830
sS'Lemma'
p4831
S'Anwar'
p4832
sS'PartOfSpeech'
p4833
S'NNP'
p4834
sS'CharacterOffsetBegin'
p4835
S'1217'
p4836
stp4837
a(S'has'
p4838
(dp4839
S'NamedEntityTag'
p4840
g96
sS'CharacterOffsetEnd'
p4841
S'1226'
p4842
sS'Lemma'
p4843
S'have'
p4844
sS'PartOfSpeech'
p4845
S'VBZ'
p4846
sS'CharacterOffsetBegin'
p4847
S'1223'
p4848
stp4849
a(S'denied'
p4850
(dp4851
S'NamedEntityTag'
p4852
g96
sS'CharacterOffsetEnd'
p4853
S'1233'
p4854
sS'Lemma'
p4855
S'deny'
p4856
sS'PartOfSpeech'
p4857
S'VBN'
p4858
sS'CharacterOffsetBegin'
p4859
S'1227'
p4860
stp4861
a(S'the'
p4862
(dp4863
S'NamedEntityTag'
p4864
g96
sS'CharacterOffsetEnd'
p4865
S'1237'
p4866
sS'Lemma'
p4867
S'the'
p4868
sS'PartOfSpeech'
p4869
S'DT'
p4870
sS'CharacterOffsetBegin'
p4871
S'1234'
p4872
stp4873
a(S'charges'
p4874
(dp4875
S'NamedEntityTag'
p4876
g96
sS'CharacterOffsetEnd'
p4877
S'1245'
p4878
sS'Lemma'
p4879
S'charge'
p4880
sS'PartOfSpeech'
p4881
S'NNS'
p4882
sS'CharacterOffsetBegin'
p4883
S'1238'
p4884
stp4885
a(g559
(dp4886
S'NamedEntityTag'
p4887
g96
sS'CharacterOffsetEnd'
p4888
S'1246'
p4889
sS'Lemma'
p4890
g559
sS'PartOfSpeech'
p4891
g559
sS'CharacterOffsetBegin'
p4892
S'1245'
p4893
stp4894
a(S'calling'
p4895
(dp4896
S'NamedEntityTag'
p4897
g96
sS'CharacterOffsetEnd'
p4898
S'1254'
p4899
sS'Lemma'
p4900
S'call'
p4901
sS'PartOfSpeech'
p4902
S'VBG'
p4903
sS'CharacterOffsetBegin'
p4904
S'1247'
p4905
stp4906
a(S'them'
p4907
(dp4908
S'NamedEntityTag'
p4909
g96
sS'CharacterOffsetEnd'
p4910
S'1259'
p4911
sS'Lemma'
p4912
S'they'
p4913
sS'PartOfSpeech'
p4914
S'PRP'
p4915
sS'CharacterOffsetBegin'
p4916
S'1255'
p4917
stp4918
a(S'politically'
p4919
(dp4920
S'NamedEntityTag'
p4921
g96
sS'CharacterOffsetEnd'
p4922
S'1271'
p4923
sS'Lemma'
p4924
S'politically'
p4925
sS'PartOfSpeech'
p4926
S'RB'
p4927
sS'CharacterOffsetBegin'
p4928
S'1260'
p4929
stp4930
a(S'motivated'
p4931
(dp4932
S'NamedEntityTag'
p4933
g96
sS'CharacterOffsetEnd'
p4934
S'1281'
p4935
sS'Lemma'
p4936
S'motivate'
p4937
sS'PartOfSpeech'
p4938
S'VBD'
p4939
sS'CharacterOffsetBegin'
p4940
S'1272'
p4941
stp4942
a(g400
(dp4943
S'NamedEntityTag'
p4944
g96
sS'CharacterOffsetEnd'
p4945
S'1282'
p4946
sS'Lemma'
p4947
g400
sS'PartOfSpeech'
p4948
g400
sS'CharacterOffsetBegin'
p4949
S'1281'
p4950
stp4951
asa(dp4952
g7
S'(ROOT (S (PP (IN On) (NP (NNP Thursday))) (, ,) (NP (NNP Estrada)) (VP (VBD told) (S (NP (NP (NNP Anwars) (NN daughter)) (, ,) (NP (NNP Nurul) (NNP Izzah)) (, ,)) (VP (TO to) (VP (VB tell) (NP (PRP$ her) (NN father)) (S (RB not) (VP (TO to) (VP (VB waver) (SBAR (IN because) (S (NP (PRP he)) (VP (VBZ is) (VP (VBG fighting) (PP (IN for) (NP (NP (DT a) (NN cause)) (, ,) (NP (NP (DT the) (NN cause)) (PP (IN of) (NP (DT the) (JJ Malaysian) (NNS people))))))))))))))))) (. .)))'
p4953
sg9
S'On Thursday, Estrada told Anwars daughter, Nurul Izzah, to tell her father not to waver because he is fighting for a cause, the cause of the Malaysian people.'
p4954
sg11
(lp4955
(S'root'
p4956
S'ROOT'
p4957
S'told'
p4958
tp4959
a(S'prep_on'
p4960
S'told'
p4961
S'Thursday'
p4962
tp4963
a(S'nsubj'
p4964
S'told'
p4965
S'Estrada'
p4966
tp4967
a(S'nn'
p4968
S'daughter'
p4969
S'Anwars'
p4970
tp4971
a(S'nsubj'
p4972
S'tell'
p4973
S'daughter'
p4974
tp4975
a(S'nn'
p4976
S'Izzah'
p4977
S'Nurul'
p4978
tp4979
a(S'appos'
p4980
S'daughter'
p4981
S'Izzah'
p4982
tp4983
a(S'aux'
p4984
S'tell'
p4985
S'to'
p4986
tp4987
a(S'xcomp'
p4988
S'told'
p4989
S'tell'
p4990
tp4991
a(S'poss'
p4992
S'father'
p4993
S'her'
p4994
tp4995
a(S'dobj'
p4996
S'tell'
p4997
S'father'
p4998
tp4999
a(S'neg'
p5000
S'waver'
p5001
S'not'
p5002
tp5003
a(S'aux'
p5004
S'waver'
p5005
S'to'
p5006
tp5007
a(S'xcomp'
p5008
S'tell'
p5009
S'waver'
p5010
tp5011
a(S'mark'
p5012
S'fighting'
p5013
S'because'
p5014
tp5015
a(S'nsubj'
p5016
S'fighting'
p5017
S'he'
p5018
tp5019
a(S'aux'
p5020
S'fighting'
p5021
S'is'
p5022
tp5023
a(S'advcl'
p5024
S'waver'
p5025
S'fighting'
p5026
tp5027
a(S'det'
p5028
S'cause'
p5029
g1587
tp5030
a(S'prep_for'
p5031
S'fighting'
p5032
S'cause'
p5033
tp5034
a(S'det'
p5035
S'cause'
p5036
S'the'
p5037
tp5038
a(S'appos'
p5039
S'cause'
p5040
S'cause'
p5041
tp5042
a(S'det'
p5043
S'people'
p5044
S'the'
p5045
tp5046
a(S'amod'
p5047
S'people'
p5048
S'Malaysian'
p5049
tp5050
a(S'prep_of'
p5051
S'cause'
p5052
S'people'
p5053
tp5054
asg49
(lp5055
(g4956
S'ROOT-0'
p5056
S'told-5'
p5057
tp5058
a(g4960
S'told-5'
p5059
S'Thursday-2'
p5060
tp5061
a(g4964
S'told-5'
p5062
S'Estrada-4'
p5063
tp5064
a(g4968
S'daughter-7'
p5065
S'Anwars-6'
p5066
tp5067
a(g4972
S'tell-13'
p5068
S'daughter-7'
p5069
tp5070
a(g4976
S'Izzah-10'
p5071
S'Nurul-9'
p5072
tp5073
a(g4980
S'daughter-7'
p5074
S'Izzah-10'
p5075
tp5076
a(g4984
S'tell-13'
p5077
S'to-12'
p5078
tp5079
a(g4988
S'told-5'
p5080
S'tell-13'
p5081
tp5082
a(g4992
S'father-15'
p5083
S'her-14'
p5084
tp5085
a(g4996
S'tell-13'
p5086
S'father-15'
p5087
tp5088
a(g5000
S'waver-18'
p5089
S'not-16'
p5090
tp5091
a(g5004
S'waver-18'
p5092
S'to-17'
p5093
tp5094
a(g5008
S'tell-13'
p5095
S'waver-18'
p5096
tp5097
a(g5012
S'fighting-22'
p5098
S'because-19'
p5099
tp5100
a(g5016
S'fighting-22'
p5101
S'he-20'
p5102
tp5103
a(g5020
S'fighting-22'
p5104
S'is-21'
p5105
tp5106
a(g5024
S'waver-18'
p5107
S'fighting-22'
p5108
tp5109
a(g5028
S'cause-25'
p5110
S'a-24'
p5111
tp5112
a(g5031
S'fighting-22'
p5113
S'cause-25'
p5114
tp5115
a(g5035
S'cause-28'
p5116
S'the-27'
p5117
tp5118
a(g5039
S'cause-25'
p5119
S'cause-28'
p5120
tp5121
a(g5043
S'people-32'
p5122
S'the-30'
p5123
tp5124
a(g5047
S'people-32'
p5125
S'Malaysian-31'
p5126
tp5127
a(g5051
S'cause-28'
p5128
S'people-32'
p5129
tp5130
asg78
(lp5131
(S'On'
p5132
(dp5133
S'NamedEntityTag'
p5134
g96
sS'CharacterOffsetEnd'
p5135
S'1285'
p5136
sS'Lemma'
p5137
S'on'
p5138
sS'PartOfSpeech'
p5139
S'IN'
p5140
sS'CharacterOffsetBegin'
p5141
S'1283'
p5142
stp5143
a(S'Thursday'
p5144
(dp5145
S'NormalizedNamedEntityTag'
p5146
S'XXXX-WXX-4'
p5147
sS'Timex'
p5148
S'<TIMEX3 tid="t2" type="DATE" value="XXXX-WXX-4">Thursday</TIMEX3>'
p5149
sS'Lemma'
p5150
S'Thursday'
p5151
sS'CharacterOffsetEnd'
p5152
S'1294'
p5153
sS'PartOfSpeech'
p5154
S'NNP'
p5155
sS'CharacterOffsetBegin'
p5156
S'1286'
p5157
sS'NamedEntityTag'
p5158
S'DATE'
p5159
stp5160
a(g559
(dp5161
S'NamedEntityTag'
p5162
g96
sS'CharacterOffsetEnd'
p5163
S'1295'
p5164
sS'Lemma'
p5165
g559
sS'PartOfSpeech'
p5166
g559
sS'CharacterOffsetBegin'
p5167
S'1294'
p5168
stp5169
a(S'Estrada'
p5170
(dp5171
S'NamedEntityTag'
p5172
S'PERSON'
p5173
sS'CharacterOffsetEnd'
p5174
S'1303'
p5175
sS'Lemma'
p5176
S'Estrada'
p5177
sS'PartOfSpeech'
p5178
S'NNP'
p5179
sS'CharacterOffsetBegin'
p5180
S'1296'
p5181
stp5182
a(S'told'
p5183
(dp5184
S'NamedEntityTag'
p5185
g96
sS'CharacterOffsetEnd'
p5186
S'1308'
p5187
sS'Lemma'
p5188
S'tell'
p5189
sS'PartOfSpeech'
p5190
S'VBD'
p5191
sS'CharacterOffsetBegin'
p5192
S'1304'
p5193
stp5194
a(S'Anwars'
p5195
(dp5196
S'NamedEntityTag'
p5197
g96
sS'CharacterOffsetEnd'
p5198
S'1315'
p5199
sS'Lemma'
p5200
S'Anwars'
p5201
sS'PartOfSpeech'
p5202
S'NNP'
p5203
sS'CharacterOffsetBegin'
p5204
S'1309'
p5205
stp5206
a(S'daughter'
p5207
(dp5208
S'NamedEntityTag'
p5209
g96
sS'CharacterOffsetEnd'
p5210
S'1324'
p5211
sS'Lemma'
p5212
S'daughter'
p5213
sS'PartOfSpeech'
p5214
S'NN'
p5215
sS'CharacterOffsetBegin'
p5216
S'1316'
p5217
stp5218
a(g559
(dp5219
S'NamedEntityTag'
p5220
g96
sS'CharacterOffsetEnd'
p5221
S'1325'
p5222
sS'Lemma'
p5223
g559
sS'PartOfSpeech'
p5224
g559
sS'CharacterOffsetBegin'
p5225
S'1324'
p5226
stp5227
a(S'Nurul'
p5228
(dp5229
S'NamedEntityTag'
p5230
S'PERSON'
p5231
sS'CharacterOffsetEnd'
p5232
S'1331'
p5233
sS'Lemma'
p5234
S'Nurul'
p5235
sS'PartOfSpeech'
p5236
S'NNP'
p5237
sS'CharacterOffsetBegin'
p5238
S'1326'
p5239
stp5240
a(S'Izzah'
p5241
(dp5242
S'NamedEntityTag'
p5243
S'PERSON'
p5244
sS'CharacterOffsetEnd'
p5245
S'1337'
p5246
sS'Lemma'
p5247
S'Izzah'
p5248
sS'PartOfSpeech'
p5249
S'NNP'
p5250
sS'CharacterOffsetBegin'
p5251
S'1332'
p5252
stp5253
a(g559
(dp5254
S'NamedEntityTag'
p5255
g96
sS'CharacterOffsetEnd'
p5256
S'1338'
p5257
sS'Lemma'
p5258
g559
sS'PartOfSpeech'
p5259
g559
sS'CharacterOffsetBegin'
p5260
S'1337'
p5261
stp5262
a(S'to'
p5263
(dp5264
S'NamedEntityTag'
p5265
g96
sS'CharacterOffsetEnd'
p5266
S'1341'
p5267
sS'Lemma'
p5268
S'to'
p5269
sS'PartOfSpeech'
p5270
S'TO'
p5271
sS'CharacterOffsetBegin'
p5272
S'1339'
p5273
stp5274
a(S'tell'
p5275
(dp5276
S'NamedEntityTag'
p5277
g96
sS'CharacterOffsetEnd'
p5278
S'1346'
p5279
sS'Lemma'
p5280
S'tell'
p5281
sS'PartOfSpeech'
p5282
S'VB'
p5283
sS'CharacterOffsetBegin'
p5284
S'1342'
p5285
stp5286
a(S'her'
p5287
(dp5288
S'NamedEntityTag'
p5289
g96
sS'CharacterOffsetEnd'
p5290
S'1350'
p5291
sS'Lemma'
p5292
S'she'
p5293
sS'PartOfSpeech'
p5294
S'PRP$'
p5295
sS'CharacterOffsetBegin'
p5296
S'1347'
p5297
stp5298
a(S'father'
p5299
(dp5300
S'NamedEntityTag'
p5301
g96
sS'CharacterOffsetEnd'
p5302
S'1357'
p5303
sS'Lemma'
p5304
S'father'
p5305
sS'PartOfSpeech'
p5306
S'NN'
p5307
sS'CharacterOffsetBegin'
p5308
S'1351'
p5309
stp5310
a(S'not'
p5311
(dp5312
S'NamedEntityTag'
p5313
g96
sS'CharacterOffsetEnd'
p5314
S'1361'
p5315
sS'Lemma'
p5316
S'not'
p5317
sS'PartOfSpeech'
p5318
S'RB'
p5319
sS'CharacterOffsetBegin'
p5320
S'1358'
p5321
stp5322
a(S'to'
p5323
(dp5324
S'NamedEntityTag'
p5325
g96
sS'CharacterOffsetEnd'
p5326
S'1364'
p5327
sS'Lemma'
p5328
S'to'
p5329
sS'PartOfSpeech'
p5330
S'TO'
p5331
sS'CharacterOffsetBegin'
p5332
S'1362'
p5333
stp5334
a(S'waver'
p5335
(dp5336
S'NamedEntityTag'
p5337
g96
sS'CharacterOffsetEnd'
p5338
S'1370'
p5339
sS'Lemma'
p5340
S'waver'
p5341
sS'PartOfSpeech'
p5342
S'VB'
p5343
sS'CharacterOffsetBegin'
p5344
S'1365'
p5345
stp5346
a(S'because'
p5347
(dp5348
S'NamedEntityTag'
p5349
g96
sS'CharacterOffsetEnd'
p5350
S'1378'
p5351
sS'Lemma'
p5352
S'because'
p5353
sS'PartOfSpeech'
p5354
S'IN'
p5355
sS'CharacterOffsetBegin'
p5356
S'1371'
p5357
stp5358
a(S'he'
p5359
(dp5360
S'NamedEntityTag'
p5361
g96
sS'CharacterOffsetEnd'
p5362
S'1381'
p5363
sS'Lemma'
p5364
S'he'
p5365
sS'PartOfSpeech'
p5366
S'PRP'
p5367
sS'CharacterOffsetBegin'
p5368
S'1379'
p5369
stp5370
a(S'is'
p5371
(dp5372
S'NamedEntityTag'
p5373
g96
sS'CharacterOffsetEnd'
p5374
S'1384'
p5375
sS'Lemma'
p5376
S'be'
p5377
sS'PartOfSpeech'
p5378
S'VBZ'
p5379
sS'CharacterOffsetBegin'
p5380
S'1382'
p5381
stp5382
a(S'fighting'
p5383
(dp5384
S'NamedEntityTag'
p5385
g96
sS'CharacterOffsetEnd'
p5386
S'1393'
p5387
sS'Lemma'
p5388
S'fight'
p5389
sS'PartOfSpeech'
p5390
S'VBG'
p5391
sS'CharacterOffsetBegin'
p5392
S'1385'
p5393
stp5394
a(S'for'
p5395
(dp5396
S'NamedEntityTag'
p5397
g96
sS'CharacterOffsetEnd'
p5398
S'1397'
p5399
sS'Lemma'
p5400
S'for'
p5401
sS'PartOfSpeech'
p5402
S'IN'
p5403
sS'CharacterOffsetBegin'
p5404
S'1394'
p5405
stp5406
a(g1587
(dp5407
S'NamedEntityTag'
p5408
g96
sS'CharacterOffsetEnd'
p5409
S'1399'
p5410
sS'Lemma'
p5411
g1587
sS'PartOfSpeech'
p5412
S'DT'
p5413
sS'CharacterOffsetBegin'
p5414
S'1398'
p5415
stp5416
a(S'cause'
p5417
(dp5418
S'NamedEntityTag'
p5419
g96
sS'CharacterOffsetEnd'
p5420
S'1405'
p5421
sS'Lemma'
p5422
S'cause'
p5423
sS'PartOfSpeech'
p5424
S'NN'
p5425
sS'CharacterOffsetBegin'
p5426
S'1400'
p5427
stp5428
a(g559
(dp5429
S'NamedEntityTag'
p5430
g96
sS'CharacterOffsetEnd'
p5431
S'1406'
p5432
sS'Lemma'
p5433
g559
sS'PartOfSpeech'
p5434
g559
sS'CharacterOffsetBegin'
p5435
S'1405'
p5436
stp5437
a(S'the'
p5438
(dp5439
S'NamedEntityTag'
p5440
g96
sS'CharacterOffsetEnd'
p5441
S'1410'
p5442
sS'Lemma'
p5443
S'the'
p5444
sS'PartOfSpeech'
p5445
S'DT'
p5446
sS'CharacterOffsetBegin'
p5447
S'1407'
p5448
stp5449
a(S'cause'
p5450
(dp5451
S'NamedEntityTag'
p5452
g96
sS'CharacterOffsetEnd'
p5453
S'1416'
p5454
sS'Lemma'
p5455
S'cause'
p5456
sS'PartOfSpeech'
p5457
S'NN'
p5458
sS'CharacterOffsetBegin'
p5459
S'1411'
p5460
stp5461
a(S'of'
p5462
(dp5463
S'NamedEntityTag'
p5464
g96
sS'CharacterOffsetEnd'
p5465
S'1419'
p5466
sS'Lemma'
p5467
S'of'
p5468
sS'PartOfSpeech'
p5469
S'IN'
p5470
sS'CharacterOffsetBegin'
p5471
S'1417'
p5472
stp5473
a(S'the'
p5474
(dp5475
S'NamedEntityTag'
p5476
g96
sS'CharacterOffsetEnd'
p5477
S'1423'
p5478
sS'Lemma'
p5479
S'the'
p5480
sS'PartOfSpeech'
p5481
S'DT'
p5482
sS'CharacterOffsetBegin'
p5483
S'1420'
p5484
stp5485
a(S'Malaysian'
p5486
(dp5487
S'NamedEntityTag'
p5488
S'LOCATION'
p5489
sS'CharacterOffsetEnd'
p5490
S'1433'
p5491
sS'Lemma'
p5492
S'malaysian'
p5493
sS'PartOfSpeech'
p5494
S'JJ'
p5495
sS'CharacterOffsetBegin'
p5496
S'1424'
p5497
stp5498
a(S'people'
p5499
(dp5500
S'NamedEntityTag'
p5501
g96
sS'CharacterOffsetEnd'
p5502
S'1440'
p5503
sS'Lemma'
p5504
S'people'
p5505
sS'PartOfSpeech'
p5506
S'NNS'
p5507
sS'CharacterOffsetBegin'
p5508
S'1434'
p5509
stp5510
a(g400
(dp5511
S'NamedEntityTag'
p5512
g96
sS'CharacterOffsetEnd'
p5513
S'1441'
p5514
sS'Lemma'
p5515
g400
sS'PartOfSpeech'
p5516
g400
sS'CharacterOffsetBegin'
p5517
S'1440'
p5518
stp5519
asa(dp5520
g7
S'(ROOT (S (S (NP (PRP He)) (VP (VBD said) (, ,) (ADVP (RB however)) (, ,) (SBAR (IN that) (S (NP (PRP$ his) (NN support)) (VP (VBZ is) (ADJP (JJ personal) (CC and) (JJ moral))))))) (CC and) (RB not) (S (VP (VBN meant) (S (VP (TO to) (VP (VB interfere) (PP (IN in) (NP (NP (DT the) (JJ internal) (NNS problems)) (PP (IN of) (NP (NNP Malaysia)))))))))) (. .)))'
p5521
sg9
S'He said, however, that his support is personal and moral and not meant to interfere in the internal problems of Malaysia.'
p5522
sg11
(lp5523
(S'root'
p5524
S'ROOT'
p5525
S'said'
p5526
tp5527
a(S'nsubj'
p5528
S'said'
p5529
S'He'
p5530
tp5531
a(S'advmod'
p5532
S'said'
p5533
S'however'
p5534
tp5535
a(S'mark'
p5536
S'personal'
p5537
S'that'
p5538
tp5539
a(S'poss'
p5540
S'support'
p5541
S'his'
p5542
tp5543
a(S'nsubj'
p5544
S'personal'
p5545
S'support'
p5546
tp5547
a(S'cop'
p5548
S'personal'
p5549
S'is'
p5550
tp5551
a(S'ccomp'
p5552
S'said'
p5553
S'personal'
p5554
tp5555
a(S'conj_and'
p5556
S'personal'
p5557
S'moral'
p5558
tp5559
a(S'conj_and'
p5560
S'said'
p5561
S'not'
p5562
tp5563
a(S'dep'
p5564
S'said'
p5565
S'meant'
p5566
tp5567
a(S'aux'
p5568
S'interfere'
p5569
S'to'
p5570
tp5571
a(S'xcomp'
p5572
S'meant'
p5573
S'interfere'
p5574
tp5575
a(S'det'
p5576
S'problems'
p5577
S'the'
p5578
tp5579
a(S'amod'
p5580
S'problems'
p5581
S'internal'
p5582
tp5583
a(S'prep_in'
p5584
S'interfere'
p5585
S'problems'
p5586
tp5587
a(S'prep_of'
p5588
S'problems'
p5589
S'Malaysia'
p5590
tp5591
asg49
(lp5592
(g5524
S'ROOT-0'
p5593
S'said-2'
p5594
tp5595
a(g5528
S'said-2'
p5596
S'He-1'
p5597
tp5598
a(g5532
S'said-2'
p5599
S'however-4'
p5600
tp5601
a(g5536
S'personal-10'
p5602
S'that-6'
p5603
tp5604
a(g5540
S'support-8'
p5605
S'his-7'
p5606
tp5607
a(g5544
S'personal-10'
p5608
S'support-8'
p5609
tp5610
a(g5548
S'personal-10'
p5611
S'is-9'
p5612
tp5613
a(g5552
S'said-2'
p5614
S'personal-10'
p5615
tp5616
a(g5556
S'personal-10'
p5617
S'moral-12'
p5618
tp5619
a(g5560
S'said-2'
p5620
S'not-14'
p5621
tp5622
a(g5564
S'said-2'
p5623
S'meant-15'
p5624
tp5625
a(g5568
S'interfere-17'
p5626
S'to-16'
p5627
tp5628
a(g5572
S'meant-15'
p5629
S'interfere-17'
p5630
tp5631
a(g5576
S'problems-21'
p5632
S'the-19'
p5633
tp5634
a(g5580
S'problems-21'
p5635
S'internal-20'
p5636
tp5637
a(g5584
S'interfere-17'
p5638
S'problems-21'
p5639
tp5640
a(g5588
S'problems-21'
p5641
S'Malaysia-23'
p5642
tp5643
asg78
(lp5644
(S'He'
p5645
(dp5646
S'NamedEntityTag'
p5647
g96
sS'CharacterOffsetEnd'
p5648
S'1444'
p5649
sS'Lemma'
p5650
S'he'
p5651
sS'PartOfSpeech'
p5652
S'PRP'
p5653
sS'CharacterOffsetBegin'
p5654
S'1442'
p5655
stp5656
a(S'said'
p5657
(dp5658
S'NamedEntityTag'
p5659
g96
sS'CharacterOffsetEnd'
p5660
S'1449'
p5661
sS'Lemma'
p5662
S'say'
p5663
sS'PartOfSpeech'
p5664
S'VBD'
p5665
sS'CharacterOffsetBegin'
p5666
S'1445'
p5667
stp5668
a(g559
(dp5669
S'NamedEntityTag'
p5670
g96
sS'CharacterOffsetEnd'
p5671
S'1450'
p5672
sS'Lemma'
p5673
g559
sS'PartOfSpeech'
p5674
g559
sS'CharacterOffsetBegin'
p5675
S'1449'
p5676
stp5677
a(S'however'
p5678
(dp5679
S'NamedEntityTag'
p5680
g96
sS'CharacterOffsetEnd'
p5681
S'1458'
p5682
sS'Lemma'
p5683
S'however'
p5684
sS'PartOfSpeech'
p5685
S'RB'
p5686
sS'CharacterOffsetBegin'
p5687
S'1451'
p5688
stp5689
a(g559
(dp5690
S'NamedEntityTag'
p5691
g96
sS'CharacterOffsetEnd'
p5692
S'1459'
p5693
sS'Lemma'
p5694
g559
sS'PartOfSpeech'
p5695
g559
sS'CharacterOffsetBegin'
p5696
S'1458'
p5697
stp5698
a(S'that'
p5699
(dp5700
S'NamedEntityTag'
p5701
g96
sS'CharacterOffsetEnd'
p5702
S'1464'
p5703
sS'Lemma'
p5704
S'that'
p5705
sS'PartOfSpeech'
p5706
S'IN'
p5707
sS'CharacterOffsetBegin'
p5708
S'1460'
p5709
stp5710
a(S'his'
p5711
(dp5712
S'NamedEntityTag'
p5713
g96
sS'CharacterOffsetEnd'
p5714
S'1468'
p5715
sS'Lemma'
p5716
S'he'
p5717
sS'PartOfSpeech'
p5718
S'PRP$'
p5719
sS'CharacterOffsetBegin'
p5720
S'1465'
p5721
stp5722
a(S'support'
p5723
(dp5724
S'NamedEntityTag'
p5725
g96
sS'CharacterOffsetEnd'
p5726
S'1476'
p5727
sS'Lemma'
p5728
S'support'
p5729
sS'PartOfSpeech'
p5730
S'NN'
p5731
sS'CharacterOffsetBegin'
p5732
S'1469'
p5733
stp5734
a(S'is'
p5735
(dp5736
S'NamedEntityTag'
p5737
g96
sS'CharacterOffsetEnd'
p5738
S'1479'
p5739
sS'Lemma'
p5740
S'be'
p5741
sS'PartOfSpeech'
p5742
S'VBZ'
p5743
sS'CharacterOffsetBegin'
p5744
S'1477'
p5745
stp5746
a(S'personal'
p5747
(dp5748
S'NamedEntityTag'
p5749
g96
sS'CharacterOffsetEnd'
p5750
S'1488'
p5751
sS'Lemma'
p5752
S'personal'
p5753
sS'PartOfSpeech'
p5754
S'JJ'
p5755
sS'CharacterOffsetBegin'
p5756
S'1480'
p5757
stp5758
a(S'and'
p5759
(dp5760
S'NamedEntityTag'
p5761
g96
sS'CharacterOffsetEnd'
p5762
S'1492'
p5763
sS'Lemma'
p5764
S'and'
p5765
sS'PartOfSpeech'
p5766
S'CC'
p5767
sS'CharacterOffsetBegin'
p5768
S'1489'
p5769
stp5770
a(S'moral'
p5771
(dp5772
S'NamedEntityTag'
p5773
g96
sS'CharacterOffsetEnd'
p5774
S'1498'
p5775
sS'Lemma'
p5776
S'moral'
p5777
sS'PartOfSpeech'
p5778
S'JJ'
p5779
sS'CharacterOffsetBegin'
p5780
S'1493'
p5781
stp5782
a(S'and'
p5783
(dp5784
S'NamedEntityTag'
p5785
g96
sS'CharacterOffsetEnd'
p5786
S'1502'
p5787
sS'Lemma'
p5788
S'and'
p5789
sS'PartOfSpeech'
p5790
S'CC'
p5791
sS'CharacterOffsetBegin'
p5792
S'1499'
p5793
stp5794
a(S'not'
p5795
(dp5796
S'NamedEntityTag'
p5797
g96
sS'CharacterOffsetEnd'
p5798
S'1506'
p5799
sS'Lemma'
p5800
S'not'
p5801
sS'PartOfSpeech'
p5802
S'RB'
p5803
sS'CharacterOffsetBegin'
p5804
S'1503'
p5805
stp5806
a(S'meant'
p5807
(dp5808
S'NamedEntityTag'
p5809
g96
sS'CharacterOffsetEnd'
p5810
S'1512'
p5811
sS'Lemma'
p5812
S'mean'
p5813
sS'PartOfSpeech'
p5814
S'VBN'
p5815
sS'CharacterOffsetBegin'
p5816
S'1507'
p5817
stp5818
a(S'to'
p5819
(dp5820
S'NamedEntityTag'
p5821
g96
sS'CharacterOffsetEnd'
p5822
S'1515'
p5823
sS'Lemma'
p5824
S'to'
p5825
sS'PartOfSpeech'
p5826
S'TO'
p5827
sS'CharacterOffsetBegin'
p5828
S'1513'
p5829
stp5830
a(S'interfere'
p5831
(dp5832
S'NamedEntityTag'
p5833
g96
sS'CharacterOffsetEnd'
p5834
S'1525'
p5835
sS'Lemma'
p5836
S'interfere'
p5837
sS'PartOfSpeech'
p5838
S'VB'
p5839
sS'CharacterOffsetBegin'
p5840
S'1516'
p5841
stp5842
a(S'in'
p5843
(dp5844
S'NamedEntityTag'
p5845
g96
sS'CharacterOffsetEnd'
p5846
S'1528'
p5847
sS'Lemma'
p5848
S'in'
p5849
sS'PartOfSpeech'
p5850
S'IN'
p5851
sS'CharacterOffsetBegin'
p5852
S'1526'
p5853
stp5854
a(S'the'
p5855
(dp5856
S'NamedEntityTag'
p5857
g96
sS'CharacterOffsetEnd'
p5858
S'1532'
p5859
sS'Lemma'
p5860
S'the'
p5861
sS'PartOfSpeech'
p5862
S'DT'
p5863
sS'CharacterOffsetBegin'
p5864
S'1529'
p5865
stp5866
a(S'internal'
p5867
(dp5868
S'NamedEntityTag'
p5869
g96
sS'CharacterOffsetEnd'
p5870
S'1541'
p5871
sS'Lemma'
p5872
S'internal'
p5873
sS'PartOfSpeech'
p5874
S'JJ'
p5875
sS'CharacterOffsetBegin'
p5876
S'1533'
p5877
stp5878
a(S'problems'
p5879
(dp5880
S'NamedEntityTag'
p5881
g96
sS'CharacterOffsetEnd'
p5882
S'1550'
p5883
sS'Lemma'
p5884
S'problem'
p5885
sS'PartOfSpeech'
p5886
S'NNS'
p5887
sS'CharacterOffsetBegin'
p5888
S'1542'
p5889
stp5890
a(S'of'
p5891
(dp5892
S'NamedEntityTag'
p5893
g96
sS'CharacterOffsetEnd'
p5894
S'1553'
p5895
sS'Lemma'
p5896
S'of'
p5897
sS'PartOfSpeech'
p5898
S'IN'
p5899
sS'CharacterOffsetBegin'
p5900
S'1551'
p5901
stp5902
a(S'Malaysia'
p5903
(dp5904
S'NamedEntityTag'
p5905
S'LOCATION'
p5906
sS'CharacterOffsetEnd'
p5907
S'1562'
p5908
sS'Lemma'
p5909
S'Malaysia'
p5910
sS'PartOfSpeech'
p5911
S'NNP'
p5912
sS'CharacterOffsetBegin'
p5913
S'1554'
p5914
stp5915
a(g400
(dp5916
S'NamedEntityTag'
p5917
g96
sS'CharacterOffsetEnd'
p5918
S'1563'
p5919
sS'Lemma'
p5920
g400
sS'PartOfSpeech'
p5921
g400
sS'CharacterOffsetBegin'
p5922
S'1562'
p5923
stp5924
asa(dp5925
g7
S'(ROOT (S (S (NP (NNP Brillantes)) (VP (VBD said))) (: :) (S (S (NP (NP (DT The) (NN expression)) (PP (IN of) (NP (JJ personal) (NN opinion)))) (VP (VBZ is) (VP (VBN allowed) (PP (IN in) (NP (PRP$ our) (NN culture)))))) (CC and) (S (NP (PRP it)) (VP (VBZ is) (RB not) (ADJP (JJ surprising) (PP (IN for) (NP (DT that)))) (S (VP (TO to) (VP (VB happen))))))) (. .)))'
p5926
sg9
S'Brillantes said: The expression of personal opinion is allowed in our culture and it is not surprising for that to happen.'
p5927
sg11
(lp5928
(S'root'
p5929
S'ROOT'
p5930
S'said'
p5931
tp5932
a(S'nsubj'
p5933
S'said'
p5934
S'Brillantes'
p5935
tp5936
a(S'det'
p5937
S'expression'
p5938
S'The'
p5939
tp5940
a(S'nsubjpass'
p5941
S'allowed'
p5942
S'expression'
p5943
tp5944
a(S'amod'
p5945
S'opinion'
p5946
S'personal'
p5947
tp5948
a(S'prep_of'
p5949
S'expression'
p5950
S'opinion'
p5951
tp5952
a(S'auxpass'
p5953
S'allowed'
p5954
S'is'
p5955
tp5956
a(S'parataxis'
p5957
S'said'
p5958
S'allowed'
p5959
tp5960
a(S'poss'
p5961
S'culture'
p5962
S'our'
p5963
tp5964
a(S'prep_in'
p5965
S'allowed'
p5966
S'culture'
p5967
tp5968
a(S'nsubj'
p5969
S'surprising'
p5970
S'it'
p5971
tp5972
a(S'cop'
p5973
S'surprising'
p5974
S'is'
p5975
tp5976
a(S'neg'
p5977
S'surprising'
p5978
S'not'
p5979
tp5980
a(S'conj_and'
p5981
S'allowed'
p5982
S'surprising'
p5983
tp5984
a(S'prep_for'
p5985
S'surprising'
p5986
S'that'
p5987
tp5988
a(S'aux'
p5989
S'happen'
p5990
S'to'
p5991
tp5992
a(S'xcomp'
p5993
S'surprising'
p5994
S'happen'
p5995
tp5996
asg49
(lp5997
(g5929
S'ROOT-0'
p5998
S'said-2'
p5999
tp6000
a(g5933
S'said-2'
p6001
S'Brillantes-1'
p6002
tp6003
a(g5937
S'expression-5'
p6004
S'The-4'
p6005
tp6006
a(g5941
S'allowed-10'
p6007
S'expression-5'
p6008
tp6009
a(g5945
S'opinion-8'
p6010
S'personal-7'
p6011
tp6012
a(g5949
S'expression-5'
p6013
S'opinion-8'
p6014
tp6015
a(g5953
S'allowed-10'
p6016
S'is-9'
p6017
tp6018
a(g5957
S'said-2'
p6019
S'allowed-10'
p6020
tp6021
a(g5961
S'culture-13'
p6022
S'our-12'
p6023
tp6024
a(g5965
S'allowed-10'
p6025
S'culture-13'
p6026
tp6027
a(g5969
S'surprising-18'
p6028
S'it-15'
p6029
tp6030
a(g5973
S'surprising-18'
p6031
S'is-16'
p6032
tp6033
a(g5977
S'surprising-18'
p6034
S'not-17'
p6035
tp6036
a(g5981
S'allowed-10'
p6037
S'surprising-18'
p6038
tp6039
a(g5985
S'surprising-18'
p6040
S'that-20'
p6041
tp6042
a(g5989
S'happen-22'
p6043
S'to-21'
p6044
tp6045
a(g5993
S'surprising-18'
p6046
S'happen-22'
p6047
tp6048
asg78
(lp6049
(S'Brillantes'
p6050
(dp6051
S'NamedEntityTag'
p6052
S'PERSON'
p6053
sS'CharacterOffsetEnd'
p6054
S'1574'
p6055
sS'Lemma'
p6056
S'Brillantes'
p6057
sS'PartOfSpeech'
p6058
S'NNP'
p6059
sS'CharacterOffsetBegin'
p6060
S'1564'
p6061
stp6062
a(S'said'
p6063
(dp6064
S'NamedEntityTag'
p6065
g96
sS'CharacterOffsetEnd'
p6066
S'1579'
p6067
sS'Lemma'
p6068
S'say'
p6069
sS'PartOfSpeech'
p6070
S'VBD'
p6071
sS'CharacterOffsetBegin'
p6072
S'1575'
p6073
stp6074
a(S':'
p6075
(dp6076
S'NamedEntityTag'
p6077
g96
sS'CharacterOffsetEnd'
p6078
S'1580'
p6079
sS'Lemma'
p6080
g6075
sS'PartOfSpeech'
p6081
g6075
sS'CharacterOffsetBegin'
p6082
S'1579'
p6083
stp6084
a(S'The'
p6085
(dp6086
S'NamedEntityTag'
p6087
g96
sS'CharacterOffsetEnd'
p6088
S'1584'
p6089
sS'Lemma'
p6090
S'the'
p6091
sS'PartOfSpeech'
p6092
S'DT'
p6093
sS'CharacterOffsetBegin'
p6094
S'1581'
p6095
stp6096
a(S'expression'
p6097
(dp6098
S'NamedEntityTag'
p6099
g96
sS'CharacterOffsetEnd'
p6100
S'1595'
p6101
sS'Lemma'
p6102
S'expression'
p6103
sS'PartOfSpeech'
p6104
S'NN'
p6105
sS'CharacterOffsetBegin'
p6106
S'1585'
p6107
stp6108
a(S'of'
p6109
(dp6110
S'NamedEntityTag'
p6111
g96
sS'CharacterOffsetEnd'
p6112
S'1598'
p6113
sS'Lemma'
p6114
S'of'
p6115
sS'PartOfSpeech'
p6116
S'IN'
p6117
sS'CharacterOffsetBegin'
p6118
S'1596'
p6119
stp6120
a(S'personal'
p6121
(dp6122
S'NamedEntityTag'
p6123
g96
sS'CharacterOffsetEnd'
p6124
S'1607'
p6125
sS'Lemma'
p6126
S'personal'
p6127
sS'PartOfSpeech'
p6128
S'JJ'
p6129
sS'CharacterOffsetBegin'
p6130
S'1599'
p6131
stp6132
a(S'opinion'
p6133
(dp6134
S'NamedEntityTag'
p6135
g96
sS'CharacterOffsetEnd'
p6136
S'1615'
p6137
sS'Lemma'
p6138
S'opinion'
p6139
sS'PartOfSpeech'
p6140
S'NN'
p6141
sS'CharacterOffsetBegin'
p6142
S'1608'
p6143
stp6144
a(S'is'
p6145
(dp6146
S'NamedEntityTag'
p6147
g96
sS'CharacterOffsetEnd'
p6148
S'1618'
p6149
sS'Lemma'
p6150
S'be'
p6151
sS'PartOfSpeech'
p6152
S'VBZ'
p6153
sS'CharacterOffsetBegin'
p6154
S'1616'
p6155
stp6156
a(S'allowed'
p6157
(dp6158
S'NamedEntityTag'
p6159
g96
sS'CharacterOffsetEnd'
p6160
S'1626'
p6161
sS'Lemma'
p6162
S'allow'
p6163
sS'PartOfSpeech'
p6164
S'VBN'
p6165
sS'CharacterOffsetBegin'
p6166
S'1619'
p6167
stp6168
a(S'in'
p6169
(dp6170
S'NamedEntityTag'
p6171
g96
sS'CharacterOffsetEnd'
p6172
S'1629'
p6173
sS'Lemma'
p6174
S'in'
p6175
sS'PartOfSpeech'
p6176
S'IN'
p6177
sS'CharacterOffsetBegin'
p6178
S'1627'
p6179
stp6180
a(S'our'
p6181
(dp6182
S'NamedEntityTag'
p6183
g96
sS'CharacterOffsetEnd'
p6184
S'1633'
p6185
sS'Lemma'
p6186
S'we'
p6187
sS'PartOfSpeech'
p6188
S'PRP$'
p6189
sS'CharacterOffsetBegin'
p6190
S'1630'
p6191
stp6192
a(S'culture'
p6193
(dp6194
S'NamedEntityTag'
p6195
g96
sS'CharacterOffsetEnd'
p6196
S'1641'
p6197
sS'Lemma'
p6198
S'culture'
p6199
sS'PartOfSpeech'
p6200
S'NN'
p6201
sS'CharacterOffsetBegin'
p6202
S'1634'
p6203
stp6204
a(S'and'
p6205
(dp6206
S'NamedEntityTag'
p6207
g96
sS'CharacterOffsetEnd'
p6208
S'1645'
p6209
sS'Lemma'
p6210
S'and'
p6211
sS'PartOfSpeech'
p6212
S'CC'
p6213
sS'CharacterOffsetBegin'
p6214
S'1642'
p6215
stp6216
a(S'it'
p6217
(dp6218
S'NamedEntityTag'
p6219
g96
sS'CharacterOffsetEnd'
p6220
S'1648'
p6221
sS'Lemma'
p6222
S'it'
p6223
sS'PartOfSpeech'
p6224
S'PRP'
p6225
sS'CharacterOffsetBegin'
p6226
S'1646'
p6227
stp6228
a(S'is'
p6229
(dp6230
S'NamedEntityTag'
p6231
g96
sS'CharacterOffsetEnd'
p6232
S'1651'
p6233
sS'Lemma'
p6234
S'be'
p6235
sS'PartOfSpeech'
p6236
S'VBZ'
p6237
sS'CharacterOffsetBegin'
p6238
S'1649'
p6239
stp6240
a(S'not'
p6241
(dp6242
S'NamedEntityTag'
p6243
g96
sS'CharacterOffsetEnd'
p6244
S'1655'
p6245
sS'Lemma'
p6246
S'not'
p6247
sS'PartOfSpeech'
p6248
S'RB'
p6249
sS'CharacterOffsetBegin'
p6250
S'1652'
p6251
stp6252
a(S'surprising'
p6253
(dp6254
S'NamedEntityTag'
p6255
g96
sS'CharacterOffsetEnd'
p6256
S'1666'
p6257
sS'Lemma'
p6258
S'surprising'
p6259
sS'PartOfSpeech'
p6260
S'JJ'
p6261
sS'CharacterOffsetBegin'
p6262
S'1656'
p6263
stp6264
a(S'for'
p6265
(dp6266
S'NamedEntityTag'
p6267
g96
sS'CharacterOffsetEnd'
p6268
S'1670'
p6269
sS'Lemma'
p6270
S'for'
p6271
sS'PartOfSpeech'
p6272
S'IN'
p6273
sS'CharacterOffsetBegin'
p6274
S'1667'
p6275
stp6276
a(S'that'
p6277
(dp6278
S'NamedEntityTag'
p6279
g96
sS'CharacterOffsetEnd'
p6280
S'1675'
p6281
sS'Lemma'
p6282
S'that'
p6283
sS'PartOfSpeech'
p6284
S'DT'
p6285
sS'CharacterOffsetBegin'
p6286
S'1671'
p6287
stp6288
a(S'to'
p6289
(dp6290
S'NamedEntityTag'
p6291
g96
sS'CharacterOffsetEnd'
p6292
S'1678'
p6293
sS'Lemma'
p6294
S'to'
p6295
sS'PartOfSpeech'
p6296
S'TO'
p6297
sS'CharacterOffsetBegin'
p6298
S'1676'
p6299
stp6300
a(S'happen'
p6301
(dp6302
S'NamedEntityTag'
p6303
g96
sS'CharacterOffsetEnd'
p6304
S'1685'
p6305
sS'Lemma'
p6306
S'happen'
p6307
sS'PartOfSpeech'
p6308
S'VB'
p6309
sS'CharacterOffsetBegin'
p6310
S'1679'
p6311
stp6312
a(g400
(dp6313
S'NamedEntityTag'
p6314
g96
sS'CharacterOffsetEnd'
p6315
S'1686'
p6316
sS'Lemma'
p6317
g400
sS'PartOfSpeech'
p6318
g400
sS'CharacterOffsetBegin'
p6319
S'1685'
p6320
stp6321
asa(dp6322
g7
S'(ROOT (S (NP (PRP He)) (ADVP (RB also)) (VP (VBD said) (SBAR (S (NP (EX there)) (VP (VBZ is) (NP (NP (NP (DT no) (NN connection)) (PP (IN between) (NP (NNP Anwars) (NN case)))) (CC and) (NP (NP (DT the) (NN summit) (NN meeting)) (PP (IN in) (NP (NP (NNP Malaysia)) (PP (IN of) (NP (DT the) (NNP Asia) (NNP Pacific) (NNP Economic) (NNP Cooperation) (NN forum))))))))))) (. .)))'
p6323
sg9
S'He also said there is no connection between Anwars case and the summit meeting in Malaysia of the Asia Pacific Economic Cooperation forum.'
p6324
sg11
(lp6325
(S'root'
p6326
S'ROOT'
p6327
S'said'
p6328
tp6329
a(S'nsubj'
p6330
S'said'
p6331
S'He'
p6332
tp6333
a(S'advmod'
p6334
S'said'
p6335
S'also'
p6336
tp6337
a(S'expl'
p6338
S'is'
p6339
S'there'
p6340
tp6341
a(S'ccomp'
p6342
S'said'
p6343
S'is'
p6344
tp6345
a(S'det'
p6346
S'connection'
p6347
S'no'
p6348
tp6349
a(S'nsubj'
p6350
S'is'
p6351
S'connection'
p6352
tp6353
a(S'nn'
p6354
S'case'
p6355
S'Anwars'
p6356
tp6357
a(S'prep_between'
p6358
S'connection'
p6359
S'case'
p6360
tp6361
a(S'det'
p6362
S'meeting'
p6363
S'the'
p6364
tp6365
a(S'nn'
p6366
S'meeting'
p6367
S'summit'
p6368
tp6369
a(S'conj_and'
p6370
S'connection'
p6371
S'meeting'
p6372
tp6373
a(S'prep_in'
p6374
S'meeting'
p6375
S'Malaysia'
p6376
tp6377
a(S'det'
p6378
S'forum'
p6379
S'the'
p6380
tp6381
a(S'nn'
p6382
S'forum'
p6383
S'Asia'
p6384
tp6385
a(S'nn'
p6386
S'forum'
p6387
S'Pacific'
p6388
tp6389
a(S'nn'
p6390
S'forum'
p6391
S'Economic'
p6392
tp6393
a(S'nn'
p6394
S'forum'
p6395
S'Cooperation'
p6396
tp6397
a(S'prep_of'
p6398
S'Malaysia'
p6399
S'forum'
p6400
tp6401
asg49
(lp6402
(g6326
S'ROOT-0'
p6403
S'said-3'
p6404
tp6405
a(g6330
S'said-3'
p6406
S'He-1'
p6407
tp6408
a(g6334
S'said-3'
p6409
S'also-2'
p6410
tp6411
a(g6338
S'is-5'
p6412
S'there-4'
p6413
tp6414
a(g6342
S'said-3'
p6415
S'is-5'
p6416
tp6417
a(g6346
S'connection-7'
p6418
S'no-6'
p6419
tp6420
a(g6350
S'is-5'
p6421
S'connection-7'
p6422
tp6423
a(g6354
S'case-10'
p6424
S'Anwars-9'
p6425
tp6426
a(g6358
S'connection-7'
p6427
S'case-10'
p6428
tp6429
a(g6362
S'meeting-14'
p6430
S'the-12'
p6431
tp6432
a(g6366
S'meeting-14'
p6433
S'summit-13'
p6434
tp6435
a(g6370
S'connection-7'
p6436
S'meeting-14'
p6437
tp6438
a(g6374
S'meeting-14'
p6439
S'Malaysia-16'
p6440
tp6441
a(g6378
S'forum-23'
p6442
S'the-18'
p6443
tp6444
a(g6382
S'forum-23'
p6445
S'Asia-19'
p6446
tp6447
a(g6386
S'forum-23'
p6448
S'Pacific-20'
p6449
tp6450
a(g6390
S'forum-23'
p6451
S'Economic-21'
p6452
tp6453
a(g6394
S'forum-23'
p6454
S'Cooperation-22'
p6455
tp6456
a(g6398
S'Malaysia-16'
p6457
S'forum-23'
p6458
tp6459
asg78
(lp6460
(S'He'
p6461
(dp6462
S'NamedEntityTag'
p6463
g96
sS'CharacterOffsetEnd'
p6464
S'1689'
p6465
sS'Lemma'
p6466
S'he'
p6467
sS'PartOfSpeech'
p6468
S'PRP'
p6469
sS'CharacterOffsetBegin'
p6470
S'1687'
p6471
stp6472
a(S'also'
p6473
(dp6474
S'NamedEntityTag'
p6475
g96
sS'CharacterOffsetEnd'
p6476
S'1694'
p6477
sS'Lemma'
p6478
S'also'
p6479
sS'PartOfSpeech'
p6480
S'RB'
p6481
sS'CharacterOffsetBegin'
p6482
S'1690'
p6483
stp6484
a(S'said'
p6485
(dp6486
S'NamedEntityTag'
p6487
g96
sS'CharacterOffsetEnd'
p6488
S'1699'
p6489
sS'Lemma'
p6490
S'say'
p6491
sS'PartOfSpeech'
p6492
S'VBD'
p6493
sS'CharacterOffsetBegin'
p6494
S'1695'
p6495
stp6496
a(S'there'
p6497
(dp6498
S'NamedEntityTag'
p6499
g96
sS'CharacterOffsetEnd'
p6500
S'1705'
p6501
sS'Lemma'
p6502
S'there'
p6503
sS'PartOfSpeech'
p6504
S'EX'
p6505
sS'CharacterOffsetBegin'
p6506
S'1700'
p6507
stp6508
a(S'is'
p6509
(dp6510
S'NamedEntityTag'
p6511
g96
sS'CharacterOffsetEnd'
p6512
S'1708'
p6513
sS'Lemma'
p6514
S'be'
p6515
sS'PartOfSpeech'
p6516
S'VBZ'
p6517
sS'CharacterOffsetBegin'
p6518
S'1706'
p6519
stp6520
a(S'no'
p6521
(dp6522
S'NamedEntityTag'
p6523
g96
sS'CharacterOffsetEnd'
p6524
S'1711'
p6525
sS'Lemma'
p6526
S'no'
p6527
sS'PartOfSpeech'
p6528
S'DT'
p6529
sS'CharacterOffsetBegin'
p6530
S'1709'
p6531
stp6532
a(S'connection'
p6533
(dp6534
S'NamedEntityTag'
p6535
g96
sS'CharacterOffsetEnd'
p6536
S'1722'
p6537
sS'Lemma'
p6538
S'connection'
p6539
sS'PartOfSpeech'
p6540
S'NN'
p6541
sS'CharacterOffsetBegin'
p6542
S'1712'
p6543
stp6544
a(S'between'
p6545
(dp6546
S'NamedEntityTag'
p6547
g96
sS'CharacterOffsetEnd'
p6548
S'1730'
p6549
sS'Lemma'
p6550
S'between'
p6551
sS'PartOfSpeech'
p6552
S'IN'
p6553
sS'CharacterOffsetBegin'
p6554
S'1723'
p6555
stp6556
a(S'Anwars'
p6557
(dp6558
S'NamedEntityTag'
p6559
S'PERSON'
p6560
sS'CharacterOffsetEnd'
p6561
S'1737'
p6562
sS'Lemma'
p6563
S'Anwars'
p6564
sS'PartOfSpeech'
p6565
S'NNP'
p6566
sS'CharacterOffsetBegin'
p6567
S'1731'
p6568
stp6569
a(S'case'
p6570
(dp6571
S'NamedEntityTag'
p6572
g96
sS'CharacterOffsetEnd'
p6573
S'1742'
p6574
sS'Lemma'
p6575
S'case'
p6576
sS'PartOfSpeech'
p6577
S'NN'
p6578
sS'CharacterOffsetBegin'
p6579
S'1738'
p6580
stp6581
a(S'and'
p6582
(dp6583
S'NamedEntityTag'
p6584
g96
sS'CharacterOffsetEnd'
p6585
S'1746'
p6586
sS'Lemma'
p6587
S'and'
p6588
sS'PartOfSpeech'
p6589
S'CC'
p6590
sS'CharacterOffsetBegin'
p6591
S'1743'
p6592
stp6593
a(S'the'
p6594
(dp6595
S'NamedEntityTag'
p6596
g96
sS'CharacterOffsetEnd'
p6597
S'1750'
p6598
sS'Lemma'
p6599
S'the'
p6600
sS'PartOfSpeech'
p6601
S'DT'
p6602
sS'CharacterOffsetBegin'
p6603
S'1747'
p6604
stp6605
a(S'summit'
p6606
(dp6607
S'NamedEntityTag'
p6608
g96
sS'CharacterOffsetEnd'
p6609
S'1757'
p6610
sS'Lemma'
p6611
S'summit'
p6612
sS'PartOfSpeech'
p6613
S'NN'
p6614
sS'CharacterOffsetBegin'
p6615
S'1751'
p6616
stp6617
a(S'meeting'
p6618
(dp6619
S'NamedEntityTag'
p6620
g96
sS'CharacterOffsetEnd'
p6621
S'1765'
p6622
sS'Lemma'
p6623
S'meeting'
p6624
sS'PartOfSpeech'
p6625
S'NN'
p6626
sS'CharacterOffsetBegin'
p6627
S'1758'
p6628
stp6629
a(S'in'
p6630
(dp6631
S'NamedEntityTag'
p6632
g96
sS'CharacterOffsetEnd'
p6633
S'1768'
p6634
sS'Lemma'
p6635
S'in'
p6636
sS'PartOfSpeech'
p6637
S'IN'
p6638
sS'CharacterOffsetBegin'
p6639
S'1766'
p6640
stp6641
a(S'Malaysia'
p6642
(dp6643
S'NamedEntityTag'
p6644
S'LOCATION'
p6645
sS'CharacterOffsetEnd'
p6646
S'1777'
p6647
sS'Lemma'
p6648
S'Malaysia'
p6649
sS'PartOfSpeech'
p6650
S'NNP'
p6651
sS'CharacterOffsetBegin'
p6652
S'1769'
p6653
stp6654
a(S'of'
p6655
(dp6656
S'NamedEntityTag'
p6657
g96
sS'CharacterOffsetEnd'
p6658
S'1780'
p6659
sS'Lemma'
p6660
S'of'
p6661
sS'PartOfSpeech'
p6662
S'IN'
p6663
sS'CharacterOffsetBegin'
p6664
S'1778'
p6665
stp6666
a(S'the'
p6667
(dp6668
S'NamedEntityTag'
p6669
g96
sS'CharacterOffsetEnd'
p6670
S'1784'
p6671
sS'Lemma'
p6672
S'the'
p6673
sS'PartOfSpeech'
p6674
S'DT'
p6675
sS'CharacterOffsetBegin'
p6676
S'1781'
p6677
stp6678
a(S'Asia'
p6679
(dp6680
S'NamedEntityTag'
p6681
S'LOCATION'
p6682
sS'CharacterOffsetEnd'
p6683
S'1789'
p6684
sS'Lemma'
p6685
S'Asia'
p6686
sS'PartOfSpeech'
p6687
S'NNP'
p6688
sS'CharacterOffsetBegin'
p6689
S'1785'
p6690
stp6691
a(S'Pacific'
p6692
(dp6693
S'NamedEntityTag'
p6694
g96
sS'CharacterOffsetEnd'
p6695
S'1797'
p6696
sS'Lemma'
p6697
S'Pacific'
p6698
sS'PartOfSpeech'
p6699
S'NNP'
p6700
sS'CharacterOffsetBegin'
p6701
S'1790'
p6702
stp6703
a(S'Economic'
p6704
(dp6705
S'NamedEntityTag'
p6706
g96
sS'CharacterOffsetEnd'
p6707
S'1806'
p6708
sS'Lemma'
p6709
S'Economic'
p6710
sS'PartOfSpeech'
p6711
S'NNP'
p6712
sS'CharacterOffsetBegin'
p6713
S'1798'
p6714
stp6715
a(S'Cooperation'
p6716
(dp6717
S'NamedEntityTag'
p6718
g96
sS'CharacterOffsetEnd'
p6719
S'1818'
p6720
sS'Lemma'
p6721
S'Cooperation'
p6722
sS'PartOfSpeech'
p6723
S'NNP'
p6724
sS'CharacterOffsetBegin'
p6725
S'1807'
p6726
stp6727
a(S'forum'
p6728
(dp6729
S'NamedEntityTag'
p6730
g96
sS'CharacterOffsetEnd'
p6731
S'1824'
p6732
sS'Lemma'
p6733
S'forum'
p6734
sS'PartOfSpeech'
p6735
S'NN'
p6736
sS'CharacterOffsetBegin'
p6737
S'1819'
p6738
stp6739
a(g400
(dp6740
S'NamedEntityTag'
p6741
g96
sS'CharacterOffsetEnd'
p6742
S'1825'
p6743
sS'Lemma'
p6744
g400
sS'PartOfSpeech'
p6745
g400
sS'CharacterOffsetBegin'
p6746
S'1824'
p6747
stp6748
asa(dp6749
g7
S'(ROOT (S (S (NP (PRP We)) (ADVP (RB still)) (VP (VBP consider) (PRN (, ,) (ADVP (RB as) (S (VP (VBN expressed) (PP (IN by) (NP (PRP$ our) (NN president)))))) (, ,)) (SBAR (WHNP (WDT that)) (S (NP (NNP APEC)) (VP (VBZ is) (ADJP (JJ important) (PP (TO to) (NP (PRP us))))))))) (, ,) (NP (PRP he)) (VP (VBD said)) (. .)))'
p6750
sg9
S'We still consider, as expressed by our president, that APEC is important to us, he said.'
p6751
sg11
(lp6752
(S'root'
p6753
S'ROOT'
p6754
S'said'
p6755
tp6756
a(S'nsubj'
p6757
S'consider'
p6758
S'We'
p6759
tp6760
a(S'advmod'
p6761
S'consider'
p6762
S'still'
p6763
tp6764
a(S'ccomp'
p6765
S'said'
p6766
S'consider'
p6767
tp6768
a(S'dep'
p6769
S'consider'
p6770
S'as'
p6771
tp6772
a(S'dep'
p6773
S'as'
p6774
S'expressed'
p6775
tp6776
a(S'poss'
p6777
S'president'
p6778
S'our'
p6779
tp6780
a(S'prep_by'
p6781
S'expressed'
p6782
S'president'
p6783
tp6784
a(S'dobj'
p6785
S'important'
p6786
S'that'
p6787
tp6788
a(S'nsubj'
p6789
S'important'
p6790
S'APEC'
p6791
tp6792
a(S'cop'
p6793
S'important'
p6794
S'is'
p6795
tp6796
a(S'ccomp'
p6797
S'consider'
p6798
S'important'
p6799
tp6800
a(S'prep_to'
p6801
S'important'
p6802
S'us'
p6803
tp6804
a(S'nsubj'
p6805
S'said'
p6806
S'he'
p6807
tp6808
asg49
(lp6809
(g6753
S'ROOT-0'
p6810
S'said-19'
p6811
tp6812
a(g6757
S'consider-3'
p6813
S'We-1'
p6814
tp6815
a(g6761
S'consider-3'
p6816
S'still-2'
p6817
tp6818
a(g6765
S'said-19'
p6819
S'consider-3'
p6820
tp6821
a(g6769
S'consider-3'
p6822
S'as-5'
p6823
tp6824
a(g6773
S'as-5'
p6825
S'expressed-6'
p6826
tp6827
a(g6777
S'president-9'
p6828
S'our-8'
p6829
tp6830
a(g6781
S'expressed-6'
p6831
S'president-9'
p6832
tp6833
a(g6785
S'important-14'
p6834
S'that-11'
p6835
tp6836
a(g6789
S'important-14'
p6837
S'APEC-12'
p6838
tp6839
a(g6793
S'important-14'
p6840
S'is-13'
p6841
tp6842
a(g6797
S'consider-3'
p6843
S'important-14'
p6844
tp6845
a(g6801
S'important-14'
p6846
S'us-16'
p6847
tp6848
a(g6805
S'said-19'
p6849
S'he-18'
p6850
tp6851
asg78
(lp6852
(S'We'
p6853
(dp6854
S'NamedEntityTag'
p6855
g96
sS'CharacterOffsetEnd'
p6856
S'1828'
p6857
sS'Lemma'
p6858
S'we'
p6859
sS'PartOfSpeech'
p6860
S'PRP'
p6861
sS'CharacterOffsetBegin'
p6862
S'1826'
p6863
stp6864
a(S'still'
p6865
(dp6866
S'NamedEntityTag'
p6867
g96
sS'CharacterOffsetEnd'
p6868
S'1834'
p6869
sS'Lemma'
p6870
S'still'
p6871
sS'PartOfSpeech'
p6872
S'RB'
p6873
sS'CharacterOffsetBegin'
p6874
S'1829'
p6875
stp6876
a(S'consider'
p6877
(dp6878
S'NamedEntityTag'
p6879
g96
sS'CharacterOffsetEnd'
p6880
S'1843'
p6881
sS'Lemma'
p6882
S'consider'
p6883
sS'PartOfSpeech'
p6884
S'VBP'
p6885
sS'CharacterOffsetBegin'
p6886
S'1835'
p6887
stp6888
a(g559
(dp6889
S'NamedEntityTag'
p6890
g96
sS'CharacterOffsetEnd'
p6891
S'1844'
p6892
sS'Lemma'
p6893
g559
sS'PartOfSpeech'
p6894
g559
sS'CharacterOffsetBegin'
p6895
S'1843'
p6896
stp6897
a(S'as'
p6898
(dp6899
S'NamedEntityTag'
p6900
g96
sS'CharacterOffsetEnd'
p6901
S'1847'
p6902
sS'Lemma'
p6903
S'as'
p6904
sS'PartOfSpeech'
p6905
S'RB'
p6906
sS'CharacterOffsetBegin'
p6907
S'1845'
p6908
stp6909
a(S'expressed'
p6910
(dp6911
S'NamedEntityTag'
p6912
g96
sS'CharacterOffsetEnd'
p6913
S'1857'
p6914
sS'Lemma'
p6915
S'express'
p6916
sS'PartOfSpeech'
p6917
S'VBN'
p6918
sS'CharacterOffsetBegin'
p6919
S'1848'
p6920
stp6921
a(S'by'
p6922
(dp6923
S'NamedEntityTag'
p6924
g96
sS'CharacterOffsetEnd'
p6925
S'1860'
p6926
sS'Lemma'
p6927
S'by'
p6928
sS'PartOfSpeech'
p6929
S'IN'
p6930
sS'CharacterOffsetBegin'
p6931
S'1858'
p6932
stp6933
a(S'our'
p6934
(dp6935
S'NamedEntityTag'
p6936
g96
sS'CharacterOffsetEnd'
p6937
S'1864'
p6938
sS'Lemma'
p6939
S'we'
p6940
sS'PartOfSpeech'
p6941
S'PRP$'
p6942
sS'CharacterOffsetBegin'
p6943
S'1861'
p6944
stp6945
a(S'president'
p6946
(dp6947
S'NamedEntityTag'
p6948
g96
sS'CharacterOffsetEnd'
p6949
S'1874'
p6950
sS'Lemma'
p6951
S'president'
p6952
sS'PartOfSpeech'
p6953
S'NN'
p6954
sS'CharacterOffsetBegin'
p6955
S'1865'
p6956
stp6957
a(g559
(dp6958
S'NamedEntityTag'
p6959
g96
sS'CharacterOffsetEnd'
p6960
S'1875'
p6961
sS'Lemma'
p6962
g559
sS'PartOfSpeech'
p6963
g559
sS'CharacterOffsetBegin'
p6964
S'1874'
p6965
stp6966
a(S'that'
p6967
(dp6968
S'NamedEntityTag'
p6969
g96
sS'CharacterOffsetEnd'
p6970
S'1880'
p6971
sS'Lemma'
p6972
S'that'
p6973
sS'PartOfSpeech'
p6974
S'WDT'
p6975
sS'CharacterOffsetBegin'
p6976
S'1876'
p6977
stp6978
a(S'APEC'
p6979
(dp6980
S'NamedEntityTag'
p6981
S'ORGANIZATION'
p6982
sS'CharacterOffsetEnd'
p6983
S'1885'
p6984
sS'Lemma'
p6985
S'APEC'
p6986
sS'PartOfSpeech'
p6987
S'NNP'
p6988
sS'CharacterOffsetBegin'
p6989
S'1881'
p6990
stp6991
a(S'is'
p6992
(dp6993
S'NamedEntityTag'
p6994
g96
sS'CharacterOffsetEnd'
p6995
S'1888'
p6996
sS'Lemma'
p6997
S'be'
p6998
sS'PartOfSpeech'
p6999
S'VBZ'
p7000
sS'CharacterOffsetBegin'
p7001
S'1886'
p7002
stp7003
a(S'important'
p7004
(dp7005
S'NamedEntityTag'
p7006
g96
sS'CharacterOffsetEnd'
p7007
S'1898'
p7008
sS'Lemma'
p7009
S'important'
p7010
sS'PartOfSpeech'
p7011
S'JJ'
p7012
sS'CharacterOffsetBegin'
p7013
S'1889'
p7014
stp7015
a(S'to'
p7016
(dp7017
S'NamedEntityTag'
p7018
g96
sS'CharacterOffsetEnd'
p7019
S'1901'
p7020
sS'Lemma'
p7021
S'to'
p7022
sS'PartOfSpeech'
p7023
S'TO'
p7024
sS'CharacterOffsetBegin'
p7025
S'1899'
p7026
stp7027
a(S'us'
p7028
(dp7029
S'NamedEntityTag'
p7030
g96
sS'CharacterOffsetEnd'
p7031
S'1904'
p7032
sS'Lemma'
p7033
S'we'
p7034
sS'PartOfSpeech'
p7035
S'PRP'
p7036
sS'CharacterOffsetBegin'
p7037
S'1902'
p7038
stp7039
a(g559
(dp7040
S'NamedEntityTag'
p7041
g96
sS'CharacterOffsetEnd'
p7042
S'1905'
p7043
sS'Lemma'
p7044
g559
sS'PartOfSpeech'
p7045
g559
sS'CharacterOffsetBegin'
p7046
S'1904'
p7047
stp7048
a(S'he'
p7049
(dp7050
S'NamedEntityTag'
p7051
g96
sS'CharacterOffsetEnd'
p7052
S'1908'
p7053
sS'Lemma'
p7054
S'he'
p7055
sS'PartOfSpeech'
p7056
S'PRP'
p7057
sS'CharacterOffsetBegin'
p7058
S'1906'
p7059
stp7060
a(S'said'
p7061
(dp7062
S'NamedEntityTag'
p7063
g96
sS'CharacterOffsetEnd'
p7064
S'1913'
p7065
sS'Lemma'
p7066
S'say'
p7067
sS'PartOfSpeech'
p7068
S'VBD'
p7069
sS'CharacterOffsetBegin'
p7070
S'1909'
p7071
stp7072
a(g400
(dp7073
S'NamedEntityTag'
p7074
g96
sS'CharacterOffsetEnd'
p7075
S'1914'
p7076
sS'Lemma'
p7077
g400
sS'PartOfSpeech'
p7078
g400
sS'CharacterOffsetBegin'
p7079
S'1913'
p7080
stp7081
asa(dp7082
g7
S'(ROOT (S (S (NP (PRP He)) (VP (VBD did) (RB not) (VP (VB say) (SBAR (WHADVP (WRB how)) (S (NP (DT the) (JJ Malaysian) (NNS officials)) (VP (VBD reacted))))))) (, ,) (CC but) (S (NP (PRP he)) (VP (VBD said) (SBAR (S (NP (PRP he)) (VP (VBD was) (RB not) (VP (VBN reprimanded))))))) (. .)))'
p7083
sg9
S'He did not say how the Malaysian officials reacted, but he said he was not reprimanded.'
p7084
sg11
(lp7085
(S'root'
p7086
S'ROOT'
p7087
S'say'
p7088
tp7089
a(S'nsubj'
p7090
S'say'
p7091
S'He'
p7092
tp7093
a(S'aux'
p7094
S'say'
p7095
S'did'
p7096
tp7097
a(S'neg'
p7098
S'say'
p7099
S'not'
p7100
tp7101
a(S'advmod'
p7102
S'reacted'
p7103
S'how'
p7104
tp7105
a(S'det'
p7106
S'officials'
p7107
S'the'
p7108
tp7109
a(S'amod'
p7110
S'officials'
p7111
S'Malaysian'
p7112
tp7113
a(S'nsubj'
p7114
S'reacted'
p7115
S'officials'
p7116
tp7117
a(S'ccomp'
p7118
S'say'
p7119
S'reacted'
p7120
tp7121
a(S'nsubj'
p7122
S'said'
p7123
S'he'
p7124
tp7125
a(S'conj_but'
p7126
S'say'
p7127
S'said'
p7128
tp7129
a(S'nsubjpass'
p7130
S'reprimanded'
p7131
S'he'
p7132
tp7133
a(S'auxpass'
p7134
S'reprimanded'
p7135
S'was'
p7136
tp7137
a(S'neg'
p7138
S'reprimanded'
p7139
S'not'
p7140
tp7141
a(S'ccomp'
p7142
S'said'
p7143
S'reprimanded'
p7144
tp7145
asg49
(lp7146
(g7086
S'ROOT-0'
p7147
S'say-4'
p7148
tp7149
a(g7090
S'say-4'
p7150
S'He-1'
p7151
tp7152
a(g7094
S'say-4'
p7153
S'did-2'
p7154
tp7155
a(g7098
S'say-4'
p7156
S'not-3'
p7157
tp7158
a(g7102
S'reacted-9'
p7159
S'how-5'
p7160
tp7161
a(g7106
S'officials-8'
p7162
S'the-6'
p7163
tp7164
a(g7110
S'officials-8'
p7165
S'Malaysian-7'
p7166
tp7167
a(g7114
S'reacted-9'
p7168
S'officials-8'
p7169
tp7170
a(g7118
S'say-4'
p7171
S'reacted-9'
p7172
tp7173
a(g7122
S'said-13'
p7174
S'he-12'
p7175
tp7176
a(g7126
S'say-4'
p7177
S'said-13'
p7178
tp7179
a(g7130
S'reprimanded-17'
p7180
S'he-14'
p7181
tp7182
a(g7134
S'reprimanded-17'
p7183
S'was-15'
p7184
tp7185
a(g7138
S'reprimanded-17'
p7186
S'not-16'
p7187
tp7188
a(g7142
S'said-13'
p7189
S'reprimanded-17'
p7190
tp7191
asg78
(lp7192
(S'He'
p7193
(dp7194
S'NamedEntityTag'
p7195
g96
sS'CharacterOffsetEnd'
p7196
S'1917'
p7197
sS'Lemma'
p7198
S'he'
p7199
sS'PartOfSpeech'
p7200
S'PRP'
p7201
sS'CharacterOffsetBegin'
p7202
S'1915'
p7203
stp7204
a(S'did'
p7205
(dp7206
S'NamedEntityTag'
p7207
g96
sS'CharacterOffsetEnd'
p7208
S'1921'
p7209
sS'Lemma'
p7210
S'do'
p7211
sS'PartOfSpeech'
p7212
S'VBD'
p7213
sS'CharacterOffsetBegin'
p7214
S'1918'
p7215
stp7216
a(S'not'
p7217
(dp7218
S'NamedEntityTag'
p7219
g96
sS'CharacterOffsetEnd'
p7220
S'1925'
p7221
sS'Lemma'
p7222
S'not'
p7223
sS'PartOfSpeech'
p7224
S'RB'
p7225
sS'CharacterOffsetBegin'
p7226
S'1922'
p7227
stp7228
a(S'say'
p7229
(dp7230
S'NamedEntityTag'
p7231
g96
sS'CharacterOffsetEnd'
p7232
S'1929'
p7233
sS'Lemma'
p7234
S'say'
p7235
sS'PartOfSpeech'
p7236
S'VB'
p7237
sS'CharacterOffsetBegin'
p7238
S'1926'
p7239
stp7240
a(S'how'
p7241
(dp7242
S'NamedEntityTag'
p7243
g96
sS'CharacterOffsetEnd'
p7244
S'1933'
p7245
sS'Lemma'
p7246
S'how'
p7247
sS'PartOfSpeech'
p7248
S'WRB'
p7249
sS'CharacterOffsetBegin'
p7250
S'1930'
p7251
stp7252
a(S'the'
p7253
(dp7254
S'NamedEntityTag'
p7255
g96
sS'CharacterOffsetEnd'
p7256
S'1937'
p7257
sS'Lemma'
p7258
S'the'
p7259
sS'PartOfSpeech'
p7260
S'DT'
p7261
sS'CharacterOffsetBegin'
p7262
S'1934'
p7263
stp7264
a(S'Malaysian'
p7265
(dp7266
S'NamedEntityTag'
p7267
S'LOCATION'
p7268
sS'CharacterOffsetEnd'
p7269
S'1947'
p7270
sS'Lemma'
p7271
S'malaysian'
p7272
sS'PartOfSpeech'
p7273
S'JJ'
p7274
sS'CharacterOffsetBegin'
p7275
S'1938'
p7276
stp7277
a(S'officials'
p7278
(dp7279
S'NamedEntityTag'
p7280
g96
sS'CharacterOffsetEnd'
p7281
S'1957'
p7282
sS'Lemma'
p7283
S'official'
p7284
sS'PartOfSpeech'
p7285
S'NNS'
p7286
sS'CharacterOffsetBegin'
p7287
S'1948'
p7288
stp7289
a(S'reacted'
p7290
(dp7291
S'NamedEntityTag'
p7292
g96
sS'CharacterOffsetEnd'
p7293
S'1965'
p7294
sS'Lemma'
p7295
S'react'
p7296
sS'PartOfSpeech'
p7297
S'VBD'
p7298
sS'CharacterOffsetBegin'
p7299
S'1958'
p7300
stp7301
a(g559
(dp7302
S'NamedEntityTag'
p7303
g96
sS'CharacterOffsetEnd'
p7304
S'1966'
p7305
sS'Lemma'
p7306
g559
sS'PartOfSpeech'
p7307
g559
sS'CharacterOffsetBegin'
p7308
S'1965'
p7309
stp7310
a(S'but'
p7311
(dp7312
S'NamedEntityTag'
p7313
g96
sS'CharacterOffsetEnd'
p7314
S'1970'
p7315
sS'Lemma'
p7316
S'but'
p7317
sS'PartOfSpeech'
p7318
S'CC'
p7319
sS'CharacterOffsetBegin'
p7320
S'1967'
p7321
stp7322
a(S'he'
p7323
(dp7324
S'NamedEntityTag'
p7325
g96
sS'CharacterOffsetEnd'
p7326
S'1973'
p7327
sS'Lemma'
p7328
S'he'
p7329
sS'PartOfSpeech'
p7330
S'PRP'
p7331
sS'CharacterOffsetBegin'
p7332
S'1971'
p7333
stp7334
a(S'said'
p7335
(dp7336
S'NamedEntityTag'
p7337
g96
sS'CharacterOffsetEnd'
p7338
S'1978'
p7339
sS'Lemma'
p7340
S'say'
p7341
sS'PartOfSpeech'
p7342
S'VBD'
p7343
sS'CharacterOffsetBegin'
p7344
S'1974'
p7345
stp7346
a(S'he'
p7347
(dp7348
S'NamedEntityTag'
p7349
g96
sS'CharacterOffsetEnd'
p7350
S'1981'
p7351
sS'Lemma'
p7352
S'he'
p7353
sS'PartOfSpeech'
p7354
S'PRP'
p7355
sS'CharacterOffsetBegin'
p7356
S'1979'
p7357
stp7358
a(S'was'
p7359
(dp7360
S'NamedEntityTag'
p7361
g96
sS'CharacterOffsetEnd'
p7362
S'1985'
p7363
sS'Lemma'
p7364
S'be'
p7365
sS'PartOfSpeech'
p7366
S'VBD'
p7367
sS'CharacterOffsetBegin'
p7368
S'1982'
p7369
stp7370
a(S'not'
p7371
(dp7372
S'NamedEntityTag'
p7373
g96
sS'CharacterOffsetEnd'
p7374
S'1989'
p7375
sS'Lemma'
p7376
S'not'
p7377
sS'PartOfSpeech'
p7378
S'RB'
p7379
sS'CharacterOffsetBegin'
p7380
S'1986'
p7381
stp7382
a(S'reprimanded'
p7383
(dp7384
S'NamedEntityTag'
p7385
g96
sS'CharacterOffsetEnd'
p7386
S'2001'
p7387
sS'Lemma'
p7388
S'reprimand'
p7389
sS'PartOfSpeech'
p7390
S'VBN'
p7391
sS'CharacterOffsetBegin'
p7392
S'1990'
p7393
stp7394
a(g400
(dp7395
S'NamedEntityTag'
p7396
g96
sS'CharacterOffsetEnd'
p7397
S'2002'
p7398
sS'Lemma'
p7399
g400
sS'PartOfSpeech'
p7400
g400
sS'CharacterOffsetBegin'
p7401
S'2001'
p7402
stp7403
asa(dp7404
g7
S'(ROOT (S (ADVP (RB Meanwhile)) (, ,) (NP (NP (DT a) (NN group)) (NP (JJ Philippine) (NNS legislators))) (VP (VBD said) (SBAR (S (NP (PRP they)) (VP (VBP plan) (S (VP (TO to) (VP (VB attend) (NP (NP (JJ Anwars) (NN trial)) (, ,) (SBAR (WHNP (WDT which)) (S (VP (VBZ opens) (NP-TMP (NNP Nov) (CD 2))))))))))))) (. .)))'
p7405
sg9
S'Meanwhile, a group Philippine legislators said they plan to attend Anwars trial, which opens Nov 2.'
p7406
sg11
(lp7407
(S'root'
p7408
S'ROOT'
p7409
S'said'
p7410
tp7411
a(S'advmod'
p7412
S'said'
p7413
S'Meanwhile'
p7414
tp7415
a(S'det'
p7416
S'group'
p7417
g1587
tp7418
a(S'nsubj'
p7419
S'said'
p7420
S'group'
p7421
tp7422
a(S'amod'
p7423
S'legislators'
p7424
S'Philippine'
p7425
tp7426
a(S'dep'
p7427
S'group'
p7428
S'legislators'
p7429
tp7430
a(S'nsubj'
p7431
S'plan'
p7432
S'they'
p7433
tp7434
a(S'ccomp'
p7435
S'said'
p7436
S'plan'
p7437
tp7438
a(S'aux'
p7439
S'attend'
p7440
S'to'
p7441
tp7442
a(S'xcomp'
p7443
S'plan'
p7444
S'attend'
p7445
tp7446
a(S'amod'
p7447
S'trial'
p7448
S'Anwars'
p7449
tp7450
a(S'dobj'
p7451
S'attend'
p7452
S'trial'
p7453
tp7454
a(S'nsubj'
p7455
S'opens'
p7456
S'which'
p7457
tp7458
a(S'rcmod'
p7459
S'trial'
p7460
S'opens'
p7461
tp7462
a(S'tmod'
p7463
S'opens'
p7464
S'Nov'
p7465
tp7466
a(S'num'
p7467
S'Nov'
p7468
S'2'
p7469
tp7470
asg49
(lp7471
(g7408
S'ROOT-0'
p7472
S'said-7'
p7473
tp7474
a(g7412
S'said-7'
p7475
S'Meanwhile-1'
p7476
tp7477
a(g7416
S'group-4'
p7478
S'a-3'
p7479
tp7480
a(g7419
S'said-7'
p7481
S'group-4'
p7482
tp7483
a(g7423
S'legislators-6'
p7484
S'Philippine-5'
p7485
tp7486
a(g7427
S'group-4'
p7487
S'legislators-6'
p7488
tp7489
a(g7431
S'plan-9'
p7490
S'they-8'
p7491
tp7492
a(g7435
S'said-7'
p7493
S'plan-9'
p7494
tp7495
a(g7439
S'attend-11'
p7496
S'to-10'
p7497
tp7498
a(g7443
S'plan-9'
p7499
S'attend-11'
p7500
tp7501
a(g7447
S'trial-13'
p7502
S'Anwars-12'
p7503
tp7504
a(g7451
S'attend-11'
p7505
S'trial-13'
p7506
tp7507
a(g7455
S'opens-16'
p7508
S'which-15'
p7509
tp7510
a(g7459
S'trial-13'
p7511
S'opens-16'
p7512
tp7513
a(g7463
S'opens-16'
p7514
S'Nov-17'
p7515
tp7516
a(g7467
S'Nov-17'
p7517
S'2-18'
p7518
tp7519
asg78
(lp7520
(S'Meanwhile'
p7521
(dp7522
S'NamedEntityTag'
p7523
g96
sS'CharacterOffsetEnd'
p7524
S'2012'
p7525
sS'Lemma'
p7526
S'meanwhile'
p7527
sS'PartOfSpeech'
p7528
S'RB'
p7529
sS'CharacterOffsetBegin'
p7530
S'2003'
p7531
stp7532
a(g559
(dp7533
S'NamedEntityTag'
p7534
g96
sS'CharacterOffsetEnd'
p7535
S'2013'
p7536
sS'Lemma'
p7537
g559
sS'PartOfSpeech'
p7538
g559
sS'CharacterOffsetBegin'
p7539
S'2012'
p7540
stp7541
a(g1587
(dp7542
S'NamedEntityTag'
p7543
g96
sS'CharacterOffsetEnd'
p7544
S'2015'
p7545
sS'Lemma'
p7546
g1587
sS'PartOfSpeech'
p7547
S'DT'
p7548
sS'CharacterOffsetBegin'
p7549
S'2014'
p7550
stp7551
a(S'group'
p7552
(dp7553
S'NamedEntityTag'
p7554
g96
sS'CharacterOffsetEnd'
p7555
S'2021'
p7556
sS'Lemma'
p7557
S'group'
p7558
sS'PartOfSpeech'
p7559
S'NN'
p7560
sS'CharacterOffsetBegin'
p7561
S'2016'
p7562
stp7563
a(S'Philippine'
p7564
(dp7565
S'NamedEntityTag'
p7566
S'LOCATION'
p7567
sS'CharacterOffsetEnd'
p7568
S'2032'
p7569
sS'Lemma'
p7570
S'philippine'
p7571
sS'PartOfSpeech'
p7572
S'JJ'
p7573
sS'CharacterOffsetBegin'
p7574
S'2022'
p7575
stp7576
a(S'legislators'
p7577
(dp7578
S'NamedEntityTag'
p7579
g96
sS'CharacterOffsetEnd'
p7580
S'2044'
p7581
sS'Lemma'
p7582
S'legislator'
p7583
sS'PartOfSpeech'
p7584
S'NNS'
p7585
sS'CharacterOffsetBegin'
p7586
S'2033'
p7587
stp7588
a(S'said'
p7589
(dp7590
S'NamedEntityTag'
p7591
g96
sS'CharacterOffsetEnd'
p7592
S'2049'
p7593
sS'Lemma'
p7594
S'say'
p7595
sS'PartOfSpeech'
p7596
S'VBD'
p7597
sS'CharacterOffsetBegin'
p7598
S'2045'
p7599
stp7600
a(S'they'
p7601
(dp7602
S'NamedEntityTag'
p7603
g96
sS'CharacterOffsetEnd'
p7604
S'2054'
p7605
sS'Lemma'
p7606
S'they'
p7607
sS'PartOfSpeech'
p7608
S'PRP'
p7609
sS'CharacterOffsetBegin'
p7610
S'2050'
p7611
stp7612
a(S'plan'
p7613
(dp7614
S'NamedEntityTag'
p7615
g96
sS'CharacterOffsetEnd'
p7616
S'2059'
p7617
sS'Lemma'
p7618
S'plan'
p7619
sS'PartOfSpeech'
p7620
S'VBP'
p7621
sS'CharacterOffsetBegin'
p7622
S'2055'
p7623
stp7624
a(S'to'
p7625
(dp7626
S'NamedEntityTag'
p7627
g96
sS'CharacterOffsetEnd'
p7628
S'2062'
p7629
sS'Lemma'
p7630
S'to'
p7631
sS'PartOfSpeech'
p7632
S'TO'
p7633
sS'CharacterOffsetBegin'
p7634
S'2060'
p7635
stp7636
a(S'attend'
p7637
(dp7638
S'NamedEntityTag'
p7639
g96
sS'CharacterOffsetEnd'
p7640
S'2069'
p7641
sS'Lemma'
p7642
S'attend'
p7643
sS'PartOfSpeech'
p7644
S'VB'
p7645
sS'CharacterOffsetBegin'
p7646
S'2063'
p7647
stp7648
a(S'Anwars'
p7649
(dp7650
S'NamedEntityTag'
p7651
S'MISC'
p7652
sS'CharacterOffsetEnd'
p7653
S'2076'
p7654
sS'Lemma'
p7655
S'anwars'
p7656
sS'PartOfSpeech'
p7657
S'JJ'
p7658
sS'CharacterOffsetBegin'
p7659
S'2070'
p7660
stp7661
a(S'trial'
p7662
(dp7663
S'NamedEntityTag'
p7664
g96
sS'CharacterOffsetEnd'
p7665
S'2082'
p7666
sS'Lemma'
p7667
S'trial'
p7668
sS'PartOfSpeech'
p7669
S'NN'
p7670
sS'CharacterOffsetBegin'
p7671
S'2077'
p7672
stp7673
a(g559
(dp7674
S'NamedEntityTag'
p7675
g96
sS'CharacterOffsetEnd'
p7676
S'2083'
p7677
sS'Lemma'
p7678
g559
sS'PartOfSpeech'
p7679
g559
sS'CharacterOffsetBegin'
p7680
S'2082'
p7681
stp7682
a(S'which'
p7683
(dp7684
S'NamedEntityTag'
p7685
g96
sS'CharacterOffsetEnd'
p7686
S'2089'
p7687
sS'Lemma'
p7688
S'which'
p7689
sS'PartOfSpeech'
p7690
S'WDT'
p7691
sS'CharacterOffsetBegin'
p7692
S'2084'
p7693
stp7694
a(S'opens'
p7695
(dp7696
S'NamedEntityTag'
p7697
g96
sS'CharacterOffsetEnd'
p7698
S'2095'
p7699
sS'Lemma'
p7700
S'open'
p7701
sS'PartOfSpeech'
p7702
S'VBZ'
p7703
sS'CharacterOffsetBegin'
p7704
S'2090'
p7705
stp7706
a(S'Nov'
p7707
(dp7708
S'NormalizedNamedEntityTag'
p7709
S'XXXX-11-02'
p7710
sS'Timex'
p7711
S'<TIMEX3 tid="t6" type="DATE" value="XXXX-11-02">Nov 2</TIMEX3>'
p7712
sS'Lemma'
p7713
S'Nov'
p7714
sS'CharacterOffsetEnd'
p7715
S'2099'
p7716
sS'PartOfSpeech'
p7717
S'NNP'
p7718
sS'CharacterOffsetBegin'
p7719
S'2096'
p7720
sS'NamedEntityTag'
p7721
S'DATE'
p7722
stp7723
a(g7469
(dp7724
S'NormalizedNamedEntityTag'
p7725
S'XXXX-11-02'
p7726
sS'Timex'
p7727
S'<TIMEX3 tid="t6" type="DATE" value="XXXX-11-02">Nov 2</TIMEX3>'
p7728
sS'Lemma'
p7729
g7469
sS'CharacterOffsetEnd'
p7730
S'2101'
p7731
sS'PartOfSpeech'
p7732
S'CD'
p7733
sS'CharacterOffsetBegin'
p7734
S'2100'
p7735
sS'NamedEntityTag'
p7736
S'DATE'
p7737
stp7738
a(g400
(dp7739
S'NamedEntityTag'
p7740
g96
sS'CharacterOffsetEnd'
p7741
S'2102'
p7742
sS'Lemma'
p7743
g400
sS'PartOfSpeech'
p7744
g400
sS'CharacterOffsetBegin'
p7745
S'2101'
p7746
stp7747
asa(dp7748
g7
S'(ROOT (S (S (NP (PRP We)) (VP (VBP feel) (SBAR (IN that) (S (S (VP (VBG being) (NP (NP (NNS observers)) (PP (TO to) (NP (PRP$ his) (NN trial)))))) (VP (MD will) (VP (VB be) (NP (NP (PRP$ our) (JJ silent) (NN statement)) (PP (IN of) (NP (NP (PRP$ our) (JJ democratic) (NNS aspirations)) (PP (IN for) (NP (DT all) (NNP Asia)))))))))))) (, ,) (NP (DT the) (NN group)) (VP (VBD said) (PP (IN in) (NP (DT a) (NN statement)))) (. .)))'
p7749
sg9
S'We feel that being observers to his trial will be our silent statement of our democratic aspirations for all Asia, the group said in a statement.'
p7750
sg11
(lp7751
(S'root'
p7752
S'ROOT'
p7753
S'said'
p7754
tp7755
a(S'nsubj'
p7756
S'feel'
p7757
S'We'
p7758
tp7759
a(S'ccomp'
p7760
S'said'
p7761
S'feel'
p7762
tp7763
a(S'mark'
p7764
S'statement'
p7765
S'that'
p7766
tp7767
a(S'cop'
p7768
S'observers'
p7769
S'being'
p7770
tp7771
a(S'csubj'
p7772
S'statement'
p7773
S'observers'
p7774
tp7775
a(S'poss'
p7776
S'trial'
p7777
S'his'
p7778
tp7779
a(S'prep_to'
p7780
S'observers'
p7781
S'trial'
p7782
tp7783
a(S'aux'
p7784
S'statement'
p7785
S'will'
p7786
tp7787
a(S'cop'
p7788
S'statement'
p7789
S'be'
p7790
tp7791
a(S'poss'
p7792
S'statement'
p7793
S'our'
p7794
tp7795
a(S'amod'
p7796
S'statement'
p7797
S'silent'
p7798
tp7799
a(S'ccomp'
p7800
S'feel'
p7801
S'statement'
p7802
tp7803
a(S'poss'
p7804
S'aspirations'
p7805
S'our'
p7806
tp7807
a(S'amod'
p7808
S'aspirations'
p7809
S'democratic'
p7810
tp7811
a(S'prep_of'
p7812
S'statement'
p7813
S'aspirations'
p7814
tp7815
a(S'det'
p7816
S'Asia'
p7817
S'all'
p7818
tp7819
a(S'prep_for'
p7820
S'aspirations'
p7821
S'Asia'
p7822
tp7823
a(S'det'
p7824
S'group'
p7825
S'the'
p7826
tp7827
a(S'nsubj'
p7828
S'said'
p7829
S'group'
p7830
tp7831
a(S'det'
p7832
S'statement'
p7833
g1587
tp7834
a(S'prep_in'
p7835
S'said'
p7836
S'statement'
p7837
tp7838
asg49
(lp7839
(g7752
S'ROOT-0'
p7840
S'said-24'
p7841
tp7842
a(g7756
S'feel-2'
p7843
S'We-1'
p7844
tp7845
a(g7760
S'said-24'
p7846
S'feel-2'
p7847
tp7848
a(g7764
S'statement-13'
p7849
S'that-3'
p7850
tp7851
a(g7768
S'observers-5'
p7852
S'being-4'
p7853
tp7854
a(g7772
S'statement-13'
p7855
S'observers-5'
p7856
tp7857
a(g7776
S'trial-8'
p7858
S'his-7'
p7859
tp7860
a(g7780
S'observers-5'
p7861
S'trial-8'
p7862
tp7863
a(g7784
S'statement-13'
p7864
S'will-9'
p7865
tp7866
a(g7788
S'statement-13'
p7867
S'be-10'
p7868
tp7869
a(g7792
S'statement-13'
p7870
S'our-11'
p7871
tp7872
a(g7796
S'statement-13'
p7873
S'silent-12'
p7874
tp7875
a(g7800
S'feel-2'
p7876
S'statement-13'
p7877
tp7878
a(g7804
S'aspirations-17'
p7879
S'our-15'
p7880
tp7881
a(g7808
S'aspirations-17'
p7882
S'democratic-16'
p7883
tp7884
a(g7812
S'statement-13'
p7885
S'aspirations-17'
p7886
tp7887
a(g7816
S'Asia-20'
p7888
S'all-19'
p7889
tp7890
a(g7820
S'aspirations-17'
p7891
S'Asia-20'
p7892
tp7893
a(g7824
S'group-23'
p7894
S'the-22'
p7895
tp7896
a(g7828
S'said-24'
p7897
S'group-23'
p7898
tp7899
a(g7832
S'statement-27'
p7900
S'a-26'
p7901
tp7902
a(g7835
S'said-24'
p7903
S'statement-27'
p7904
tp7905
asg78
(lp7906
(S'We'
p7907
(dp7908
S'NamedEntityTag'
p7909
g96
sS'CharacterOffsetEnd'
p7910
S'2105'
p7911
sS'Lemma'
p7912
S'we'
p7913
sS'PartOfSpeech'
p7914
S'PRP'
p7915
sS'CharacterOffsetBegin'
p7916
S'2103'
p7917
stp7918
a(S'feel'
p7919
(dp7920
S'NamedEntityTag'
p7921
g96
sS'CharacterOffsetEnd'
p7922
S'2110'
p7923
sS'Lemma'
p7924
S'feel'
p7925
sS'PartOfSpeech'
p7926
S'VBP'
p7927
sS'CharacterOffsetBegin'
p7928
S'2106'
p7929
stp7930
a(S'that'
p7931
(dp7932
S'NamedEntityTag'
p7933
g96
sS'CharacterOffsetEnd'
p7934
S'2115'
p7935
sS'Lemma'
p7936
S'that'
p7937
sS'PartOfSpeech'
p7938
S'IN'
p7939
sS'CharacterOffsetBegin'
p7940
S'2111'
p7941
stp7942
a(S'being'
p7943
(dp7944
S'NamedEntityTag'
p7945
g96
sS'CharacterOffsetEnd'
p7946
S'2121'
p7947
sS'Lemma'
p7948
S'be'
p7949
sS'PartOfSpeech'
p7950
S'VBG'
p7951
sS'CharacterOffsetBegin'
p7952
S'2116'
p7953
stp7954
a(S'observers'
p7955
(dp7956
S'NamedEntityTag'
p7957
g96
sS'CharacterOffsetEnd'
p7958
S'2131'
p7959
sS'Lemma'
p7960
S'observer'
p7961
sS'PartOfSpeech'
p7962
S'NNS'
p7963
sS'CharacterOffsetBegin'
p7964
S'2122'
p7965
stp7966
a(S'to'
p7967
(dp7968
S'NamedEntityTag'
p7969
g96
sS'CharacterOffsetEnd'
p7970
S'2134'
p7971
sS'Lemma'
p7972
S'to'
p7973
sS'PartOfSpeech'
p7974
S'TO'
p7975
sS'CharacterOffsetBegin'
p7976
S'2132'
p7977
stp7978
a(S'his'
p7979
(dp7980
S'NamedEntityTag'
p7981
g96
sS'CharacterOffsetEnd'
p7982
S'2138'
p7983
sS'Lemma'
p7984
S'he'
p7985
sS'PartOfSpeech'
p7986
S'PRP$'
p7987
sS'CharacterOffsetBegin'
p7988
S'2135'
p7989
stp7990
a(S'trial'
p7991
(dp7992
S'NamedEntityTag'
p7993
g96
sS'CharacterOffsetEnd'
p7994
S'2144'
p7995
sS'Lemma'
p7996
S'trial'
p7997
sS'PartOfSpeech'
p7998
S'NN'
p7999
sS'CharacterOffsetBegin'
p8000
S'2139'
p8001
stp8002
a(S'will'
p8003
(dp8004
S'NamedEntityTag'
p8005
g96
sS'CharacterOffsetEnd'
p8006
S'2149'
p8007
sS'Lemma'
p8008
S'will'
p8009
sS'PartOfSpeech'
p8010
S'MD'
p8011
sS'CharacterOffsetBegin'
p8012
S'2145'
p8013
stp8014
a(S'be'
p8015
(dp8016
S'NamedEntityTag'
p8017
g96
sS'CharacterOffsetEnd'
p8018
S'2152'
p8019
sS'Lemma'
p8020
S'be'
p8021
sS'PartOfSpeech'
p8022
S'VB'
p8023
sS'CharacterOffsetBegin'
p8024
S'2150'
p8025
stp8026
a(S'our'
p8027
(dp8028
S'NamedEntityTag'
p8029
g96
sS'CharacterOffsetEnd'
p8030
S'2156'
p8031
sS'Lemma'
p8032
S'we'
p8033
sS'PartOfSpeech'
p8034
S'PRP$'
p8035
sS'CharacterOffsetBegin'
p8036
S'2153'
p8037
stp8038
a(S'silent'
p8039
(dp8040
S'NamedEntityTag'
p8041
g96
sS'CharacterOffsetEnd'
p8042
S'2163'
p8043
sS'Lemma'
p8044
S'silent'
p8045
sS'PartOfSpeech'
p8046
S'JJ'
p8047
sS'CharacterOffsetBegin'
p8048
S'2157'
p8049
stp8050
a(S'statement'
p8051
(dp8052
S'NamedEntityTag'
p8053
g96
sS'CharacterOffsetEnd'
p8054
S'2173'
p8055
sS'Lemma'
p8056
S'statement'
p8057
sS'PartOfSpeech'
p8058
S'NN'
p8059
sS'CharacterOffsetBegin'
p8060
S'2164'
p8061
stp8062
a(S'of'
p8063
(dp8064
S'NamedEntityTag'
p8065
g96
sS'CharacterOffsetEnd'
p8066
S'2176'
p8067
sS'Lemma'
p8068
S'of'
p8069
sS'PartOfSpeech'
p8070
S'IN'
p8071
sS'CharacterOffsetBegin'
p8072
S'2174'
p8073
stp8074
a(S'our'
p8075
(dp8076
S'NamedEntityTag'
p8077
g96
sS'CharacterOffsetEnd'
p8078
S'2180'
p8079
sS'Lemma'
p8080
S'we'
p8081
sS'PartOfSpeech'
p8082
S'PRP$'
p8083
sS'CharacterOffsetBegin'
p8084
S'2177'
p8085
stp8086
a(S'democratic'
p8087
(dp8088
S'NamedEntityTag'
p8089
g96
sS'CharacterOffsetEnd'
p8090
S'2191'
p8091
sS'Lemma'
p8092
S'democratic'
p8093
sS'PartOfSpeech'
p8094
S'JJ'
p8095
sS'CharacterOffsetBegin'
p8096
S'2181'
p8097
stp8098
a(S'aspirations'
p8099
(dp8100
S'NamedEntityTag'
p8101
g96
sS'CharacterOffsetEnd'
p8102
S'2203'
p8103
sS'Lemma'
p8104
S'aspiration'
p8105
sS'PartOfSpeech'
p8106
S'NNS'
p8107
sS'CharacterOffsetBegin'
p8108
S'2192'
p8109
stp8110
a(S'for'
p8111
(dp8112
S'NamedEntityTag'
p8113
g96
sS'CharacterOffsetEnd'
p8114
S'2207'
p8115
sS'Lemma'
p8116
S'for'
p8117
sS'PartOfSpeech'
p8118
S'IN'
p8119
sS'CharacterOffsetBegin'
p8120
S'2204'
p8121
stp8122
a(S'all'
p8123
(dp8124
S'NamedEntityTag'
p8125
g96
sS'CharacterOffsetEnd'
p8126
S'2211'
p8127
sS'Lemma'
p8128
S'all'
p8129
sS'PartOfSpeech'
p8130
S'DT'
p8131
sS'CharacterOffsetBegin'
p8132
S'2208'
p8133
stp8134
a(S'Asia'
p8135
(dp8136
S'NamedEntityTag'
p8137
S'LOCATION'
p8138
sS'CharacterOffsetEnd'
p8139
S'2216'
p8140
sS'Lemma'
p8141
S'Asia'
p8142
sS'PartOfSpeech'
p8143
S'NNP'
p8144
sS'CharacterOffsetBegin'
p8145
S'2212'
p8146
stp8147
a(g559
(dp8148
S'NamedEntityTag'
p8149
g96
sS'CharacterOffsetEnd'
p8150
S'2217'
p8151
sS'Lemma'
p8152
g559
sS'PartOfSpeech'
p8153
g559
sS'CharacterOffsetBegin'
p8154
S'2216'
p8155
stp8156
a(S'the'
p8157
(dp8158
S'NamedEntityTag'
p8159
g96
sS'CharacterOffsetEnd'
p8160
S'2221'
p8161
sS'Lemma'
p8162
S'the'
p8163
sS'PartOfSpeech'
p8164
S'DT'
p8165
sS'CharacterOffsetBegin'
p8166
S'2218'
p8167
stp8168
a(S'group'
p8169
(dp8170
S'NamedEntityTag'
p8171
g96
sS'CharacterOffsetEnd'
p8172
S'2227'
p8173
sS'Lemma'
p8174
S'group'
p8175
sS'PartOfSpeech'
p8176
S'NN'
p8177
sS'CharacterOffsetBegin'
p8178
S'2222'
p8179
stp8180
a(S'said'
p8181
(dp8182
S'NamedEntityTag'
p8183
g96
sS'CharacterOffsetEnd'
p8184
S'2232'
p8185
sS'Lemma'
p8186
S'say'
p8187
sS'PartOfSpeech'
p8188
S'VBD'
p8189
sS'CharacterOffsetBegin'
p8190
S'2228'
p8191
stp8192
a(S'in'
p8193
(dp8194
S'NamedEntityTag'
p8195
g96
sS'CharacterOffsetEnd'
p8196
S'2235'
p8197
sS'Lemma'
p8198
S'in'
p8199
sS'PartOfSpeech'
p8200
S'IN'
p8201
sS'CharacterOffsetBegin'
p8202
S'2233'
p8203
stp8204
a(g1587
(dp8205
S'NamedEntityTag'
p8206
g96
sS'CharacterOffsetEnd'
p8207
S'2237'
p8208
sS'Lemma'
p8209
g1587
sS'PartOfSpeech'
p8210
S'DT'
p8211
sS'CharacterOffsetBegin'
p8212
S'2236'
p8213
stp8214
a(S'statement'
p8215
(dp8216
S'NamedEntityTag'
p8217
g96
sS'CharacterOffsetEnd'
p8218
S'2247'
p8219
sS'Lemma'
p8220
S'statement'
p8221
sS'PartOfSpeech'
p8222
S'NN'
p8223
sS'CharacterOffsetBegin'
p8224
S'2238'
p8225
stp8226
a(g400
(dp8227
S'NamedEntityTag'
p8228
g96
sS'CharacterOffsetEnd'
p8229
S'2248'
p8230
sS'Lemma'
p8231
g400
sS'PartOfSpeech'
p8232
g400
sS'CharacterOffsetBegin'
p8233
S'2247'
p8234
stp8235
asass.