(dp0
S'models'
p1
(lp2
(dp3
S'sentences'
p4
(lp5
(dp6
S'parsetree'
p7
S'(ROOT (S (NP (NN Opposition) (NN leader) (NNP Rainey)) (VP (VBZ seeks) (NP (NN safety) (NN guarantee)) (PP (IN before) (S (VP (VBG returning)))))))'
p8
sS'text'
p9
S'Opposition leader Rainey seeks safety guarantee before returning'
p10
sS'dependencies'
p11
(lp12
(S'root'
p13
S'ROOT'
p14
S'seeks'
p15
tp16
a(S'nn'
p17
S'Rainey'
p18
S'Opposition'
p19
tp20
a(S'nn'
p21
S'Rainey'
p22
S'leader'
p23
tp24
a(S'nsubj'
p25
S'seeks'
p26
S'Rainey'
p27
tp28
a(S'nn'
p29
S'guarantee'
p30
S'safety'
p31
tp32
a(S'dobj'
p33
S'seeks'
p34
S'guarantee'
p35
tp36
a(S'prepc_before'
p37
S'seeks'
p38
S'returning'
p39
tp40
asS'indexeddependencies'
p41
(lp42
(g13
S'ROOT-0'
p43
S'seeks-4'
p44
tp45
a(g17
S'Rainey-3'
p46
S'Opposition-1'
p47
tp48
a(g21
S'Rainey-3'
p49
S'leader-2'
p50
tp51
a(g25
S'seeks-4'
p52
S'Rainey-3'
p53
tp54
a(g29
S'guarantee-6'
p55
S'safety-5'
p56
tp57
a(g33
S'seeks-4'
p58
S'guarantee-6'
p59
tp60
a(g37
S'seeks-4'
p61
S'returning-8'
p62
tp63
asS'words'
p64
(lp65
(S'Opposition'
p66
(dp67
S'NamedEntityTag'
p68
S'O'
p69
sS'CharacterOffsetEnd'
p70
S'11'
p71
sS'Lemma'
p72
S'opposition'
p73
sS'PartOfSpeech'
p74
S'NN'
p75
sS'CharacterOffsetBegin'
p76
S'1'
p77
stp78
a(S'leader'
p79
(dp80
S'NamedEntityTag'
p81
g69
sS'CharacterOffsetEnd'
p82
S'18'
p83
sS'Lemma'
p84
S'leader'
p85
sS'PartOfSpeech'
p86
S'NN'
p87
sS'CharacterOffsetBegin'
p88
S'12'
p89
stp90
a(S'Rainey'
p91
(dp92
S'NamedEntityTag'
p93
S'PERSON'
p94
sS'CharacterOffsetEnd'
p95
S'25'
p96
sS'Lemma'
p97
S'Rainey'
p98
sS'PartOfSpeech'
p99
S'NNP'
p100
sS'CharacterOffsetBegin'
p101
S'19'
p102
stp103
a(S'seeks'
p104
(dp105
S'NamedEntityTag'
p106
g69
sS'CharacterOffsetEnd'
p107
S'31'
p108
sS'Lemma'
p109
S'seek'
p110
sS'PartOfSpeech'
p111
S'VBZ'
p112
sS'CharacterOffsetBegin'
p113
S'26'
p114
stp115
a(S'safety'
p116
(dp117
S'NamedEntityTag'
p118
g69
sS'CharacterOffsetEnd'
p119
S'38'
p120
sS'Lemma'
p121
S'safety'
p122
sS'PartOfSpeech'
p123
S'NN'
p124
sS'CharacterOffsetBegin'
p125
S'32'
p126
stp127
a(S'guarantee'
p128
(dp129
S'NamedEntityTag'
p130
g69
sS'CharacterOffsetEnd'
p131
S'48'
p132
sS'Lemma'
p133
S'guarantee'
p134
sS'PartOfSpeech'
p135
S'NN'
p136
sS'CharacterOffsetBegin'
p137
S'39'
p138
stp139
a(S'before'
p140
(dp141
S'NamedEntityTag'
p142
g69
sS'CharacterOffsetEnd'
p143
S'55'
p144
sS'Lemma'
p145
S'before'
p146
sS'PartOfSpeech'
p147
S'IN'
p148
sS'CharacterOffsetBegin'
p149
S'49'
p150
stp151
a(S'returning'
p152
(dp153
S'NamedEntityTag'
p154
g69
sS'CharacterOffsetEnd'
p155
S'65'
p156
sS'Lemma'
p157
S'return'
p158
sS'PartOfSpeech'
p159
S'VBG'
p160
sS'CharacterOffsetBegin'
p161
S'56'
p162
stp163
asasa(dp164
S'coref'
p165
(lp166
(lp167
((S'his'
p168
I0
I5
I5
I6
tp169
(S'Opposition leader'
p170
I0
I1
I0
I2
tp171
tp172
aasg4
(lp173
(dp174
g7
S'(ROOT (S (NP (NN Opposition) (NN leader)) (VP (VBZ asks) (NP (NP (NNP Sihanouk)) (PP (IN for) (NP (PRP$ his) (NN help) (S (VP (TO to) (VP (ADVP (RB safely)) (VB return) (PP (TO to) (NP (NNP Cambodia))))))))))))'
p175
sg9
S'Opposition leader asks Sihanouk for his help to safely return to Cambodia'
p176
sg11
(lp177
(S'root'
p178
S'ROOT'
p179
S'asks'
p180
tp181
a(S'nn'
p182
S'leader'
p183
S'Opposition'
p184
tp185
a(S'nsubj'
p186
S'asks'
p187
S'leader'
p188
tp189
a(S'dobj'
p190
S'asks'
p191
S'Sihanouk'
p192
tp193
a(S'poss'
p194
S'help'
p195
S'his'
p196
tp197
a(S'prep_for'
p198
S'Sihanouk'
p199
S'help'
p200
tp201
a(S'aux'
p202
S'return'
p203
S'to'
p204
tp205
a(S'advmod'
p206
S'return'
p207
S'safely'
p208
tp209
a(S'infmod'
p210
S'help'
p211
S'return'
p212
tp213
a(S'prep_to'
p214
S'return'
p215
S'Cambodia'
p216
tp217
asg41
(lp218
(g178
S'ROOT-0'
p219
S'asks-3'
p220
tp221
a(g182
S'leader-2'
p222
S'Opposition-1'
p223
tp224
a(g186
S'asks-3'
p225
S'leader-2'
p226
tp227
a(g190
S'asks-3'
p228
S'Sihanouk-4'
p229
tp230
a(g194
S'help-7'
p231
S'his-6'
p232
tp233
a(g198
S'Sihanouk-4'
p234
S'help-7'
p235
tp236
a(g202
S'return-10'
p237
S'to-8'
p238
tp239
a(g206
S'return-10'
p240
S'safely-9'
p241
tp242
a(g210
S'help-7'
p243
S'return-10'
p244
tp245
a(g214
S'return-10'
p246
S'Cambodia-12'
p247
tp248
asg64
(lp249
(S'Opposition'
p250
(dp251
S'NamedEntityTag'
p252
g69
sS'CharacterOffsetEnd'
p253
S'11'
p254
sS'Lemma'
p255
S'opposition'
p256
sS'PartOfSpeech'
p257
S'NN'
p258
sS'CharacterOffsetBegin'
p259
g77
stp260
a(S'leader'
p261
(dp262
S'NamedEntityTag'
p263
g69
sS'CharacterOffsetEnd'
p264
S'18'
p265
sS'Lemma'
p266
S'leader'
p267
sS'PartOfSpeech'
p268
S'NN'
p269
sS'CharacterOffsetBegin'
p270
S'12'
p271
stp272
a(S'asks'
p273
(dp274
S'NamedEntityTag'
p275
g69
sS'CharacterOffsetEnd'
p276
S'23'
p277
sS'Lemma'
p278
S'ask'
p279
sS'PartOfSpeech'
p280
S'VBZ'
p281
sS'CharacterOffsetBegin'
p282
S'19'
p283
stp284
a(S'Sihanouk'
p285
(dp286
S'NamedEntityTag'
p287
S'PERSON'
p288
sS'CharacterOffsetEnd'
p289
S'32'
p290
sS'Lemma'
p291
S'Sihanouk'
p292
sS'PartOfSpeech'
p293
S'NNP'
p294
sS'CharacterOffsetBegin'
p295
S'24'
p296
stp297
a(S'for'
p298
(dp299
S'NamedEntityTag'
p300
g69
sS'CharacterOffsetEnd'
p301
S'36'
p302
sS'Lemma'
p303
S'for'
p304
sS'PartOfSpeech'
p305
S'IN'
p306
sS'CharacterOffsetBegin'
p307
S'33'
p308
stp309
a(S'his'
p310
(dp311
S'NamedEntityTag'
p312
g69
sS'CharacterOffsetEnd'
p313
S'40'
p314
sS'Lemma'
p315
S'he'
p316
sS'PartOfSpeech'
p317
S'PRP$'
p318
sS'CharacterOffsetBegin'
p319
S'37'
p320
stp321
a(S'help'
p322
(dp323
S'NamedEntityTag'
p324
g69
sS'CharacterOffsetEnd'
p325
S'45'
p326
sS'Lemma'
p327
S'help'
p328
sS'PartOfSpeech'
p329
S'NN'
p330
sS'CharacterOffsetBegin'
p331
S'41'
p332
stp333
a(S'to'
p334
(dp335
S'NamedEntityTag'
p336
g69
sS'CharacterOffsetEnd'
p337
S'48'
p338
sS'Lemma'
p339
S'to'
p340
sS'PartOfSpeech'
p341
S'TO'
p342
sS'CharacterOffsetBegin'
p343
S'46'
p344
stp345
a(S'safely'
p346
(dp347
S'NamedEntityTag'
p348
g69
sS'CharacterOffsetEnd'
p349
S'55'
p350
sS'Lemma'
p351
S'safely'
p352
sS'PartOfSpeech'
p353
S'RB'
p354
sS'CharacterOffsetBegin'
p355
S'49'
p356
stp357
a(S'return'
p358
(dp359
S'NamedEntityTag'
p360
g69
sS'CharacterOffsetEnd'
p361
S'62'
p362
sS'Lemma'
p363
S'return'
p364
sS'PartOfSpeech'
p365
S'VB'
p366
sS'CharacterOffsetBegin'
p367
S'56'
p368
stp369
a(S'to'
p370
(dp371
S'NamedEntityTag'
p372
g69
sS'CharacterOffsetEnd'
p373
S'65'
p374
sS'Lemma'
p375
S'to'
p376
sS'PartOfSpeech'
p377
S'TO'
p378
sS'CharacterOffsetBegin'
p379
S'63'
p380
stp381
a(S'Cambodia'
p382
(dp383
S'NamedEntityTag'
p384
S'LOCATION'
p385
sS'CharacterOffsetEnd'
p386
S'74'
p387
sS'Lemma'
p388
S'Cambodia'
p389
sS'PartOfSpeech'
p390
S'NNP'
p391
sS'CharacterOffsetBegin'
p392
S'66'
p393
stp394
asasa(dp395
g4
(lp396
(dp397
g7
S'(ROOT (NP (NP (JJ Cambodian) (NN opposition) (NN leader) (NNS doubts)) (NP (NP (NN safety) (NN guaranty)) (PP (IN of) (NP (JJ prime) (NN minister))))))'
p398
sg9
S'Cambodian opposition leader doubts safety guaranty of prime minister'
p399
sg11
(lp400
(S'root'
p401
S'ROOT'
p402
S'doubts'
p403
tp404
a(S'amod'
p405
S'doubts'
p406
S'Cambodian'
p407
tp408
a(S'nn'
p409
S'doubts'
p410
S'opposition'
p411
tp412
a(S'nn'
p413
S'doubts'
p414
S'leader'
p415
tp416
a(S'nn'
p417
S'guaranty'
p418
S'safety'
p419
tp420
a(S'dep'
p421
S'doubts'
p422
S'guaranty'
p423
tp424
a(S'amod'
p425
S'minister'
p426
S'prime'
p427
tp428
a(S'prep_of'
p429
S'guaranty'
p430
S'minister'
p431
tp432
asg41
(lp433
(g401
S'ROOT-0'
p434
S'doubts-4'
p435
tp436
a(g405
S'doubts-4'
p437
S'Cambodian-1'
p438
tp439
a(g409
S'doubts-4'
p440
S'opposition-2'
p441
tp442
a(g413
S'doubts-4'
p443
S'leader-3'
p444
tp445
a(g417
S'guaranty-6'
p446
S'safety-5'
p447
tp448
a(g421
S'doubts-4'
p449
S'guaranty-6'
p450
tp451
a(g425
S'minister-9'
p452
S'prime-8'
p453
tp454
a(g429
S'guaranty-6'
p455
S'minister-9'
p456
tp457
asg64
(lp458
(S'Cambodian'
p459
(dp460
S'NamedEntityTag'
p461
S'MISC'
p462
sS'CharacterOffsetEnd'
p463
S'10'
p464
sS'Lemma'
p465
S'cambodian'
p466
sS'PartOfSpeech'
p467
S'JJ'
p468
sS'CharacterOffsetBegin'
p469
g77
stp470
a(S'opposition'
p471
(dp472
S'NamedEntityTag'
p473
g69
sS'CharacterOffsetEnd'
p474
S'21'
p475
sS'Lemma'
p476
S'opposition'
p477
sS'PartOfSpeech'
p478
S'NN'
p479
sS'CharacterOffsetBegin'
p480
S'11'
p481
stp482
a(S'leader'
p483
(dp484
S'NamedEntityTag'
p485
g69
sS'CharacterOffsetEnd'
p486
S'28'
p487
sS'Lemma'
p488
S'leader'
p489
sS'PartOfSpeech'
p490
S'NN'
p491
sS'CharacterOffsetBegin'
p492
S'22'
p493
stp494
a(S'doubts'
p495
(dp496
S'NamedEntityTag'
p497
g69
sS'CharacterOffsetEnd'
p498
S'35'
p499
sS'Lemma'
p500
S'doubt'
p501
sS'PartOfSpeech'
p502
S'NNS'
p503
sS'CharacterOffsetBegin'
p504
S'29'
p505
stp506
a(S'safety'
p507
(dp508
S'NamedEntityTag'
p509
g69
sS'CharacterOffsetEnd'
p510
S'42'
p511
sS'Lemma'
p512
S'safety'
p513
sS'PartOfSpeech'
p514
S'NN'
p515
sS'CharacterOffsetBegin'
p516
S'36'
p517
stp518
a(S'guaranty'
p519
(dp520
S'NamedEntityTag'
p521
g69
sS'CharacterOffsetEnd'
p522
S'51'
p523
sS'Lemma'
p524
S'guaranty'
p525
sS'PartOfSpeech'
p526
S'NN'
p527
sS'CharacterOffsetBegin'
p528
S'43'
p529
stp530
a(S'of'
p531
(dp532
S'NamedEntityTag'
p533
g69
sS'CharacterOffsetEnd'
p534
S'54'
p535
sS'Lemma'
p536
S'of'
p537
sS'PartOfSpeech'
p538
S'IN'
p539
sS'CharacterOffsetBegin'
p540
S'52'
p541
stp542
a(S'prime'
p543
(dp544
S'NamedEntityTag'
p545
g69
sS'CharacterOffsetEnd'
p546
S'60'
p547
sS'Lemma'
p548
S'prime'
p549
sS'PartOfSpeech'
p550
S'JJ'
p551
sS'CharacterOffsetBegin'
p552
S'55'
p553
stp554
a(S'minister'
p555
(dp556
S'NamedEntityTag'
p557
g69
sS'CharacterOffsetEnd'
p558
S'69'
p559
sS'Lemma'
p560
S'minister'
p561
sS'PartOfSpeech'
p562
S'NN'
p563
sS'CharacterOffsetBegin'
p564
S'61'
p565
stp566
asasa(dp567
g4
(lp568
(dp569
g7
S'(ROOT (S (NP (NNP Rainsy)) (VP (VBZ seeks) (NP (NP (JJR stronger) (NN assurance)) (PP (IN of) (NP (NN safety) (CC and) (NN freedom)))) (PP (IN from) (NP (NN prosecution)))) (. .)))'
p570
sg9
S'Rainsy seeks stronger assurance of safety and freedom from prosecution.'
p571
sg11
(lp572
(S'root'
p573
S'ROOT'
p574
S'seeks'
p575
tp576
a(S'nsubj'
p577
S'seeks'
p578
S'Rainsy'
p579
tp580
a(S'amod'
p581
S'assurance'
p582
S'stronger'
p583
tp584
a(S'dobj'
p585
S'seeks'
p586
S'assurance'
p587
tp588
a(S'prep_of'
p589
S'assurance'
p590
S'safety'
p591
tp592
a(S'conj_and'
p593
S'safety'
p594
S'freedom'
p595
tp596
a(S'prep_from'
p597
S'seeks'
p598
S'prosecution'
p599
tp600
asg41
(lp601
(g573
S'ROOT-0'
p602
S'seeks-2'
p603
tp604
a(g577
S'seeks-2'
p605
S'Rainsy-1'
p606
tp607
a(g581
S'assurance-4'
p608
S'stronger-3'
p609
tp610
a(g585
S'seeks-2'
p611
S'assurance-4'
p612
tp613
a(g589
S'assurance-4'
p614
S'safety-6'
p615
tp616
a(g593
S'safety-6'
p617
S'freedom-8'
p618
tp619
a(g597
S'seeks-2'
p620
S'prosecution-10'
p621
tp622
asg64
(lp623
(S'Rainsy'
p624
(dp625
S'NamedEntityTag'
p626
S'PERSON'
p627
sS'CharacterOffsetEnd'
p628
S'7'
p629
sS'Lemma'
p630
S'Rainsy'
p631
sS'PartOfSpeech'
p632
S'NNP'
p633
sS'CharacterOffsetBegin'
p634
g77
stp635
a(S'seeks'
p636
(dp637
S'NamedEntityTag'
p638
g69
sS'CharacterOffsetEnd'
p639
S'13'
p640
sS'Lemma'
p641
S'seek'
p642
sS'PartOfSpeech'
p643
S'VBZ'
p644
sS'CharacterOffsetBegin'
p645
S'8'
p646
stp647
a(S'stronger'
p648
(dp649
S'NamedEntityTag'
p650
g69
sS'CharacterOffsetEnd'
p651
S'22'
p652
sS'Lemma'
p653
S'stronger'
p654
sS'PartOfSpeech'
p655
S'JJR'
p656
sS'CharacterOffsetBegin'
p657
S'14'
p658
stp659
a(S'assurance'
p660
(dp661
S'NamedEntityTag'
p662
g69
sS'CharacterOffsetEnd'
p663
S'32'
p664
sS'Lemma'
p665
S'assurance'
p666
sS'PartOfSpeech'
p667
S'NN'
p668
sS'CharacterOffsetBegin'
p669
S'23'
p670
stp671
a(S'of'
p672
(dp673
S'NamedEntityTag'
p674
g69
sS'CharacterOffsetEnd'
p675
S'35'
p676
sS'Lemma'
p677
S'of'
p678
sS'PartOfSpeech'
p679
S'IN'
p680
sS'CharacterOffsetBegin'
p681
S'33'
p682
stp683
a(S'safety'
p684
(dp685
S'NamedEntityTag'
p686
g69
sS'CharacterOffsetEnd'
p687
S'42'
p688
sS'Lemma'
p689
S'safety'
p690
sS'PartOfSpeech'
p691
S'NN'
p692
sS'CharacterOffsetBegin'
p693
S'36'
p694
stp695
a(S'and'
p696
(dp697
S'NamedEntityTag'
p698
g69
sS'CharacterOffsetEnd'
p699
S'46'
p700
sS'Lemma'
p701
S'and'
p702
sS'PartOfSpeech'
p703
S'CC'
p704
sS'CharacterOffsetBegin'
p705
S'43'
p706
stp707
a(S'freedom'
p708
(dp709
S'NamedEntityTag'
p710
g69
sS'CharacterOffsetEnd'
p711
S'54'
p712
sS'Lemma'
p713
S'freedom'
p714
sS'PartOfSpeech'
p715
S'NN'
p716
sS'CharacterOffsetBegin'
p717
S'47'
p718
stp719
a(S'from'
p720
(dp721
S'NamedEntityTag'
p722
g69
sS'CharacterOffsetEnd'
p723
S'59'
p724
sS'Lemma'
p725
S'from'
p726
sS'PartOfSpeech'
p727
S'IN'
p728
sS'CharacterOffsetBegin'
p729
S'55'
p730
stp731
a(S'prosecution'
p732
(dp733
S'NamedEntityTag'
p734
g69
sS'CharacterOffsetEnd'
p735
S'71'
p736
sS'Lemma'
p737
S'prosecution'
p738
sS'PartOfSpeech'
p739
S'NN'
p740
sS'CharacterOffsetBegin'
p741
S'60'
p742
stp743
a(S'.'
p744
(dp745
S'NamedEntityTag'
p746
g69
sS'CharacterOffsetEnd'
p747
S'72'
p748
sS'Lemma'
p749
g744
sS'PartOfSpeech'
p750
g744
sS'CharacterOffsetBegin'
p751
S'71'
p752
stp753
asasasS'article'
p754
(dp755
g165
(lp756
(lp757
((S'Hun'
p758
I0
I5
I25
I26
tp759
(S'Hun Sens'
p760
I0
I-1
I58
I60
tp761
tp762
a((S'his'
p763
I0
I8
I68
I69
tp764
(S'Hun Sens'
p765
I0
I-1
I58
I60
tp766
tp767
a((S'Hun Sen'
p768
I1
I1
I0
I2
tp769
(S'Hun Sens'
p770
I0
I-1
I58
I60
tp771
tp772
a((S'Hun Sens'
p773
I2
I7
I6
I8
tp774
(S'Hun Sens'
p775
I0
I-1
I58
I60
tp776
tp777
a((S'Hun Sen'
p778
I2
I4
I23
I25
tp779
(S'Hun Sens'
p780
I0
I-1
I58
I60
tp781
tp782
a((S'Hun Sen'
p783
I3
I8
I7
I9
tp784
(S'Hun Sens'
p785
I0
I-1
I58
I60
tp786
tp787
a((S'Hun Sen'
p788
I3
I6
I25
I27
tp789
(S'Hun Sens'
p790
I0
I-1
I58
I60
tp791
tp792
a((S'him'
p793
I3
I8
I28
I29
tp794
(S'Hun Sens'
p795
I0
I-1
I58
I60
tp796
tp797
a((S'his'
p798
I3
I5
I35
I36
tp799
(S'Hun Sens'
p800
I0
I-1
I58
I60
tp801
tp802
a((S'Hun Sen'
p803
I7
I2
I21
I23
tp804
(S'Hun Sens'
p805
I0
I-1
I58
I60
tp806
tp807
a((S'Hun Sens'
p808
I10
I5
I4
I6
tp809
(S'Hun Sens'
p810
I0
I-1
I58
I60
tp811
tp812
a((S'Hun Sen'
p813
I11
I3
I22
I24
tp814
(S'Hun Sens'
p815
I0
I-1
I58
I60
tp816
tp817
a((S'he'
p818
I11
I8
I28
I29
tp819
(S'Hun Sens'
p820
I0
I-1
I58
I60
tp821
tp822
a((S'his'
p823
I11
I0
I30
I31
tp824
(S'Hun Sens'
p825
I0
I-1
I58
I60
tp826
tp827
aa(lp828
((S'Cambodia'
p829
I6
I1
I21
I22
tp830
(S'Cambodia'
p831
I0
I8
I78
I79
tp832
tp833
aa(lp834
((S'their'
p835
I0
I8
I8
I9
tp836
(S'party colleagues'
p837
I0
I3
I2
I4
tp838
tp839
a((S'their'
p840
I1
I2
I12
I13
tp841
(S'party colleagues'
p842
I0
I3
I2
I4
tp843
tp844
a((S'their'
p845
I2
I8
I38
I39
tp846
(S'party colleagues'
p847
I0
I3
I2
I4
tp848
tp849
aa(lp850
((S'Hun Sen. Sam Rainsy'
p851
I0
I8
I25
I29
tp852
(S'opposition leader Sam Rainsy'
p853
I0
I4
I11
I15
tp854
tp855
a((S'he'
p856
I0
I8
I38
I39
tp857
(S'opposition leader Sam Rainsy'
p858
I0
I4
I11
I15
tp859
tp860
a((S'Sam Rainsy , who earlier called Hun Sens statement full of loopholes'
p861
I2
I1
I0
I12
tp862
(S'opposition leader Sam Rainsy'
p863
I0
I4
I11
I15
tp864
tp865
a((S'Sam Rainsy'
p866
I2
I1
I0
I2
tp867
(S'opposition leader Sam Rainsy'
p868
I0
I4
I11
I15
tp869
tp870
a((S'his'
p871
I2
I6
I16
I17
tp872
(S'opposition leader Sam Rainsy'
p873
I0
I4
I11
I15
tp874
tp875
a((S'Sam Rainsy'
p876
I2
I1
I30
I32
tp877
(S'opposition leader Sam Rainsy'
p878
I0
I4
I11
I15
tp879
tp880
a((S'Sam Rainsy , a staunch critic of Hun Sen'
p881
I3
I1
I0
I9
tp882
(S'opposition leader Sam Rainsy'
p883
I0
I4
I11
I15
tp884
tp885
a((S'Sam Rainsy'
p886
I3
I1
I0
I2
tp887
(S'opposition leader Sam Rainsy'
p888
I0
I4
I11
I15
tp889
tp890
a((S'a staunch critic of Hun Sen'
p891
I3
I5
I3
I9
tp892
(S'opposition leader Sam Rainsy'
p893
I0
I4
I11
I15
tp894
tp895
a((S'Sam Rainsy'
p896
I6
I6
I5
I7
tp897
(S'opposition leader Sam Rainsy'
p898
I0
I4
I11
I15
tp899
tp900
a((S'his'
p901
I6
I8
I8
I9
tp902
(S'opposition leader Sam Rainsy'
p903
I0
I4
I11
I15
tp904
tp905
aa(lp906
((S'Friday'
p907
I10
I-1
I9
I10
tp908
(S'Friday'
p909
I0
I8
I18
I19
tp910
tp911
aa(lp912
((S'the National Assembly'
p913
I8
I4
I12
I15
tp914
(S'the new National Assembly'
p915
I0
I0
I47
I51
tp916
tp917
a((S'the National Assembly'
p918
I11
I6
I34
I37
tp919
(S'the new National Assembly'
p920
I0
I0
I47
I51
tp921
tp922
aa(lp923
((S'their'
p924
I0
I5
I75
I76
tp925
(S'his party members'
p926
I0
I0
I68
I71
tp927
tp928
aa(lp929
((S'political activities in accordance'
p930
I1
I7
I16
I20
tp931
(S'their political activities'
p932
I2
I0
I38
I41
tp933
tp934
aa(lp935
((S'September'
p936
I3
I0
I20
I21
tp937
(S'late September'
p938
I6
I-1
I28
I30
tp939
tp940
aa(lp941
((S'Hun Sens party'
p942
I10
I6
I4
I7
tp943
(S'Hun Sens Cambodian Peoples Party'
p944
I4
I8
I14
I19
tp945
tp946
aa(lp947
((S'The opposition'
p948
I5
I1
I0
I2
tp949
(S'the opposition'
p950
I4
I2
I11
I13
tp951
tp952
aa(lp953
((S'the election'
p954
I7
I1
I10
I12
tp955
(S'the election'
p956
I4
I2
I21
I23
tp957
tp958
aa(lp959
((S'Ranariddh , whose FUNCINPEC party finished a close second in the election'
p960
I7
I0
I0
I12
tp961
(S'Prince Norodom Ranariddh'
p962
I6
I2
I10
I13
tp963
tp964
a((S'Ranariddh'
p965
I7
I0
I0
I1
tp966
(S'Prince Norodom Ranariddh'
p967
I6
I2
I10
I13
tp968
tp969
a((S'Ranariddh'
p970
I8
I-1
I9
I10
tp971
(S'Prince Norodom Ranariddh'
p972
I6
I2
I10
I13
tp973
tp974
aa(lp975
((S'the agreement'
p976
I9
I4
I13
I15
tp977
(S'The agreement'
p978
I8
I1
I0
I2
tp979
tp980
aa(lp981
((S'details'
p982
I11
I-1
I19
I20
tp983
(S'details of the agreement'
p984
I9
I1
I11
I15
tp985
tp986
aa(lp987
((S'The platform'
p988
I11
I1
I0
I2
tp989
(S'a joint political platform'
p990
I10
I2
I19
I23
tp991
tp992
aa(lp993
((S'its'
p994
I10
I6
I16
I17
tp995
(S'one working group'
p996
I10
I1
I11
I14
tp997
tp998
aa(lp999
((S'it'
p1000
I11
I6
I26
I27
tp1001
(S'Sok An would not reveal details , saying Hun Sen'
p1002
I11
I4
I14
I24
tp1003
tp1004
aasg4
(lp1005
(dp1006
g7
S'(ROOT (S (S (ADJP (JJ Worried) (SBAR (IN that) (S (NP (NN party) (NNS colleagues)) (ADVP (RB still)) (VP (VBP face) (NP (NP (NN arrest)) (PP (IN for) (NP (PRP$ their) (NNS politics))))))))) (, ,) (NP (NN opposition) (NN leader) (NNP Sam) (NNP Rainsy)) (VP (VBD sought) (ADVP (RBR further)) (NP (NN clarification)) (NP-TMP (NNP Friday)) (PP (IN of) (NP (NP (NN security) (NNS guarantees)) (VP (VBN promised) (PP (IN by) (NP (NP (NN strongman)) (SBAR (S (NP (NNP Hun) (NNP Sen.) (NNP Sam) (NNP Rainsy)) (VP (VBD wrote) (PP (IN in) (NP (NP (DT a) (NN letter)) (PP (TO to) (NP (NNP King) (NNP Norodom) (NNP Sihanouk))))) (SBAR (IN that) (S (NP (PRP he)) (VP (VP (VBD was) (ADJP (JJ eager) (S (VP (TO to) (VP (VB attend) (NP (NP (DT the) (JJ first) (NN session)) (PP (IN of) (NP (DT the) (JJ new) (NNP National) (NNP Assembly)))) (PP (IN on)))))) (NP-TMP (NNP Nov) (CD 25))) (, ,) (CC but) (VP (VBD complained) (SBAR (IN that) (S (NP (NNP Hun) (NNP Sens) (NNS assurances)) (VP (VBD were) (RB not) (ADJP (JJ strong) (RB enough) (S (VP (TO to) (VP (VB ease) (NP (NP (NNS concerns)) (SBAR (S (NP (PRP$ his) (NN party) (NNS members)) (VP (MD may) (VP (VB be) (VP (VBN arrested) (PP (IN upon) (NP (PRP$ their) (NN return))) (PP (TO to) (NP (NNP Cambodia))))))))))))))))))))))))))))) (. .)))'
p1007
sg9
S'Worried that party colleagues still face arrest for their politics, opposition leader Sam Rainsy sought further clarification Friday of security guarantees promised by strongman Hun Sen. Sam Rainsy wrote in a letter to King Norodom Sihanouk that he was eager to attend the first session of the new National Assembly on Nov 25, but complained that Hun Sens assurances were not strong enough to ease concerns his party members may be arrested upon their return to Cambodia.'
p1008
sg11
(lp1009
(S'root'
p1010
S'ROOT'
p1011
S'sought'
p1012
tp1013
a(S'ccomp'
p1014
S'sought'
p1015
S'Worried'
p1016
tp1017
a(S'mark'
p1018
S'face'
p1019
S'that'
p1020
tp1021
a(S'nn'
p1022
S'colleagues'
p1023
S'party'
p1024
tp1025
a(S'nsubj'
p1026
S'face'
p1027
S'colleagues'
p1028
tp1029
a(S'advmod'
p1030
S'face'
p1031
S'still'
p1032
tp1033
a(S'ccomp'
p1034
S'Worried'
p1035
S'face'
p1036
tp1037
a(S'dobj'
p1038
S'face'
p1039
S'arrest'
p1040
tp1041
a(S'poss'
p1042
S'politics'
p1043
S'their'
p1044
tp1045
a(S'prep_for'
p1046
S'arrest'
p1047
S'politics'
p1048
tp1049
a(S'nn'
p1050
S'Rainsy'
p1051
S'opposition'
p1052
tp1053
a(S'nn'
p1054
S'Rainsy'
p1055
S'leader'
p1056
tp1057
a(S'nn'
p1058
S'Rainsy'
p1059
S'Sam'
p1060
tp1061
a(S'nsubj'
p1062
S'sought'
p1063
S'Rainsy'
p1064
tp1065
a(S'advmod'
p1066
S'sought'
p1067
S'further'
p1068
tp1069
a(S'dobj'
p1070
S'sought'
p1071
S'clarification'
p1072
tp1073
a(S'tmod'
p1074
S'sought'
p1075
S'Friday'
p1076
tp1077
a(S'nn'
p1078
S'guarantees'
p1079
S'security'
p1080
tp1081
a(S'prep_of'
p1082
S'sought'
p1083
S'guarantees'
p1084
tp1085
a(S'partmod'
p1086
S'guarantees'
p1087
S'promised'
p1088
tp1089
a(S'agent'
p1090
S'promised'
p1091
S'strongman'
p1092
tp1093
a(S'nn'
p1094
S'Rainsy'
p1095
S'Hun'
p1096
tp1097
a(S'nn'
p1098
S'Rainsy'
p1099
S'Sen.'
p1100
tp1101
a(S'nn'
p1102
S'Rainsy'
p1103
S'Sam'
p1104
tp1105
a(S'nsubj'
p1106
S'wrote'
p1107
S'Rainsy'
p1108
tp1109
a(S'rcmod'
p1110
S'strongman'
p1111
S'wrote'
p1112
tp1113
a(S'det'
p1114
S'letter'
p1115
S'a'
p1116
tp1117
a(S'prep_in'
p1118
S'wrote'
p1119
S'letter'
p1120
tp1121
a(S'nn'
p1122
S'Sihanouk'
p1123
S'King'
p1124
tp1125
a(S'nn'
p1126
S'Sihanouk'
p1127
S'Norodom'
p1128
tp1129
a(S'prep_to'
p1130
S'letter'
p1131
S'Sihanouk'
p1132
tp1133
a(S'mark'
p1134
S'eager'
p1135
S'that'
p1136
tp1137
a(S'nsubj'
p1138
S'eager'
p1139
S'he'
p1140
tp1141
a(S'cop'
p1142
S'eager'
p1143
S'was'
p1144
tp1145
a(S'ccomp'
p1146
S'wrote'
p1147
S'eager'
p1148
tp1149
a(S'aux'
p1150
S'attend'
p1151
S'to'
p1152
tp1153
a(S'xcomp'
p1154
S'eager'
p1155
S'attend'
p1156
tp1157
a(S'det'
p1158
S'session'
p1159
S'the'
p1160
tp1161
a(S'amod'
p1162
S'session'
p1163
S'first'
p1164
tp1165
a(S'dobj'
p1166
S'attend'
p1167
S'session'
p1168
tp1169
a(S'det'
p1170
S'Assembly'
p1171
S'the'
p1172
tp1173
a(S'amod'
p1174
S'Assembly'
p1175
S'new'
p1176
tp1177
a(S'nn'
p1178
S'Assembly'
p1179
S'National'
p1180
tp1181
a(S'prep_of'
p1182
S'session'
p1183
S'Assembly'
p1184
tp1185
a(S'prep'
p1186
S'attend'
p1187
S'on'
p1188
tp1189
a(S'tmod'
p1190
S'eager'
p1191
S'Nov'
p1192
tp1193
a(S'num'
p1194
S'Nov'
p1195
S'25'
p1196
tp1197
a(S'conj_but'
p1198
S'eager'
p1199
S'complained'
p1200
tp1201
a(S'mark'
p1202
S'strong'
p1203
S'that'
p1204
tp1205
a(S'nn'
p1206
S'assurances'
p1207
S'Hun'
p1208
tp1209
a(S'nn'
p1210
S'assurances'
p1211
S'Sens'
p1212
tp1213
a(S'nsubj'
p1214
S'strong'
p1215
S'assurances'
p1216
tp1217
a(S'cop'
p1218
S'strong'
p1219
S'were'
p1220
tp1221
a(S'neg'
p1222
S'strong'
p1223
S'not'
p1224
tp1225
a(S'ccomp'
p1226
S'complained'
p1227
S'strong'
p1228
tp1229
a(S'advmod'
p1230
S'strong'
p1231
S'enough'
p1232
tp1233
a(S'aux'
p1234
S'ease'
p1235
S'to'
p1236
tp1237
a(S'xcomp'
p1238
S'strong'
p1239
S'ease'
p1240
tp1241
a(S'dobj'
p1242
S'ease'
p1243
S'concerns'
p1244
tp1245
a(S'poss'
p1246
S'members'
p1247
S'his'
p1248
tp1249
a(S'nn'
p1250
S'members'
p1251
S'party'
p1252
tp1253
a(S'nsubjpass'
p1254
S'arrested'
p1255
S'members'
p1256
tp1257
a(S'aux'
p1258
S'arrested'
p1259
S'may'
p1260
tp1261
a(S'auxpass'
p1262
S'arrested'
p1263
S'be'
p1264
tp1265
a(S'rcmod'
p1266
S'concerns'
p1267
S'arrested'
p1268
tp1269
a(S'poss'
p1270
S'return'
p1271
S'their'
p1272
tp1273
a(S'prep_upon'
p1274
S'arrested'
p1275
S'return'
p1276
tp1277
a(S'prep_to'
p1278
S'arrested'
p1279
S'Cambodia'
p1280
tp1281
asg41
(lp1282
(g1010
S'ROOT-0'
p1283
S'sought-16'
p1284
tp1285
a(g1014
S'sought-16'
p1286
S'Worried-1'
p1287
tp1288
a(g1018
S'face-6'
p1289
S'that-2'
p1290
tp1291
a(g1022
S'colleagues-4'
p1292
S'party-3'
p1293
tp1294
a(g1026
S'face-6'
p1295
S'colleagues-4'
p1296
tp1297
a(g1030
S'face-6'
p1298
S'still-5'
p1299
tp1300
a(g1034
S'Worried-1'
p1301
S'face-6'
p1302
tp1303
a(g1038
S'face-6'
p1304
S'arrest-7'
p1305
tp1306
a(g1042
S'politics-10'
p1307
S'their-9'
p1308
tp1309
a(g1046
S'arrest-7'
p1310
S'politics-10'
p1311
tp1312
a(g1050
S'Rainsy-15'
p1313
S'opposition-12'
p1314
tp1315
a(g1054
S'Rainsy-15'
p1316
S'leader-13'
p1317
tp1318
a(g1058
S'Rainsy-15'
p1319
S'Sam-14'
p1320
tp1321
a(g1062
S'sought-16'
p1322
S'Rainsy-15'
p1323
tp1324
a(g1066
S'sought-16'
p1325
S'further-17'
p1326
tp1327
a(g1070
S'sought-16'
p1328
S'clarification-18'
p1329
tp1330
a(g1074
S'sought-16'
p1331
S'Friday-19'
p1332
tp1333
a(g1078
S'guarantees-22'
p1334
S'security-21'
p1335
tp1336
a(g1082
S'sought-16'
p1337
S'guarantees-22'
p1338
tp1339
a(g1086
S'guarantees-22'
p1340
S'promised-23'
p1341
tp1342
a(g1090
S'promised-23'
p1343
S'strongman-25'
p1344
tp1345
a(g1094
S'Rainsy-29'
p1346
S'Hun-26'
p1347
tp1348
a(g1098
S'Rainsy-29'
p1349
S'Sen.-27'
p1350
tp1351
a(g1102
S'Rainsy-29'
p1352
S'Sam-28'
p1353
tp1354
a(g1106
S'wrote-30'
p1355
S'Rainsy-29'
p1356
tp1357
a(g1110
S'strongman-25'
p1358
S'wrote-30'
p1359
tp1360
a(g1114
S'letter-33'
p1361
S'a-32'
p1362
tp1363
a(g1118
S'wrote-30'
p1364
S'letter-33'
p1365
tp1366
a(g1122
S'Sihanouk-37'
p1367
S'King-35'
p1368
tp1369
a(g1126
S'Sihanouk-37'
p1370
S'Norodom-36'
p1371
tp1372
a(g1130
S'letter-33'
p1373
S'Sihanouk-37'
p1374
tp1375
a(g1134
S'eager-41'
p1376
S'that-38'
p1377
tp1378
a(g1138
S'eager-41'
p1379
S'he-39'
p1380
tp1381
a(g1142
S'eager-41'
p1382
S'was-40'
p1383
tp1384
a(g1146
S'wrote-30'
p1385
S'eager-41'
p1386
tp1387
a(g1150
S'attend-43'
p1388
S'to-42'
p1389
tp1390
a(g1154
S'eager-41'
p1391
S'attend-43'
p1392
tp1393
a(g1158
S'session-46'
p1394
S'the-44'
p1395
tp1396
a(g1162
S'session-46'
p1397
S'first-45'
p1398
tp1399
a(g1166
S'attend-43'
p1400
S'session-46'
p1401
tp1402
a(g1170
S'Assembly-51'
p1403
S'the-48'
p1404
tp1405
a(g1174
S'Assembly-51'
p1406
S'new-49'
p1407
tp1408
a(g1178
S'Assembly-51'
p1409
S'National-50'
p1410
tp1411
a(g1182
S'session-46'
p1412
S'Assembly-51'
p1413
tp1414
a(g1186
S'attend-43'
p1415
S'on-52'
p1416
tp1417
a(g1190
S'eager-41'
p1418
S'Nov-53'
p1419
tp1420
a(g1194
S'Nov-53'
p1421
S'25-54'
p1422
tp1423
a(g1198
S'eager-41'
p1424
S'complained-57'
p1425
tp1426
a(g1202
S'strong-64'
p1427
S'that-58'
p1428
tp1429
a(g1206
S'assurances-61'
p1430
S'Hun-59'
p1431
tp1432
a(g1210
S'assurances-61'
p1433
S'Sens-60'
p1434
tp1435
a(g1214
S'strong-64'
p1436
S'assurances-61'
p1437
tp1438
a(g1218
S'strong-64'
p1439
S'were-62'
p1440
tp1441
a(g1222
S'strong-64'
p1442
S'not-63'
p1443
tp1444
a(g1226
S'complained-57'
p1445
S'strong-64'
p1446
tp1447
a(g1230
S'strong-64'
p1448
S'enough-65'
p1449
tp1450
a(g1234
S'ease-67'
p1451
S'to-66'
p1452
tp1453
a(g1238
S'strong-64'
p1454
S'ease-67'
p1455
tp1456
a(g1242
S'ease-67'
p1457
S'concerns-68'
p1458
tp1459
a(g1246
S'members-71'
p1460
S'his-69'
p1461
tp1462
a(g1250
S'members-71'
p1463
S'party-70'
p1464
tp1465
a(g1254
S'arrested-74'
p1466
S'members-71'
p1467
tp1468
a(g1258
S'arrested-74'
p1469
S'may-72'
p1470
tp1471
a(g1262
S'arrested-74'
p1472
S'be-73'
p1473
tp1474
a(g1266
S'concerns-68'
p1475
S'arrested-74'
p1476
tp1477
a(g1270
S'return-77'
p1478
S'their-76'
p1479
tp1480
a(g1274
S'arrested-74'
p1481
S'return-77'
p1482
tp1483
a(g1278
S'arrested-74'
p1484
S'Cambodia-79'
p1485
tp1486
asg64
(lp1487
(S'Worried'
p1488
(dp1489
S'NamedEntityTag'
p1490
g69
sS'CharacterOffsetEnd'
p1491
g629
sS'Lemma'
p1492
S'worried'
p1493
sS'PartOfSpeech'
p1494
S'JJ'
p1495
sS'CharacterOffsetBegin'
p1496
S'0'
p1497
stp1498
a(S'that'
p1499
(dp1500
S'NamedEntityTag'
p1501
g69
sS'CharacterOffsetEnd'
p1502
S'12'
p1503
sS'Lemma'
p1504
S'that'
p1505
sS'PartOfSpeech'
p1506
S'IN'
p1507
sS'CharacterOffsetBegin'
p1508
g646
stp1509
a(S'party'
p1510
(dp1511
S'NamedEntityTag'
p1512
g69
sS'CharacterOffsetEnd'
p1513
S'18'
p1514
sS'Lemma'
p1515
S'party'
p1516
sS'PartOfSpeech'
p1517
S'NN'
p1518
sS'CharacterOffsetBegin'
p1519
S'13'
p1520
stp1521
a(S'colleagues'
p1522
(dp1523
S'NamedEntityTag'
p1524
g69
sS'CharacterOffsetEnd'
p1525
S'29'
p1526
sS'Lemma'
p1527
S'colleague'
p1528
sS'PartOfSpeech'
p1529
S'NNS'
p1530
sS'CharacterOffsetBegin'
p1531
S'19'
p1532
stp1533
a(S'still'
p1534
(dp1535
S'NamedEntityTag'
p1536
g69
sS'CharacterOffsetEnd'
p1537
S'35'
p1538
sS'Lemma'
p1539
S'still'
p1540
sS'PartOfSpeech'
p1541
S'RB'
p1542
sS'CharacterOffsetBegin'
p1543
S'30'
p1544
stp1545
a(S'face'
p1546
(dp1547
S'NamedEntityTag'
p1548
g69
sS'CharacterOffsetEnd'
p1549
S'40'
p1550
sS'Lemma'
p1551
S'face'
p1552
sS'PartOfSpeech'
p1553
S'VBP'
p1554
sS'CharacterOffsetBegin'
p1555
S'36'
p1556
stp1557
a(S'arrest'
p1558
(dp1559
S'NamedEntityTag'
p1560
g69
sS'CharacterOffsetEnd'
p1561
S'47'
p1562
sS'Lemma'
p1563
S'arrest'
p1564
sS'PartOfSpeech'
p1565
S'NN'
p1566
sS'CharacterOffsetBegin'
p1567
S'41'
p1568
stp1569
a(S'for'
p1570
(dp1571
S'NamedEntityTag'
p1572
g69
sS'CharacterOffsetEnd'
p1573
S'51'
p1574
sS'Lemma'
p1575
S'for'
p1576
sS'PartOfSpeech'
p1577
S'IN'
p1578
sS'CharacterOffsetBegin'
p1579
S'48'
p1580
stp1581
a(S'their'
p1582
(dp1583
S'NamedEntityTag'
p1584
g69
sS'CharacterOffsetEnd'
p1585
S'57'
p1586
sS'Lemma'
p1587
S'they'
p1588
sS'PartOfSpeech'
p1589
S'PRP$'
p1590
sS'CharacterOffsetBegin'
p1591
S'52'
p1592
stp1593
a(S'politics'
p1594
(dp1595
S'NamedEntityTag'
p1596
g69
sS'CharacterOffsetEnd'
p1597
S'66'
p1598
sS'Lemma'
p1599
S'politics'
p1600
sS'PartOfSpeech'
p1601
S'NNS'
p1602
sS'CharacterOffsetBegin'
p1603
S'58'
p1604
stp1605
a(S','
p1606
(dp1607
S'NamedEntityTag'
p1608
g69
sS'CharacterOffsetEnd'
p1609
S'67'
p1610
sS'Lemma'
p1611
g1606
sS'PartOfSpeech'
p1612
g1606
sS'CharacterOffsetBegin'
p1613
S'66'
p1614
stp1615
a(S'opposition'
p1616
(dp1617
S'NamedEntityTag'
p1618
g69
sS'CharacterOffsetEnd'
p1619
S'78'
p1620
sS'Lemma'
p1621
S'opposition'
p1622
sS'PartOfSpeech'
p1623
S'NN'
p1624
sS'CharacterOffsetBegin'
p1625
S'68'
p1626
stp1627
a(S'leader'
p1628
(dp1629
S'NamedEntityTag'
p1630
g69
sS'CharacterOffsetEnd'
p1631
S'85'
p1632
sS'Lemma'
p1633
S'leader'
p1634
sS'PartOfSpeech'
p1635
S'NN'
p1636
sS'CharacterOffsetBegin'
p1637
S'79'
p1638
stp1639
a(S'Sam'
p1640
(dp1641
S'NamedEntityTag'
p1642
S'PERSON'
p1643
sS'CharacterOffsetEnd'
p1644
S'89'
p1645
sS'Lemma'
p1646
S'Sam'
p1647
sS'PartOfSpeech'
p1648
S'NNP'
p1649
sS'CharacterOffsetBegin'
p1650
S'86'
p1651
stp1652
a(S'Rainsy'
p1653
(dp1654
S'NamedEntityTag'
p1655
S'PERSON'
p1656
sS'CharacterOffsetEnd'
p1657
S'96'
p1658
sS'Lemma'
p1659
S'Rainsy'
p1660
sS'PartOfSpeech'
p1661
S'NNP'
p1662
sS'CharacterOffsetBegin'
p1663
S'90'
p1664
stp1665
a(S'sought'
p1666
(dp1667
S'NamedEntityTag'
p1668
g69
sS'CharacterOffsetEnd'
p1669
S'103'
p1670
sS'Lemma'
p1671
S'seek'
p1672
sS'PartOfSpeech'
p1673
S'VBD'
p1674
sS'CharacterOffsetBegin'
p1675
S'97'
p1676
stp1677
a(S'further'
p1678
(dp1679
S'NamedEntityTag'
p1680
g69
sS'CharacterOffsetEnd'
p1681
S'111'
p1682
sS'Lemma'
p1683
S'further'
p1684
sS'PartOfSpeech'
p1685
S'RBR'
p1686
sS'CharacterOffsetBegin'
p1687
S'104'
p1688
stp1689
a(S'clarification'
p1690
(dp1691
S'NamedEntityTag'
p1692
g69
sS'CharacterOffsetEnd'
p1693
S'125'
p1694
sS'Lemma'
p1695
S'clarification'
p1696
sS'PartOfSpeech'
p1697
S'NN'
p1698
sS'CharacterOffsetBegin'
p1699
S'112'
p1700
stp1701
a(S'Friday'
p1702
(dp1703
S'NormalizedNamedEntityTag'
p1704
S'XXXX-WXX-5'
p1705
sS'Timex'
p1706
S'<TIMEX3 tid="t1" type="DATE" value="XXXX-WXX-5">Friday</TIMEX3>'
p1707
sS'Lemma'
p1708
S'Friday'
p1709
sS'CharacterOffsetEnd'
p1710
S'132'
p1711
sS'PartOfSpeech'
p1712
S'NNP'
p1713
sS'CharacterOffsetBegin'
p1714
S'126'
p1715
sS'NamedEntityTag'
p1716
S'DATE'
p1717
stp1718
a(S'of'
p1719
(dp1720
S'NamedEntityTag'
p1721
g69
sS'CharacterOffsetEnd'
p1722
S'135'
p1723
sS'Lemma'
p1724
S'of'
p1725
sS'PartOfSpeech'
p1726
S'IN'
p1727
sS'CharacterOffsetBegin'
p1728
S'133'
p1729
stp1730
a(S'security'
p1731
(dp1732
S'NamedEntityTag'
p1733
g69
sS'CharacterOffsetEnd'
p1734
S'144'
p1735
sS'Lemma'
p1736
S'security'
p1737
sS'PartOfSpeech'
p1738
S'NN'
p1739
sS'CharacterOffsetBegin'
p1740
S'136'
p1741
stp1742
a(S'guarantees'
p1743
(dp1744
S'NamedEntityTag'
p1745
g69
sS'CharacterOffsetEnd'
p1746
S'155'
p1747
sS'Lemma'
p1748
S'guarantee'
p1749
sS'PartOfSpeech'
p1750
S'NNS'
p1751
sS'CharacterOffsetBegin'
p1752
S'145'
p1753
stp1754
a(S'promised'
p1755
(dp1756
S'NamedEntityTag'
p1757
g69
sS'CharacterOffsetEnd'
p1758
S'164'
p1759
sS'Lemma'
p1760
S'promise'
p1761
sS'PartOfSpeech'
p1762
S'VBN'
p1763
sS'CharacterOffsetBegin'
p1764
S'156'
p1765
stp1766
a(S'by'
p1767
(dp1768
S'NamedEntityTag'
p1769
g69
sS'CharacterOffsetEnd'
p1770
S'167'
p1771
sS'Lemma'
p1772
S'by'
p1773
sS'PartOfSpeech'
p1774
S'IN'
p1775
sS'CharacterOffsetBegin'
p1776
S'165'
p1777
stp1778
a(S'strongman'
p1779
(dp1780
S'NamedEntityTag'
p1781
g69
sS'CharacterOffsetEnd'
p1782
S'177'
p1783
sS'Lemma'
p1784
S'strongman'
p1785
sS'PartOfSpeech'
p1786
S'NN'
p1787
sS'CharacterOffsetBegin'
p1788
S'168'
p1789
stp1790
a(S'Hun'
p1791
(dp1792
S'NamedEntityTag'
p1793
S'PERSON'
p1794
sS'CharacterOffsetEnd'
p1795
S'181'
p1796
sS'Lemma'
p1797
S'Hun'
p1798
sS'PartOfSpeech'
p1799
S'NNP'
p1800
sS'CharacterOffsetBegin'
p1801
S'178'
p1802
stp1803
a(S'Sen.'
p1804
(dp1805
S'NamedEntityTag'
p1806
g69
sS'CharacterOffsetEnd'
p1807
S'186'
p1808
sS'Lemma'
p1809
S'Sen.'
p1810
sS'PartOfSpeech'
p1811
S'NNP'
p1812
sS'CharacterOffsetBegin'
p1813
S'182'
p1814
stp1815
a(S'Sam'
p1816
(dp1817
S'NamedEntityTag'
p1818
S'PERSON'
p1819
sS'CharacterOffsetEnd'
p1820
S'190'
p1821
sS'Lemma'
p1822
S'Sam'
p1823
sS'PartOfSpeech'
p1824
S'NNP'
p1825
sS'CharacterOffsetBegin'
p1826
S'187'
p1827
stp1828
a(S'Rainsy'
p1829
(dp1830
S'NamedEntityTag'
p1831
S'PERSON'
p1832
sS'CharacterOffsetEnd'
p1833
S'197'
p1834
sS'Lemma'
p1835
S'Rainsy'
p1836
sS'PartOfSpeech'
p1837
S'NNP'
p1838
sS'CharacterOffsetBegin'
p1839
S'191'
p1840
stp1841
a(S'wrote'
p1842
(dp1843
S'NamedEntityTag'
p1844
g69
sS'CharacterOffsetEnd'
p1845
S'203'
p1846
sS'Lemma'
p1847
S'write'
p1848
sS'PartOfSpeech'
p1849
S'VBD'
p1850
sS'CharacterOffsetBegin'
p1851
S'198'
p1852
stp1853
a(S'in'
p1854
(dp1855
S'NamedEntityTag'
p1856
g69
sS'CharacterOffsetEnd'
p1857
S'206'
p1858
sS'Lemma'
p1859
S'in'
p1860
sS'PartOfSpeech'
p1861
S'IN'
p1862
sS'CharacterOffsetBegin'
p1863
S'204'
p1864
stp1865
a(g1116
(dp1866
S'NamedEntityTag'
p1867
g69
sS'CharacterOffsetEnd'
p1868
S'208'
p1869
sS'Lemma'
p1870
g1116
sS'PartOfSpeech'
p1871
S'DT'
p1872
sS'CharacterOffsetBegin'
p1873
S'207'
p1874
stp1875
a(S'letter'
p1876
(dp1877
S'NamedEntityTag'
p1878
g69
sS'CharacterOffsetEnd'
p1879
S'215'
p1880
sS'Lemma'
p1881
S'letter'
p1882
sS'PartOfSpeech'
p1883
S'NN'
p1884
sS'CharacterOffsetBegin'
p1885
S'209'
p1886
stp1887
a(S'to'
p1888
(dp1889
S'NamedEntityTag'
p1890
g69
sS'CharacterOffsetEnd'
p1891
S'218'
p1892
sS'Lemma'
p1893
S'to'
p1894
sS'PartOfSpeech'
p1895
S'TO'
p1896
sS'CharacterOffsetBegin'
p1897
S'216'
p1898
stp1899
a(S'King'
p1900
(dp1901
S'NamedEntityTag'
p1902
g69
sS'CharacterOffsetEnd'
p1903
S'223'
p1904
sS'Lemma'
p1905
S'King'
p1906
sS'PartOfSpeech'
p1907
S'NNP'
p1908
sS'CharacterOffsetBegin'
p1909
S'219'
p1910
stp1911
a(S'Norodom'
p1912
(dp1913
S'NamedEntityTag'
p1914
S'PERSON'
p1915
sS'CharacterOffsetEnd'
p1916
S'231'
p1917
sS'Lemma'
p1918
S'Norodom'
p1919
sS'PartOfSpeech'
p1920
S'NNP'
p1921
sS'CharacterOffsetBegin'
p1922
S'224'
p1923
stp1924
a(S'Sihanouk'
p1925
(dp1926
S'NamedEntityTag'
p1927
S'PERSON'
p1928
sS'CharacterOffsetEnd'
p1929
S'240'
p1930
sS'Lemma'
p1931
S'Sihanouk'
p1932
sS'PartOfSpeech'
p1933
S'NNP'
p1934
sS'CharacterOffsetBegin'
p1935
S'232'
p1936
stp1937
a(S'that'
p1938
(dp1939
S'NamedEntityTag'
p1940
g69
sS'CharacterOffsetEnd'
p1941
S'245'
p1942
sS'Lemma'
p1943
S'that'
p1944
sS'PartOfSpeech'
p1945
S'IN'
p1946
sS'CharacterOffsetBegin'
p1947
S'241'
p1948
stp1949
a(S'he'
p1950
(dp1951
S'NamedEntityTag'
p1952
g69
sS'CharacterOffsetEnd'
p1953
S'248'
p1954
sS'Lemma'
p1955
S'he'
p1956
sS'PartOfSpeech'
p1957
S'PRP'
p1958
sS'CharacterOffsetBegin'
p1959
S'246'
p1960
stp1961
a(S'was'
p1962
(dp1963
S'NamedEntityTag'
p1964
g69
sS'CharacterOffsetEnd'
p1965
S'252'
p1966
sS'Lemma'
p1967
S'be'
p1968
sS'PartOfSpeech'
p1969
S'VBD'
p1970
sS'CharacterOffsetBegin'
p1971
S'249'
p1972
stp1973
a(S'eager'
p1974
(dp1975
S'NamedEntityTag'
p1976
g69
sS'CharacterOffsetEnd'
p1977
S'258'
p1978
sS'Lemma'
p1979
S'eager'
p1980
sS'PartOfSpeech'
p1981
S'JJ'
p1982
sS'CharacterOffsetBegin'
p1983
S'253'
p1984
stp1985
a(S'to'
p1986
(dp1987
S'NamedEntityTag'
p1988
g69
sS'CharacterOffsetEnd'
p1989
S'261'
p1990
sS'Lemma'
p1991
S'to'
p1992
sS'PartOfSpeech'
p1993
S'TO'
p1994
sS'CharacterOffsetBegin'
p1995
S'259'
p1996
stp1997
a(S'attend'
p1998
(dp1999
S'NamedEntityTag'
p2000
g69
sS'CharacterOffsetEnd'
p2001
S'268'
p2002
sS'Lemma'
p2003
S'attend'
p2004
sS'PartOfSpeech'
p2005
S'VB'
p2006
sS'CharacterOffsetBegin'
p2007
S'262'
p2008
stp2009
a(S'the'
p2010
(dp2011
S'NamedEntityTag'
p2012
g69
sS'CharacterOffsetEnd'
p2013
S'272'
p2014
sS'Lemma'
p2015
S'the'
p2016
sS'PartOfSpeech'
p2017
S'DT'
p2018
sS'CharacterOffsetBegin'
p2019
S'269'
p2020
stp2021
a(S'first'
p2022
(dp2023
S'NormalizedNamedEntityTag'
p2024
S'1.0'
p2025
sS'Lemma'
p2026
S'first'
p2027
sS'CharacterOffsetEnd'
p2028
S'278'
p2029
sS'PartOfSpeech'
p2030
S'JJ'
p2031
sS'CharacterOffsetBegin'
p2032
S'273'
p2033
sS'NamedEntityTag'
p2034
S'ORDINAL'
p2035
stp2036
a(S'session'
p2037
(dp2038
S'NamedEntityTag'
p2039
g69
sS'CharacterOffsetEnd'
p2040
S'286'
p2041
sS'Lemma'
p2042
S'session'
p2043
sS'PartOfSpeech'
p2044
S'NN'
p2045
sS'CharacterOffsetBegin'
p2046
S'279'
p2047
stp2048
a(S'of'
p2049
(dp2050
S'NamedEntityTag'
p2051
g69
sS'CharacterOffsetEnd'
p2052
S'289'
p2053
sS'Lemma'
p2054
S'of'
p2055
sS'PartOfSpeech'
p2056
S'IN'
p2057
sS'CharacterOffsetBegin'
p2058
S'287'
p2059
stp2060
a(S'the'
p2061
(dp2062
S'NamedEntityTag'
p2063
g69
sS'CharacterOffsetEnd'
p2064
S'293'
p2065
sS'Lemma'
p2066
S'the'
p2067
sS'PartOfSpeech'
p2068
S'DT'
p2069
sS'CharacterOffsetBegin'
p2070
S'290'
p2071
stp2072
a(S'new'
p2073
(dp2074
S'NamedEntityTag'
p2075
g69
sS'CharacterOffsetEnd'
p2076
S'297'
p2077
sS'Lemma'
p2078
S'new'
p2079
sS'PartOfSpeech'
p2080
S'JJ'
p2081
sS'CharacterOffsetBegin'
p2082
S'294'
p2083
stp2084
a(S'National'
p2085
(dp2086
S'NamedEntityTag'
p2087
g69
sS'CharacterOffsetEnd'
p2088
S'306'
p2089
sS'Lemma'
p2090
S'National'
p2091
sS'PartOfSpeech'
p2092
S'NNP'
p2093
sS'CharacterOffsetBegin'
p2094
S'298'
p2095
stp2096
a(S'Assembly'
p2097
(dp2098
S'NamedEntityTag'
p2099
g69
sS'CharacterOffsetEnd'
p2100
S'315'
p2101
sS'Lemma'
p2102
S'Assembly'
p2103
sS'PartOfSpeech'
p2104
S'NNP'
p2105
sS'CharacterOffsetBegin'
p2106
S'307'
p2107
stp2108
a(S'on'
p2109
(dp2110
S'NamedEntityTag'
p2111
g69
sS'CharacterOffsetEnd'
p2112
S'318'
p2113
sS'Lemma'
p2114
S'on'
p2115
sS'PartOfSpeech'
p2116
S'IN'
p2117
sS'CharacterOffsetBegin'
p2118
S'316'
p2119
stp2120
a(S'Nov'
p2121
(dp2122
S'NormalizedNamedEntityTag'
p2123
S'XXXX-11-25'
p2124
sS'Timex'
p2125
S'<TIMEX3 tid="t2" type="DATE" value="XXXX-11-25">Nov 25</TIMEX3>'
p2126
sS'Lemma'
p2127
S'Nov'
p2128
sS'CharacterOffsetEnd'
p2129
S'322'
p2130
sS'PartOfSpeech'
p2131
S'NNP'
p2132
sS'CharacterOffsetBegin'
p2133
S'319'
p2134
sS'NamedEntityTag'
p2135
S'DATE'
p2136
stp2137
a(S'25'
p2138
(dp2139
S'NormalizedNamedEntityTag'
p2140
S'XXXX-11-25'
p2141
sS'Timex'
p2142
S'<TIMEX3 tid="t2" type="DATE" value="XXXX-11-25">Nov 25</TIMEX3>'
p2143
sS'Lemma'
p2144
S'25'
p2145
sS'CharacterOffsetEnd'
p2146
S'325'
p2147
sS'PartOfSpeech'
p2148
S'CD'
p2149
sS'CharacterOffsetBegin'
p2150
S'323'
p2151
sS'NamedEntityTag'
p2152
S'DATE'
p2153
stp2154
a(g1606
(dp2155
S'NamedEntityTag'
p2156
g69
sS'CharacterOffsetEnd'
p2157
S'326'
p2158
sS'Lemma'
p2159
g1606
sS'PartOfSpeech'
p2160
g1606
sS'CharacterOffsetBegin'
p2161
S'325'
p2162
stp2163
a(S'but'
p2164
(dp2165
S'NamedEntityTag'
p2166
g69
sS'CharacterOffsetEnd'
p2167
S'330'
p2168
sS'Lemma'
p2169
S'but'
p2170
sS'PartOfSpeech'
p2171
S'CC'
p2172
sS'CharacterOffsetBegin'
p2173
S'327'
p2174
stp2175
a(S'complained'
p2176
(dp2177
S'NamedEntityTag'
p2178
g69
sS'CharacterOffsetEnd'
p2179
S'341'
p2180
sS'Lemma'
p2181
S'complain'
p2182
sS'PartOfSpeech'
p2183
S'VBD'
p2184
sS'CharacterOffsetBegin'
p2185
S'331'
p2186
stp2187
a(S'that'
p2188
(dp2189
S'NamedEntityTag'
p2190
g69
sS'CharacterOffsetEnd'
p2191
S'346'
p2192
sS'Lemma'
p2193
S'that'
p2194
sS'PartOfSpeech'
p2195
S'IN'
p2196
sS'CharacterOffsetBegin'
p2197
S'342'
p2198
stp2199
a(S'Hun'
p2200
(dp2201
S'NamedEntityTag'
p2202
S'PERSON'
p2203
sS'CharacterOffsetEnd'
p2204
S'350'
p2205
sS'Lemma'
p2206
S'Hun'
p2207
sS'PartOfSpeech'
p2208
S'NNP'
p2209
sS'CharacterOffsetBegin'
p2210
S'347'
p2211
stp2212
a(S'Sens'
p2213
(dp2214
S'NamedEntityTag'
p2215
S'PERSON'
p2216
sS'CharacterOffsetEnd'
p2217
S'355'
p2218
sS'Lemma'
p2219
S'Sens'
p2220
sS'PartOfSpeech'
p2221
S'NNP'
p2222
sS'CharacterOffsetBegin'
p2223
S'351'
p2224
stp2225
a(S'assurances'
p2226
(dp2227
S'NamedEntityTag'
p2228
g69
sS'CharacterOffsetEnd'
p2229
S'366'
p2230
sS'Lemma'
p2231
S'assurance'
p2232
sS'PartOfSpeech'
p2233
S'NNS'
p2234
sS'CharacterOffsetBegin'
p2235
S'356'
p2236
stp2237
a(S'were'
p2238
(dp2239
S'NamedEntityTag'
p2240
g69
sS'CharacterOffsetEnd'
p2241
S'371'
p2242
sS'Lemma'
p2243
S'be'
p2244
sS'PartOfSpeech'
p2245
S'VBD'
p2246
sS'CharacterOffsetBegin'
p2247
S'367'
p2248
stp2249
a(S'not'
p2250
(dp2251
S'NamedEntityTag'
p2252
g69
sS'CharacterOffsetEnd'
p2253
S'375'
p2254
sS'Lemma'
p2255
S'not'
p2256
sS'PartOfSpeech'
p2257
S'RB'
p2258
sS'CharacterOffsetBegin'
p2259
S'372'
p2260
stp2261
a(S'strong'
p2262
(dp2263
S'NamedEntityTag'
p2264
g69
sS'CharacterOffsetEnd'
p2265
S'382'
p2266
sS'Lemma'
p2267
S'strong'
p2268
sS'PartOfSpeech'
p2269
S'JJ'
p2270
sS'CharacterOffsetBegin'
p2271
S'376'
p2272
stp2273
a(S'enough'
p2274
(dp2275
S'NamedEntityTag'
p2276
g69
sS'CharacterOffsetEnd'
p2277
S'389'
p2278
sS'Lemma'
p2279
S'enough'
p2280
sS'PartOfSpeech'
p2281
S'RB'
p2282
sS'CharacterOffsetBegin'
p2283
S'383'
p2284
stp2285
a(S'to'
p2286
(dp2287
S'NamedEntityTag'
p2288
g69
sS'CharacterOffsetEnd'
p2289
S'392'
p2290
sS'Lemma'
p2291
S'to'
p2292
sS'PartOfSpeech'
p2293
S'TO'
p2294
sS'CharacterOffsetBegin'
p2295
S'390'
p2296
stp2297
a(S'ease'
p2298
(dp2299
S'NamedEntityTag'
p2300
g69
sS'CharacterOffsetEnd'
p2301
S'397'
p2302
sS'Lemma'
p2303
S'ease'
p2304
sS'PartOfSpeech'
p2305
S'VB'
p2306
sS'CharacterOffsetBegin'
p2307
S'393'
p2308
stp2309
a(S'concerns'
p2310
(dp2311
S'NamedEntityTag'
p2312
g69
sS'CharacterOffsetEnd'
p2313
S'406'
p2314
sS'Lemma'
p2315
S'concern'
p2316
sS'PartOfSpeech'
p2317
S'NNS'
p2318
sS'CharacterOffsetBegin'
p2319
S'398'
p2320
stp2321
a(S'his'
p2322
(dp2323
S'NamedEntityTag'
p2324
g69
sS'CharacterOffsetEnd'
p2325
S'410'
p2326
sS'Lemma'
p2327
S'he'
p2328
sS'PartOfSpeech'
p2329
S'PRP$'
p2330
sS'CharacterOffsetBegin'
p2331
S'407'
p2332
stp2333
a(S'party'
p2334
(dp2335
S'NamedEntityTag'
p2336
g69
sS'CharacterOffsetEnd'
p2337
S'416'
p2338
sS'Lemma'
p2339
S'party'
p2340
sS'PartOfSpeech'
p2341
S'NN'
p2342
sS'CharacterOffsetBegin'
p2343
S'411'
p2344
stp2345
a(S'members'
p2346
(dp2347
S'NamedEntityTag'
p2348
g69
sS'CharacterOffsetEnd'
p2349
S'424'
p2350
sS'Lemma'
p2351
S'member'
p2352
sS'PartOfSpeech'
p2353
S'NNS'
p2354
sS'CharacterOffsetBegin'
p2355
S'417'
p2356
stp2357
a(S'may'
p2358
(dp2359
S'NamedEntityTag'
p2360
g69
sS'CharacterOffsetEnd'
p2361
S'428'
p2362
sS'Lemma'
p2363
S'may'
p2364
sS'PartOfSpeech'
p2365
S'MD'
p2366
sS'CharacterOffsetBegin'
p2367
S'425'
p2368
stp2369
a(S'be'
p2370
(dp2371
S'NamedEntityTag'
p2372
g69
sS'CharacterOffsetEnd'
p2373
S'431'
p2374
sS'Lemma'
p2375
S'be'
p2376
sS'PartOfSpeech'
p2377
S'VB'
p2378
sS'CharacterOffsetBegin'
p2379
S'429'
p2380
stp2381
a(S'arrested'
p2382
(dp2383
S'NamedEntityTag'
p2384
g69
sS'CharacterOffsetEnd'
p2385
S'440'
p2386
sS'Lemma'
p2387
S'arrest'
p2388
sS'PartOfSpeech'
p2389
S'VBN'
p2390
sS'CharacterOffsetBegin'
p2391
S'432'
p2392
stp2393
a(S'upon'
p2394
(dp2395
S'NamedEntityTag'
p2396
g69
sS'CharacterOffsetEnd'
p2397
S'445'
p2398
sS'Lemma'
p2399
S'upon'
p2400
sS'PartOfSpeech'
p2401
S'IN'
p2402
sS'CharacterOffsetBegin'
p2403
S'441'
p2404
stp2405
a(S'their'
p2406
(dp2407
S'NamedEntityTag'
p2408
g69
sS'CharacterOffsetEnd'
p2409
S'451'
p2410
sS'Lemma'
p2411
S'they'
p2412
sS'PartOfSpeech'
p2413
S'PRP$'
p2414
sS'CharacterOffsetBegin'
p2415
S'446'
p2416
stp2417
a(S'return'
p2418
(dp2419
S'NamedEntityTag'
p2420
g69
sS'CharacterOffsetEnd'
p2421
S'458'
p2422
sS'Lemma'
p2423
S'return'
p2424
sS'PartOfSpeech'
p2425
S'NN'
p2426
sS'CharacterOffsetBegin'
p2427
S'452'
p2428
stp2429
a(S'to'
p2430
(dp2431
S'NamedEntityTag'
p2432
g69
sS'CharacterOffsetEnd'
p2433
S'461'
p2434
sS'Lemma'
p2435
S'to'
p2436
sS'PartOfSpeech'
p2437
S'TO'
p2438
sS'CharacterOffsetBegin'
p2439
S'459'
p2440
stp2441
a(S'Cambodia'
p2442
(dp2443
S'NamedEntityTag'
p2444
S'LOCATION'
p2445
sS'CharacterOffsetEnd'
p2446
S'470'
p2447
sS'Lemma'
p2448
S'Cambodia'
p2449
sS'PartOfSpeech'
p2450
S'NNP'
p2451
sS'CharacterOffsetBegin'
p2452
S'462'
p2453
stp2454
a(g744
(dp2455
S'NamedEntityTag'
p2456
g69
sS'CharacterOffsetEnd'
p2457
S'471'
p2458
sS'Lemma'
p2459
g744
sS'PartOfSpeech'
p2460
g744
sS'CharacterOffsetBegin'
p2461
S'470'
p2462
stp2463
asa(dp2464
g7
S'(ROOT (S (NP (NNP Hun) (NNP Sen)) (VP (VBD announced) (NP (DT a) (NN government) (NN guarantee)) (NP-TMP (NNP Wednesday)) (PP (IN of) (NP (NP (DT all) (NNS politicians) (NN safety)) (CC and) (NP (PRP$ their) (NN right)))) (S (VP (TO to) (VP (VB conduct) (NP (NP (JJ political) (NNS activities)) (PP (IN in) (NP (NN accordance)))) (PP (IN with) (NP (NP (DT the) (NNS laws)) (PP (IN in) (NP (NN force))))))))) (. .)))'
p2465
sg9
S'Hun Sen announced a government guarantee Wednesday of all politicians safety and their right to conduct political activities in accordance with the laws in force.'
p2466
sg11
(lp2467
(S'root'
p2468
S'ROOT'
p2469
S'announced'
p2470
tp2471
a(S'nn'
p2472
S'Sen'
p2473
S'Hun'
p2474
tp2475
a(S'nsubj'
p2476
S'announced'
p2477
S'Sen'
p2478
tp2479
a(S'det'
p2480
S'guarantee'
p2481
g1116
tp2482
a(S'nn'
p2483
S'guarantee'
p2484
S'government'
p2485
tp2486
a(S'dobj'
p2487
S'announced'
p2488
S'guarantee'
p2489
tp2490
a(S'tmod'
p2491
S'announced'
p2492
S'Wednesday'
p2493
tp2494
a(S'det'
p2495
S'safety'
p2496
S'all'
p2497
tp2498
a(S'nn'
p2499
S'safety'
p2500
S'politicians'
p2501
tp2502
a(S'prep_of'
p2503
S'announced'
p2504
S'safety'
p2505
tp2506
a(S'poss'
p2507
S'right'
p2508
S'their'
p2509
tp2510
a(S'conj_and'
p2511
S'safety'
p2512
S'right'
p2513
tp2514
a(S'aux'
p2515
S'conduct'
p2516
S'to'
p2517
tp2518
a(S'xcomp'
p2519
S'announced'
p2520
S'conduct'
p2521
tp2522
a(S'amod'
p2523
S'activities'
p2524
S'political'
p2525
tp2526
a(S'dobj'
p2527
S'conduct'
p2528
S'activities'
p2529
tp2530
a(S'prep_in'
p2531
S'activities'
p2532
S'accordance'
p2533
tp2534
a(S'det'
p2535
S'laws'
p2536
S'the'
p2537
tp2538
a(S'prep_with'
p2539
S'conduct'
p2540
S'laws'
p2541
tp2542
a(S'prep_in'
p2543
S'laws'
p2544
S'force'
p2545
tp2546
asg41
(lp2547
(g2468
S'ROOT-0'
p2548
S'announced-3'
p2549
tp2550
a(g2472
S'Sen-2'
p2551
S'Hun-1'
p2552
tp2553
a(g2476
S'announced-3'
p2554
S'Sen-2'
p2555
tp2556
a(g2480
S'guarantee-6'
p2557
S'a-4'
p2558
tp2559
a(g2483
S'guarantee-6'
p2560
S'government-5'
p2561
tp2562
a(g2487
S'announced-3'
p2563
S'guarantee-6'
p2564
tp2565
a(g2491
S'announced-3'
p2566
S'Wednesday-7'
p2567
tp2568
a(g2495
S'safety-11'
p2569
S'all-9'
p2570
tp2571
a(g2499
S'safety-11'
p2572
S'politicians-10'
p2573
tp2574
a(g2503
S'announced-3'
p2575
S'safety-11'
p2576
tp2577
a(g2507
S'right-14'
p2578
S'their-13'
p2579
tp2580
a(g2511
S'safety-11'
p2581
S'right-14'
p2582
tp2583
a(g2515
S'conduct-16'
p2584
S'to-15'
p2585
tp2586
a(g2519
S'announced-3'
p2587
S'conduct-16'
p2588
tp2589
a(g2523
S'activities-18'
p2590
S'political-17'
p2591
tp2592
a(g2527
S'conduct-16'
p2593
S'activities-18'
p2594
tp2595
a(g2531
S'activities-18'
p2596
S'accordance-20'
p2597
tp2598
a(g2535
S'laws-23'
p2599
S'the-22'
p2600
tp2601
a(g2539
S'conduct-16'
p2602
S'laws-23'
p2603
tp2604
a(g2543
S'laws-23'
p2605
S'force-25'
p2606
tp2607
asg64
(lp2608
(S'Hun'
p2609
(dp2610
S'NamedEntityTag'
p2611
S'PERSON'
p2612
sS'CharacterOffsetEnd'
p2613
S'475'
p2614
sS'Lemma'
p2615
S'Hun'
p2616
sS'PartOfSpeech'
p2617
S'NNP'
p2618
sS'CharacterOffsetBegin'
p2619
S'472'
p2620
stp2621
a(S'Sen'
p2622
(dp2623
S'NamedEntityTag'
p2624
S'PERSON'
p2625
sS'CharacterOffsetEnd'
p2626
S'479'
p2627
sS'Lemma'
p2628
S'Sen'
p2629
sS'PartOfSpeech'
p2630
S'NNP'
p2631
sS'CharacterOffsetBegin'
p2632
S'476'
p2633
stp2634
a(S'announced'
p2635
(dp2636
S'NamedEntityTag'
p2637
g69
sS'CharacterOffsetEnd'
p2638
S'489'
p2639
sS'Lemma'
p2640
S'announce'
p2641
sS'PartOfSpeech'
p2642
S'VBD'
p2643
sS'CharacterOffsetBegin'
p2644
S'480'
p2645
stp2646
a(g1116
(dp2647
S'NamedEntityTag'
p2648
g69
sS'CharacterOffsetEnd'
p2649
S'491'
p2650
sS'Lemma'
p2651
g1116
sS'PartOfSpeech'
p2652
S'DT'
p2653
sS'CharacterOffsetBegin'
p2654
S'490'
p2655
stp2656
a(S'government'
p2657
(dp2658
S'NamedEntityTag'
p2659
g69
sS'CharacterOffsetEnd'
p2660
S'502'
p2661
sS'Lemma'
p2662
S'government'
p2663
sS'PartOfSpeech'
p2664
S'NN'
p2665
sS'CharacterOffsetBegin'
p2666
S'492'
p2667
stp2668
a(S'guarantee'
p2669
(dp2670
S'NamedEntityTag'
p2671
g69
sS'CharacterOffsetEnd'
p2672
S'512'
p2673
sS'Lemma'
p2674
S'guarantee'
p2675
sS'PartOfSpeech'
p2676
S'NN'
p2677
sS'CharacterOffsetBegin'
p2678
S'503'
p2679
stp2680
a(S'Wednesday'
p2681
(dp2682
S'NormalizedNamedEntityTag'
p2683
S'XXXX-WXX-3'
p2684
sS'Timex'
p2685
S'<TIMEX3 tid="t3" type="DATE" value="XXXX-WXX-3">Wednesday</TIMEX3>'
p2686
sS'Lemma'
p2687
S'Wednesday'
p2688
sS'CharacterOffsetEnd'
p2689
S'522'
p2690
sS'PartOfSpeech'
p2691
S'NNP'
p2692
sS'CharacterOffsetBegin'
p2693
S'513'
p2694
sS'NamedEntityTag'
p2695
S'DATE'
p2696
stp2697
a(S'of'
p2698
(dp2699
S'NamedEntityTag'
p2700
g69
sS'CharacterOffsetEnd'
p2701
S'525'
p2702
sS'Lemma'
p2703
S'of'
p2704
sS'PartOfSpeech'
p2705
S'IN'
p2706
sS'CharacterOffsetBegin'
p2707
S'523'
p2708
stp2709
a(S'all'
p2710
(dp2711
S'NamedEntityTag'
p2712
g69
sS'CharacterOffsetEnd'
p2713
S'529'
p2714
sS'Lemma'
p2715
S'all'
p2716
sS'PartOfSpeech'
p2717
S'DT'
p2718
sS'CharacterOffsetBegin'
p2719
S'526'
p2720
stp2721
a(S'politicians'
p2722
(dp2723
S'NamedEntityTag'
p2724
g69
sS'CharacterOffsetEnd'
p2725
S'541'
p2726
sS'Lemma'
p2727
S'politician'
p2728
sS'PartOfSpeech'
p2729
S'NNS'
p2730
sS'CharacterOffsetBegin'
p2731
S'530'
p2732
stp2733
a(S'safety'
p2734
(dp2735
S'NamedEntityTag'
p2736
g69
sS'CharacterOffsetEnd'
p2737
S'548'
p2738
sS'Lemma'
p2739
S'safety'
p2740
sS'PartOfSpeech'
p2741
S'NN'
p2742
sS'CharacterOffsetBegin'
p2743
S'542'
p2744
stp2745
a(S'and'
p2746
(dp2747
S'NamedEntityTag'
p2748
g69
sS'CharacterOffsetEnd'
p2749
S'552'
p2750
sS'Lemma'
p2751
S'and'
p2752
sS'PartOfSpeech'
p2753
S'CC'
p2754
sS'CharacterOffsetBegin'
p2755
S'549'
p2756
stp2757
a(S'their'
p2758
(dp2759
S'NamedEntityTag'
p2760
g69
sS'CharacterOffsetEnd'
p2761
S'558'
p2762
sS'Lemma'
p2763
S'they'
p2764
sS'PartOfSpeech'
p2765
S'PRP$'
p2766
sS'CharacterOffsetBegin'
p2767
S'553'
p2768
stp2769
a(S'right'
p2770
(dp2771
S'NamedEntityTag'
p2772
g69
sS'CharacterOffsetEnd'
p2773
S'564'
p2774
sS'Lemma'
p2775
S'right'
p2776
sS'PartOfSpeech'
p2777
S'NN'
p2778
sS'CharacterOffsetBegin'
p2779
S'559'
p2780
stp2781
a(S'to'
p2782
(dp2783
S'NamedEntityTag'
p2784
g69
sS'CharacterOffsetEnd'
p2785
S'567'
p2786
sS'Lemma'
p2787
S'to'
p2788
sS'PartOfSpeech'
p2789
S'TO'
p2790
sS'CharacterOffsetBegin'
p2791
S'565'
p2792
stp2793
a(S'conduct'
p2794
(dp2795
S'NamedEntityTag'
p2796
g69
sS'CharacterOffsetEnd'
p2797
S'575'
p2798
sS'Lemma'
p2799
S'conduct'
p2800
sS'PartOfSpeech'
p2801
S'VB'
p2802
sS'CharacterOffsetBegin'
p2803
S'568'
p2804
stp2805
a(S'political'
p2806
(dp2807
S'NamedEntityTag'
p2808
g69
sS'CharacterOffsetEnd'
p2809
S'585'
p2810
sS'Lemma'
p2811
S'political'
p2812
sS'PartOfSpeech'
p2813
S'JJ'
p2814
sS'CharacterOffsetBegin'
p2815
S'576'
p2816
stp2817
a(S'activities'
p2818
(dp2819
S'NamedEntityTag'
p2820
g69
sS'CharacterOffsetEnd'
p2821
S'596'
p2822
sS'Lemma'
p2823
S'activity'
p2824
sS'PartOfSpeech'
p2825
S'NNS'
p2826
sS'CharacterOffsetBegin'
p2827
S'586'
p2828
stp2829
a(S'in'
p2830
(dp2831
S'NamedEntityTag'
p2832
g69
sS'CharacterOffsetEnd'
p2833
S'599'
p2834
sS'Lemma'
p2835
S'in'
p2836
sS'PartOfSpeech'
p2837
S'IN'
p2838
sS'CharacterOffsetBegin'
p2839
S'597'
p2840
stp2841
a(S'accordance'
p2842
(dp2843
S'NamedEntityTag'
p2844
g69
sS'CharacterOffsetEnd'
p2845
S'610'
p2846
sS'Lemma'
p2847
S'accordance'
p2848
sS'PartOfSpeech'
p2849
S'NN'
p2850
sS'CharacterOffsetBegin'
p2851
S'600'
p2852
stp2853
a(S'with'
p2854
(dp2855
S'NamedEntityTag'
p2856
g69
sS'CharacterOffsetEnd'
p2857
S'615'
p2858
sS'Lemma'
p2859
S'with'
p2860
sS'PartOfSpeech'
p2861
S'IN'
p2862
sS'CharacterOffsetBegin'
p2863
S'611'
p2864
stp2865
a(S'the'
p2866
(dp2867
S'NamedEntityTag'
p2868
g69
sS'CharacterOffsetEnd'
p2869
S'619'
p2870
sS'Lemma'
p2871
S'the'
p2872
sS'PartOfSpeech'
p2873
S'DT'
p2874
sS'CharacterOffsetBegin'
p2875
S'616'
p2876
stp2877
a(S'laws'
p2878
(dp2879
S'NamedEntityTag'
p2880
g69
sS'CharacterOffsetEnd'
p2881
S'624'
p2882
sS'Lemma'
p2883
S'law'
p2884
sS'PartOfSpeech'
p2885
S'NNS'
p2886
sS'CharacterOffsetBegin'
p2887
S'620'
p2888
stp2889
a(S'in'
p2890
(dp2891
S'NamedEntityTag'
p2892
g69
sS'CharacterOffsetEnd'
p2893
S'627'
p2894
sS'Lemma'
p2895
S'in'
p2896
sS'PartOfSpeech'
p2897
S'IN'
p2898
sS'CharacterOffsetBegin'
p2899
S'625'
p2900
stp2901
a(S'force'
p2902
(dp2903
S'NamedEntityTag'
p2904
g69
sS'CharacterOffsetEnd'
p2905
S'633'
p2906
sS'Lemma'
p2907
S'force'
p2908
sS'PartOfSpeech'
p2909
S'NN'
p2910
sS'CharacterOffsetBegin'
p2911
S'628'
p2912
stp2913
a(g744
(dp2914
S'NamedEntityTag'
p2915
g69
sS'CharacterOffsetEnd'
p2916
S'634'
p2917
sS'Lemma'
p2918
g744
sS'PartOfSpeech'
p2919
g744
sS'CharacterOffsetBegin'
p2920
S'633'
p2921
stp2922
asa(dp2923
g7
S'(ROOT (S (NP (NP (NNP Sam) (NNP Rainsy)) (, ,) (SBAR (WHNP (WP who)) (S (ADVP (RB earlier)) (VP (VBD called) (NP (NP (NNP Hun) (NNP Sens) (NN statement)) (PP (JJ full) (IN of) (NP (NNS loopholes))))))) (, ,)) (VP (VBD asked) (NP (NP (NNP Sihanouk)) (PP (IN for) (NP (PRP$ his) (NN help)))) (PP (IN in) (S (VP (VBG obtaining) (NP (DT a) (NN promise)) (PP (IN from) (NP (NNP Hun) (NNP Sen))) (SBAR (IN that) (S (NP (NP (DT all) (NNS members)) (PP (IN of) (NP (DT the) (NNP Sam) (NNP Rainsy) (NNP Party)))) (VP (VBD were) (ADJP (JJ free) (PP (IN from) (NP (NP (NN prosecution)) (PP (IN for) (NP (PRP$ their) (JJ political) (NNS activities)))))) (PP (IN during) (CC and) (IN after) (NP (JJ last) (NNP Julys) (NN election)))))))))) (. .)))'
p2924
sg9
S'Sam Rainsy, who earlier called Hun Sens statement full of loopholes, asked Sihanouk for his help in obtaining a promise from Hun Sen that all members of the Sam Rainsy Party were free from prosecution for their political activities during and after last Julys election.'
p2925
sg11
(lp2926
(S'root'
p2927
S'ROOT'
p2928
S'asked'
p2929
tp2930
a(S'nn'
p2931
S'Rainsy'
p2932
S'Sam'
p2933
tp2934
a(S'nsubj'
p2935
S'asked'
p2936
S'Rainsy'
p2937
tp2938
a(S'nsubj'
p2939
S'called'
p2940
S'who'
p2941
tp2942
a(S'advmod'
p2943
S'called'
p2944
S'earlier'
p2945
tp2946
a(S'rcmod'
p2947
S'Rainsy'
p2948
S'called'
p2949
tp2950
a(S'nn'
p2951
S'statement'
p2952
S'Hun'
p2953
tp2954
a(S'nn'
p2955
S'statement'
p2956
S'Sens'
p2957
tp2958
a(S'dobj'
p2959
S'called'
p2960
S'statement'
p2961
tp2962
a(S'dep'
p2963
S'statement'
p2964
S'full'
p2965
tp2966
a(S'prep_of'
p2967
S'statement'
p2968
S'loopholes'
p2969
tp2970
a(S'dobj'
p2971
S'asked'
p2972
S'Sihanouk'
p2973
tp2974
a(S'poss'
p2975
S'help'
p2976
S'his'
p2977
tp2978
a(S'prep_for'
p2979
S'Sihanouk'
p2980
S'help'
p2981
tp2982
a(S'prepc_in'
p2983
S'asked'
p2984
S'obtaining'
p2985
tp2986
a(S'det'
p2987
S'promise'
p2988
g1116
tp2989
a(S'dobj'
p2990
S'obtaining'
p2991
S'promise'
p2992
tp2993
a(S'nn'
p2994
S'Sen'
p2995
S'Hun'
p2996
tp2997
a(S'prep_from'
p2998
S'obtaining'
p2999
S'Sen'
p3000
tp3001
a(S'mark'
p3002
S'free'
p3003
S'that'
p3004
tp3005
a(S'det'
p3006
S'members'
p3007
S'all'
p3008
tp3009
a(S'nsubj'
p3010
S'free'
p3011
S'members'
p3012
tp3013
a(S'det'
p3014
S'Party'
p3015
S'the'
p3016
tp3017
a(S'nn'
p3018
S'Party'
p3019
S'Sam'
p3020
tp3021
a(S'nn'
p3022
S'Party'
p3023
S'Rainsy'
p3024
tp3025
a(S'prep_of'
p3026
S'members'
p3027
S'Party'
p3028
tp3029
a(S'cop'
p3030
S'free'
p3031
S'were'
p3032
tp3033
a(S'ccomp'
p3034
S'obtaining'
p3035
S'free'
p3036
tp3037
a(S'conj_and'
p3038
S'free'
p3039
S'free'
p3040
tp3041
a(S'prep_from'
p3042
S'free'
p3043
S'prosecution'
p3044
tp3045
a(S'poss'
p3046
S'activities'
p3047
S'their'
p3048
tp3049
a(S'amod'
p3050
S'activities'
p3051
S'political'
p3052
tp3053
a(S'prep_for'
p3054
S'prosecution'
p3055
S'activities'
p3056
tp3057
a(S'amod'
p3058
S'election'
p3059
S'last'
p3060
tp3061
a(S'nn'
p3062
S'election'
p3063
S'Julys'
p3064
tp3065
a(S'prep_after'
p3066
S'free'
p3067
S'election'
p3068
tp3069
a(S'prep_during'
p3070
S'free'
p3071
S'election'
p3072
tp3073
asg41
(lp3074
(g2927
S'ROOT-0'
p3075
S'asked-14'
p3076
tp3077
a(g2931
S'Rainsy-2'
p3078
S'Sam-1'
p3079
tp3080
a(g2935
S'asked-14'
p3081
S'Rainsy-2'
p3082
tp3083
a(g2939
S'called-6'
p3084
S'who-4'
p3085
tp3086
a(g2943
S'called-6'
p3087
S'earlier-5'
p3088
tp3089
a(g2947
S'Rainsy-2'
p3090
S'called-6'
p3091
tp3092
a(g2951
S'statement-9'
p3093
S'Hun-7'
p3094
tp3095
a(g2955
S'statement-9'
p3096
S'Sens-8'
p3097
tp3098
a(g2959
S'called-6'
p3099
S'statement-9'
p3100
tp3101
a(g2963
S'statement-9'
p3102
S'full-10'
p3103
tp3104
a(g2967
S'statement-9'
p3105
S'loopholes-12'
p3106
tp3107
a(g2971
S'asked-14'
p3108
S'Sihanouk-15'
p3109
tp3110
a(g2975
S'help-18'
p3111
S'his-17'
p3112
tp3113
a(g2979
S'Sihanouk-15'
p3114
S'help-18'
p3115
tp3116
a(g2983
S'asked-14'
p3117
S'obtaining-20'
p3118
tp3119
a(g2987
S'promise-22'
p3120
S'a-21'
p3121
tp3122
a(g2990
S'obtaining-20'
p3123
S'promise-22'
p3124
tp3125
a(g2994
S'Sen-25'
p3126
S'Hun-24'
p3127
tp3128
a(g2998
S'obtaining-20'
p3129
S'Sen-25'
p3130
tp3131
a(g3002
S'free-35'
p3132
S'that-26'
p3133
tp3134
a(g3006
S'members-28'
p3135
S'all-27'
p3136
tp3137
a(g3010
S'free-35'
p3138
S'members-28'
p3139
tp3140
a(g3014
S'Party-33'
p3141
S'the-30'
p3142
tp3143
a(g3018
S'Party-33'
p3144
S'Sam-31'
p3145
tp3146
a(g3022
S'Party-33'
p3147
S'Rainsy-32'
p3148
tp3149
a(g3026
S'members-28'
p3150
S'Party-33'
p3151
tp3152
a(g3030
S'free-35'
p3153
S'were-34'
p3154
tp3155
a(g3034
S'obtaining-20'
p3156
S'free-35'
p3157
tp3158
a(g3038
S'free-35'
p3159
S'free-35'
p3160
tp3161
a(g3042
S'free-35'
p3162
S'prosecution-37'
p3163
tp3164
a(g3046
S'activities-41'
p3165
S'their-39'
p3166
tp3167
a(g3050
S'activities-41'
p3168
S'political-40'
p3169
tp3170
a(g3054
S'prosecution-37'
p3171
S'activities-41'
p3172
tp3173
a(g3058
S'election-47'
p3174
S'last-45'
p3175
tp3176
a(g3062
S'election-47'
p3177
S'Julys-46'
p3178
tp3179
a(g3066
S'free-35'
p3180
S'election-47'
p3181
tp3182
a(g3070
S'free-35'
p3183
S'election-47'
p3184
tp3185
asg64
(lp3186
(S'Sam'
p3187
(dp3188
S'NamedEntityTag'
p3189
S'PERSON'
p3190
sS'CharacterOffsetEnd'
p3191
S'638'
p3192
sS'Lemma'
p3193
S'Sam'
p3194
sS'PartOfSpeech'
p3195
S'NNP'
p3196
sS'CharacterOffsetBegin'
p3197
S'635'
p3198
stp3199
a(S'Rainsy'
p3200
(dp3201
S'NamedEntityTag'
p3202
S'PERSON'
p3203
sS'CharacterOffsetEnd'
p3204
S'645'
p3205
sS'Lemma'
p3206
S'Rainsy'
p3207
sS'PartOfSpeech'
p3208
S'NNP'
p3209
sS'CharacterOffsetBegin'
p3210
S'639'
p3211
stp3212
a(g1606
(dp3213
S'NamedEntityTag'
p3214
g69
sS'CharacterOffsetEnd'
p3215
S'646'
p3216
sS'Lemma'
p3217
g1606
sS'PartOfSpeech'
p3218
g1606
sS'CharacterOffsetBegin'
p3219
S'645'
p3220
stp3221
a(S'who'
p3222
(dp3223
S'NamedEntityTag'
p3224
g69
sS'CharacterOffsetEnd'
p3225
S'650'
p3226
sS'Lemma'
p3227
S'who'
p3228
sS'PartOfSpeech'
p3229
S'WP'
p3230
sS'CharacterOffsetBegin'
p3231
S'647'
p3232
stp3233
a(S'earlier'
p3234
(dp3235
S'NamedEntityTag'
p3236
g69
sS'CharacterOffsetEnd'
p3237
S'658'
p3238
sS'Lemma'
p3239
S'earlier'
p3240
sS'PartOfSpeech'
p3241
S'RB'
p3242
sS'CharacterOffsetBegin'
p3243
S'651'
p3244
stp3245
a(S'called'
p3246
(dp3247
S'NamedEntityTag'
p3248
g69
sS'CharacterOffsetEnd'
p3249
S'665'
p3250
sS'Lemma'
p3251
S'call'
p3252
sS'PartOfSpeech'
p3253
S'VBD'
p3254
sS'CharacterOffsetBegin'
p3255
S'659'
p3256
stp3257
a(S'Hun'
p3258
(dp3259
S'NamedEntityTag'
p3260
S'PERSON'
p3261
sS'CharacterOffsetEnd'
p3262
S'669'
p3263
sS'Lemma'
p3264
S'Hun'
p3265
sS'PartOfSpeech'
p3266
S'NNP'
p3267
sS'CharacterOffsetBegin'
p3268
S'666'
p3269
stp3270
a(S'Sens'
p3271
(dp3272
S'NamedEntityTag'
p3273
S'PERSON'
p3274
sS'CharacterOffsetEnd'
p3275
S'674'
p3276
sS'Lemma'
p3277
S'Sens'
p3278
sS'PartOfSpeech'
p3279
S'NNP'
p3280
sS'CharacterOffsetBegin'
p3281
S'670'
p3282
stp3283
a(S'statement'
p3284
(dp3285
S'NamedEntityTag'
p3286
g69
sS'CharacterOffsetEnd'
p3287
S'684'
p3288
sS'Lemma'
p3289
S'statement'
p3290
sS'PartOfSpeech'
p3291
S'NN'
p3292
sS'CharacterOffsetBegin'
p3293
S'675'
p3294
stp3295
a(S'full'
p3296
(dp3297
S'NamedEntityTag'
p3298
g69
sS'CharacterOffsetEnd'
p3299
S'689'
p3300
sS'Lemma'
p3301
S'full'
p3302
sS'PartOfSpeech'
p3303
S'JJ'
p3304
sS'CharacterOffsetBegin'
p3305
S'685'
p3306
stp3307
a(S'of'
p3308
(dp3309
S'NamedEntityTag'
p3310
g69
sS'CharacterOffsetEnd'
p3311
S'692'
p3312
sS'Lemma'
p3313
S'of'
p3314
sS'PartOfSpeech'
p3315
S'IN'
p3316
sS'CharacterOffsetBegin'
p3317
S'690'
p3318
stp3319
a(S'loopholes'
p3320
(dp3321
S'NamedEntityTag'
p3322
g69
sS'CharacterOffsetEnd'
p3323
S'702'
p3324
sS'Lemma'
p3325
S'loophole'
p3326
sS'PartOfSpeech'
p3327
S'NNS'
p3328
sS'CharacterOffsetBegin'
p3329
S'693'
p3330
stp3331
a(g1606
(dp3332
S'NamedEntityTag'
p3333
g69
sS'CharacterOffsetEnd'
p3334
S'703'
p3335
sS'Lemma'
p3336
g1606
sS'PartOfSpeech'
p3337
g1606
sS'CharacterOffsetBegin'
p3338
S'702'
p3339
stp3340
a(S'asked'
p3341
(dp3342
S'NamedEntityTag'
p3343
g69
sS'CharacterOffsetEnd'
p3344
S'709'
p3345
sS'Lemma'
p3346
S'ask'
p3347
sS'PartOfSpeech'
p3348
S'VBD'
p3349
sS'CharacterOffsetBegin'
p3350
S'704'
p3351
stp3352
a(S'Sihanouk'
p3353
(dp3354
S'NamedEntityTag'
p3355
S'PERSON'
p3356
sS'CharacterOffsetEnd'
p3357
S'718'
p3358
sS'Lemma'
p3359
S'Sihanouk'
p3360
sS'PartOfSpeech'
p3361
S'NNP'
p3362
sS'CharacterOffsetBegin'
p3363
S'710'
p3364
stp3365
a(S'for'
p3366
(dp3367
S'NamedEntityTag'
p3368
g69
sS'CharacterOffsetEnd'
p3369
S'722'
p3370
sS'Lemma'
p3371
S'for'
p3372
sS'PartOfSpeech'
p3373
S'IN'
p3374
sS'CharacterOffsetBegin'
p3375
S'719'
p3376
stp3377
a(S'his'
p3378
(dp3379
S'NamedEntityTag'
p3380
g69
sS'CharacterOffsetEnd'
p3381
S'726'
p3382
sS'Lemma'
p3383
S'he'
p3384
sS'PartOfSpeech'
p3385
S'PRP$'
p3386
sS'CharacterOffsetBegin'
p3387
S'723'
p3388
stp3389
a(S'help'
p3390
(dp3391
S'NamedEntityTag'
p3392
g69
sS'CharacterOffsetEnd'
p3393
S'731'
p3394
sS'Lemma'
p3395
S'help'
p3396
sS'PartOfSpeech'
p3397
S'NN'
p3398
sS'CharacterOffsetBegin'
p3399
S'727'
p3400
stp3401
a(S'in'
p3402
(dp3403
S'NamedEntityTag'
p3404
g69
sS'CharacterOffsetEnd'
p3405
S'734'
p3406
sS'Lemma'
p3407
S'in'
p3408
sS'PartOfSpeech'
p3409
S'IN'
p3410
sS'CharacterOffsetBegin'
p3411
S'732'
p3412
stp3413
a(S'obtaining'
p3414
(dp3415
S'NamedEntityTag'
p3416
g69
sS'CharacterOffsetEnd'
p3417
S'744'
p3418
sS'Lemma'
p3419
S'obtain'
p3420
sS'PartOfSpeech'
p3421
S'VBG'
p3422
sS'CharacterOffsetBegin'
p3423
S'735'
p3424
stp3425
a(g1116
(dp3426
S'NamedEntityTag'
p3427
g69
sS'CharacterOffsetEnd'
p3428
S'746'
p3429
sS'Lemma'
p3430
g1116
sS'PartOfSpeech'
p3431
S'DT'
p3432
sS'CharacterOffsetBegin'
p3433
S'745'
p3434
stp3435
a(S'promise'
p3436
(dp3437
S'NamedEntityTag'
p3438
g69
sS'CharacterOffsetEnd'
p3439
S'754'
p3440
sS'Lemma'
p3441
S'promise'
p3442
sS'PartOfSpeech'
p3443
S'NN'
p3444
sS'CharacterOffsetBegin'
p3445
S'747'
p3446
stp3447
a(S'from'
p3448
(dp3449
S'NamedEntityTag'
p3450
g69
sS'CharacterOffsetEnd'
p3451
S'759'
p3452
sS'Lemma'
p3453
S'from'
p3454
sS'PartOfSpeech'
p3455
S'IN'
p3456
sS'CharacterOffsetBegin'
p3457
S'755'
p3458
stp3459
a(S'Hun'
p3460
(dp3461
S'NamedEntityTag'
p3462
S'PERSON'
p3463
sS'CharacterOffsetEnd'
p3464
S'763'
p3465
sS'Lemma'
p3466
S'Hun'
p3467
sS'PartOfSpeech'
p3468
S'NNP'
p3469
sS'CharacterOffsetBegin'
p3470
S'760'
p3471
stp3472
a(S'Sen'
p3473
(dp3474
S'NamedEntityTag'
p3475
S'PERSON'
p3476
sS'CharacterOffsetEnd'
p3477
S'767'
p3478
sS'Lemma'
p3479
S'Sen'
p3480
sS'PartOfSpeech'
p3481
S'NNP'
p3482
sS'CharacterOffsetBegin'
p3483
S'764'
p3484
stp3485
a(S'that'
p3486
(dp3487
S'NamedEntityTag'
p3488
g69
sS'CharacterOffsetEnd'
p3489
S'772'
p3490
sS'Lemma'
p3491
S'that'
p3492
sS'PartOfSpeech'
p3493
S'IN'
p3494
sS'CharacterOffsetBegin'
p3495
S'768'
p3496
stp3497
a(S'all'
p3498
(dp3499
S'NamedEntityTag'
p3500
g69
sS'CharacterOffsetEnd'
p3501
S'776'
p3502
sS'Lemma'
p3503
S'all'
p3504
sS'PartOfSpeech'
p3505
S'DT'
p3506
sS'CharacterOffsetBegin'
p3507
S'773'
p3508
stp3509
a(S'members'
p3510
(dp3511
S'NamedEntityTag'
p3512
g69
sS'CharacterOffsetEnd'
p3513
S'784'
p3514
sS'Lemma'
p3515
S'member'
p3516
sS'PartOfSpeech'
p3517
S'NNS'
p3518
sS'CharacterOffsetBegin'
p3519
S'777'
p3520
stp3521
a(S'of'
p3522
(dp3523
S'NamedEntityTag'
p3524
g69
sS'CharacterOffsetEnd'
p3525
S'787'
p3526
sS'Lemma'
p3527
S'of'
p3528
sS'PartOfSpeech'
p3529
S'IN'
p3530
sS'CharacterOffsetBegin'
p3531
S'785'
p3532
stp3533
a(S'the'
p3534
(dp3535
S'NamedEntityTag'
p3536
g69
sS'CharacterOffsetEnd'
p3537
S'791'
p3538
sS'Lemma'
p3539
S'the'
p3540
sS'PartOfSpeech'
p3541
S'DT'
p3542
sS'CharacterOffsetBegin'
p3543
S'788'
p3544
stp3545
a(S'Sam'
p3546
(dp3547
S'NamedEntityTag'
p3548
S'PERSON'
p3549
sS'CharacterOffsetEnd'
p3550
S'795'
p3551
sS'Lemma'
p3552
S'Sam'
p3553
sS'PartOfSpeech'
p3554
S'NNP'
p3555
sS'CharacterOffsetBegin'
p3556
S'792'
p3557
stp3558
a(S'Rainsy'
p3559
(dp3560
S'NamedEntityTag'
p3561
S'PERSON'
p3562
sS'CharacterOffsetEnd'
p3563
S'802'
p3564
sS'Lemma'
p3565
S'Rainsy'
p3566
sS'PartOfSpeech'
p3567
S'NNP'
p3568
sS'CharacterOffsetBegin'
p3569
S'796'
p3570
stp3571
a(S'Party'
p3572
(dp3573
S'NamedEntityTag'
p3574
g69
sS'CharacterOffsetEnd'
p3575
S'808'
p3576
sS'Lemma'
p3577
S'Party'
p3578
sS'PartOfSpeech'
p3579
S'NNP'
p3580
sS'CharacterOffsetBegin'
p3581
S'803'
p3582
stp3583
a(S'were'
p3584
(dp3585
S'NamedEntityTag'
p3586
g69
sS'CharacterOffsetEnd'
p3587
S'813'
p3588
sS'Lemma'
p3589
S'be'
p3590
sS'PartOfSpeech'
p3591
S'VBD'
p3592
sS'CharacterOffsetBegin'
p3593
S'809'
p3594
stp3595
a(S'free'
p3596
(dp3597
S'NamedEntityTag'
p3598
g69
sS'CharacterOffsetEnd'
p3599
S'818'
p3600
sS'Lemma'
p3601
S'free'
p3602
sS'PartOfSpeech'
p3603
S'JJ'
p3604
sS'CharacterOffsetBegin'
p3605
S'814'
p3606
stp3607
a(S'from'
p3608
(dp3609
S'NamedEntityTag'
p3610
g69
sS'CharacterOffsetEnd'
p3611
S'823'
p3612
sS'Lemma'
p3613
S'from'
p3614
sS'PartOfSpeech'
p3615
S'IN'
p3616
sS'CharacterOffsetBegin'
p3617
S'819'
p3618
stp3619
a(S'prosecution'
p3620
(dp3621
S'NamedEntityTag'
p3622
g69
sS'CharacterOffsetEnd'
p3623
S'835'
p3624
sS'Lemma'
p3625
S'prosecution'
p3626
sS'PartOfSpeech'
p3627
S'NN'
p3628
sS'CharacterOffsetBegin'
p3629
S'824'
p3630
stp3631
a(S'for'
p3632
(dp3633
S'NamedEntityTag'
p3634
g69
sS'CharacterOffsetEnd'
p3635
S'839'
p3636
sS'Lemma'
p3637
S'for'
p3638
sS'PartOfSpeech'
p3639
S'IN'
p3640
sS'CharacterOffsetBegin'
p3641
S'836'
p3642
stp3643
a(S'their'
p3644
(dp3645
S'NamedEntityTag'
p3646
g69
sS'CharacterOffsetEnd'
p3647
S'845'
p3648
sS'Lemma'
p3649
S'they'
p3650
sS'PartOfSpeech'
p3651
S'PRP$'
p3652
sS'CharacterOffsetBegin'
p3653
S'840'
p3654
stp3655
a(S'political'
p3656
(dp3657
S'NamedEntityTag'
p3658
g69
sS'CharacterOffsetEnd'
p3659
S'855'
p3660
sS'Lemma'
p3661
S'political'
p3662
sS'PartOfSpeech'
p3663
S'JJ'
p3664
sS'CharacterOffsetBegin'
p3665
S'846'
p3666
stp3667
a(S'activities'
p3668
(dp3669
S'NamedEntityTag'
p3670
g69
sS'CharacterOffsetEnd'
p3671
S'866'
p3672
sS'Lemma'
p3673
S'activity'
p3674
sS'PartOfSpeech'
p3675
S'NNS'
p3676
sS'CharacterOffsetBegin'
p3677
S'856'
p3678
stp3679
a(S'during'
p3680
(dp3681
S'NamedEntityTag'
p3682
g69
sS'CharacterOffsetEnd'
p3683
S'873'
p3684
sS'Lemma'
p3685
S'during'
p3686
sS'PartOfSpeech'
p3687
S'IN'
p3688
sS'CharacterOffsetBegin'
p3689
S'867'
p3690
stp3691
a(S'and'
p3692
(dp3693
S'NamedEntityTag'
p3694
g69
sS'CharacterOffsetEnd'
p3695
S'877'
p3696
sS'Lemma'
p3697
S'and'
p3698
sS'PartOfSpeech'
p3699
S'CC'
p3700
sS'CharacterOffsetBegin'
p3701
S'874'
p3702
stp3703
a(S'after'
p3704
(dp3705
S'NamedEntityTag'
p3706
g69
sS'CharacterOffsetEnd'
p3707
S'883'
p3708
sS'Lemma'
p3709
S'after'
p3710
sS'PartOfSpeech'
p3711
S'IN'
p3712
sS'CharacterOffsetBegin'
p3713
S'878'
p3714
stp3715
a(S'last'
p3716
(dp3717
S'NormalizedNamedEntityTag'
p3718
S'XXXX-07'
p3719
sS'Timex'
p3720
S'<TIMEX3 alt_value="XXXX-07 OFFSET P-1Y" anchorTimeID="t5" temporalFunction="true" tid="t4" type="DATE" valueFromFunction="tf0">last Julys</TIMEX3>'
p3721
sS'Lemma'
p3722
S'last'
p3723
sS'CharacterOffsetEnd'
p3724
S'888'
p3725
sS'PartOfSpeech'
p3726
S'JJ'
p3727
sS'CharacterOffsetBegin'
p3728
S'884'
p3729
sS'NamedEntityTag'
p3730
S'DATE'
p3731
stp3732
a(S'Julys'
p3733
(dp3734
S'NormalizedNamedEntityTag'
p3735
S'XXXX-07'
p3736
sS'Timex'
p3737
S'<TIMEX3 alt_value="XXXX-07 OFFSET P-1Y" anchorTimeID="t5" temporalFunction="true" tid="t4" type="DATE" valueFromFunction="tf0">last Julys</TIMEX3>'
p3738
sS'Lemma'
p3739
S'Julys'
p3740
sS'CharacterOffsetEnd'
p3741
S'894'
p3742
sS'PartOfSpeech'
p3743
S'NNP'
p3744
sS'CharacterOffsetBegin'
p3745
S'889'
p3746
sS'NamedEntityTag'
p3747
S'DATE'
p3748
stp3749
a(S'election'
p3750
(dp3751
S'NamedEntityTag'
p3752
g69
sS'CharacterOffsetEnd'
p3753
S'903'
p3754
sS'Lemma'
p3755
S'election'
p3756
sS'PartOfSpeech'
p3757
S'NN'
p3758
sS'CharacterOffsetBegin'
p3759
S'895'
p3760
stp3761
a(g744
(dp3762
S'NamedEntityTag'
p3763
g69
sS'CharacterOffsetEnd'
p3764
S'904'
p3765
sS'Lemma'
p3766
g744
sS'PartOfSpeech'
p3767
g744
sS'CharacterOffsetBegin'
p3768
S'903'
p3769
stp3770
asa(dp3771
g7
S'(ROOT (S (NP (NP (NNP Sam) (NNP Rainsy)) (, ,) (NP (NP (DT a) (JJ staunch) (NN critic)) (PP (IN of) (NP (NNP Hun) (NNP Sen)))) (, ,)) (VP (VBD was) (VP (VBN forced) (S (VP (TO to) (VP (VB take) (NP (NP (NN refuge)) (PP (IN in) (NP (DT a) (NNP U.N.) (NN office)))) (PP (IN in) (NP (NNP September))) (S (VP (TO to) (VP (VB avoid) (NP (NN arrest)) (SBAR (IN after) (S (NP (NNP Hun) (NNP Sen)) (VP (VBD accused) (NP (PRP him)) (PP (IN of) (S (VP (VBG being) (PP (IN behind) (NP (NP (DT a) (NN plot)) (PP (IN against) (NP (PRP$ his) (NN life))))))))))))))))))) (. .)))'
p3772
sg9
S'Sam Rainsy, a staunch critic of Hun Sen, was forced to take refuge in a U.N. office in September to avoid arrest after Hun Sen accused him of being behind a plot against his life.'
p3773
sg11
(lp3774
(S'root'
p3775
S'ROOT'
p3776
S'forced'
p3777
tp3778
a(S'nn'
p3779
S'Rainsy'
p3780
S'Sam'
p3781
tp3782
a(S'nsubjpass'
p3783
S'forced'
p3784
S'Rainsy'
p3785
tp3786
a(S'det'
p3787
S'critic'
p3788
g1116
tp3789
a(S'amod'
p3790
S'critic'
p3791
S'staunch'
p3792
tp3793
a(S'appos'
p3794
S'Rainsy'
p3795
S'critic'
p3796
tp3797
a(S'nn'
p3798
S'Sen'
p3799
S'Hun'
p3800
tp3801
a(S'prep_of'
p3802
S'critic'
p3803
S'Sen'
p3804
tp3805
a(S'auxpass'
p3806
S'forced'
p3807
S'was'
p3808
tp3809
a(S'aux'
p3810
S'take'
p3811
S'to'
p3812
tp3813
a(S'xcomp'
p3814
S'forced'
p3815
S'take'
p3816
tp3817
a(S'dobj'
p3818
S'take'
p3819
S'refuge'
p3820
tp3821
a(S'det'
p3822
S'office'
p3823
g1116
tp3824
a(S'nn'
p3825
S'office'
p3826
S'U.N.'
p3827
tp3828
a(S'prep_in'
p3829
S'refuge'
p3830
S'office'
p3831
tp3832
a(S'prep_in'
p3833
S'take'
p3834
S'September'
p3835
tp3836
a(S'aux'
p3837
S'avoid'
p3838
S'to'
p3839
tp3840
a(S'xcomp'
p3841
S'take'
p3842
S'avoid'
p3843
tp3844
a(S'dobj'
p3845
S'avoid'
p3846
S'arrest'
p3847
tp3848
a(S'mark'
p3849
S'accused'
p3850
S'after'
p3851
tp3852
a(S'nn'
p3853
S'Sen'
p3854
S'Hun'
p3855
tp3856
a(S'nsubj'
p3857
S'accused'
p3858
S'Sen'
p3859
tp3860
a(S'advcl'
p3861
S'avoid'
p3862
S'accused'
p3863
tp3864
a(S'dobj'
p3865
S'accused'
p3866
S'him'
p3867
tp3868
a(S'prepc_of'
p3869
S'accused'
p3870
S'being'
p3871
tp3872
a(S'det'
p3873
S'plot'
p3874
g1116
tp3875
a(S'prep_behind'
p3876
S'being'
p3877
S'plot'
p3878
tp3879
a(S'poss'
p3880
S'life'
p3881
S'his'
p3882
tp3883
a(S'prep_against'
p3884
S'plot'
p3885
S'life'
p3886
tp3887
asg41
(lp3888
(g3775
S'ROOT-0'
p3889
S'forced-12'
p3890
tp3891
a(g3779
S'Rainsy-2'
p3892
S'Sam-1'
p3893
tp3894
a(g3783
S'forced-12'
p3895
S'Rainsy-2'
p3896
tp3897
a(g3787
S'critic-6'
p3898
S'a-4'
p3899
tp3900
a(g3790
S'critic-6'
p3901
S'staunch-5'
p3902
tp3903
a(g3794
S'Rainsy-2'
p3904
S'critic-6'
p3905
tp3906
a(g3798
S'Sen-9'
p3907
S'Hun-8'
p3908
tp3909
a(g3802
S'critic-6'
p3910
S'Sen-9'
p3911
tp3912
a(g3806
S'forced-12'
p3913
S'was-11'
p3914
tp3915
a(g3810
S'take-14'
p3916
S'to-13'
p3917
tp3918
a(g3814
S'forced-12'
p3919
S'take-14'
p3920
tp3921
a(g3818
S'take-14'
p3922
S'refuge-15'
p3923
tp3924
a(g3822
S'office-19'
p3925
S'a-17'
p3926
tp3927
a(g3825
S'office-19'
p3928
S'U.N.-18'
p3929
tp3930
a(g3829
S'refuge-15'
p3931
S'office-19'
p3932
tp3933
a(g3833
S'take-14'
p3934
S'September-21'
p3935
tp3936
a(g3837
S'avoid-23'
p3937
S'to-22'
p3938
tp3939
a(g3841
S'take-14'
p3940
S'avoid-23'
p3941
tp3942
a(g3845
S'avoid-23'
p3943
S'arrest-24'
p3944
tp3945
a(g3849
S'accused-28'
p3946
S'after-25'
p3947
tp3948
a(g3853
S'Sen-27'
p3949
S'Hun-26'
p3950
tp3951
a(g3857
S'accused-28'
p3952
S'Sen-27'
p3953
tp3954
a(g3861
S'avoid-23'
p3955
S'accused-28'
p3956
tp3957
a(g3865
S'accused-28'
p3958
S'him-29'
p3959
tp3960
a(g3869
S'accused-28'
p3961
S'being-31'
p3962
tp3963
a(g3873
S'plot-34'
p3964
S'a-33'
p3965
tp3966
a(g3876
S'being-31'
p3967
S'plot-34'
p3968
tp3969
a(g3880
S'life-37'
p3970
S'his-36'
p3971
tp3972
a(g3884
S'plot-34'
p3973
S'life-37'
p3974
tp3975
asg64
(lp3976
(S'Sam'
p3977
(dp3978
S'NamedEntityTag'
p3979
S'PERSON'
p3980
sS'CharacterOffsetEnd'
p3981
S'908'
p3982
sS'Lemma'
p3983
S'Sam'
p3984
sS'PartOfSpeech'
p3985
S'NNP'
p3986
sS'CharacterOffsetBegin'
p3987
S'905'
p3988
stp3989
a(S'Rainsy'
p3990
(dp3991
S'NamedEntityTag'
p3992
S'PERSON'
p3993
sS'CharacterOffsetEnd'
p3994
S'915'
p3995
sS'Lemma'
p3996
S'Rainsy'
p3997
sS'PartOfSpeech'
p3998
S'NNP'
p3999
sS'CharacterOffsetBegin'
p4000
S'909'
p4001
stp4002
a(g1606
(dp4003
S'NamedEntityTag'
p4004
g69
sS'CharacterOffsetEnd'
p4005
S'916'
p4006
sS'Lemma'
p4007
g1606
sS'PartOfSpeech'
p4008
g1606
sS'CharacterOffsetBegin'
p4009
S'915'
p4010
stp4011
a(g1116
(dp4012
S'NamedEntityTag'
p4013
g69
sS'CharacterOffsetEnd'
p4014
S'918'
p4015
sS'Lemma'
p4016
g1116
sS'PartOfSpeech'
p4017
S'DT'
p4018
sS'CharacterOffsetBegin'
p4019
S'917'
p4020
stp4021
a(S'staunch'
p4022
(dp4023
S'NamedEntityTag'
p4024
g69
sS'CharacterOffsetEnd'
p4025
S'926'
p4026
sS'Lemma'
p4027
S'staunch'
p4028
sS'PartOfSpeech'
p4029
S'JJ'
p4030
sS'CharacterOffsetBegin'
p4031
S'919'
p4032
stp4033
a(S'critic'
p4034
(dp4035
S'NamedEntityTag'
p4036
g69
sS'CharacterOffsetEnd'
p4037
S'933'
p4038
sS'Lemma'
p4039
S'critic'
p4040
sS'PartOfSpeech'
p4041
S'NN'
p4042
sS'CharacterOffsetBegin'
p4043
S'927'
p4044
stp4045
a(S'of'
p4046
(dp4047
S'NamedEntityTag'
p4048
g69
sS'CharacterOffsetEnd'
p4049
S'936'
p4050
sS'Lemma'
p4051
S'of'
p4052
sS'PartOfSpeech'
p4053
S'IN'
p4054
sS'CharacterOffsetBegin'
p4055
S'934'
p4056
stp4057
a(S'Hun'
p4058
(dp4059
S'NamedEntityTag'
p4060
S'PERSON'
p4061
sS'CharacterOffsetEnd'
p4062
S'940'
p4063
sS'Lemma'
p4064
S'Hun'
p4065
sS'PartOfSpeech'
p4066
S'NNP'
p4067
sS'CharacterOffsetBegin'
p4068
S'937'
p4069
stp4070
a(S'Sen'
p4071
(dp4072
S'NamedEntityTag'
p4073
S'PERSON'
p4074
sS'CharacterOffsetEnd'
p4075
S'944'
p4076
sS'Lemma'
p4077
S'Sen'
p4078
sS'PartOfSpeech'
p4079
S'NNP'
p4080
sS'CharacterOffsetBegin'
p4081
S'941'
p4082
stp4083
a(g1606
(dp4084
S'NamedEntityTag'
p4085
g69
sS'CharacterOffsetEnd'
p4086
S'945'
p4087
sS'Lemma'
p4088
g1606
sS'PartOfSpeech'
p4089
g1606
sS'CharacterOffsetBegin'
p4090
S'944'
p4091
stp4092
a(S'was'
p4093
(dp4094
S'NamedEntityTag'
p4095
g69
sS'CharacterOffsetEnd'
p4096
S'949'
p4097
sS'Lemma'
p4098
S'be'
p4099
sS'PartOfSpeech'
p4100
S'VBD'
p4101
sS'CharacterOffsetBegin'
p4102
S'946'
p4103
stp4104
a(S'forced'
p4105
(dp4106
S'NamedEntityTag'
p4107
g69
sS'CharacterOffsetEnd'
p4108
S'956'
p4109
sS'Lemma'
p4110
S'force'
p4111
sS'PartOfSpeech'
p4112
S'VBN'
p4113
sS'CharacterOffsetBegin'
p4114
S'950'
p4115
stp4116
a(S'to'
p4117
(dp4118
S'NamedEntityTag'
p4119
g69
sS'CharacterOffsetEnd'
p4120
S'959'
p4121
sS'Lemma'
p4122
S'to'
p4123
sS'PartOfSpeech'
p4124
S'TO'
p4125
sS'CharacterOffsetBegin'
p4126
S'957'
p4127
stp4128
a(S'take'
p4129
(dp4130
S'NamedEntityTag'
p4131
g69
sS'CharacterOffsetEnd'
p4132
S'964'
p4133
sS'Lemma'
p4134
S'take'
p4135
sS'PartOfSpeech'
p4136
S'VB'
p4137
sS'CharacterOffsetBegin'
p4138
S'960'
p4139
stp4140
a(S'refuge'
p4141
(dp4142
S'NamedEntityTag'
p4143
g69
sS'CharacterOffsetEnd'
p4144
S'971'
p4145
sS'Lemma'
p4146
S'refuge'
p4147
sS'PartOfSpeech'
p4148
S'NN'
p4149
sS'CharacterOffsetBegin'
p4150
S'965'
p4151
stp4152
a(S'in'
p4153
(dp4154
S'NamedEntityTag'
p4155
g69
sS'CharacterOffsetEnd'
p4156
S'974'
p4157
sS'Lemma'
p4158
S'in'
p4159
sS'PartOfSpeech'
p4160
S'IN'
p4161
sS'CharacterOffsetBegin'
p4162
S'972'
p4163
stp4164
a(g1116
(dp4165
S'NamedEntityTag'
p4166
g69
sS'CharacterOffsetEnd'
p4167
S'976'
p4168
sS'Lemma'
p4169
g1116
sS'PartOfSpeech'
p4170
S'DT'
p4171
sS'CharacterOffsetBegin'
p4172
S'975'
p4173
stp4174
a(S'U.N.'
p4175
(dp4176
S'NamedEntityTag'
p4177
S'ORGANIZATION'
p4178
sS'CharacterOffsetEnd'
p4179
S'981'
p4180
sS'Lemma'
p4181
S'U.N.'
p4182
sS'PartOfSpeech'
p4183
S'NNP'
p4184
sS'CharacterOffsetBegin'
p4185
S'977'
p4186
stp4187
a(S'office'
p4188
(dp4189
S'NamedEntityTag'
p4190
g69
sS'CharacterOffsetEnd'
p4191
S'988'
p4192
sS'Lemma'
p4193
S'office'
p4194
sS'PartOfSpeech'
p4195
S'NN'
p4196
sS'CharacterOffsetBegin'
p4197
S'982'
p4198
stp4199
a(S'in'
p4200
(dp4201
S'NamedEntityTag'
p4202
g69
sS'CharacterOffsetEnd'
p4203
S'991'
p4204
sS'Lemma'
p4205
S'in'
p4206
sS'PartOfSpeech'
p4207
S'IN'
p4208
sS'CharacterOffsetBegin'
p4209
S'989'
p4210
stp4211
a(S'September'
p4212
(dp4213
S'NormalizedNamedEntityTag'
p4214
S'XXXX-09'
p4215
sS'Timex'
p4216
S'<TIMEX3 tid="t6" type="DATE" value="XXXX-09">September</TIMEX3>'
p4217
sS'Lemma'
p4218
S'September'
p4219
sS'CharacterOffsetEnd'
p4220
S'1001'
p4221
sS'PartOfSpeech'
p4222
S'NNP'
p4223
sS'CharacterOffsetBegin'
p4224
S'992'
p4225
sS'NamedEntityTag'
p4226
S'DATE'
p4227
stp4228
a(S'to'
p4229
(dp4230
S'NamedEntityTag'
p4231
g69
sS'CharacterOffsetEnd'
p4232
S'1004'
p4233
sS'Lemma'
p4234
S'to'
p4235
sS'PartOfSpeech'
p4236
S'TO'
p4237
sS'CharacterOffsetBegin'
p4238
S'1002'
p4239
stp4240
a(S'avoid'
p4241
(dp4242
S'NamedEntityTag'
p4243
g69
sS'CharacterOffsetEnd'
p4244
S'1010'
p4245
sS'Lemma'
p4246
S'avoid'
p4247
sS'PartOfSpeech'
p4248
S'VB'
p4249
sS'CharacterOffsetBegin'
p4250
S'1005'
p4251
stp4252
a(S'arrest'
p4253
(dp4254
S'NamedEntityTag'
p4255
g69
sS'CharacterOffsetEnd'
p4256
S'1017'
p4257
sS'Lemma'
p4258
S'arrest'
p4259
sS'PartOfSpeech'
p4260
S'NN'
p4261
sS'CharacterOffsetBegin'
p4262
S'1011'
p4263
stp4264
a(S'after'
p4265
(dp4266
S'NamedEntityTag'
p4267
g69
sS'CharacterOffsetEnd'
p4268
S'1023'
p4269
sS'Lemma'
p4270
S'after'
p4271
sS'PartOfSpeech'
p4272
S'IN'
p4273
sS'CharacterOffsetBegin'
p4274
S'1018'
p4275
stp4276
a(S'Hun'
p4277
(dp4278
S'NamedEntityTag'
p4279
S'PERSON'
p4280
sS'CharacterOffsetEnd'
p4281
S'1027'
p4282
sS'Lemma'
p4283
S'Hun'
p4284
sS'PartOfSpeech'
p4285
S'NNP'
p4286
sS'CharacterOffsetBegin'
p4287
S'1024'
p4288
stp4289
a(S'Sen'
p4290
(dp4291
S'NamedEntityTag'
p4292
S'PERSON'
p4293
sS'CharacterOffsetEnd'
p4294
S'1031'
p4295
sS'Lemma'
p4296
S'Sen'
p4297
sS'PartOfSpeech'
p4298
S'NNP'
p4299
sS'CharacterOffsetBegin'
p4300
S'1028'
p4301
stp4302
a(S'accused'
p4303
(dp4304
S'NamedEntityTag'
p4305
g69
sS'CharacterOffsetEnd'
p4306
S'1039'
p4307
sS'Lemma'
p4308
S'accuse'
p4309
sS'PartOfSpeech'
p4310
S'VBD'
p4311
sS'CharacterOffsetBegin'
p4312
S'1032'
p4313
stp4314
a(S'him'
p4315
(dp4316
S'NamedEntityTag'
p4317
g69
sS'CharacterOffsetEnd'
p4318
S'1043'
p4319
sS'Lemma'
p4320
S'he'
p4321
sS'PartOfSpeech'
p4322
S'PRP'
p4323
sS'CharacterOffsetBegin'
p4324
S'1040'
p4325
stp4326
a(S'of'
p4327
(dp4328
S'NamedEntityTag'
p4329
g69
sS'CharacterOffsetEnd'
p4330
S'1046'
p4331
sS'Lemma'
p4332
S'of'
p4333
sS'PartOfSpeech'
p4334
S'IN'
p4335
sS'CharacterOffsetBegin'
p4336
S'1044'
p4337
stp4338
a(S'being'
p4339
(dp4340
S'NamedEntityTag'
p4341
g69
sS'CharacterOffsetEnd'
p4342
S'1052'
p4343
sS'Lemma'
p4344
S'be'
p4345
sS'PartOfSpeech'
p4346
S'VBG'
p4347
sS'CharacterOffsetBegin'
p4348
S'1047'
p4349
stp4350
a(S'behind'
p4351
(dp4352
S'NamedEntityTag'
p4353
g69
sS'CharacterOffsetEnd'
p4354
S'1059'
p4355
sS'Lemma'
p4356
S'behind'
p4357
sS'PartOfSpeech'
p4358
S'IN'
p4359
sS'CharacterOffsetBegin'
p4360
S'1053'
p4361
stp4362
a(g1116
(dp4363
S'NamedEntityTag'
p4364
g69
sS'CharacterOffsetEnd'
p4365
S'1061'
p4366
sS'Lemma'
p4367
g1116
sS'PartOfSpeech'
p4368
S'DT'
p4369
sS'CharacterOffsetBegin'
p4370
S'1060'
p4371
stp4372
a(S'plot'
p4373
(dp4374
S'NamedEntityTag'
p4375
g69
sS'CharacterOffsetEnd'
p4376
S'1066'
p4377
sS'Lemma'
p4378
S'plot'
p4379
sS'PartOfSpeech'
p4380
S'NN'
p4381
sS'CharacterOffsetBegin'
p4382
S'1062'
p4383
stp4384
a(S'against'
p4385
(dp4386
S'NamedEntityTag'
p4387
g69
sS'CharacterOffsetEnd'
p4388
S'1074'
p4389
sS'Lemma'
p4390
S'against'
p4391
sS'PartOfSpeech'
p4392
S'IN'
p4393
sS'CharacterOffsetBegin'
p4394
S'1067'
p4395
stp4396
a(S'his'
p4397
(dp4398
S'NamedEntityTag'
p4399
g69
sS'CharacterOffsetEnd'
p4400
S'1078'
p4401
sS'Lemma'
p4402
S'he'
p4403
sS'PartOfSpeech'
p4404
S'PRP$'
p4405
sS'CharacterOffsetBegin'
p4406
S'1075'
p4407
stp4408
a(S'life'
p4409
(dp4410
S'NamedEntityTag'
p4411
g69
sS'CharacterOffsetEnd'
p4412
S'1083'
p4413
sS'Lemma'
p4414
S'life'
p4415
sS'PartOfSpeech'
p4416
S'NN'
p4417
sS'CharacterOffsetBegin'
p4418
S'1079'
p4419
stp4420
a(g744
(dp4421
S'NamedEntityTag'
p4422
g69
sS'CharacterOffsetEnd'
p4423
S'1084'
p4424
sS'Lemma'
p4425
g744
sS'PartOfSpeech'
p4426
g744
sS'CharacterOffsetBegin'
p4427
S'1083'
p4428
stp4429
asa(dp4430
g7
S'(ROOT (S (NP (NP (DT The) (JJ alleged) (NN assassination) (NN attempt)) (SBAR (S (VP (VBD came) (PP (IN during) (NP (NP (JJ massive) (NN street) (NNS demonstrations)) (VP (VBN organized) (PP (IN by) (NP (DT the) (NN opposition))) (PP (IN after) (NP (NNP Hun) (NNP Sens) (JJ Cambodian) (NNP Peoples) (NNP Party)))))))))) (ADVP (RB narrowly)) (VP (VBD won) (NP (DT the) (NN election))) (. .)))'
p4431
sg9
S'The alleged assassination attempt came during massive street demonstrations organized by the opposition after Hun Sens Cambodian Peoples Party narrowly won the election.'
p4432
sg11
(lp4433
(S'root'
p4434
S'ROOT'
p4435
S'won'
p4436
tp4437
a(S'det'
p4438
S'attempt'
p4439
S'The'
p4440
tp4441
a(S'amod'
p4442
S'attempt'
p4443
S'alleged'
p4444
tp4445
a(S'nn'
p4446
S'attempt'
p4447
S'assassination'
p4448
tp4449
a(S'nsubj'
p4450
S'won'
p4451
S'attempt'
p4452
tp4453
a(S'rcmod'
p4454
S'attempt'
p4455
S'came'
p4456
tp4457
a(S'amod'
p4458
S'demonstrations'
p4459
S'massive'
p4460
tp4461
a(S'nn'
p4462
S'demonstrations'
p4463
S'street'
p4464
tp4465
a(S'prep_during'
p4466
S'came'
p4467
S'demonstrations'
p4468
tp4469
a(S'partmod'
p4470
S'demonstrations'
p4471
S'organized'
p4472
tp4473
a(S'det'
p4474
S'opposition'
p4475
S'the'
p4476
tp4477
a(S'agent'
p4478
S'organized'
p4479
S'opposition'
p4480
tp4481
a(S'nn'
p4482
S'Party'
p4483
S'Hun'
p4484
tp4485
a(S'nn'
p4486
S'Party'
p4487
S'Sens'
p4488
tp4489
a(S'amod'
p4490
S'Party'
p4491
S'Cambodian'
p4492
tp4493
a(S'nn'
p4494
S'Party'
p4495
S'Peoples'
p4496
tp4497
a(S'prep_after'
p4498
S'organized'
p4499
S'Party'
p4500
tp4501
a(S'advmod'
p4502
S'won'
p4503
S'narrowly'
p4504
tp4505
a(S'det'
p4506
S'election'
p4507
S'the'
p4508
tp4509
a(S'dobj'
p4510
S'won'
p4511
S'election'
p4512
tp4513
asg41
(lp4514
(g4434
S'ROOT-0'
p4515
S'won-21'
p4516
tp4517
a(g4438
S'attempt-4'
p4518
S'The-1'
p4519
tp4520
a(g4442
S'attempt-4'
p4521
S'alleged-2'
p4522
tp4523
a(g4446
S'attempt-4'
p4524
S'assassination-3'
p4525
tp4526
a(g4450
S'won-21'
p4527
S'attempt-4'
p4528
tp4529
a(g4454
S'attempt-4'
p4530
S'came-5'
p4531
tp4532
a(g4458
S'demonstrations-9'
p4533
S'massive-7'
p4534
tp4535
a(g4462
S'demonstrations-9'
p4536
S'street-8'
p4537
tp4538
a(g4466
S'came-5'
p4539
S'demonstrations-9'
p4540
tp4541
a(g4470
S'demonstrations-9'
p4542
S'organized-10'
p4543
tp4544
a(g4474
S'opposition-13'
p4545
S'the-12'
p4546
tp4547
a(g4478
S'organized-10'
p4548
S'opposition-13'
p4549
tp4550
a(g4482
S'Party-19'
p4551
S'Hun-15'
p4552
tp4553
a(g4486
S'Party-19'
p4554
S'Sens-16'
p4555
tp4556
a(g4490
S'Party-19'
p4557
S'Cambodian-17'
p4558
tp4559
a(g4494
S'Party-19'
p4560
S'Peoples-18'
p4561
tp4562
a(g4498
S'organized-10'
p4563
S'Party-19'
p4564
tp4565
a(g4502
S'won-21'
p4566
S'narrowly-20'
p4567
tp4568
a(g4506
S'election-23'
p4569
S'the-22'
p4570
tp4571
a(g4510
S'won-21'
p4572
S'election-23'
p4573
tp4574
asg64
(lp4575
(S'The'
p4576
(dp4577
S'NamedEntityTag'
p4578
g69
sS'CharacterOffsetEnd'
p4579
S'1088'
p4580
sS'Lemma'
p4581
S'the'
p4582
sS'PartOfSpeech'
p4583
S'DT'
p4584
sS'CharacterOffsetBegin'
p4585
S'1085'
p4586
stp4587
a(S'alleged'
p4588
(dp4589
S'NamedEntityTag'
p4590
g69
sS'CharacterOffsetEnd'
p4591
S'1096'
p4592
sS'Lemma'
p4593
S'alleged'
p4594
sS'PartOfSpeech'
p4595
S'JJ'
p4596
sS'CharacterOffsetBegin'
p4597
S'1089'
p4598
stp4599
a(S'assassination'
p4600
(dp4601
S'NamedEntityTag'
p4602
g69
sS'CharacterOffsetEnd'
p4603
S'1110'
p4604
sS'Lemma'
p4605
S'assassination'
p4606
sS'PartOfSpeech'
p4607
S'NN'
p4608
sS'CharacterOffsetBegin'
p4609
S'1097'
p4610
stp4611
a(S'attempt'
p4612
(dp4613
S'NamedEntityTag'
p4614
g69
sS'CharacterOffsetEnd'
p4615
S'1118'
p4616
sS'Lemma'
p4617
S'attempt'
p4618
sS'PartOfSpeech'
p4619
S'NN'
p4620
sS'CharacterOffsetBegin'
p4621
S'1111'
p4622
stp4623
a(S'came'
p4624
(dp4625
S'NamedEntityTag'
p4626
g69
sS'CharacterOffsetEnd'
p4627
S'1123'
p4628
sS'Lemma'
p4629
S'come'
p4630
sS'PartOfSpeech'
p4631
S'VBD'
p4632
sS'CharacterOffsetBegin'
p4633
S'1119'
p4634
stp4635
a(S'during'
p4636
(dp4637
S'NamedEntityTag'
p4638
g69
sS'CharacterOffsetEnd'
p4639
S'1130'
p4640
sS'Lemma'
p4641
S'during'
p4642
sS'PartOfSpeech'
p4643
S'IN'
p4644
sS'CharacterOffsetBegin'
p4645
S'1124'
p4646
stp4647
a(S'massive'
p4648
(dp4649
S'NamedEntityTag'
p4650
g69
sS'CharacterOffsetEnd'
p4651
S'1138'
p4652
sS'Lemma'
p4653
S'massive'
p4654
sS'PartOfSpeech'
p4655
S'JJ'
p4656
sS'CharacterOffsetBegin'
p4657
S'1131'
p4658
stp4659
a(S'street'
p4660
(dp4661
S'NamedEntityTag'
p4662
g69
sS'CharacterOffsetEnd'
p4663
S'1145'
p4664
sS'Lemma'
p4665
S'street'
p4666
sS'PartOfSpeech'
p4667
S'NN'
p4668
sS'CharacterOffsetBegin'
p4669
S'1139'
p4670
stp4671
a(S'demonstrations'
p4672
(dp4673
S'NamedEntityTag'
p4674
g69
sS'CharacterOffsetEnd'
p4675
S'1160'
p4676
sS'Lemma'
p4677
S'demonstration'
p4678
sS'PartOfSpeech'
p4679
S'NNS'
p4680
sS'CharacterOffsetBegin'
p4681
S'1146'
p4682
stp4683
a(S'organized'
p4684
(dp4685
S'NamedEntityTag'
p4686
g69
sS'CharacterOffsetEnd'
p4687
S'1170'
p4688
sS'Lemma'
p4689
S'organize'
p4690
sS'PartOfSpeech'
p4691
S'VBN'
p4692
sS'CharacterOffsetBegin'
p4693
S'1161'
p4694
stp4695
a(S'by'
p4696
(dp4697
S'NamedEntityTag'
p4698
g69
sS'CharacterOffsetEnd'
p4699
S'1173'
p4700
sS'Lemma'
p4701
S'by'
p4702
sS'PartOfSpeech'
p4703
S'IN'
p4704
sS'CharacterOffsetBegin'
p4705
S'1171'
p4706
stp4707
a(S'the'
p4708
(dp4709
S'NamedEntityTag'
p4710
g69
sS'CharacterOffsetEnd'
p4711
S'1177'
p4712
sS'Lemma'
p4713
S'the'
p4714
sS'PartOfSpeech'
p4715
S'DT'
p4716
sS'CharacterOffsetBegin'
p4717
S'1174'
p4718
stp4719
a(S'opposition'
p4720
(dp4721
S'NamedEntityTag'
p4722
g69
sS'CharacterOffsetEnd'
p4723
S'1188'
p4724
sS'Lemma'
p4725
S'opposition'
p4726
sS'PartOfSpeech'
p4727
S'NN'
p4728
sS'CharacterOffsetBegin'
p4729
S'1178'
p4730
stp4731
a(S'after'
p4732
(dp4733
S'NamedEntityTag'
p4734
g69
sS'CharacterOffsetEnd'
p4735
S'1194'
p4736
sS'Lemma'
p4737
S'after'
p4738
sS'PartOfSpeech'
p4739
S'IN'
p4740
sS'CharacterOffsetBegin'
p4741
S'1189'
p4742
stp4743
a(S'Hun'
p4744
(dp4745
S'NamedEntityTag'
p4746
S'ORGANIZATION'
p4747
sS'CharacterOffsetEnd'
p4748
S'1198'
p4749
sS'Lemma'
p4750
S'Hun'
p4751
sS'PartOfSpeech'
p4752
S'NNP'
p4753
sS'CharacterOffsetBegin'
p4754
S'1195'
p4755
stp4756
a(S'Sens'
p4757
(dp4758
S'NamedEntityTag'
p4759
S'ORGANIZATION'
p4760
sS'CharacterOffsetEnd'
p4761
S'1203'
p4762
sS'Lemma'
p4763
S'Sens'
p4764
sS'PartOfSpeech'
p4765
S'NNP'
p4766
sS'CharacterOffsetBegin'
p4767
S'1199'
p4768
stp4769
a(S'Cambodian'
p4770
(dp4771
S'NamedEntityTag'
p4772
S'ORGANIZATION'
p4773
sS'CharacterOffsetEnd'
p4774
S'1213'
p4775
sS'Lemma'
p4776
S'cambodian'
p4777
sS'PartOfSpeech'
p4778
S'JJ'
p4779
sS'CharacterOffsetBegin'
p4780
S'1204'
p4781
stp4782
a(S'Peoples'
p4783
(dp4784
S'NamedEntityTag'
p4785
S'ORGANIZATION'
p4786
sS'CharacterOffsetEnd'
p4787
S'1221'
p4788
sS'Lemma'
p4789
S'Peoples'
p4790
sS'PartOfSpeech'
p4791
S'NNP'
p4792
sS'CharacterOffsetBegin'
p4793
S'1214'
p4794
stp4795
a(S'Party'
p4796
(dp4797
S'NamedEntityTag'
p4798
S'ORGANIZATION'
p4799
sS'CharacterOffsetEnd'
p4800
S'1227'
p4801
sS'Lemma'
p4802
S'Party'
p4803
sS'PartOfSpeech'
p4804
S'NNP'
p4805
sS'CharacterOffsetBegin'
p4806
S'1222'
p4807
stp4808
a(S'narrowly'
p4809
(dp4810
S'NamedEntityTag'
p4811
g69
sS'CharacterOffsetEnd'
p4812
S'1236'
p4813
sS'Lemma'
p4814
S'narrowly'
p4815
sS'PartOfSpeech'
p4816
S'RB'
p4817
sS'CharacterOffsetBegin'
p4818
S'1228'
p4819
stp4820
a(S'won'
p4821
(dp4822
S'NamedEntityTag'
p4823
g69
sS'CharacterOffsetEnd'
p4824
S'1240'
p4825
sS'Lemma'
p4826
S'win'
p4827
sS'PartOfSpeech'
p4828
S'VBD'
p4829
sS'CharacterOffsetBegin'
p4830
S'1237'
p4831
stp4832
a(S'the'
p4833
(dp4834
S'NamedEntityTag'
p4835
g69
sS'CharacterOffsetEnd'
p4836
S'1244'
p4837
sS'Lemma'
p4838
S'the'
p4839
sS'PartOfSpeech'
p4840
S'DT'
p4841
sS'CharacterOffsetBegin'
p4842
S'1241'
p4843
stp4844
a(S'election'
p4845
(dp4846
S'NamedEntityTag'
p4847
g69
sS'CharacterOffsetEnd'
p4848
S'1253'
p4849
sS'Lemma'
p4850
S'election'
p4851
sS'PartOfSpeech'
p4852
S'NN'
p4853
sS'CharacterOffsetBegin'
p4854
S'1245'
p4855
stp4856
a(g744
(dp4857
S'NamedEntityTag'
p4858
g69
sS'CharacterOffsetEnd'
p4859
S'1254'
p4860
sS'Lemma'
p4861
g744
sS'PartOfSpeech'
p4862
g744
sS'CharacterOffsetBegin'
p4863
S'1253'
p4864
stp4865
asa(dp4866
g7
S'(ROOT (S (NP (DT The) (NN opposition)) (, ,) (S (VP (VBG alleging) (NP (JJ widespread) (NN fraud) (CC and) (NN intimidation)))) (, ,) (VP (VBD refused) (S (VP (TO to) (VP (VB accept) (NP (NP (DT the) (NNS results)) (PP (IN of) (NP (DT the) (NNS polls)))))))) (. .)))'
p4867
sg9
S'The opposition, alleging widespread fraud and intimidation, refused to accept the results of the polls.'
p4868
sg11
(lp4869
(S'root'
p4870
S'ROOT'
p4871
S'refused'
p4872
tp4873
a(S'det'
p4874
S'opposition'
p4875
S'The'
p4876
tp4877
a(S'nsubj'
p4878
S'refused'
p4879
S'opposition'
p4880
tp4881
a(S'partmod'
p4882
S'refused'
p4883
S'alleging'
p4884
tp4885
a(S'amod'
p4886
S'fraud'
p4887
S'widespread'
p4888
tp4889
a(S'dobj'
p4890
S'alleging'
p4891
S'fraud'
p4892
tp4893
a(S'conj_and'
p4894
S'fraud'
p4895
S'intimidation'
p4896
tp4897
a(S'aux'
p4898
S'accept'
p4899
S'to'
p4900
tp4901
a(S'xcomp'
p4902
S'refused'
p4903
S'accept'
p4904
tp4905
a(S'det'
p4906
S'results'
p4907
S'the'
p4908
tp4909
a(S'dobj'
p4910
S'accept'
p4911
S'results'
p4912
tp4913
a(S'det'
p4914
S'polls'
p4915
S'the'
p4916
tp4917
a(S'prep_of'
p4918
S'results'
p4919
S'polls'
p4920
tp4921
asg41
(lp4922
(g4870
S'ROOT-0'
p4923
S'refused-10'
p4924
tp4925
a(g4874
S'opposition-2'
p4926
S'The-1'
p4927
tp4928
a(g4878
S'refused-10'
p4929
S'opposition-2'
p4930
tp4931
a(g4882
S'refused-10'
p4932
S'alleging-4'
p4933
tp4934
a(g4886
S'fraud-6'
p4935
S'widespread-5'
p4936
tp4937
a(g4890
S'alleging-4'
p4938
S'fraud-6'
p4939
tp4940
a(g4894
S'fraud-6'
p4941
S'intimidation-8'
p4942
tp4943
a(g4898
S'accept-12'
p4944
S'to-11'
p4945
tp4946
a(g4902
S'refused-10'
p4947
S'accept-12'
p4948
tp4949
a(g4906
S'results-14'
p4950
S'the-13'
p4951
tp4952
a(g4910
S'accept-12'
p4953
S'results-14'
p4954
tp4955
a(g4914
S'polls-17'
p4956
S'the-16'
p4957
tp4958
a(g4918
S'results-14'
p4959
S'polls-17'
p4960
tp4961
asg64
(lp4962
(S'The'
p4963
(dp4964
S'NamedEntityTag'
p4965
g69
sS'CharacterOffsetEnd'
p4966
S'1258'
p4967
sS'Lemma'
p4968
S'the'
p4969
sS'PartOfSpeech'
p4970
S'DT'
p4971
sS'CharacterOffsetBegin'
p4972
S'1255'
p4973
stp4974
a(S'opposition'
p4975
(dp4976
S'NamedEntityTag'
p4977
g69
sS'CharacterOffsetEnd'
p4978
S'1269'
p4979
sS'Lemma'
p4980
S'opposition'
p4981
sS'PartOfSpeech'
p4982
S'NN'
p4983
sS'CharacterOffsetBegin'
p4984
S'1259'
p4985
stp4986
a(g1606
(dp4987
S'NamedEntityTag'
p4988
g69
sS'CharacterOffsetEnd'
p4989
S'1270'
p4990
sS'Lemma'
p4991
g1606
sS'PartOfSpeech'
p4992
g1606
sS'CharacterOffsetBegin'
p4993
S'1269'
p4994
stp4995
a(S'alleging'
p4996
(dp4997
S'NamedEntityTag'
p4998
g69
sS'CharacterOffsetEnd'
p4999
S'1279'
p5000
sS'Lemma'
p5001
S'allege'
p5002
sS'PartOfSpeech'
p5003
S'VBG'
p5004
sS'CharacterOffsetBegin'
p5005
S'1271'
p5006
stp5007
a(S'widespread'
p5008
(dp5009
S'NamedEntityTag'
p5010
g69
sS'CharacterOffsetEnd'
p5011
S'1290'
p5012
sS'Lemma'
p5013
S'widespread'
p5014
sS'PartOfSpeech'
p5015
S'JJ'
p5016
sS'CharacterOffsetBegin'
p5017
S'1280'
p5018
stp5019
a(S'fraud'
p5020
(dp5021
S'NamedEntityTag'
p5022
g69
sS'CharacterOffsetEnd'
p5023
S'1296'
p5024
sS'Lemma'
p5025
S'fraud'
p5026
sS'PartOfSpeech'
p5027
S'NN'
p5028
sS'CharacterOffsetBegin'
p5029
S'1291'
p5030
stp5031
a(S'and'
p5032
(dp5033
S'NamedEntityTag'
p5034
g69
sS'CharacterOffsetEnd'
p5035
S'1300'
p5036
sS'Lemma'
p5037
S'and'
p5038
sS'PartOfSpeech'
p5039
S'CC'
p5040
sS'CharacterOffsetBegin'
p5041
S'1297'
p5042
stp5043
a(S'intimidation'
p5044
(dp5045
S'NamedEntityTag'
p5046
g69
sS'CharacterOffsetEnd'
p5047
S'1313'
p5048
sS'Lemma'
p5049
S'intimidation'
p5050
sS'PartOfSpeech'
p5051
S'NN'
p5052
sS'CharacterOffsetBegin'
p5053
S'1301'
p5054
stp5055
a(g1606
(dp5056
S'NamedEntityTag'
p5057
g69
sS'CharacterOffsetEnd'
p5058
S'1314'
p5059
sS'Lemma'
p5060
g1606
sS'PartOfSpeech'
p5061
g1606
sS'CharacterOffsetBegin'
p5062
S'1313'
p5063
stp5064
a(S'refused'
p5065
(dp5066
S'NamedEntityTag'
p5067
g69
sS'CharacterOffsetEnd'
p5068
S'1322'
p5069
sS'Lemma'
p5070
S'refuse'
p5071
sS'PartOfSpeech'
p5072
S'VBD'
p5073
sS'CharacterOffsetBegin'
p5074
S'1315'
p5075
stp5076
a(S'to'
p5077
(dp5078
S'NamedEntityTag'
p5079
g69
sS'CharacterOffsetEnd'
p5080
S'1325'
p5081
sS'Lemma'
p5082
S'to'
p5083
sS'PartOfSpeech'
p5084
S'TO'
p5085
sS'CharacterOffsetBegin'
p5086
S'1323'
p5087
stp5088
a(S'accept'
p5089
(dp5090
S'NamedEntityTag'
p5091
g69
sS'CharacterOffsetEnd'
p5092
S'1332'
p5093
sS'Lemma'
p5094
S'accept'
p5095
sS'PartOfSpeech'
p5096
S'VB'
p5097
sS'CharacterOffsetBegin'
p5098
S'1326'
p5099
stp5100
a(S'the'
p5101
(dp5102
S'NamedEntityTag'
p5103
g69
sS'CharacterOffsetEnd'
p5104
S'1336'
p5105
sS'Lemma'
p5106
S'the'
p5107
sS'PartOfSpeech'
p5108
S'DT'
p5109
sS'CharacterOffsetBegin'
p5110
S'1333'
p5111
stp5112
a(S'results'
p5113
(dp5114
S'NamedEntityTag'
p5115
g69
sS'CharacterOffsetEnd'
p5116
S'1344'
p5117
sS'Lemma'
p5118
S'result'
p5119
sS'PartOfSpeech'
p5120
S'NNS'
p5121
sS'CharacterOffsetBegin'
p5122
S'1337'
p5123
stp5124
a(S'of'
p5125
(dp5126
S'NamedEntityTag'
p5127
g69
sS'CharacterOffsetEnd'
p5128
S'1347'
p5129
sS'Lemma'
p5130
S'of'
p5131
sS'PartOfSpeech'
p5132
S'IN'
p5133
sS'CharacterOffsetBegin'
p5134
S'1345'
p5135
stp5136
a(S'the'
p5137
(dp5138
S'NamedEntityTag'
p5139
g69
sS'CharacterOffsetEnd'
p5140
S'1351'
p5141
sS'Lemma'
p5142
S'the'
p5143
sS'PartOfSpeech'
p5144
S'DT'
p5145
sS'CharacterOffsetBegin'
p5146
S'1348'
p5147
stp5148
a(S'polls'
p5149
(dp5150
S'NamedEntityTag'
p5151
g69
sS'CharacterOffsetEnd'
p5152
S'1357'
p5153
sS'Lemma'
p5154
S'poll'
p5155
sS'PartOfSpeech'
p5156
S'NNS'
p5157
sS'CharacterOffsetBegin'
p5158
S'1352'
p5159
stp5160
a(g744
(dp5161
S'NamedEntityTag'
p5162
g69
sS'CharacterOffsetEnd'
p5163
S'1358'
p5164
sS'Lemma'
p5165
g744
sS'PartOfSpeech'
p5166
g744
sS'CharacterOffsetBegin'
p5167
S'1357'
p5168
stp5169
asa(dp5170
g7
S'(ROOT (S (S (VP (VBG Fearing) (PP (IN for) (NP (NP (PRP$ their) (NN safety)) (, ,) (NP (NNP Sam) (NNP Rainsy)) (CC and) (NP (PRP$ his)))) (ADVP (RB then-ally)))) (NP (NNP Prince) (NNP Norodom) (NNP Ranariddh)) (VP (VBD led) (NP (NP (DT an) (NN exodus)) (PP (IN of) (NP (NN opposition) (NNS lawmakers)))) (SBAR (ADVP (IN out) (PP (IN of) (NP (NNP Cambodia)))) (IN after) (S (NP (NN parliament)) (VP (VBD was) (ADVP (RB ceremonially)) (VP (VBN opened) (PP (IN in) (NP (JJ late) (NNP September)))))))) (. .)))'
p5171
sg9
S'Fearing for their safety, Sam Rainsy and his then-ally Prince Norodom Ranariddh led an exodus of opposition lawmakers out of Cambodia after parliament was ceremonially opened in late September.'
p5172
sg11
(lp5173
(S'root'
p5174
S'ROOT'
p5175
S'led'
p5176
tp5177
a(S'dep'
p5178
S'led'
p5179
S'Fearing'
p5180
tp5181
a(S'poss'
p5182
S'safety'
p5183
S'their'
p5184
tp5185
a(S'prep_for'
p5186
S'Fearing'
p5187
S'safety'
p5188
tp5189
a(S'nn'
p5190
S'Rainsy'
p5191
S'Sam'
p5192
tp5193
a(S'conj_and'
p5194
S'safety'
p5195
S'Rainsy'
p5196
tp5197
a(S'conj_and'
p5198
S'safety'
p5199
S'his'
p5200
tp5201
a(S'advmod'
p5202
S'Fearing'
p5203
S'then-ally'
p5204
tp5205
a(S'nn'
p5206
S'Ranariddh'
p5207
S'Prince'
p5208
tp5209
a(S'nn'
p5210
S'Ranariddh'
p5211
S'Norodom'
p5212
tp5213
a(S'nsubj'
p5214
S'led'
p5215
S'Ranariddh'
p5216
tp5217
a(S'det'
p5218
S'exodus'
p5219
S'an'
p5220
tp5221
a(S'dobj'
p5222
S'led'
p5223
S'exodus'
p5224
tp5225
a(S'nn'
p5226
S'lawmakers'
p5227
S'opposition'
p5228
tp5229
a(S'prep_of'
p5230
S'exodus'
p5231
S'lawmakers'
p5232
tp5233
a(S'prep_out_of'
p5234
S'opened'
p5235
S'Cambodia'
p5236
tp5237
a(S'mark'
p5238
S'opened'
p5239
S'after'
p5240
tp5241
a(S'nsubjpass'
p5242
S'opened'
p5243
S'parliament'
p5244
tp5245
a(S'auxpass'
p5246
S'opened'
p5247
S'was'
p5248
tp5249
a(S'advmod'
p5250
S'opened'
p5251
S'ceremonially'
p5252
tp5253
a(S'advcl'
p5254
S'led'
p5255
S'opened'
p5256
tp5257
a(S'amod'
p5258
S'September'
p5259
S'late'
p5260
tp5261
a(S'prep_in'
p5262
S'opened'
p5263
S'September'
p5264
tp5265
asg41
(lp5266
(g5174
S'ROOT-0'
p5267
S'led-14'
p5268
tp5269
a(g5178
S'led-14'
p5270
S'Fearing-1'
p5271
tp5272
a(g5182
S'safety-4'
p5273
S'their-3'
p5274
tp5275
a(g5186
S'Fearing-1'
p5276
S'safety-4'
p5277
tp5278
a(g5190
S'Rainsy-7'
p5279
S'Sam-6'
p5280
tp5281
a(g5194
S'safety-4'
p5282
S'Rainsy-7'
p5283
tp5284
a(g5198
S'safety-4'
p5285
S'his-9'
p5286
tp5287
a(g5202
S'Fearing-1'
p5288
S'then-ally-10'
p5289
tp5290
a(g5206
S'Ranariddh-13'
p5291
S'Prince-11'
p5292
tp5293
a(g5210
S'Ranariddh-13'
p5294
S'Norodom-12'
p5295
tp5296
a(g5214
S'led-14'
p5297
S'Ranariddh-13'
p5298
tp5299
a(g5218
S'exodus-16'
p5300
S'an-15'
p5301
tp5302
a(g5222
S'led-14'
p5303
S'exodus-16'
p5304
tp5305
a(g5226
S'lawmakers-19'
p5306
S'opposition-18'
p5307
tp5308
a(g5230
S'exodus-16'
p5309
S'lawmakers-19'
p5310
tp5311
a(g5234
S'opened-27'
p5312
S'Cambodia-22'
p5313
tp5314
a(g5238
S'opened-27'
p5315
S'after-23'
p5316
tp5317
a(g5242
S'opened-27'
p5318
S'parliament-24'
p5319
tp5320
a(g5246
S'opened-27'
p5321
S'was-25'
p5322
tp5323
a(g5250
S'opened-27'
p5324
S'ceremonially-26'
p5325
tp5326
a(g5254
S'led-14'
p5327
S'opened-27'
p5328
tp5329
a(g5258
S'September-30'
p5330
S'late-29'
p5331
tp5332
a(g5262
S'opened-27'
p5333
S'September-30'
p5334
tp5335
asg64
(lp5336
(S'Fearing'
p5337
(dp5338
S'NamedEntityTag'
p5339
g69
sS'CharacterOffsetEnd'
p5340
S'1366'
p5341
sS'Lemma'
p5342
S'fear'
p5343
sS'PartOfSpeech'
p5344
S'VBG'
p5345
sS'CharacterOffsetBegin'
p5346
S'1359'
p5347
stp5348
a(S'for'
p5349
(dp5350
S'NamedEntityTag'
p5351
g69
sS'CharacterOffsetEnd'
p5352
S'1370'
p5353
sS'Lemma'
p5354
S'for'
p5355
sS'PartOfSpeech'
p5356
S'IN'
p5357
sS'CharacterOffsetBegin'
p5358
S'1367'
p5359
stp5360
a(S'their'
p5361
(dp5362
S'NamedEntityTag'
p5363
g69
sS'CharacterOffsetEnd'
p5364
S'1376'
p5365
sS'Lemma'
p5366
S'they'
p5367
sS'PartOfSpeech'
p5368
S'PRP$'
p5369
sS'CharacterOffsetBegin'
p5370
S'1371'
p5371
stp5372
a(S'safety'
p5373
(dp5374
S'NamedEntityTag'
p5375
g69
sS'CharacterOffsetEnd'
p5376
S'1383'
p5377
sS'Lemma'
p5378
S'safety'
p5379
sS'PartOfSpeech'
p5380
S'NN'
p5381
sS'CharacterOffsetBegin'
p5382
S'1377'
p5383
stp5384
a(g1606
(dp5385
S'NamedEntityTag'
p5386
g69
sS'CharacterOffsetEnd'
p5387
S'1384'
p5388
sS'Lemma'
p5389
g1606
sS'PartOfSpeech'
p5390
g1606
sS'CharacterOffsetBegin'
p5391
S'1383'
p5392
stp5393
a(S'Sam'
p5394
(dp5395
S'NamedEntityTag'
p5396
S'PERSON'
p5397
sS'CharacterOffsetEnd'
p5398
S'1388'
p5399
sS'Lemma'
p5400
S'Sam'
p5401
sS'PartOfSpeech'
p5402
S'NNP'
p5403
sS'CharacterOffsetBegin'
p5404
S'1385'
p5405
stp5406
a(S'Rainsy'
p5407
(dp5408
S'NamedEntityTag'
p5409
S'PERSON'
p5410
sS'CharacterOffsetEnd'
p5411
S'1395'
p5412
sS'Lemma'
p5413
S'Rainsy'
p5414
sS'PartOfSpeech'
p5415
S'NNP'
p5416
sS'CharacterOffsetBegin'
p5417
S'1389'
p5418
stp5419
a(S'and'
p5420
(dp5421
S'NamedEntityTag'
p5422
g69
sS'CharacterOffsetEnd'
p5423
S'1399'
p5424
sS'Lemma'
p5425
S'and'
p5426
sS'PartOfSpeech'
p5427
S'CC'
p5428
sS'CharacterOffsetBegin'
p5429
S'1396'
p5430
stp5431
a(S'his'
p5432
(dp5433
S'NamedEntityTag'
p5434
g69
sS'CharacterOffsetEnd'
p5435
S'1403'
p5436
sS'Lemma'
p5437
S'he'
p5438
sS'PartOfSpeech'
p5439
S'PRP$'
p5440
sS'CharacterOffsetBegin'
p5441
S'1400'
p5442
stp5443
a(S'then-ally'
p5444
(dp5445
S'NamedEntityTag'
p5446
g69
sS'CharacterOffsetEnd'
p5447
S'1413'
p5448
sS'Lemma'
p5449
S'then-ally'
p5450
sS'PartOfSpeech'
p5451
S'RB'
p5452
sS'CharacterOffsetBegin'
p5453
S'1404'
p5454
stp5455
a(S'Prince'
p5456
(dp5457
S'NamedEntityTag'
p5458
g69
sS'CharacterOffsetEnd'
p5459
S'1420'
p5460
sS'Lemma'
p5461
S'Prince'
p5462
sS'PartOfSpeech'
p5463
S'NNP'
p5464
sS'CharacterOffsetBegin'
p5465
S'1414'
p5466
stp5467
a(S'Norodom'
p5468
(dp5469
S'NamedEntityTag'
p5470
S'PERSON'
p5471
sS'CharacterOffsetEnd'
p5472
S'1428'
p5473
sS'Lemma'
p5474
S'Norodom'
p5475
sS'PartOfSpeech'
p5476
S'NNP'
p5477
sS'CharacterOffsetBegin'
p5478
S'1421'
p5479
stp5480
a(S'Ranariddh'
p5481
(dp5482
S'NamedEntityTag'
p5483
S'PERSON'
p5484
sS'CharacterOffsetEnd'
p5485
S'1438'
p5486
sS'Lemma'
p5487
S'Ranariddh'
p5488
sS'PartOfSpeech'
p5489
S'NNP'
p5490
sS'CharacterOffsetBegin'
p5491
S'1429'
p5492
stp5493
a(S'led'
p5494
(dp5495
S'NamedEntityTag'
p5496
g69
sS'CharacterOffsetEnd'
p5497
S'1442'
p5498
sS'Lemma'
p5499
S'lead'
p5500
sS'PartOfSpeech'
p5501
S'VBD'
p5502
sS'CharacterOffsetBegin'
p5503
S'1439'
p5504
stp5505
a(S'an'
p5506
(dp5507
S'NamedEntityTag'
p5508
g69
sS'CharacterOffsetEnd'
p5509
S'1445'
p5510
sS'Lemma'
p5511
g1116
sS'PartOfSpeech'
p5512
S'DT'
p5513
sS'CharacterOffsetBegin'
p5514
S'1443'
p5515
stp5516
a(S'exodus'
p5517
(dp5518
S'NamedEntityTag'
p5519
g69
sS'CharacterOffsetEnd'
p5520
S'1452'
p5521
sS'Lemma'
p5522
S'exodus'
p5523
sS'PartOfSpeech'
p5524
S'NN'
p5525
sS'CharacterOffsetBegin'
p5526
S'1446'
p5527
stp5528
a(S'of'
p5529
(dp5530
S'NamedEntityTag'
p5531
g69
sS'CharacterOffsetEnd'
p5532
S'1455'
p5533
sS'Lemma'
p5534
S'of'
p5535
sS'PartOfSpeech'
p5536
S'IN'
p5537
sS'CharacterOffsetBegin'
p5538
S'1453'
p5539
stp5540
a(S'opposition'
p5541
(dp5542
S'NamedEntityTag'
p5543
g69
sS'CharacterOffsetEnd'
p5544
S'1466'
p5545
sS'Lemma'
p5546
S'opposition'
p5547
sS'PartOfSpeech'
p5548
S'NN'
p5549
sS'CharacterOffsetBegin'
p5550
S'1456'
p5551
stp5552
a(S'lawmakers'
p5553
(dp5554
S'NamedEntityTag'
p5555
g69
sS'CharacterOffsetEnd'
p5556
S'1476'
p5557
sS'Lemma'
p5558
S'lawmaker'
p5559
sS'PartOfSpeech'
p5560
S'NNS'
p5561
sS'CharacterOffsetBegin'
p5562
S'1467'
p5563
stp5564
a(S'out'
p5565
(dp5566
S'NamedEntityTag'
p5567
g69
sS'CharacterOffsetEnd'
p5568
S'1480'
p5569
sS'Lemma'
p5570
S'out'
p5571
sS'PartOfSpeech'
p5572
S'IN'
p5573
sS'CharacterOffsetBegin'
p5574
S'1477'
p5575
stp5576
a(S'of'
p5577
(dp5578
S'NamedEntityTag'
p5579
g69
sS'CharacterOffsetEnd'
p5580
S'1483'
p5581
sS'Lemma'
p5582
S'of'
p5583
sS'PartOfSpeech'
p5584
S'IN'
p5585
sS'CharacterOffsetBegin'
p5586
S'1481'
p5587
stp5588
a(S'Cambodia'
p5589
(dp5590
S'NamedEntityTag'
p5591
S'LOCATION'
p5592
sS'CharacterOffsetEnd'
p5593
S'1492'
p5594
sS'Lemma'
p5595
S'Cambodia'
p5596
sS'PartOfSpeech'
p5597
S'NNP'
p5598
sS'CharacterOffsetBegin'
p5599
S'1484'
p5600
stp5601
a(S'after'
p5602
(dp5603
S'NamedEntityTag'
p5604
g69
sS'CharacterOffsetEnd'
p5605
S'1498'
p5606
sS'Lemma'
p5607
S'after'
p5608
sS'PartOfSpeech'
p5609
S'IN'
p5610
sS'CharacterOffsetBegin'
p5611
S'1493'
p5612
stp5613
a(S'parliament'
p5614
(dp5615
S'NamedEntityTag'
p5616
g69
sS'CharacterOffsetEnd'
p5617
S'1509'
p5618
sS'Lemma'
p5619
S'parliament'
p5620
sS'PartOfSpeech'
p5621
S'NN'
p5622
sS'CharacterOffsetBegin'
p5623
S'1499'
p5624
stp5625
a(S'was'
p5626
(dp5627
S'NamedEntityTag'
p5628
g69
sS'CharacterOffsetEnd'
p5629
S'1513'
p5630
sS'Lemma'
p5631
S'be'
p5632
sS'PartOfSpeech'
p5633
S'VBD'
p5634
sS'CharacterOffsetBegin'
p5635
S'1510'
p5636
stp5637
a(S'ceremonially'
p5638
(dp5639
S'NamedEntityTag'
p5640
g69
sS'CharacterOffsetEnd'
p5641
S'1526'
p5642
sS'Lemma'
p5643
S'ceremonially'
p5644
sS'PartOfSpeech'
p5645
S'RB'
p5646
sS'CharacterOffsetBegin'
p5647
S'1514'
p5648
stp5649
a(S'opened'
p5650
(dp5651
S'NamedEntityTag'
p5652
g69
sS'CharacterOffsetEnd'
p5653
S'1533'
p5654
sS'Lemma'
p5655
S'open'
p5656
sS'PartOfSpeech'
p5657
S'VBN'
p5658
sS'CharacterOffsetBegin'
p5659
S'1527'
p5660
stp5661
a(S'in'
p5662
(dp5663
S'NamedEntityTag'
p5664
g69
sS'CharacterOffsetEnd'
p5665
S'1536'
p5666
sS'Lemma'
p5667
S'in'
p5668
sS'PartOfSpeech'
p5669
S'IN'
p5670
sS'CharacterOffsetBegin'
p5671
S'1534'
p5672
stp5673
a(S'late'
p5674
(dp5675
S'NormalizedNamedEntityTag'
p5676
S'XXXX-09'
p5677
sS'Timex'
p5678
S'<TIMEX3 mod="LATE" tid="t7" type="DATE" value="XXXX-09">late September</TIMEX3>'
p5679
sS'Lemma'
p5680
S'late'
p5681
sS'CharacterOffsetEnd'
p5682
S'1541'
p5683
sS'PartOfSpeech'
p5684
S'JJ'
p5685
sS'CharacterOffsetBegin'
p5686
S'1537'
p5687
sS'NamedEntityTag'
p5688
S'DATE'
p5689
stp5690
a(S'September'
p5691
(dp5692
S'NormalizedNamedEntityTag'
p5693
S'XXXX-09'
p5694
sS'Timex'
p5695
S'<TIMEX3 mod="LATE" tid="t7" type="DATE" value="XXXX-09">late September</TIMEX3>'
p5696
sS'Lemma'
p5697
S'September'
p5698
sS'CharacterOffsetEnd'
p5699
S'1551'
p5700
sS'PartOfSpeech'
p5701
S'NNP'
p5702
sS'CharacterOffsetBegin'
p5703
S'1542'
p5704
sS'NamedEntityTag'
p5705
S'DATE'
p5706
stp5707
a(g744
(dp5708
S'NamedEntityTag'
p5709
g69
sS'CharacterOffsetEnd'
p5710
S'1552'
p5711
sS'Lemma'
p5712
g744
sS'PartOfSpeech'
p5713
g744
sS'CharacterOffsetBegin'
p5714
S'1551'
p5715
stp5716
asa(dp5717
g7
S'(ROOT (S (NP (NP (NNP Ranariddh)) (, ,) (SBAR (WHNP (WP$ whose) (NP (NNP FUNCINPEC) (NN party))) (S (VP (VBD finished) (NP (DT a) (JJ close) (JJ second)) (PP (IN in) (NP (DT the) (NN election)))))) (, ,)) (VP (VP (VBD returned) (NP-TMP (JJ last) (NN week))) (CC and) (VP (VBD struck) (NP (DT a) (NN deal)) (PP (IN with) (NP (NNP Hun) (NNP Sen))) (S (VP (TO to) (VP (VB form) (NP (DT a) (NN coalition) (NN government))))))) (. .)))'
p5718
sg9
S'Ranariddh, whose FUNCINPEC party finished a close second in the election, returned last week and struck a deal with Hun Sen to form a coalition government.'
p5719
sg11
(lp5720
(S'root'
p5721
S'ROOT'
p5722
S'returned'
p5723
tp5724
a(S'nsubj'
p5725
S'returned'
p5726
S'Ranariddh'
p5727
tp5728
a(S'poss'
p5729
S'party'
p5730
S'whose'
p5731
tp5732
a(S'nn'
p5733
S'party'
p5734
S'FUNCINPEC'
p5735
tp5736
a(S'nsubj'
p5737
S'finished'
p5738
S'party'
p5739
tp5740
a(S'rcmod'
p5741
S'Ranariddh'
p5742
S'finished'
p5743
tp5744
a(S'det'
p5745
S'second'
p5746
g1116
tp5747
a(S'amod'
p5748
S'second'
p5749
S'close'
p5750
tp5751
a(S'dobj'
p5752
S'finished'
p5753
S'second'
p5754
tp5755
a(S'det'
p5756
S'election'
p5757
S'the'
p5758
tp5759
a(S'prep_in'
p5760
S'finished'
p5761
S'election'
p5762
tp5763
a(S'amod'
p5764
S'week'
p5765
S'last'
p5766
tp5767
a(S'tmod'
p5768
S'returned'
p5769
S'week'
p5770
tp5771
a(S'conj_and'
p5772
S'returned'
p5773
S'struck'
p5774
tp5775
a(S'det'
p5776
S'deal'
p5777
g1116
tp5778
a(S'dobj'
p5779
S'struck'
p5780
S'deal'
p5781
tp5782
a(S'nn'
p5783
S'Sen'
p5784
S'Hun'
p5785
tp5786
a(S'prep_with'
p5787
S'struck'
p5788
S'Sen'
p5789
tp5790
a(S'aux'
p5791
S'form'
p5792
S'to'
p5793
tp5794
a(S'xcomp'
p5795
S'struck'
p5796
S'form'
p5797
tp5798
a(S'det'
p5799
S'government'
p5800
g1116
tp5801
a(S'nn'
p5802
S'government'
p5803
S'coalition'
p5804
tp5805
a(S'dobj'
p5806
S'form'
p5807
S'government'
p5808
tp5809
asg41
(lp5810
(g5721
S'ROOT-0'
p5811
S'returned-14'
p5812
tp5813
a(g5725
S'returned-14'
p5814
S'Ranariddh-1'
p5815
tp5816
a(g5729
S'party-5'
p5817
S'whose-3'
p5818
tp5819
a(g5733
S'party-5'
p5820
S'FUNCINPEC-4'
p5821
tp5822
a(g5737
S'finished-6'
p5823
S'party-5'
p5824
tp5825
a(g5741
S'Ranariddh-1'
p5826
S'finished-6'
p5827
tp5828
a(g5745
S'second-9'
p5829
S'a-7'
p5830
tp5831
a(g5748
S'second-9'
p5832
S'close-8'
p5833
tp5834
a(g5752
S'finished-6'
p5835
S'second-9'
p5836
tp5837
a(g5756
S'election-12'
p5838
S'the-11'
p5839
tp5840
a(g5760
S'finished-6'
p5841
S'election-12'
p5842
tp5843
a(g5764
S'week-16'
p5844
S'last-15'
p5845
tp5846
a(g5768
S'returned-14'
p5847
S'week-16'
p5848
tp5849
a(g5772
S'returned-14'
p5850
S'struck-18'
p5851
tp5852
a(g5776
S'deal-20'
p5853
S'a-19'
p5854
tp5855
a(g5779
S'struck-18'
p5856
S'deal-20'
p5857
tp5858
a(g5783
S'Sen-23'
p5859
S'Hun-22'
p5860
tp5861
a(g5787
S'struck-18'
p5862
S'Sen-23'
p5863
tp5864
a(g5791
S'form-25'
p5865
S'to-24'
p5866
tp5867
a(g5795
S'struck-18'
p5868
S'form-25'
p5869
tp5870
a(g5799
S'government-28'
p5871
S'a-26'
p5872
tp5873
a(g5802
S'government-28'
p5874
S'coalition-27'
p5875
tp5876
a(g5806
S'form-25'
p5877
S'government-28'
p5878
tp5879
asg64
(lp5880
(S'Ranariddh'
p5881
(dp5882
S'NamedEntityTag'
p5883
S'PERSON'
p5884
sS'CharacterOffsetEnd'
p5885
S'1562'
p5886
sS'Lemma'
p5887
S'Ranariddh'
p5888
sS'PartOfSpeech'
p5889
S'NNP'
p5890
sS'CharacterOffsetBegin'
p5891
S'1553'
p5892
stp5893
a(g1606
(dp5894
S'NamedEntityTag'
p5895
g69
sS'CharacterOffsetEnd'
p5896
S'1563'
p5897
sS'Lemma'
p5898
g1606
sS'PartOfSpeech'
p5899
g1606
sS'CharacterOffsetBegin'
p5900
S'1562'
p5901
stp5902
a(S'whose'
p5903
(dp5904
S'NamedEntityTag'
p5905
g69
sS'CharacterOffsetEnd'
p5906
S'1569'
p5907
sS'Lemma'
p5908
S'whose'
p5909
sS'PartOfSpeech'
p5910
S'WP$'
p5911
sS'CharacterOffsetBegin'
p5912
S'1564'
p5913
stp5914
a(S'FUNCINPEC'
p5915
(dp5916
S'NamedEntityTag'
p5917
S'ORGANIZATION'
p5918
sS'CharacterOffsetEnd'
p5919
S'1579'
p5920
sS'Lemma'
p5921
S'FUNCINPEC'
p5922
sS'PartOfSpeech'
p5923
S'NNP'
p5924
sS'CharacterOffsetBegin'
p5925
S'1570'
p5926
stp5927
a(S'party'
p5928
(dp5929
S'NamedEntityTag'
p5930
g69
sS'CharacterOffsetEnd'
p5931
S'1585'
p5932
sS'Lemma'
p5933
S'party'
p5934
sS'PartOfSpeech'
p5935
S'NN'
p5936
sS'CharacterOffsetBegin'
p5937
S'1580'
p5938
stp5939
a(S'finished'
p5940
(dp5941
S'NamedEntityTag'
p5942
g69
sS'CharacterOffsetEnd'
p5943
S'1594'
p5944
sS'Lemma'
p5945
S'finish'
p5946
sS'PartOfSpeech'
p5947
S'VBD'
p5948
sS'CharacterOffsetBegin'
p5949
S'1586'
p5950
stp5951
a(g1116
(dp5952
S'NamedEntityTag'
p5953
g69
sS'CharacterOffsetEnd'
p5954
S'1596'
p5955
sS'Lemma'
p5956
g1116
sS'PartOfSpeech'
p5957
S'DT'
p5958
sS'CharacterOffsetBegin'
p5959
S'1595'
p5960
stp5961
a(S'close'
p5962
(dp5963
S'NamedEntityTag'
p5964
g69
sS'CharacterOffsetEnd'
p5965
S'1602'
p5966
sS'Lemma'
p5967
S'close'
p5968
sS'PartOfSpeech'
p5969
S'JJ'
p5970
sS'CharacterOffsetBegin'
p5971
S'1597'
p5972
stp5973
a(S'second'
p5974
(dp5975
S'NormalizedNamedEntityTag'
p5976
S'2.0'
p5977
sS'Lemma'
p5978
S'second'
p5979
sS'CharacterOffsetEnd'
p5980
S'1609'
p5981
sS'PartOfSpeech'
p5982
S'JJ'
p5983
sS'CharacterOffsetBegin'
p5984
S'1603'
p5985
sS'NamedEntityTag'
p5986
S'ORDINAL'
p5987
stp5988
a(S'in'
p5989
(dp5990
S'NamedEntityTag'
p5991
g69
sS'CharacterOffsetEnd'
p5992
S'1612'
p5993
sS'Lemma'
p5994
S'in'
p5995
sS'PartOfSpeech'
p5996
S'IN'
p5997
sS'CharacterOffsetBegin'
p5998
S'1610'
p5999
stp6000
a(S'the'
p6001
(dp6002
S'NamedEntityTag'
p6003
g69
sS'CharacterOffsetEnd'
p6004
S'1616'
p6005
sS'Lemma'
p6006
S'the'
p6007
sS'PartOfSpeech'
p6008
S'DT'
p6009
sS'CharacterOffsetBegin'
p6010
S'1613'
p6011
stp6012
a(S'election'
p6013
(dp6014
S'NamedEntityTag'
p6015
g69
sS'CharacterOffsetEnd'
p6016
S'1625'
p6017
sS'Lemma'
p6018
S'election'
p6019
sS'PartOfSpeech'
p6020
S'NN'
p6021
sS'CharacterOffsetBegin'
p6022
S'1617'
p6023
stp6024
a(g1606
(dp6025
S'NamedEntityTag'
p6026
g69
sS'CharacterOffsetEnd'
p6027
S'1626'
p6028
sS'Lemma'
p6029
g1606
sS'PartOfSpeech'
p6030
g1606
sS'CharacterOffsetBegin'
p6031
S'1625'
p6032
stp6033
a(S'returned'
p6034
(dp6035
S'NamedEntityTag'
p6036
g69
sS'CharacterOffsetEnd'
p6037
S'1635'
p6038
sS'Lemma'
p6039
S'return'
p6040
sS'PartOfSpeech'
p6041
S'VBD'
p6042
sS'CharacterOffsetBegin'
p6043
S'1627'
p6044
stp6045
a(S'last'
p6046
(dp6047
S'NormalizedNamedEntityTag'
p6048
S'THIS'
p6049
sS'Timex'
p6050
S'<TIMEX3 alt_value="THIS P1W OFFSET P-1W" anchorTimeID="t9" temporalFunction="true" tid="t8" type="DATE" valueFromFunction="tf1">last week</TIMEX3>'
p6051
sS'Lemma'
p6052
S'last'
p6053
sS'CharacterOffsetEnd'
p6054
S'1640'
p6055
sS'PartOfSpeech'
p6056
S'JJ'
p6057
sS'CharacterOffsetBegin'
p6058
S'1636'
p6059
sS'NamedEntityTag'
p6060
S'DATE'
p6061
stp6062
a(S'week'
p6063
(dp6064
S'NormalizedNamedEntityTag'
p6065
S'THIS'
p6066
sS'Timex'
p6067
S'<TIMEX3 alt_value="THIS P1W OFFSET P-1W" anchorTimeID="t9" temporalFunction="true" tid="t8" type="DATE" valueFromFunction="tf1">last week</TIMEX3>'
p6068
sS'Lemma'
p6069
S'week'
p6070
sS'CharacterOffsetEnd'
p6071
S'1645'
p6072
sS'PartOfSpeech'
p6073
S'NN'
p6074
sS'CharacterOffsetBegin'
p6075
S'1641'
p6076
sS'NamedEntityTag'
p6077
S'DATE'
p6078
stp6079
a(S'and'
p6080
(dp6081
S'NamedEntityTag'
p6082
g69
sS'CharacterOffsetEnd'
p6083
S'1649'
p6084
sS'Lemma'
p6085
S'and'
p6086
sS'PartOfSpeech'
p6087
S'CC'
p6088
sS'CharacterOffsetBegin'
p6089
S'1646'
p6090
stp6091
a(S'struck'
p6092
(dp6093
S'NamedEntityTag'
p6094
g69
sS'CharacterOffsetEnd'
p6095
S'1656'
p6096
sS'Lemma'
p6097
S'strike'
p6098
sS'PartOfSpeech'
p6099
S'VBD'
p6100
sS'CharacterOffsetBegin'
p6101
S'1650'
p6102
stp6103
a(g1116
(dp6104
S'NamedEntityTag'
p6105
g69
sS'CharacterOffsetEnd'
p6106
S'1658'
p6107
sS'Lemma'
p6108
g1116
sS'PartOfSpeech'
p6109
S'DT'
p6110
sS'CharacterOffsetBegin'
p6111
S'1657'
p6112
stp6113
a(S'deal'
p6114
(dp6115
S'NamedEntityTag'
p6116
g69
sS'CharacterOffsetEnd'
p6117
S'1663'
p6118
sS'Lemma'
p6119
S'deal'
p6120
sS'PartOfSpeech'
p6121
S'NN'
p6122
sS'CharacterOffsetBegin'
p6123
S'1659'
p6124
stp6125
a(S'with'
p6126
(dp6127
S'NamedEntityTag'
p6128
g69
sS'CharacterOffsetEnd'
p6129
S'1668'
p6130
sS'Lemma'
p6131
S'with'
p6132
sS'PartOfSpeech'
p6133
S'IN'
p6134
sS'CharacterOffsetBegin'
p6135
S'1664'
p6136
stp6137
a(S'Hun'
p6138
(dp6139
S'NamedEntityTag'
p6140
S'PERSON'
p6141
sS'CharacterOffsetEnd'
p6142
S'1672'
p6143
sS'Lemma'
p6144
S'Hun'
p6145
sS'PartOfSpeech'
p6146
S'NNP'
p6147
sS'CharacterOffsetBegin'
p6148
S'1669'
p6149
stp6150
a(S'Sen'
p6151
(dp6152
S'NamedEntityTag'
p6153
S'PERSON'
p6154
sS'CharacterOffsetEnd'
p6155
S'1676'
p6156
sS'Lemma'
p6157
S'Sen'
p6158
sS'PartOfSpeech'
p6159
S'NNP'
p6160
sS'CharacterOffsetBegin'
p6161
S'1673'
p6162
stp6163
a(S'to'
p6164
(dp6165
S'NamedEntityTag'
p6166
g69
sS'CharacterOffsetEnd'
p6167
S'1679'
p6168
sS'Lemma'
p6169
S'to'
p6170
sS'PartOfSpeech'
p6171
S'TO'
p6172
sS'CharacterOffsetBegin'
p6173
S'1677'
p6174
stp6175
a(S'form'
p6176
(dp6177
S'NamedEntityTag'
p6178
g69
sS'CharacterOffsetEnd'
p6179
S'1684'
p6180
sS'Lemma'
p6181
S'form'
p6182
sS'PartOfSpeech'
p6183
S'VB'
p6184
sS'CharacterOffsetBegin'
p6185
S'1680'
p6186
stp6187
a(g1116
(dp6188
S'NamedEntityTag'
p6189
g69
sS'CharacterOffsetEnd'
p6190
S'1686'
p6191
sS'Lemma'
p6192
g1116
sS'PartOfSpeech'
p6193
S'DT'
p6194
sS'CharacterOffsetBegin'
p6195
S'1685'
p6196
stp6197
a(S'coalition'
p6198
(dp6199
S'NamedEntityTag'
p6200
g69
sS'CharacterOffsetEnd'
p6201
S'1696'
p6202
sS'Lemma'
p6203
S'coalition'
p6204
sS'PartOfSpeech'
p6205
S'NN'
p6206
sS'CharacterOffsetBegin'
p6207
S'1687'
p6208
stp6209
a(S'government'
p6210
(dp6211
S'NamedEntityTag'
p6212
g69
sS'CharacterOffsetEnd'
p6213
S'1707'
p6214
sS'Lemma'
p6215
S'government'
p6216
sS'PartOfSpeech'
p6217
S'NN'
p6218
sS'CharacterOffsetBegin'
p6219
S'1697'
p6220
stp6221
a(g744
(dp6222
S'NamedEntityTag'
p6223
g69
sS'CharacterOffsetEnd'
p6224
S'1708'
p6225
sS'Lemma'
p6226
g744
sS'PartOfSpeech'
p6227
g744
sS'CharacterOffsetBegin'
p6228
S'1707'
p6229
stp6230
asa(dp6231
g7
S'(ROOT (S (NP (DT The) (NN agreement)) (VP (MD will) (VP (VB make) (NP (NP (NP (NNP Hun) (NNP Sen)) (NP (JJ prime) (NN minister))) (CC and) (NP (NP (NNP Ranariddh) (NN president)) (PP (IN of) (NP (DT the) (NNP National) (NNP Assembly))))))) (. .)))'
p6232
sg9
S'The agreement will make Hun Sen prime minister and Ranariddh president of the National Assembly.'
p6233
sg11
(lp6234
(S'root'
p6235
S'ROOT'
p6236
S'make'
p6237
tp6238
a(S'det'
p6239
S'agreement'
p6240
S'The'
p6241
tp6242
a(S'nsubj'
p6243
S'make'
p6244
S'agreement'
p6245
tp6246
a(S'aux'
p6247
S'make'
p6248
S'will'
p6249
tp6250
a(S'nn'
p6251
S'Sen'
p6252
S'Hun'
p6253
tp6254
a(S'dobj'
p6255
S'make'
p6256
S'Sen'
p6257
tp6258
a(S'amod'
p6259
S'minister'
p6260
S'prime'
p6261
tp6262
a(S'dep'
p6263
S'Sen'
p6264
S'minister'
p6265
tp6266
a(S'nn'
p6267
S'president'
p6268
S'Ranariddh'
p6269
tp6270
a(S'conj_and'
p6271
S'Sen'
p6272
S'president'
p6273
tp6274
a(S'det'
p6275
S'Assembly'
p6276
S'the'
p6277
tp6278
a(S'nn'
p6279
S'Assembly'
p6280
S'National'
p6281
tp6282
a(S'prep_of'
p6283
S'president'
p6284
S'Assembly'
p6285
tp6286
asg41
(lp6287
(g6235
S'ROOT-0'
p6288
S'make-4'
p6289
tp6290
a(g6239
S'agreement-2'
p6291
S'The-1'
p6292
tp6293
a(g6243
S'make-4'
p6294
S'agreement-2'
p6295
tp6296
a(g6247
S'make-4'
p6297
S'will-3'
p6298
tp6299
a(g6251
S'Sen-6'
p6300
S'Hun-5'
p6301
tp6302
a(g6255
S'make-4'
p6303
S'Sen-6'
p6304
tp6305
a(g6259
S'minister-8'
p6306
S'prime-7'
p6307
tp6308
a(g6263
S'Sen-6'
p6309
S'minister-8'
p6310
tp6311
a(g6267
S'president-11'
p6312
S'Ranariddh-10'
p6313
tp6314
a(g6271
S'Sen-6'
p6315
S'president-11'
p6316
tp6317
a(g6275
S'Assembly-15'
p6318
S'the-13'
p6319
tp6320
a(g6279
S'Assembly-15'
p6321
S'National-14'
p6322
tp6323
a(g6283
S'president-11'
p6324
S'Assembly-15'
p6325
tp6326
asg64
(lp6327
(S'The'
p6328
(dp6329
S'NamedEntityTag'
p6330
g69
sS'CharacterOffsetEnd'
p6331
S'1712'
p6332
sS'Lemma'
p6333
S'the'
p6334
sS'PartOfSpeech'
p6335
S'DT'
p6336
sS'CharacterOffsetBegin'
p6337
S'1709'
p6338
stp6339
a(S'agreement'
p6340
(dp6341
S'NamedEntityTag'
p6342
g69
sS'CharacterOffsetEnd'
p6343
S'1722'
p6344
sS'Lemma'
p6345
S'agreement'
p6346
sS'PartOfSpeech'
p6347
S'NN'
p6348
sS'CharacterOffsetBegin'
p6349
S'1713'
p6350
stp6351
a(S'will'
p6352
(dp6353
S'NamedEntityTag'
p6354
g69
sS'CharacterOffsetEnd'
p6355
S'1727'
p6356
sS'Lemma'
p6357
S'will'
p6358
sS'PartOfSpeech'
p6359
S'MD'
p6360
sS'CharacterOffsetBegin'
p6361
S'1723'
p6362
stp6363
a(S'make'
p6364
(dp6365
S'NamedEntityTag'
p6366
g69
sS'CharacterOffsetEnd'
p6367
S'1732'
p6368
sS'Lemma'
p6369
S'make'
p6370
sS'PartOfSpeech'
p6371
S'VB'
p6372
sS'CharacterOffsetBegin'
p6373
S'1728'
p6374
stp6375
a(S'Hun'
p6376
(dp6377
S'NamedEntityTag'
p6378
S'PERSON'
p6379
sS'CharacterOffsetEnd'
p6380
S'1736'
p6381
sS'Lemma'
p6382
S'Hun'
p6383
sS'PartOfSpeech'
p6384
S'NNP'
p6385
sS'CharacterOffsetBegin'
p6386
S'1733'
p6387
stp6388
a(S'Sen'
p6389
(dp6390
S'NamedEntityTag'
p6391
S'PERSON'
p6392
sS'CharacterOffsetEnd'
p6393
S'1740'
p6394
sS'Lemma'
p6395
S'Sen'
p6396
sS'PartOfSpeech'
p6397
S'NNP'
p6398
sS'CharacterOffsetBegin'
p6399
S'1737'
p6400
stp6401
a(S'prime'
p6402
(dp6403
S'NamedEntityTag'
p6404
g69
sS'CharacterOffsetEnd'
p6405
S'1746'
p6406
sS'Lemma'
p6407
S'prime'
p6408
sS'PartOfSpeech'
p6409
S'JJ'
p6410
sS'CharacterOffsetBegin'
p6411
S'1741'
p6412
stp6413
a(S'minister'
p6414
(dp6415
S'NamedEntityTag'
p6416
g69
sS'CharacterOffsetEnd'
p6417
S'1755'
p6418
sS'Lemma'
p6419
S'minister'
p6420
sS'PartOfSpeech'
p6421
S'NN'
p6422
sS'CharacterOffsetBegin'
p6423
S'1747'
p6424
stp6425
a(S'and'
p6426
(dp6427
S'NamedEntityTag'
p6428
g69
sS'CharacterOffsetEnd'
p6429
S'1759'
p6430
sS'Lemma'
p6431
S'and'
p6432
sS'PartOfSpeech'
p6433
S'CC'
p6434
sS'CharacterOffsetBegin'
p6435
S'1756'
p6436
stp6437
a(S'Ranariddh'
p6438
(dp6439
S'NamedEntityTag'
p6440
S'PERSON'
p6441
sS'CharacterOffsetEnd'
p6442
S'1769'
p6443
sS'Lemma'
p6444
S'Ranariddh'
p6445
sS'PartOfSpeech'
p6446
S'NNP'
p6447
sS'CharacterOffsetBegin'
p6448
S'1760'
p6449
stp6450
a(S'president'
p6451
(dp6452
S'NamedEntityTag'
p6453
g69
sS'CharacterOffsetEnd'
p6454
S'1779'
p6455
sS'Lemma'
p6456
S'president'
p6457
sS'PartOfSpeech'
p6458
S'NN'
p6459
sS'CharacterOffsetBegin'
p6460
S'1770'
p6461
stp6462
a(S'of'
p6463
(dp6464
S'NamedEntityTag'
p6465
g69
sS'CharacterOffsetEnd'
p6466
S'1782'
p6467
sS'Lemma'
p6468
S'of'
p6469
sS'PartOfSpeech'
p6470
S'IN'
p6471
sS'CharacterOffsetBegin'
p6472
S'1780'
p6473
stp6474
a(S'the'
p6475
(dp6476
S'NamedEntityTag'
p6477
g69
sS'CharacterOffsetEnd'
p6478
S'1786'
p6479
sS'Lemma'
p6480
S'the'
p6481
sS'PartOfSpeech'
p6482
S'DT'
p6483
sS'CharacterOffsetBegin'
p6484
S'1783'
p6485
stp6486
a(S'National'
p6487
(dp6488
S'NamedEntityTag'
p6489
S'ORGANIZATION'
p6490
sS'CharacterOffsetEnd'
p6491
S'1795'
p6492
sS'Lemma'
p6493
S'National'
p6494
sS'PartOfSpeech'
p6495
S'NNP'
p6496
sS'CharacterOffsetBegin'
p6497
S'1787'
p6498
stp6499
a(S'Assembly'
p6500
(dp6501
S'NamedEntityTag'
p6502
S'ORGANIZATION'
p6503
sS'CharacterOffsetEnd'
p6504
S'1804'
p6505
sS'Lemma'
p6506
S'Assembly'
p6507
sS'PartOfSpeech'
p6508
S'NNP'
p6509
sS'CharacterOffsetBegin'
p6510
S'1796'
p6511
stp6512
a(g744
(dp6513
S'NamedEntityTag'
p6514
g69
sS'CharacterOffsetEnd'
p6515
S'1805'
p6516
sS'Lemma'
p6517
g744
sS'PartOfSpeech'
p6518
g744
sS'CharacterOffsetBegin'
p6519
S'1804'
p6520
stp6521
asa(dp6522
g7
S'(ROOT (S (NP (DT The) (CD two) (NNS parties)) (VP (VBP have) (VP (VBN formed) (NP (CD three)) (S (VP (VBG working) (NP (NNS groups)) (S (VP (TO to) (VP (VB hammer) (PRT (RP out)) (NP (NP (NNS details)) (PP (IN of) (NP (DT the) (NN agreement))))))))) (, ,) (PP (VBG including) (NP (NP (DT the) (NN establishment)) (PP (IN of) (NP (DT a) (NNP Senate))) (S (VP (TO to) (VP (VB be) (NP (NP (DT the) (JJ upper) (NN house)) (PP (IN of) (NP (NN parliament))))))))))) (. .)))'
p6523
sg9
S'The two parties have formed three working groups to hammer out details of the agreement, including the establishment of a Senate to be the upper house of parliament.'
p6524
sg11
(lp6525
(S'root'
p6526
S'ROOT'
p6527
S'formed'
p6528
tp6529
a(S'det'
p6530
S'parties'
p6531
S'The'
p6532
tp6533
a(S'num'
p6534
S'parties'
p6535
S'two'
p6536
tp6537
a(S'nsubj'
p6538
S'formed'
p6539
S'parties'
p6540
tp6541
a(S'aux'
p6542
S'formed'
p6543
S'have'
p6544
tp6545
a(S'dobj'
p6546
S'formed'
p6547
S'three'
p6548
tp6549
a(S'xcomp'
p6550
S'formed'
p6551
S'working'
p6552
tp6553
a(S'dobj'
p6554
S'working'
p6555
S'groups'
p6556
tp6557
a(S'aux'
p6558
S'hammer'
p6559
S'to'
p6560
tp6561
a(S'xcomp'
p6562
S'working'
p6563
S'hammer'
p6564
tp6565
a(S'prt'
p6566
S'hammer'
p6567
S'out'
p6568
tp6569
a(S'dobj'
p6570
S'hammer'
p6571
S'details'
p6572
tp6573
a(S'det'
p6574
S'agreement'
p6575
S'the'
p6576
tp6577
a(S'prep_of'
p6578
S'details'
p6579
S'agreement'
p6580
tp6581
a(S'det'
p6582
S'establishment'
p6583
S'the'
p6584
tp6585
a(S'prep_including'
p6586
S'formed'
p6587
S'establishment'
p6588
tp6589
a(S'det'
p6590
S'Senate'
p6591
g1116
tp6592
a(S'prep_of'
p6593
S'establishment'
p6594
S'Senate'
p6595
tp6596
a(S'aux'
p6597
S'house'
p6598
S'to'
p6599
tp6600
a(S'cop'
p6601
S'house'
p6602
S'be'
p6603
tp6604
a(S'det'
p6605
S'house'
p6606
S'the'
p6607
tp6608
a(S'amod'
p6609
S'house'
p6610
S'upper'
p6611
tp6612
a(S'infmod'
p6613
S'establishment'
p6614
S'house'
p6615
tp6616
a(S'prep_of'
p6617
S'house'
p6618
S'parliament'
p6619
tp6620
asg41
(lp6621
(g6526
S'ROOT-0'
p6622
S'formed-5'
p6623
tp6624
a(g6530
S'parties-3'
p6625
S'The-1'
p6626
tp6627
a(g6534
S'parties-3'
p6628
S'two-2'
p6629
tp6630
a(g6538
S'formed-5'
p6631
S'parties-3'
p6632
tp6633
a(g6542
S'formed-5'
p6634
S'have-4'
p6635
tp6636
a(g6546
S'formed-5'
p6637
S'three-6'
p6638
tp6639
a(g6550
S'formed-5'
p6640
S'working-7'
p6641
tp6642
a(g6554
S'working-7'
p6643
S'groups-8'
p6644
tp6645
a(g6558
S'hammer-10'
p6646
S'to-9'
p6647
tp6648
a(g6562
S'working-7'
p6649
S'hammer-10'
p6650
tp6651
a(g6566
S'hammer-10'
p6652
S'out-11'
p6653
tp6654
a(g6570
S'hammer-10'
p6655
S'details-12'
p6656
tp6657
a(g6574
S'agreement-15'
p6658
S'the-14'
p6659
tp6660
a(g6578
S'details-12'
p6661
S'agreement-15'
p6662
tp6663
a(g6582
S'establishment-19'
p6664
S'the-18'
p6665
tp6666
a(g6586
S'formed-5'
p6667
S'establishment-19'
p6668
tp6669
a(g6590
S'Senate-22'
p6670
S'a-21'
p6671
tp6672
a(g6593
S'establishment-19'
p6673
S'Senate-22'
p6674
tp6675
a(g6597
S'house-27'
p6676
S'to-23'
p6677
tp6678
a(g6601
S'house-27'
p6679
S'be-24'
p6680
tp6681
a(g6605
S'house-27'
p6682
S'the-25'
p6683
tp6684
a(g6609
S'house-27'
p6685
S'upper-26'
p6686
tp6687
a(g6613
S'establishment-19'
p6688
S'house-27'
p6689
tp6690
a(g6617
S'house-27'
p6691
S'parliament-29'
p6692
tp6693
asg64
(lp6694
(S'The'
p6695
(dp6696
S'NamedEntityTag'
p6697
g69
sS'CharacterOffsetEnd'
p6698
S'1809'
p6699
sS'Lemma'
p6700
S'the'
p6701
sS'PartOfSpeech'
p6702
S'DT'
p6703
sS'CharacterOffsetBegin'
p6704
S'1806'
p6705
stp6706
a(S'two'
p6707
(dp6708
S'NormalizedNamedEntityTag'
p6709
S'2.0'
p6710
sS'Lemma'
p6711
S'two'
p6712
sS'CharacterOffsetEnd'
p6713
S'1813'
p6714
sS'PartOfSpeech'
p6715
S'CD'
p6716
sS'CharacterOffsetBegin'
p6717
S'1810'
p6718
sS'NamedEntityTag'
p6719
S'NUMBER'
p6720
stp6721
a(S'parties'
p6722
(dp6723
S'NamedEntityTag'
p6724
g69
sS'CharacterOffsetEnd'
p6725
S'1821'
p6726
sS'Lemma'
p6727
S'party'
p6728
sS'PartOfSpeech'
p6729
S'NNS'
p6730
sS'CharacterOffsetBegin'
p6731
S'1814'
p6732
stp6733
a(S'have'
p6734
(dp6735
S'NamedEntityTag'
p6736
g69
sS'CharacterOffsetEnd'
p6737
S'1826'
p6738
sS'Lemma'
p6739
S'have'
p6740
sS'PartOfSpeech'
p6741
S'VBP'
p6742
sS'CharacterOffsetBegin'
p6743
S'1822'
p6744
stp6745
a(S'formed'
p6746
(dp6747
S'NamedEntityTag'
p6748
g69
sS'CharacterOffsetEnd'
p6749
S'1833'
p6750
sS'Lemma'
p6751
S'form'
p6752
sS'PartOfSpeech'
p6753
S'VBN'
p6754
sS'CharacterOffsetBegin'
p6755
S'1827'
p6756
stp6757
a(S'three'
p6758
(dp6759
S'NormalizedNamedEntityTag'
p6760
S'3.0'
p6761
sS'Lemma'
p6762
S'three'
p6763
sS'CharacterOffsetEnd'
p6764
S'1839'
p6765
sS'PartOfSpeech'
p6766
S'CD'
p6767
sS'CharacterOffsetBegin'
p6768
S'1834'
p6769
sS'NamedEntityTag'
p6770
S'NUMBER'
p6771
stp6772
a(S'working'
p6773
(dp6774
S'NamedEntityTag'
p6775
g69
sS'CharacterOffsetEnd'
p6776
S'1847'
p6777
sS'Lemma'
p6778
S'work'
p6779
sS'PartOfSpeech'
p6780
S'VBG'
p6781
sS'CharacterOffsetBegin'
p6782
S'1840'
p6783
stp6784
a(S'groups'
p6785
(dp6786
S'NamedEntityTag'
p6787
g69
sS'CharacterOffsetEnd'
p6788
S'1854'
p6789
sS'Lemma'
p6790
S'group'
p6791
sS'PartOfSpeech'
p6792
S'NNS'
p6793
sS'CharacterOffsetBegin'
p6794
S'1848'
p6795
stp6796
a(S'to'
p6797
(dp6798
S'NamedEntityTag'
p6799
g69
sS'CharacterOffsetEnd'
p6800
S'1857'
p6801
sS'Lemma'
p6802
S'to'
p6803
sS'PartOfSpeech'
p6804
S'TO'
p6805
sS'CharacterOffsetBegin'
p6806
S'1855'
p6807
stp6808
a(S'hammer'
p6809
(dp6810
S'NamedEntityTag'
p6811
g69
sS'CharacterOffsetEnd'
p6812
S'1864'
p6813
sS'Lemma'
p6814
S'hammer'
p6815
sS'PartOfSpeech'
p6816
S'VB'
p6817
sS'CharacterOffsetBegin'
p6818
S'1858'
p6819
stp6820
a(S'out'
p6821
(dp6822
S'NamedEntityTag'
p6823
g69
sS'CharacterOffsetEnd'
p6824
S'1868'
p6825
sS'Lemma'
p6826
S'out'
p6827
sS'PartOfSpeech'
p6828
S'RP'
p6829
sS'CharacterOffsetBegin'
p6830
S'1865'
p6831
stp6832
a(S'details'
p6833
(dp6834
S'NamedEntityTag'
p6835
g69
sS'CharacterOffsetEnd'
p6836
S'1876'
p6837
sS'Lemma'
p6838
S'detail'
p6839
sS'PartOfSpeech'
p6840
S'NNS'
p6841
sS'CharacterOffsetBegin'
p6842
S'1869'
p6843
stp6844
a(S'of'
p6845
(dp6846
S'NamedEntityTag'
p6847
g69
sS'CharacterOffsetEnd'
p6848
S'1879'
p6849
sS'Lemma'
p6850
S'of'
p6851
sS'PartOfSpeech'
p6852
S'IN'
p6853
sS'CharacterOffsetBegin'
p6854
S'1877'
p6855
stp6856
a(S'the'
p6857
(dp6858
S'NamedEntityTag'
p6859
g69
sS'CharacterOffsetEnd'
p6860
S'1883'
p6861
sS'Lemma'
p6862
S'the'
p6863
sS'PartOfSpeech'
p6864
S'DT'
p6865
sS'CharacterOffsetBegin'
p6866
S'1880'
p6867
stp6868
a(S'agreement'
p6869
(dp6870
S'NamedEntityTag'
p6871
g69
sS'CharacterOffsetEnd'
p6872
S'1893'
p6873
sS'Lemma'
p6874
S'agreement'
p6875
sS'PartOfSpeech'
p6876
S'NN'
p6877
sS'CharacterOffsetBegin'
p6878
S'1884'
p6879
stp6880
a(g1606
(dp6881
S'NamedEntityTag'
p6882
g69
sS'CharacterOffsetEnd'
p6883
S'1894'
p6884
sS'Lemma'
p6885
g1606
sS'PartOfSpeech'
p6886
g1606
sS'CharacterOffsetBegin'
p6887
S'1893'
p6888
stp6889
a(S'including'
p6890
(dp6891
S'NamedEntityTag'
p6892
g69
sS'CharacterOffsetEnd'
p6893
S'1904'
p6894
sS'Lemma'
p6895
S'include'
p6896
sS'PartOfSpeech'
p6897
S'VBG'
p6898
sS'CharacterOffsetBegin'
p6899
S'1895'
p6900
stp6901
a(S'the'
p6902
(dp6903
S'NamedEntityTag'
p6904
g69
sS'CharacterOffsetEnd'
p6905
S'1908'
p6906
sS'Lemma'
p6907
S'the'
p6908
sS'PartOfSpeech'
p6909
S'DT'
p6910
sS'CharacterOffsetBegin'
p6911
S'1905'
p6912
stp6913
a(S'establishment'
p6914
(dp6915
S'NamedEntityTag'
p6916
g69
sS'CharacterOffsetEnd'
p6917
S'1922'
p6918
sS'Lemma'
p6919
S'establishment'
p6920
sS'PartOfSpeech'
p6921
S'NN'
p6922
sS'CharacterOffsetBegin'
p6923
S'1909'
p6924
stp6925
a(S'of'
p6926
(dp6927
S'NamedEntityTag'
p6928
g69
sS'CharacterOffsetEnd'
p6929
S'1925'
p6930
sS'Lemma'
p6931
S'of'
p6932
sS'PartOfSpeech'
p6933
S'IN'
p6934
sS'CharacterOffsetBegin'
p6935
S'1923'
p6936
stp6937
a(g1116
(dp6938
S'NamedEntityTag'
p6939
g69
sS'CharacterOffsetEnd'
p6940
S'1927'
p6941
sS'Lemma'
p6942
g1116
sS'PartOfSpeech'
p6943
S'DT'
p6944
sS'CharacterOffsetBegin'
p6945
S'1926'
p6946
stp6947
a(S'Senate'
p6948
(dp6949
S'NamedEntityTag'
p6950
S'ORGANIZATION'
p6951
sS'CharacterOffsetEnd'
p6952
S'1934'
p6953
sS'Lemma'
p6954
S'Senate'
p6955
sS'PartOfSpeech'
p6956
S'NNP'
p6957
sS'CharacterOffsetBegin'
p6958
S'1928'
p6959
stp6960
a(S'to'
p6961
(dp6962
S'NamedEntityTag'
p6963
g69
sS'CharacterOffsetEnd'
p6964
S'1937'
p6965
sS'Lemma'
p6966
S'to'
p6967
sS'PartOfSpeech'
p6968
S'TO'
p6969
sS'CharacterOffsetBegin'
p6970
S'1935'
p6971
stp6972
a(S'be'
p6973
(dp6974
S'NamedEntityTag'
p6975
g69
sS'CharacterOffsetEnd'
p6976
S'1940'
p6977
sS'Lemma'
p6978
S'be'
p6979
sS'PartOfSpeech'
p6980
S'VB'
p6981
sS'CharacterOffsetBegin'
p6982
S'1938'
p6983
stp6984
a(S'the'
p6985
(dp6986
S'NamedEntityTag'
p6987
g69
sS'CharacterOffsetEnd'
p6988
S'1944'
p6989
sS'Lemma'
p6990
S'the'
p6991
sS'PartOfSpeech'
p6992
S'DT'
p6993
sS'CharacterOffsetBegin'
p6994
S'1941'
p6995
stp6996
a(S'upper'
p6997
(dp6998
S'NamedEntityTag'
p6999
g69
sS'CharacterOffsetEnd'
p7000
S'1950'
p7001
sS'Lemma'
p7002
S'upper'
p7003
sS'PartOfSpeech'
p7004
S'JJ'
p7005
sS'CharacterOffsetBegin'
p7006
S'1945'
p7007
stp7008
a(S'house'
p7009
(dp7010
S'NamedEntityTag'
p7011
g69
sS'CharacterOffsetEnd'
p7012
S'1956'
p7013
sS'Lemma'
p7014
S'house'
p7015
sS'PartOfSpeech'
p7016
S'NN'
p7017
sS'CharacterOffsetBegin'
p7018
S'1951'
p7019
stp7020
a(S'of'
p7021
(dp7022
S'NamedEntityTag'
p7023
g69
sS'CharacterOffsetEnd'
p7024
S'1959'
p7025
sS'Lemma'
p7026
S'of'
p7027
sS'PartOfSpeech'
p7028
S'IN'
p7029
sS'CharacterOffsetBegin'
p7030
S'1957'
p7031
stp7032
a(S'parliament'
p7033
(dp7034
S'NamedEntityTag'
p7035
g69
sS'CharacterOffsetEnd'
p7036
S'1970'
p7037
sS'Lemma'
p7038
S'parliament'
p7039
sS'PartOfSpeech'
p7040
S'NN'
p7041
sS'CharacterOffsetBegin'
p7042
S'1960'
p7043
stp7044
a(g744
(dp7045
S'NamedEntityTag'
p7046
g69
sS'CharacterOffsetEnd'
p7047
S'1971'
p7048
sS'Lemma'
p7049
g744
sS'PartOfSpeech'
p7050
g744
sS'CharacterOffsetBegin'
p7051
S'1970'
p7052
stp7053
asa(dp7054
g7
S'(ROOT (S (NP (NNP Sok) (NNP An)) (, ,) (S (VP (VBG representing) (NP (NNP Hun) (NNP Sens) (NN party)))) (, ,) (VP (VBD said) (NP-TMP (NNP Friday)) (SBAR (IN that) (S (NP (NP (CD one)) (VP (VBG working) (NP (NN group)))) (VP (VBD had) (VP (VBN completed) (NP (PRP$ its) (NN work)) (PP (IN on) (NP (DT a) (JJ joint) (JJ political) (NN platform))) (S (VP (TO to) (VP (VB be) (VP (VBN implemented) (PP (IN by) (NP (DT the) (JJ new) (NN government)))))))))))) (. .)))'
p7055
sg9
S'Sok An, representing Hun Sens party, said Friday that one working group had completed its work on a joint political platform to be implemented by the new government.'
p7056
sg11
(lp7057
(S'root'
p7058
S'ROOT'
p7059
S'said'
p7060
tp7061
a(S'nn'
p7062
S'An'
p7063
S'Sok'
p7064
tp7065
a(S'nsubj'
p7066
S'said'
p7067
S'An'
p7068
tp7069
a(S'partmod'
p7070
S'said'
p7071
S'representing'
p7072
tp7073
a(S'nn'
p7074
S'party'
p7075
S'Hun'
p7076
tp7077
a(S'nn'
p7078
S'party'
p7079
S'Sens'
p7080
tp7081
a(S'dobj'
p7082
S'representing'
p7083
S'party'
p7084
tp7085
a(S'tmod'
p7086
S'said'
p7087
S'Friday'
p7088
tp7089
a(S'mark'
p7090
S'completed'
p7091
S'that'
p7092
tp7093
a(S'nsubj'
p7094
S'completed'
p7095
S'one'
p7096
tp7097
a(S'partmod'
p7098
S'one'
p7099
S'working'
p7100
tp7101
a(S'dobj'
p7102
S'working'
p7103
S'group'
p7104
tp7105
a(S'aux'
p7106
S'completed'
p7107
S'had'
p7108
tp7109
a(S'ccomp'
p7110
S'said'
p7111
S'completed'
p7112
tp7113
a(S'poss'
p7114
S'work'
p7115
S'its'
p7116
tp7117
a(S'dobj'
p7118
S'completed'
p7119
S'work'
p7120
tp7121
a(S'det'
p7122
S'platform'
p7123
g1116
tp7124
a(S'amod'
p7125
S'platform'
p7126
S'joint'
p7127
tp7128
a(S'amod'
p7129
S'platform'
p7130
S'political'
p7131
tp7132
a(S'prep_on'
p7133
S'completed'
p7134
S'platform'
p7135
tp7136
a(S'aux'
p7137
S'implemented'
p7138
S'to'
p7139
tp7140
a(S'auxpass'
p7141
S'implemented'
p7142
S'be'
p7143
tp7144
a(S'xcomp'
p7145
S'completed'
p7146
S'implemented'
p7147
tp7148
a(S'det'
p7149
S'government'
p7150
S'the'
p7151
tp7152
a(S'amod'
p7153
S'government'
p7154
S'new'
p7155
tp7156
a(S'agent'
p7157
S'implemented'
p7158
S'government'
p7159
tp7160
asg41
(lp7161
(g7058
S'ROOT-0'
p7162
S'said-9'
p7163
tp7164
a(g7062
S'An-2'
p7165
S'Sok-1'
p7166
tp7167
a(g7066
S'said-9'
p7168
S'An-2'
p7169
tp7170
a(g7070
S'said-9'
p7171
S'representing-4'
p7172
tp7173
a(g7074
S'party-7'
p7174
S'Hun-5'
p7175
tp7176
a(g7078
S'party-7'
p7177
S'Sens-6'
p7178
tp7179
a(g7082
S'representing-4'
p7180
S'party-7'
p7181
tp7182
a(g7086
S'said-9'
p7183
S'Friday-10'
p7184
tp7185
a(g7090
S'completed-16'
p7186
S'that-11'
p7187
tp7188
a(g7094
S'completed-16'
p7189
S'one-12'
p7190
tp7191
a(g7098
S'one-12'
p7192
S'working-13'
p7193
tp7194
a(g7102
S'working-13'
p7195
S'group-14'
p7196
tp7197
a(g7106
S'completed-16'
p7198
S'had-15'
p7199
tp7200
a(g7110
S'said-9'
p7201
S'completed-16'
p7202
tp7203
a(g7114
S'work-18'
p7204
S'its-17'
p7205
tp7206
a(g7118
S'completed-16'
p7207
S'work-18'
p7208
tp7209
a(g7122
S'platform-23'
p7210
S'a-20'
p7211
tp7212
a(g7125
S'platform-23'
p7213
S'joint-21'
p7214
tp7215
a(g7129
S'platform-23'
p7216
S'political-22'
p7217
tp7218
a(g7133
S'completed-16'
p7219
S'platform-23'
p7220
tp7221
a(g7137
S'implemented-26'
p7222
S'to-24'
p7223
tp7224
a(g7141
S'implemented-26'
p7225
S'be-25'
p7226
tp7227
a(g7145
S'completed-16'
p7228
S'implemented-26'
p7229
tp7230
a(g7149
S'government-30'
p7231
S'the-28'
p7232
tp7233
a(g7153
S'government-30'
p7234
S'new-29'
p7235
tp7236
a(g7157
S'implemented-26'
p7237
S'government-30'
p7238
tp7239
asg64
(lp7240
(S'Sok'
p7241
(dp7242
S'NamedEntityTag'
p7243
g69
sS'CharacterOffsetEnd'
p7244
S'1975'
p7245
sS'Lemma'
p7246
S'Sok'
p7247
sS'PartOfSpeech'
p7248
S'NNP'
p7249
sS'CharacterOffsetBegin'
p7250
S'1972'
p7251
stp7252
a(S'An'
p7253
(dp7254
S'NamedEntityTag'
p7255
g69
sS'CharacterOffsetEnd'
p7256
S'1978'
p7257
sS'Lemma'
p7258
S'An'
p7259
sS'PartOfSpeech'
p7260
S'NNP'
p7261
sS'CharacterOffsetBegin'
p7262
S'1976'
p7263
stp7264
a(g1606
(dp7265
S'NamedEntityTag'
p7266
g69
sS'CharacterOffsetEnd'
p7267
S'1979'
p7268
sS'Lemma'
p7269
g1606
sS'PartOfSpeech'
p7270
g1606
sS'CharacterOffsetBegin'
p7271
S'1978'
p7272
stp7273
a(S'representing'
p7274
(dp7275
S'NamedEntityTag'
p7276
g69
sS'CharacterOffsetEnd'
p7277
S'1992'
p7278
sS'Lemma'
p7279
S'represent'
p7280
sS'PartOfSpeech'
p7281
S'VBG'
p7282
sS'CharacterOffsetBegin'
p7283
S'1980'
p7284
stp7285
a(S'Hun'
p7286
(dp7287
S'NamedEntityTag'
p7288
S'PERSON'
p7289
sS'CharacterOffsetEnd'
p7290
S'1996'
p7291
sS'Lemma'
p7292
S'Hun'
p7293
sS'PartOfSpeech'
p7294
S'NNP'
p7295
sS'CharacterOffsetBegin'
p7296
S'1993'
p7297
stp7298
a(S'Sens'
p7299
(dp7300
S'NamedEntityTag'
p7301
S'PERSON'
p7302
sS'CharacterOffsetEnd'
p7303
S'2001'
p7304
sS'Lemma'
p7305
S'Sens'
p7306
sS'PartOfSpeech'
p7307
S'NNP'
p7308
sS'CharacterOffsetBegin'
p7309
S'1997'
p7310
stp7311
a(S'party'
p7312
(dp7313
S'NamedEntityTag'
p7314
g69
sS'CharacterOffsetEnd'
p7315
S'2007'
p7316
sS'Lemma'
p7317
S'party'
p7318
sS'PartOfSpeech'
p7319
S'NN'
p7320
sS'CharacterOffsetBegin'
p7321
S'2002'
p7322
stp7323
a(g1606
(dp7324
S'NamedEntityTag'
p7325
g69
sS'CharacterOffsetEnd'
p7326
S'2008'
p7327
sS'Lemma'
p7328
g1606
sS'PartOfSpeech'
p7329
g1606
sS'CharacterOffsetBegin'
p7330
S'2007'
p7331
stp7332
a(S'said'
p7333
(dp7334
S'NamedEntityTag'
p7335
g69
sS'CharacterOffsetEnd'
p7336
S'2013'
p7337
sS'Lemma'
p7338
S'say'
p7339
sS'PartOfSpeech'
p7340
S'VBD'
p7341
sS'CharacterOffsetBegin'
p7342
S'2009'
p7343
stp7344
a(S'Friday'
p7345
(dp7346
S'NormalizedNamedEntityTag'
p7347
S'XXXX-WXX-5'
p7348
sS'Timex'
p7349
S'<TIMEX3 tid="t1" type="DATE" value="XXXX-WXX-5">Friday</TIMEX3>'
p7350
sS'Lemma'
p7351
S'Friday'
p7352
sS'CharacterOffsetEnd'
p7353
S'2020'
p7354
sS'PartOfSpeech'
p7355
S'NNP'
p7356
sS'CharacterOffsetBegin'
p7357
S'2014'
p7358
sS'NamedEntityTag'
p7359
S'DATE'
p7360
stp7361
a(S'that'
p7362
(dp7363
S'NamedEntityTag'
p7364
g69
sS'CharacterOffsetEnd'
p7365
S'2025'
p7366
sS'Lemma'
p7367
S'that'
p7368
sS'PartOfSpeech'
p7369
S'IN'
p7370
sS'CharacterOffsetBegin'
p7371
S'2021'
p7372
stp7373
a(S'one'
p7374
(dp7375
S'NormalizedNamedEntityTag'
p7376
S'1.0'
p7377
sS'Lemma'
p7378
S'one'
p7379
sS'CharacterOffsetEnd'
p7380
S'2029'
p7381
sS'PartOfSpeech'
p7382
S'CD'
p7383
sS'CharacterOffsetBegin'
p7384
S'2026'
p7385
sS'NamedEntityTag'
p7386
S'NUMBER'
p7387
stp7388
a(S'working'
p7389
(dp7390
S'NamedEntityTag'
p7391
g69
sS'CharacterOffsetEnd'
p7392
S'2037'
p7393
sS'Lemma'
p7394
S'work'
p7395
sS'PartOfSpeech'
p7396
S'VBG'
p7397
sS'CharacterOffsetBegin'
p7398
S'2030'
p7399
stp7400
a(S'group'
p7401
(dp7402
S'NamedEntityTag'
p7403
g69
sS'CharacterOffsetEnd'
p7404
S'2043'
p7405
sS'Lemma'
p7406
S'group'
p7407
sS'PartOfSpeech'
p7408
S'NN'
p7409
sS'CharacterOffsetBegin'
p7410
S'2038'
p7411
stp7412
a(S'had'
p7413
(dp7414
S'NamedEntityTag'
p7415
g69
sS'CharacterOffsetEnd'
p7416
S'2047'
p7417
sS'Lemma'
p7418
S'have'
p7419
sS'PartOfSpeech'
p7420
S'VBD'
p7421
sS'CharacterOffsetBegin'
p7422
S'2044'
p7423
stp7424
a(S'completed'
p7425
(dp7426
S'NamedEntityTag'
p7427
g69
sS'CharacterOffsetEnd'
p7428
S'2057'
p7429
sS'Lemma'
p7430
S'complete'
p7431
sS'PartOfSpeech'
p7432
S'VBN'
p7433
sS'CharacterOffsetBegin'
p7434
S'2048'
p7435
stp7436
a(S'its'
p7437
(dp7438
S'NamedEntityTag'
p7439
g69
sS'CharacterOffsetEnd'
p7440
S'2061'
p7441
sS'Lemma'
p7442
S'its'
p7443
sS'PartOfSpeech'
p7444
S'PRP$'
p7445
sS'CharacterOffsetBegin'
p7446
S'2058'
p7447
stp7448
a(S'work'
p7449
(dp7450
S'NamedEntityTag'
p7451
g69
sS'CharacterOffsetEnd'
p7452
S'2066'
p7453
sS'Lemma'
p7454
S'work'
p7455
sS'PartOfSpeech'
p7456
S'NN'
p7457
sS'CharacterOffsetBegin'
p7458
S'2062'
p7459
stp7460
a(S'on'
p7461
(dp7462
S'NamedEntityTag'
p7463
g69
sS'CharacterOffsetEnd'
p7464
S'2069'
p7465
sS'Lemma'
p7466
S'on'
p7467
sS'PartOfSpeech'
p7468
S'IN'
p7469
sS'CharacterOffsetBegin'
p7470
S'2067'
p7471
stp7472
a(g1116
(dp7473
S'NamedEntityTag'
p7474
g69
sS'CharacterOffsetEnd'
p7475
S'2071'
p7476
sS'Lemma'
p7477
g1116
sS'PartOfSpeech'
p7478
S'DT'
p7479
sS'CharacterOffsetBegin'
p7480
S'2070'
p7481
stp7482
a(S'joint'
p7483
(dp7484
S'NamedEntityTag'
p7485
g69
sS'CharacterOffsetEnd'
p7486
S'2077'
p7487
sS'Lemma'
p7488
S'joint'
p7489
sS'PartOfSpeech'
p7490
S'JJ'
p7491
sS'CharacterOffsetBegin'
p7492
S'2072'
p7493
stp7494
a(S'political'
p7495
(dp7496
S'NamedEntityTag'
p7497
g69
sS'CharacterOffsetEnd'
p7498
S'2087'
p7499
sS'Lemma'
p7500
S'political'
p7501
sS'PartOfSpeech'
p7502
S'JJ'
p7503
sS'CharacterOffsetBegin'
p7504
S'2078'
p7505
stp7506
a(S'platform'
p7507
(dp7508
S'NamedEntityTag'
p7509
g69
sS'CharacterOffsetEnd'
p7510
S'2096'
p7511
sS'Lemma'
p7512
S'platform'
p7513
sS'PartOfSpeech'
p7514
S'NN'
p7515
sS'CharacterOffsetBegin'
p7516
S'2088'
p7517
stp7518
a(S'to'
p7519
(dp7520
S'NamedEntityTag'
p7521
g69
sS'CharacterOffsetEnd'
p7522
S'2099'
p7523
sS'Lemma'
p7524
S'to'
p7525
sS'PartOfSpeech'
p7526
S'TO'
p7527
sS'CharacterOffsetBegin'
p7528
S'2097'
p7529
stp7530
a(S'be'
p7531
(dp7532
S'NamedEntityTag'
p7533
g69
sS'CharacterOffsetEnd'
p7534
S'2102'
p7535
sS'Lemma'
p7536
S'be'
p7537
sS'PartOfSpeech'
p7538
S'VB'
p7539
sS'CharacterOffsetBegin'
p7540
S'2100'
p7541
stp7542
a(S'implemented'
p7543
(dp7544
S'NamedEntityTag'
p7545
g69
sS'CharacterOffsetEnd'
p7546
S'2114'
p7547
sS'Lemma'
p7548
S'implement'
p7549
sS'PartOfSpeech'
p7550
S'VBN'
p7551
sS'CharacterOffsetBegin'
p7552
S'2103'
p7553
stp7554
a(S'by'
p7555
(dp7556
S'NamedEntityTag'
p7557
g69
sS'CharacterOffsetEnd'
p7558
S'2117'
p7559
sS'Lemma'
p7560
S'by'
p7561
sS'PartOfSpeech'
p7562
S'IN'
p7563
sS'CharacterOffsetBegin'
p7564
S'2115'
p7565
stp7566
a(S'the'
p7567
(dp7568
S'NamedEntityTag'
p7569
g69
sS'CharacterOffsetEnd'
p7570
S'2121'
p7571
sS'Lemma'
p7572
S'the'
p7573
sS'PartOfSpeech'
p7574
S'DT'
p7575
sS'CharacterOffsetBegin'
p7576
S'2118'
p7577
stp7578
a(S'new'
p7579
(dp7580
S'NamedEntityTag'
p7581
g69
sS'CharacterOffsetEnd'
p7582
S'2125'
p7583
sS'Lemma'
p7584
S'new'
p7585
sS'PartOfSpeech'
p7586
S'JJ'
p7587
sS'CharacterOffsetBegin'
p7588
S'2122'
p7589
stp7590
a(S'government'
p7591
(dp7592
S'NamedEntityTag'
p7593
g69
sS'CharacterOffsetEnd'
p7594
S'2136'
p7595
sS'Lemma'
p7596
S'government'
p7597
sS'PartOfSpeech'
p7598
S'NN'
p7599
sS'CharacterOffsetBegin'
p7600
S'2126'
p7601
stp7602
a(g744
(dp7603
S'NamedEntityTag'
p7604
g69
sS'CharacterOffsetEnd'
p7605
S'2137'
p7606
sS'Lemma'
p7607
g744
sS'PartOfSpeech'
p7608
g744
sS'CharacterOffsetBegin'
p7609
S'2136'
p7610
stp7611
asa(dp7612
g7
S'(ROOT (S (S (NP (DT The) (NN platform)) (VP (VBZ is) (VP (VBN said) (S (VP (TO to) (VP (VB emphasize) (NP (ADJP (JJ administrative) (, ,) (JJ economic) (CC and) (JJ judicial)) (NNS reforms)))))))) (, ,) (CC but) (S (NP (NP (NNP Sok) (DT An)) (SBAR (S (VP (MD would) (RB not) (VP (VB reveal) (NP (NNS details)) (, ,) (S (VP (VBG saying) (NP (NNP Hun) (NNP Sen))))))))) (VP (MD would) (VP (VB announce) (NP (PRP it)) (SBAR (WHADVP (WRB when)) (S (NP (PRP he)) (VP (VBZ presents) (NP (PRP$ his) (NNP Cabinet) (NNS choices)) (PP (TO to) (NP (DT the) (NNP National) (NNP Assembly))))))))) (. .)))'
p7613
sg9
S'The platform is said to emphasize administrative, economic and judicial reforms, but Sok An would not reveal details, saying Hun Sen would announce it when he presents his Cabinet choices to the National Assembly.'
p7614
sg11
(lp7615
(S'root'
p7616
S'ROOT'
p7617
S'said'
p7618
tp7619
a(S'det'
p7620
S'platform'
p7621
S'The'
p7622
tp7623
a(S'nsubjpass'
p7624
S'said'
p7625
S'platform'
p7626
tp7627
a(S'auxpass'
p7628
S'said'
p7629
S'is'
p7630
tp7631
a(S'aux'
p7632
S'emphasize'
p7633
S'to'
p7634
tp7635
a(S'xcomp'
p7636
S'said'
p7637
S'emphasize'
p7638
tp7639
a(S'amod'
p7640
S'reforms'
p7641
S'administrative'
p7642
tp7643
a(S'conj_and'
p7644
S'administrative'
p7645
S'economic'
p7646
tp7647
a(S'conj_and'
p7648
S'administrative'
p7649
S'judicial'
p7650
tp7651
a(S'dobj'
p7652
S'emphasize'
p7653
S'reforms'
p7654
tp7655
a(S'nsubj'
p7656
S'announce'
p7657
S'Sok'
p7658
tp7659
a(S'dep'
p7660
S'Sok'
p7661
S'An'
p7662
tp7663
a(S'aux'
p7664
S'reveal'
p7665
S'would'
p7666
tp7667
a(S'neg'
p7668
S'reveal'
p7669
S'not'
p7670
tp7671
a(S'rcmod'
p7672
S'Sok'
p7673
S'reveal'
p7674
tp7675
a(S'dobj'
p7676
S'reveal'
p7677
S'details'
p7678
tp7679
a(S'partmod'
p7680
S'reveal'
p7681
S'saying'
p7682
tp7683
a(S'nn'
p7684
S'Sen'
p7685
S'Hun'
p7686
tp7687
a(S'dobj'
p7688
S'saying'
p7689
S'Sen'
p7690
tp7691
a(S'aux'
p7692
S'announce'
p7693
S'would'
p7694
tp7695
a(S'conj_but'
p7696
S'said'
p7697
S'announce'
p7698
tp7699
a(S'dobj'
p7700
S'announce'
p7701
S'it'
p7702
tp7703
a(S'advmod'
p7704
S'presents'
p7705
S'when'
p7706
tp7707
a(S'nsubj'
p7708
S'presents'
p7709
S'he'
p7710
tp7711
a(S'advcl'
p7712
S'announce'
p7713
S'presents'
p7714
tp7715
a(S'poss'
p7716
S'choices'
p7717
S'his'
p7718
tp7719
a(S'nn'
p7720
S'choices'
p7721
S'Cabinet'
p7722
tp7723
a(S'dobj'
p7724
S'presents'
p7725
S'choices'
p7726
tp7727
a(S'det'
p7728
S'Assembly'
p7729
S'the'
p7730
tp7731
a(S'nn'
p7732
S'Assembly'
p7733
S'National'
p7734
tp7735
a(S'prep_to'
p7736
S'presents'
p7737
S'Assembly'
p7738
tp7739
asg41
(lp7740
(g7616
S'ROOT-0'
p7741
S'said-4'
p7742
tp7743
a(g7620
S'platform-2'
p7744
S'The-1'
p7745
tp7746
a(g7624
S'said-4'
p7747
S'platform-2'
p7748
tp7749
a(g7628
S'said-4'
p7750
S'is-3'
p7751
tp7752
a(g7632
S'emphasize-6'
p7753
S'to-5'
p7754
tp7755
a(g7636
S'said-4'
p7756
S'emphasize-6'
p7757
tp7758
a(g7640
S'reforms-12'
p7759
S'administrative-7'
p7760
tp7761
a(g7644
S'administrative-7'
p7762
S'economic-9'
p7763
tp7764
a(g7648
S'administrative-7'
p7765
S'judicial-11'
p7766
tp7767
a(g7652
S'emphasize-6'
p7768
S'reforms-12'
p7769
tp7770
a(g7656
S'announce-26'
p7771
S'Sok-15'
p7772
tp7773
a(g7660
S'Sok-15'
p7774
S'An-16'
p7775
tp7776
a(g7664
S'reveal-19'
p7777
S'would-17'
p7778
tp7779
a(g7668
S'reveal-19'
p7780
S'not-18'
p7781
tp7782
a(g7672
S'Sok-15'
p7783
S'reveal-19'
p7784
tp7785
a(g7676
S'reveal-19'
p7786
S'details-20'
p7787
tp7788
a(g7680
S'reveal-19'
p7789
S'saying-22'
p7790
tp7791
a(g7684
S'Sen-24'
p7792
S'Hun-23'
p7793
tp7794
a(g7688
S'saying-22'
p7795
S'Sen-24'
p7796
tp7797
a(g7692
S'announce-26'
p7798
S'would-25'
p7799
tp7800
a(g7696
S'said-4'
p7801
S'announce-26'
p7802
tp7803
a(g7700
S'announce-26'
p7804
S'it-27'
p7805
tp7806
a(g7704
S'presents-30'
p7807
S'when-28'
p7808
tp7809
a(g7708
S'presents-30'
p7810
S'he-29'
p7811
tp7812
a(g7712
S'announce-26'
p7813
S'presents-30'
p7814
tp7815
a(g7716
S'choices-33'
p7816
S'his-31'
p7817
tp7818
a(g7720
S'choices-33'
p7819
S'Cabinet-32'
p7820
tp7821
a(g7724
S'presents-30'
p7822
S'choices-33'
p7823
tp7824
a(g7728
S'Assembly-37'
p7825
S'the-35'
p7826
tp7827
a(g7732
S'Assembly-37'
p7828
S'National-36'
p7829
tp7830
a(g7736
S'presents-30'
p7831
S'Assembly-37'
p7832
tp7833
asg64
(lp7834
(S'The'
p7835
(dp7836
S'NamedEntityTag'
p7837
g69
sS'CharacterOffsetEnd'
p7838
S'2141'
p7839
sS'Lemma'
p7840
S'the'
p7841
sS'PartOfSpeech'
p7842
S'DT'
p7843
sS'CharacterOffsetBegin'
p7844
S'2138'
p7845
stp7846
a(S'platform'
p7847
(dp7848
S'NamedEntityTag'
p7849
g69
sS'CharacterOffsetEnd'
p7850
S'2150'
p7851
sS'Lemma'
p7852
S'platform'
p7853
sS'PartOfSpeech'
p7854
S'NN'
p7855
sS'CharacterOffsetBegin'
p7856
S'2142'
p7857
stp7858
a(S'is'
p7859
(dp7860
S'NamedEntityTag'
p7861
g69
sS'CharacterOffsetEnd'
p7862
S'2153'
p7863
sS'Lemma'
p7864
S'be'
p7865
sS'PartOfSpeech'
p7866
S'VBZ'
p7867
sS'CharacterOffsetBegin'
p7868
S'2151'
p7869
stp7870
a(S'said'
p7871
(dp7872
S'NamedEntityTag'
p7873
g69
sS'CharacterOffsetEnd'
p7874
S'2158'
p7875
sS'Lemma'
p7876
S'say'
p7877
sS'PartOfSpeech'
p7878
S'VBN'
p7879
sS'CharacterOffsetBegin'
p7880
S'2154'
p7881
stp7882
a(S'to'
p7883
(dp7884
S'NamedEntityTag'
p7885
g69
sS'CharacterOffsetEnd'
p7886
S'2161'
p7887
sS'Lemma'
p7888
S'to'
p7889
sS'PartOfSpeech'
p7890
S'TO'
p7891
sS'CharacterOffsetBegin'
p7892
S'2159'
p7893
stp7894
a(S'emphasize'
p7895
(dp7896
S'NamedEntityTag'
p7897
g69
sS'CharacterOffsetEnd'
p7898
S'2171'
p7899
sS'Lemma'
p7900
S'emphasize'
p7901
sS'PartOfSpeech'
p7902
S'VB'
p7903
sS'CharacterOffsetBegin'
p7904
S'2162'
p7905
stp7906
a(S'administrative'
p7907
(dp7908
S'NamedEntityTag'
p7909
g69
sS'CharacterOffsetEnd'
p7910
S'2186'
p7911
sS'Lemma'
p7912
S'administrative'
p7913
sS'PartOfSpeech'
p7914
S'JJ'
p7915
sS'CharacterOffsetBegin'
p7916
S'2172'
p7917
stp7918
a(g1606
(dp7919
S'NamedEntityTag'
p7920
g69
sS'CharacterOffsetEnd'
p7921
S'2187'
p7922
sS'Lemma'
p7923
g1606
sS'PartOfSpeech'
p7924
g1606
sS'CharacterOffsetBegin'
p7925
S'2186'
p7926
stp7927
a(S'economic'
p7928
(dp7929
S'NamedEntityTag'
p7930
g69
sS'CharacterOffsetEnd'
p7931
S'2196'
p7932
sS'Lemma'
p7933
S'economic'
p7934
sS'PartOfSpeech'
p7935
S'JJ'
p7936
sS'CharacterOffsetBegin'
p7937
S'2188'
p7938
stp7939
a(S'and'
p7940
(dp7941
S'NamedEntityTag'
p7942
g69
sS'CharacterOffsetEnd'
p7943
S'2200'
p7944
sS'Lemma'
p7945
S'and'
p7946
sS'PartOfSpeech'
p7947
S'CC'
p7948
sS'CharacterOffsetBegin'
p7949
S'2197'
p7950
stp7951
a(S'judicial'
p7952
(dp7953
S'NamedEntityTag'
p7954
g69
sS'CharacterOffsetEnd'
p7955
S'2209'
p7956
sS'Lemma'
p7957
S'judicial'
p7958
sS'PartOfSpeech'
p7959
S'JJ'
p7960
sS'CharacterOffsetBegin'
p7961
S'2201'
p7962
stp7963
a(S'reforms'
p7964
(dp7965
S'NamedEntityTag'
p7966
g69
sS'CharacterOffsetEnd'
p7967
S'2217'
p7968
sS'Lemma'
p7969
S'reform'
p7970
sS'PartOfSpeech'
p7971
S'NNS'
p7972
sS'CharacterOffsetBegin'
p7973
S'2210'
p7974
stp7975
a(g1606
(dp7976
S'NamedEntityTag'
p7977
g69
sS'CharacterOffsetEnd'
p7978
S'2218'
p7979
sS'Lemma'
p7980
g1606
sS'PartOfSpeech'
p7981
g1606
sS'CharacterOffsetBegin'
p7982
S'2217'
p7983
stp7984
a(S'but'
p7985
(dp7986
S'NamedEntityTag'
p7987
g69
sS'CharacterOffsetEnd'
p7988
S'2222'
p7989
sS'Lemma'
p7990
S'but'
p7991
sS'PartOfSpeech'
p7992
S'CC'
p7993
sS'CharacterOffsetBegin'
p7994
S'2219'
p7995
stp7996
a(S'Sok'
p7997
(dp7998
S'NamedEntityTag'
p7999
g69
sS'CharacterOffsetEnd'
p8000
S'2226'
p8001
sS'Lemma'
p8002
S'Sok'
p8003
sS'PartOfSpeech'
p8004
S'NNP'
p8005
sS'CharacterOffsetBegin'
p8006
S'2223'
p8007
stp8008
a(S'An'
p8009
(dp8010
S'NamedEntityTag'
p8011
g69
sS'CharacterOffsetEnd'
p8012
S'2229'
p8013
sS'Lemma'
p8014
g1116
sS'PartOfSpeech'
p8015
S'DT'
p8016
sS'CharacterOffsetBegin'
p8017
S'2227'
p8018
stp8019
a(S'would'
p8020
(dp8021
S'NamedEntityTag'
p8022
g69
sS'CharacterOffsetEnd'
p8023
S'2235'
p8024
sS'Lemma'
p8025
S'would'
p8026
sS'PartOfSpeech'
p8027
S'MD'
p8028
sS'CharacterOffsetBegin'
p8029
S'2230'
p8030
stp8031
a(S'not'
p8032
(dp8033
S'NamedEntityTag'
p8034
g69
sS'CharacterOffsetEnd'
p8035
S'2239'
p8036
sS'Lemma'
p8037
S'not'
p8038
sS'PartOfSpeech'
p8039
S'RB'
p8040
sS'CharacterOffsetBegin'
p8041
S'2236'
p8042
stp8043
a(S'reveal'
p8044
(dp8045
S'NamedEntityTag'
p8046
g69
sS'CharacterOffsetEnd'
p8047
S'2246'
p8048
sS'Lemma'
p8049
S'reveal'
p8050
sS'PartOfSpeech'
p8051
S'VB'
p8052
sS'CharacterOffsetBegin'
p8053
S'2240'
p8054
stp8055
a(S'details'
p8056
(dp8057
S'NamedEntityTag'
p8058
g69
sS'CharacterOffsetEnd'
p8059
S'2254'
p8060
sS'Lemma'
p8061
S'detail'
p8062
sS'PartOfSpeech'
p8063
S'NNS'
p8064
sS'CharacterOffsetBegin'
p8065
S'2247'
p8066
stp8067
a(g1606
(dp8068
S'NamedEntityTag'
p8069
g69
sS'CharacterOffsetEnd'
p8070
S'2255'
p8071
sS'Lemma'
p8072
g1606
sS'PartOfSpeech'
p8073
g1606
sS'CharacterOffsetBegin'
p8074
S'2254'
p8075
stp8076
a(S'saying'
p8077
(dp8078
S'NamedEntityTag'
p8079
g69
sS'CharacterOffsetEnd'
p8080
S'2262'
p8081
sS'Lemma'
p8082
S'say'
p8083
sS'PartOfSpeech'
p8084
S'VBG'
p8085
sS'CharacterOffsetBegin'
p8086
S'2256'
p8087
stp8088
a(S'Hun'
p8089
(dp8090
S'NamedEntityTag'
p8091
S'PERSON'
p8092
sS'CharacterOffsetEnd'
p8093
S'2266'
p8094
sS'Lemma'
p8095
S'Hun'
p8096
sS'PartOfSpeech'
p8097
S'NNP'
p8098
sS'CharacterOffsetBegin'
p8099
S'2263'
p8100
stp8101
a(S'Sen'
p8102
(dp8103
S'NamedEntityTag'
p8104
S'PERSON'
p8105
sS'CharacterOffsetEnd'
p8106
S'2270'
p8107
sS'Lemma'
p8108
S'Sen'
p8109
sS'PartOfSpeech'
p8110
S'NNP'
p8111
sS'CharacterOffsetBegin'
p8112
S'2267'
p8113
stp8114
a(S'would'
p8115
(dp8116
S'NamedEntityTag'
p8117
g69
sS'CharacterOffsetEnd'
p8118
S'2276'
p8119
sS'Lemma'
p8120
S'would'
p8121
sS'PartOfSpeech'
p8122
S'MD'
p8123
sS'CharacterOffsetBegin'
p8124
S'2271'
p8125
stp8126
a(S'announce'
p8127
(dp8128
S'NamedEntityTag'
p8129
g69
sS'CharacterOffsetEnd'
p8130
S'2285'
p8131
sS'Lemma'
p8132
S'announce'
p8133
sS'PartOfSpeech'
p8134
S'VB'
p8135
sS'CharacterOffsetBegin'
p8136
S'2277'
p8137
stp8138
a(S'it'
p8139
(dp8140
S'NamedEntityTag'
p8141
g69
sS'CharacterOffsetEnd'
p8142
S'2288'
p8143
sS'Lemma'
p8144
S'it'
p8145
sS'PartOfSpeech'
p8146
S'PRP'
p8147
sS'CharacterOffsetBegin'
p8148
S'2286'
p8149
stp8150
a(S'when'
p8151
(dp8152
S'NamedEntityTag'
p8153
g69
sS'CharacterOffsetEnd'
p8154
S'2293'
p8155
sS'Lemma'
p8156
S'when'
p8157
sS'PartOfSpeech'
p8158
S'WRB'
p8159
sS'CharacterOffsetBegin'
p8160
S'2289'
p8161
stp8162
a(S'he'
p8163
(dp8164
S'NamedEntityTag'
p8165
g69
sS'CharacterOffsetEnd'
p8166
S'2296'
p8167
sS'Lemma'
p8168
S'he'
p8169
sS'PartOfSpeech'
p8170
S'PRP'
p8171
sS'CharacterOffsetBegin'
p8172
S'2294'
p8173
stp8174
a(S'presents'
p8175
(dp8176
S'NamedEntityTag'
p8177
g69
sS'CharacterOffsetEnd'
p8178
S'2305'
p8179
sS'Lemma'
p8180
S'present'
p8181
sS'PartOfSpeech'
p8182
S'VBZ'
p8183
sS'CharacterOffsetBegin'
p8184
S'2297'
p8185
stp8186
a(S'his'
p8187
(dp8188
S'NamedEntityTag'
p8189
g69
sS'CharacterOffsetEnd'
p8190
S'2309'
p8191
sS'Lemma'
p8192
S'he'
p8193
sS'PartOfSpeech'
p8194
S'PRP$'
p8195
sS'CharacterOffsetBegin'
p8196
S'2306'
p8197
stp8198
a(S'Cabinet'
p8199
(dp8200
S'NamedEntityTag'
p8201
g69
sS'CharacterOffsetEnd'
p8202
S'2317'
p8203
sS'Lemma'
p8204
S'Cabinet'
p8205
sS'PartOfSpeech'
p8206
S'NNP'
p8207
sS'CharacterOffsetBegin'
p8208
S'2310'
p8209
stp8210
a(S'choices'
p8211
(dp8212
S'NamedEntityTag'
p8213
g69
sS'CharacterOffsetEnd'
p8214
S'2325'
p8215
sS'Lemma'
p8216
S'choice'
p8217
sS'PartOfSpeech'
p8218
S'NNS'
p8219
sS'CharacterOffsetBegin'
p8220
S'2318'
p8221
stp8222
a(S'to'
p8223
(dp8224
S'NamedEntityTag'
p8225
g69
sS'CharacterOffsetEnd'
p8226
S'2328'
p8227
sS'Lemma'
p8228
S'to'
p8229
sS'PartOfSpeech'
p8230
S'TO'
p8231
sS'CharacterOffsetBegin'
p8232
S'2326'
p8233
stp8234
a(S'the'
p8235
(dp8236
S'NamedEntityTag'
p8237
g69
sS'CharacterOffsetEnd'
p8238
S'2332'
p8239
sS'Lemma'
p8240
S'the'
p8241
sS'PartOfSpeech'
p8242
S'DT'
p8243
sS'CharacterOffsetBegin'
p8244
S'2329'
p8245
stp8246
a(S'National'
p8247
(dp8248
S'NamedEntityTag'
p8249
S'ORGANIZATION'
p8250
sS'CharacterOffsetEnd'
p8251
S'2341'
p8252
sS'Lemma'
p8253
S'National'
p8254
sS'PartOfSpeech'
p8255
S'NNP'
p8256
sS'CharacterOffsetBegin'
p8257
S'2333'
p8258
stp8259
a(S'Assembly'
p8260
(dp8261
S'NamedEntityTag'
p8262
S'ORGANIZATION'
p8263
sS'CharacterOffsetEnd'
p8264
S'2350'
p8265
sS'Lemma'
p8266
S'Assembly'
p8267
sS'PartOfSpeech'
p8268
S'NNP'
p8269
sS'CharacterOffsetBegin'
p8270
S'2342'
p8271
stp8272
a(g744
(dp8273
S'NamedEntityTag'
p8274
g69
sS'CharacterOffsetEnd'
p8275
S'2351'
p8276
sS'Lemma'
p8277
g744
sS'PartOfSpeech'
p8278
g744
sS'CharacterOffsetBegin'
p8279
S'2350'
p8280
stp8281
asass.