(dp0
S'models'
p1
(lp2
(dp3
S'sentences'
p4
(lp5
(dp6
S'parsetree'
p7
S"(ROOT (S (NP (JJ Cambodian) (NN government)) (VP (VBZ rejects) (NP (NP (NP (NN opposition) (POS 's)) (NN call)) (PP (IN for) (NP (NNS talks)))) (ADVP (RB abroad)))))"
p8
sS'text'
p9
S"Cambodian government rejects opposition's call for talks abroad"
p10
sS'dependencies'
p11
(lp12
(S'root'
p13
S'ROOT'
p14
S'rejects'
p15
tp16
a(S'amod'
p17
S'government'
p18
S'Cambodian'
p19
tp20
a(S'nsubj'
p21
S'rejects'
p22
S'government'
p23
tp24
a(S'poss'
p25
S'call'
p26
S'opposition'
p27
tp28
a(S'dobj'
p29
S'rejects'
p30
S'call'
p31
tp32
a(S'prep_for'
p33
S'call'
p34
S'talks'
p35
tp36
a(S'advmod'
p37
S'rejects'
p38
S'abroad'
p39
tp40
asS'indexeddependencies'
p41
(lp42
(g13
S'ROOT-0'
p43
S'rejects-3'
p44
tp45
a(g17
S'government-2'
p46
S'Cambodian-1'
p47
tp48
a(g21
S'rejects-3'
p49
S'government-2'
p50
tp51
a(g25
S'call-6'
p52
S'opposition-4'
p53
tp54
a(g29
S'rejects-3'
p55
S'call-6'
p56
tp57
a(g33
S'call-6'
p58
S'talks-8'
p59
tp60
a(g37
S'rejects-3'
p61
S'abroad-9'
p62
tp63
asS'words'
p64
(lp65
(S'Cambodian'
p66
(dp67
S'NamedEntityTag'
p68
S'MISC'
p69
sS'CharacterOffsetEnd'
p70
S'10'
p71
sS'Lemma'
p72
S'cambodian'
p73
sS'PartOfSpeech'
p74
S'JJ'
p75
sS'CharacterOffsetBegin'
p76
S'1'
p77
stp78
a(S'government'
p79
(dp80
S'NamedEntityTag'
p81
S'O'
p82
sS'CharacterOffsetEnd'
p83
S'21'
p84
sS'Lemma'
p85
S'government'
p86
sS'PartOfSpeech'
p87
S'NN'
p88
sS'CharacterOffsetBegin'
p89
S'11'
p90
stp91
a(S'rejects'
p92
(dp93
S'NamedEntityTag'
p94
g82
sS'CharacterOffsetEnd'
p95
S'29'
p96
sS'Lemma'
p97
S'reject'
p98
sS'PartOfSpeech'
p99
S'VBZ'
p100
sS'CharacterOffsetBegin'
p101
S'22'
p102
stp103
a(S'opposition'
p104
(dp105
S'NamedEntityTag'
p106
g82
sS'CharacterOffsetEnd'
p107
S'40'
p108
sS'Lemma'
p109
S'opposition'
p110
sS'PartOfSpeech'
p111
S'NN'
p112
sS'CharacterOffsetBegin'
p113
S'30'
p114
stp115
a(S"'s"
p116
(dp117
S'NamedEntityTag'
p118
g82
sS'CharacterOffsetEnd'
p119
S'42'
p120
sS'Lemma'
p121
S"'s"
p122
sS'PartOfSpeech'
p123
S'POS'
p124
sS'CharacterOffsetBegin'
p125
S'40'
p126
stp127
a(S'call'
p128
(dp129
S'NamedEntityTag'
p130
g82
sS'CharacterOffsetEnd'
p131
S'47'
p132
sS'Lemma'
p133
S'call'
p134
sS'PartOfSpeech'
p135
S'NN'
p136
sS'CharacterOffsetBegin'
p137
S'43'
p138
stp139
a(S'for'
p140
(dp141
S'NamedEntityTag'
p142
g82
sS'CharacterOffsetEnd'
p143
S'51'
p144
sS'Lemma'
p145
S'for'
p146
sS'PartOfSpeech'
p147
S'IN'
p148
sS'CharacterOffsetBegin'
p149
S'48'
p150
stp151
a(S'talks'
p152
(dp153
S'NamedEntityTag'
p154
g82
sS'CharacterOffsetEnd'
p155
S'57'
p156
sS'Lemma'
p157
S'talk'
p158
sS'PartOfSpeech'
p159
S'NNS'
p160
sS'CharacterOffsetBegin'
p161
S'52'
p162
stp163
a(S'abroad'
p164
(dp165
S'NamedEntityTag'
p166
g82
sS'CharacterOffsetEnd'
p167
S'64'
p168
sS'Lemma'
p169
S'abroad'
p170
sS'PartOfSpeech'
p171
S'RB'
p172
sS'CharacterOffsetBegin'
p173
S'58'
p174
stp175
asasa(dp176
g4
(lp177
(dp178
g7
S'(ROOT (S (NP (NNP Hun) (NNP Sen)) (VP (VBZ rejects) (SBAR (S (PP (IN out) (PP (IN of) (NP (NN country) (NNS talks)))) (, ,) (NP (NNP Sihanouk)) (VP (VBD asked) (PP (TO to) (NP (NN host) (NN summit)))))))))'
p179
sg9
S'Hun Sen rejects out of country talks, Sihanouk asked to host summit'
p180
sg11
(lp181
(S'root'
p182
S'ROOT'
p183
S'rejects'
p184
tp185
a(S'nn'
p186
S'Sen'
p187
S'Hun'
p188
tp189
a(S'nsubj'
p190
S'rejects'
p191
S'Sen'
p192
tp193
a(S'prepc_out_of'
p194
S'asked'
p195
S'of'
p196
tp197
a(S'nn'
p198
S'talks'
p199
S'country'
p200
tp201
a(S'pobj'
p202
S'asked'
p203
S'talks'
p204
tp205
a(S'nsubj'
p206
S'asked'
p207
S'Sihanouk'
p208
tp209
a(S'ccomp'
p210
S'rejects'
p211
S'asked'
p212
tp213
a(S'nn'
p214
S'summit'
p215
S'host'
p216
tp217
a(S'prep_to'
p218
S'asked'
p219
S'summit'
p220
tp221
asg41
(lp222
(g182
S'ROOT-0'
p223
S'rejects-3'
p224
tp225
a(g186
S'Sen-2'
p226
S'Hun-1'
p227
tp228
a(g190
S'rejects-3'
p229
S'Sen-2'
p230
tp231
a(g194
S'asked-10'
p232
S'of-5'
p233
tp234
a(g198
S'talks-7'
p235
S'country-6'
p236
tp237
a(g202
S'asked-10'
p238
S'talks-7'
p239
tp240
a(g206
S'asked-10'
p241
S'Sihanouk-9'
p242
tp243
a(g210
S'rejects-3'
p244
S'asked-10'
p245
tp246
a(g214
S'summit-13'
p247
S'host-12'
p248
tp249
a(g218
S'asked-10'
p250
S'summit-13'
p251
tp252
asg64
(lp253
(S'Hun'
p254
(dp255
S'NamedEntityTag'
p256
S'PERSON'
p257
sS'CharacterOffsetEnd'
p258
S'4'
p259
sS'Lemma'
p260
S'Hun'
p261
sS'PartOfSpeech'
p262
S'NNP'
p263
sS'CharacterOffsetBegin'
p264
g77
stp265
a(S'Sen'
p266
(dp267
S'NamedEntityTag'
p268
S'PERSON'
p269
sS'CharacterOffsetEnd'
p270
S'8'
p271
sS'Lemma'
p272
S'Sen'
p273
sS'PartOfSpeech'
p274
S'NNP'
p275
sS'CharacterOffsetBegin'
p276
S'5'
p277
stp278
a(S'rejects'
p279
(dp280
S'NamedEntityTag'
p281
g82
sS'CharacterOffsetEnd'
p282
S'16'
p283
sS'Lemma'
p284
S'reject'
p285
sS'PartOfSpeech'
p286
S'VBZ'
p287
sS'CharacterOffsetBegin'
p288
S'9'
p289
stp290
a(S'out'
p291
(dp292
S'NamedEntityTag'
p293
g82
sS'CharacterOffsetEnd'
p294
S'20'
p295
sS'Lemma'
p296
S'out'
p297
sS'PartOfSpeech'
p298
S'IN'
p299
sS'CharacterOffsetBegin'
p300
S'17'
p301
stp302
a(S'of'
p303
(dp304
S'NamedEntityTag'
p305
g82
sS'CharacterOffsetEnd'
p306
S'23'
p307
sS'Lemma'
p308
S'of'
p309
sS'PartOfSpeech'
p310
S'IN'
p311
sS'CharacterOffsetBegin'
p312
S'21'
p313
stp314
a(S'country'
p315
(dp316
S'NamedEntityTag'
p317
g82
sS'CharacterOffsetEnd'
p318
S'31'
p319
sS'Lemma'
p320
S'country'
p321
sS'PartOfSpeech'
p322
S'NN'
p323
sS'CharacterOffsetBegin'
p324
S'24'
p325
stp326
a(S'talks'
p327
(dp328
S'NamedEntityTag'
p329
g82
sS'CharacterOffsetEnd'
p330
S'37'
p331
sS'Lemma'
p332
S'talk'
p333
sS'PartOfSpeech'
p334
S'NNS'
p335
sS'CharacterOffsetBegin'
p336
S'32'
p337
stp338
a(S','
p339
(dp340
S'NamedEntityTag'
p341
g82
sS'CharacterOffsetEnd'
p342
S'38'
p343
sS'Lemma'
p344
g339
sS'PartOfSpeech'
p345
g339
sS'CharacterOffsetBegin'
p346
S'37'
p347
stp348
a(S'Sihanouk'
p349
(dp350
S'NamedEntityTag'
p351
S'PERSON'
p352
sS'CharacterOffsetEnd'
p353
S'47'
p354
sS'Lemma'
p355
S'Sihanouk'
p356
sS'PartOfSpeech'
p357
S'NNP'
p358
sS'CharacterOffsetBegin'
p359
S'39'
p360
stp361
a(S'asked'
p362
(dp363
S'NamedEntityTag'
p364
g82
sS'CharacterOffsetEnd'
p365
S'53'
p366
sS'Lemma'
p367
S'ask'
p368
sS'PartOfSpeech'
p369
S'VBD'
p370
sS'CharacterOffsetBegin'
p371
S'48'
p372
stp373
a(S'to'
p374
(dp375
S'NamedEntityTag'
p376
g82
sS'CharacterOffsetEnd'
p377
S'56'
p378
sS'Lemma'
p379
S'to'
p380
sS'PartOfSpeech'
p381
S'TO'
p382
sS'CharacterOffsetBegin'
p383
S'54'
p384
stp385
a(S'host'
p386
(dp387
S'NamedEntityTag'
p388
g82
sS'CharacterOffsetEnd'
p389
S'61'
p390
sS'Lemma'
p391
S'host'
p392
sS'PartOfSpeech'
p393
S'NN'
p394
sS'CharacterOffsetBegin'
p395
S'57'
p396
stp397
a(S'summit'
p398
(dp399
S'NamedEntityTag'
p400
g82
sS'CharacterOffsetEnd'
p401
S'68'
p402
sS'Lemma'
p403
S'summit'
p404
sS'PartOfSpeech'
p405
S'NN'
p406
sS'CharacterOffsetBegin'
p407
S'62'
p408
stp409
asasa(dp410
g4
(lp411
(dp412
g7
S'(ROOT (S (NP (JJ Cambodian) (NN leader) (NNP Hun) (NNP Sen)) (VP (VBZ rejects) (NP (NN opposition) (NNS demands)) (PP (IN for) (NP (NP (NNS talks)) (PP (IN in) (NP (NNP Beijing)))))) (. .)))'
p413
sg9
S'Cambodian leader Hun Sen rejects opposition demands for talks in Beijing.'
p414
sg11
(lp415
(S'root'
p416
S'ROOT'
p417
S'rejects'
p418
tp419
a(S'amod'
p420
S'Sen'
p421
S'Cambodian'
p422
tp423
a(S'nn'
p424
S'Sen'
p425
S'leader'
p426
tp427
a(S'nn'
p428
S'Sen'
p429
S'Hun'
p430
tp431
a(S'nsubj'
p432
S'rejects'
p433
S'Sen'
p434
tp435
a(S'nn'
p436
S'demands'
p437
S'opposition'
p438
tp439
a(S'dobj'
p440
S'rejects'
p441
S'demands'
p442
tp443
a(S'prep_for'
p444
S'rejects'
p445
S'talks'
p446
tp447
a(S'prep_in'
p448
S'talks'
p449
S'Beijing'
p450
tp451
asg41
(lp452
(g416
S'ROOT-0'
p453
S'rejects-5'
p454
tp455
a(g420
S'Sen-4'
p456
S'Cambodian-1'
p457
tp458
a(g424
S'Sen-4'
p459
S'leader-2'
p460
tp461
a(g428
S'Sen-4'
p462
S'Hun-3'
p463
tp464
a(g432
S'rejects-5'
p465
S'Sen-4'
p466
tp467
a(g436
S'demands-7'
p468
S'opposition-6'
p469
tp470
a(g440
S'rejects-5'
p471
S'demands-7'
p472
tp473
a(g444
S'rejects-5'
p474
S'talks-9'
p475
tp476
a(g448
S'talks-9'
p477
S'Beijing-11'
p478
tp479
asg64
(lp480
(S'Cambodian'
p481
(dp482
S'NamedEntityTag'
p483
S'MISC'
p484
sS'CharacterOffsetEnd'
p485
S'10'
p486
sS'Lemma'
p487
S'cambodian'
p488
sS'PartOfSpeech'
p489
S'JJ'
p490
sS'CharacterOffsetBegin'
p491
g77
stp492
a(S'leader'
p493
(dp494
S'NamedEntityTag'
p495
g82
sS'CharacterOffsetEnd'
p496
S'17'
p497
sS'Lemma'
p498
S'leader'
p499
sS'PartOfSpeech'
p500
S'NN'
p501
sS'CharacterOffsetBegin'
p502
S'11'
p503
stp504
a(S'Hun'
p505
(dp506
S'NamedEntityTag'
p507
S'PERSON'
p508
sS'CharacterOffsetEnd'
p509
S'21'
p510
sS'Lemma'
p511
S'Hun'
p512
sS'PartOfSpeech'
p513
S'NNP'
p514
sS'CharacterOffsetBegin'
p515
S'18'
p516
stp517
a(S'Sen'
p518
(dp519
S'NamedEntityTag'
p520
S'PERSON'
p521
sS'CharacterOffsetEnd'
p522
S'25'
p523
sS'Lemma'
p524
S'Sen'
p525
sS'PartOfSpeech'
p526
S'NNP'
p527
sS'CharacterOffsetBegin'
p528
S'22'
p529
stp530
a(S'rejects'
p531
(dp532
S'NamedEntityTag'
p533
g82
sS'CharacterOffsetEnd'
p534
S'33'
p535
sS'Lemma'
p536
S'reject'
p537
sS'PartOfSpeech'
p538
S'VBZ'
p539
sS'CharacterOffsetBegin'
p540
S'26'
p541
stp542
a(S'opposition'
p543
(dp544
S'NamedEntityTag'
p545
g82
sS'CharacterOffsetEnd'
p546
S'44'
p547
sS'Lemma'
p548
S'opposition'
p549
sS'PartOfSpeech'
p550
S'NN'
p551
sS'CharacterOffsetBegin'
p552
S'34'
p553
stp554
a(S'demands'
p555
(dp556
S'NamedEntityTag'
p557
g82
sS'CharacterOffsetEnd'
p558
S'52'
p559
sS'Lemma'
p560
S'demand'
p561
sS'PartOfSpeech'
p562
S'NNS'
p563
sS'CharacterOffsetBegin'
p564
S'45'
p565
stp566
a(S'for'
p567
(dp568
S'NamedEntityTag'
p569
g82
sS'CharacterOffsetEnd'
p570
S'56'
p571
sS'Lemma'
p572
S'for'
p573
sS'PartOfSpeech'
p574
S'IN'
p575
sS'CharacterOffsetBegin'
p576
S'53'
p577
stp578
a(S'talks'
p579
(dp580
S'NamedEntityTag'
p581
g82
sS'CharacterOffsetEnd'
p582
S'62'
p583
sS'Lemma'
p584
S'talk'
p585
sS'PartOfSpeech'
p586
S'NNS'
p587
sS'CharacterOffsetBegin'
p588
S'57'
p589
stp590
a(S'in'
p591
(dp592
S'NamedEntityTag'
p593
g82
sS'CharacterOffsetEnd'
p594
S'65'
p595
sS'Lemma'
p596
S'in'
p597
sS'PartOfSpeech'
p598
S'IN'
p599
sS'CharacterOffsetBegin'
p600
S'63'
p601
stp602
a(S'Beijing'
p603
(dp604
S'NamedEntityTag'
p605
S'LOCATION'
p606
sS'CharacterOffsetEnd'
p607
S'73'
p608
sS'Lemma'
p609
S'Beijing'
p610
sS'PartOfSpeech'
p611
S'NNP'
p612
sS'CharacterOffsetBegin'
p613
S'66'
p614
stp615
a(S'.'
p616
(dp617
S'NamedEntityTag'
p618
g82
sS'CharacterOffsetEnd'
p619
S'74'
p620
sS'Lemma'
p621
g616
sS'PartOfSpeech'
p622
g616
sS'CharacterOffsetBegin'
p623
S'73'
p624
stp625
asasa(dp626
g4
(lp627
(dp628
g7
S'(ROOT (FRAG (NP (NP (NNP New) (JJ Cambodian) (NN government)) (PP (IN in) (NP (NN limbo)))) (SBAR (IN as) (S (NP (NNP Hun) (NNP Sen)) (VP (VBZ rejects) (NP (NNS talks)) (ADVP (IN out) (PP (IN of) (NP (NN country)))))))))'
p629
sg9
S'New Cambodian government in limbo as Hun Sen rejects talks out of country'
p630
sg11
(lp631
(S'root'
p632
S'ROOT'
p633
S'government'
p634
tp635
a(S'nn'
p636
S'government'
p637
S'New'
p638
tp639
a(S'amod'
p640
S'government'
p641
S'Cambodian'
p642
tp643
a(S'prep_in'
p644
S'government'
p645
S'limbo'
p646
tp647
a(S'mark'
p648
S'rejects'
p649
S'as'
p650
tp651
a(S'nn'
p652
S'Sen'
p653
S'Hun'
p654
tp655
a(S'nsubj'
p656
S'rejects'
p657
S'Sen'
p658
tp659
a(S'dep'
p660
S'government'
p661
S'rejects'
p662
tp663
a(S'dobj'
p664
S'rejects'
p665
S'talks'
p666
tp667
a(S'prep_out_of'
p668
S'rejects'
p669
S'country'
p670
tp671
asg41
(lp672
(g632
S'ROOT-0'
p673
S'government-3'
p674
tp675
a(g636
S'government-3'
p676
S'New-1'
p677
tp678
a(g640
S'government-3'
p679
S'Cambodian-2'
p680
tp681
a(g644
S'government-3'
p682
S'limbo-5'
p683
tp684
a(g648
S'rejects-9'
p685
S'as-6'
p686
tp687
a(g652
S'Sen-8'
p688
S'Hun-7'
p689
tp690
a(g656
S'rejects-9'
p691
S'Sen-8'
p692
tp693
a(g660
S'government-3'
p694
S'rejects-9'
p695
tp696
a(g664
S'rejects-9'
p697
S'talks-10'
p698
tp699
a(g668
S'rejects-9'
p700
S'country-13'
p701
tp702
asg64
(lp703
(S'New'
p704
(dp705
S'NamedEntityTag'
p706
g82
sS'CharacterOffsetEnd'
p707
g259
sS'Lemma'
p708
S'New'
p709
sS'PartOfSpeech'
p710
S'NNP'
p711
sS'CharacterOffsetBegin'
p712
g77
stp713
a(S'Cambodian'
p714
(dp715
S'NamedEntityTag'
p716
S'MISC'
p717
sS'CharacterOffsetEnd'
p718
S'14'
p719
sS'Lemma'
p720
S'cambodian'
p721
sS'PartOfSpeech'
p722
S'JJ'
p723
sS'CharacterOffsetBegin'
p724
g277
stp725
a(S'government'
p726
(dp727
S'NamedEntityTag'
p728
g82
sS'CharacterOffsetEnd'
p729
S'25'
p730
sS'Lemma'
p731
S'government'
p732
sS'PartOfSpeech'
p733
S'NN'
p734
sS'CharacterOffsetBegin'
p735
S'15'
p736
stp737
a(S'in'
p738
(dp739
S'NamedEntityTag'
p740
g82
sS'CharacterOffsetEnd'
p741
S'28'
p742
sS'Lemma'
p743
S'in'
p744
sS'PartOfSpeech'
p745
S'IN'
p746
sS'CharacterOffsetBegin'
p747
S'26'
p748
stp749
a(S'limbo'
p750
(dp751
S'NamedEntityTag'
p752
g82
sS'CharacterOffsetEnd'
p753
S'34'
p754
sS'Lemma'
p755
S'limbo'
p756
sS'PartOfSpeech'
p757
S'NN'
p758
sS'CharacterOffsetBegin'
p759
S'29'
p760
stp761
a(S'as'
p762
(dp763
S'NamedEntityTag'
p764
g82
sS'CharacterOffsetEnd'
p765
S'37'
p766
sS'Lemma'
p767
S'as'
p768
sS'PartOfSpeech'
p769
S'IN'
p770
sS'CharacterOffsetBegin'
p771
S'35'
p772
stp773
a(S'Hun'
p774
(dp775
S'NamedEntityTag'
p776
S'PERSON'
p777
sS'CharacterOffsetEnd'
p778
S'41'
p779
sS'Lemma'
p780
S'Hun'
p781
sS'PartOfSpeech'
p782
S'NNP'
p783
sS'CharacterOffsetBegin'
p784
S'38'
p785
stp786
a(S'Sen'
p787
(dp788
S'NamedEntityTag'
p789
S'PERSON'
p790
sS'CharacterOffsetEnd'
p791
S'45'
p792
sS'Lemma'
p793
S'Sen'
p794
sS'PartOfSpeech'
p795
S'NNP'
p796
sS'CharacterOffsetBegin'
p797
S'42'
p798
stp799
a(S'rejects'
p800
(dp801
S'NamedEntityTag'
p802
g82
sS'CharacterOffsetEnd'
p803
S'53'
p804
sS'Lemma'
p805
S'reject'
p806
sS'PartOfSpeech'
p807
S'VBZ'
p808
sS'CharacterOffsetBegin'
p809
S'46'
p810
stp811
a(S'talks'
p812
(dp813
S'NamedEntityTag'
p814
g82
sS'CharacterOffsetEnd'
p815
S'59'
p816
sS'Lemma'
p817
S'talk'
p818
sS'PartOfSpeech'
p819
S'NNS'
p820
sS'CharacterOffsetBegin'
p821
S'54'
p822
stp823
a(S'out'
p824
(dp825
S'NamedEntityTag'
p826
g82
sS'CharacterOffsetEnd'
p827
S'63'
p828
sS'Lemma'
p829
S'out'
p830
sS'PartOfSpeech'
p831
S'IN'
p832
sS'CharacterOffsetBegin'
p833
S'60'
p834
stp835
a(S'of'
p836
(dp837
S'NamedEntityTag'
p838
g82
sS'CharacterOffsetEnd'
p839
S'66'
p840
sS'Lemma'
p841
S'of'
p842
sS'PartOfSpeech'
p843
S'IN'
p844
sS'CharacterOffsetBegin'
p845
S'64'
p846
stp847
a(S'country'
p848
(dp849
S'NamedEntityTag'
p850
g82
sS'CharacterOffsetEnd'
p851
S'74'
p852
sS'Lemma'
p853
S'country'
p854
sS'PartOfSpeech'
p855
S'NN'
p856
sS'CharacterOffsetBegin'
p857
S'67'
p858
stp859
asasasS'article'
p860
(dp861
S'coref'
p862
(lp863
(lp864
((S'Hun Sens'
p865
I1
I7
I26
I28
tp866
(S'Cambodian leader Hun Sen on Friday'
p867
I0
I3
I0
I6
tp868
tp869
a((S'Hun Sens'
p870
I2
I1
I10
I12
tp871
(S'Cambodian leader Hun Sen on Friday'
p872
I0
I3
I0
I6
tp873
tp874
a((S'his'
p875
I2
I2
I22
I23
tp876
(S'Cambodian leader Hun Sen on Friday'
p877
I0
I3
I0
I6
tp878
tp879
a((S'Hun Sen'
p880
I3
I1
I0
I2
tp881
(S'Cambodian leader Hun Sen on Friday'
p882
I0
I3
I0
I6
tp883
tp884
a((S'Hun Sen'
p885
I4
I4
I23
I25
tp886
(S'Cambodian leader Hun Sen on Friday'
p887
I0
I3
I0
I6
tp888
tp889
a((S'he'
p890
I6
I-1
I9
I10
tp891
(S'Cambodian leader Hun Sen on Friday'
p892
I0
I3
I0
I6
tp893
tp894
a((S'Hun Sens'
p895
I8
I8
I7
I9
tp896
(S'Cambodian leader Hun Sen on Friday'
p897
I0
I3
I0
I6
tp898
tp899
a((S'Hun Sen'
p900
I10
I1
I0
I2
tp901
(S'Cambodian leader Hun Sen on Friday'
p902
I0
I3
I0
I6
tp903
tp904
a((S'Hun Sen'
p905
I13
I1
I0
I2
tp906
(S'Cambodian leader Hun Sen on Friday'
p907
I0
I3
I0
I6
tp908
tp909
a((S'Hun Sens'
p910
I13
I3
I22
I24
tp911
(S'Cambodian leader Hun Sen on Friday'
p912
I0
I3
I0
I6
tp913
tp914
aa(lp915
((S'Friday'
p916
I4
I2
I32
I33
tp917
(S'Friday'
p918
I0
I5
I5
I6
tp919
tp920
a((S'Friday'
p921
I10
I4
I4
I5
tp922
(S'Friday'
p923
I0
I5
I5
I6
tp924
tp925
a((S'Friday'
p926
I14
I-1
I9
I10
tp927
(S'Friday'
p928
I0
I5
I5
I6
tp929
tp930
aa(lp931
((S'the country'
p932
I10
I4
I13
I15
tp933
(S'the country'
p934
I0
I4
I13
I15
tp935
tp936
a((S'the country'
p937
I11
I-1
I8
I10
tp938
(S'the country'
p939
I0
I4
I13
I15
tp940
tp941
aa(lp942
((S'two'
p943
I2
I8
I18
I19
tp944
(S'two'
p945
I1
I2
I22
I23
tp946
tp947
a((S'it'
p948
I4
I5
I5
I6
tp949
(S'two'
p950
I1
I2
I22
I23
tp951
tp952
a((S'It'
p953
I6
I0
I0
I1
tp954
(S'two'
p955
I1
I2
I22
I23
tp956
tp957
aa(lp958
((S'negotiations'
p959
I14
I2
I22
I23
tp960
(S'post-election negotiations between the two opposition groups and Hun Sens party to form a new government'
p961
I1
I-1
I18
I34
tp962
tp963
aa(lp964
((S'a new government'
p965
I9
I5
I23
I26
tp966
(S'a new government'
p967
I1
I3
I31
I34
tp968
tp969
aa(lp970
((S'Sam Rainsy'
p971
I8
I3
I2
I4
tp972
(S'Sam Rainsy'
p973
I2
I7
I6
I8
tp974
tp975
a((S'Sam Rainsy'
p976
I12
I1
I0
I2
tp977
(S'Sam Rainsy'
p978
I2
I7
I6
I8
tp979
tp980
aa(lp981
((S'Ranariddh'
p982
I8
I0
I0
I1
tp983
(S'Norodom Ranariddh'
p984
I2
I4
I3
I5
tp985
tp986
a((S'Ranariddh'
p987
I11
I1
I1
I2
tp988
(S'Norodom Ranariddh'
p989
I2
I4
I3
I5
tp990
tp991
aa(lp992
((S'Cambodia'
p993
I4
I1
I21
I22
tp994
(S'Cambodia'
p995
I2
I2
I32
I33
tp996
tp997
a((S'Cambodia'
p998
I6
I7
I7
I8
tp999
(S'Cambodia'
p1000
I2
I2
I32
I33
tp1001
tp1002
a((S'Cambodia'
p1003
I15
I3
I3
I4
tp1004
(S'Cambodia'
p1005
I2
I2
I32
I33
tp1006
tp1007
aa(lp1008
((S'they'
p1009
I2
I6
I26
I27
tp1010
(S'Opposition leaders Prince Norodom Ranariddh and Sam Rainsy'
p1011
I2
I4
I0
I8
tp1012
tp1013
a((S'Ranariddh and Sam Rainsy'
p1014
I8
I0
I0
I4
tp1015
(S'Opposition leaders Prince Norodom Ranariddh and Sam Rainsy'
p1016
I2
I4
I0
I8
tp1017
tp1018
a((S'They'
p1019
I9
I0
I0
I1
tp1020
(S'Opposition leaders Prince Norodom Ranariddh and Sam Rainsy'
p1021
I2
I4
I0
I8
tp1022
tp1023
a((S'their'
p1024
I9
I7
I7
I8
tp1025
(S'Opposition leaders Prince Norodom Ranariddh and Sam Rainsy'
p1026
I2
I4
I0
I8
tp1027
tp1028
a((S'their'
p1029
I9
I4
I14
I15
tp1030
(S'Opposition leaders Prince Norodom Ranariddh and Sam Rainsy'
p1031
I2
I4
I0
I8
tp1032
tp1033
a((S'their'
p1034
I10
I0
I10
I11
tp1035
(S'Opposition leaders Prince Norodom Ranariddh and Sam Rainsy'
p1036
I2
I4
I0
I8
tp1037
tp1038
a((S'them'
p1039
I10
I0
I20
I21
tp1040
(S'Opposition leaders Prince Norodom Ranariddh and Sam Rainsy'
p1041
I2
I4
I0
I8
tp1042
tp1043
a((S'Ranariddh and Sam'
p1044
I11
I1
I1
I4
tp1045
(S'Opposition leaders Prince Norodom Ranariddh and Sam Rainsy'
p1046
I2
I4
I0
I8
tp1047
tp1048
aa(lp1049
((S'Cambodian affairs'
p1050
I5
I4
I3
I5
tp1051
(S'Cambodian affairs'
p1052
I4
I3
I12
I14
tp1053
tp1054
aa(lp1055
((S'its'
p1056
I7
I7
I27
I28
tp1057
(S'a government'
p1058
I7
I5
I24
I26
tp1059
tp1060
aa(lp1061
((S'the elections'
p1062
I8
I2
I11
I13
tp1063
(S'Julys elections'
p1064
I7
I4
I13
I15
tp1065
tp1066
aa(lp1067
((S'the attack'
p1068
I13
I0
I9
I11
tp1069
(S'a grenade attack on Hun Sens Phnom Penh residence'
p1070
I12
I6
I14
I23
tp1071
tp1072
aa(lp1073
((S'the statement'
p1074
I15
I2
I21
I23
tp1075
(S'a statement released Friday'
p1076
I14
I7
I6
I10
tp1077
tp1078
aa(lp1079
((S'it'
p1080
I16
I8
I8
I9
tp1081
(S'A meeting outside Cambodia , as suggested by the opposition , could place all parties on more equal footing'
p1082
I15
I1
I0
I19
tp1083
tp1084
a((S'its'
p1085
I16
I3
I13
I14
tp1086
(S'A meeting outside Cambodia , as suggested by the opposition , could place all parties on more equal footing'
p1087
I15
I1
I0
I19
tp1088
tp1089
aasg4
(lp1090
(dp1091
g7
S'(ROOT (S (NP (NP (JJ Cambodian) (NN leader) (NNP Hun) (NNP Sen)) (PP (IN on) (NP (NNP Friday)))) (VP (VBD rejected) (NP (NN opposition) (NNS parties) (NNS demands)) (PP (IN for) (NP (NP (NNS talks)) (PP (IN outside) (NP (DT the) (NN country))))) (, ,) (S (VP (VBG accusing) (NP (PRP them)) (PP (IN of) (S (VP (VBG trying) (S (VP (TO to) (VP (VB internationalize) (NP (DT the) (JJ political) (NN crisis))))))))))) (. .)))'
p1092
sg9
S'Cambodian leader Hun Sen on Friday rejected opposition parties demands for talks outside the country, accusing them of trying to internationalize the political crisis.'
p1093
sg11
(lp1094
(S'root'
p1095
S'ROOT'
p1096
S'rejected'
p1097
tp1098
a(S'amod'
p1099
S'Sen'
p1100
S'Cambodian'
p1101
tp1102
a(S'nn'
p1103
S'Sen'
p1104
S'leader'
p1105
tp1106
a(S'nn'
p1107
S'Sen'
p1108
S'Hun'
p1109
tp1110
a(S'nsubj'
p1111
S'rejected'
p1112
S'Sen'
p1113
tp1114
a(S'prep_on'
p1115
S'Sen'
p1116
S'Friday'
p1117
tp1118
a(S'nn'
p1119
S'demands'
p1120
S'opposition'
p1121
tp1122
a(S'nn'
p1123
S'demands'
p1124
S'parties'
p1125
tp1126
a(S'dobj'
p1127
S'rejected'
p1128
S'demands'
p1129
tp1130
a(S'prep_for'
p1131
S'rejected'
p1132
S'talks'
p1133
tp1134
a(S'det'
p1135
S'country'
p1136
S'the'
p1137
tp1138
a(S'prep_outside'
p1139
S'talks'
p1140
S'country'
p1141
tp1142
a(S'partmod'
p1143
S'rejected'
p1144
S'accusing'
p1145
tp1146
a(S'dobj'
p1147
S'accusing'
p1148
S'them'
p1149
tp1150
a(S'prepc_of'
p1151
S'accusing'
p1152
S'trying'
p1153
tp1154
a(S'aux'
p1155
S'internationalize'
p1156
S'to'
p1157
tp1158
a(S'xcomp'
p1159
S'trying'
p1160
S'internationalize'
p1161
tp1162
a(S'det'
p1163
S'crisis'
p1164
S'the'
p1165
tp1166
a(S'amod'
p1167
S'crisis'
p1168
S'political'
p1169
tp1170
a(S'dobj'
p1171
S'internationalize'
p1172
S'crisis'
p1173
tp1174
asg41
(lp1175
(g1095
S'ROOT-0'
p1176
S'rejected-7'
p1177
tp1178
a(g1099
S'Sen-4'
p1179
S'Cambodian-1'
p1180
tp1181
a(g1103
S'Sen-4'
p1182
S'leader-2'
p1183
tp1184
a(g1107
S'Sen-4'
p1185
S'Hun-3'
p1186
tp1187
a(g1111
S'rejected-7'
p1188
S'Sen-4'
p1189
tp1190
a(g1115
S'Sen-4'
p1191
S'Friday-6'
p1192
tp1193
a(g1119
S'demands-10'
p1194
S'opposition-8'
p1195
tp1196
a(g1123
S'demands-10'
p1197
S'parties-9'
p1198
tp1199
a(g1127
S'rejected-7'
p1200
S'demands-10'
p1201
tp1202
a(g1131
S'rejected-7'
p1203
S'talks-12'
p1204
tp1205
a(g1135
S'country-15'
p1206
S'the-14'
p1207
tp1208
a(g1139
S'talks-12'
p1209
S'country-15'
p1210
tp1211
a(g1143
S'rejected-7'
p1212
S'accusing-17'
p1213
tp1214
a(g1147
S'accusing-17'
p1215
S'them-18'
p1216
tp1217
a(g1151
S'accusing-17'
p1218
S'trying-20'
p1219
tp1220
a(g1155
S'internationalize-22'
p1221
S'to-21'
p1222
tp1223
a(g1159
S'trying-20'
p1224
S'internationalize-22'
p1225
tp1226
a(g1163
S'crisis-25'
p1227
S'the-23'
p1228
tp1229
a(g1167
S'crisis-25'
p1230
S'political-24'
p1231
tp1232
a(g1171
S'internationalize-22'
p1233
S'crisis-25'
p1234
tp1235
asg64
(lp1236
(S'Cambodian'
p1237
(dp1238
S'NamedEntityTag'
p1239
S'MISC'
p1240
sS'CharacterOffsetEnd'
p1241
g289
sS'Lemma'
p1242
S'cambodian'
p1243
sS'PartOfSpeech'
p1244
S'JJ'
p1245
sS'CharacterOffsetBegin'
p1246
S'0'
p1247
stp1248
a(S'leader'
p1249
(dp1250
S'NamedEntityTag'
p1251
g82
sS'CharacterOffsetEnd'
p1252
S'16'
p1253
sS'Lemma'
p1254
S'leader'
p1255
sS'PartOfSpeech'
p1256
S'NN'
p1257
sS'CharacterOffsetBegin'
p1258
S'10'
p1259
stp1260
a(S'Hun'
p1261
(dp1262
S'NamedEntityTag'
p1263
S'PERSON'
p1264
sS'CharacterOffsetEnd'
p1265
S'20'
p1266
sS'Lemma'
p1267
S'Hun'
p1268
sS'PartOfSpeech'
p1269
S'NNP'
p1270
sS'CharacterOffsetBegin'
p1271
S'17'
p1272
stp1273
a(S'Sen'
p1274
(dp1275
S'NamedEntityTag'
p1276
S'PERSON'
p1277
sS'CharacterOffsetEnd'
p1278
S'24'
p1279
sS'Lemma'
p1280
S'Sen'
p1281
sS'PartOfSpeech'
p1282
S'NNP'
p1283
sS'CharacterOffsetBegin'
p1284
S'21'
p1285
stp1286
a(S'on'
p1287
(dp1288
S'NamedEntityTag'
p1289
g82
sS'CharacterOffsetEnd'
p1290
S'27'
p1291
sS'Lemma'
p1292
S'on'
p1293
sS'PartOfSpeech'
p1294
S'IN'
p1295
sS'CharacterOffsetBegin'
p1296
S'25'
p1297
stp1298
a(S'Friday'
p1299
(dp1300
S'NormalizedNamedEntityTag'
p1301
S'XXXX-WXX-5'
p1302
sS'Timex'
p1303
S'<TIMEX3 tid="t1" type="DATE" value="XXXX-WXX-5">Friday</TIMEX3>'
p1304
sS'Lemma'
p1305
S'Friday'
p1306
sS'CharacterOffsetEnd'
p1307
S'34'
p1308
sS'PartOfSpeech'
p1309
S'NNP'
p1310
sS'CharacterOffsetBegin'
p1311
S'28'
p1312
sS'NamedEntityTag'
p1313
S'DATE'
p1314
stp1315
a(S'rejected'
p1316
(dp1317
S'NamedEntityTag'
p1318
g82
sS'CharacterOffsetEnd'
p1319
S'43'
p1320
sS'Lemma'
p1321
S'reject'
p1322
sS'PartOfSpeech'
p1323
S'VBD'
p1324
sS'CharacterOffsetBegin'
p1325
S'35'
p1326
stp1327
a(S'opposition'
p1328
(dp1329
S'NamedEntityTag'
p1330
g82
sS'CharacterOffsetEnd'
p1331
S'54'
p1332
sS'Lemma'
p1333
S'opposition'
p1334
sS'PartOfSpeech'
p1335
S'NN'
p1336
sS'CharacterOffsetBegin'
p1337
S'44'
p1338
stp1339
a(S'parties'
p1340
(dp1341
S'NamedEntityTag'
p1342
g82
sS'CharacterOffsetEnd'
p1343
S'62'
p1344
sS'Lemma'
p1345
S'party'
p1346
sS'PartOfSpeech'
p1347
S'NNS'
p1348
sS'CharacterOffsetBegin'
p1349
S'55'
p1350
stp1351
a(S'demands'
p1352
(dp1353
S'NamedEntityTag'
p1354
g82
sS'CharacterOffsetEnd'
p1355
S'70'
p1356
sS'Lemma'
p1357
S'demand'
p1358
sS'PartOfSpeech'
p1359
S'NNS'
p1360
sS'CharacterOffsetBegin'
p1361
S'63'
p1362
stp1363
a(S'for'
p1364
(dp1365
S'NamedEntityTag'
p1366
g82
sS'CharacterOffsetEnd'
p1367
S'74'
p1368
sS'Lemma'
p1369
S'for'
p1370
sS'PartOfSpeech'
p1371
S'IN'
p1372
sS'CharacterOffsetBegin'
p1373
S'71'
p1374
stp1375
a(S'talks'
p1376
(dp1377
S'NamedEntityTag'
p1378
g82
sS'CharacterOffsetEnd'
p1379
S'80'
p1380
sS'Lemma'
p1381
S'talk'
p1382
sS'PartOfSpeech'
p1383
S'NNS'
p1384
sS'CharacterOffsetBegin'
p1385
S'75'
p1386
stp1387
a(S'outside'
p1388
(dp1389
S'NamedEntityTag'
p1390
g82
sS'CharacterOffsetEnd'
p1391
S'88'
p1392
sS'Lemma'
p1393
S'outside'
p1394
sS'PartOfSpeech'
p1395
S'IN'
p1396
sS'CharacterOffsetBegin'
p1397
S'81'
p1398
stp1399
a(S'the'
p1400
(dp1401
S'NamedEntityTag'
p1402
g82
sS'CharacterOffsetEnd'
p1403
S'92'
p1404
sS'Lemma'
p1405
S'the'
p1406
sS'PartOfSpeech'
p1407
S'DT'
p1408
sS'CharacterOffsetBegin'
p1409
S'89'
p1410
stp1411
a(S'country'
p1412
(dp1413
S'NamedEntityTag'
p1414
g82
sS'CharacterOffsetEnd'
p1415
S'100'
p1416
sS'Lemma'
p1417
S'country'
p1418
sS'PartOfSpeech'
p1419
S'NN'
p1420
sS'CharacterOffsetBegin'
p1421
S'93'
p1422
stp1423
a(g339
(dp1424
S'NamedEntityTag'
p1425
g82
sS'CharacterOffsetEnd'
p1426
S'101'
p1427
sS'Lemma'
p1428
g339
sS'PartOfSpeech'
p1429
g339
sS'CharacterOffsetBegin'
p1430
S'100'
p1431
stp1432
a(S'accusing'
p1433
(dp1434
S'NamedEntityTag'
p1435
g82
sS'CharacterOffsetEnd'
p1436
S'110'
p1437
sS'Lemma'
p1438
S'accuse'
p1439
sS'PartOfSpeech'
p1440
S'VBG'
p1441
sS'CharacterOffsetBegin'
p1442
S'102'
p1443
stp1444
a(S'them'
p1445
(dp1446
S'NamedEntityTag'
p1447
g82
sS'CharacterOffsetEnd'
p1448
S'115'
p1449
sS'Lemma'
p1450
S'they'
p1451
sS'PartOfSpeech'
p1452
S'PRP'
p1453
sS'CharacterOffsetBegin'
p1454
S'111'
p1455
stp1456
a(S'of'
p1457
(dp1458
S'NamedEntityTag'
p1459
g82
sS'CharacterOffsetEnd'
p1460
S'118'
p1461
sS'Lemma'
p1462
S'of'
p1463
sS'PartOfSpeech'
p1464
S'IN'
p1465
sS'CharacterOffsetBegin'
p1466
S'116'
p1467
stp1468
a(S'trying'
p1469
(dp1470
S'NamedEntityTag'
p1471
g82
sS'CharacterOffsetEnd'
p1472
S'125'
p1473
sS'Lemma'
p1474
S'try'
p1475
sS'PartOfSpeech'
p1476
S'VBG'
p1477
sS'CharacterOffsetBegin'
p1478
S'119'
p1479
stp1480
a(S'to'
p1481
(dp1482
S'NamedEntityTag'
p1483
g82
sS'CharacterOffsetEnd'
p1484
S'128'
p1485
sS'Lemma'
p1486
S'to'
p1487
sS'PartOfSpeech'
p1488
S'TO'
p1489
sS'CharacterOffsetBegin'
p1490
S'126'
p1491
stp1492
a(S'internationalize'
p1493
(dp1494
S'NamedEntityTag'
p1495
g82
sS'CharacterOffsetEnd'
p1496
S'145'
p1497
sS'Lemma'
p1498
S'internationalize'
p1499
sS'PartOfSpeech'
p1500
S'VB'
p1501
sS'CharacterOffsetBegin'
p1502
S'129'
p1503
stp1504
a(S'the'
p1505
(dp1506
S'NamedEntityTag'
p1507
g82
sS'CharacterOffsetEnd'
p1508
S'149'
p1509
sS'Lemma'
p1510
S'the'
p1511
sS'PartOfSpeech'
p1512
S'DT'
p1513
sS'CharacterOffsetBegin'
p1514
S'146'
p1515
stp1516
a(S'political'
p1517
(dp1518
S'NamedEntityTag'
p1519
g82
sS'CharacterOffsetEnd'
p1520
S'159'
p1521
sS'Lemma'
p1522
S'political'
p1523
sS'PartOfSpeech'
p1524
S'JJ'
p1525
sS'CharacterOffsetBegin'
p1526
S'150'
p1527
stp1528
a(S'crisis'
p1529
(dp1530
S'NamedEntityTag'
p1531
g82
sS'CharacterOffsetEnd'
p1532
S'166'
p1533
sS'Lemma'
p1534
S'crisis'
p1535
sS'PartOfSpeech'
p1536
S'NN'
p1537
sS'CharacterOffsetBegin'
p1538
S'160'
p1539
stp1540
a(g616
(dp1541
S'NamedEntityTag'
p1542
g82
sS'CharacterOffsetEnd'
p1543
S'167'
p1544
sS'Lemma'
p1545
g616
sS'PartOfSpeech'
p1546
g616
sS'CharacterOffsetBegin'
p1547
S'166'
p1548
stp1549
asa(dp1550
g7
S'(ROOT (S (NP (NP (NN Government) (CC and) (NN opposition)) (NNS parties)) (VP (VBP have) (VP (VBN asked) (S (NP (NNP King) (NNP Norodom) (NNP Sihanouk)) (VP (TO to) (VP (VB host) (NP (DT a) (NN summit) (NN meeting)) (SBAR (IN after) (S (NP (NP (DT a) (NN series)) (PP (IN of) (NP (NP (JJ post-election) (NNS negotiations)) (PP (IN between) (NP (NP (DT the) (CD two) (NN opposition) (NNS groups)) (CC and) (NP (NNP Hun) (NNP Sens) (NN party)))) (S (VP (TO to) (VP (VB form) (NP (DT a) (JJ new) (NN government)))))))) (VP (VBD failed))))))))) (. .)))'
p1551
sg9
S'Government and opposition parties have asked King Norodom Sihanouk to host a summit meeting after a series of post-election negotiations between the two opposition groups and Hun Sens party to form a new government failed.'
p1552
sg11
(lp1553
(S'root'
p1554
S'ROOT'
p1555
S'asked'
p1556
tp1557
a(S'nn'
p1558
S'parties'
p1559
S'Government'
p1560
tp1561
a(S'conj_and'
p1562
S'Government'
p1563
S'opposition'
p1564
tp1565
a(S'nsubj'
p1566
S'asked'
p1567
S'parties'
p1568
tp1569
a(S'aux'
p1570
S'asked'
p1571
S'have'
p1572
tp1573
a(S'nn'
p1574
S'Sihanouk'
p1575
S'King'
p1576
tp1577
a(S'nn'
p1578
S'Sihanouk'
p1579
S'Norodom'
p1580
tp1581
a(S'nsubj'
p1582
S'host'
p1583
S'Sihanouk'
p1584
tp1585
a(S'aux'
p1586
S'host'
p1587
S'to'
p1588
tp1589
a(S'xcomp'
p1590
S'asked'
p1591
S'host'
p1592
tp1593
a(S'det'
p1594
S'meeting'
p1595
S'a'
p1596
tp1597
a(S'nn'
p1598
S'meeting'
p1599
S'summit'
p1600
tp1601
a(S'dobj'
p1602
S'host'
p1603
S'meeting'
p1604
tp1605
a(S'mark'
p1606
S'failed'
p1607
S'after'
p1608
tp1609
a(S'det'
p1610
S'series'
p1611
g1596
tp1612
a(S'nsubj'
p1613
S'failed'
p1614
S'series'
p1615
tp1616
a(S'amod'
p1617
S'negotiations'
p1618
S'post-election'
p1619
tp1620
a(S'prep_of'
p1621
S'series'
p1622
S'negotiations'
p1623
tp1624
a(S'det'
p1625
S'groups'
p1626
S'the'
p1627
tp1628
a(S'num'
p1629
S'groups'
p1630
S'two'
p1631
tp1632
a(S'nn'
p1633
S'groups'
p1634
S'opposition'
p1635
tp1636
a(S'prep_between'
p1637
S'negotiations'
p1638
S'groups'
p1639
tp1640
a(S'nn'
p1641
S'party'
p1642
S'Hun'
p1643
tp1644
a(S'nn'
p1645
S'party'
p1646
S'Sens'
p1647
tp1648
a(S'conj_and'
p1649
S'groups'
p1650
S'party'
p1651
tp1652
a(S'aux'
p1653
S'form'
p1654
S'to'
p1655
tp1656
a(S'infmod'
p1657
S'negotiations'
p1658
S'form'
p1659
tp1660
a(S'det'
p1661
S'government'
p1662
g1596
tp1663
a(S'amod'
p1664
S'government'
p1665
S'new'
p1666
tp1667
a(S'dobj'
p1668
S'form'
p1669
S'government'
p1670
tp1671
a(S'advcl'
p1672
S'host'
p1673
S'failed'
p1674
tp1675
asg41
(lp1676
(g1554
S'ROOT-0'
p1677
S'asked-6'
p1678
tp1679
a(g1558
S'parties-4'
p1680
S'Government-1'
p1681
tp1682
a(g1562
S'Government-1'
p1683
S'opposition-3'
p1684
tp1685
a(g1566
S'asked-6'
p1686
S'parties-4'
p1687
tp1688
a(g1570
S'asked-6'
p1689
S'have-5'
p1690
tp1691
a(g1574
S'Sihanouk-9'
p1692
S'King-7'
p1693
tp1694
a(g1578
S'Sihanouk-9'
p1695
S'Norodom-8'
p1696
tp1697
a(g1582
S'host-11'
p1698
S'Sihanouk-9'
p1699
tp1700
a(g1586
S'host-11'
p1701
S'to-10'
p1702
tp1703
a(g1590
S'asked-6'
p1704
S'host-11'
p1705
tp1706
a(g1594
S'meeting-14'
p1707
S'a-12'
p1708
tp1709
a(g1598
S'meeting-14'
p1710
S'summit-13'
p1711
tp1712
a(g1602
S'host-11'
p1713
S'meeting-14'
p1714
tp1715
a(g1606
S'failed-35'
p1716
S'after-15'
p1717
tp1718
a(g1610
S'series-17'
p1719
S'a-16'
p1720
tp1721
a(g1613
S'failed-35'
p1722
S'series-17'
p1723
tp1724
a(g1617
S'negotiations-20'
p1725
S'post-election-19'
p1726
tp1727
a(g1621
S'series-17'
p1728
S'negotiations-20'
p1729
tp1730
a(g1625
S'groups-25'
p1731
S'the-22'
p1732
tp1733
a(g1629
S'groups-25'
p1734
S'two-23'
p1735
tp1736
a(g1633
S'groups-25'
p1737
S'opposition-24'
p1738
tp1739
a(g1637
S'negotiations-20'
p1740
S'groups-25'
p1741
tp1742
a(g1641
S'party-29'
p1743
S'Hun-27'
p1744
tp1745
a(g1645
S'party-29'
p1746
S'Sens-28'
p1747
tp1748
a(g1649
S'groups-25'
p1749
S'party-29'
p1750
tp1751
a(g1653
S'form-31'
p1752
S'to-30'
p1753
tp1754
a(g1657
S'negotiations-20'
p1755
S'form-31'
p1756
tp1757
a(g1661
S'government-34'
p1758
S'a-32'
p1759
tp1760
a(g1664
S'government-34'
p1761
S'new-33'
p1762
tp1763
a(g1668
S'form-31'
p1764
S'government-34'
p1765
tp1766
a(g1672
S'host-11'
p1767
S'failed-35'
p1768
tp1769
asg64
(lp1770
(S'Government'
p1771
(dp1772
S'NamedEntityTag'
p1773
g82
sS'CharacterOffsetEnd'
p1774
S'178'
p1775
sS'Lemma'
p1776
S'government'
p1777
sS'PartOfSpeech'
p1778
S'NN'
p1779
sS'CharacterOffsetBegin'
p1780
S'168'
p1781
stp1782
a(S'and'
p1783
(dp1784
S'NamedEntityTag'
p1785
g82
sS'CharacterOffsetEnd'
p1786
S'182'
p1787
sS'Lemma'
p1788
S'and'
p1789
sS'PartOfSpeech'
p1790
S'CC'
p1791
sS'CharacterOffsetBegin'
p1792
S'179'
p1793
stp1794
a(S'opposition'
p1795
(dp1796
S'NamedEntityTag'
p1797
g82
sS'CharacterOffsetEnd'
p1798
S'193'
p1799
sS'Lemma'
p1800
S'opposition'
p1801
sS'PartOfSpeech'
p1802
S'NN'
p1803
sS'CharacterOffsetBegin'
p1804
S'183'
p1805
stp1806
a(S'parties'
p1807
(dp1808
S'NamedEntityTag'
p1809
g82
sS'CharacterOffsetEnd'
p1810
S'201'
p1811
sS'Lemma'
p1812
S'party'
p1813
sS'PartOfSpeech'
p1814
S'NNS'
p1815
sS'CharacterOffsetBegin'
p1816
S'194'
p1817
stp1818
a(S'have'
p1819
(dp1820
S'NamedEntityTag'
p1821
g82
sS'CharacterOffsetEnd'
p1822
S'206'
p1823
sS'Lemma'
p1824
S'have'
p1825
sS'PartOfSpeech'
p1826
S'VBP'
p1827
sS'CharacterOffsetBegin'
p1828
S'202'
p1829
stp1830
a(S'asked'
p1831
(dp1832
S'NamedEntityTag'
p1833
g82
sS'CharacterOffsetEnd'
p1834
S'212'
p1835
sS'Lemma'
p1836
S'ask'
p1837
sS'PartOfSpeech'
p1838
S'VBN'
p1839
sS'CharacterOffsetBegin'
p1840
S'207'
p1841
stp1842
a(S'King'
p1843
(dp1844
S'NamedEntityTag'
p1845
g82
sS'CharacterOffsetEnd'
p1846
S'217'
p1847
sS'Lemma'
p1848
S'King'
p1849
sS'PartOfSpeech'
p1850
S'NNP'
p1851
sS'CharacterOffsetBegin'
p1852
S'213'
p1853
stp1854
a(S'Norodom'
p1855
(dp1856
S'NamedEntityTag'
p1857
S'PERSON'
p1858
sS'CharacterOffsetEnd'
p1859
S'225'
p1860
sS'Lemma'
p1861
S'Norodom'
p1862
sS'PartOfSpeech'
p1863
S'NNP'
p1864
sS'CharacterOffsetBegin'
p1865
S'218'
p1866
stp1867
a(S'Sihanouk'
p1868
(dp1869
S'NamedEntityTag'
p1870
S'PERSON'
p1871
sS'CharacterOffsetEnd'
p1872
S'234'
p1873
sS'Lemma'
p1874
S'Sihanouk'
p1875
sS'PartOfSpeech'
p1876
S'NNP'
p1877
sS'CharacterOffsetBegin'
p1878
S'226'
p1879
stp1880
a(S'to'
p1881
(dp1882
S'NamedEntityTag'
p1883
g82
sS'CharacterOffsetEnd'
p1884
S'237'
p1885
sS'Lemma'
p1886
S'to'
p1887
sS'PartOfSpeech'
p1888
S'TO'
p1889
sS'CharacterOffsetBegin'
p1890
S'235'
p1891
stp1892
a(S'host'
p1893
(dp1894
S'NamedEntityTag'
p1895
g82
sS'CharacterOffsetEnd'
p1896
S'242'
p1897
sS'Lemma'
p1898
S'host'
p1899
sS'PartOfSpeech'
p1900
S'VB'
p1901
sS'CharacterOffsetBegin'
p1902
S'238'
p1903
stp1904
a(g1596
(dp1905
S'NamedEntityTag'
p1906
g82
sS'CharacterOffsetEnd'
p1907
S'244'
p1908
sS'Lemma'
p1909
g1596
sS'PartOfSpeech'
p1910
S'DT'
p1911
sS'CharacterOffsetBegin'
p1912
S'243'
p1913
stp1914
a(S'summit'
p1915
(dp1916
S'NamedEntityTag'
p1917
g82
sS'CharacterOffsetEnd'
p1918
S'251'
p1919
sS'Lemma'
p1920
S'summit'
p1921
sS'PartOfSpeech'
p1922
S'NN'
p1923
sS'CharacterOffsetBegin'
p1924
S'245'
p1925
stp1926
a(S'meeting'
p1927
(dp1928
S'NamedEntityTag'
p1929
g82
sS'CharacterOffsetEnd'
p1930
S'259'
p1931
sS'Lemma'
p1932
S'meeting'
p1933
sS'PartOfSpeech'
p1934
S'NN'
p1935
sS'CharacterOffsetBegin'
p1936
S'252'
p1937
stp1938
a(S'after'
p1939
(dp1940
S'NamedEntityTag'
p1941
g82
sS'CharacterOffsetEnd'
p1942
S'265'
p1943
sS'Lemma'
p1944
S'after'
p1945
sS'PartOfSpeech'
p1946
S'IN'
p1947
sS'CharacterOffsetBegin'
p1948
S'260'
p1949
stp1950
a(g1596
(dp1951
S'NamedEntityTag'
p1952
g82
sS'CharacterOffsetEnd'
p1953
S'267'
p1954
sS'Lemma'
p1955
g1596
sS'PartOfSpeech'
p1956
S'DT'
p1957
sS'CharacterOffsetBegin'
p1958
S'266'
p1959
stp1960
a(S'series'
p1961
(dp1962
S'NamedEntityTag'
p1963
g82
sS'CharacterOffsetEnd'
p1964
S'274'
p1965
sS'Lemma'
p1966
S'series'
p1967
sS'PartOfSpeech'
p1968
S'NN'
p1969
sS'CharacterOffsetBegin'
p1970
S'268'
p1971
stp1972
a(S'of'
p1973
(dp1974
S'NamedEntityTag'
p1975
g82
sS'CharacterOffsetEnd'
p1976
S'277'
p1977
sS'Lemma'
p1978
S'of'
p1979
sS'PartOfSpeech'
p1980
S'IN'
p1981
sS'CharacterOffsetBegin'
p1982
S'275'
p1983
stp1984
a(S'post-election'
p1985
(dp1986
S'NamedEntityTag'
p1987
g82
sS'CharacterOffsetEnd'
p1988
S'291'
p1989
sS'Lemma'
p1990
S'post-election'
p1991
sS'PartOfSpeech'
p1992
S'JJ'
p1993
sS'CharacterOffsetBegin'
p1994
S'278'
p1995
stp1996
a(S'negotiations'
p1997
(dp1998
S'NamedEntityTag'
p1999
g82
sS'CharacterOffsetEnd'
p2000
S'304'
p2001
sS'Lemma'
p2002
S'negotiation'
p2003
sS'PartOfSpeech'
p2004
S'NNS'
p2005
sS'CharacterOffsetBegin'
p2006
S'292'
p2007
stp2008
a(S'between'
p2009
(dp2010
S'NamedEntityTag'
p2011
g82
sS'CharacterOffsetEnd'
p2012
S'312'
p2013
sS'Lemma'
p2014
S'between'
p2015
sS'PartOfSpeech'
p2016
S'IN'
p2017
sS'CharacterOffsetBegin'
p2018
S'305'
p2019
stp2020
a(S'the'
p2021
(dp2022
S'NamedEntityTag'
p2023
g82
sS'CharacterOffsetEnd'
p2024
S'316'
p2025
sS'Lemma'
p2026
S'the'
p2027
sS'PartOfSpeech'
p2028
S'DT'
p2029
sS'CharacterOffsetBegin'
p2030
S'313'
p2031
stp2032
a(S'two'
p2033
(dp2034
S'NormalizedNamedEntityTag'
p2035
S'2.0'
p2036
sS'Lemma'
p2037
S'two'
p2038
sS'CharacterOffsetEnd'
p2039
S'320'
p2040
sS'PartOfSpeech'
p2041
S'CD'
p2042
sS'CharacterOffsetBegin'
p2043
S'317'
p2044
sS'NamedEntityTag'
p2045
S'NUMBER'
p2046
stp2047
a(S'opposition'
p2048
(dp2049
S'NamedEntityTag'
p2050
g82
sS'CharacterOffsetEnd'
p2051
S'331'
p2052
sS'Lemma'
p2053
S'opposition'
p2054
sS'PartOfSpeech'
p2055
S'NN'
p2056
sS'CharacterOffsetBegin'
p2057
S'321'
p2058
stp2059
a(S'groups'
p2060
(dp2061
S'NamedEntityTag'
p2062
g82
sS'CharacterOffsetEnd'
p2063
S'338'
p2064
sS'Lemma'
p2065
S'group'
p2066
sS'PartOfSpeech'
p2067
S'NNS'
p2068
sS'CharacterOffsetBegin'
p2069
S'332'
p2070
stp2071
a(S'and'
p2072
(dp2073
S'NamedEntityTag'
p2074
g82
sS'CharacterOffsetEnd'
p2075
S'342'
p2076
sS'Lemma'
p2077
S'and'
p2078
sS'PartOfSpeech'
p2079
S'CC'
p2080
sS'CharacterOffsetBegin'
p2081
S'339'
p2082
stp2083
a(S'Hun'
p2084
(dp2085
S'NamedEntityTag'
p2086
S'PERSON'
p2087
sS'CharacterOffsetEnd'
p2088
S'346'
p2089
sS'Lemma'
p2090
S'Hun'
p2091
sS'PartOfSpeech'
p2092
S'NNP'
p2093
sS'CharacterOffsetBegin'
p2094
S'343'
p2095
stp2096
a(S'Sens'
p2097
(dp2098
S'NamedEntityTag'
p2099
S'PERSON'
p2100
sS'CharacterOffsetEnd'
p2101
S'351'
p2102
sS'Lemma'
p2103
S'Sens'
p2104
sS'PartOfSpeech'
p2105
S'NNP'
p2106
sS'CharacterOffsetBegin'
p2107
S'347'
p2108
stp2109
a(S'party'
p2110
(dp2111
S'NamedEntityTag'
p2112
g82
sS'CharacterOffsetEnd'
p2113
S'357'
p2114
sS'Lemma'
p2115
S'party'
p2116
sS'PartOfSpeech'
p2117
S'NN'
p2118
sS'CharacterOffsetBegin'
p2119
S'352'
p2120
stp2121
a(S'to'
p2122
(dp2123
S'NamedEntityTag'
p2124
g82
sS'CharacterOffsetEnd'
p2125
S'360'
p2126
sS'Lemma'
p2127
S'to'
p2128
sS'PartOfSpeech'
p2129
S'TO'
p2130
sS'CharacterOffsetBegin'
p2131
S'358'
p2132
stp2133
a(S'form'
p2134
(dp2135
S'NamedEntityTag'
p2136
g82
sS'CharacterOffsetEnd'
p2137
S'365'
p2138
sS'Lemma'
p2139
S'form'
p2140
sS'PartOfSpeech'
p2141
S'VB'
p2142
sS'CharacterOffsetBegin'
p2143
S'361'
p2144
stp2145
a(g1596
(dp2146
S'NamedEntityTag'
p2147
g82
sS'CharacterOffsetEnd'
p2148
S'367'
p2149
sS'Lemma'
p2150
g1596
sS'PartOfSpeech'
p2151
S'DT'
p2152
sS'CharacterOffsetBegin'
p2153
S'366'
p2154
stp2155
a(S'new'
p2156
(dp2157
S'NamedEntityTag'
p2158
g82
sS'CharacterOffsetEnd'
p2159
S'371'
p2160
sS'Lemma'
p2161
S'new'
p2162
sS'PartOfSpeech'
p2163
S'JJ'
p2164
sS'CharacterOffsetBegin'
p2165
S'368'
p2166
stp2167
a(S'government'
p2168
(dp2169
S'NamedEntityTag'
p2170
g82
sS'CharacterOffsetEnd'
p2171
S'382'
p2172
sS'Lemma'
p2173
S'government'
p2174
sS'PartOfSpeech'
p2175
S'NN'
p2176
sS'CharacterOffsetBegin'
p2177
S'372'
p2178
stp2179
a(S'failed'
p2180
(dp2181
S'NamedEntityTag'
p2182
g82
sS'CharacterOffsetEnd'
p2183
S'389'
p2184
sS'Lemma'
p2185
S'fail'
p2186
sS'PartOfSpeech'
p2187
S'VBD'
p2188
sS'CharacterOffsetBegin'
p2189
S'383'
p2190
stp2191
a(g616
(dp2192
S'NamedEntityTag'
p2193
g82
sS'CharacterOffsetEnd'
p2194
S'390'
p2195
sS'Lemma'
p2196
g616
sS'PartOfSpeech'
p2197
g616
sS'CharacterOffsetBegin'
p2198
S'389'
p2199
stp2200
asa(dp2201
g7
S'(ROOT (S (NP (NP (NP (NN Opposition) (NNS leaders) (NNP Prince) (NNP Norodom) (NNP Ranariddh)) (CC and) (NP (NNP Sam) (NNP Rainsy))) (, ,) (VP (VBG citing) (S (NP (NNP Hun) (NNP Sens) (NNS threats)) (VP (TO to) (VP (VB arrest) (NP (NN opposition) (NNS figures)) (PP (IN after) (NP (NP (CD two) (JJ alleged) (NNS attempts)) (PP (IN on) (NP (PRP$ his) (NN life))))))))) (, ,)) (VP (VBD said) (SBAR (S (NP (PRP they)) (VP (VP (MD could) (RB not) (VP (VB negotiate) (ADVP (RB freely)) (PP (IN in) (NP (NNP Cambodia))))) (CC and) (VP (VBN called) (PP (IN for) (NP (NP (NNS talks)) (PP (IN at) (NP (NNP Sihanouks) (NN residence))))) (PP (IN in) (NP (NNP Beijing)))))))) (. .)))'
p2202
sg9
S'Opposition leaders Prince Norodom Ranariddh and Sam Rainsy, citing Hun Sens threats to arrest opposition figures after two alleged attempts on his life, said they could not negotiate freely in Cambodia and called for talks at Sihanouks residence in Beijing.'
p2203
sg11
(lp2204
(S'root'
p2205
S'ROOT'
p2206
S'said'
p2207
tp2208
a(S'nn'
p2209
S'Ranariddh'
p2210
S'Opposition'
p2211
tp2212
a(S'nn'
p2213
S'Ranariddh'
p2214
S'leaders'
p2215
tp2216
a(S'nn'
p2217
S'Ranariddh'
p2218
S'Prince'
p2219
tp2220
a(S'nn'
p2221
S'Ranariddh'
p2222
S'Norodom'
p2223
tp2224
a(S'nsubj'
p2225
S'said'
p2226
S'Ranariddh'
p2227
tp2228
a(S'nn'
p2229
S'Rainsy'
p2230
S'Sam'
p2231
tp2232
a(S'conj_and'
p2233
S'Ranariddh'
p2234
S'Rainsy'
p2235
tp2236
a(S'partmod'
p2237
S'Ranariddh'
p2238
S'citing'
p2239
tp2240
a(S'nn'
p2241
S'threats'
p2242
S'Hun'
p2243
tp2244
a(S'nn'
p2245
S'threats'
p2246
S'Sens'
p2247
tp2248
a(S'nsubj'
p2249
S'arrest'
p2250
S'threats'
p2251
tp2252
a(S'aux'
p2253
S'arrest'
p2254
S'to'
p2255
tp2256
a(S'xcomp'
p2257
S'citing'
p2258
S'arrest'
p2259
tp2260
a(S'nn'
p2261
S'figures'
p2262
S'opposition'
p2263
tp2264
a(S'dobj'
p2265
S'arrest'
p2266
S'figures'
p2267
tp2268
a(S'num'
p2269
S'attempts'
p2270
S'two'
p2271
tp2272
a(S'amod'
p2273
S'attempts'
p2274
S'alleged'
p2275
tp2276
a(S'prep_after'
p2277
S'arrest'
p2278
S'attempts'
p2279
tp2280
a(S'poss'
p2281
S'life'
p2282
S'his'
p2283
tp2284
a(S'prep_on'
p2285
S'attempts'
p2286
S'life'
p2287
tp2288
a(S'nsubj'
p2289
S'negotiate'
p2290
S'they'
p2291
tp2292
a(S'aux'
p2293
S'negotiate'
p2294
S'could'
p2295
tp2296
a(S'neg'
p2297
S'negotiate'
p2298
S'not'
p2299
tp2300
a(S'ccomp'
p2301
S'said'
p2302
S'negotiate'
p2303
tp2304
a(S'advmod'
p2305
S'negotiate'
p2306
S'freely'
p2307
tp2308
a(S'prep_in'
p2309
S'negotiate'
p2310
S'Cambodia'
p2311
tp2312
a(S'conj_and'
p2313
S'negotiate'
p2314
S'called'
p2315
tp2316
a(S'prep_for'
p2317
S'called'
p2318
S'talks'
p2319
tp2320
a(S'nn'
p2321
S'residence'
p2322
S'Sihanouks'
p2323
tp2324
a(S'prep_at'
p2325
S'talks'
p2326
S'residence'
p2327
tp2328
a(S'prep_in'
p2329
S'called'
p2330
S'Beijing'
p2331
tp2332
asg41
(lp2333
(g2205
S'ROOT-0'
p2334
S'said-26'
p2335
tp2336
a(g2209
S'Ranariddh-5'
p2337
S'Opposition-1'
p2338
tp2339
a(g2213
S'Ranariddh-5'
p2340
S'leaders-2'
p2341
tp2342
a(g2217
S'Ranariddh-5'
p2343
S'Prince-3'
p2344
tp2345
a(g2221
S'Ranariddh-5'
p2346
S'Norodom-4'
p2347
tp2348
a(g2225
S'said-26'
p2349
S'Ranariddh-5'
p2350
tp2351
a(g2229
S'Rainsy-8'
p2352
S'Sam-7'
p2353
tp2354
a(g2233
S'Ranariddh-5'
p2355
S'Rainsy-8'
p2356
tp2357
a(g2237
S'Ranariddh-5'
p2358
S'citing-10'
p2359
tp2360
a(g2241
S'threats-13'
p2361
S'Hun-11'
p2362
tp2363
a(g2245
S'threats-13'
p2364
S'Sens-12'
p2365
tp2366
a(g2249
S'arrest-15'
p2367
S'threats-13'
p2368
tp2369
a(g2253
S'arrest-15'
p2370
S'to-14'
p2371
tp2372
a(g2257
S'citing-10'
p2373
S'arrest-15'
p2374
tp2375
a(g2261
S'figures-17'
p2376
S'opposition-16'
p2377
tp2378
a(g2265
S'arrest-15'
p2379
S'figures-17'
p2380
tp2381
a(g2269
S'attempts-21'
p2382
S'two-19'
p2383
tp2384
a(g2273
S'attempts-21'
p2385
S'alleged-20'
p2386
tp2387
a(g2277
S'arrest-15'
p2388
S'attempts-21'
p2389
tp2390
a(g2281
S'life-24'
p2391
S'his-23'
p2392
tp2393
a(g2285
S'attempts-21'
p2394
S'life-24'
p2395
tp2396
a(g2289
S'negotiate-30'
p2397
S'they-27'
p2398
tp2399
a(g2293
S'negotiate-30'
p2400
S'could-28'
p2401
tp2402
a(g2297
S'negotiate-30'
p2403
S'not-29'
p2404
tp2405
a(g2301
S'said-26'
p2406
S'negotiate-30'
p2407
tp2408
a(g2305
S'negotiate-30'
p2409
S'freely-31'
p2410
tp2411
a(g2309
S'negotiate-30'
p2412
S'Cambodia-33'
p2413
tp2414
a(g2313
S'negotiate-30'
p2415
S'called-35'
p2416
tp2417
a(g2317
S'called-35'
p2418
S'talks-37'
p2419
tp2420
a(g2321
S'residence-40'
p2421
S'Sihanouks-39'
p2422
tp2423
a(g2325
S'talks-37'
p2424
S'residence-40'
p2425
tp2426
a(g2329
S'called-35'
p2427
S'Beijing-42'
p2428
tp2429
asg64
(lp2430
(S'Opposition'
p2431
(dp2432
S'NamedEntityTag'
p2433
g82
sS'CharacterOffsetEnd'
p2434
S'401'
p2435
sS'Lemma'
p2436
S'opposition'
p2437
sS'PartOfSpeech'
p2438
S'NN'
p2439
sS'CharacterOffsetBegin'
p2440
S'391'
p2441
stp2442
a(S'leaders'
p2443
(dp2444
S'NamedEntityTag'
p2445
g82
sS'CharacterOffsetEnd'
p2446
S'409'
p2447
sS'Lemma'
p2448
S'leader'
p2449
sS'PartOfSpeech'
p2450
S'NNS'
p2451
sS'CharacterOffsetBegin'
p2452
S'402'
p2453
stp2454
a(S'Prince'
p2455
(dp2456
S'NamedEntityTag'
p2457
g82
sS'CharacterOffsetEnd'
p2458
S'416'
p2459
sS'Lemma'
p2460
S'Prince'
p2461
sS'PartOfSpeech'
p2462
S'NNP'
p2463
sS'CharacterOffsetBegin'
p2464
S'410'
p2465
stp2466
a(S'Norodom'
p2467
(dp2468
S'NamedEntityTag'
p2469
S'PERSON'
p2470
sS'CharacterOffsetEnd'
p2471
S'424'
p2472
sS'Lemma'
p2473
S'Norodom'
p2474
sS'PartOfSpeech'
p2475
S'NNP'
p2476
sS'CharacterOffsetBegin'
p2477
S'417'
p2478
stp2479
a(S'Ranariddh'
p2480
(dp2481
S'NamedEntityTag'
p2482
S'PERSON'
p2483
sS'CharacterOffsetEnd'
p2484
S'434'
p2485
sS'Lemma'
p2486
S'Ranariddh'
p2487
sS'PartOfSpeech'
p2488
S'NNP'
p2489
sS'CharacterOffsetBegin'
p2490
S'425'
p2491
stp2492
a(S'and'
p2493
(dp2494
S'NamedEntityTag'
p2495
g82
sS'CharacterOffsetEnd'
p2496
S'438'
p2497
sS'Lemma'
p2498
S'and'
p2499
sS'PartOfSpeech'
p2500
S'CC'
p2501
sS'CharacterOffsetBegin'
p2502
S'435'
p2503
stp2504
a(S'Sam'
p2505
(dp2506
S'NamedEntityTag'
p2507
S'PERSON'
p2508
sS'CharacterOffsetEnd'
p2509
S'442'
p2510
sS'Lemma'
p2511
S'Sam'
p2512
sS'PartOfSpeech'
p2513
S'NNP'
p2514
sS'CharacterOffsetBegin'
p2515
S'439'
p2516
stp2517
a(S'Rainsy'
p2518
(dp2519
S'NamedEntityTag'
p2520
S'PERSON'
p2521
sS'CharacterOffsetEnd'
p2522
S'449'
p2523
sS'Lemma'
p2524
S'Rainsy'
p2525
sS'PartOfSpeech'
p2526
S'NNP'
p2527
sS'CharacterOffsetBegin'
p2528
S'443'
p2529
stp2530
a(g339
(dp2531
S'NamedEntityTag'
p2532
g82
sS'CharacterOffsetEnd'
p2533
S'450'
p2534
sS'Lemma'
p2535
g339
sS'PartOfSpeech'
p2536
g339
sS'CharacterOffsetBegin'
p2537
S'449'
p2538
stp2539
a(S'citing'
p2540
(dp2541
S'NamedEntityTag'
p2542
g82
sS'CharacterOffsetEnd'
p2543
S'457'
p2544
sS'Lemma'
p2545
S'cite'
p2546
sS'PartOfSpeech'
p2547
S'VBG'
p2548
sS'CharacterOffsetBegin'
p2549
S'451'
p2550
stp2551
a(S'Hun'
p2552
(dp2553
S'NamedEntityTag'
p2554
S'PERSON'
p2555
sS'CharacterOffsetEnd'
p2556
S'461'
p2557
sS'Lemma'
p2558
S'Hun'
p2559
sS'PartOfSpeech'
p2560
S'NNP'
p2561
sS'CharacterOffsetBegin'
p2562
S'458'
p2563
stp2564
a(S'Sens'
p2565
(dp2566
S'NamedEntityTag'
p2567
S'PERSON'
p2568
sS'CharacterOffsetEnd'
p2569
S'466'
p2570
sS'Lemma'
p2571
S'Sens'
p2572
sS'PartOfSpeech'
p2573
S'NNP'
p2574
sS'CharacterOffsetBegin'
p2575
S'462'
p2576
stp2577
a(S'threats'
p2578
(dp2579
S'NamedEntityTag'
p2580
g82
sS'CharacterOffsetEnd'
p2581
S'474'
p2582
sS'Lemma'
p2583
S'threat'
p2584
sS'PartOfSpeech'
p2585
S'NNS'
p2586
sS'CharacterOffsetBegin'
p2587
S'467'
p2588
stp2589
a(S'to'
p2590
(dp2591
S'NamedEntityTag'
p2592
g82
sS'CharacterOffsetEnd'
p2593
S'477'
p2594
sS'Lemma'
p2595
S'to'
p2596
sS'PartOfSpeech'
p2597
S'TO'
p2598
sS'CharacterOffsetBegin'
p2599
S'475'
p2600
stp2601
a(S'arrest'
p2602
(dp2603
S'NamedEntityTag'
p2604
g82
sS'CharacterOffsetEnd'
p2605
S'484'
p2606
sS'Lemma'
p2607
S'arrest'
p2608
sS'PartOfSpeech'
p2609
S'VB'
p2610
sS'CharacterOffsetBegin'
p2611
S'478'
p2612
stp2613
a(S'opposition'
p2614
(dp2615
S'NamedEntityTag'
p2616
g82
sS'CharacterOffsetEnd'
p2617
S'495'
p2618
sS'Lemma'
p2619
S'opposition'
p2620
sS'PartOfSpeech'
p2621
S'NN'
p2622
sS'CharacterOffsetBegin'
p2623
S'485'
p2624
stp2625
a(S'figures'
p2626
(dp2627
S'NamedEntityTag'
p2628
g82
sS'CharacterOffsetEnd'
p2629
S'503'
p2630
sS'Lemma'
p2631
S'figure'
p2632
sS'PartOfSpeech'
p2633
S'NNS'
p2634
sS'CharacterOffsetBegin'
p2635
S'496'
p2636
stp2637
a(S'after'
p2638
(dp2639
S'NamedEntityTag'
p2640
g82
sS'CharacterOffsetEnd'
p2641
S'509'
p2642
sS'Lemma'
p2643
S'after'
p2644
sS'PartOfSpeech'
p2645
S'IN'
p2646
sS'CharacterOffsetBegin'
p2647
S'504'
p2648
stp2649
a(S'two'
p2650
(dp2651
S'NormalizedNamedEntityTag'
p2652
S'2.0'
p2653
sS'Lemma'
p2654
S'two'
p2655
sS'CharacterOffsetEnd'
p2656
S'513'
p2657
sS'PartOfSpeech'
p2658
S'CD'
p2659
sS'CharacterOffsetBegin'
p2660
S'510'
p2661
sS'NamedEntityTag'
p2662
S'NUMBER'
p2663
stp2664
a(S'alleged'
p2665
(dp2666
S'NamedEntityTag'
p2667
g82
sS'CharacterOffsetEnd'
p2668
S'521'
p2669
sS'Lemma'
p2670
S'alleged'
p2671
sS'PartOfSpeech'
p2672
S'JJ'
p2673
sS'CharacterOffsetBegin'
p2674
S'514'
p2675
stp2676
a(S'attempts'
p2677
(dp2678
S'NamedEntityTag'
p2679
g82
sS'CharacterOffsetEnd'
p2680
S'530'
p2681
sS'Lemma'
p2682
S'attempt'
p2683
sS'PartOfSpeech'
p2684
S'NNS'
p2685
sS'CharacterOffsetBegin'
p2686
S'522'
p2687
stp2688
a(S'on'
p2689
(dp2690
S'NamedEntityTag'
p2691
g82
sS'CharacterOffsetEnd'
p2692
S'533'
p2693
sS'Lemma'
p2694
S'on'
p2695
sS'PartOfSpeech'
p2696
S'IN'
p2697
sS'CharacterOffsetBegin'
p2698
S'531'
p2699
stp2700
a(S'his'
p2701
(dp2702
S'NamedEntityTag'
p2703
g82
sS'CharacterOffsetEnd'
p2704
S'537'
p2705
sS'Lemma'
p2706
S'he'
p2707
sS'PartOfSpeech'
p2708
S'PRP$'
p2709
sS'CharacterOffsetBegin'
p2710
S'534'
p2711
stp2712
a(S'life'
p2713
(dp2714
S'NamedEntityTag'
p2715
g82
sS'CharacterOffsetEnd'
p2716
S'542'
p2717
sS'Lemma'
p2718
S'life'
p2719
sS'PartOfSpeech'
p2720
S'NN'
p2721
sS'CharacterOffsetBegin'
p2722
S'538'
p2723
stp2724
a(g339
(dp2725
S'NamedEntityTag'
p2726
g82
sS'CharacterOffsetEnd'
p2727
S'543'
p2728
sS'Lemma'
p2729
g339
sS'PartOfSpeech'
p2730
g339
sS'CharacterOffsetBegin'
p2731
S'542'
p2732
stp2733
a(S'said'
p2734
(dp2735
S'NamedEntityTag'
p2736
g82
sS'CharacterOffsetEnd'
p2737
S'548'
p2738
sS'Lemma'
p2739
S'say'
p2740
sS'PartOfSpeech'
p2741
S'VBD'
p2742
sS'CharacterOffsetBegin'
p2743
S'544'
p2744
stp2745
a(S'they'
p2746
(dp2747
S'NamedEntityTag'
p2748
g82
sS'CharacterOffsetEnd'
p2749
S'553'
p2750
sS'Lemma'
p2751
S'they'
p2752
sS'PartOfSpeech'
p2753
S'PRP'
p2754
sS'CharacterOffsetBegin'
p2755
S'549'
p2756
stp2757
a(S'could'
p2758
(dp2759
S'NamedEntityTag'
p2760
g82
sS'CharacterOffsetEnd'
p2761
S'559'
p2762
sS'Lemma'
p2763
S'could'
p2764
sS'PartOfSpeech'
p2765
S'MD'
p2766
sS'CharacterOffsetBegin'
p2767
S'554'
p2768
stp2769
a(S'not'
p2770
(dp2771
S'NamedEntityTag'
p2772
g82
sS'CharacterOffsetEnd'
p2773
S'563'
p2774
sS'Lemma'
p2775
S'not'
p2776
sS'PartOfSpeech'
p2777
S'RB'
p2778
sS'CharacterOffsetBegin'
p2779
S'560'
p2780
stp2781
a(S'negotiate'
p2782
(dp2783
S'NamedEntityTag'
p2784
g82
sS'CharacterOffsetEnd'
p2785
S'573'
p2786
sS'Lemma'
p2787
S'negotiate'
p2788
sS'PartOfSpeech'
p2789
S'VB'
p2790
sS'CharacterOffsetBegin'
p2791
S'564'
p2792
stp2793
a(S'freely'
p2794
(dp2795
S'NamedEntityTag'
p2796
g82
sS'CharacterOffsetEnd'
p2797
S'580'
p2798
sS'Lemma'
p2799
S'freely'
p2800
sS'PartOfSpeech'
p2801
S'RB'
p2802
sS'CharacterOffsetBegin'
p2803
S'574'
p2804
stp2805
a(S'in'
p2806
(dp2807
S'NamedEntityTag'
p2808
g82
sS'CharacterOffsetEnd'
p2809
S'583'
p2810
sS'Lemma'
p2811
S'in'
p2812
sS'PartOfSpeech'
p2813
S'IN'
p2814
sS'CharacterOffsetBegin'
p2815
S'581'
p2816
stp2817
a(S'Cambodia'
p2818
(dp2819
S'NamedEntityTag'
p2820
S'LOCATION'
p2821
sS'CharacterOffsetEnd'
p2822
S'592'
p2823
sS'Lemma'
p2824
S'Cambodia'
p2825
sS'PartOfSpeech'
p2826
S'NNP'
p2827
sS'CharacterOffsetBegin'
p2828
S'584'
p2829
stp2830
a(S'and'
p2831
(dp2832
S'NamedEntityTag'
p2833
g82
sS'CharacterOffsetEnd'
p2834
S'596'
p2835
sS'Lemma'
p2836
S'and'
p2837
sS'PartOfSpeech'
p2838
S'CC'
p2839
sS'CharacterOffsetBegin'
p2840
S'593'
p2841
stp2842
a(S'called'
p2843
(dp2844
S'NamedEntityTag'
p2845
g82
sS'CharacterOffsetEnd'
p2846
S'603'
p2847
sS'Lemma'
p2848
S'call'
p2849
sS'PartOfSpeech'
p2850
S'VBN'
p2851
sS'CharacterOffsetBegin'
p2852
S'597'
p2853
stp2854
a(S'for'
p2855
(dp2856
S'NamedEntityTag'
p2857
g82
sS'CharacterOffsetEnd'
p2858
S'607'
p2859
sS'Lemma'
p2860
S'for'
p2861
sS'PartOfSpeech'
p2862
S'IN'
p2863
sS'CharacterOffsetBegin'
p2864
S'604'
p2865
stp2866
a(S'talks'
p2867
(dp2868
S'NamedEntityTag'
p2869
g82
sS'CharacterOffsetEnd'
p2870
S'613'
p2871
sS'Lemma'
p2872
S'talk'
p2873
sS'PartOfSpeech'
p2874
S'NNS'
p2875
sS'CharacterOffsetBegin'
p2876
S'608'
p2877
stp2878
a(S'at'
p2879
(dp2880
S'NamedEntityTag'
p2881
g82
sS'CharacterOffsetEnd'
p2882
S'616'
p2883
sS'Lemma'
p2884
S'at'
p2885
sS'PartOfSpeech'
p2886
S'IN'
p2887
sS'CharacterOffsetBegin'
p2888
S'614'
p2889
stp2890
a(S'Sihanouks'
p2891
(dp2892
S'NamedEntityTag'
p2893
g82
sS'CharacterOffsetEnd'
p2894
S'626'
p2895
sS'Lemma'
p2896
S'Sihanouks'
p2897
sS'PartOfSpeech'
p2898
S'NNP'
p2899
sS'CharacterOffsetBegin'
p2900
S'617'
p2901
stp2902
a(S'residence'
p2903
(dp2904
S'NamedEntityTag'
p2905
g82
sS'CharacterOffsetEnd'
p2906
S'636'
p2907
sS'Lemma'
p2908
S'residence'
p2909
sS'PartOfSpeech'
p2910
S'NN'
p2911
sS'CharacterOffsetBegin'
p2912
S'627'
p2913
stp2914
a(S'in'
p2915
(dp2916
S'NamedEntityTag'
p2917
g82
sS'CharacterOffsetEnd'
p2918
S'639'
p2919
sS'Lemma'
p2920
S'in'
p2921
sS'PartOfSpeech'
p2922
S'IN'
p2923
sS'CharacterOffsetBegin'
p2924
S'637'
p2925
stp2926
a(S'Beijing'
p2927
(dp2928
S'NamedEntityTag'
p2929
S'LOCATION'
p2930
sS'CharacterOffsetEnd'
p2931
S'647'
p2932
sS'Lemma'
p2933
S'Beijing'
p2934
sS'PartOfSpeech'
p2935
S'NNP'
p2936
sS'CharacterOffsetBegin'
p2937
S'640'
p2938
stp2939
a(g616
(dp2940
S'NamedEntityTag'
p2941
g82
sS'CharacterOffsetEnd'
p2942
S'648'
p2943
sS'Lemma'
p2944
g616
sS'PartOfSpeech'
p2945
g616
sS'CharacterOffsetBegin'
p2946
S'647'
p2947
stp2948
asa(dp2949
g7
S'(ROOT (S (NP (NNP Hun) (NNP Sen)) (, ,) (ADVP (RB however)) (, ,) (VP (VBD rejected) (ADVP (IN that))) (. .)))'
p2950
sg9
S'Hun Sen, however, rejected that.'
p2951
sg11
(lp2952
(S'root'
p2953
S'ROOT'
p2954
S'rejected'
p2955
tp2956
a(S'nn'
p2957
S'Sen'
p2958
S'Hun'
p2959
tp2960
a(S'nsubj'
p2961
S'rejected'
p2962
S'Sen'
p2963
tp2964
a(S'advmod'
p2965
S'rejected'
p2966
S'however'
p2967
tp2968
a(S'advmod'
p2969
S'rejected'
p2970
S'that'
p2971
tp2972
asg41
(lp2973
(g2953
S'ROOT-0'
p2974
S'rejected-6'
p2975
tp2976
a(g2957
S'Sen-2'
p2977
S'Hun-1'
p2978
tp2979
a(g2961
S'rejected-6'
p2980
S'Sen-2'
p2981
tp2982
a(g2965
S'rejected-6'
p2983
S'however-4'
p2984
tp2985
a(g2969
S'rejected-6'
p2986
S'that-7'
p2987
tp2988
asg64
(lp2989
(S'Hun'
p2990
(dp2991
S'NamedEntityTag'
p2992
S'PERSON'
p2993
sS'CharacterOffsetEnd'
p2994
S'652'
p2995
sS'Lemma'
p2996
S'Hun'
p2997
sS'PartOfSpeech'
p2998
S'NNP'
p2999
sS'CharacterOffsetBegin'
p3000
S'649'
p3001
stp3002
a(S'Sen'
p3003
(dp3004
S'NamedEntityTag'
p3005
S'PERSON'
p3006
sS'CharacterOffsetEnd'
p3007
S'656'
p3008
sS'Lemma'
p3009
S'Sen'
p3010
sS'PartOfSpeech'
p3011
S'NNP'
p3012
sS'CharacterOffsetBegin'
p3013
S'653'
p3014
stp3015
a(g339
(dp3016
S'NamedEntityTag'
p3017
g82
sS'CharacterOffsetEnd'
p3018
S'657'
p3019
sS'Lemma'
p3020
g339
sS'PartOfSpeech'
p3021
g339
sS'CharacterOffsetBegin'
p3022
S'656'
p3023
stp3024
a(S'however'
p3025
(dp3026
S'NamedEntityTag'
p3027
g82
sS'CharacterOffsetEnd'
p3028
S'665'
p3029
sS'Lemma'
p3030
S'however'
p3031
sS'PartOfSpeech'
p3032
S'RB'
p3033
sS'CharacterOffsetBegin'
p3034
S'658'
p3035
stp3036
a(g339
(dp3037
S'NamedEntityTag'
p3038
g82
sS'CharacterOffsetEnd'
p3039
S'666'
p3040
sS'Lemma'
p3041
g339
sS'PartOfSpeech'
p3042
g339
sS'CharacterOffsetBegin'
p3043
S'665'
p3044
stp3045
a(S'rejected'
p3046
(dp3047
S'NamedEntityTag'
p3048
g82
sS'CharacterOffsetEnd'
p3049
S'675'
p3050
sS'Lemma'
p3051
S'reject'
p3052
sS'PartOfSpeech'
p3053
S'VBD'
p3054
sS'CharacterOffsetBegin'
p3055
S'667'
p3056
stp3057
a(S'that'
p3058
(dp3059
S'NamedEntityTag'
p3060
g82
sS'CharacterOffsetEnd'
p3061
S'680'
p3062
sS'Lemma'
p3063
S'that'
p3064
sS'PartOfSpeech'
p3065
S'IN'
p3066
sS'CharacterOffsetBegin'
p3067
S'676'
p3068
stp3069
a(g616
(dp3070
S'NamedEntityTag'
p3071
g82
sS'CharacterOffsetEnd'
p3072
S'681'
p3073
sS'Lemma'
p3074
g616
sS'PartOfSpeech'
p3075
g616
sS'CharacterOffsetBegin'
p3076
S'680'
p3077
stp3078
asa(dp3079
g7
S'(ROOT (S (S (NP (PRP I)) (VP (MD would) (VP (VB like) (S (VP (TO to) (VP (VB make) (S (NP (PRP it)) (ADJP (JJ clear)))))) (SBAR (IN that) (S (NP (NP (DT all) (NNS meetings)) (VP (VBN related) (PP (TO to) (NP (JJ Cambodian) (NNS affairs))))) (VP (MD must) (VP (VB be) (VP (VBN conducted) (PP (IN in) (NP (NP (DT the) (NNP Kingdom)) (PP (IN of) (NP (NNP Cambodia))))))))))))) (, ,) (NP (NNP Hun) (NNP Sen)) (VP (VBD told) (NP (NNS reporters)) (PP (IN after) (NP (DT a) (NNP Cabinet) (NN meeting))) (PP (IN on) (NP (NNP Friday)))) (. .)))'
p3080
sg9
S'I would like to make it clear that all meetings related to Cambodian affairs must be conducted in the Kingdom of Cambodia, Hun Sen told reporters after a Cabinet meeting on Friday.'
p3081
sg11
(lp3082
(S'root'
p3083
S'ROOT'
p3084
S'told'
p3085
tp3086
a(S'nsubj'
p3087
S'like'
p3088
S'I'
p3089
tp3090
a(S'aux'
p3091
S'like'
p3092
S'would'
p3093
tp3094
a(S'ccomp'
p3095
S'told'
p3096
S'like'
p3097
tp3098
a(S'aux'
p3099
S'make'
p3100
S'to'
p3101
tp3102
a(S'xcomp'
p3103
S'like'
p3104
S'make'
p3105
tp3106
a(S'nsubj'
p3107
S'clear'
p3108
S'it'
p3109
tp3110
a(S'xcomp'
p3111
S'make'
p3112
S'clear'
p3113
tp3114
a(S'mark'
p3115
S'conducted'
p3116
S'that'
p3117
tp3118
a(S'det'
p3119
S'meetings'
p3120
S'all'
p3121
tp3122
a(S'nsubjpass'
p3123
S'conducted'
p3124
S'meetings'
p3125
tp3126
a(S'partmod'
p3127
S'meetings'
p3128
S'related'
p3129
tp3130
a(S'amod'
p3131
S'affairs'
p3132
S'Cambodian'
p3133
tp3134
a(S'prep_to'
p3135
S'related'
p3136
S'affairs'
p3137
tp3138
a(S'aux'
p3139
S'conducted'
p3140
S'must'
p3141
tp3142
a(S'auxpass'
p3143
S'conducted'
p3144
S'be'
p3145
tp3146
a(S'ccomp'
p3147
S'like'
p3148
S'conducted'
p3149
tp3150
a(S'det'
p3151
S'Kingdom'
p3152
S'the'
p3153
tp3154
a(S'prep_in'
p3155
S'conducted'
p3156
S'Kingdom'
p3157
tp3158
a(S'prep_of'
p3159
S'Kingdom'
p3160
S'Cambodia'
p3161
tp3162
a(S'nn'
p3163
S'Sen'
p3164
S'Hun'
p3165
tp3166
a(S'nsubj'
p3167
S'told'
p3168
S'Sen'
p3169
tp3170
a(S'dobj'
p3171
S'told'
p3172
S'reporters'
p3173
tp3174
a(S'det'
p3175
S'meeting'
p3176
g1596
tp3177
a(S'nn'
p3178
S'meeting'
p3179
S'Cabinet'
p3180
tp3181
a(S'prep_after'
p3182
S'told'
p3183
S'meeting'
p3184
tp3185
a(S'prep_on'
p3186
S'told'
p3187
S'Friday'
p3188
tp3189
asg41
(lp3190
(g3083
S'ROOT-0'
p3191
S'told-26'
p3192
tp3193
a(g3087
S'like-3'
p3194
S'I-1'
p3195
tp3196
a(g3091
S'like-3'
p3197
S'would-2'
p3198
tp3199
a(g3095
S'told-26'
p3200
S'like-3'
p3201
tp3202
a(g3099
S'make-5'
p3203
S'to-4'
p3204
tp3205
a(g3103
S'like-3'
p3206
S'make-5'
p3207
tp3208
a(g3107
S'clear-7'
p3209
S'it-6'
p3210
tp3211
a(g3111
S'make-5'
p3212
S'clear-7'
p3213
tp3214
a(g3115
S'conducted-17'
p3215
S'that-8'
p3216
tp3217
a(g3119
S'meetings-10'
p3218
S'all-9'
p3219
tp3220
a(g3123
S'conducted-17'
p3221
S'meetings-10'
p3222
tp3223
a(g3127
S'meetings-10'
p3224
S'related-11'
p3225
tp3226
a(g3131
S'affairs-14'
p3227
S'Cambodian-13'
p3228
tp3229
a(g3135
S'related-11'
p3230
S'affairs-14'
p3231
tp3232
a(g3139
S'conducted-17'
p3233
S'must-15'
p3234
tp3235
a(g3143
S'conducted-17'
p3236
S'be-16'
p3237
tp3238
a(g3147
S'like-3'
p3239
S'conducted-17'
p3240
tp3241
a(g3151
S'Kingdom-20'
p3242
S'the-19'
p3243
tp3244
a(g3155
S'conducted-17'
p3245
S'Kingdom-20'
p3246
tp3247
a(g3159
S'Kingdom-20'
p3248
S'Cambodia-22'
p3249
tp3250
a(g3163
S'Sen-25'
p3251
S'Hun-24'
p3252
tp3253
a(g3167
S'told-26'
p3254
S'Sen-25'
p3255
tp3256
a(g3171
S'told-26'
p3257
S'reporters-27'
p3258
tp3259
a(g3175
S'meeting-31'
p3260
S'a-29'
p3261
tp3262
a(g3178
S'meeting-31'
p3263
S'Cabinet-30'
p3264
tp3265
a(g3182
S'told-26'
p3266
S'meeting-31'
p3267
tp3268
a(g3186
S'told-26'
p3269
S'Friday-33'
p3270
tp3271
asg64
(lp3272
(g3089
(dp3273
S'NamedEntityTag'
p3274
g82
sS'CharacterOffsetEnd'
p3275
S'683'
p3276
sS'Lemma'
p3277
g3089
sS'PartOfSpeech'
p3278
S'PRP'
p3279
sS'CharacterOffsetBegin'
p3280
S'682'
p3281
stp3282
a(S'would'
p3283
(dp3284
S'NamedEntityTag'
p3285
g82
sS'CharacterOffsetEnd'
p3286
S'689'
p3287
sS'Lemma'
p3288
S'would'
p3289
sS'PartOfSpeech'
p3290
S'MD'
p3291
sS'CharacterOffsetBegin'
p3292
S'684'
p3293
stp3294
a(S'like'
p3295
(dp3296
S'NamedEntityTag'
p3297
g82
sS'CharacterOffsetEnd'
p3298
S'694'
p3299
sS'Lemma'
p3300
S'like'
p3301
sS'PartOfSpeech'
p3302
S'VB'
p3303
sS'CharacterOffsetBegin'
p3304
S'690'
p3305
stp3306
a(S'to'
p3307
(dp3308
S'NamedEntityTag'
p3309
g82
sS'CharacterOffsetEnd'
p3310
S'697'
p3311
sS'Lemma'
p3312
S'to'
p3313
sS'PartOfSpeech'
p3314
S'TO'
p3315
sS'CharacterOffsetBegin'
p3316
S'695'
p3317
stp3318
a(S'make'
p3319
(dp3320
S'NamedEntityTag'
p3321
g82
sS'CharacterOffsetEnd'
p3322
S'702'
p3323
sS'Lemma'
p3324
S'make'
p3325
sS'PartOfSpeech'
p3326
S'VB'
p3327
sS'CharacterOffsetBegin'
p3328
S'698'
p3329
stp3330
a(S'it'
p3331
(dp3332
S'NamedEntityTag'
p3333
g82
sS'CharacterOffsetEnd'
p3334
S'705'
p3335
sS'Lemma'
p3336
S'it'
p3337
sS'PartOfSpeech'
p3338
S'PRP'
p3339
sS'CharacterOffsetBegin'
p3340
S'703'
p3341
stp3342
a(S'clear'
p3343
(dp3344
S'NamedEntityTag'
p3345
g82
sS'CharacterOffsetEnd'
p3346
S'711'
p3347
sS'Lemma'
p3348
S'clear'
p3349
sS'PartOfSpeech'
p3350
S'JJ'
p3351
sS'CharacterOffsetBegin'
p3352
S'706'
p3353
stp3354
a(S'that'
p3355
(dp3356
S'NamedEntityTag'
p3357
g82
sS'CharacterOffsetEnd'
p3358
S'716'
p3359
sS'Lemma'
p3360
S'that'
p3361
sS'PartOfSpeech'
p3362
S'IN'
p3363
sS'CharacterOffsetBegin'
p3364
S'712'
p3365
stp3366
a(S'all'
p3367
(dp3368
S'NamedEntityTag'
p3369
g82
sS'CharacterOffsetEnd'
p3370
S'720'
p3371
sS'Lemma'
p3372
S'all'
p3373
sS'PartOfSpeech'
p3374
S'DT'
p3375
sS'CharacterOffsetBegin'
p3376
S'717'
p3377
stp3378
a(S'meetings'
p3379
(dp3380
S'NamedEntityTag'
p3381
g82
sS'CharacterOffsetEnd'
p3382
S'729'
p3383
sS'Lemma'
p3384
S'meeting'
p3385
sS'PartOfSpeech'
p3386
S'NNS'
p3387
sS'CharacterOffsetBegin'
p3388
S'721'
p3389
stp3390
a(S'related'
p3391
(dp3392
S'NamedEntityTag'
p3393
g82
sS'CharacterOffsetEnd'
p3394
S'737'
p3395
sS'Lemma'
p3396
S'relate'
p3397
sS'PartOfSpeech'
p3398
S'VBN'
p3399
sS'CharacterOffsetBegin'
p3400
S'730'
p3401
stp3402
a(S'to'
p3403
(dp3404
S'NamedEntityTag'
p3405
g82
sS'CharacterOffsetEnd'
p3406
S'740'
p3407
sS'Lemma'
p3408
S'to'
p3409
sS'PartOfSpeech'
p3410
S'TO'
p3411
sS'CharacterOffsetBegin'
p3412
S'738'
p3413
stp3414
a(S'Cambodian'
p3415
(dp3416
S'NamedEntityTag'
p3417
S'LOCATION'
p3418
sS'CharacterOffsetEnd'
p3419
S'750'
p3420
sS'Lemma'
p3421
S'cambodian'
p3422
sS'PartOfSpeech'
p3423
S'JJ'
p3424
sS'CharacterOffsetBegin'
p3425
S'741'
p3426
stp3427
a(S'affairs'
p3428
(dp3429
S'NamedEntityTag'
p3430
g82
sS'CharacterOffsetEnd'
p3431
S'758'
p3432
sS'Lemma'
p3433
S'affair'
p3434
sS'PartOfSpeech'
p3435
S'NNS'
p3436
sS'CharacterOffsetBegin'
p3437
S'751'
p3438
stp3439
a(S'must'
p3440
(dp3441
S'NamedEntityTag'
p3442
g82
sS'CharacterOffsetEnd'
p3443
S'763'
p3444
sS'Lemma'
p3445
S'must'
p3446
sS'PartOfSpeech'
p3447
S'MD'
p3448
sS'CharacterOffsetBegin'
p3449
S'759'
p3450
stp3451
a(S'be'
p3452
(dp3453
S'NamedEntityTag'
p3454
g82
sS'CharacterOffsetEnd'
p3455
S'766'
p3456
sS'Lemma'
p3457
S'be'
p3458
sS'PartOfSpeech'
p3459
S'VB'
p3460
sS'CharacterOffsetBegin'
p3461
S'764'
p3462
stp3463
a(S'conducted'
p3464
(dp3465
S'NamedEntityTag'
p3466
g82
sS'CharacterOffsetEnd'
p3467
S'776'
p3468
sS'Lemma'
p3469
S'conduct'
p3470
sS'PartOfSpeech'
p3471
S'VBN'
p3472
sS'CharacterOffsetBegin'
p3473
S'767'
p3474
stp3475
a(S'in'
p3476
(dp3477
S'NamedEntityTag'
p3478
g82
sS'CharacterOffsetEnd'
p3479
S'779'
p3480
sS'Lemma'
p3481
S'in'
p3482
sS'PartOfSpeech'
p3483
S'IN'
p3484
sS'CharacterOffsetBegin'
p3485
S'777'
p3486
stp3487
a(S'the'
p3488
(dp3489
S'NamedEntityTag'
p3490
g82
sS'CharacterOffsetEnd'
p3491
S'783'
p3492
sS'Lemma'
p3493
S'the'
p3494
sS'PartOfSpeech'
p3495
S'DT'
p3496
sS'CharacterOffsetBegin'
p3497
S'780'
p3498
stp3499
a(S'Kingdom'
p3500
(dp3501
S'NamedEntityTag'
p3502
g82
sS'CharacterOffsetEnd'
p3503
S'791'
p3504
sS'Lemma'
p3505
S'Kingdom'
p3506
sS'PartOfSpeech'
p3507
S'NNP'
p3508
sS'CharacterOffsetBegin'
p3509
S'784'
p3510
stp3511
a(S'of'
p3512
(dp3513
S'NamedEntityTag'
p3514
g82
sS'CharacterOffsetEnd'
p3515
S'794'
p3516
sS'Lemma'
p3517
S'of'
p3518
sS'PartOfSpeech'
p3519
S'IN'
p3520
sS'CharacterOffsetBegin'
p3521
S'792'
p3522
stp3523
a(S'Cambodia'
p3524
(dp3525
S'NamedEntityTag'
p3526
S'LOCATION'
p3527
sS'CharacterOffsetEnd'
p3528
S'803'
p3529
sS'Lemma'
p3530
S'Cambodia'
p3531
sS'PartOfSpeech'
p3532
S'NNP'
p3533
sS'CharacterOffsetBegin'
p3534
S'795'
p3535
stp3536
a(g339
(dp3537
S'NamedEntityTag'
p3538
g82
sS'CharacterOffsetEnd'
p3539
S'804'
p3540
sS'Lemma'
p3541
g339
sS'PartOfSpeech'
p3542
g339
sS'CharacterOffsetBegin'
p3543
S'803'
p3544
stp3545
a(S'Hun'
p3546
(dp3547
S'NamedEntityTag'
p3548
S'PERSON'
p3549
sS'CharacterOffsetEnd'
p3550
S'808'
p3551
sS'Lemma'
p3552
S'Hun'
p3553
sS'PartOfSpeech'
p3554
S'NNP'
p3555
sS'CharacterOffsetBegin'
p3556
S'805'
p3557
stp3558
a(S'Sen'
p3559
(dp3560
S'NamedEntityTag'
p3561
S'PERSON'
p3562
sS'CharacterOffsetEnd'
p3563
S'812'
p3564
sS'Lemma'
p3565
S'Sen'
p3566
sS'PartOfSpeech'
p3567
S'NNP'
p3568
sS'CharacterOffsetBegin'
p3569
S'809'
p3570
stp3571
a(S'told'
p3572
(dp3573
S'NamedEntityTag'
p3574
g82
sS'CharacterOffsetEnd'
p3575
S'817'
p3576
sS'Lemma'
p3577
S'tell'
p3578
sS'PartOfSpeech'
p3579
S'VBD'
p3580
sS'CharacterOffsetBegin'
p3581
S'813'
p3582
stp3583
a(S'reporters'
p3584
(dp3585
S'NamedEntityTag'
p3586
g82
sS'CharacterOffsetEnd'
p3587
S'827'
p3588
sS'Lemma'
p3589
S'reporter'
p3590
sS'PartOfSpeech'
p3591
S'NNS'
p3592
sS'CharacterOffsetBegin'
p3593
S'818'
p3594
stp3595
a(S'after'
p3596
(dp3597
S'NamedEntityTag'
p3598
g82
sS'CharacterOffsetEnd'
p3599
S'833'
p3600
sS'Lemma'
p3601
S'after'
p3602
sS'PartOfSpeech'
p3603
S'IN'
p3604
sS'CharacterOffsetBegin'
p3605
S'828'
p3606
stp3607
a(g1596
(dp3608
S'NamedEntityTag'
p3609
g82
sS'CharacterOffsetEnd'
p3610
S'835'
p3611
sS'Lemma'
p3612
g1596
sS'PartOfSpeech'
p3613
S'DT'
p3614
sS'CharacterOffsetBegin'
p3615
S'834'
p3616
stp3617
a(S'Cabinet'
p3618
(dp3619
S'NamedEntityTag'
p3620
g82
sS'CharacterOffsetEnd'
p3621
S'843'
p3622
sS'Lemma'
p3623
S'Cabinet'
p3624
sS'PartOfSpeech'
p3625
S'NNP'
p3626
sS'CharacterOffsetBegin'
p3627
S'836'
p3628
stp3629
a(S'meeting'
p3630
(dp3631
S'NamedEntityTag'
p3632
g82
sS'CharacterOffsetEnd'
p3633
S'851'
p3634
sS'Lemma'
p3635
S'meeting'
p3636
sS'PartOfSpeech'
p3637
S'NN'
p3638
sS'CharacterOffsetBegin'
p3639
S'844'
p3640
stp3641
a(S'on'
p3642
(dp3643
S'NamedEntityTag'
p3644
g82
sS'CharacterOffsetEnd'
p3645
S'854'
p3646
sS'Lemma'
p3647
S'on'
p3648
sS'PartOfSpeech'
p3649
S'IN'
p3650
sS'CharacterOffsetBegin'
p3651
S'852'
p3652
stp3653
a(S'Friday'
p3654
(dp3655
S'NormalizedNamedEntityTag'
p3656
S'XXXX-WXX-5'
p3657
sS'Timex'
p3658
S'<TIMEX3 tid="t1" type="DATE" value="XXXX-WXX-5">Friday</TIMEX3>'
p3659
sS'Lemma'
p3660
S'Friday'
p3661
sS'CharacterOffsetEnd'
p3662
S'861'
p3663
sS'PartOfSpeech'
p3664
S'NNP'
p3665
sS'CharacterOffsetBegin'
p3666
S'855'
p3667
sS'NamedEntityTag'
p3668
S'DATE'
p3669
stp3670
a(g616
(dp3671
S'NamedEntityTag'
p3672
g82
sS'CharacterOffsetEnd'
p3673
S'862'
p3674
sS'Lemma'
p3675
g616
sS'PartOfSpeech'
p3676
g616
sS'CharacterOffsetBegin'
p3677
S'861'
p3678
stp3679
asa(dp3680
g7
S'(ROOT (S (NP (NN No-one)) (VP (MD should) (VP (VB internationalize) (NP (JJ Cambodian) (NNS affairs)))) (. .)))'
p3681
sg9
S'No-one should internationalize Cambodian affairs.'
p3682
sg11
(lp3683
(S'root'
p3684
S'ROOT'
p3685
S'internationalize'
p3686
tp3687
a(S'nsubj'
p3688
S'internationalize'
p3689
S'No-one'
p3690
tp3691
a(S'aux'
p3692
S'internationalize'
p3693
S'should'
p3694
tp3695
a(S'amod'
p3696
S'affairs'
p3697
S'Cambodian'
p3698
tp3699
a(S'dobj'
p3700
S'internationalize'
p3701
S'affairs'
p3702
tp3703
asg41
(lp3704
(g3684
S'ROOT-0'
p3705
S'internationalize-3'
p3706
tp3707
a(g3688
S'internationalize-3'
p3708
S'No-one-1'
p3709
tp3710
a(g3692
S'internationalize-3'
p3711
S'should-2'
p3712
tp3713
a(g3696
S'affairs-5'
p3714
S'Cambodian-4'
p3715
tp3716
a(g3700
S'internationalize-3'
p3717
S'affairs-5'
p3718
tp3719
asg64
(lp3720
(S'No-one'
p3721
(dp3722
S'NamedEntityTag'
p3723
g82
sS'CharacterOffsetEnd'
p3724
S'869'
p3725
sS'Lemma'
p3726
S'no-one'
p3727
sS'PartOfSpeech'
p3728
S'NN'
p3729
sS'CharacterOffsetBegin'
p3730
S'863'
p3731
stp3732
a(S'should'
p3733
(dp3734
S'NamedEntityTag'
p3735
g82
sS'CharacterOffsetEnd'
p3736
S'876'
p3737
sS'Lemma'
p3738
S'should'
p3739
sS'PartOfSpeech'
p3740
S'MD'
p3741
sS'CharacterOffsetBegin'
p3742
S'870'
p3743
stp3744
a(S'internationalize'
p3745
(dp3746
S'NamedEntityTag'
p3747
g82
sS'CharacterOffsetEnd'
p3748
S'893'
p3749
sS'Lemma'
p3750
S'internationalize'
p3751
sS'PartOfSpeech'
p3752
S'VB'
p3753
sS'CharacterOffsetBegin'
p3754
S'877'
p3755
stp3756
a(S'Cambodian'
p3757
(dp3758
S'NamedEntityTag'
p3759
S'LOCATION'
p3760
sS'CharacterOffsetEnd'
p3761
S'903'
p3762
sS'Lemma'
p3763
S'cambodian'
p3764
sS'PartOfSpeech'
p3765
S'JJ'
p3766
sS'CharacterOffsetBegin'
p3767
S'894'
p3768
stp3769
a(S'affairs'
p3770
(dp3771
S'NamedEntityTag'
p3772
g82
sS'CharacterOffsetEnd'
p3773
S'911'
p3774
sS'Lemma'
p3775
S'affair'
p3776
sS'PartOfSpeech'
p3777
S'NNS'
p3778
sS'CharacterOffsetBegin'
p3779
S'904'
p3780
stp3781
a(g616
(dp3782
S'NamedEntityTag'
p3783
g82
sS'CharacterOffsetEnd'
p3784
S'912'
p3785
sS'Lemma'
p3786
g616
sS'PartOfSpeech'
p3787
g616
sS'CharacterOffsetBegin'
p3788
S'911'
p3789
stp3790
asa(dp3791
g7
S'(ROOT (S (S (NP (PRP It)) (VP (VBZ is) (ADJP (JJ detrimental) (PP (TO to) (NP (NP (DT the) (NN sovereignty)) (PP (IN of) (NP (NNP Cambodia)))))))) (, ,) (NP (PRP he)) (VP (VBD said)) (. .)))'
p3792
sg9
S'It is detrimental to the sovereignty of Cambodia, he said.'
p3793
sg11
(lp3794
(S'root'
p3795
S'ROOT'
p3796
S'said'
p3797
tp3798
a(S'nsubj'
p3799
S'detrimental'
p3800
S'It'
p3801
tp3802
a(S'cop'
p3803
S'detrimental'
p3804
S'is'
p3805
tp3806
a(S'ccomp'
p3807
S'said'
p3808
S'detrimental'
p3809
tp3810
a(S'det'
p3811
S'sovereignty'
p3812
S'the'
p3813
tp3814
a(S'prep_to'
p3815
S'detrimental'
p3816
S'sovereignty'
p3817
tp3818
a(S'prep_of'
p3819
S'sovereignty'
p3820
S'Cambodia'
p3821
tp3822
a(S'nsubj'
p3823
S'said'
p3824
S'he'
p3825
tp3826
asg41
(lp3827
(g3795
S'ROOT-0'
p3828
S'said-11'
p3829
tp3830
a(g3799
S'detrimental-3'
p3831
S'It-1'
p3832
tp3833
a(g3803
S'detrimental-3'
p3834
S'is-2'
p3835
tp3836
a(g3807
S'said-11'
p3837
S'detrimental-3'
p3838
tp3839
a(g3811
S'sovereignty-6'
p3840
S'the-5'
p3841
tp3842
a(g3815
S'detrimental-3'
p3843
S'sovereignty-6'
p3844
tp3845
a(g3819
S'sovereignty-6'
p3846
S'Cambodia-8'
p3847
tp3848
a(g3823
S'said-11'
p3849
S'he-10'
p3850
tp3851
asg64
(lp3852
(S'It'
p3853
(dp3854
S'NamedEntityTag'
p3855
g82
sS'CharacterOffsetEnd'
p3856
S'915'
p3857
sS'Lemma'
p3858
S'it'
p3859
sS'PartOfSpeech'
p3860
S'PRP'
p3861
sS'CharacterOffsetBegin'
p3862
S'913'
p3863
stp3864
a(S'is'
p3865
(dp3866
S'NamedEntityTag'
p3867
g82
sS'CharacterOffsetEnd'
p3868
S'918'
p3869
sS'Lemma'
p3870
S'be'
p3871
sS'PartOfSpeech'
p3872
S'VBZ'
p3873
sS'CharacterOffsetBegin'
p3874
S'916'
p3875
stp3876
a(S'detrimental'
p3877
(dp3878
S'NamedEntityTag'
p3879
g82
sS'CharacterOffsetEnd'
p3880
S'930'
p3881
sS'Lemma'
p3882
S'detrimental'
p3883
sS'PartOfSpeech'
p3884
S'JJ'
p3885
sS'CharacterOffsetBegin'
p3886
S'919'
p3887
stp3888
a(S'to'
p3889
(dp3890
S'NamedEntityTag'
p3891
g82
sS'CharacterOffsetEnd'
p3892
S'933'
p3893
sS'Lemma'
p3894
S'to'
p3895
sS'PartOfSpeech'
p3896
S'TO'
p3897
sS'CharacterOffsetBegin'
p3898
S'931'
p3899
stp3900
a(S'the'
p3901
(dp3902
S'NamedEntityTag'
p3903
g82
sS'CharacterOffsetEnd'
p3904
S'937'
p3905
sS'Lemma'
p3906
S'the'
p3907
sS'PartOfSpeech'
p3908
S'DT'
p3909
sS'CharacterOffsetBegin'
p3910
S'934'
p3911
stp3912
a(S'sovereignty'
p3913
(dp3914
S'NamedEntityTag'
p3915
g82
sS'CharacterOffsetEnd'
p3916
S'949'
p3917
sS'Lemma'
p3918
S'sovereignty'
p3919
sS'PartOfSpeech'
p3920
S'NN'
p3921
sS'CharacterOffsetBegin'
p3922
S'938'
p3923
stp3924
a(S'of'
p3925
(dp3926
S'NamedEntityTag'
p3927
g82
sS'CharacterOffsetEnd'
p3928
S'952'
p3929
sS'Lemma'
p3930
S'of'
p3931
sS'PartOfSpeech'
p3932
S'IN'
p3933
sS'CharacterOffsetBegin'
p3934
S'950'
p3935
stp3936
a(S'Cambodia'
p3937
(dp3938
S'NamedEntityTag'
p3939
S'LOCATION'
p3940
sS'CharacterOffsetEnd'
p3941
S'961'
p3942
sS'Lemma'
p3943
S'Cambodia'
p3944
sS'PartOfSpeech'
p3945
S'NNP'
p3946
sS'CharacterOffsetBegin'
p3947
S'953'
p3948
stp3949
a(g339
(dp3950
S'NamedEntityTag'
p3951
g82
sS'CharacterOffsetEnd'
p3952
S'962'
p3953
sS'Lemma'
p3954
g339
sS'PartOfSpeech'
p3955
g339
sS'CharacterOffsetBegin'
p3956
S'961'
p3957
stp3958
a(S'he'
p3959
(dp3960
S'NamedEntityTag'
p3961
g82
sS'CharacterOffsetEnd'
p3962
S'965'
p3963
sS'Lemma'
p3964
S'he'
p3965
sS'PartOfSpeech'
p3966
S'PRP'
p3967
sS'CharacterOffsetBegin'
p3968
S'963'
p3969
stp3970
a(S'said'
p3971
(dp3972
S'NamedEntityTag'
p3973
g82
sS'CharacterOffsetEnd'
p3974
S'970'
p3975
sS'Lemma'
p3976
S'say'
p3977
sS'PartOfSpeech'
p3978
S'VBD'
p3979
sS'CharacterOffsetBegin'
p3980
S'966'
p3981
stp3982
a(g616
(dp3983
S'NamedEntityTag'
p3984
g82
sS'CharacterOffsetEnd'
p3985
S'971'
p3986
sS'Lemma'
p3987
g616
sS'PartOfSpeech'
p3988
g616
sS'CharacterOffsetBegin'
p3989
S'970'
p3990
stp3991
asa(dp3992
g7
S'(ROOT (S (NP (NP (NNP Hun) (NNP Sens)) (NP (JJ Cambodian) (NNP Peoples) (NNP Party))) (VP (VBD won) (NP (NP (CD 64)) (PP (IN of) (NP (NP (DT the) (CD 122) (JJ parliamentary) (NNS seats)) (PP (IN in) (NP (NNP Julys) (NNS elections)))))) (, ,) (ADVP (JJ short) (PP (IN of) (NP (NP (DT the) (NNS two-thirds) (NN majority)) (VP (VBN needed) (S (VP (TO to) (VP (VB form) (NP (DT a) (NN government)) (PP (IN on) (NP (PRP$ its) (JJ own))))))))))) (. .)))'
p3993
sg9
S'Hun Sens Cambodian Peoples Party won 64 of the 122 parliamentary seats in Julys elections, short of the two-thirds majority needed to form a government on its own.'
p3994
sg11
(lp3995
(S'root'
p3996
S'ROOT'
p3997
S'won'
p3998
tp3999
a(S'nn'
p4000
S'Sens'
p4001
S'Hun'
p4002
tp4003
a(S'nsubj'
p4004
S'won'
p4005
S'Sens'
p4006
tp4007
a(S'amod'
p4008
S'Party'
p4009
S'Cambodian'
p4010
tp4011
a(S'nn'
p4012
S'Party'
p4013
S'Peoples'
p4014
tp4015
a(S'dep'
p4016
S'Sens'
p4017
S'Party'
p4018
tp4019
a(S'dobj'
p4020
S'won'
p4021
S'64'
p4022
tp4023
a(S'det'
p4024
S'seats'
p4025
S'the'
p4026
tp4027
a(S'num'
p4028
S'seats'
p4029
S'122'
p4030
tp4031
a(S'amod'
p4032
S'seats'
p4033
S'parliamentary'
p4034
tp4035
a(S'prep_of'
p4036
S'64'
p4037
S'seats'
p4038
tp4039
a(S'nn'
p4040
S'elections'
p4041
S'Julys'
p4042
tp4043
a(S'prep_in'
p4044
S'seats'
p4045
S'elections'
p4046
tp4047
a(S'advmod'
p4048
S'won'
p4049
S'short'
p4050
tp4051
a(S'det'
p4052
S'majority'
p4053
S'the'
p4054
tp4055
a(S'nn'
p4056
S'majority'
p4057
S'two-thirds'
p4058
tp4059
a(S'prep_of'
p4060
S'short'
p4061
S'majority'
p4062
tp4063
a(S'partmod'
p4064
S'majority'
p4065
S'needed'
p4066
tp4067
a(S'aux'
p4068
S'form'
p4069
S'to'
p4070
tp4071
a(S'xcomp'
p4072
S'needed'
p4073
S'form'
p4074
tp4075
a(S'det'
p4076
S'government'
p4077
g1596
tp4078
a(S'dobj'
p4079
S'form'
p4080
S'government'
p4081
tp4082
a(S'poss'
p4083
S'own'
p4084
S'its'
p4085
tp4086
a(S'prep_on'
p4087
S'form'
p4088
S'own'
p4089
tp4090
asg41
(lp4091
(g3996
S'ROOT-0'
p4092
S'won-6'
p4093
tp4094
a(g4000
S'Sens-2'
p4095
S'Hun-1'
p4096
tp4097
a(g4004
S'won-6'
p4098
S'Sens-2'
p4099
tp4100
a(g4008
S'Party-5'
p4101
S'Cambodian-3'
p4102
tp4103
a(g4012
S'Party-5'
p4104
S'Peoples-4'
p4105
tp4106
a(g4016
S'Sens-2'
p4107
S'Party-5'
p4108
tp4109
a(g4020
S'won-6'
p4110
S'64-7'
p4111
tp4112
a(g4024
S'seats-12'
p4113
S'the-9'
p4114
tp4115
a(g4028
S'seats-12'
p4116
S'122-10'
p4117
tp4118
a(g4032
S'seats-12'
p4119
S'parliamentary-11'
p4120
tp4121
a(g4036
S'64-7'
p4122
S'seats-12'
p4123
tp4124
a(g4040
S'elections-15'
p4125
S'Julys-14'
p4126
tp4127
a(g4044
S'seats-12'
p4128
S'elections-15'
p4129
tp4130
a(g4048
S'won-6'
p4131
S'short-17'
p4132
tp4133
a(g4052
S'majority-21'
p4134
S'the-19'
p4135
tp4136
a(g4056
S'majority-21'
p4137
S'two-thirds-20'
p4138
tp4139
a(g4060
S'short-17'
p4140
S'majority-21'
p4141
tp4142
a(g4064
S'majority-21'
p4143
S'needed-22'
p4144
tp4145
a(g4068
S'form-24'
p4146
S'to-23'
p4147
tp4148
a(g4072
S'needed-22'
p4149
S'form-24'
p4150
tp4151
a(g4076
S'government-26'
p4152
S'a-25'
p4153
tp4154
a(g4079
S'form-24'
p4155
S'government-26'
p4156
tp4157
a(g4083
S'own-29'
p4158
S'its-28'
p4159
tp4160
a(g4087
S'form-24'
p4161
S'own-29'
p4162
tp4163
asg64
(lp4164
(S'Hun'
p4165
(dp4166
S'NamedEntityTag'
p4167
S'ORGANIZATION'
p4168
sS'CharacterOffsetEnd'
p4169
S'975'
p4170
sS'Lemma'
p4171
S'Hun'
p4172
sS'PartOfSpeech'
p4173
S'NNP'
p4174
sS'CharacterOffsetBegin'
p4175
S'972'
p4176
stp4177
a(S'Sens'
p4178
(dp4179
S'NamedEntityTag'
p4180
S'ORGANIZATION'
p4181
sS'CharacterOffsetEnd'
p4182
S'980'
p4183
sS'Lemma'
p4184
S'Sens'
p4185
sS'PartOfSpeech'
p4186
S'NNP'
p4187
sS'CharacterOffsetBegin'
p4188
S'976'
p4189
stp4190
a(S'Cambodian'
p4191
(dp4192
S'NamedEntityTag'
p4193
S'ORGANIZATION'
p4194
sS'CharacterOffsetEnd'
p4195
S'990'
p4196
sS'Lemma'
p4197
S'cambodian'
p4198
sS'PartOfSpeech'
p4199
S'JJ'
p4200
sS'CharacterOffsetBegin'
p4201
S'981'
p4202
stp4203
a(S'Peoples'
p4204
(dp4205
S'NamedEntityTag'
p4206
S'ORGANIZATION'
p4207
sS'CharacterOffsetEnd'
p4208
S'998'
p4209
sS'Lemma'
p4210
S'Peoples'
p4211
sS'PartOfSpeech'
p4212
S'NNP'
p4213
sS'CharacterOffsetBegin'
p4214
S'991'
p4215
stp4216
a(S'Party'
p4217
(dp4218
S'NamedEntityTag'
p4219
S'ORGANIZATION'
p4220
sS'CharacterOffsetEnd'
p4221
S'1004'
p4222
sS'Lemma'
p4223
S'Party'
p4224
sS'PartOfSpeech'
p4225
S'NNP'
p4226
sS'CharacterOffsetBegin'
p4227
S'999'
p4228
stp4229
a(S'won'
p4230
(dp4231
S'NamedEntityTag'
p4232
g82
sS'CharacterOffsetEnd'
p4233
S'1008'
p4234
sS'Lemma'
p4235
S'win'
p4236
sS'PartOfSpeech'
p4237
S'VBD'
p4238
sS'CharacterOffsetBegin'
p4239
S'1005'
p4240
stp4241
a(S'64'
p4242
(dp4243
S'NormalizedNamedEntityTag'
p4244
S'64.0'
p4245
sS'Lemma'
p4246
S'64'
p4247
sS'CharacterOffsetEnd'
p4248
S'1011'
p4249
sS'PartOfSpeech'
p4250
S'CD'
p4251
sS'CharacterOffsetBegin'
p4252
S'1009'
p4253
sS'NamedEntityTag'
p4254
S'NUMBER'
p4255
stp4256
a(S'of'
p4257
(dp4258
S'NamedEntityTag'
p4259
g82
sS'CharacterOffsetEnd'
p4260
S'1014'
p4261
sS'Lemma'
p4262
S'of'
p4263
sS'PartOfSpeech'
p4264
S'IN'
p4265
sS'CharacterOffsetBegin'
p4266
S'1012'
p4267
stp4268
a(S'the'
p4269
(dp4270
S'NamedEntityTag'
p4271
g82
sS'CharacterOffsetEnd'
p4272
S'1018'
p4273
sS'Lemma'
p4274
S'the'
p4275
sS'PartOfSpeech'
p4276
S'DT'
p4277
sS'CharacterOffsetBegin'
p4278
S'1015'
p4279
stp4280
a(S'122'
p4281
(dp4282
S'NormalizedNamedEntityTag'
p4283
S'122.0'
p4284
sS'Lemma'
p4285
S'122'
p4286
sS'CharacterOffsetEnd'
p4287
S'1022'
p4288
sS'PartOfSpeech'
p4289
S'CD'
p4290
sS'CharacterOffsetBegin'
p4291
S'1019'
p4292
sS'NamedEntityTag'
p4293
S'NUMBER'
p4294
stp4295
a(S'parliamentary'
p4296
(dp4297
S'NamedEntityTag'
p4298
g82
sS'CharacterOffsetEnd'
p4299
S'1036'
p4300
sS'Lemma'
p4301
S'parliamentary'
p4302
sS'PartOfSpeech'
p4303
S'JJ'
p4304
sS'CharacterOffsetBegin'
p4305
S'1023'
p4306
stp4307
a(S'seats'
p4308
(dp4309
S'NamedEntityTag'
p4310
g82
sS'CharacterOffsetEnd'
p4311
S'1042'
p4312
sS'Lemma'
p4313
S'seat'
p4314
sS'PartOfSpeech'
p4315
S'NNS'
p4316
sS'CharacterOffsetBegin'
p4317
S'1037'
p4318
stp4319
a(S'in'
p4320
(dp4321
S'NamedEntityTag'
p4322
g82
sS'CharacterOffsetEnd'
p4323
S'1045'
p4324
sS'Lemma'
p4325
S'in'
p4326
sS'PartOfSpeech'
p4327
S'IN'
p4328
sS'CharacterOffsetBegin'
p4329
S'1043'
p4330
stp4331
a(S'Julys'
p4332
(dp4333
S'NormalizedNamedEntityTag'
p4334
S'XXXX-07'
p4335
sS'Timex'
p4336
S'<TIMEX3 tid="t2" type="DATE" value="XXXX-07">Julys</TIMEX3>'
p4337
sS'Lemma'
p4338
S'Julys'
p4339
sS'CharacterOffsetEnd'
p4340
S'1051'
p4341
sS'PartOfSpeech'
p4342
S'NNP'
p4343
sS'CharacterOffsetBegin'
p4344
S'1046'
p4345
sS'NamedEntityTag'
p4346
S'DATE'
p4347
stp4348
a(S'elections'
p4349
(dp4350
S'NamedEntityTag'
p4351
g82
sS'CharacterOffsetEnd'
p4352
S'1061'
p4353
sS'Lemma'
p4354
S'election'
p4355
sS'PartOfSpeech'
p4356
S'NNS'
p4357
sS'CharacterOffsetBegin'
p4358
S'1052'
p4359
stp4360
a(g339
(dp4361
S'NamedEntityTag'
p4362
g82
sS'CharacterOffsetEnd'
p4363
S'1062'
p4364
sS'Lemma'
p4365
g339
sS'PartOfSpeech'
p4366
g339
sS'CharacterOffsetBegin'
p4367
S'1061'
p4368
stp4369
a(S'short'
p4370
(dp4371
S'NamedEntityTag'
p4372
g82
sS'CharacterOffsetEnd'
p4373
S'1068'
p4374
sS'Lemma'
p4375
S'short'
p4376
sS'PartOfSpeech'
p4377
S'JJ'
p4378
sS'CharacterOffsetBegin'
p4379
S'1063'
p4380
stp4381
a(S'of'
p4382
(dp4383
S'NamedEntityTag'
p4384
g82
sS'CharacterOffsetEnd'
p4385
S'1071'
p4386
sS'Lemma'
p4387
S'of'
p4388
sS'PartOfSpeech'
p4389
S'IN'
p4390
sS'CharacterOffsetBegin'
p4391
S'1069'
p4392
stp4393
a(S'the'
p4394
(dp4395
S'NamedEntityTag'
p4396
g82
sS'CharacterOffsetEnd'
p4397
S'1075'
p4398
sS'Lemma'
p4399
S'the'
p4400
sS'PartOfSpeech'
p4401
S'DT'
p4402
sS'CharacterOffsetBegin'
p4403
S'1072'
p4404
stp4405
a(S'two-thirds'
p4406
(dp4407
S'NamedEntityTag'
p4408
g82
sS'CharacterOffsetEnd'
p4409
S'1086'
p4410
sS'Lemma'
p4411
S'two-third'
p4412
sS'PartOfSpeech'
p4413
S'NNS'
p4414
sS'CharacterOffsetBegin'
p4415
S'1076'
p4416
stp4417
a(S'majority'
p4418
(dp4419
S'NamedEntityTag'
p4420
g82
sS'CharacterOffsetEnd'
p4421
S'1095'
p4422
sS'Lemma'
p4423
S'majority'
p4424
sS'PartOfSpeech'
p4425
S'NN'
p4426
sS'CharacterOffsetBegin'
p4427
S'1087'
p4428
stp4429
a(S'needed'
p4430
(dp4431
S'NamedEntityTag'
p4432
g82
sS'CharacterOffsetEnd'
p4433
S'1102'
p4434
sS'Lemma'
p4435
S'need'
p4436
sS'PartOfSpeech'
p4437
S'VBN'
p4438
sS'CharacterOffsetBegin'
p4439
S'1096'
p4440
stp4441
a(S'to'
p4442
(dp4443
S'NamedEntityTag'
p4444
g82
sS'CharacterOffsetEnd'
p4445
S'1105'
p4446
sS'Lemma'
p4447
S'to'
p4448
sS'PartOfSpeech'
p4449
S'TO'
p4450
sS'CharacterOffsetBegin'
p4451
S'1103'
p4452
stp4453
a(S'form'
p4454
(dp4455
S'NamedEntityTag'
p4456
g82
sS'CharacterOffsetEnd'
p4457
S'1110'
p4458
sS'Lemma'
p4459
S'form'
p4460
sS'PartOfSpeech'
p4461
S'VB'
p4462
sS'CharacterOffsetBegin'
p4463
S'1106'
p4464
stp4465
a(g1596
(dp4466
S'NamedEntityTag'
p4467
g82
sS'CharacterOffsetEnd'
p4468
S'1112'
p4469
sS'Lemma'
p4470
g1596
sS'PartOfSpeech'
p4471
S'DT'
p4472
sS'CharacterOffsetBegin'
p4473
S'1111'
p4474
stp4475
a(S'government'
p4476
(dp4477
S'NamedEntityTag'
p4478
g82
sS'CharacterOffsetEnd'
p4479
S'1123'
p4480
sS'Lemma'
p4481
S'government'
p4482
sS'PartOfSpeech'
p4483
S'NN'
p4484
sS'CharacterOffsetBegin'
p4485
S'1113'
p4486
stp4487
a(S'on'
p4488
(dp4489
S'NamedEntityTag'
p4490
g82
sS'CharacterOffsetEnd'
p4491
S'1126'
p4492
sS'Lemma'
p4493
S'on'
p4494
sS'PartOfSpeech'
p4495
S'IN'
p4496
sS'CharacterOffsetBegin'
p4497
S'1124'
p4498
stp4499
a(S'its'
p4500
(dp4501
S'NamedEntityTag'
p4502
g82
sS'CharacterOffsetEnd'
p4503
S'1130'
p4504
sS'Lemma'
p4505
S'its'
p4506
sS'PartOfSpeech'
p4507
S'PRP$'
p4508
sS'CharacterOffsetBegin'
p4509
S'1127'
p4510
stp4511
a(S'own'
p4512
(dp4513
S'NamedEntityTag'
p4514
g82
sS'CharacterOffsetEnd'
p4515
S'1134'
p4516
sS'Lemma'
p4517
S'own'
p4518
sS'PartOfSpeech'
p4519
S'JJ'
p4520
sS'CharacterOffsetBegin'
p4521
S'1131'
p4522
stp4523
a(g616
(dp4524
S'NamedEntityTag'
p4525
g82
sS'CharacterOffsetEnd'
p4526
S'1135'
p4527
sS'Lemma'
p4528
g616
sS'PartOfSpeech'
p4529
g616
sS'CharacterOffsetBegin'
p4530
S'1134'
p4531
stp4532
asa(dp4533
g7
S'(ROOT (S (NP (NP (NNP Ranariddh)) (CC and) (NP (NNP Sam) (NNP Rainsy))) (VP (VBP have) (VP (VBN charged) (SBAR (IN that) (S (NP (NP (NNP Hun) (NNP Sens) (NN victory)) (PP (IN in) (NP (DT the) (NNS elections)))) (VP (VBD was) (VP (VBN achieved) (PP (IN through) (NP (JJ widespread) (NN fraud))))))))) (. .)))'
p4534
sg9
S'Ranariddh and Sam Rainsy have charged that Hun Sens victory in the elections was achieved through widespread fraud.'
p4535
sg11
(lp4536
(S'root'
p4537
S'ROOT'
p4538
S'charged'
p4539
tp4540
a(S'nsubj'
p4541
S'charged'
p4542
S'Ranariddh'
p4543
tp4544
a(S'nn'
p4545
S'Rainsy'
p4546
S'Sam'
p4547
tp4548
a(S'conj_and'
p4549
S'Ranariddh'
p4550
S'Rainsy'
p4551
tp4552
a(S'aux'
p4553
S'charged'
p4554
S'have'
p4555
tp4556
a(S'mark'
p4557
S'achieved'
p4558
S'that'
p4559
tp4560
a(S'nn'
p4561
S'victory'
p4562
S'Hun'
p4563
tp4564
a(S'nn'
p4565
S'victory'
p4566
S'Sens'
p4567
tp4568
a(S'nsubjpass'
p4569
S'achieved'
p4570
S'victory'
p4571
tp4572
a(S'det'
p4573
S'elections'
p4574
S'the'
p4575
tp4576
a(S'prep_in'
p4577
S'victory'
p4578
S'elections'
p4579
tp4580
a(S'auxpass'
p4581
S'achieved'
p4582
S'was'
p4583
tp4584
a(S'ccomp'
p4585
S'charged'
p4586
S'achieved'
p4587
tp4588
a(S'amod'
p4589
S'fraud'
p4590
S'widespread'
p4591
tp4592
a(S'prep_through'
p4593
S'achieved'
p4594
S'fraud'
p4595
tp4596
asg41
(lp4597
(g4537
S'ROOT-0'
p4598
S'charged-6'
p4599
tp4600
a(g4541
S'charged-6'
p4601
S'Ranariddh-1'
p4602
tp4603
a(g4545
S'Rainsy-4'
p4604
S'Sam-3'
p4605
tp4606
a(g4549
S'Ranariddh-1'
p4607
S'Rainsy-4'
p4608
tp4609
a(g4553
S'charged-6'
p4610
S'have-5'
p4611
tp4612
a(g4557
S'achieved-15'
p4613
S'that-7'
p4614
tp4615
a(g4561
S'victory-10'
p4616
S'Hun-8'
p4617
tp4618
a(g4565
S'victory-10'
p4619
S'Sens-9'
p4620
tp4621
a(g4569
S'achieved-15'
p4622
S'victory-10'
p4623
tp4624
a(g4573
S'elections-13'
p4625
S'the-12'
p4626
tp4627
a(g4577
S'victory-10'
p4628
S'elections-13'
p4629
tp4630
a(g4581
S'achieved-15'
p4631
S'was-14'
p4632
tp4633
a(g4585
S'charged-6'
p4634
S'achieved-15'
p4635
tp4636
a(g4589
S'fraud-18'
p4637
S'widespread-17'
p4638
tp4639
a(g4593
S'achieved-15'
p4640
S'fraud-18'
p4641
tp4642
asg64
(lp4643
(S'Ranariddh'
p4644
(dp4645
S'NamedEntityTag'
p4646
S'PERSON'
p4647
sS'CharacterOffsetEnd'
p4648
S'1145'
p4649
sS'Lemma'
p4650
S'Ranariddh'
p4651
sS'PartOfSpeech'
p4652
S'NNP'
p4653
sS'CharacterOffsetBegin'
p4654
S'1136'
p4655
stp4656
a(S'and'
p4657
(dp4658
S'NamedEntityTag'
p4659
g82
sS'CharacterOffsetEnd'
p4660
S'1149'
p4661
sS'Lemma'
p4662
S'and'
p4663
sS'PartOfSpeech'
p4664
S'CC'
p4665
sS'CharacterOffsetBegin'
p4666
S'1146'
p4667
stp4668
a(S'Sam'
p4669
(dp4670
S'NamedEntityTag'
p4671
S'PERSON'
p4672
sS'CharacterOffsetEnd'
p4673
S'1153'
p4674
sS'Lemma'
p4675
S'Sam'
p4676
sS'PartOfSpeech'
p4677
S'NNP'
p4678
sS'CharacterOffsetBegin'
p4679
S'1150'
p4680
stp4681
a(S'Rainsy'
p4682
(dp4683
S'NamedEntityTag'
p4684
S'PERSON'
p4685
sS'CharacterOffsetEnd'
p4686
S'1160'
p4687
sS'Lemma'
p4688
S'Rainsy'
p4689
sS'PartOfSpeech'
p4690
S'NNP'
p4691
sS'CharacterOffsetBegin'
p4692
S'1154'
p4693
stp4694
a(S'have'
p4695
(dp4696
S'NamedEntityTag'
p4697
g82
sS'CharacterOffsetEnd'
p4698
S'1165'
p4699
sS'Lemma'
p4700
S'have'
p4701
sS'PartOfSpeech'
p4702
S'VBP'
p4703
sS'CharacterOffsetBegin'
p4704
S'1161'
p4705
stp4706
a(S'charged'
p4707
(dp4708
S'NamedEntityTag'
p4709
g82
sS'CharacterOffsetEnd'
p4710
S'1173'
p4711
sS'Lemma'
p4712
S'charge'
p4713
sS'PartOfSpeech'
p4714
S'VBN'
p4715
sS'CharacterOffsetBegin'
p4716
S'1166'
p4717
stp4718
a(S'that'
p4719
(dp4720
S'NamedEntityTag'
p4721
g82
sS'CharacterOffsetEnd'
p4722
S'1178'
p4723
sS'Lemma'
p4724
S'that'
p4725
sS'PartOfSpeech'
p4726
S'IN'
p4727
sS'CharacterOffsetBegin'
p4728
S'1174'
p4729
stp4730
a(S'Hun'
p4731
(dp4732
S'NamedEntityTag'
p4733
S'PERSON'
p4734
sS'CharacterOffsetEnd'
p4735
S'1182'
p4736
sS'Lemma'
p4737
S'Hun'
p4738
sS'PartOfSpeech'
p4739
S'NNP'
p4740
sS'CharacterOffsetBegin'
p4741
S'1179'
p4742
stp4743
a(S'Sens'
p4744
(dp4745
S'NamedEntityTag'
p4746
S'PERSON'
p4747
sS'CharacterOffsetEnd'
p4748
S'1187'
p4749
sS'Lemma'
p4750
S'Sens'
p4751
sS'PartOfSpeech'
p4752
S'NNP'
p4753
sS'CharacterOffsetBegin'
p4754
S'1183'
p4755
stp4756
a(S'victory'
p4757
(dp4758
S'NamedEntityTag'
p4759
g82
sS'CharacterOffsetEnd'
p4760
S'1195'
p4761
sS'Lemma'
p4762
S'victory'
p4763
sS'PartOfSpeech'
p4764
S'NN'
p4765
sS'CharacterOffsetBegin'
p4766
S'1188'
p4767
stp4768
a(S'in'
p4769
(dp4770
S'NamedEntityTag'
p4771
g82
sS'CharacterOffsetEnd'
p4772
S'1198'
p4773
sS'Lemma'
p4774
S'in'
p4775
sS'PartOfSpeech'
p4776
S'IN'
p4777
sS'CharacterOffsetBegin'
p4778
S'1196'
p4779
stp4780
a(S'the'
p4781
(dp4782
S'NamedEntityTag'
p4783
g82
sS'CharacterOffsetEnd'
p4784
S'1202'
p4785
sS'Lemma'
p4786
S'the'
p4787
sS'PartOfSpeech'
p4788
S'DT'
p4789
sS'CharacterOffsetBegin'
p4790
S'1199'
p4791
stp4792
a(S'elections'
p4793
(dp4794
S'NamedEntityTag'
p4795
g82
sS'CharacterOffsetEnd'
p4796
S'1212'
p4797
sS'Lemma'
p4798
S'election'
p4799
sS'PartOfSpeech'
p4800
S'NNS'
p4801
sS'CharacterOffsetBegin'
p4802
S'1203'
p4803
stp4804
a(S'was'
p4805
(dp4806
S'NamedEntityTag'
p4807
g82
sS'CharacterOffsetEnd'
p4808
S'1216'
p4809
sS'Lemma'
p4810
S'be'
p4811
sS'PartOfSpeech'
p4812
S'VBD'
p4813
sS'CharacterOffsetBegin'
p4814
S'1213'
p4815
stp4816
a(S'achieved'
p4817
(dp4818
S'NamedEntityTag'
p4819
g82
sS'CharacterOffsetEnd'
p4820
S'1225'
p4821
sS'Lemma'
p4822
S'achieve'
p4823
sS'PartOfSpeech'
p4824
S'VBN'
p4825
sS'CharacterOffsetBegin'
p4826
S'1217'
p4827
stp4828
a(S'through'
p4829
(dp4830
S'NamedEntityTag'
p4831
g82
sS'CharacterOffsetEnd'
p4832
S'1233'
p4833
sS'Lemma'
p4834
S'through'
p4835
sS'PartOfSpeech'
p4836
S'IN'
p4837
sS'CharacterOffsetBegin'
p4838
S'1226'
p4839
stp4840
a(S'widespread'
p4841
(dp4842
S'NamedEntityTag'
p4843
g82
sS'CharacterOffsetEnd'
p4844
S'1244'
p4845
sS'Lemma'
p4846
S'widespread'
p4847
sS'PartOfSpeech'
p4848
S'JJ'
p4849
sS'CharacterOffsetBegin'
p4850
S'1234'
p4851
stp4852
a(S'fraud'
p4853
(dp4854
S'NamedEntityTag'
p4855
g82
sS'CharacterOffsetEnd'
p4856
S'1250'
p4857
sS'Lemma'
p4858
S'fraud'
p4859
sS'PartOfSpeech'
p4860
S'NN'
p4861
sS'CharacterOffsetBegin'
p4862
S'1245'
p4863
stp4864
a(g616
(dp4865
S'NamedEntityTag'
p4866
g82
sS'CharacterOffsetEnd'
p4867
S'1251'
p4868
sS'Lemma'
p4869
g616
sS'PartOfSpeech'
p4870
g616
sS'CharacterOffsetBegin'
p4871
S'1250'
p4872
stp4873
asa(dp4874
g7
S'(ROOT (S (S (NP (PRP They)) (VP (VBP have) (VP (VBN demanded) (NP (DT a) (JJ thorough) (NN investigation)) (PP (IN into) (NP (PRP$ their) (NN election) (NNS complaints))) (PP (IN as) (NP (NP (DT a) (NN precondition)) (PP (IN for) (NP (PRP$ their) (NN cooperation))))) (PP (IN in) (S (VP (VBG getting) (NP (NP (DT the) (JJ national) (NN assembly)) (VP (VBG moving))))))))) (CC and) (S (NP (DT a) (JJ new) (NN government)) (VP (VBD formed))) (. .)))'
p4875
sg9
S'They have demanded a thorough investigation into their election complaints as a precondition for their cooperation in getting the national assembly moving and a new government formed.'
p4876
sg11
(lp4877
(S'root'
p4878
S'ROOT'
p4879
S'demanded'
p4880
tp4881
a(S'nsubj'
p4882
S'demanded'
p4883
S'They'
p4884
tp4885
a(S'aux'
p4886
S'demanded'
p4887
S'have'
p4888
tp4889
a(S'det'
p4890
S'investigation'
p4891
g1596
tp4892
a(S'amod'
p4893
S'investigation'
p4894
S'thorough'
p4895
tp4896
a(S'dobj'
p4897
S'demanded'
p4898
S'investigation'
p4899
tp4900
a(S'poss'
p4901
S'complaints'
p4902
S'their'
p4903
tp4904
a(S'nn'
p4905
S'complaints'
p4906
S'election'
p4907
tp4908
a(S'prep_into'
p4909
S'demanded'
p4910
S'complaints'
p4911
tp4912
a(S'det'
p4913
S'precondition'
p4914
g1596
tp4915
a(S'prep_as'
p4916
S'demanded'
p4917
S'precondition'
p4918
tp4919
a(S'poss'
p4920
S'cooperation'
p4921
S'their'
p4922
tp4923
a(S'prep_for'
p4924
S'precondition'
p4925
S'cooperation'
p4926
tp4927
a(S'prepc_in'
p4928
S'demanded'
p4929
S'getting'
p4930
tp4931
a(S'det'
p4932
S'assembly'
p4933
S'the'
p4934
tp4935
a(S'amod'
p4936
S'assembly'
p4937
S'national'
p4938
tp4939
a(S'dobj'
p4940
S'getting'
p4941
S'assembly'
p4942
tp4943
a(S'partmod'
p4944
S'assembly'
p4945
S'moving'
p4946
tp4947
a(S'det'
p4948
S'government'
p4949
g1596
tp4950
a(S'amod'
p4951
S'government'
p4952
S'new'
p4953
tp4954
a(S'nsubj'
p4955
S'formed'
p4956
S'government'
p4957
tp4958
a(S'conj_and'
p4959
S'demanded'
p4960
S'formed'
p4961
tp4962
asg41
(lp4963
(g4878
S'ROOT-0'
p4964
S'demanded-3'
p4965
tp4966
a(g4882
S'demanded-3'
p4967
S'They-1'
p4968
tp4969
a(g4886
S'demanded-3'
p4970
S'have-2'
p4971
tp4972
a(g4890
S'investigation-6'
p4973
S'a-4'
p4974
tp4975
a(g4893
S'investigation-6'
p4976
S'thorough-5'
p4977
tp4978
a(g4897
S'demanded-3'
p4979
S'investigation-6'
p4980
tp4981
a(g4901
S'complaints-10'
p4982
S'their-8'
p4983
tp4984
a(g4905
S'complaints-10'
p4985
S'election-9'
p4986
tp4987
a(g4909
S'demanded-3'
p4988
S'complaints-10'
p4989
tp4990
a(g4913
S'precondition-13'
p4991
S'a-12'
p4992
tp4993
a(g4916
S'demanded-3'
p4994
S'precondition-13'
p4995
tp4996
a(g4920
S'cooperation-16'
p4997
S'their-15'
p4998
tp4999
a(g4924
S'precondition-13'
p5000
S'cooperation-16'
p5001
tp5002
a(g4928
S'demanded-3'
p5003
S'getting-18'
p5004
tp5005
a(g4932
S'assembly-21'
p5006
S'the-19'
p5007
tp5008
a(g4936
S'assembly-21'
p5009
S'national-20'
p5010
tp5011
a(g4940
S'getting-18'
p5012
S'assembly-21'
p5013
tp5014
a(g4944
S'assembly-21'
p5015
S'moving-22'
p5016
tp5017
a(g4948
S'government-26'
p5018
S'a-24'
p5019
tp5020
a(g4951
S'government-26'
p5021
S'new-25'
p5022
tp5023
a(g4955
S'formed-27'
p5024
S'government-26'
p5025
tp5026
a(g4959
S'demanded-3'
p5027
S'formed-27'
p5028
tp5029
asg64
(lp5030
(S'They'
p5031
(dp5032
S'NamedEntityTag'
p5033
g82
sS'CharacterOffsetEnd'
p5034
S'1256'
p5035
sS'Lemma'
p5036
S'they'
p5037
sS'PartOfSpeech'
p5038
S'PRP'
p5039
sS'CharacterOffsetBegin'
p5040
S'1252'
p5041
stp5042
a(S'have'
p5043
(dp5044
S'NamedEntityTag'
p5045
g82
sS'CharacterOffsetEnd'
p5046
S'1261'
p5047
sS'Lemma'
p5048
S'have'
p5049
sS'PartOfSpeech'
p5050
S'VBP'
p5051
sS'CharacterOffsetBegin'
p5052
S'1257'
p5053
stp5054
a(S'demanded'
p5055
(dp5056
S'NamedEntityTag'
p5057
g82
sS'CharacterOffsetEnd'
p5058
S'1270'
p5059
sS'Lemma'
p5060
S'demand'
p5061
sS'PartOfSpeech'
p5062
S'VBN'
p5063
sS'CharacterOffsetBegin'
p5064
S'1262'
p5065
stp5066
a(g1596
(dp5067
S'NamedEntityTag'
p5068
g82
sS'CharacterOffsetEnd'
p5069
S'1272'
p5070
sS'Lemma'
p5071
g1596
sS'PartOfSpeech'
p5072
S'DT'
p5073
sS'CharacterOffsetBegin'
p5074
S'1271'
p5075
stp5076
a(S'thorough'
p5077
(dp5078
S'NamedEntityTag'
p5079
g82
sS'CharacterOffsetEnd'
p5080
S'1281'
p5081
sS'Lemma'
p5082
S'thorough'
p5083
sS'PartOfSpeech'
p5084
S'JJ'
p5085
sS'CharacterOffsetBegin'
p5086
S'1273'
p5087
stp5088
a(S'investigation'
p5089
(dp5090
S'NamedEntityTag'
p5091
g82
sS'CharacterOffsetEnd'
p5092
S'1295'
p5093
sS'Lemma'
p5094
S'investigation'
p5095
sS'PartOfSpeech'
p5096
S'NN'
p5097
sS'CharacterOffsetBegin'
p5098
S'1282'
p5099
stp5100
a(S'into'
p5101
(dp5102
S'NamedEntityTag'
p5103
g82
sS'CharacterOffsetEnd'
p5104
S'1300'
p5105
sS'Lemma'
p5106
S'into'
p5107
sS'PartOfSpeech'
p5108
S'IN'
p5109
sS'CharacterOffsetBegin'
p5110
S'1296'
p5111
stp5112
a(S'their'
p5113
(dp5114
S'NamedEntityTag'
p5115
g82
sS'CharacterOffsetEnd'
p5116
S'1306'
p5117
sS'Lemma'
p5118
S'they'
p5119
sS'PartOfSpeech'
p5120
S'PRP$'
p5121
sS'CharacterOffsetBegin'
p5122
S'1301'
p5123
stp5124
a(S'election'
p5125
(dp5126
S'NamedEntityTag'
p5127
g82
sS'CharacterOffsetEnd'
p5128
S'1315'
p5129
sS'Lemma'
p5130
S'election'
p5131
sS'PartOfSpeech'
p5132
S'NN'
p5133
sS'CharacterOffsetBegin'
p5134
S'1307'
p5135
stp5136
a(S'complaints'
p5137
(dp5138
S'NamedEntityTag'
p5139
g82
sS'CharacterOffsetEnd'
p5140
S'1326'
p5141
sS'Lemma'
p5142
S'complaint'
p5143
sS'PartOfSpeech'
p5144
S'NNS'
p5145
sS'CharacterOffsetBegin'
p5146
S'1316'
p5147
stp5148
a(S'as'
p5149
(dp5150
S'NamedEntityTag'
p5151
g82
sS'CharacterOffsetEnd'
p5152
S'1329'
p5153
sS'Lemma'
p5154
S'as'
p5155
sS'PartOfSpeech'
p5156
S'IN'
p5157
sS'CharacterOffsetBegin'
p5158
S'1327'
p5159
stp5160
a(g1596
(dp5161
S'NamedEntityTag'
p5162
g82
sS'CharacterOffsetEnd'
p5163
S'1331'
p5164
sS'Lemma'
p5165
g1596
sS'PartOfSpeech'
p5166
S'DT'
p5167
sS'CharacterOffsetBegin'
p5168
S'1330'
p5169
stp5170
a(S'precondition'
p5171
(dp5172
S'NamedEntityTag'
p5173
g82
sS'CharacterOffsetEnd'
p5174
S'1344'
p5175
sS'Lemma'
p5176
S'precondition'
p5177
sS'PartOfSpeech'
p5178
S'NN'
p5179
sS'CharacterOffsetBegin'
p5180
S'1332'
p5181
stp5182
a(S'for'
p5183
(dp5184
S'NamedEntityTag'
p5185
g82
sS'CharacterOffsetEnd'
p5186
S'1348'
p5187
sS'Lemma'
p5188
S'for'
p5189
sS'PartOfSpeech'
p5190
S'IN'
p5191
sS'CharacterOffsetBegin'
p5192
S'1345'
p5193
stp5194
a(S'their'
p5195
(dp5196
S'NamedEntityTag'
p5197
g82
sS'CharacterOffsetEnd'
p5198
S'1354'
p5199
sS'Lemma'
p5200
S'they'
p5201
sS'PartOfSpeech'
p5202
S'PRP$'
p5203
sS'CharacterOffsetBegin'
p5204
S'1349'
p5205
stp5206
a(S'cooperation'
p5207
(dp5208
S'NamedEntityTag'
p5209
g82
sS'CharacterOffsetEnd'
p5210
S'1366'
p5211
sS'Lemma'
p5212
S'cooperation'
p5213
sS'PartOfSpeech'
p5214
S'NN'
p5215
sS'CharacterOffsetBegin'
p5216
S'1355'
p5217
stp5218
a(S'in'
p5219
(dp5220
S'NamedEntityTag'
p5221
g82
sS'CharacterOffsetEnd'
p5222
S'1369'
p5223
sS'Lemma'
p5224
S'in'
p5225
sS'PartOfSpeech'
p5226
S'IN'
p5227
sS'CharacterOffsetBegin'
p5228
S'1367'
p5229
stp5230
a(S'getting'
p5231
(dp5232
S'NamedEntityTag'
p5233
g82
sS'CharacterOffsetEnd'
p5234
S'1377'
p5235
sS'Lemma'
p5236
S'get'
p5237
sS'PartOfSpeech'
p5238
S'VBG'
p5239
sS'CharacterOffsetBegin'
p5240
S'1370'
p5241
stp5242
a(S'the'
p5243
(dp5244
S'NamedEntityTag'
p5245
g82
sS'CharacterOffsetEnd'
p5246
S'1381'
p5247
sS'Lemma'
p5248
S'the'
p5249
sS'PartOfSpeech'
p5250
S'DT'
p5251
sS'CharacterOffsetBegin'
p5252
S'1378'
p5253
stp5254
a(S'national'
p5255
(dp5256
S'NamedEntityTag'
p5257
g82
sS'CharacterOffsetEnd'
p5258
S'1390'
p5259
sS'Lemma'
p5260
S'national'
p5261
sS'PartOfSpeech'
p5262
S'JJ'
p5263
sS'CharacterOffsetBegin'
p5264
S'1382'
p5265
stp5266
a(S'assembly'
p5267
(dp5268
S'NamedEntityTag'
p5269
g82
sS'CharacterOffsetEnd'
p5270
S'1399'
p5271
sS'Lemma'
p5272
S'assembly'
p5273
sS'PartOfSpeech'
p5274
S'NN'
p5275
sS'CharacterOffsetBegin'
p5276
S'1391'
p5277
stp5278
a(S'moving'
p5279
(dp5280
S'NamedEntityTag'
p5281
g82
sS'CharacterOffsetEnd'
p5282
S'1406'
p5283
sS'Lemma'
p5284
S'move'
p5285
sS'PartOfSpeech'
p5286
S'VBG'
p5287
sS'CharacterOffsetBegin'
p5288
S'1400'
p5289
stp5290
a(S'and'
p5291
(dp5292
S'NamedEntityTag'
p5293
g82
sS'CharacterOffsetEnd'
p5294
S'1410'
p5295
sS'Lemma'
p5296
S'and'
p5297
sS'PartOfSpeech'
p5298
S'CC'
p5299
sS'CharacterOffsetBegin'
p5300
S'1407'
p5301
stp5302
a(g1596
(dp5303
S'NamedEntityTag'
p5304
g82
sS'CharacterOffsetEnd'
p5305
S'1412'
p5306
sS'Lemma'
p5307
g1596
sS'PartOfSpeech'
p5308
S'DT'
p5309
sS'CharacterOffsetBegin'
p5310
S'1411'
p5311
stp5312
a(S'new'
p5313
(dp5314
S'NamedEntityTag'
p5315
g82
sS'CharacterOffsetEnd'
p5316
S'1416'
p5317
sS'Lemma'
p5318
S'new'
p5319
sS'PartOfSpeech'
p5320
S'JJ'
p5321
sS'CharacterOffsetBegin'
p5322
S'1413'
p5323
stp5324
a(S'government'
p5325
(dp5326
S'NamedEntityTag'
p5327
g82
sS'CharacterOffsetEnd'
p5328
S'1427'
p5329
sS'Lemma'
p5330
S'government'
p5331
sS'PartOfSpeech'
p5332
S'NN'
p5333
sS'CharacterOffsetBegin'
p5334
S'1417'
p5335
stp5336
a(S'formed'
p5337
(dp5338
S'NamedEntityTag'
p5339
g82
sS'CharacterOffsetEnd'
p5340
S'1434'
p5341
sS'Lemma'
p5342
S'form'
p5343
sS'PartOfSpeech'
p5344
S'VBD'
p5345
sS'CharacterOffsetBegin'
p5346
S'1428'
p5347
stp5348
a(g616
(dp5349
S'NamedEntityTag'
p5350
g82
sS'CharacterOffsetEnd'
p5351
S'1435'
p5352
sS'Lemma'
p5353
g616
sS'PartOfSpeech'
p5354
g616
sS'CharacterOffsetBegin'
p5355
S'1434'
p5356
stp5357
asa(dp5358
g7
S'(ROOT (S (NP (NNP Hun) (NNP Sen)) (VP (VBD said) (PP (IN on) (NP (NNP Friday))) (SBAR (IN that) (S (NP (NP (DT the) (NN opposition) (NNS concerns)) (PP (IN over) (NP (NP (PRP$ their) (NN safety)) (PP (IN in) (NP (DT the) (NN country)))))) (VP (VBD was) (ADVP (RB just)) (NP (NP (DT an) (NN excuse)) (PP (IN for) (NP (PRP them))) (S (VP (TO to) (VP (VB stay) (ADVP (RB abroad)))))))))) (. .)))'
p5359
sg9
S'Hun Sen said on Friday that the opposition concerns over their safety in the country was just an excuse for them to stay abroad.'
p5360
sg11
(lp5361
(S'root'
p5362
S'ROOT'
p5363
S'said'
p5364
tp5365
a(S'nn'
p5366
S'Sen'
p5367
S'Hun'
p5368
tp5369
a(S'nsubj'
p5370
S'said'
p5371
S'Sen'
p5372
tp5373
a(S'prep_on'
p5374
S'said'
p5375
S'Friday'
p5376
tp5377
a(S'mark'
p5378
S'excuse'
p5379
S'that'
p5380
tp5381
a(S'det'
p5382
S'concerns'
p5383
S'the'
p5384
tp5385
a(S'nn'
p5386
S'concerns'
p5387
S'opposition'
p5388
tp5389
a(S'nsubj'
p5390
S'excuse'
p5391
S'concerns'
p5392
tp5393
a(S'poss'
p5394
S'safety'
p5395
S'their'
p5396
tp5397
a(S'prep_over'
p5398
S'concerns'
p5399
S'safety'
p5400
tp5401
a(S'det'
p5402
S'country'
p5403
S'the'
p5404
tp5405
a(S'prep_in'
p5406
S'safety'
p5407
S'country'
p5408
tp5409
a(S'cop'
p5410
S'excuse'
p5411
S'was'
p5412
tp5413
a(S'advmod'
p5414
S'excuse'
p5415
S'just'
p5416
tp5417
a(S'det'
p5418
S'excuse'
p5419
S'an'
p5420
tp5421
a(S'ccomp'
p5422
S'said'
p5423
S'excuse'
p5424
tp5425
a(S'prep_for'
p5426
S'excuse'
p5427
S'them'
p5428
tp5429
a(S'aux'
p5430
S'stay'
p5431
S'to'
p5432
tp5433
a(S'infmod'
p5434
S'excuse'
p5435
S'stay'
p5436
tp5437
a(S'advmod'
p5438
S'stay'
p5439
S'abroad'
p5440
tp5441
asg41
(lp5442
(g5362
S'ROOT-0'
p5443
S'said-3'
p5444
tp5445
a(g5366
S'Sen-2'
p5446
S'Hun-1'
p5447
tp5448
a(g5370
S'said-3'
p5449
S'Sen-2'
p5450
tp5451
a(g5374
S'said-3'
p5452
S'Friday-5'
p5453
tp5454
a(g5378
S'excuse-19'
p5455
S'that-6'
p5456
tp5457
a(g5382
S'concerns-9'
p5458
S'the-7'
p5459
tp5460
a(g5386
S'concerns-9'
p5461
S'opposition-8'
p5462
tp5463
a(g5390
S'excuse-19'
p5464
S'concerns-9'
p5465
tp5466
a(g5394
S'safety-12'
p5467
S'their-11'
p5468
tp5469
a(g5398
S'concerns-9'
p5470
S'safety-12'
p5471
tp5472
a(g5402
S'country-15'
p5473
S'the-14'
p5474
tp5475
a(g5406
S'safety-12'
p5476
S'country-15'
p5477
tp5478
a(g5410
S'excuse-19'
p5479
S'was-16'
p5480
tp5481
a(g5414
S'excuse-19'
p5482
S'just-17'
p5483
tp5484
a(g5418
S'excuse-19'
p5485
S'an-18'
p5486
tp5487
a(g5422
S'said-3'
p5488
S'excuse-19'
p5489
tp5490
a(g5426
S'excuse-19'
p5491
S'them-21'
p5492
tp5493
a(g5430
S'stay-23'
p5494
S'to-22'
p5495
tp5496
a(g5434
S'excuse-19'
p5497
S'stay-23'
p5498
tp5499
a(g5438
S'stay-23'
p5500
S'abroad-24'
p5501
tp5502
asg64
(lp5503
(S'Hun'
p5504
(dp5505
S'NamedEntityTag'
p5506
S'PERSON'
p5507
sS'CharacterOffsetEnd'
p5508
S'1439'
p5509
sS'Lemma'
p5510
S'Hun'
p5511
sS'PartOfSpeech'
p5512
S'NNP'
p5513
sS'CharacterOffsetBegin'
p5514
S'1436'
p5515
stp5516
a(S'Sen'
p5517
(dp5518
S'NamedEntityTag'
p5519
S'PERSON'
p5520
sS'CharacterOffsetEnd'
p5521
S'1443'
p5522
sS'Lemma'
p5523
S'Sen'
p5524
sS'PartOfSpeech'
p5525
S'NNP'
p5526
sS'CharacterOffsetBegin'
p5527
S'1440'
p5528
stp5529
a(S'said'
p5530
(dp5531
S'NamedEntityTag'
p5532
g82
sS'CharacterOffsetEnd'
p5533
S'1448'
p5534
sS'Lemma'
p5535
S'say'
p5536
sS'PartOfSpeech'
p5537
S'VBD'
p5538
sS'CharacterOffsetBegin'
p5539
S'1444'
p5540
stp5541
a(S'on'
p5542
(dp5543
S'NamedEntityTag'
p5544
g82
sS'CharacterOffsetEnd'
p5545
S'1451'
p5546
sS'Lemma'
p5547
S'on'
p5548
sS'PartOfSpeech'
p5549
S'IN'
p5550
sS'CharacterOffsetBegin'
p5551
S'1449'
p5552
stp5553
a(S'Friday'
p5554
(dp5555
S'NormalizedNamedEntityTag'
p5556
S'XXXX-WXX-5'
p5557
sS'Timex'
p5558
S'<TIMEX3 tid="t1" type="DATE" value="XXXX-WXX-5">Friday</TIMEX3>'
p5559
sS'Lemma'
p5560
S'Friday'
p5561
sS'CharacterOffsetEnd'
p5562
S'1458'
p5563
sS'PartOfSpeech'
p5564
S'NNP'
p5565
sS'CharacterOffsetBegin'
p5566
S'1452'
p5567
sS'NamedEntityTag'
p5568
S'DATE'
p5569
stp5570
a(S'that'
p5571
(dp5572
S'NamedEntityTag'
p5573
g82
sS'CharacterOffsetEnd'
p5574
S'1463'
p5575
sS'Lemma'
p5576
S'that'
p5577
sS'PartOfSpeech'
p5578
S'IN'
p5579
sS'CharacterOffsetBegin'
p5580
S'1459'
p5581
stp5582
a(S'the'
p5583
(dp5584
S'NamedEntityTag'
p5585
g82
sS'CharacterOffsetEnd'
p5586
S'1467'
p5587
sS'Lemma'
p5588
S'the'
p5589
sS'PartOfSpeech'
p5590
S'DT'
p5591
sS'CharacterOffsetBegin'
p5592
S'1464'
p5593
stp5594
a(S'opposition'
p5595
(dp5596
S'NamedEntityTag'
p5597
g82
sS'CharacterOffsetEnd'
p5598
S'1478'
p5599
sS'Lemma'
p5600
S'opposition'
p5601
sS'PartOfSpeech'
p5602
S'NN'
p5603
sS'CharacterOffsetBegin'
p5604
S'1468'
p5605
stp5606
a(S'concerns'
p5607
(dp5608
S'NamedEntityTag'
p5609
g82
sS'CharacterOffsetEnd'
p5610
S'1487'
p5611
sS'Lemma'
p5612
S'concern'
p5613
sS'PartOfSpeech'
p5614
S'NNS'
p5615
sS'CharacterOffsetBegin'
p5616
S'1479'
p5617
stp5618
a(S'over'
p5619
(dp5620
S'NamedEntityTag'
p5621
g82
sS'CharacterOffsetEnd'
p5622
S'1492'
p5623
sS'Lemma'
p5624
S'over'
p5625
sS'PartOfSpeech'
p5626
S'IN'
p5627
sS'CharacterOffsetBegin'
p5628
S'1488'
p5629
stp5630
a(S'their'
p5631
(dp5632
S'NamedEntityTag'
p5633
g82
sS'CharacterOffsetEnd'
p5634
S'1498'
p5635
sS'Lemma'
p5636
S'they'
p5637
sS'PartOfSpeech'
p5638
S'PRP$'
p5639
sS'CharacterOffsetBegin'
p5640
S'1493'
p5641
stp5642
a(S'safety'
p5643
(dp5644
S'NamedEntityTag'
p5645
g82
sS'CharacterOffsetEnd'
p5646
S'1505'
p5647
sS'Lemma'
p5648
S'safety'
p5649
sS'PartOfSpeech'
p5650
S'NN'
p5651
sS'CharacterOffsetBegin'
p5652
S'1499'
p5653
stp5654
a(S'in'
p5655
(dp5656
S'NamedEntityTag'
p5657
g82
sS'CharacterOffsetEnd'
p5658
S'1508'
p5659
sS'Lemma'
p5660
S'in'
p5661
sS'PartOfSpeech'
p5662
S'IN'
p5663
sS'CharacterOffsetBegin'
p5664
S'1506'
p5665
stp5666
a(S'the'
p5667
(dp5668
S'NamedEntityTag'
p5669
g82
sS'CharacterOffsetEnd'
p5670
S'1512'
p5671
sS'Lemma'
p5672
S'the'
p5673
sS'PartOfSpeech'
p5674
S'DT'
p5675
sS'CharacterOffsetBegin'
p5676
S'1509'
p5677
stp5678
a(S'country'
p5679
(dp5680
S'NamedEntityTag'
p5681
g82
sS'CharacterOffsetEnd'
p5682
S'1520'
p5683
sS'Lemma'
p5684
S'country'
p5685
sS'PartOfSpeech'
p5686
S'NN'
p5687
sS'CharacterOffsetBegin'
p5688
S'1513'
p5689
stp5690
a(S'was'
p5691
(dp5692
S'NamedEntityTag'
p5693
g82
sS'CharacterOffsetEnd'
p5694
S'1524'
p5695
sS'Lemma'
p5696
S'be'
p5697
sS'PartOfSpeech'
p5698
S'VBD'
p5699
sS'CharacterOffsetBegin'
p5700
S'1521'
p5701
stp5702
a(S'just'
p5703
(dp5704
S'NamedEntityTag'
p5705
g82
sS'CharacterOffsetEnd'
p5706
S'1529'
p5707
sS'Lemma'
p5708
S'just'
p5709
sS'PartOfSpeech'
p5710
S'RB'
p5711
sS'CharacterOffsetBegin'
p5712
S'1525'
p5713
stp5714
a(S'an'
p5715
(dp5716
S'NamedEntityTag'
p5717
g82
sS'CharacterOffsetEnd'
p5718
S'1532'
p5719
sS'Lemma'
p5720
g1596
sS'PartOfSpeech'
p5721
S'DT'
p5722
sS'CharacterOffsetBegin'
p5723
S'1530'
p5724
stp5725
a(S'excuse'
p5726
(dp5727
S'NamedEntityTag'
p5728
g82
sS'CharacterOffsetEnd'
p5729
S'1539'
p5730
sS'Lemma'
p5731
S'excuse'
p5732
sS'PartOfSpeech'
p5733
S'NN'
p5734
sS'CharacterOffsetBegin'
p5735
S'1533'
p5736
stp5737
a(S'for'
p5738
(dp5739
S'NamedEntityTag'
p5740
g82
sS'CharacterOffsetEnd'
p5741
S'1543'
p5742
sS'Lemma'
p5743
S'for'
p5744
sS'PartOfSpeech'
p5745
S'IN'
p5746
sS'CharacterOffsetBegin'
p5747
S'1540'
p5748
stp5749
a(S'them'
p5750
(dp5751
S'NamedEntityTag'
p5752
g82
sS'CharacterOffsetEnd'
p5753
S'1548'
p5754
sS'Lemma'
p5755
S'they'
p5756
sS'PartOfSpeech'
p5757
S'PRP'
p5758
sS'CharacterOffsetBegin'
p5759
S'1544'
p5760
stp5761
a(S'to'
p5762
(dp5763
S'NamedEntityTag'
p5764
g82
sS'CharacterOffsetEnd'
p5765
S'1551'
p5766
sS'Lemma'
p5767
S'to'
p5768
sS'PartOfSpeech'
p5769
S'TO'
p5770
sS'CharacterOffsetBegin'
p5771
S'1549'
p5772
stp5773
a(S'stay'
p5774
(dp5775
S'NamedEntityTag'
p5776
g82
sS'CharacterOffsetEnd'
p5777
S'1556'
p5778
sS'Lemma'
p5779
S'stay'
p5780
sS'PartOfSpeech'
p5781
S'VB'
p5782
sS'CharacterOffsetBegin'
p5783
S'1552'
p5784
stp5785
a(S'abroad'
p5786
(dp5787
S'NamedEntityTag'
p5788
g82
sS'CharacterOffsetEnd'
p5789
S'1563'
p5790
sS'Lemma'
p5791
S'abroad'
p5792
sS'PartOfSpeech'
p5793
S'RB'
p5794
sS'CharacterOffsetBegin'
p5795
S'1557'
p5796
stp5797
a(g616
(dp5798
S'NamedEntityTag'
p5799
g82
sS'CharacterOffsetEnd'
p5800
S'1564'
p5801
sS'Lemma'
p5802
g616
sS'PartOfSpeech'
p5803
g616
sS'CharacterOffsetBegin'
p5804
S'1563'
p5805
stp5806
asa(dp5807
g7
S'(ROOT (S (NP (DT Both) (NP (NNP Ranariddh) (CC and) (NNP Sam)) (NNP Rainsy)) (VP (VBP have) (VP (VBN been) (PP (IN outside) (NP (DT the) (NN country))) (SBAR (IN since) (S (NP (NN parliament)) (VP (VBD was) (ADVP (RB ceremonially)) (VP (VBN opened) (PP (IN on) (NP (NNP Sep) (CD 24))))))))) (. .)))'
p5808
sg9
S'Both Ranariddh and Sam Rainsy have been outside the country since parliament was ceremonially opened on Sep 24.'
p5809
sg11
(lp5810
(S'root'
p5811
S'ROOT'
p5812
S'been'
p5813
tp5814
a(S'preconj'
p5815
S'Rainsy'
p5816
S'Both'
p5817
tp5818
a(S'nn'
p5819
S'Rainsy'
p5820
S'Ranariddh'
p5821
tp5822
a(S'conj_and'
p5823
S'Ranariddh'
p5824
S'Sam'
p5825
tp5826
a(S'nsubj'
p5827
S'been'
p5828
S'Rainsy'
p5829
tp5830
a(S'aux'
p5831
S'been'
p5832
S'have'
p5833
tp5834
a(S'det'
p5835
S'country'
p5836
S'the'
p5837
tp5838
a(S'prep_outside'
p5839
S'been'
p5840
S'country'
p5841
tp5842
a(S'mark'
p5843
S'opened'
p5844
S'since'
p5845
tp5846
a(S'nsubjpass'
p5847
S'opened'
p5848
S'parliament'
p5849
tp5850
a(S'auxpass'
p5851
S'opened'
p5852
S'was'
p5853
tp5854
a(S'advmod'
p5855
S'opened'
p5856
S'ceremonially'
p5857
tp5858
a(S'advcl'
p5859
S'been'
p5860
S'opened'
p5861
tp5862
a(S'prep_on'
p5863
S'opened'
p5864
S'Sep'
p5865
tp5866
a(S'num'
p5867
S'Sep'
p5868
S'24'
p5869
tp5870
asg41
(lp5871
(g5811
S'ROOT-0'
p5872
S'been-7'
p5873
tp5874
a(g5815
S'Rainsy-5'
p5875
S'Both-1'
p5876
tp5877
a(g5819
S'Rainsy-5'
p5878
S'Ranariddh-2'
p5879
tp5880
a(g5823
S'Ranariddh-2'
p5881
S'Sam-4'
p5882
tp5883
a(g5827
S'been-7'
p5884
S'Rainsy-5'
p5885
tp5886
a(g5831
S'been-7'
p5887
S'have-6'
p5888
tp5889
a(g5835
S'country-10'
p5890
S'the-9'
p5891
tp5892
a(g5839
S'been-7'
p5893
S'country-10'
p5894
tp5895
a(g5843
S'opened-15'
p5896
S'since-11'
p5897
tp5898
a(g5847
S'opened-15'
p5899
S'parliament-12'
p5900
tp5901
a(g5851
S'opened-15'
p5902
S'was-13'
p5903
tp5904
a(g5855
S'opened-15'
p5905
S'ceremonially-14'
p5906
tp5907
a(g5859
S'been-7'
p5908
S'opened-15'
p5909
tp5910
a(g5863
S'opened-15'
p5911
S'Sep-17'
p5912
tp5913
a(g5867
S'Sep-17'
p5914
S'24-18'
p5915
tp5916
asg64
(lp5917
(S'Both'
p5918
(dp5919
S'NamedEntityTag'
p5920
g82
sS'CharacterOffsetEnd'
p5921
S'1569'
p5922
sS'Lemma'
p5923
S'both'
p5924
sS'PartOfSpeech'
p5925
S'DT'
p5926
sS'CharacterOffsetBegin'
p5927
S'1565'
p5928
stp5929
a(S'Ranariddh'
p5930
(dp5931
S'NamedEntityTag'
p5932
S'PERSON'
p5933
sS'CharacterOffsetEnd'
p5934
S'1579'
p5935
sS'Lemma'
p5936
S'Ranariddh'
p5937
sS'PartOfSpeech'
p5938
S'NNP'
p5939
sS'CharacterOffsetBegin'
p5940
S'1570'
p5941
stp5942
a(S'and'
p5943
(dp5944
S'NamedEntityTag'
p5945
g82
sS'CharacterOffsetEnd'
p5946
S'1583'
p5947
sS'Lemma'
p5948
S'and'
p5949
sS'PartOfSpeech'
p5950
S'CC'
p5951
sS'CharacterOffsetBegin'
p5952
S'1580'
p5953
stp5954
a(S'Sam'
p5955
(dp5956
S'NamedEntityTag'
p5957
S'PERSON'
p5958
sS'CharacterOffsetEnd'
p5959
S'1587'
p5960
sS'Lemma'
p5961
S'Sam'
p5962
sS'PartOfSpeech'
p5963
S'NNP'
p5964
sS'CharacterOffsetBegin'
p5965
S'1584'
p5966
stp5967
a(S'Rainsy'
p5968
(dp5969
S'NamedEntityTag'
p5970
S'PERSON'
p5971
sS'CharacterOffsetEnd'
p5972
S'1594'
p5973
sS'Lemma'
p5974
S'Rainsy'
p5975
sS'PartOfSpeech'
p5976
S'NNP'
p5977
sS'CharacterOffsetBegin'
p5978
S'1588'
p5979
stp5980
a(S'have'
p5981
(dp5982
S'NamedEntityTag'
p5983
g82
sS'CharacterOffsetEnd'
p5984
S'1599'
p5985
sS'Lemma'
p5986
S'have'
p5987
sS'PartOfSpeech'
p5988
S'VBP'
p5989
sS'CharacterOffsetBegin'
p5990
S'1595'
p5991
stp5992
a(S'been'
p5993
(dp5994
S'NamedEntityTag'
p5995
g82
sS'CharacterOffsetEnd'
p5996
S'1604'
p5997
sS'Lemma'
p5998
S'be'
p5999
sS'PartOfSpeech'
p6000
S'VBN'
p6001
sS'CharacterOffsetBegin'
p6002
S'1600'
p6003
stp6004
a(S'outside'
p6005
(dp6006
S'NamedEntityTag'
p6007
g82
sS'CharacterOffsetEnd'
p6008
S'1612'
p6009
sS'Lemma'
p6010
S'outside'
p6011
sS'PartOfSpeech'
p6012
S'IN'
p6013
sS'CharacterOffsetBegin'
p6014
S'1605'
p6015
stp6016
a(S'the'
p6017
(dp6018
S'NamedEntityTag'
p6019
g82
sS'CharacterOffsetEnd'
p6020
S'1616'
p6021
sS'Lemma'
p6022
S'the'
p6023
sS'PartOfSpeech'
p6024
S'DT'
p6025
sS'CharacterOffsetBegin'
p6026
S'1613'
p6027
stp6028
a(S'country'
p6029
(dp6030
S'NamedEntityTag'
p6031
g82
sS'CharacterOffsetEnd'
p6032
S'1624'
p6033
sS'Lemma'
p6034
S'country'
p6035
sS'PartOfSpeech'
p6036
S'NN'
p6037
sS'CharacterOffsetBegin'
p6038
S'1617'
p6039
stp6040
a(S'since'
p6041
(dp6042
S'NamedEntityTag'
p6043
g82
sS'CharacterOffsetEnd'
p6044
S'1630'
p6045
sS'Lemma'
p6046
S'since'
p6047
sS'PartOfSpeech'
p6048
S'IN'
p6049
sS'CharacterOffsetBegin'
p6050
S'1625'
p6051
stp6052
a(S'parliament'
p6053
(dp6054
S'NamedEntityTag'
p6055
g82
sS'CharacterOffsetEnd'
p6056
S'1641'
p6057
sS'Lemma'
p6058
S'parliament'
p6059
sS'PartOfSpeech'
p6060
S'NN'
p6061
sS'CharacterOffsetBegin'
p6062
S'1631'
p6063
stp6064
a(S'was'
p6065
(dp6066
S'NamedEntityTag'
p6067
g82
sS'CharacterOffsetEnd'
p6068
S'1645'
p6069
sS'Lemma'
p6070
S'be'
p6071
sS'PartOfSpeech'
p6072
S'VBD'
p6073
sS'CharacterOffsetBegin'
p6074
S'1642'
p6075
stp6076
a(S'ceremonially'
p6077
(dp6078
S'NamedEntityTag'
p6079
g82
sS'CharacterOffsetEnd'
p6080
S'1658'
p6081
sS'Lemma'
p6082
S'ceremonially'
p6083
sS'PartOfSpeech'
p6084
S'RB'
p6085
sS'CharacterOffsetBegin'
p6086
S'1646'
p6087
stp6088
a(S'opened'
p6089
(dp6090
S'NamedEntityTag'
p6091
g82
sS'CharacterOffsetEnd'
p6092
S'1665'
p6093
sS'Lemma'
p6094
S'open'
p6095
sS'PartOfSpeech'
p6096
S'VBN'
p6097
sS'CharacterOffsetBegin'
p6098
S'1659'
p6099
stp6100
a(S'on'
p6101
(dp6102
S'NamedEntityTag'
p6103
g82
sS'CharacterOffsetEnd'
p6104
S'1668'
p6105
sS'Lemma'
p6106
S'on'
p6107
sS'PartOfSpeech'
p6108
S'IN'
p6109
sS'CharacterOffsetBegin'
p6110
S'1666'
p6111
stp6112
a(S'Sep'
p6113
(dp6114
S'NormalizedNamedEntityTag'
p6115
S'XXXX-09-24'
p6116
sS'Timex'
p6117
S'<TIMEX3 tid="t3" type="DATE" value="XXXX-09-24">Sep 24</TIMEX3>'
p6118
sS'Lemma'
p6119
S'Sep'
p6120
sS'CharacterOffsetEnd'
p6121
S'1672'
p6122
sS'PartOfSpeech'
p6123
S'NNP'
p6124
sS'CharacterOffsetBegin'
p6125
S'1669'
p6126
sS'NamedEntityTag'
p6127
S'DATE'
p6128
stp6129
a(S'24'
p6130
(dp6131
S'NormalizedNamedEntityTag'
p6132
S'XXXX-09-24'
p6133
sS'Timex'
p6134
S'<TIMEX3 tid="t3" type="DATE" value="XXXX-09-24">Sep 24</TIMEX3>'
p6135
sS'Lemma'
p6136
S'24'
p6137
sS'CharacterOffsetEnd'
p6138
S'1675'
p6139
sS'PartOfSpeech'
p6140
S'CD'
p6141
sS'CharacterOffsetBegin'
p6142
S'1673'
p6143
sS'NamedEntityTag'
p6144
S'DATE'
p6145
stp6146
a(g616
(dp6147
S'NamedEntityTag'
p6148
g82
sS'CharacterOffsetEnd'
p6149
S'1676'
p6150
sS'Lemma'
p6151
g616
sS'PartOfSpeech'
p6152
g616
sS'CharacterOffsetBegin'
p6153
S'1675'
p6154
stp6155
asa(dp6156
g7
S'(ROOT (S (NP (NP (NNP Sam) (NNP Rainsy)) (CC and) (NP (NP (DT a) (NN number)) (PP (IN of) (NP (NN opposition) (NNS figures))))) (VP (VBP have) (VP (VBN been) (PP (IN under) (NP (NP (NN court) (NN investigation)) (PP (IN for) (NP (NP (DT a) (NN grenade) (NN attack)) (PP (IN on) (NP (NNP Hun) (NNP Sens) (NNP Phnom) (NNP Penh) (NN residence))))))) (PP (IN on) (NP (NN Sep) (CD 7))))) (. .)))'
p6157
sg9
S'Sam Rainsy and a number of opposition figures have been under court investigation for a grenade attack on Hun Sens Phnom Penh residence on Sep 7.'
p6158
sg11
(lp6159
(S'root'
p6160
S'ROOT'
p6161
S'been'
p6162
tp6163
a(S'nn'
p6164
S'Rainsy'
p6165
S'Sam'
p6166
tp6167
a(S'nsubj'
p6168
S'been'
p6169
S'Rainsy'
p6170
tp6171
a(S'det'
p6172
S'number'
p6173
g1596
tp6174
a(S'conj_and'
p6175
S'Rainsy'
p6176
S'number'
p6177
tp6178
a(S'nn'
p6179
S'figures'
p6180
S'opposition'
p6181
tp6182
a(S'prep_of'
p6183
S'number'
p6184
S'figures'
p6185
tp6186
a(S'aux'
p6187
S'been'
p6188
S'have'
p6189
tp6190
a(S'nn'
p6191
S'investigation'
p6192
S'court'
p6193
tp6194
a(S'prep_under'
p6195
S'been'
p6196
S'investigation'
p6197
tp6198
a(S'det'
p6199
S'attack'
p6200
g1596
tp6201
a(S'nn'
p6202
S'attack'
p6203
S'grenade'
p6204
tp6205
a(S'prep_for'
p6206
S'investigation'
p6207
S'attack'
p6208
tp6209
a(S'nn'
p6210
S'residence'
p6211
S'Hun'
p6212
tp6213
a(S'nn'
p6214
S'residence'
p6215
S'Sens'
p6216
tp6217
a(S'nn'
p6218
S'residence'
p6219
S'Phnom'
p6220
tp6221
a(S'nn'
p6222
S'residence'
p6223
S'Penh'
p6224
tp6225
a(S'prep_on'
p6226
S'attack'
p6227
S'residence'
p6228
tp6229
a(S'prep_on'
p6230
S'been'
p6231
S'Sep'
p6232
tp6233
a(S'num'
p6234
S'Sep'
p6235
S'7'
p6236
tp6237
asg41
(lp6238
(g6160
S'ROOT-0'
p6239
S'been-10'
p6240
tp6241
a(g6164
S'Rainsy-2'
p6242
S'Sam-1'
p6243
tp6244
a(g6168
S'been-10'
p6245
S'Rainsy-2'
p6246
tp6247
a(g6172
S'number-5'
p6248
S'a-4'
p6249
tp6250
a(g6175
S'Rainsy-2'
p6251
S'number-5'
p6252
tp6253
a(g6179
S'figures-8'
p6254
S'opposition-7'
p6255
tp6256
a(g6183
S'number-5'
p6257
S'figures-8'
p6258
tp6259
a(g6187
S'been-10'
p6260
S'have-9'
p6261
tp6262
a(g6191
S'investigation-13'
p6263
S'court-12'
p6264
tp6265
a(g6195
S'been-10'
p6266
S'investigation-13'
p6267
tp6268
a(g6199
S'attack-17'
p6269
S'a-15'
p6270
tp6271
a(g6202
S'attack-17'
p6272
S'grenade-16'
p6273
tp6274
a(g6206
S'investigation-13'
p6275
S'attack-17'
p6276
tp6277
a(g6210
S'residence-23'
p6278
S'Hun-19'
p6279
tp6280
a(g6214
S'residence-23'
p6281
S'Sens-20'
p6282
tp6283
a(g6218
S'residence-23'
p6284
S'Phnom-21'
p6285
tp6286
a(g6222
S'residence-23'
p6287
S'Penh-22'
p6288
tp6289
a(g6226
S'attack-17'
p6290
S'residence-23'
p6291
tp6292
a(g6230
S'been-10'
p6293
S'Sep-25'
p6294
tp6295
a(g6234
S'Sep-25'
p6296
S'7-26'
p6297
tp6298
asg64
(lp6299
(S'Sam'
p6300
(dp6301
S'NamedEntityTag'
p6302
S'PERSON'
p6303
sS'CharacterOffsetEnd'
p6304
S'1680'
p6305
sS'Lemma'
p6306
S'Sam'
p6307
sS'PartOfSpeech'
p6308
S'NNP'
p6309
sS'CharacterOffsetBegin'
p6310
S'1677'
p6311
stp6312
a(S'Rainsy'
p6313
(dp6314
S'NamedEntityTag'
p6315
S'PERSON'
p6316
sS'CharacterOffsetEnd'
p6317
S'1687'
p6318
sS'Lemma'
p6319
S'Rainsy'
p6320
sS'PartOfSpeech'
p6321
S'NNP'
p6322
sS'CharacterOffsetBegin'
p6323
S'1681'
p6324
stp6325
a(S'and'
p6326
(dp6327
S'NamedEntityTag'
p6328
g82
sS'CharacterOffsetEnd'
p6329
S'1691'
p6330
sS'Lemma'
p6331
S'and'
p6332
sS'PartOfSpeech'
p6333
S'CC'
p6334
sS'CharacterOffsetBegin'
p6335
S'1688'
p6336
stp6337
a(g1596
(dp6338
S'NamedEntityTag'
p6339
g82
sS'CharacterOffsetEnd'
p6340
S'1693'
p6341
sS'Lemma'
p6342
g1596
sS'PartOfSpeech'
p6343
S'DT'
p6344
sS'CharacterOffsetBegin'
p6345
S'1692'
p6346
stp6347
a(S'number'
p6348
(dp6349
S'NamedEntityTag'
p6350
g82
sS'CharacterOffsetEnd'
p6351
S'1700'
p6352
sS'Lemma'
p6353
S'number'
p6354
sS'PartOfSpeech'
p6355
S'NN'
p6356
sS'CharacterOffsetBegin'
p6357
S'1694'
p6358
stp6359
a(S'of'
p6360
(dp6361
S'NamedEntityTag'
p6362
g82
sS'CharacterOffsetEnd'
p6363
S'1703'
p6364
sS'Lemma'
p6365
S'of'
p6366
sS'PartOfSpeech'
p6367
S'IN'
p6368
sS'CharacterOffsetBegin'
p6369
S'1701'
p6370
stp6371
a(S'opposition'
p6372
(dp6373
S'NamedEntityTag'
p6374
g82
sS'CharacterOffsetEnd'
p6375
S'1714'
p6376
sS'Lemma'
p6377
S'opposition'
p6378
sS'PartOfSpeech'
p6379
S'NN'
p6380
sS'CharacterOffsetBegin'
p6381
S'1704'
p6382
stp6383
a(S'figures'
p6384
(dp6385
S'NamedEntityTag'
p6386
g82
sS'CharacterOffsetEnd'
p6387
S'1722'
p6388
sS'Lemma'
p6389
S'figure'
p6390
sS'PartOfSpeech'
p6391
S'NNS'
p6392
sS'CharacterOffsetBegin'
p6393
S'1715'
p6394
stp6395
a(S'have'
p6396
(dp6397
S'NamedEntityTag'
p6398
g82
sS'CharacterOffsetEnd'
p6399
S'1727'
p6400
sS'Lemma'
p6401
S'have'
p6402
sS'PartOfSpeech'
p6403
S'VBP'
p6404
sS'CharacterOffsetBegin'
p6405
S'1723'
p6406
stp6407
a(S'been'
p6408
(dp6409
S'NamedEntityTag'
p6410
g82
sS'CharacterOffsetEnd'
p6411
S'1732'
p6412
sS'Lemma'
p6413
S'be'
p6414
sS'PartOfSpeech'
p6415
S'VBN'
p6416
sS'CharacterOffsetBegin'
p6417
S'1728'
p6418
stp6419
a(S'under'
p6420
(dp6421
S'NamedEntityTag'
p6422
g82
sS'CharacterOffsetEnd'
p6423
S'1738'
p6424
sS'Lemma'
p6425
S'under'
p6426
sS'PartOfSpeech'
p6427
S'IN'
p6428
sS'CharacterOffsetBegin'
p6429
S'1733'
p6430
stp6431
a(S'court'
p6432
(dp6433
S'NamedEntityTag'
p6434
g82
sS'CharacterOffsetEnd'
p6435
S'1744'
p6436
sS'Lemma'
p6437
S'court'
p6438
sS'PartOfSpeech'
p6439
S'NN'
p6440
sS'CharacterOffsetBegin'
p6441
S'1739'
p6442
stp6443
a(S'investigation'
p6444
(dp6445
S'NamedEntityTag'
p6446
g82
sS'CharacterOffsetEnd'
p6447
S'1758'
p6448
sS'Lemma'
p6449
S'investigation'
p6450
sS'PartOfSpeech'
p6451
S'NN'
p6452
sS'CharacterOffsetBegin'
p6453
S'1745'
p6454
stp6455
a(S'for'
p6456
(dp6457
S'NamedEntityTag'
p6458
g82
sS'CharacterOffsetEnd'
p6459
S'1762'
p6460
sS'Lemma'
p6461
S'for'
p6462
sS'PartOfSpeech'
p6463
S'IN'
p6464
sS'CharacterOffsetBegin'
p6465
S'1759'
p6466
stp6467
a(g1596
(dp6468
S'NamedEntityTag'
p6469
g82
sS'CharacterOffsetEnd'
p6470
S'1764'
p6471
sS'Lemma'
p6472
g1596
sS'PartOfSpeech'
p6473
S'DT'
p6474
sS'CharacterOffsetBegin'
p6475
S'1763'
p6476
stp6477
a(S'grenade'
p6478
(dp6479
S'NamedEntityTag'
p6480
g82
sS'CharacterOffsetEnd'
p6481
S'1772'
p6482
sS'Lemma'
p6483
S'grenade'
p6484
sS'PartOfSpeech'
p6485
S'NN'
p6486
sS'CharacterOffsetBegin'
p6487
S'1765'
p6488
stp6489
a(S'attack'
p6490
(dp6491
S'NamedEntityTag'
p6492
g82
sS'CharacterOffsetEnd'
p6493
S'1779'
p6494
sS'Lemma'
p6495
S'attack'
p6496
sS'PartOfSpeech'
p6497
S'NN'
p6498
sS'CharacterOffsetBegin'
p6499
S'1773'
p6500
stp6501
a(S'on'
p6502
(dp6503
S'NamedEntityTag'
p6504
g82
sS'CharacterOffsetEnd'
p6505
S'1782'
p6506
sS'Lemma'
p6507
S'on'
p6508
sS'PartOfSpeech'
p6509
S'IN'
p6510
sS'CharacterOffsetBegin'
p6511
S'1780'
p6512
stp6513
a(S'Hun'
p6514
(dp6515
S'NamedEntityTag'
p6516
g82
sS'CharacterOffsetEnd'
p6517
S'1786'
p6518
sS'Lemma'
p6519
S'Hun'
p6520
sS'PartOfSpeech'
p6521
S'NNP'
p6522
sS'CharacterOffsetBegin'
p6523
S'1783'
p6524
stp6525
a(S'Sens'
p6526
(dp6527
S'NamedEntityTag'
p6528
g82
sS'CharacterOffsetEnd'
p6529
S'1791'
p6530
sS'Lemma'
p6531
S'Sens'
p6532
sS'PartOfSpeech'
p6533
S'NNP'
p6534
sS'CharacterOffsetBegin'
p6535
S'1787'
p6536
stp6537
a(S'Phnom'
p6538
(dp6539
S'NamedEntityTag'
p6540
g82
sS'CharacterOffsetEnd'
p6541
S'1797'
p6542
sS'Lemma'
p6543
S'Phnom'
p6544
sS'PartOfSpeech'
p6545
S'NNP'
p6546
sS'CharacterOffsetBegin'
p6547
S'1792'
p6548
stp6549
a(S'Penh'
p6550
(dp6551
S'NamedEntityTag'
p6552
g82
sS'CharacterOffsetEnd'
p6553
S'1802'
p6554
sS'Lemma'
p6555
S'Penh'
p6556
sS'PartOfSpeech'
p6557
S'NNP'
p6558
sS'CharacterOffsetBegin'
p6559
S'1798'
p6560
stp6561
a(S'residence'
p6562
(dp6563
S'NamedEntityTag'
p6564
g82
sS'CharacterOffsetEnd'
p6565
S'1812'
p6566
sS'Lemma'
p6567
S'residence'
p6568
sS'PartOfSpeech'
p6569
S'NN'
p6570
sS'CharacterOffsetBegin'
p6571
S'1803'
p6572
stp6573
a(S'on'
p6574
(dp6575
S'NamedEntityTag'
p6576
g82
sS'CharacterOffsetEnd'
p6577
S'1815'
p6578
sS'Lemma'
p6579
S'on'
p6580
sS'PartOfSpeech'
p6581
S'IN'
p6582
sS'CharacterOffsetBegin'
p6583
S'1813'
p6584
stp6585
a(S'Sep'
p6586
(dp6587
S'NormalizedNamedEntityTag'
p6588
S'XXXX-09-07'
p6589
sS'Timex'
p6590
S'<TIMEX3 tid="t4" type="DATE" value="XXXX-09-07">Sep 7</TIMEX3>'
p6591
sS'Lemma'
p6592
S'sep'
p6593
sS'CharacterOffsetEnd'
p6594
S'1819'
p6595
sS'PartOfSpeech'
p6596
S'NN'
p6597
sS'CharacterOffsetBegin'
p6598
S'1816'
p6599
sS'NamedEntityTag'
p6600
S'DATE'
p6601
stp6602
a(g6236
(dp6603
S'NormalizedNamedEntityTag'
p6604
S'XXXX-09-07'
p6605
sS'Timex'
p6606
S'<TIMEX3 tid="t4" type="DATE" value="XXXX-09-07">Sep 7</TIMEX3>'
p6607
sS'Lemma'
p6608
g6236
sS'CharacterOffsetEnd'
p6609
S'1821'
p6610
sS'PartOfSpeech'
p6611
S'CD'
p6612
sS'CharacterOffsetBegin'
p6613
S'1820'
p6614
sS'NamedEntityTag'
p6615
S'DATE'
p6616
stp6617
a(g616
(dp6618
S'NamedEntityTag'
p6619
g82
sS'CharacterOffsetEnd'
p6620
S'1822'
p6621
sS'Lemma'
p6622
g616
sS'PartOfSpeech'
p6623
g616
sS'CharacterOffsetBegin'
p6624
S'1821'
p6625
stp6626
asa(dp6627
g7
S'(ROOT (S (NP (NNP Hun) (NNP Sen)) (VP (VBD was) (RB not) (ADVP (NN home) (IN at)) (NP (NP (DT the) (NN time)) (PP (IN of) (NP (NP (DT the) (NN attack)) (, ,) (SBAR (WHNP (WDT which)) (S (VP (VBD was) (VP (VBN followed) (PP (IN by) (NP (NP (DT a) (NN police) (NN crackdown)) (PP (IN on) (NP (NNS demonstrators))))) (S (VP (VBG contesting) (S (NP (NNP Hun) (NNP Sens)) (NP (NN election) (NN victory))))))))))))) (. .)))'
p6628
sg9
S'Hun Sen was not home at the time of the attack, which was followed by a police crackdown on demonstrators contesting Hun Sens election victory.'
p6629
sg11
(lp6630
(S'root'
p6631
S'ROOT'
p6632
S'time'
p6633
tp6634
a(S'nn'
p6635
S'Sen'
p6636
S'Hun'
p6637
tp6638
a(S'nsubj'
p6639
S'time'
p6640
S'Sen'
p6641
tp6642
a(S'cop'
p6643
S'time'
p6644
S'was'
p6645
tp6646
a(S'neg'
p6647
S'time'
p6648
S'not'
p6649
tp6650
a(S'dep'
p6651
S'at'
p6652
S'home'
p6653
tp6654
a(S'advmod'
p6655
S'time'
p6656
S'at'
p6657
tp6658
a(S'det'
p6659
S'time'
p6660
S'the'
p6661
tp6662
a(S'det'
p6663
S'attack'
p6664
S'the'
p6665
tp6666
a(S'prep_of'
p6667
S'time'
p6668
S'attack'
p6669
tp6670
a(S'nsubjpass'
p6671
S'followed'
p6672
S'which'
p6673
tp6674
a(S'auxpass'
p6675
S'followed'
p6676
S'was'
p6677
tp6678
a(S'rcmod'
p6679
S'attack'
p6680
S'followed'
p6681
tp6682
a(S'det'
p6683
S'crackdown'
p6684
g1596
tp6685
a(S'nn'
p6686
S'crackdown'
p6687
S'police'
p6688
tp6689
a(S'agent'
p6690
S'followed'
p6691
S'crackdown'
p6692
tp6693
a(S'prep_on'
p6694
S'crackdown'
p6695
S'demonstrators'
p6696
tp6697
a(S'xcomp'
p6698
S'followed'
p6699
S'contesting'
p6700
tp6701
a(S'nn'
p6702
S'Sens'
p6703
S'Hun'
p6704
tp6705
a(S'nsubj'
p6706
S'victory'
p6707
S'Sens'
p6708
tp6709
a(S'nn'
p6710
S'victory'
p6711
S'election'
p6712
tp6713
a(S'xcomp'
p6714
S'contesting'
p6715
S'victory'
p6716
tp6717
asg41
(lp6718
(g6631
S'ROOT-0'
p6719
S'time-8'
p6720
tp6721
a(g6635
S'Sen-2'
p6722
S'Hun-1'
p6723
tp6724
a(g6639
S'time-8'
p6725
S'Sen-2'
p6726
tp6727
a(g6643
S'time-8'
p6728
S'was-3'
p6729
tp6730
a(g6647
S'time-8'
p6731
S'not-4'
p6732
tp6733
a(g6651
S'at-6'
p6734
S'home-5'
p6735
tp6736
a(g6655
S'time-8'
p6737
S'at-6'
p6738
tp6739
a(g6659
S'time-8'
p6740
S'the-7'
p6741
tp6742
a(g6663
S'attack-11'
p6743
S'the-10'
p6744
tp6745
a(g6667
S'time-8'
p6746
S'attack-11'
p6747
tp6748
a(g6671
S'followed-15'
p6749
S'which-13'
p6750
tp6751
a(g6675
S'followed-15'
p6752
S'was-14'
p6753
tp6754
a(g6679
S'attack-11'
p6755
S'followed-15'
p6756
tp6757
a(g6683
S'crackdown-19'
p6758
S'a-17'
p6759
tp6760
a(g6686
S'crackdown-19'
p6761
S'police-18'
p6762
tp6763
a(g6690
S'followed-15'
p6764
S'crackdown-19'
p6765
tp6766
a(g6694
S'crackdown-19'
p6767
S'demonstrators-21'
p6768
tp6769
a(g6698
S'followed-15'
p6770
S'contesting-22'
p6771
tp6772
a(g6702
S'Sens-24'
p6773
S'Hun-23'
p6774
tp6775
a(g6706
S'victory-26'
p6776
S'Sens-24'
p6777
tp6778
a(g6710
S'victory-26'
p6779
S'election-25'
p6780
tp6781
a(g6714
S'contesting-22'
p6782
S'victory-26'
p6783
tp6784
asg64
(lp6785
(S'Hun'
p6786
(dp6787
S'NamedEntityTag'
p6788
S'PERSON'
p6789
sS'CharacterOffsetEnd'
p6790
S'1826'
p6791
sS'Lemma'
p6792
S'Hun'
p6793
sS'PartOfSpeech'
p6794
S'NNP'
p6795
sS'CharacterOffsetBegin'
p6796
S'1823'
p6797
stp6798
a(S'Sen'
p6799
(dp6800
S'NamedEntityTag'
p6801
S'PERSON'
p6802
sS'CharacterOffsetEnd'
p6803
S'1830'
p6804
sS'Lemma'
p6805
S'Sen'
p6806
sS'PartOfSpeech'
p6807
S'NNP'
p6808
sS'CharacterOffsetBegin'
p6809
S'1827'
p6810
stp6811
a(S'was'
p6812
(dp6813
S'NamedEntityTag'
p6814
g82
sS'CharacterOffsetEnd'
p6815
S'1834'
p6816
sS'Lemma'
p6817
S'be'
p6818
sS'PartOfSpeech'
p6819
S'VBD'
p6820
sS'CharacterOffsetBegin'
p6821
S'1831'
p6822
stp6823
a(S'not'
p6824
(dp6825
S'NamedEntityTag'
p6826
g82
sS'CharacterOffsetEnd'
p6827
S'1838'
p6828
sS'Lemma'
p6829
S'not'
p6830
sS'PartOfSpeech'
p6831
S'RB'
p6832
sS'CharacterOffsetBegin'
p6833
S'1835'
p6834
stp6835
a(S'home'
p6836
(dp6837
S'NamedEntityTag'
p6838
g82
sS'CharacterOffsetEnd'
p6839
S'1843'
p6840
sS'Lemma'
p6841
S'home'
p6842
sS'PartOfSpeech'
p6843
S'NN'
p6844
sS'CharacterOffsetBegin'
p6845
S'1839'
p6846
stp6847
a(S'at'
p6848
(dp6849
S'NamedEntityTag'
p6850
g82
sS'CharacterOffsetEnd'
p6851
S'1846'
p6852
sS'Lemma'
p6853
S'at'
p6854
sS'PartOfSpeech'
p6855
S'IN'
p6856
sS'CharacterOffsetBegin'
p6857
S'1844'
p6858
stp6859
a(S'the'
p6860
(dp6861
S'NamedEntityTag'
p6862
g82
sS'CharacterOffsetEnd'
p6863
S'1850'
p6864
sS'Lemma'
p6865
S'the'
p6866
sS'PartOfSpeech'
p6867
S'DT'
p6868
sS'CharacterOffsetBegin'
p6869
S'1847'
p6870
stp6871
a(S'time'
p6872
(dp6873
S'NamedEntityTag'
p6874
g82
sS'CharacterOffsetEnd'
p6875
S'1855'
p6876
sS'Lemma'
p6877
S'time'
p6878
sS'PartOfSpeech'
p6879
S'NN'
p6880
sS'CharacterOffsetBegin'
p6881
S'1851'
p6882
stp6883
a(S'of'
p6884
(dp6885
S'NamedEntityTag'
p6886
g82
sS'CharacterOffsetEnd'
p6887
S'1858'
p6888
sS'Lemma'
p6889
S'of'
p6890
sS'PartOfSpeech'
p6891
S'IN'
p6892
sS'CharacterOffsetBegin'
p6893
S'1856'
p6894
stp6895
a(S'the'
p6896
(dp6897
S'NamedEntityTag'
p6898
g82
sS'CharacterOffsetEnd'
p6899
S'1862'
p6900
sS'Lemma'
p6901
S'the'
p6902
sS'PartOfSpeech'
p6903
S'DT'
p6904
sS'CharacterOffsetBegin'
p6905
S'1859'
p6906
stp6907
a(S'attack'
p6908
(dp6909
S'NamedEntityTag'
p6910
g82
sS'CharacterOffsetEnd'
p6911
S'1869'
p6912
sS'Lemma'
p6913
S'attack'
p6914
sS'PartOfSpeech'
p6915
S'NN'
p6916
sS'CharacterOffsetBegin'
p6917
S'1863'
p6918
stp6919
a(g339
(dp6920
S'NamedEntityTag'
p6921
g82
sS'CharacterOffsetEnd'
p6922
S'1870'
p6923
sS'Lemma'
p6924
g339
sS'PartOfSpeech'
p6925
g339
sS'CharacterOffsetBegin'
p6926
S'1869'
p6927
stp6928
a(S'which'
p6929
(dp6930
S'NamedEntityTag'
p6931
g82
sS'CharacterOffsetEnd'
p6932
S'1876'
p6933
sS'Lemma'
p6934
S'which'
p6935
sS'PartOfSpeech'
p6936
S'WDT'
p6937
sS'CharacterOffsetBegin'
p6938
S'1871'
p6939
stp6940
a(S'was'
p6941
(dp6942
S'NamedEntityTag'
p6943
g82
sS'CharacterOffsetEnd'
p6944
S'1880'
p6945
sS'Lemma'
p6946
S'be'
p6947
sS'PartOfSpeech'
p6948
S'VBD'
p6949
sS'CharacterOffsetBegin'
p6950
S'1877'
p6951
stp6952
a(S'followed'
p6953
(dp6954
S'NamedEntityTag'
p6955
g82
sS'CharacterOffsetEnd'
p6956
S'1889'
p6957
sS'Lemma'
p6958
S'follow'
p6959
sS'PartOfSpeech'
p6960
S'VBN'
p6961
sS'CharacterOffsetBegin'
p6962
S'1881'
p6963
stp6964
a(S'by'
p6965
(dp6966
S'NamedEntityTag'
p6967
g82
sS'CharacterOffsetEnd'
p6968
S'1892'
p6969
sS'Lemma'
p6970
S'by'
p6971
sS'PartOfSpeech'
p6972
S'IN'
p6973
sS'CharacterOffsetBegin'
p6974
S'1890'
p6975
stp6976
a(g1596
(dp6977
S'NamedEntityTag'
p6978
g82
sS'CharacterOffsetEnd'
p6979
S'1894'
p6980
sS'Lemma'
p6981
g1596
sS'PartOfSpeech'
p6982
S'DT'
p6983
sS'CharacterOffsetBegin'
p6984
S'1893'
p6985
stp6986
a(S'police'
p6987
(dp6988
S'NamedEntityTag'
p6989
g82
sS'CharacterOffsetEnd'
p6990
S'1901'
p6991
sS'Lemma'
p6992
S'police'
p6993
sS'PartOfSpeech'
p6994
S'NN'
p6995
sS'CharacterOffsetBegin'
p6996
S'1895'
p6997
stp6998
a(S'crackdown'
p6999
(dp7000
S'NamedEntityTag'
p7001
g82
sS'CharacterOffsetEnd'
p7002
S'1911'
p7003
sS'Lemma'
p7004
S'crackdown'
p7005
sS'PartOfSpeech'
p7006
S'NN'
p7007
sS'CharacterOffsetBegin'
p7008
S'1902'
p7009
stp7010
a(S'on'
p7011
(dp7012
S'NamedEntityTag'
p7013
g82
sS'CharacterOffsetEnd'
p7014
S'1914'
p7015
sS'Lemma'
p7016
S'on'
p7017
sS'PartOfSpeech'
p7018
S'IN'
p7019
sS'CharacterOffsetBegin'
p7020
S'1912'
p7021
stp7022
a(S'demonstrators'
p7023
(dp7024
S'NamedEntityTag'
p7025
g82
sS'CharacterOffsetEnd'
p7026
S'1928'
p7027
sS'Lemma'
p7028
S'demonstrator'
p7029
sS'PartOfSpeech'
p7030
S'NNS'
p7031
sS'CharacterOffsetBegin'
p7032
S'1915'
p7033
stp7034
a(S'contesting'
p7035
(dp7036
S'NamedEntityTag'
p7037
g82
sS'CharacterOffsetEnd'
p7038
S'1939'
p7039
sS'Lemma'
p7040
S'contest'
p7041
sS'PartOfSpeech'
p7042
S'VBG'
p7043
sS'CharacterOffsetBegin'
p7044
S'1929'
p7045
stp7046
a(S'Hun'
p7047
(dp7048
S'NamedEntityTag'
p7049
S'PERSON'
p7050
sS'CharacterOffsetEnd'
p7051
S'1943'
p7052
sS'Lemma'
p7053
S'Hun'
p7054
sS'PartOfSpeech'
p7055
S'NNP'
p7056
sS'CharacterOffsetBegin'
p7057
S'1940'
p7058
stp7059
a(S'Sens'
p7060
(dp7061
S'NamedEntityTag'
p7062
S'PERSON'
p7063
sS'CharacterOffsetEnd'
p7064
S'1948'
p7065
sS'Lemma'
p7066
S'Sens'
p7067
sS'PartOfSpeech'
p7068
S'NNP'
p7069
sS'CharacterOffsetBegin'
p7070
S'1944'
p7071
stp7072
a(S'election'
p7073
(dp7074
S'NamedEntityTag'
p7075
g82
sS'CharacterOffsetEnd'
p7076
S'1957'
p7077
sS'Lemma'
p7078
S'election'
p7079
sS'PartOfSpeech'
p7080
S'NN'
p7081
sS'CharacterOffsetBegin'
p7082
S'1949'
p7083
stp7084
a(S'victory'
p7085
(dp7086
S'NamedEntityTag'
p7087
g82
sS'CharacterOffsetEnd'
p7088
S'1965'
p7089
sS'Lemma'
p7090
S'victory'
p7091
sS'PartOfSpeech'
p7092
S'NN'
p7093
sS'CharacterOffsetBegin'
p7094
S'1958'
p7095
stp7096
a(g616
(dp7097
S'NamedEntityTag'
p7098
g82
sS'CharacterOffsetEnd'
p7099
S'1966'
p7100
sS'Lemma'
p7101
g616
sS'PartOfSpeech'
p7102
g616
sS'CharacterOffsetBegin'
p7103
S'1965'
p7104
stp7105
asa(dp7106
g7
S'(ROOT (S (NP (NP (DT The) (NNP Sam) (NNP Rainsy) (NNP Party)) (, ,) (PP (IN in) (NP (NP (DT a) (NN statement)) (VP (VBN released) (NP-TMP (NNP Friday))))) (, ,)) (VP (VBD accused) (NP (NP (NNP Hun) (NNP Sen)) (PP (IN of) (S (VP (VBG being) (ADJP (JJ unwilling) (S (VP (TO to) (VP (VB make) (NP (NP (DT any) (NN compromise)) (PP (IN on) (NP (NNS negotiations)))) (S (VP (TO to) (VP (VB break) (NP (DT the) (NN deadlock)))))))))))))) (. .)))'
p7107
sg9
S'The Sam Rainsy Party, in a statement released Friday, accused Hun Sen of being unwilling to make any compromise on negotiations to break the deadlock.'
p7108
sg11
(lp7109
(S'root'
p7110
S'ROOT'
p7111
S'accused'
p7112
tp7113
a(S'det'
p7114
S'Party'
p7115
S'The'
p7116
tp7117
a(S'nn'
p7118
S'Party'
p7119
S'Sam'
p7120
tp7121
a(S'nn'
p7122
S'Party'
p7123
S'Rainsy'
p7124
tp7125
a(S'nsubj'
p7126
S'accused'
p7127
S'Party'
p7128
tp7129
a(S'det'
p7130
S'statement'
p7131
g1596
tp7132
a(S'prep_in'
p7133
S'Party'
p7134
S'statement'
p7135
tp7136
a(S'partmod'
p7137
S'statement'
p7138
S'released'
p7139
tp7140
a(S'tmod'
p7141
S'released'
p7142
S'Friday'
p7143
tp7144
a(S'nn'
p7145
S'Sen'
p7146
S'Hun'
p7147
tp7148
a(S'dobj'
p7149
S'accused'
p7150
S'Sen'
p7151
tp7152
a(S'cop'
p7153
S'unwilling'
p7154
S'being'
p7155
tp7156
a(S'prepc_of'
p7157
S'Sen'
p7158
S'unwilling'
p7159
tp7160
a(S'aux'
p7161
S'make'
p7162
S'to'
p7163
tp7164
a(S'xcomp'
p7165
S'unwilling'
p7166
S'make'
p7167
tp7168
a(S'det'
p7169
S'compromise'
p7170
S'any'
p7171
tp7172
a(S'dobj'
p7173
S'make'
p7174
S'compromise'
p7175
tp7176
a(S'prep_on'
p7177
S'compromise'
p7178
S'negotiations'
p7179
tp7180
a(S'aux'
p7181
S'break'
p7182
S'to'
p7183
tp7184
a(S'xcomp'
p7185
S'make'
p7186
S'break'
p7187
tp7188
a(S'det'
p7189
S'deadlock'
p7190
S'the'
p7191
tp7192
a(S'dobj'
p7193
S'break'
p7194
S'deadlock'
p7195
tp7196
asg41
(lp7197
(g7110
S'ROOT-0'
p7198
S'accused-12'
p7199
tp7200
a(g7114
S'Party-4'
p7201
S'The-1'
p7202
tp7203
a(g7118
S'Party-4'
p7204
S'Sam-2'
p7205
tp7206
a(g7122
S'Party-4'
p7207
S'Rainsy-3'
p7208
tp7209
a(g7126
S'accused-12'
p7210
S'Party-4'
p7211
tp7212
a(g7130
S'statement-8'
p7213
S'a-7'
p7214
tp7215
a(g7133
S'Party-4'
p7216
S'statement-8'
p7217
tp7218
a(g7137
S'statement-8'
p7219
S'released-9'
p7220
tp7221
a(g7141
S'released-9'
p7222
S'Friday-10'
p7223
tp7224
a(g7145
S'Sen-14'
p7225
S'Hun-13'
p7226
tp7227
a(g7149
S'accused-12'
p7228
S'Sen-14'
p7229
tp7230
a(g7153
S'unwilling-17'
p7231
S'being-16'
p7232
tp7233
a(g7157
S'Sen-14'
p7234
S'unwilling-17'
p7235
tp7236
a(g7161
S'make-19'
p7237
S'to-18'
p7238
tp7239
a(g7165
S'unwilling-17'
p7240
S'make-19'
p7241
tp7242
a(g7169
S'compromise-21'
p7243
S'any-20'
p7244
tp7245
a(g7173
S'make-19'
p7246
S'compromise-21'
p7247
tp7248
a(g7177
S'compromise-21'
p7249
S'negotiations-23'
p7250
tp7251
a(g7181
S'break-25'
p7252
S'to-24'
p7253
tp7254
a(g7185
S'make-19'
p7255
S'break-25'
p7256
tp7257
a(g7189
S'deadlock-27'
p7258
S'the-26'
p7259
tp7260
a(g7193
S'break-25'
p7261
S'deadlock-27'
p7262
tp7263
asg64
(lp7264
(S'The'
p7265
(dp7266
S'NamedEntityTag'
p7267
g82
sS'CharacterOffsetEnd'
p7268
S'1970'
p7269
sS'Lemma'
p7270
S'the'
p7271
sS'PartOfSpeech'
p7272
S'DT'
p7273
sS'CharacterOffsetBegin'
p7274
S'1967'
p7275
stp7276
a(S'Sam'
p7277
(dp7278
S'NamedEntityTag'
p7279
S'PERSON'
p7280
sS'CharacterOffsetEnd'
p7281
S'1974'
p7282
sS'Lemma'
p7283
S'Sam'
p7284
sS'PartOfSpeech'
p7285
S'NNP'
p7286
sS'CharacterOffsetBegin'
p7287
S'1971'
p7288
stp7289
a(S'Rainsy'
p7290
(dp7291
S'NamedEntityTag'
p7292
S'PERSON'
p7293
sS'CharacterOffsetEnd'
p7294
S'1981'
p7295
sS'Lemma'
p7296
S'Rainsy'
p7297
sS'PartOfSpeech'
p7298
S'NNP'
p7299
sS'CharacterOffsetBegin'
p7300
S'1975'
p7301
stp7302
a(S'Party'
p7303
(dp7304
S'NamedEntityTag'
p7305
S'PERSON'
p7306
sS'CharacterOffsetEnd'
p7307
S'1987'
p7308
sS'Lemma'
p7309
S'Party'
p7310
sS'PartOfSpeech'
p7311
S'NNP'
p7312
sS'CharacterOffsetBegin'
p7313
S'1982'
p7314
stp7315
a(g339
(dp7316
S'NamedEntityTag'
p7317
g82
sS'CharacterOffsetEnd'
p7318
S'1988'
p7319
sS'Lemma'
p7320
g339
sS'PartOfSpeech'
p7321
g339
sS'CharacterOffsetBegin'
p7322
S'1987'
p7323
stp7324
a(S'in'
p7325
(dp7326
S'NamedEntityTag'
p7327
g82
sS'CharacterOffsetEnd'
p7328
S'1991'
p7329
sS'Lemma'
p7330
S'in'
p7331
sS'PartOfSpeech'
p7332
S'IN'
p7333
sS'CharacterOffsetBegin'
p7334
S'1989'
p7335
stp7336
a(g1596
(dp7337
S'NamedEntityTag'
p7338
g82
sS'CharacterOffsetEnd'
p7339
S'1993'
p7340
sS'Lemma'
p7341
g1596
sS'PartOfSpeech'
p7342
S'DT'
p7343
sS'CharacterOffsetBegin'
p7344
S'1992'
p7345
stp7346
a(S'statement'
p7347
(dp7348
S'NamedEntityTag'
p7349
g82
sS'CharacterOffsetEnd'
p7350
S'2003'
p7351
sS'Lemma'
p7352
S'statement'
p7353
sS'PartOfSpeech'
p7354
S'NN'
p7355
sS'CharacterOffsetBegin'
p7356
S'1994'
p7357
stp7358
a(S'released'
p7359
(dp7360
S'NamedEntityTag'
p7361
g82
sS'CharacterOffsetEnd'
p7362
S'2012'
p7363
sS'Lemma'
p7364
S'release'
p7365
sS'PartOfSpeech'
p7366
S'VBN'
p7367
sS'CharacterOffsetBegin'
p7368
S'2004'
p7369
stp7370
a(S'Friday'
p7371
(dp7372
S'NormalizedNamedEntityTag'
p7373
S'XXXX-WXX-5'
p7374
sS'Timex'
p7375
S'<TIMEX3 tid="t1" type="DATE" value="XXXX-WXX-5">Friday</TIMEX3>'
p7376
sS'Lemma'
p7377
S'Friday'
p7378
sS'CharacterOffsetEnd'
p7379
S'2019'
p7380
sS'PartOfSpeech'
p7381
S'NNP'
p7382
sS'CharacterOffsetBegin'
p7383
S'2013'
p7384
sS'NamedEntityTag'
p7385
S'DATE'
p7386
stp7387
a(g339
(dp7388
S'NamedEntityTag'
p7389
g82
sS'CharacterOffsetEnd'
p7390
S'2020'
p7391
sS'Lemma'
p7392
g339
sS'PartOfSpeech'
p7393
g339
sS'CharacterOffsetBegin'
p7394
S'2019'
p7395
stp7396
a(S'accused'
p7397
(dp7398
S'NamedEntityTag'
p7399
g82
sS'CharacterOffsetEnd'
p7400
S'2028'
p7401
sS'Lemma'
p7402
S'accuse'
p7403
sS'PartOfSpeech'
p7404
S'VBD'
p7405
sS'CharacterOffsetBegin'
p7406
S'2021'
p7407
stp7408
a(S'Hun'
p7409
(dp7410
S'NamedEntityTag'
p7411
S'PERSON'
p7412
sS'CharacterOffsetEnd'
p7413
S'2032'
p7414
sS'Lemma'
p7415
S'Hun'
p7416
sS'PartOfSpeech'
p7417
S'NNP'
p7418
sS'CharacterOffsetBegin'
p7419
S'2029'
p7420
stp7421
a(S'Sen'
p7422
(dp7423
S'NamedEntityTag'
p7424
S'PERSON'
p7425
sS'CharacterOffsetEnd'
p7426
S'2036'
p7427
sS'Lemma'
p7428
S'Sen'
p7429
sS'PartOfSpeech'
p7430
S'NNP'
p7431
sS'CharacterOffsetBegin'
p7432
S'2033'
p7433
stp7434
a(S'of'
p7435
(dp7436
S'NamedEntityTag'
p7437
g82
sS'CharacterOffsetEnd'
p7438
S'2039'
p7439
sS'Lemma'
p7440
S'of'
p7441
sS'PartOfSpeech'
p7442
S'IN'
p7443
sS'CharacterOffsetBegin'
p7444
S'2037'
p7445
stp7446
a(S'being'
p7447
(dp7448
S'NamedEntityTag'
p7449
g82
sS'CharacterOffsetEnd'
p7450
S'2045'
p7451
sS'Lemma'
p7452
S'be'
p7453
sS'PartOfSpeech'
p7454
S'VBG'
p7455
sS'CharacterOffsetBegin'
p7456
S'2040'
p7457
stp7458
a(S'unwilling'
p7459
(dp7460
S'NamedEntityTag'
p7461
g82
sS'CharacterOffsetEnd'
p7462
S'2055'
p7463
sS'Lemma'
p7464
S'unwilling'
p7465
sS'PartOfSpeech'
p7466
S'JJ'
p7467
sS'CharacterOffsetBegin'
p7468
S'2046'
p7469
stp7470
a(S'to'
p7471
(dp7472
S'NamedEntityTag'
p7473
g82
sS'CharacterOffsetEnd'
p7474
S'2058'
p7475
sS'Lemma'
p7476
S'to'
p7477
sS'PartOfSpeech'
p7478
S'TO'
p7479
sS'CharacterOffsetBegin'
p7480
S'2056'
p7481
stp7482
a(S'make'
p7483
(dp7484
S'NamedEntityTag'
p7485
g82
sS'CharacterOffsetEnd'
p7486
S'2063'
p7487
sS'Lemma'
p7488
S'make'
p7489
sS'PartOfSpeech'
p7490
S'VB'
p7491
sS'CharacterOffsetBegin'
p7492
S'2059'
p7493
stp7494
a(S'any'
p7495
(dp7496
S'NamedEntityTag'
p7497
g82
sS'CharacterOffsetEnd'
p7498
S'2067'
p7499
sS'Lemma'
p7500
S'any'
p7501
sS'PartOfSpeech'
p7502
S'DT'
p7503
sS'CharacterOffsetBegin'
p7504
S'2064'
p7505
stp7506
a(S'compromise'
p7507
(dp7508
S'NamedEntityTag'
p7509
g82
sS'CharacterOffsetEnd'
p7510
S'2078'
p7511
sS'Lemma'
p7512
S'compromise'
p7513
sS'PartOfSpeech'
p7514
S'NN'
p7515
sS'CharacterOffsetBegin'
p7516
S'2068'
p7517
stp7518
a(S'on'
p7519
(dp7520
S'NamedEntityTag'
p7521
g82
sS'CharacterOffsetEnd'
p7522
S'2081'
p7523
sS'Lemma'
p7524
S'on'
p7525
sS'PartOfSpeech'
p7526
S'IN'
p7527
sS'CharacterOffsetBegin'
p7528
S'2079'
p7529
stp7530
a(S'negotiations'
p7531
(dp7532
S'NamedEntityTag'
p7533
g82
sS'CharacterOffsetEnd'
p7534
S'2094'
p7535
sS'Lemma'
p7536
S'negotiation'
p7537
sS'PartOfSpeech'
p7538
S'NNS'
p7539
sS'CharacterOffsetBegin'
p7540
S'2082'
p7541
stp7542
a(S'to'
p7543
(dp7544
S'NamedEntityTag'
p7545
g82
sS'CharacterOffsetEnd'
p7546
S'2097'
p7547
sS'Lemma'
p7548
S'to'
p7549
sS'PartOfSpeech'
p7550
S'TO'
p7551
sS'CharacterOffsetBegin'
p7552
S'2095'
p7553
stp7554
a(S'break'
p7555
(dp7556
S'NamedEntityTag'
p7557
g82
sS'CharacterOffsetEnd'
p7558
S'2103'
p7559
sS'Lemma'
p7560
S'break'
p7561
sS'PartOfSpeech'
p7562
S'VB'
p7563
sS'CharacterOffsetBegin'
p7564
S'2098'
p7565
stp7566
a(S'the'
p7567
(dp7568
S'NamedEntityTag'
p7569
g82
sS'CharacterOffsetEnd'
p7570
S'2107'
p7571
sS'Lemma'
p7572
S'the'
p7573
sS'PartOfSpeech'
p7574
S'DT'
p7575
sS'CharacterOffsetBegin'
p7576
S'2104'
p7577
stp7578
a(S'deadlock'
p7579
(dp7580
S'NamedEntityTag'
p7581
g82
sS'CharacterOffsetEnd'
p7582
S'2116'
p7583
sS'Lemma'
p7584
S'deadlock'
p7585
sS'PartOfSpeech'
p7586
S'NN'
p7587
sS'CharacterOffsetBegin'
p7588
S'2108'
p7589
stp7590
a(g616
(dp7591
S'NamedEntityTag'
p7592
g82
sS'CharacterOffsetEnd'
p7593
S'2117'
p7594
sS'Lemma'
p7595
g616
sS'PartOfSpeech'
p7596
g616
sS'CharacterOffsetBegin'
p7597
S'2116'
p7598
stp7599
asa(dp7600
g7
S'(ROOT (S (NP (NP (DT A) (NN meeting)) (PP (IN outside) (NP (NNP Cambodia))) (, ,) (SBAR (IN as) (S (S (VP (VBN suggested) (PP (IN by) (NP (DT the) (NN opposition))))) (, ,) (VP (MD could) (VP (VB place) (NP (DT all) (NNS parties)) (PP (IN on) (NP (ADJP (RBR more) (JJ equal)) (NN footing))))))) (, ,)) (VP (VBD said) (NP (DT the) (NN statement))) (. .)))'
p7601
sg9
S'A meeting outside Cambodia, as suggested by the opposition, could place all parties on more equal footing, said the statement.'
p7602
sg11
(lp7603
(S'root'
p7604
S'ROOT'
p7605
S'said'
p7606
tp7607
a(S'det'
p7608
S'meeting'
p7609
S'A'
p7610
tp7611
a(S'nsubj'
p7612
S'said'
p7613
S'meeting'
p7614
tp7615
a(S'prep_outside'
p7616
S'meeting'
p7617
S'Cambodia'
p7618
tp7619
a(S'mark'
p7620
S'place'
p7621
S'as'
p7622
tp7623
a(S'dep'
p7624
S'place'
p7625
S'suggested'
p7626
tp7627
a(S'det'
p7628
S'opposition'
p7629
S'the'
p7630
tp7631
a(S'prep_by'
p7632
S'suggested'
p7633
S'opposition'
p7634
tp7635
a(S'aux'
p7636
S'place'
p7637
S'could'
p7638
tp7639
a(S'dep'
p7640
S'meeting'
p7641
S'place'
p7642
tp7643
a(S'det'
p7644
S'parties'
p7645
S'all'
p7646
tp7647
a(S'dobj'
p7648
S'place'
p7649
S'parties'
p7650
tp7651
a(S'advmod'
p7652
S'equal'
p7653
S'more'
p7654
tp7655
a(S'amod'
p7656
S'footing'
p7657
S'equal'
p7658
tp7659
a(S'prep_on'
p7660
S'place'
p7661
S'footing'
p7662
tp7663
a(S'det'
p7664
S'statement'
p7665
S'the'
p7666
tp7667
a(S'dobj'
p7668
S'said'
p7669
S'statement'
p7670
tp7671
asg41
(lp7672
(g7604
S'ROOT-0'
p7673
S'said-21'
p7674
tp7675
a(g7608
S'meeting-2'
p7676
S'A-1'
p7677
tp7678
a(g7612
S'said-21'
p7679
S'meeting-2'
p7680
tp7681
a(g7616
S'meeting-2'
p7682
S'Cambodia-4'
p7683
tp7684
a(g7620
S'place-13'
p7685
S'as-6'
p7686
tp7687
a(g7624
S'place-13'
p7688
S'suggested-7'
p7689
tp7690
a(g7628
S'opposition-10'
p7691
S'the-9'
p7692
tp7693
a(g7632
S'suggested-7'
p7694
S'opposition-10'
p7695
tp7696
a(g7636
S'place-13'
p7697
S'could-12'
p7698
tp7699
a(g7640
S'meeting-2'
p7700
S'place-13'
p7701
tp7702
a(g7644
S'parties-15'
p7703
S'all-14'
p7704
tp7705
a(g7648
S'place-13'
p7706
S'parties-15'
p7707
tp7708
a(g7652
S'equal-18'
p7709
S'more-17'
p7710
tp7711
a(g7656
S'footing-19'
p7712
S'equal-18'
p7713
tp7714
a(g7660
S'place-13'
p7715
S'footing-19'
p7716
tp7717
a(g7664
S'statement-23'
p7718
S'the-22'
p7719
tp7720
a(g7668
S'said-21'
p7721
S'statement-23'
p7722
tp7723
asg64
(lp7724
(g7610
(dp7725
S'NamedEntityTag'
p7726
g82
sS'CharacterOffsetEnd'
p7727
S'2119'
p7728
sS'Lemma'
p7729
g1596
sS'PartOfSpeech'
p7730
S'DT'
p7731
sS'CharacterOffsetBegin'
p7732
S'2118'
p7733
stp7734
a(S'meeting'
p7735
(dp7736
S'NamedEntityTag'
p7737
g82
sS'CharacterOffsetEnd'
p7738
S'2127'
p7739
sS'Lemma'
p7740
S'meeting'
p7741
sS'PartOfSpeech'
p7742
S'NN'
p7743
sS'CharacterOffsetBegin'
p7744
S'2120'
p7745
stp7746
a(S'outside'
p7747
(dp7748
S'NamedEntityTag'
p7749
g82
sS'CharacterOffsetEnd'
p7750
S'2135'
p7751
sS'Lemma'
p7752
S'outside'
p7753
sS'PartOfSpeech'
p7754
S'IN'
p7755
sS'CharacterOffsetBegin'
p7756
S'2128'
p7757
stp7758
a(S'Cambodia'
p7759
(dp7760
S'NamedEntityTag'
p7761
S'LOCATION'
p7762
sS'CharacterOffsetEnd'
p7763
S'2144'
p7764
sS'Lemma'
p7765
S'Cambodia'
p7766
sS'PartOfSpeech'
p7767
S'NNP'
p7768
sS'CharacterOffsetBegin'
p7769
S'2136'
p7770
stp7771
a(g339
(dp7772
S'NamedEntityTag'
p7773
g82
sS'CharacterOffsetEnd'
p7774
S'2145'
p7775
sS'Lemma'
p7776
g339
sS'PartOfSpeech'
p7777
g339
sS'CharacterOffsetBegin'
p7778
S'2144'
p7779
stp7780
a(S'as'
p7781
(dp7782
S'NamedEntityTag'
p7783
g82
sS'CharacterOffsetEnd'
p7784
S'2148'
p7785
sS'Lemma'
p7786
S'as'
p7787
sS'PartOfSpeech'
p7788
S'IN'
p7789
sS'CharacterOffsetBegin'
p7790
S'2146'
p7791
stp7792
a(S'suggested'
p7793
(dp7794
S'NamedEntityTag'
p7795
g82
sS'CharacterOffsetEnd'
p7796
S'2158'
p7797
sS'Lemma'
p7798
S'suggest'
p7799
sS'PartOfSpeech'
p7800
S'VBN'
p7801
sS'CharacterOffsetBegin'
p7802
S'2149'
p7803
stp7804
a(S'by'
p7805
(dp7806
S'NamedEntityTag'
p7807
g82
sS'CharacterOffsetEnd'
p7808
S'2161'
p7809
sS'Lemma'
p7810
S'by'
p7811
sS'PartOfSpeech'
p7812
S'IN'
p7813
sS'CharacterOffsetBegin'
p7814
S'2159'
p7815
stp7816
a(S'the'
p7817
(dp7818
S'NamedEntityTag'
p7819
g82
sS'CharacterOffsetEnd'
p7820
S'2165'
p7821
sS'Lemma'
p7822
S'the'
p7823
sS'PartOfSpeech'
p7824
S'DT'
p7825
sS'CharacterOffsetBegin'
p7826
S'2162'
p7827
stp7828
a(S'opposition'
p7829
(dp7830
S'NamedEntityTag'
p7831
g82
sS'CharacterOffsetEnd'
p7832
S'2176'
p7833
sS'Lemma'
p7834
S'opposition'
p7835
sS'PartOfSpeech'
p7836
S'NN'
p7837
sS'CharacterOffsetBegin'
p7838
S'2166'
p7839
stp7840
a(g339
(dp7841
S'NamedEntityTag'
p7842
g82
sS'CharacterOffsetEnd'
p7843
S'2177'
p7844
sS'Lemma'
p7845
g339
sS'PartOfSpeech'
p7846
g339
sS'CharacterOffsetBegin'
p7847
S'2176'
p7848
stp7849
a(S'could'
p7850
(dp7851
S'NamedEntityTag'
p7852
g82
sS'CharacterOffsetEnd'
p7853
S'2183'
p7854
sS'Lemma'
p7855
S'could'
p7856
sS'PartOfSpeech'
p7857
S'MD'
p7858
sS'CharacterOffsetBegin'
p7859
S'2178'
p7860
stp7861
a(S'place'
p7862
(dp7863
S'NamedEntityTag'
p7864
g82
sS'CharacterOffsetEnd'
p7865
S'2189'
p7866
sS'Lemma'
p7867
S'place'
p7868
sS'PartOfSpeech'
p7869
S'VB'
p7870
sS'CharacterOffsetBegin'
p7871
S'2184'
p7872
stp7873
a(S'all'
p7874
(dp7875
S'NamedEntityTag'
p7876
g82
sS'CharacterOffsetEnd'
p7877
S'2193'
p7878
sS'Lemma'
p7879
S'all'
p7880
sS'PartOfSpeech'
p7881
S'DT'
p7882
sS'CharacterOffsetBegin'
p7883
S'2190'
p7884
stp7885
a(S'parties'
p7886
(dp7887
S'NamedEntityTag'
p7888
g82
sS'CharacterOffsetEnd'
p7889
S'2201'
p7890
sS'Lemma'
p7891
S'party'
p7892
sS'PartOfSpeech'
p7893
S'NNS'
p7894
sS'CharacterOffsetBegin'
p7895
S'2194'
p7896
stp7897
a(S'on'
p7898
(dp7899
S'NamedEntityTag'
p7900
g82
sS'CharacterOffsetEnd'
p7901
S'2204'
p7902
sS'Lemma'
p7903
S'on'
p7904
sS'PartOfSpeech'
p7905
S'IN'
p7906
sS'CharacterOffsetBegin'
p7907
S'2202'
p7908
stp7909
a(S'more'
p7910
(dp7911
S'NamedEntityTag'
p7912
g82
sS'CharacterOffsetEnd'
p7913
S'2209'
p7914
sS'Lemma'
p7915
S'more'
p7916
sS'PartOfSpeech'
p7917
S'RBR'
p7918
sS'CharacterOffsetBegin'
p7919
S'2205'
p7920
stp7921
a(S'equal'
p7922
(dp7923
S'NamedEntityTag'
p7924
g82
sS'CharacterOffsetEnd'
p7925
S'2215'
p7926
sS'Lemma'
p7927
S'equal'
p7928
sS'PartOfSpeech'
p7929
S'JJ'
p7930
sS'CharacterOffsetBegin'
p7931
S'2210'
p7932
stp7933
a(S'footing'
p7934
(dp7935
S'NamedEntityTag'
p7936
g82
sS'CharacterOffsetEnd'
p7937
S'2223'
p7938
sS'Lemma'
p7939
S'footing'
p7940
sS'PartOfSpeech'
p7941
S'NN'
p7942
sS'CharacterOffsetBegin'
p7943
S'2216'
p7944
stp7945
a(g339
(dp7946
S'NamedEntityTag'
p7947
g82
sS'CharacterOffsetEnd'
p7948
S'2224'
p7949
sS'Lemma'
p7950
g339
sS'PartOfSpeech'
p7951
g339
sS'CharacterOffsetBegin'
p7952
S'2223'
p7953
stp7954
a(S'said'
p7955
(dp7956
S'NamedEntityTag'
p7957
g82
sS'CharacterOffsetEnd'
p7958
S'2229'
p7959
sS'Lemma'
p7960
S'say'
p7961
sS'PartOfSpeech'
p7962
S'VBD'
p7963
sS'CharacterOffsetBegin'
p7964
S'2225'
p7965
stp7966
a(S'the'
p7967
(dp7968
S'NamedEntityTag'
p7969
g82
sS'CharacterOffsetEnd'
p7970
S'2233'
p7971
sS'Lemma'
p7972
S'the'
p7973
sS'PartOfSpeech'
p7974
S'DT'
p7975
sS'CharacterOffsetBegin'
p7976
S'2230'
p7977
stp7978
a(S'statement'
p7979
(dp7980
S'NamedEntityTag'
p7981
g82
sS'CharacterOffsetEnd'
p7982
S'2243'
p7983
sS'Lemma'
p7984
S'statement'
p7985
sS'PartOfSpeech'
p7986
S'NN'
p7987
sS'CharacterOffsetBegin'
p7988
S'2234'
p7989
stp7990
a(g616
(dp7991
S'NamedEntityTag'
p7992
g82
sS'CharacterOffsetEnd'
p7993
S'2244'
p7994
sS'Lemma'
p7995
g616
sS'PartOfSpeech'
p7996
g616
sS'CharacterOffsetBegin'
p7997
S'2243'
p7998
stp7999
asa(dp8000
g7
S'(ROOT (S (CC But) (NP (DT the) (VBG ruling) (NN party)) (VP (VBZ refuses) (S (VP (TO to) (VP (VB negotiate) (SBAR (IN unless) (S (NP (PRP it)) (VP (VBZ is) (ADJP (ADJP (JJ able) (S (VP (TO to) (VP (VB threaten) (NP (PRP$ its) (VBG negotiating) (NNS partners)) (PP (IN with) (NP (NN arrest))))))) (CC or) (ADJP (JJR worse)))))))))) (. .)))'
p8001
sg9
S'But the ruling party refuses to negotiate unless it is able to threaten its negotiating partners with arrest or worse.'
p8002
sg11
(lp8003
(S'root'
p8004
S'ROOT'
p8005
S'refuses'
p8006
tp8007
a(S'cc'
p8008
S'refuses'
p8009
S'But'
p8010
tp8011
a(S'det'
p8012
S'party'
p8013
S'the'
p8014
tp8015
a(S'amod'
p8016
S'party'
p8017
S'ruling'
p8018
tp8019
a(S'nsubj'
p8020
S'refuses'
p8021
S'party'
p8022
tp8023
a(S'aux'
p8024
S'negotiate'
p8025
S'to'
p8026
tp8027
a(S'xcomp'
p8028
S'refuses'
p8029
S'negotiate'
p8030
tp8031
a(S'mark'
p8032
S'able'
p8033
S'unless'
p8034
tp8035
a(S'nsubj'
p8036
S'able'
p8037
S'it'
p8038
tp8039
a(S'cop'
p8040
S'able'
p8041
S'is'
p8042
tp8043
a(S'advcl'
p8044
S'negotiate'
p8045
S'able'
p8046
tp8047
a(S'aux'
p8048
S'threaten'
p8049
S'to'
p8050
tp8051
a(S'xcomp'
p8052
S'able'
p8053
S'threaten'
p8054
tp8055
a(S'poss'
p8056
S'partners'
p8057
S'its'
p8058
tp8059
a(S'amod'
p8060
S'partners'
p8061
S'negotiating'
p8062
tp8063
a(S'dobj'
p8064
S'threaten'
p8065
S'partners'
p8066
tp8067
a(S'prep_with'
p8068
S'threaten'
p8069
S'arrest'
p8070
tp8071
a(S'conj_or'
p8072
S'able'
p8073
S'worse'
p8074
tp8075
asg41
(lp8076
(g8004
S'ROOT-0'
p8077
S'refuses-5'
p8078
tp8079
a(g8008
S'refuses-5'
p8080
S'But-1'
p8081
tp8082
a(g8012
S'party-4'
p8083
S'the-2'
p8084
tp8085
a(g8016
S'party-4'
p8086
S'ruling-3'
p8087
tp8088
a(g8020
S'refuses-5'
p8089
S'party-4'
p8090
tp8091
a(g8024
S'negotiate-7'
p8092
S'to-6'
p8093
tp8094
a(g8028
S'refuses-5'
p8095
S'negotiate-7'
p8096
tp8097
a(g8032
S'able-11'
p8098
S'unless-8'
p8099
tp8100
a(g8036
S'able-11'
p8101
S'it-9'
p8102
tp8103
a(g8040
S'able-11'
p8104
S'is-10'
p8105
tp8106
a(g8044
S'negotiate-7'
p8107
S'able-11'
p8108
tp8109
a(g8048
S'threaten-13'
p8110
S'to-12'
p8111
tp8112
a(g8052
S'able-11'
p8113
S'threaten-13'
p8114
tp8115
a(g8056
S'partners-16'
p8116
S'its-14'
p8117
tp8118
a(g8060
S'partners-16'
p8119
S'negotiating-15'
p8120
tp8121
a(g8064
S'threaten-13'
p8122
S'partners-16'
p8123
tp8124
a(g8068
S'threaten-13'
p8125
S'arrest-18'
p8126
tp8127
a(g8072
S'able-11'
p8128
S'worse-20'
p8129
tp8130
asg64
(lp8131
(S'But'
p8132
(dp8133
S'NamedEntityTag'
p8134
g82
sS'CharacterOffsetEnd'
p8135
S'2248'
p8136
sS'Lemma'
p8137
S'but'
p8138
sS'PartOfSpeech'
p8139
S'CC'
p8140
sS'CharacterOffsetBegin'
p8141
S'2245'
p8142
stp8143
a(S'the'
p8144
(dp8145
S'NamedEntityTag'
p8146
g82
sS'CharacterOffsetEnd'
p8147
S'2252'
p8148
sS'Lemma'
p8149
S'the'
p8150
sS'PartOfSpeech'
p8151
S'DT'
p8152
sS'CharacterOffsetBegin'
p8153
S'2249'
p8154
stp8155
a(S'ruling'
p8156
(dp8157
S'NamedEntityTag'
p8158
g82
sS'CharacterOffsetEnd'
p8159
S'2259'
p8160
sS'Lemma'
p8161
S'rule'
p8162
sS'PartOfSpeech'
p8163
S'VBG'
p8164
sS'CharacterOffsetBegin'
p8165
S'2253'
p8166
stp8167
a(S'party'
p8168
(dp8169
S'NamedEntityTag'
p8170
g82
sS'CharacterOffsetEnd'
p8171
S'2265'
p8172
sS'Lemma'
p8173
S'party'
p8174
sS'PartOfSpeech'
p8175
S'NN'
p8176
sS'CharacterOffsetBegin'
p8177
S'2260'
p8178
stp8179
a(S'refuses'
p8180
(dp8181
S'NamedEntityTag'
p8182
g82
sS'CharacterOffsetEnd'
p8183
S'2273'
p8184
sS'Lemma'
p8185
S'refuse'
p8186
sS'PartOfSpeech'
p8187
S'VBZ'
p8188
sS'CharacterOffsetBegin'
p8189
S'2266'
p8190
stp8191
a(S'to'
p8192
(dp8193
S'NamedEntityTag'
p8194
g82
sS'CharacterOffsetEnd'
p8195
S'2276'
p8196
sS'Lemma'
p8197
S'to'
p8198
sS'PartOfSpeech'
p8199
S'TO'
p8200
sS'CharacterOffsetBegin'
p8201
S'2274'
p8202
stp8203
a(S'negotiate'
p8204
(dp8205
S'NamedEntityTag'
p8206
g82
sS'CharacterOffsetEnd'
p8207
S'2286'
p8208
sS'Lemma'
p8209
S'negotiate'
p8210
sS'PartOfSpeech'
p8211
S'VB'
p8212
sS'CharacterOffsetBegin'
p8213
S'2277'
p8214
stp8215
a(S'unless'
p8216
(dp8217
S'NamedEntityTag'
p8218
g82
sS'CharacterOffsetEnd'
p8219
S'2293'
p8220
sS'Lemma'
p8221
S'unless'
p8222
sS'PartOfSpeech'
p8223
S'IN'
p8224
sS'CharacterOffsetBegin'
p8225
S'2287'
p8226
stp8227
a(S'it'
p8228
(dp8229
S'NamedEntityTag'
p8230
g82
sS'CharacterOffsetEnd'
p8231
S'2296'
p8232
sS'Lemma'
p8233
S'it'
p8234
sS'PartOfSpeech'
p8235
S'PRP'
p8236
sS'CharacterOffsetBegin'
p8237
S'2294'
p8238
stp8239
a(S'is'
p8240
(dp8241
S'NamedEntityTag'
p8242
g82
sS'CharacterOffsetEnd'
p8243
S'2299'
p8244
sS'Lemma'
p8245
S'be'
p8246
sS'PartOfSpeech'
p8247
S'VBZ'
p8248
sS'CharacterOffsetBegin'
p8249
S'2297'
p8250
stp8251
a(S'able'
p8252
(dp8253
S'NamedEntityTag'
p8254
g82
sS'CharacterOffsetEnd'
p8255
S'2304'
p8256
sS'Lemma'
p8257
S'able'
p8258
sS'PartOfSpeech'
p8259
S'JJ'
p8260
sS'CharacterOffsetBegin'
p8261
S'2300'
p8262
stp8263
a(S'to'
p8264
(dp8265
S'NamedEntityTag'
p8266
g82
sS'CharacterOffsetEnd'
p8267
S'2307'
p8268
sS'Lemma'
p8269
S'to'
p8270
sS'PartOfSpeech'
p8271
S'TO'
p8272
sS'CharacterOffsetBegin'
p8273
S'2305'
p8274
stp8275
a(S'threaten'
p8276
(dp8277
S'NamedEntityTag'
p8278
g82
sS'CharacterOffsetEnd'
p8279
S'2316'
p8280
sS'Lemma'
p8281
S'threaten'
p8282
sS'PartOfSpeech'
p8283
S'VB'
p8284
sS'CharacterOffsetBegin'
p8285
S'2308'
p8286
stp8287
a(S'its'
p8288
(dp8289
S'NamedEntityTag'
p8290
g82
sS'CharacterOffsetEnd'
p8291
S'2320'
p8292
sS'Lemma'
p8293
S'its'
p8294
sS'PartOfSpeech'
p8295
S'PRP$'
p8296
sS'CharacterOffsetBegin'
p8297
S'2317'
p8298
stp8299
a(S'negotiating'
p8300
(dp8301
S'NamedEntityTag'
p8302
g82
sS'CharacterOffsetEnd'
p8303
S'2332'
p8304
sS'Lemma'
p8305
S'negotiate'
p8306
sS'PartOfSpeech'
p8307
S'VBG'
p8308
sS'CharacterOffsetBegin'
p8309
S'2321'
p8310
stp8311
a(S'partners'
p8312
(dp8313
S'NamedEntityTag'
p8314
g82
sS'CharacterOffsetEnd'
p8315
S'2341'
p8316
sS'Lemma'
p8317
S'partner'
p8318
sS'PartOfSpeech'
p8319
S'NNS'
p8320
sS'CharacterOffsetBegin'
p8321
S'2333'
p8322
stp8323
a(S'with'
p8324
(dp8325
S'NamedEntityTag'
p8326
g82
sS'CharacterOffsetEnd'
p8327
S'2346'
p8328
sS'Lemma'
p8329
S'with'
p8330
sS'PartOfSpeech'
p8331
S'IN'
p8332
sS'CharacterOffsetBegin'
p8333
S'2342'
p8334
stp8335
a(S'arrest'
p8336
(dp8337
S'NamedEntityTag'
p8338
g82
sS'CharacterOffsetEnd'
p8339
S'2353'
p8340
sS'Lemma'
p8341
S'arrest'
p8342
sS'PartOfSpeech'
p8343
S'NN'
p8344
sS'CharacterOffsetBegin'
p8345
S'2347'
p8346
stp8347
a(S'or'
p8348
(dp8349
S'NamedEntityTag'
p8350
g82
sS'CharacterOffsetEnd'
p8351
S'2356'
p8352
sS'Lemma'
p8353
S'or'
p8354
sS'PartOfSpeech'
p8355
S'CC'
p8356
sS'CharacterOffsetBegin'
p8357
S'2354'
p8358
stp8359
a(S'worse'
p8360
(dp8361
S'NamedEntityTag'
p8362
g82
sS'CharacterOffsetEnd'
p8363
S'2362'
p8364
sS'Lemma'
p8365
S'worse'
p8366
sS'PartOfSpeech'
p8367
S'JJR'
p8368
sS'CharacterOffsetBegin'
p8369
S'2357'
p8370
stp8371
a(g616
(dp8372
S'NamedEntityTag'
p8373
g82
sS'CharacterOffsetEnd'
p8374
S'2363'
p8375
sS'Lemma'
p8376
g616
sS'PartOfSpeech'
p8377
g616
sS'CharacterOffsetBegin'
p8378
S'2362'
p8379
stp8380
asass.