(dp0
S'models'
p1
(lp2
(dp3
S'sentences'
p4
(lp5
(dp6
S'parsetree'
p7
S'(ROOT (S (NP (NNP US)) (VP (VBZ warns) (S (NP (NNP Russia)) (VP (TO to) (VP (VB avoid) (VP (VBN rumored) (NP (JJ Soviet-style) (JJ economic) (NNS measures))))))) (. .)))'
p8
sS'text'
p9
S'US warns Russia to avoid rumored Soviet-style economic measures.'
p10
sS'dependencies'
p11
(lp12
(S'root'
p13
S'ROOT'
p14
S'warns'
p15
tp16
a(S'nsubj'
p17
S'warns'
p18
S'US'
p19
tp20
a(S'nsubj'
p21
S'avoid'
p22
S'Russia'
p23
tp24
a(S'aux'
p25
S'avoid'
p26
S'to'
p27
tp28
a(S'xcomp'
p29
S'warns'
p30
S'avoid'
p31
tp32
a(S'dep'
p33
S'avoid'
p34
S'rumored'
p35
tp36
a(S'amod'
p37
S'measures'
p38
S'Soviet-style'
p39
tp40
a(S'amod'
p41
S'measures'
p42
S'economic'
p43
tp44
a(S'dobj'
p45
S'rumored'
p46
S'measures'
p47
tp48
asS'indexeddependencies'
p49
(lp50
(g13
S'ROOT-0'
p51
S'warns-2'
p52
tp53
a(g17
S'warns-2'
p54
S'US-1'
p55
tp56
a(g21
S'avoid-5'
p57
S'Russia-3'
p58
tp59
a(g25
S'avoid-5'
p60
S'to-4'
p61
tp62
a(g29
S'warns-2'
p63
S'avoid-5'
p64
tp65
a(g33
S'avoid-5'
p66
S'rumored-6'
p67
tp68
a(g37
S'measures-9'
p69
S'Soviet-style-7'
p70
tp71
a(g41
S'measures-9'
p72
S'economic-8'
p73
tp74
a(g45
S'rumored-6'
p75
S'measures-9'
p76
tp77
asS'words'
p78
(lp79
(S'US'
p80
(dp81
S'NamedEntityTag'
p82
S'LOCATION'
p83
sS'CharacterOffsetEnd'
p84
S'3'
p85
sS'Lemma'
p86
S'US'
p87
sS'PartOfSpeech'
p88
S'NNP'
p89
sS'CharacterOffsetBegin'
p90
S'1'
p91
stp92
a(S'warns'
p93
(dp94
S'NamedEntityTag'
p95
S'O'
p96
sS'CharacterOffsetEnd'
p97
S'9'
p98
sS'Lemma'
p99
S'warn'
p100
sS'PartOfSpeech'
p101
S'VBZ'
p102
sS'CharacterOffsetBegin'
p103
S'4'
p104
stp105
a(S'Russia'
p106
(dp107
S'NamedEntityTag'
p108
S'LOCATION'
p109
sS'CharacterOffsetEnd'
p110
S'16'
p111
sS'Lemma'
p112
S'Russia'
p113
sS'PartOfSpeech'
p114
S'NNP'
p115
sS'CharacterOffsetBegin'
p116
S'10'
p117
stp118
a(S'to'
p119
(dp120
S'NamedEntityTag'
p121
g96
sS'CharacterOffsetEnd'
p122
S'19'
p123
sS'Lemma'
p124
S'to'
p125
sS'PartOfSpeech'
p126
S'TO'
p127
sS'CharacterOffsetBegin'
p128
S'17'
p129
stp130
a(S'avoid'
p131
(dp132
S'NamedEntityTag'
p133
g96
sS'CharacterOffsetEnd'
p134
S'25'
p135
sS'Lemma'
p136
S'avoid'
p137
sS'PartOfSpeech'
p138
S'VB'
p139
sS'CharacterOffsetBegin'
p140
S'20'
p141
stp142
a(S'rumored'
p143
(dp144
S'NamedEntityTag'
p145
g96
sS'CharacterOffsetEnd'
p146
S'33'
p147
sS'Lemma'
p148
S'rumor'
p149
sS'PartOfSpeech'
p150
S'VBN'
p151
sS'CharacterOffsetBegin'
p152
S'26'
p153
stp154
a(S'Soviet-style'
p155
(dp156
S'NamedEntityTag'
p157
S'MISC'
p158
sS'CharacterOffsetEnd'
p159
S'46'
p160
sS'Lemma'
p161
S'soviet-style'
p162
sS'PartOfSpeech'
p163
S'JJ'
p164
sS'CharacterOffsetBegin'
p165
S'34'
p166
stp167
a(S'economic'
p168
(dp169
S'NamedEntityTag'
p170
g96
sS'CharacterOffsetEnd'
p171
S'55'
p172
sS'Lemma'
p173
S'economic'
p174
sS'PartOfSpeech'
p175
S'JJ'
p176
sS'CharacterOffsetBegin'
p177
S'47'
p178
stp179
a(S'measures'
p180
(dp181
S'NamedEntityTag'
p182
g96
sS'CharacterOffsetEnd'
p183
S'64'
p184
sS'Lemma'
p185
S'measure'
p186
sS'PartOfSpeech'
p187
S'NNS'
p188
sS'CharacterOffsetBegin'
p189
S'56'
p190
stp191
a(S'.'
p192
(dp193
S'NamedEntityTag'
p194
g96
sS'CharacterOffsetEnd'
p195
S'65'
p196
sS'Lemma'
p197
g192
sS'PartOfSpeech'
p198
g192
sS'CharacterOffsetBegin'
p199
S'64'
p200
stp201
asasa(dp202
g4
(lp203
(dp204
g7
S'(ROOT (S (NP (NNP Secretary) (NNP Albright)) (VP (VBZ expresses) (NP (NP (NN concern)) (PP (IN over) (NP (JJ Russian) (JJ economic) (NN confusion)))))))'
p205
sg9
S'Secretary Albright expresses concern over Russian economic confusion'
p206
sg11
(lp207
(S'root'
p208
S'ROOT'
p209
S'expresses'
p210
tp211
a(S'nn'
p212
S'Albright'
p213
S'Secretary'
p214
tp215
a(S'nsubj'
p216
S'expresses'
p217
S'Albright'
p218
tp219
a(S'dobj'
p220
S'expresses'
p221
S'concern'
p222
tp223
a(S'amod'
p224
S'confusion'
p225
S'Russian'
p226
tp227
a(S'amod'
p228
S'confusion'
p229
S'economic'
p230
tp231
a(S'prep_over'
p232
S'concern'
p233
S'confusion'
p234
tp235
asg49
(lp236
(g208
S'ROOT-0'
p237
S'expresses-3'
p238
tp239
a(g212
S'Albright-2'
p240
S'Secretary-1'
p241
tp242
a(g216
S'expresses-3'
p243
S'Albright-2'
p244
tp245
a(g220
S'expresses-3'
p246
S'concern-4'
p247
tp248
a(g224
S'confusion-8'
p249
S'Russian-6'
p250
tp251
a(g228
S'confusion-8'
p252
S'economic-7'
p253
tp254
a(g232
S'concern-4'
p255
S'confusion-8'
p256
tp257
asg78
(lp258
(S'Secretary'
p259
(dp260
S'NamedEntityTag'
p261
g96
sS'CharacterOffsetEnd'
p262
S'10'
p263
sS'Lemma'
p264
S'Secretary'
p265
sS'PartOfSpeech'
p266
S'NNP'
p267
sS'CharacterOffsetBegin'
p268
g91
stp269
a(S'Albright'
p270
(dp271
S'NamedEntityTag'
p272
S'PERSON'
p273
sS'CharacterOffsetEnd'
p274
S'19'
p275
sS'Lemma'
p276
S'Albright'
p277
sS'PartOfSpeech'
p278
S'NNP'
p279
sS'CharacterOffsetBegin'
p280
S'11'
p281
stp282
a(S'expresses'
p283
(dp284
S'NamedEntityTag'
p285
g96
sS'CharacterOffsetEnd'
p286
S'29'
p287
sS'Lemma'
p288
S'express'
p289
sS'PartOfSpeech'
p290
S'VBZ'
p291
sS'CharacterOffsetBegin'
p292
S'20'
p293
stp294
a(S'concern'
p295
(dp296
S'NamedEntityTag'
p297
g96
sS'CharacterOffsetEnd'
p298
S'37'
p299
sS'Lemma'
p300
S'concern'
p301
sS'PartOfSpeech'
p302
S'NN'
p303
sS'CharacterOffsetBegin'
p304
S'30'
p305
stp306
a(S'over'
p307
(dp308
S'NamedEntityTag'
p309
g96
sS'CharacterOffsetEnd'
p310
S'42'
p311
sS'Lemma'
p312
S'over'
p313
sS'PartOfSpeech'
p314
S'IN'
p315
sS'CharacterOffsetBegin'
p316
S'38'
p317
stp318
a(S'Russian'
p319
(dp320
S'NamedEntityTag'
p321
S'MISC'
p322
sS'CharacterOffsetEnd'
p323
S'50'
p324
sS'Lemma'
p325
S'russian'
p326
sS'PartOfSpeech'
p327
S'JJ'
p328
sS'CharacterOffsetBegin'
p329
S'43'
p330
stp331
a(S'economic'
p332
(dp333
S'NamedEntityTag'
p334
g96
sS'CharacterOffsetEnd'
p335
S'59'
p336
sS'Lemma'
p337
S'economic'
p338
sS'PartOfSpeech'
p339
S'JJ'
p340
sS'CharacterOffsetBegin'
p341
S'51'
p342
stp343
a(S'confusion'
p344
(dp345
S'NamedEntityTag'
p346
g96
sS'CharacterOffsetEnd'
p347
S'69'
p348
sS'Lemma'
p349
S'confusion'
p350
sS'PartOfSpeech'
p351
S'NN'
p352
sS'CharacterOffsetBegin'
p353
S'60'
p354
stp355
asasa(dp356
g4
(lp357
(dp358
g7
S'(ROOT (S (NP (NP (NNP Economic) (NN confusion)) (PP (IN in) (NP (NNP Russia)))) (VP (VBZ causes) (NP (NP (NN disappointment)) (PP (IN in) (NP (NNP Washington)))))))'
p359
sg9
S'Economic confusion in Russia causes disappointment in Washington'
p360
sg11
(lp361
(S'root'
p362
S'ROOT'
p363
S'causes'
p364
tp365
a(S'nn'
p366
S'confusion'
p367
S'Economic'
p368
tp369
a(S'nsubj'
p370
S'causes'
p371
S'confusion'
p372
tp373
a(S'prep_in'
p374
S'confusion'
p375
S'Russia'
p376
tp377
a(S'dobj'
p378
S'causes'
p379
S'disappointment'
p380
tp381
a(S'prep_in'
p382
S'disappointment'
p383
S'Washington'
p384
tp385
asg49
(lp386
(g362
S'ROOT-0'
p387
S'causes-5'
p388
tp389
a(g366
S'confusion-2'
p390
S'Economic-1'
p391
tp392
a(g370
S'causes-5'
p393
S'confusion-2'
p394
tp395
a(g374
S'confusion-2'
p396
S'Russia-4'
p397
tp398
a(g378
S'causes-5'
p399
S'disappointment-6'
p400
tp401
a(g382
S'disappointment-6'
p402
S'Washington-8'
p403
tp404
asg78
(lp405
(S'Economic'
p406
(dp407
S'NamedEntityTag'
p408
g96
sS'CharacterOffsetEnd'
p409
g98
sS'Lemma'
p410
S'Economic'
p411
sS'PartOfSpeech'
p412
S'NNP'
p413
sS'CharacterOffsetBegin'
p414
g91
stp415
a(S'confusion'
p416
(dp417
S'NamedEntityTag'
p418
g96
sS'CharacterOffsetEnd'
p419
S'19'
p420
sS'Lemma'
p421
S'confusion'
p422
sS'PartOfSpeech'
p423
S'NN'
p424
sS'CharacterOffsetBegin'
p425
S'10'
p426
stp427
a(S'in'
p428
(dp429
S'NamedEntityTag'
p430
g96
sS'CharacterOffsetEnd'
p431
S'22'
p432
sS'Lemma'
p433
S'in'
p434
sS'PartOfSpeech'
p435
S'IN'
p436
sS'CharacterOffsetBegin'
p437
S'20'
p438
stp439
a(S'Russia'
p440
(dp441
S'NamedEntityTag'
p442
S'LOCATION'
p443
sS'CharacterOffsetEnd'
p444
S'29'
p445
sS'Lemma'
p446
S'Russia'
p447
sS'PartOfSpeech'
p448
S'NNP'
p449
sS'CharacterOffsetBegin'
p450
S'23'
p451
stp452
a(S'causes'
p453
(dp454
S'NamedEntityTag'
p455
g96
sS'CharacterOffsetEnd'
p456
S'36'
p457
sS'Lemma'
p458
S'cause'
p459
sS'PartOfSpeech'
p460
S'VBZ'
p461
sS'CharacterOffsetBegin'
p462
S'30'
p463
stp464
a(S'disappointment'
p465
(dp466
S'NamedEntityTag'
p467
g96
sS'CharacterOffsetEnd'
p468
S'51'
p469
sS'Lemma'
p470
S'disappointment'
p471
sS'PartOfSpeech'
p472
S'NN'
p473
sS'CharacterOffsetBegin'
p474
S'37'
p475
stp476
a(S'in'
p477
(dp478
S'NamedEntityTag'
p479
g96
sS'CharacterOffsetEnd'
p480
S'54'
p481
sS'Lemma'
p482
S'in'
p483
sS'PartOfSpeech'
p484
S'IN'
p485
sS'CharacterOffsetBegin'
p486
S'52'
p487
stp488
a(S'Washington'
p489
(dp490
S'NamedEntityTag'
p491
S'LOCATION'
p492
sS'CharacterOffsetEnd'
p493
S'65'
p494
sS'Lemma'
p495
S'Washington'
p496
sS'PartOfSpeech'
p497
S'NNP'
p498
sS'CharacterOffsetBegin'
p499
S'55'
p500
stp501
asasa(dp502
g4
(lp503
(dp504
g7
S"(ROOT (NP (NP (NNP U.S.) (NNS voices)) (NP (NP (NN disappointment)) (PP (IN about) (NP (NP (NNP Russia) (POS 's)) (JJ economic) (NN confusion))))))"
p505
sg9
S"U.S. voices disappointment about Russia's economic confusion"
p506
sg11
(lp507
(S'root'
p508
S'ROOT'
p509
S'voices'
p510
tp511
a(S'nn'
p512
S'voices'
p513
S'U.S.'
p514
tp515
a(S'dep'
p516
S'voices'
p517
S'disappointment'
p518
tp519
a(S'poss'
p520
S'confusion'
p521
S'Russia'
p522
tp523
a(S'amod'
p524
S'confusion'
p525
S'economic'
p526
tp527
a(S'prep_about'
p528
S'disappointment'
p529
S'confusion'
p530
tp531
asg49
(lp532
(g508
S'ROOT-0'
p533
S'voices-2'
p534
tp535
a(g512
S'voices-2'
p536
S'U.S.-1'
p537
tp538
a(g516
S'voices-2'
p539
S'disappointment-3'
p540
tp541
a(g520
S'confusion-8'
p542
S'Russia-5'
p543
tp544
a(g524
S'confusion-8'
p545
S'economic-7'
p546
tp547
a(g528
S'disappointment-3'
p548
S'confusion-8'
p549
tp550
asg78
(lp551
(S'U.S.'
p552
(dp553
S'NamedEntityTag'
p554
S'LOCATION'
p555
sS'CharacterOffsetEnd'
p556
S'5'
p557
sS'Lemma'
p558
S'U.S.'
p559
sS'PartOfSpeech'
p560
S'NNP'
p561
sS'CharacterOffsetBegin'
p562
g91
stp563
a(S'voices'
p564
(dp565
S'NamedEntityTag'
p566
g96
sS'CharacterOffsetEnd'
p567
S'12'
p568
sS'Lemma'
p569
S'voice'
p570
sS'PartOfSpeech'
p571
S'NNS'
p572
sS'CharacterOffsetBegin'
p573
S'6'
p574
stp575
a(S'disappointment'
p576
(dp577
S'NamedEntityTag'
p578
g96
sS'CharacterOffsetEnd'
p579
S'27'
p580
sS'Lemma'
p581
S'disappointment'
p582
sS'PartOfSpeech'
p583
S'NN'
p584
sS'CharacterOffsetBegin'
p585
S'13'
p586
stp587
a(S'about'
p588
(dp589
S'NamedEntityTag'
p590
g96
sS'CharacterOffsetEnd'
p591
S'33'
p592
sS'Lemma'
p593
S'about'
p594
sS'PartOfSpeech'
p595
S'IN'
p596
sS'CharacterOffsetBegin'
p597
S'28'
p598
stp599
a(S'Russia'
p600
(dp601
S'NamedEntityTag'
p602
S'LOCATION'
p603
sS'CharacterOffsetEnd'
p604
S'40'
p605
sS'Lemma'
p606
S'Russia'
p607
sS'PartOfSpeech'
p608
S'NNP'
p609
sS'CharacterOffsetBegin'
p610
S'34'
p611
stp612
a(S"'s"
p613
(dp614
S'NamedEntityTag'
p615
g96
sS'CharacterOffsetEnd'
p616
S'42'
p617
sS'Lemma'
p618
S"'s"
p619
sS'PartOfSpeech'
p620
S'POS'
p621
sS'CharacterOffsetBegin'
p622
S'40'
p623
stp624
a(S'economic'
p625
(dp626
S'NamedEntityTag'
p627
g96
sS'CharacterOffsetEnd'
p628
S'51'
p629
sS'Lemma'
p630
S'economic'
p631
sS'PartOfSpeech'
p632
S'JJ'
p633
sS'CharacterOffsetBegin'
p634
S'43'
p635
stp636
a(S'confusion'
p637
(dp638
S'NamedEntityTag'
p639
g96
sS'CharacterOffsetEnd'
p640
S'61'
p641
sS'Lemma'
p642
S'confusion'
p643
sS'PartOfSpeech'
p644
S'NN'
p645
sS'CharacterOffsetBegin'
p646
S'52'
p647
stp648
asasasS'article'
p649
(dp650
S'coref'
p651
(lp652
(lp653
((S'Primakov'
p654
I1
I-1
I9
I10
tp655
(S'Yevgeny Primakov'
p656
I0
I8
I17
I19
tp657
tp658
a((S'Primakov , once her counterpart when he was foreign minister , as a pragmatist able to cooperate on key issues with Washington'
p659
I4
I2
I2
I24
tp660
(S'Yevgeny Primakov'
p661
I0
I8
I17
I19
tp662
tp663
a((S'Primakov'
p664
I4
I2
I2
I3
tp665
(S'Yevgeny Primakov'
p666
I0
I8
I17
I19
tp667
tp668
a((S'her counterpart when he was foreign minister , as a pragmatist able to cooperate on key issues with Washington'
p669
I4
I6
I5
I24
tp670
(S'Yevgeny Primakov'
p671
I0
I8
I17
I19
tp672
tp673
a((S'him'
p674
I4
I2
I32
I33
tp675
(S'Yevgeny Primakov'
p676
I0
I8
I17
I19
tp677
tp678
aa(lp679
((S'Russia'
p680
I6
I-1
I9
I10
tp681
(S'Russia'
p682
I0
I2
I32
I33
tp683
tp684
a((S'Russia'
p685
I8
I3
I13
I14
tp686
(S'Russia'
p687
I0
I2
I32
I33
tp688
tp689
a((S'Russia'
p690
I10
I-1
I9
I10
tp691
(S'Russia'
p692
I0
I2
I32
I33
tp693
tp694
a((S'Russia'
p695
I11
I0
I0
I1
tp696
(S'Russia'
p697
I0
I2
I32
I33
tp698
tp699
a((S'Russia'
p700
I12
I3
I23
I24
tp701
(S'Russia'
p702
I0
I2
I32
I33
tp703
tp704
a((S'Russia'
p705
I13
I1
I21
I22
tp706
(S'Russia'
p707
I0
I2
I32
I33
tp708
tp709
aa(lp710
((S'The United States'
p711
I6
I2
I0
I3
tp712
(S'The United States'
p713
I0
I2
I0
I3
tp714
tp715
a((S'its'
p716
I6
I6
I6
I7
tp717
(S'The United States'
p718
I0
I2
I0
I3
tp719
tp720
a((S'it'
p721
I6
I3
I13
I14
tp722
(S'The United States'
p723
I0
I2
I0
I3
tp724
tp725
a((S'United States'
p726
I11
I5
I14
I16
tp727
(S'The United States'
p728
I0
I2
I0
I3
tp729
tp730
aa(lp731
((S'themselves'
p732
I13
I2
I42
I43
tp733
(S'American officials'
p734
I13
I1
I40
I42
tp735
tp736
aa(lp737
((S'she'
p738
I0
I0
I30
I31
tp739
(S'Prime Minister Yevgeny Primakov'
p740
I0
I8
I15
I19
tp741
tp742
a((S'her'
p743
I1
I1
I1
I2
tp744
(S'Prime Minister Yevgeny Primakov'
p745
I0
I8
I15
I19
tp746
tp747
a((S'she'
p748
I2
I3
I33
I34
tp749
(S'Prime Minister Yevgeny Primakov'
p750
I0
I8
I15
I19
tp751
tp752
a((S'her'
p753
I4
I5
I5
I6
tp754
(S'Prime Minister Yevgeny Primakov'
p755
I0
I8
I15
I19
tp756
tp757
a((S'she'
p758
I4
I5
I25
I26
tp759
(S'Prime Minister Yevgeny Primakov'
p760
I0
I8
I15
I19
tp761
tp762
aa(lp763
((S'Albright'
p764
I1
I8
I18
I19
tp765
(S'State Madeleine Albright on Friday'
p766
I0
I5
I23
I28
tp767
tp768
a((S'Albright'
p769
I6
I-1
I29
I30
tp770
(S'State Madeleine Albright on Friday'
p771
I0
I5
I23
I28
tp772
tp773
a((S'she'
p774
I8
I5
I15
I16
tp775
(S'State Madeleine Albright on Friday'
p776
I0
I5
I23
I28
tp777
tp778
a((S'Albright'
p779
I10
I0
I0
I1
tp780
(S'State Madeleine Albright on Friday'
p781
I0
I5
I23
I28
tp782
tp783
a((S'she'
p784
I11
I-1
I9
I10
tp785
(S'State Madeleine Albright on Friday'
p786
I0
I5
I23
I28
tp787
tp788
a((S'she'
p789
I12
I5
I5
I6
tp790
(S'State Madeleine Albright on Friday'
p791
I0
I5
I23
I28
tp792
tp793
a((S'she'
p794
I13
I1
I1
I2
tp795
(S'State Madeleine Albright on Friday'
p796
I0
I5
I23
I28
tp797
tp798
a((S'Albright'
p799
I14
I1
I21
I22
tp800
(S'State Madeleine Albright on Friday'
p801
I0
I5
I23
I28
tp802
tp803
aa(lp804
((S'NATO'
p805
I14
I4
I24
I25
tp806
(S'NATO'
p807
I14
I7
I7
I8
tp808
tp809
aa(lp810
((S'he'
p811
I4
I8
I8
I9
tp812
(S'Russias'
p813
I1
I5
I25
I26
tp814
tp815
a((S'Russias'
p816
I9
I8
I8
I9
tp817
(S'Russias'
p818
I1
I5
I25
I26
tp819
tp820
aa(lp821
((S'Washington'
p822
I4
I3
I23
I24
tp823
(S'Washington'
p824
I1
I0
I20
I21
tp825
tp826
a((S'Washington'
p827
I7
I0
I0
I1
tp828
(S'Washington'
p829
I1
I0
I20
I21
tp830
tp831
a((S'Washington'
p832
I12
I8
I8
I9
tp833
(S'Washington'
p834
I1
I0
I20
I21
tp835
tp836
aa(lp837
((S'We'
p838
I3
I0
I0
I1
tp839
(S'We'
p840
I2
I0
I0
I1
tp841
tp842
a((S'Our'
p843
I5
I0
I0
I1
tp844
(S'We'
p845
I2
I0
I0
I1
tp846
tp847
aa(lp848
((S'themselves'
p849
I8
I6
I6
I7
tp850
(S'the direction hes going in'
p851
I5
I8
I6
I11
tp852
tp853
aa(lp854
((S'she'
p855
I5
I7
I17
I18
tp856
(S'some of the direction hes going in'
p857
I5
I4
I4
I11
tp858
tp859
aa(lp860
((S'its'
p861
I9
I1
I11
I12
tp862
(S'the long run'
p863
I9
I3
I1
I4
tp864
tp865
aa(lp866
((S'themselves'
p867
I11
I1
I21
I22
tp868
(S'self-defeating'
p869
I10
I4
I4
I5
tp870
tp871
aa(lp872
((S'its'
p873
I10
I7
I37
I38
tp874
(S'the emphasis in Russias interaction'
p875
I10
I5
I14
I19
tp876
tp877
aa(lp878
((S'a census that American officials themselves promoted before President Boris Yeltsin dismissed the previous government'
p879
I13
I8
I37
I52
tp880
(S'Kremlin'
p881
I13
I5
I35
I36
tp882
tp883
aasg4
(lp884
(dp885
g7
S'(ROOT (S (S (NP (DT The) (NNP United) (NNPS States)) (VP (VBZ is) (VP (VBN disappointed) (PP (IN by) (NP (DT the) (JJ economic) (NN confusion))) (PP (IN within) (NP (NP (DT the) (JJ new) (JJ Russian) (NN government)) (PP (IN of) (NP (NNP Prime) (NNP Minister) (NNP Yevgeny) (NNP Primakov)))))))) (, ,) (VP (VBD said) (NP (NP (NNP Secretary)) (PP (IN of) (NP (NP (NNP State) (NNP Madeleine) (NNP Albright)) (PP (IN on) (NP (NNP Friday))))))) (, ,) (CC and) (S (NP (PRP she)) (VP (VBD warned) (NP (NNP Russia)) (PP (IN about) (NP (NP (DT the) (NNS dangers)) (PP (IN of) (NP (DT an) (JJ anti-Western) (NN policy))))))) (. .)))'
p886
sg9
S'The United States is disappointed by the economic confusion within the new Russian government of Prime Minister Yevgeny Primakov, said Secretary of State Madeleine Albright on Friday, and she warned Russia about the dangers of an anti-Western policy.'
p887
sg11
(lp888
(S'root'
p889
S'ROOT'
p890
S'said'
p891
tp892
a(S'det'
p893
S'States'
p894
S'The'
p895
tp896
a(S'nn'
p897
S'States'
p898
S'United'
p899
tp900
a(S'nsubjpass'
p901
S'disappointed'
p902
S'States'
p903
tp904
a(S'auxpass'
p905
S'disappointed'
p906
S'is'
p907
tp908
a(S'ccomp'
p909
S'said'
p910
S'disappointed'
p911
tp912
a(S'det'
p913
S'confusion'
p914
S'the'
p915
tp916
a(S'amod'
p917
S'confusion'
p918
S'economic'
p919
tp920
a(S'agent'
p921
S'disappointed'
p922
S'confusion'
p923
tp924
a(S'det'
p925
S'government'
p926
S'the'
p927
tp928
a(S'amod'
p929
S'government'
p930
S'new'
p931
tp932
a(S'amod'
p933
S'government'
p934
S'Russian'
p935
tp936
a(S'prep_within'
p937
S'disappointed'
p938
S'government'
p939
tp940
a(S'nn'
p941
S'Primakov'
p942
S'Prime'
p943
tp944
a(S'nn'
p945
S'Primakov'
p946
S'Minister'
p947
tp948
a(S'nn'
p949
S'Primakov'
p950
S'Yevgeny'
p951
tp952
a(S'prep_of'
p953
S'government'
p954
S'Primakov'
p955
tp956
a(S'dobj'
p957
S'said'
p958
S'Secretary'
p959
tp960
a(S'nn'
p961
S'Albright'
p962
S'State'
p963
tp964
a(S'nn'
p965
S'Albright'
p966
S'Madeleine'
p967
tp968
a(S'prep_of'
p969
S'Secretary'
p970
S'Albright'
p971
tp972
a(S'prep_on'
p973
S'Albright'
p974
S'Friday'
p975
tp976
a(S'nsubj'
p977
S'warned'
p978
S'she'
p979
tp980
a(S'conj_and'
p981
S'said'
p982
S'warned'
p983
tp984
a(S'dobj'
p985
S'warned'
p986
S'Russia'
p987
tp988
a(S'det'
p989
S'dangers'
p990
S'the'
p991
tp992
a(S'prep_about'
p993
S'warned'
p994
S'dangers'
p995
tp996
a(S'det'
p997
S'policy'
p998
S'an'
p999
tp1000
a(S'amod'
p1001
S'policy'
p1002
S'anti-Western'
p1003
tp1004
a(S'prep_of'
p1005
S'dangers'
p1006
S'policy'
p1007
tp1008
asg49
(lp1009
(g889
S'ROOT-0'
p1010
S'said-21'
p1011
tp1012
a(g893
S'States-3'
p1013
S'The-1'
p1014
tp1015
a(g897
S'States-3'
p1016
S'United-2'
p1017
tp1018
a(g901
S'disappointed-5'
p1019
S'States-3'
p1020
tp1021
a(g905
S'disappointed-5'
p1022
S'is-4'
p1023
tp1024
a(g909
S'said-21'
p1025
S'disappointed-5'
p1026
tp1027
a(g913
S'confusion-9'
p1028
S'the-7'
p1029
tp1030
a(g917
S'confusion-9'
p1031
S'economic-8'
p1032
tp1033
a(g921
S'disappointed-5'
p1034
S'confusion-9'
p1035
tp1036
a(g925
S'government-14'
p1037
S'the-11'
p1038
tp1039
a(g929
S'government-14'
p1040
S'new-12'
p1041
tp1042
a(g933
S'government-14'
p1043
S'Russian-13'
p1044
tp1045
a(g937
S'disappointed-5'
p1046
S'government-14'
p1047
tp1048
a(g941
S'Primakov-19'
p1049
S'Prime-16'
p1050
tp1051
a(g945
S'Primakov-19'
p1052
S'Minister-17'
p1053
tp1054
a(g949
S'Primakov-19'
p1055
S'Yevgeny-18'
p1056
tp1057
a(g953
S'government-14'
p1058
S'Primakov-19'
p1059
tp1060
a(g957
S'said-21'
p1061
S'Secretary-22'
p1062
tp1063
a(g961
S'Albright-26'
p1064
S'State-24'
p1065
tp1066
a(g965
S'Albright-26'
p1067
S'Madeleine-25'
p1068
tp1069
a(g969
S'Secretary-22'
p1070
S'Albright-26'
p1071
tp1072
a(g973
S'Albright-26'
p1073
S'Friday-28'
p1074
tp1075
a(g977
S'warned-32'
p1076
S'she-31'
p1077
tp1078
a(g981
S'said-21'
p1079
S'warned-32'
p1080
tp1081
a(g985
S'warned-32'
p1082
S'Russia-33'
p1083
tp1084
a(g989
S'dangers-36'
p1085
S'the-35'
p1086
tp1087
a(g993
S'warned-32'
p1088
S'dangers-36'
p1089
tp1090
a(g997
S'policy-40'
p1091
S'an-38'
p1092
tp1093
a(g1001
S'policy-40'
p1094
S'anti-Western-39'
p1095
tp1096
a(g1005
S'dangers-36'
p1097
S'policy-40'
p1098
tp1099
asg78
(lp1100
(S'The'
p1101
(dp1102
S'NamedEntityTag'
p1103
g96
sS'CharacterOffsetEnd'
p1104
g85
sS'Lemma'
p1105
S'the'
p1106
sS'PartOfSpeech'
p1107
S'DT'
p1108
sS'CharacterOffsetBegin'
p1109
S'0'
p1110
stp1111
a(S'United'
p1112
(dp1113
S'NamedEntityTag'
p1114
S'LOCATION'
p1115
sS'CharacterOffsetEnd'
p1116
S'10'
p1117
sS'Lemma'
p1118
S'United'
p1119
sS'PartOfSpeech'
p1120
S'NNP'
p1121
sS'CharacterOffsetBegin'
p1122
g104
stp1123
a(S'States'
p1124
(dp1125
S'NamedEntityTag'
p1126
S'LOCATION'
p1127
sS'CharacterOffsetEnd'
p1128
S'17'
p1129
sS'Lemma'
p1130
S'States'
p1131
sS'PartOfSpeech'
p1132
S'NNPS'
p1133
sS'CharacterOffsetBegin'
p1134
S'11'
p1135
stp1136
a(S'is'
p1137
(dp1138
S'NamedEntityTag'
p1139
g96
sS'CharacterOffsetEnd'
p1140
S'20'
p1141
sS'Lemma'
p1142
S'be'
p1143
sS'PartOfSpeech'
p1144
S'VBZ'
p1145
sS'CharacterOffsetBegin'
p1146
S'18'
p1147
stp1148
a(S'disappointed'
p1149
(dp1150
S'NamedEntityTag'
p1151
g96
sS'CharacterOffsetEnd'
p1152
S'33'
p1153
sS'Lemma'
p1154
S'disappoint'
p1155
sS'PartOfSpeech'
p1156
S'VBN'
p1157
sS'CharacterOffsetBegin'
p1158
S'21'
p1159
stp1160
a(S'by'
p1161
(dp1162
S'NamedEntityTag'
p1163
g96
sS'CharacterOffsetEnd'
p1164
S'36'
p1165
sS'Lemma'
p1166
S'by'
p1167
sS'PartOfSpeech'
p1168
S'IN'
p1169
sS'CharacterOffsetBegin'
p1170
S'34'
p1171
stp1172
a(S'the'
p1173
(dp1174
S'NamedEntityTag'
p1175
g96
sS'CharacterOffsetEnd'
p1176
S'40'
p1177
sS'Lemma'
p1178
S'the'
p1179
sS'PartOfSpeech'
p1180
S'DT'
p1181
sS'CharacterOffsetBegin'
p1182
S'37'
p1183
stp1184
a(S'economic'
p1185
(dp1186
S'NamedEntityTag'
p1187
g96
sS'CharacterOffsetEnd'
p1188
S'49'
p1189
sS'Lemma'
p1190
S'economic'
p1191
sS'PartOfSpeech'
p1192
S'JJ'
p1193
sS'CharacterOffsetBegin'
p1194
S'41'
p1195
stp1196
a(S'confusion'
p1197
(dp1198
S'NamedEntityTag'
p1199
g96
sS'CharacterOffsetEnd'
p1200
S'59'
p1201
sS'Lemma'
p1202
S'confusion'
p1203
sS'PartOfSpeech'
p1204
S'NN'
p1205
sS'CharacterOffsetBegin'
p1206
S'50'
p1207
stp1208
a(S'within'
p1209
(dp1210
S'NamedEntityTag'
p1211
g96
sS'CharacterOffsetEnd'
p1212
S'66'
p1213
sS'Lemma'
p1214
S'within'
p1215
sS'PartOfSpeech'
p1216
S'IN'
p1217
sS'CharacterOffsetBegin'
p1218
S'60'
p1219
stp1220
a(S'the'
p1221
(dp1222
S'NamedEntityTag'
p1223
g96
sS'CharacterOffsetEnd'
p1224
S'70'
p1225
sS'Lemma'
p1226
S'the'
p1227
sS'PartOfSpeech'
p1228
S'DT'
p1229
sS'CharacterOffsetBegin'
p1230
S'67'
p1231
stp1232
a(S'new'
p1233
(dp1234
S'NamedEntityTag'
p1235
g96
sS'CharacterOffsetEnd'
p1236
S'74'
p1237
sS'Lemma'
p1238
S'new'
p1239
sS'PartOfSpeech'
p1240
S'JJ'
p1241
sS'CharacterOffsetBegin'
p1242
S'71'
p1243
stp1244
a(S'Russian'
p1245
(dp1246
S'NamedEntityTag'
p1247
S'MISC'
p1248
sS'CharacterOffsetEnd'
p1249
S'82'
p1250
sS'Lemma'
p1251
S'russian'
p1252
sS'PartOfSpeech'
p1253
S'JJ'
p1254
sS'CharacterOffsetBegin'
p1255
S'75'
p1256
stp1257
a(S'government'
p1258
(dp1259
S'NamedEntityTag'
p1260
g96
sS'CharacterOffsetEnd'
p1261
S'93'
p1262
sS'Lemma'
p1263
S'government'
p1264
sS'PartOfSpeech'
p1265
S'NN'
p1266
sS'CharacterOffsetBegin'
p1267
S'83'
p1268
stp1269
a(S'of'
p1270
(dp1271
S'NamedEntityTag'
p1272
g96
sS'CharacterOffsetEnd'
p1273
S'96'
p1274
sS'Lemma'
p1275
S'of'
p1276
sS'PartOfSpeech'
p1277
S'IN'
p1278
sS'CharacterOffsetBegin'
p1279
S'94'
p1280
stp1281
a(S'Prime'
p1282
(dp1283
S'NamedEntityTag'
p1284
g96
sS'CharacterOffsetEnd'
p1285
S'102'
p1286
sS'Lemma'
p1287
S'Prime'
p1288
sS'PartOfSpeech'
p1289
S'NNP'
p1290
sS'CharacterOffsetBegin'
p1291
S'97'
p1292
stp1293
a(S'Minister'
p1294
(dp1295
S'NamedEntityTag'
p1296
g96
sS'CharacterOffsetEnd'
p1297
S'111'
p1298
sS'Lemma'
p1299
S'Minister'
p1300
sS'PartOfSpeech'
p1301
S'NNP'
p1302
sS'CharacterOffsetBegin'
p1303
S'103'
p1304
stp1305
a(S'Yevgeny'
p1306
(dp1307
S'NamedEntityTag'
p1308
S'PERSON'
p1309
sS'CharacterOffsetEnd'
p1310
S'119'
p1311
sS'Lemma'
p1312
S'Yevgeny'
p1313
sS'PartOfSpeech'
p1314
S'NNP'
p1315
sS'CharacterOffsetBegin'
p1316
S'112'
p1317
stp1318
a(S'Primakov'
p1319
(dp1320
S'NamedEntityTag'
p1321
S'PERSON'
p1322
sS'CharacterOffsetEnd'
p1323
S'128'
p1324
sS'Lemma'
p1325
S'Primakov'
p1326
sS'PartOfSpeech'
p1327
S'NNP'
p1328
sS'CharacterOffsetBegin'
p1329
S'120'
p1330
stp1331
a(S','
p1332
(dp1333
S'NamedEntityTag'
p1334
g96
sS'CharacterOffsetEnd'
p1335
S'129'
p1336
sS'Lemma'
p1337
g1332
sS'PartOfSpeech'
p1338
g1332
sS'CharacterOffsetBegin'
p1339
S'128'
p1340
stp1341
a(S'said'
p1342
(dp1343
S'NamedEntityTag'
p1344
g96
sS'CharacterOffsetEnd'
p1345
S'134'
p1346
sS'Lemma'
p1347
S'say'
p1348
sS'PartOfSpeech'
p1349
S'VBD'
p1350
sS'CharacterOffsetBegin'
p1351
S'130'
p1352
stp1353
a(S'Secretary'
p1354
(dp1355
S'NamedEntityTag'
p1356
g96
sS'CharacterOffsetEnd'
p1357
S'144'
p1358
sS'Lemma'
p1359
S'Secretary'
p1360
sS'PartOfSpeech'
p1361
S'NNP'
p1362
sS'CharacterOffsetBegin'
p1363
S'135'
p1364
stp1365
a(S'of'
p1366
(dp1367
S'NamedEntityTag'
p1368
g96
sS'CharacterOffsetEnd'
p1369
S'147'
p1370
sS'Lemma'
p1371
S'of'
p1372
sS'PartOfSpeech'
p1373
S'IN'
p1374
sS'CharacterOffsetBegin'
p1375
S'145'
p1376
stp1377
a(S'State'
p1378
(dp1379
S'NamedEntityTag'
p1380
S'ORGANIZATION'
p1381
sS'CharacterOffsetEnd'
p1382
S'153'
p1383
sS'Lemma'
p1384
S'State'
p1385
sS'PartOfSpeech'
p1386
S'NNP'
p1387
sS'CharacterOffsetBegin'
p1388
S'148'
p1389
stp1390
a(S'Madeleine'
p1391
(dp1392
S'NamedEntityTag'
p1393
S'PERSON'
p1394
sS'CharacterOffsetEnd'
p1395
S'163'
p1396
sS'Lemma'
p1397
S'Madeleine'
p1398
sS'PartOfSpeech'
p1399
S'NNP'
p1400
sS'CharacterOffsetBegin'
p1401
S'154'
p1402
stp1403
a(S'Albright'
p1404
(dp1405
S'NamedEntityTag'
p1406
S'PERSON'
p1407
sS'CharacterOffsetEnd'
p1408
S'172'
p1409
sS'Lemma'
p1410
S'Albright'
p1411
sS'PartOfSpeech'
p1412
S'NNP'
p1413
sS'CharacterOffsetBegin'
p1414
S'164'
p1415
stp1416
a(S'on'
p1417
(dp1418
S'NamedEntityTag'
p1419
g96
sS'CharacterOffsetEnd'
p1420
S'175'
p1421
sS'Lemma'
p1422
S'on'
p1423
sS'PartOfSpeech'
p1424
S'IN'
p1425
sS'CharacterOffsetBegin'
p1426
S'173'
p1427
stp1428
a(S'Friday'
p1429
(dp1430
S'NormalizedNamedEntityTag'
p1431
S'XXXX-WXX-5'
p1432
sS'Timex'
p1433
S'<TIMEX3 tid="t1" type="DATE" value="XXXX-WXX-5">Friday</TIMEX3>'
p1434
sS'Lemma'
p1435
S'Friday'
p1436
sS'CharacterOffsetEnd'
p1437
S'182'
p1438
sS'PartOfSpeech'
p1439
S'NNP'
p1440
sS'CharacterOffsetBegin'
p1441
S'176'
p1442
sS'NamedEntityTag'
p1443
S'DATE'
p1444
stp1445
a(g1332
(dp1446
S'NamedEntityTag'
p1447
g96
sS'CharacterOffsetEnd'
p1448
S'183'
p1449
sS'Lemma'
p1450
g1332
sS'PartOfSpeech'
p1451
g1332
sS'CharacterOffsetBegin'
p1452
S'182'
p1453
stp1454
a(S'and'
p1455
(dp1456
S'NamedEntityTag'
p1457
g96
sS'CharacterOffsetEnd'
p1458
S'187'
p1459
sS'Lemma'
p1460
S'and'
p1461
sS'PartOfSpeech'
p1462
S'CC'
p1463
sS'CharacterOffsetBegin'
p1464
S'184'
p1465
stp1466
a(S'she'
p1467
(dp1468
S'NamedEntityTag'
p1469
g96
sS'CharacterOffsetEnd'
p1470
S'191'
p1471
sS'Lemma'
p1472
S'she'
p1473
sS'PartOfSpeech'
p1474
S'PRP'
p1475
sS'CharacterOffsetBegin'
p1476
S'188'
p1477
stp1478
a(S'warned'
p1479
(dp1480
S'NamedEntityTag'
p1481
g96
sS'CharacterOffsetEnd'
p1482
S'198'
p1483
sS'Lemma'
p1484
S'warn'
p1485
sS'PartOfSpeech'
p1486
S'VBD'
p1487
sS'CharacterOffsetBegin'
p1488
S'192'
p1489
stp1490
a(S'Russia'
p1491
(dp1492
S'NamedEntityTag'
p1493
S'LOCATION'
p1494
sS'CharacterOffsetEnd'
p1495
S'205'
p1496
sS'Lemma'
p1497
S'Russia'
p1498
sS'PartOfSpeech'
p1499
S'NNP'
p1500
sS'CharacterOffsetBegin'
p1501
S'199'
p1502
stp1503
a(S'about'
p1504
(dp1505
S'NamedEntityTag'
p1506
g96
sS'CharacterOffsetEnd'
p1507
S'211'
p1508
sS'Lemma'
p1509
S'about'
p1510
sS'PartOfSpeech'
p1511
S'IN'
p1512
sS'CharacterOffsetBegin'
p1513
S'206'
p1514
stp1515
a(S'the'
p1516
(dp1517
S'NamedEntityTag'
p1518
g96
sS'CharacterOffsetEnd'
p1519
S'215'
p1520
sS'Lemma'
p1521
S'the'
p1522
sS'PartOfSpeech'
p1523
S'DT'
p1524
sS'CharacterOffsetBegin'
p1525
S'212'
p1526
stp1527
a(S'dangers'
p1528
(dp1529
S'NamedEntityTag'
p1530
g96
sS'CharacterOffsetEnd'
p1531
S'223'
p1532
sS'Lemma'
p1533
S'danger'
p1534
sS'PartOfSpeech'
p1535
S'NNS'
p1536
sS'CharacterOffsetBegin'
p1537
S'216'
p1538
stp1539
a(S'of'
p1540
(dp1541
S'NamedEntityTag'
p1542
g96
sS'CharacterOffsetEnd'
p1543
S'226'
p1544
sS'Lemma'
p1545
S'of'
p1546
sS'PartOfSpeech'
p1547
S'IN'
p1548
sS'CharacterOffsetBegin'
p1549
S'224'
p1550
stp1551
a(S'an'
p1552
(dp1553
S'NamedEntityTag'
p1554
g96
sS'CharacterOffsetEnd'
p1555
S'229'
p1556
sS'Lemma'
p1557
S'a'
p1558
sS'PartOfSpeech'
p1559
S'DT'
p1560
sS'CharacterOffsetBegin'
p1561
S'227'
p1562
stp1563
a(S'anti-Western'
p1564
(dp1565
S'NamedEntityTag'
p1566
S'MISC'
p1567
sS'CharacterOffsetEnd'
p1568
S'242'
p1569
sS'Lemma'
p1570
S'anti-western'
p1571
sS'PartOfSpeech'
p1572
S'JJ'
p1573
sS'CharacterOffsetBegin'
p1574
S'230'
p1575
stp1576
a(S'policy'
p1577
(dp1578
S'NamedEntityTag'
p1579
g96
sS'CharacterOffsetEnd'
p1580
S'249'
p1581
sS'Lemma'
p1582
S'policy'
p1583
sS'PartOfSpeech'
p1584
S'NN'
p1585
sS'CharacterOffsetBegin'
p1586
S'243'
p1587
stp1588
a(g192
(dp1589
S'NamedEntityTag'
p1590
g96
sS'CharacterOffsetEnd'
p1591
S'250'
p1592
sS'Lemma'
p1593
g192
sS'PartOfSpeech'
p1594
g192
sS'CharacterOffsetBegin'
p1595
S'249'
p1596
stp1597
asa(dp1598
g7
S'(ROOT (S (PP (IN In) (NP (NP (PRP$ her) (JJ first) (JJ comprehensive) (NN review)) (PP (IN of) (NP (JJ U.S.-Russian) (NNS relations))) (SBAR (IN since) (S (NP (NNP Primakov)) (VP (VBD was) (VP (VBN confirmed) (PP (IN as) (NP (JJ prime) (NN minister))) (NP-TMP (JJ last) (NN month)))))))) (, ,) (NP (NNP Albright)) (VP (VBD said) (SBAR (S (NP (NNP Washington)) (VP (VP (VBD was) (ADJP (RB deeply) (JJ concerned)) (PP (IN about) (NP (NNP Russias) (NN direction)))) (CC and) (VP (VBD did) (RB not) (VP (VB think) (NP (NP (DT the) (NN crisis)) (SBAR (S (NP (EX there)) (VP (MD would) (ADVP (RB soon)) (VP (VB abate)))))))))))) (. .)))'
p1599
sg9
S'In her first comprehensive review of U.S.-Russian relations since Primakov was confirmed as prime minister last month, Albright said Washington was deeply concerned about Russias direction and did not think the crisis there would soon abate.'
p1600
sg11
(lp1601
(S'root'
p1602
S'ROOT'
p1603
S'said'
p1604
tp1605
a(S'poss'
p1606
S'review'
p1607
S'her'
p1608
tp1609
a(S'amod'
p1610
S'review'
p1611
S'first'
p1612
tp1613
a(S'amod'
p1614
S'review'
p1615
S'comprehensive'
p1616
tp1617
a(S'prep_in'
p1618
S'said'
p1619
S'review'
p1620
tp1621
a(S'amod'
p1622
S'relations'
p1623
S'U.S.-Russian'
p1624
tp1625
a(S'prep_of'
p1626
S'review'
p1627
S'relations'
p1628
tp1629
a(S'mark'
p1630
S'confirmed'
p1631
S'since'
p1632
tp1633
a(S'nsubjpass'
p1634
S'confirmed'
p1635
S'Primakov'
p1636
tp1637
a(S'auxpass'
p1638
S'confirmed'
p1639
S'was'
p1640
tp1641
a(S'dep'
p1642
S'review'
p1643
S'confirmed'
p1644
tp1645
a(S'amod'
p1646
S'minister'
p1647
S'prime'
p1648
tp1649
a(S'prep_as'
p1650
S'confirmed'
p1651
S'minister'
p1652
tp1653
a(S'amod'
p1654
S'month'
p1655
S'last'
p1656
tp1657
a(S'tmod'
p1658
S'confirmed'
p1659
S'month'
p1660
tp1661
a(S'nsubj'
p1662
S'said'
p1663
S'Albright'
p1664
tp1665
a(S'nsubj'
p1666
S'concerned'
p1667
S'Washington'
p1668
tp1669
a(S'cop'
p1670
S'concerned'
p1671
S'was'
p1672
tp1673
a(S'advmod'
p1674
S'concerned'
p1675
S'deeply'
p1676
tp1677
a(S'ccomp'
p1678
S'said'
p1679
S'concerned'
p1680
tp1681
a(S'nn'
p1682
S'direction'
p1683
S'Russias'
p1684
tp1685
a(S'prep_about'
p1686
S'concerned'
p1687
S'direction'
p1688
tp1689
a(S'aux'
p1690
S'think'
p1691
S'did'
p1692
tp1693
a(S'neg'
p1694
S'think'
p1695
S'not'
p1696
tp1697
a(S'conj_and'
p1698
S'concerned'
p1699
S'think'
p1700
tp1701
a(S'det'
p1702
S'crisis'
p1703
S'the'
p1704
tp1705
a(S'dobj'
p1706
S'think'
p1707
S'crisis'
p1708
tp1709
a(S'expl'
p1710
S'abate'
p1711
S'there'
p1712
tp1713
a(S'aux'
p1714
S'abate'
p1715
S'would'
p1716
tp1717
a(S'advmod'
p1718
S'abate'
p1719
S'soon'
p1720
tp1721
a(S'rcmod'
p1722
S'crisis'
p1723
S'abate'
p1724
tp1725
asg49
(lp1726
(g1602
S'ROOT-0'
p1727
S'said-20'
p1728
tp1729
a(g1606
S'review-5'
p1730
S'her-2'
p1731
tp1732
a(g1610
S'review-5'
p1733
S'first-3'
p1734
tp1735
a(g1614
S'review-5'
p1736
S'comprehensive-4'
p1737
tp1738
a(g1618
S'said-20'
p1739
S'review-5'
p1740
tp1741
a(g1622
S'relations-8'
p1742
S'U.S.-Russian-7'
p1743
tp1744
a(g1626
S'review-5'
p1745
S'relations-8'
p1746
tp1747
a(g1630
S'confirmed-12'
p1748
S'since-9'
p1749
tp1750
a(g1634
S'confirmed-12'
p1751
S'Primakov-10'
p1752
tp1753
a(g1638
S'confirmed-12'
p1754
S'was-11'
p1755
tp1756
a(g1642
S'review-5'
p1757
S'confirmed-12'
p1758
tp1759
a(g1646
S'minister-15'
p1760
S'prime-14'
p1761
tp1762
a(g1650
S'confirmed-12'
p1763
S'minister-15'
p1764
tp1765
a(g1654
S'month-17'
p1766
S'last-16'
p1767
tp1768
a(g1658
S'confirmed-12'
p1769
S'month-17'
p1770
tp1771
a(g1662
S'said-20'
p1772
S'Albright-19'
p1773
tp1774
a(g1666
S'concerned-24'
p1775
S'Washington-21'
p1776
tp1777
a(g1670
S'concerned-24'
p1778
S'was-22'
p1779
tp1780
a(g1674
S'concerned-24'
p1781
S'deeply-23'
p1782
tp1783
a(g1678
S'said-20'
p1784
S'concerned-24'
p1785
tp1786
a(g1682
S'direction-27'
p1787
S'Russias-26'
p1788
tp1789
a(g1686
S'concerned-24'
p1790
S'direction-27'
p1791
tp1792
a(g1690
S'think-31'
p1793
S'did-29'
p1794
tp1795
a(g1694
S'think-31'
p1796
S'not-30'
p1797
tp1798
a(g1698
S'concerned-24'
p1799
S'think-31'
p1800
tp1801
a(g1702
S'crisis-33'
p1802
S'the-32'
p1803
tp1804
a(g1706
S'think-31'
p1805
S'crisis-33'
p1806
tp1807
a(g1710
S'abate-37'
p1808
S'there-34'
p1809
tp1810
a(g1714
S'abate-37'
p1811
S'would-35'
p1812
tp1813
a(g1718
S'abate-37'
p1814
S'soon-36'
p1815
tp1816
a(g1722
S'crisis-33'
p1817
S'abate-37'
p1818
tp1819
asg78
(lp1820
(S'In'
p1821
(dp1822
S'NamedEntityTag'
p1823
g96
sS'CharacterOffsetEnd'
p1824
S'253'
p1825
sS'Lemma'
p1826
S'in'
p1827
sS'PartOfSpeech'
p1828
S'IN'
p1829
sS'CharacterOffsetBegin'
p1830
S'251'
p1831
stp1832
a(S'her'
p1833
(dp1834
S'NamedEntityTag'
p1835
g96
sS'CharacterOffsetEnd'
p1836
S'257'
p1837
sS'Lemma'
p1838
S'she'
p1839
sS'PartOfSpeech'
p1840
S'PRP$'
p1841
sS'CharacterOffsetBegin'
p1842
S'254'
p1843
stp1844
a(S'first'
p1845
(dp1846
S'NormalizedNamedEntityTag'
p1847
S'1.0'
p1848
sS'Lemma'
p1849
S'first'
p1850
sS'CharacterOffsetEnd'
p1851
S'263'
p1852
sS'PartOfSpeech'
p1853
S'JJ'
p1854
sS'CharacterOffsetBegin'
p1855
S'258'
p1856
sS'NamedEntityTag'
p1857
S'ORDINAL'
p1858
stp1859
a(S'comprehensive'
p1860
(dp1861
S'NamedEntityTag'
p1862
g96
sS'CharacterOffsetEnd'
p1863
S'277'
p1864
sS'Lemma'
p1865
S'comprehensive'
p1866
sS'PartOfSpeech'
p1867
S'JJ'
p1868
sS'CharacterOffsetBegin'
p1869
S'264'
p1870
stp1871
a(S'review'
p1872
(dp1873
S'NamedEntityTag'
p1874
g96
sS'CharacterOffsetEnd'
p1875
S'284'
p1876
sS'Lemma'
p1877
S'review'
p1878
sS'PartOfSpeech'
p1879
S'NN'
p1880
sS'CharacterOffsetBegin'
p1881
S'278'
p1882
stp1883
a(S'of'
p1884
(dp1885
S'NamedEntityTag'
p1886
g96
sS'CharacterOffsetEnd'
p1887
S'287'
p1888
sS'Lemma'
p1889
S'of'
p1890
sS'PartOfSpeech'
p1891
S'IN'
p1892
sS'CharacterOffsetBegin'
p1893
S'285'
p1894
stp1895
a(S'U.S.-Russian'
p1896
(dp1897
S'NamedEntityTag'
p1898
g96
sS'CharacterOffsetEnd'
p1899
S'300'
p1900
sS'Lemma'
p1901
S'u.s.-russian'
p1902
sS'PartOfSpeech'
p1903
S'JJ'
p1904
sS'CharacterOffsetBegin'
p1905
S'288'
p1906
stp1907
a(S'relations'
p1908
(dp1909
S'NamedEntityTag'
p1910
g96
sS'CharacterOffsetEnd'
p1911
S'310'
p1912
sS'Lemma'
p1913
S'relation'
p1914
sS'PartOfSpeech'
p1915
S'NNS'
p1916
sS'CharacterOffsetBegin'
p1917
S'301'
p1918
stp1919
a(S'since'
p1920
(dp1921
S'NamedEntityTag'
p1922
g96
sS'CharacterOffsetEnd'
p1923
S'316'
p1924
sS'Lemma'
p1925
S'since'
p1926
sS'PartOfSpeech'
p1927
S'IN'
p1928
sS'CharacterOffsetBegin'
p1929
S'311'
p1930
stp1931
a(S'Primakov'
p1932
(dp1933
S'NamedEntityTag'
p1934
S'PERSON'
p1935
sS'CharacterOffsetEnd'
p1936
S'325'
p1937
sS'Lemma'
p1938
S'Primakov'
p1939
sS'PartOfSpeech'
p1940
S'NNP'
p1941
sS'CharacterOffsetBegin'
p1942
S'317'
p1943
stp1944
a(S'was'
p1945
(dp1946
S'NamedEntityTag'
p1947
g96
sS'CharacterOffsetEnd'
p1948
S'329'
p1949
sS'Lemma'
p1950
S'be'
p1951
sS'PartOfSpeech'
p1952
S'VBD'
p1953
sS'CharacterOffsetBegin'
p1954
S'326'
p1955
stp1956
a(S'confirmed'
p1957
(dp1958
S'NamedEntityTag'
p1959
g96
sS'CharacterOffsetEnd'
p1960
S'339'
p1961
sS'Lemma'
p1962
S'confirm'
p1963
sS'PartOfSpeech'
p1964
S'VBN'
p1965
sS'CharacterOffsetBegin'
p1966
S'330'
p1967
stp1968
a(S'as'
p1969
(dp1970
S'NamedEntityTag'
p1971
g96
sS'CharacterOffsetEnd'
p1972
S'342'
p1973
sS'Lemma'
p1974
S'as'
p1975
sS'PartOfSpeech'
p1976
S'IN'
p1977
sS'CharacterOffsetBegin'
p1978
S'340'
p1979
stp1980
a(S'prime'
p1981
(dp1982
S'NamedEntityTag'
p1983
g96
sS'CharacterOffsetEnd'
p1984
S'348'
p1985
sS'Lemma'
p1986
S'prime'
p1987
sS'PartOfSpeech'
p1988
S'JJ'
p1989
sS'CharacterOffsetBegin'
p1990
S'343'
p1991
stp1992
a(S'minister'
p1993
(dp1994
S'NamedEntityTag'
p1995
g96
sS'CharacterOffsetEnd'
p1996
S'357'
p1997
sS'Lemma'
p1998
S'minister'
p1999
sS'PartOfSpeech'
p2000
S'NN'
p2001
sS'CharacterOffsetBegin'
p2002
S'349'
p2003
stp2004
a(S'last'
p2005
(dp2006
S'NormalizedNamedEntityTag'
p2007
S'THIS'
p2008
sS'Timex'
p2009
S'<TIMEX3 alt_value="THIS P1M OFFSET P-1M" anchorTimeID="t3" temporalFunction="true" tid="t2" type="DATE" valueFromFunction="tf0">last month</TIMEX3>'
p2010
sS'Lemma'
p2011
S'last'
p2012
sS'CharacterOffsetEnd'
p2013
S'362'
p2014
sS'PartOfSpeech'
p2015
S'JJ'
p2016
sS'CharacterOffsetBegin'
p2017
S'358'
p2018
sS'NamedEntityTag'
p2019
S'DATE'
p2020
stp2021
a(S'month'
p2022
(dp2023
S'NormalizedNamedEntityTag'
p2024
S'THIS'
p2025
sS'Timex'
p2026
S'<TIMEX3 alt_value="THIS P1M OFFSET P-1M" anchorTimeID="t3" temporalFunction="true" tid="t2" type="DATE" valueFromFunction="tf0">last month</TIMEX3>'
p2027
sS'Lemma'
p2028
S'month'
p2029
sS'CharacterOffsetEnd'
p2030
S'368'
p2031
sS'PartOfSpeech'
p2032
S'NN'
p2033
sS'CharacterOffsetBegin'
p2034
S'363'
p2035
sS'NamedEntityTag'
p2036
S'DATE'
p2037
stp2038
a(g1332
(dp2039
S'NamedEntityTag'
p2040
g96
sS'CharacterOffsetEnd'
p2041
S'369'
p2042
sS'Lemma'
p2043
g1332
sS'PartOfSpeech'
p2044
g1332
sS'CharacterOffsetBegin'
p2045
S'368'
p2046
stp2047
a(S'Albright'
p2048
(dp2049
S'NamedEntityTag'
p2050
S'PERSON'
p2051
sS'CharacterOffsetEnd'
p2052
S'378'
p2053
sS'Lemma'
p2054
S'Albright'
p2055
sS'PartOfSpeech'
p2056
S'NNP'
p2057
sS'CharacterOffsetBegin'
p2058
S'370'
p2059
stp2060
a(S'said'
p2061
(dp2062
S'NamedEntityTag'
p2063
g96
sS'CharacterOffsetEnd'
p2064
S'383'
p2065
sS'Lemma'
p2066
S'say'
p2067
sS'PartOfSpeech'
p2068
S'VBD'
p2069
sS'CharacterOffsetBegin'
p2070
S'379'
p2071
stp2072
a(S'Washington'
p2073
(dp2074
S'NamedEntityTag'
p2075
S'LOCATION'
p2076
sS'CharacterOffsetEnd'
p2077
S'394'
p2078
sS'Lemma'
p2079
S'Washington'
p2080
sS'PartOfSpeech'
p2081
S'NNP'
p2082
sS'CharacterOffsetBegin'
p2083
S'384'
p2084
stp2085
a(S'was'
p2086
(dp2087
S'NamedEntityTag'
p2088
g96
sS'CharacterOffsetEnd'
p2089
S'398'
p2090
sS'Lemma'
p2091
S'be'
p2092
sS'PartOfSpeech'
p2093
S'VBD'
p2094
sS'CharacterOffsetBegin'
p2095
S'395'
p2096
stp2097
a(S'deeply'
p2098
(dp2099
S'NamedEntityTag'
p2100
g96
sS'CharacterOffsetEnd'
p2101
S'405'
p2102
sS'Lemma'
p2103
S'deeply'
p2104
sS'PartOfSpeech'
p2105
S'RB'
p2106
sS'CharacterOffsetBegin'
p2107
S'399'
p2108
stp2109
a(S'concerned'
p2110
(dp2111
S'NamedEntityTag'
p2112
g96
sS'CharacterOffsetEnd'
p2113
S'415'
p2114
sS'Lemma'
p2115
S'concerned'
p2116
sS'PartOfSpeech'
p2117
S'JJ'
p2118
sS'CharacterOffsetBegin'
p2119
S'406'
p2120
stp2121
a(S'about'
p2122
(dp2123
S'NamedEntityTag'
p2124
g96
sS'CharacterOffsetEnd'
p2125
S'421'
p2126
sS'Lemma'
p2127
S'about'
p2128
sS'PartOfSpeech'
p2129
S'IN'
p2130
sS'CharacterOffsetBegin'
p2131
S'416'
p2132
stp2133
a(S'Russias'
p2134
(dp2135
S'NamedEntityTag'
p2136
S'MISC'
p2137
sS'CharacterOffsetEnd'
p2138
S'429'
p2139
sS'Lemma'
p2140
S'Russias'
p2141
sS'PartOfSpeech'
p2142
S'NNP'
p2143
sS'CharacterOffsetBegin'
p2144
S'422'
p2145
stp2146
a(S'direction'
p2147
(dp2148
S'NamedEntityTag'
p2149
g96
sS'CharacterOffsetEnd'
p2150
S'439'
p2151
sS'Lemma'
p2152
S'direction'
p2153
sS'PartOfSpeech'
p2154
S'NN'
p2155
sS'CharacterOffsetBegin'
p2156
S'430'
p2157
stp2158
a(S'and'
p2159
(dp2160
S'NamedEntityTag'
p2161
g96
sS'CharacterOffsetEnd'
p2162
S'443'
p2163
sS'Lemma'
p2164
S'and'
p2165
sS'PartOfSpeech'
p2166
S'CC'
p2167
sS'CharacterOffsetBegin'
p2168
S'440'
p2169
stp2170
a(S'did'
p2171
(dp2172
S'NamedEntityTag'
p2173
g96
sS'CharacterOffsetEnd'
p2174
S'447'
p2175
sS'Lemma'
p2176
S'do'
p2177
sS'PartOfSpeech'
p2178
S'VBD'
p2179
sS'CharacterOffsetBegin'
p2180
S'444'
p2181
stp2182
a(S'not'
p2183
(dp2184
S'NamedEntityTag'
p2185
g96
sS'CharacterOffsetEnd'
p2186
S'451'
p2187
sS'Lemma'
p2188
S'not'
p2189
sS'PartOfSpeech'
p2190
S'RB'
p2191
sS'CharacterOffsetBegin'
p2192
S'448'
p2193
stp2194
a(S'think'
p2195
(dp2196
S'NamedEntityTag'
p2197
g96
sS'CharacterOffsetEnd'
p2198
S'457'
p2199
sS'Lemma'
p2200
S'think'
p2201
sS'PartOfSpeech'
p2202
S'VB'
p2203
sS'CharacterOffsetBegin'
p2204
S'452'
p2205
stp2206
a(S'the'
p2207
(dp2208
S'NamedEntityTag'
p2209
g96
sS'CharacterOffsetEnd'
p2210
S'461'
p2211
sS'Lemma'
p2212
S'the'
p2213
sS'PartOfSpeech'
p2214
S'DT'
p2215
sS'CharacterOffsetBegin'
p2216
S'458'
p2217
stp2218
a(S'crisis'
p2219
(dp2220
S'NamedEntityTag'
p2221
g96
sS'CharacterOffsetEnd'
p2222
S'468'
p2223
sS'Lemma'
p2224
S'crisis'
p2225
sS'PartOfSpeech'
p2226
S'NN'
p2227
sS'CharacterOffsetBegin'
p2228
S'462'
p2229
stp2230
a(S'there'
p2231
(dp2232
S'NamedEntityTag'
p2233
g96
sS'CharacterOffsetEnd'
p2234
S'474'
p2235
sS'Lemma'
p2236
S'there'
p2237
sS'PartOfSpeech'
p2238
S'EX'
p2239
sS'CharacterOffsetBegin'
p2240
S'469'
p2241
stp2242
a(S'would'
p2243
(dp2244
S'NamedEntityTag'
p2245
g96
sS'CharacterOffsetEnd'
p2246
S'480'
p2247
sS'Lemma'
p2248
S'would'
p2249
sS'PartOfSpeech'
p2250
S'MD'
p2251
sS'CharacterOffsetBegin'
p2252
S'475'
p2253
stp2254
a(S'soon'
p2255
(dp2256
S'NamedEntityTag'
p2257
g96
sS'CharacterOffsetEnd'
p2258
S'485'
p2259
sS'Lemma'
p2260
S'soon'
p2261
sS'PartOfSpeech'
p2262
S'RB'
p2263
sS'CharacterOffsetBegin'
p2264
S'481'
p2265
stp2266
a(S'abate'
p2267
(dp2268
S'NamedEntityTag'
p2269
g96
sS'CharacterOffsetEnd'
p2270
S'491'
p2271
sS'Lemma'
p2272
S'abate'
p2273
sS'PartOfSpeech'
p2274
S'VB'
p2275
sS'CharacterOffsetBegin'
p2276
S'486'
p2277
stp2278
a(g192
(dp2279
S'NamedEntityTag'
p2280
g96
sS'CharacterOffsetEnd'
p2281
S'492'
p2282
sS'Lemma'
p2283
g192
sS'PartOfSpeech'
p2284
g192
sS'CharacterOffsetBegin'
p2285
S'491'
p2286
stp2287
asa(dp2288
g7
S'(ROOT (S (S (NP (PRP We)) (VP (VBP have) (VP (VBN heard) (NP (NP (DT a) (NN lot)) (PP (IN of) (NP (NN talk)))) (PP (IN in) (NP (JJ recent) (NNS days))) (PP (IN about) (S (VP (VP (VBG printing) (NP (NP (JJ new) (NN money)) (, ,) (NP (NN indexing) (NNS wages)))) (, ,) (VP (VBG imposing) (NP (NP (NN price) (CC and) (NN capital)) (NNS controls))) (CC and) (VP (VBG restoring) (NP (NP (NN state) (NN management)) (PP (IN of) (NP (NP (NNS parts)) (PP (IN of) (NP (DT the) (NN economy))))))))))))) (, ,) (NP (PRP she)) (VP (VBD told) (NP (NP (DT the) (NNP U.S.-Russia) (NNP Business) (NNP Council)) (PP (IN in) (NP (NNP Chicago))))) (. .)))'
p2289
sg9
S'We have heard a lot of talk in recent days about printing new money, indexing wages, imposing price and capital controls and restoring state management of parts of the economy, she told the U.S.-Russia Business Council in Chicago.'
p2290
sg11
(lp2291
(S'root'
p2292
S'ROOT'
p2293
S'told'
p2294
tp2295
a(S'nsubj'
p2296
S'heard'
p2297
S'We'
p2298
tp2299
a(S'aux'
p2300
S'heard'
p2301
S'have'
p2302
tp2303
a(S'ccomp'
p2304
S'told'
p2305
S'heard'
p2306
tp2307
a(S'det'
p2308
S'lot'
p2309
g1558
tp2310
a(S'dobj'
p2311
S'heard'
p2312
S'lot'
p2313
tp2314
a(S'prep_of'
p2315
S'lot'
p2316
S'talk'
p2317
tp2318
a(S'amod'
p2319
S'days'
p2320
S'recent'
p2321
tp2322
a(S'prep_in'
p2323
S'heard'
p2324
S'days'
p2325
tp2326
a(S'prepc_about'
p2327
S'heard'
p2328
S'printing'
p2329
tp2330
a(S'amod'
p2331
S'money'
p2332
S'new'
p2333
tp2334
a(S'dobj'
p2335
S'printing'
p2336
S'money'
p2337
tp2338
a(S'nn'
p2339
S'wages'
p2340
S'indexing'
p2341
tp2342
a(S'appos'
p2343
S'money'
p2344
S'wages'
p2345
tp2346
a(S'conj_and'
p2347
S'printing'
p2348
S'imposing'
p2349
tp2350
a(S'nn'
p2351
S'controls'
p2352
S'price'
p2353
tp2354
a(S'conj_and'
p2355
S'price'
p2356
S'capital'
p2357
tp2358
a(S'dobj'
p2359
S'imposing'
p2360
S'controls'
p2361
tp2362
a(S'conj_and'
p2363
S'printing'
p2364
S'restoring'
p2365
tp2366
a(S'nn'
p2367
S'management'
p2368
S'state'
p2369
tp2370
a(S'dobj'
p2371
S'restoring'
p2372
S'management'
p2373
tp2374
a(S'prep_of'
p2375
S'management'
p2376
S'parts'
p2377
tp2378
a(S'det'
p2379
S'economy'
p2380
S'the'
p2381
tp2382
a(S'prep_of'
p2383
S'parts'
p2384
S'economy'
p2385
tp2386
a(S'nsubj'
p2387
S'told'
p2388
S'she'
p2389
tp2390
a(S'det'
p2391
S'Council'
p2392
S'the'
p2393
tp2394
a(S'nn'
p2395
S'Council'
p2396
S'U.S.-Russia'
p2397
tp2398
a(S'nn'
p2399
S'Council'
p2400
S'Business'
p2401
tp2402
a(S'dobj'
p2403
S'told'
p2404
S'Council'
p2405
tp2406
a(S'prep_in'
p2407
S'Council'
p2408
S'Chicago'
p2409
tp2410
asg49
(lp2411
(g2292
S'ROOT-0'
p2412
S'told-35'
p2413
tp2414
a(g2296
S'heard-3'
p2415
S'We-1'
p2416
tp2417
a(g2300
S'heard-3'
p2418
S'have-2'
p2419
tp2420
a(g2304
S'told-35'
p2421
S'heard-3'
p2422
tp2423
a(g2308
S'lot-5'
p2424
S'a-4'
p2425
tp2426
a(g2311
S'heard-3'
p2427
S'lot-5'
p2428
tp2429
a(g2315
S'lot-5'
p2430
S'talk-7'
p2431
tp2432
a(g2319
S'days-10'
p2433
S'recent-9'
p2434
tp2435
a(g2323
S'heard-3'
p2436
S'days-10'
p2437
tp2438
a(g2327
S'heard-3'
p2439
S'printing-12'
p2440
tp2441
a(g2331
S'money-14'
p2442
S'new-13'
p2443
tp2444
a(g2335
S'printing-12'
p2445
S'money-14'
p2446
tp2447
a(g2339
S'wages-17'
p2448
S'indexing-16'
p2449
tp2450
a(g2343
S'money-14'
p2451
S'wages-17'
p2452
tp2453
a(g2347
S'printing-12'
p2454
S'imposing-19'
p2455
tp2456
a(g2351
S'controls-23'
p2457
S'price-20'
p2458
tp2459
a(g2355
S'price-20'
p2460
S'capital-22'
p2461
tp2462
a(g2359
S'imposing-19'
p2463
S'controls-23'
p2464
tp2465
a(g2363
S'printing-12'
p2466
S'restoring-25'
p2467
tp2468
a(g2367
S'management-27'
p2469
S'state-26'
p2470
tp2471
a(g2371
S'restoring-25'
p2472
S'management-27'
p2473
tp2474
a(g2375
S'management-27'
p2475
S'parts-29'
p2476
tp2477
a(g2379
S'economy-32'
p2478
S'the-31'
p2479
tp2480
a(g2383
S'parts-29'
p2481
S'economy-32'
p2482
tp2483
a(g2387
S'told-35'
p2484
S'she-34'
p2485
tp2486
a(g2391
S'Council-39'
p2487
S'the-36'
p2488
tp2489
a(g2395
S'Council-39'
p2490
S'U.S.-Russia-37'
p2491
tp2492
a(g2399
S'Council-39'
p2493
S'Business-38'
p2494
tp2495
a(g2403
S'told-35'
p2496
S'Council-39'
p2497
tp2498
a(g2407
S'Council-39'
p2499
S'Chicago-41'
p2500
tp2501
asg78
(lp2502
(S'We'
p2503
(dp2504
S'NamedEntityTag'
p2505
g96
sS'CharacterOffsetEnd'
p2506
S'495'
p2507
sS'Lemma'
p2508
S'we'
p2509
sS'PartOfSpeech'
p2510
S'PRP'
p2511
sS'CharacterOffsetBegin'
p2512
S'493'
p2513
stp2514
a(S'have'
p2515
(dp2516
S'NamedEntityTag'
p2517
g96
sS'CharacterOffsetEnd'
p2518
S'500'
p2519
sS'Lemma'
p2520
S'have'
p2521
sS'PartOfSpeech'
p2522
S'VBP'
p2523
sS'CharacterOffsetBegin'
p2524
S'496'
p2525
stp2526
a(S'heard'
p2527
(dp2528
S'NamedEntityTag'
p2529
g96
sS'CharacterOffsetEnd'
p2530
S'506'
p2531
sS'Lemma'
p2532
S'hear'
p2533
sS'PartOfSpeech'
p2534
S'VBN'
p2535
sS'CharacterOffsetBegin'
p2536
S'501'
p2537
stp2538
a(g1558
(dp2539
S'NamedEntityTag'
p2540
g96
sS'CharacterOffsetEnd'
p2541
S'508'
p2542
sS'Lemma'
p2543
g1558
sS'PartOfSpeech'
p2544
S'DT'
p2545
sS'CharacterOffsetBegin'
p2546
S'507'
p2547
stp2548
a(S'lot'
p2549
(dp2550
S'NamedEntityTag'
p2551
g96
sS'CharacterOffsetEnd'
p2552
S'512'
p2553
sS'Lemma'
p2554
S'lot'
p2555
sS'PartOfSpeech'
p2556
S'NN'
p2557
sS'CharacterOffsetBegin'
p2558
S'509'
p2559
stp2560
a(S'of'
p2561
(dp2562
S'NamedEntityTag'
p2563
g96
sS'CharacterOffsetEnd'
p2564
S'515'
p2565
sS'Lemma'
p2566
S'of'
p2567
sS'PartOfSpeech'
p2568
S'IN'
p2569
sS'CharacterOffsetBegin'
p2570
S'513'
p2571
stp2572
a(S'talk'
p2573
(dp2574
S'NamedEntityTag'
p2575
g96
sS'CharacterOffsetEnd'
p2576
S'520'
p2577
sS'Lemma'
p2578
S'talk'
p2579
sS'PartOfSpeech'
p2580
S'NN'
p2581
sS'CharacterOffsetBegin'
p2582
S'516'
p2583
stp2584
a(S'in'
p2585
(dp2586
S'NamedEntityTag'
p2587
g96
sS'CharacterOffsetEnd'
p2588
S'523'
p2589
sS'Lemma'
p2590
S'in'
p2591
sS'PartOfSpeech'
p2592
S'IN'
p2593
sS'CharacterOffsetBegin'
p2594
S'521'
p2595
stp2596
a(S'recent'
p2597
(dp2598
S'NormalizedNamedEntityTag'
p2599
S'PXD'
p2600
sS'Timex'
p2601
S'<TIMEX3 tid="t4" type="DURATION" value="PXD">recent days</TIMEX3>'
p2602
sS'Lemma'
p2603
S'recent'
p2604
sS'CharacterOffsetEnd'
p2605
S'530'
p2606
sS'PartOfSpeech'
p2607
S'JJ'
p2608
sS'CharacterOffsetBegin'
p2609
S'524'
p2610
sS'NamedEntityTag'
p2611
S'DURATION'
p2612
stp2613
a(S'days'
p2614
(dp2615
S'NormalizedNamedEntityTag'
p2616
S'PXD'
p2617
sS'Timex'
p2618
S'<TIMEX3 tid="t4" type="DURATION" value="PXD">recent days</TIMEX3>'
p2619
sS'Lemma'
p2620
S'day'
p2621
sS'CharacterOffsetEnd'
p2622
S'535'
p2623
sS'PartOfSpeech'
p2624
S'NNS'
p2625
sS'CharacterOffsetBegin'
p2626
S'531'
p2627
sS'NamedEntityTag'
p2628
S'DURATION'
p2629
stp2630
a(S'about'
p2631
(dp2632
S'NamedEntityTag'
p2633
g96
sS'CharacterOffsetEnd'
p2634
S'541'
p2635
sS'Lemma'
p2636
S'about'
p2637
sS'PartOfSpeech'
p2638
S'IN'
p2639
sS'CharacterOffsetBegin'
p2640
S'536'
p2641
stp2642
a(S'printing'
p2643
(dp2644
S'NamedEntityTag'
p2645
g96
sS'CharacterOffsetEnd'
p2646
S'550'
p2647
sS'Lemma'
p2648
S'print'
p2649
sS'PartOfSpeech'
p2650
S'VBG'
p2651
sS'CharacterOffsetBegin'
p2652
S'542'
p2653
stp2654
a(S'new'
p2655
(dp2656
S'NamedEntityTag'
p2657
g96
sS'CharacterOffsetEnd'
p2658
S'554'
p2659
sS'Lemma'
p2660
S'new'
p2661
sS'PartOfSpeech'
p2662
S'JJ'
p2663
sS'CharacterOffsetBegin'
p2664
S'551'
p2665
stp2666
a(S'money'
p2667
(dp2668
S'NamedEntityTag'
p2669
g96
sS'CharacterOffsetEnd'
p2670
S'560'
p2671
sS'Lemma'
p2672
S'money'
p2673
sS'PartOfSpeech'
p2674
S'NN'
p2675
sS'CharacterOffsetBegin'
p2676
S'555'
p2677
stp2678
a(g1332
(dp2679
S'NamedEntityTag'
p2680
g96
sS'CharacterOffsetEnd'
p2681
S'561'
p2682
sS'Lemma'
p2683
g1332
sS'PartOfSpeech'
p2684
g1332
sS'CharacterOffsetBegin'
p2685
S'560'
p2686
stp2687
a(S'indexing'
p2688
(dp2689
S'NamedEntityTag'
p2690
g96
sS'CharacterOffsetEnd'
p2691
S'570'
p2692
sS'Lemma'
p2693
S'indexing'
p2694
sS'PartOfSpeech'
p2695
S'NN'
p2696
sS'CharacterOffsetBegin'
p2697
S'562'
p2698
stp2699
a(S'wages'
p2700
(dp2701
S'NamedEntityTag'
p2702
g96
sS'CharacterOffsetEnd'
p2703
S'576'
p2704
sS'Lemma'
p2705
S'wages'
p2706
sS'PartOfSpeech'
p2707
S'NNS'
p2708
sS'CharacterOffsetBegin'
p2709
S'571'
p2710
stp2711
a(g1332
(dp2712
S'NamedEntityTag'
p2713
g96
sS'CharacterOffsetEnd'
p2714
S'577'
p2715
sS'Lemma'
p2716
g1332
sS'PartOfSpeech'
p2717
g1332
sS'CharacterOffsetBegin'
p2718
S'576'
p2719
stp2720
a(S'imposing'
p2721
(dp2722
S'NamedEntityTag'
p2723
g96
sS'CharacterOffsetEnd'
p2724
S'586'
p2725
sS'Lemma'
p2726
S'impose'
p2727
sS'PartOfSpeech'
p2728
S'VBG'
p2729
sS'CharacterOffsetBegin'
p2730
S'578'
p2731
stp2732
a(S'price'
p2733
(dp2734
S'NamedEntityTag'
p2735
g96
sS'CharacterOffsetEnd'
p2736
S'592'
p2737
sS'Lemma'
p2738
S'price'
p2739
sS'PartOfSpeech'
p2740
S'NN'
p2741
sS'CharacterOffsetBegin'
p2742
S'587'
p2743
stp2744
a(S'and'
p2745
(dp2746
S'NamedEntityTag'
p2747
g96
sS'CharacterOffsetEnd'
p2748
S'596'
p2749
sS'Lemma'
p2750
S'and'
p2751
sS'PartOfSpeech'
p2752
S'CC'
p2753
sS'CharacterOffsetBegin'
p2754
S'593'
p2755
stp2756
a(S'capital'
p2757
(dp2758
S'NamedEntityTag'
p2759
g96
sS'CharacterOffsetEnd'
p2760
S'604'
p2761
sS'Lemma'
p2762
S'capital'
p2763
sS'PartOfSpeech'
p2764
S'NN'
p2765
sS'CharacterOffsetBegin'
p2766
S'597'
p2767
stp2768
a(S'controls'
p2769
(dp2770
S'NamedEntityTag'
p2771
g96
sS'CharacterOffsetEnd'
p2772
S'613'
p2773
sS'Lemma'
p2774
S'control'
p2775
sS'PartOfSpeech'
p2776
S'NNS'
p2777
sS'CharacterOffsetBegin'
p2778
S'605'
p2779
stp2780
a(S'and'
p2781
(dp2782
S'NamedEntityTag'
p2783
g96
sS'CharacterOffsetEnd'
p2784
S'617'
p2785
sS'Lemma'
p2786
S'and'
p2787
sS'PartOfSpeech'
p2788
S'CC'
p2789
sS'CharacterOffsetBegin'
p2790
S'614'
p2791
stp2792
a(S'restoring'
p2793
(dp2794
S'NamedEntityTag'
p2795
g96
sS'CharacterOffsetEnd'
p2796
S'627'
p2797
sS'Lemma'
p2798
S'restore'
p2799
sS'PartOfSpeech'
p2800
S'VBG'
p2801
sS'CharacterOffsetBegin'
p2802
S'618'
p2803
stp2804
a(S'state'
p2805
(dp2806
S'NamedEntityTag'
p2807
g96
sS'CharacterOffsetEnd'
p2808
S'633'
p2809
sS'Lemma'
p2810
S'state'
p2811
sS'PartOfSpeech'
p2812
S'NN'
p2813
sS'CharacterOffsetBegin'
p2814
S'628'
p2815
stp2816
a(S'management'
p2817
(dp2818
S'NamedEntityTag'
p2819
g96
sS'CharacterOffsetEnd'
p2820
S'644'
p2821
sS'Lemma'
p2822
S'management'
p2823
sS'PartOfSpeech'
p2824
S'NN'
p2825
sS'CharacterOffsetBegin'
p2826
S'634'
p2827
stp2828
a(S'of'
p2829
(dp2830
S'NamedEntityTag'
p2831
g96
sS'CharacterOffsetEnd'
p2832
S'647'
p2833
sS'Lemma'
p2834
S'of'
p2835
sS'PartOfSpeech'
p2836
S'IN'
p2837
sS'CharacterOffsetBegin'
p2838
S'645'
p2839
stp2840
a(S'parts'
p2841
(dp2842
S'NamedEntityTag'
p2843
g96
sS'CharacterOffsetEnd'
p2844
S'653'
p2845
sS'Lemma'
p2846
S'part'
p2847
sS'PartOfSpeech'
p2848
S'NNS'
p2849
sS'CharacterOffsetBegin'
p2850
S'648'
p2851
stp2852
a(S'of'
p2853
(dp2854
S'NamedEntityTag'
p2855
g96
sS'CharacterOffsetEnd'
p2856
S'656'
p2857
sS'Lemma'
p2858
S'of'
p2859
sS'PartOfSpeech'
p2860
S'IN'
p2861
sS'CharacterOffsetBegin'
p2862
S'654'
p2863
stp2864
a(S'the'
p2865
(dp2866
S'NamedEntityTag'
p2867
g96
sS'CharacterOffsetEnd'
p2868
S'660'
p2869
sS'Lemma'
p2870
S'the'
p2871
sS'PartOfSpeech'
p2872
S'DT'
p2873
sS'CharacterOffsetBegin'
p2874
S'657'
p2875
stp2876
a(S'economy'
p2877
(dp2878
S'NamedEntityTag'
p2879
g96
sS'CharacterOffsetEnd'
p2880
S'668'
p2881
sS'Lemma'
p2882
S'economy'
p2883
sS'PartOfSpeech'
p2884
S'NN'
p2885
sS'CharacterOffsetBegin'
p2886
S'661'
p2887
stp2888
a(g1332
(dp2889
S'NamedEntityTag'
p2890
g96
sS'CharacterOffsetEnd'
p2891
S'669'
p2892
sS'Lemma'
p2893
g1332
sS'PartOfSpeech'
p2894
g1332
sS'CharacterOffsetBegin'
p2895
S'668'
p2896
stp2897
a(S'she'
p2898
(dp2899
S'NamedEntityTag'
p2900
g96
sS'CharacterOffsetEnd'
p2901
S'673'
p2902
sS'Lemma'
p2903
S'she'
p2904
sS'PartOfSpeech'
p2905
S'PRP'
p2906
sS'CharacterOffsetBegin'
p2907
S'670'
p2908
stp2909
a(S'told'
p2910
(dp2911
S'NamedEntityTag'
p2912
g96
sS'CharacterOffsetEnd'
p2913
S'678'
p2914
sS'Lemma'
p2915
S'tell'
p2916
sS'PartOfSpeech'
p2917
S'VBD'
p2918
sS'CharacterOffsetBegin'
p2919
S'674'
p2920
stp2921
a(S'the'
p2922
(dp2923
S'NamedEntityTag'
p2924
g96
sS'CharacterOffsetEnd'
p2925
S'682'
p2926
sS'Lemma'
p2927
S'the'
p2928
sS'PartOfSpeech'
p2929
S'DT'
p2930
sS'CharacterOffsetBegin'
p2931
S'679'
p2932
stp2933
a(S'U.S.-Russia'
p2934
(dp2935
S'NamedEntityTag'
p2936
S'ORGANIZATION'
p2937
sS'CharacterOffsetEnd'
p2938
S'694'
p2939
sS'Lemma'
p2940
S'U.S.-Russia'
p2941
sS'PartOfSpeech'
p2942
S'NNP'
p2943
sS'CharacterOffsetBegin'
p2944
S'683'
p2945
stp2946
a(S'Business'
p2947
(dp2948
S'NamedEntityTag'
p2949
S'ORGANIZATION'
p2950
sS'CharacterOffsetEnd'
p2951
S'703'
p2952
sS'Lemma'
p2953
S'Business'
p2954
sS'PartOfSpeech'
p2955
S'NNP'
p2956
sS'CharacterOffsetBegin'
p2957
S'695'
p2958
stp2959
a(S'Council'
p2960
(dp2961
S'NamedEntityTag'
p2962
S'ORGANIZATION'
p2963
sS'CharacterOffsetEnd'
p2964
S'711'
p2965
sS'Lemma'
p2966
S'Council'
p2967
sS'PartOfSpeech'
p2968
S'NNP'
p2969
sS'CharacterOffsetBegin'
p2970
S'704'
p2971
stp2972
a(S'in'
p2973
(dp2974
S'NamedEntityTag'
p2975
g96
sS'CharacterOffsetEnd'
p2976
S'714'
p2977
sS'Lemma'
p2978
S'in'
p2979
sS'PartOfSpeech'
p2980
S'IN'
p2981
sS'CharacterOffsetBegin'
p2982
S'712'
p2983
stp2984
a(S'Chicago'
p2985
(dp2986
S'NamedEntityTag'
p2987
S'LOCATION'
p2988
sS'CharacterOffsetEnd'
p2989
S'722'
p2990
sS'Lemma'
p2991
S'Chicago'
p2992
sS'PartOfSpeech'
p2993
S'NNP'
p2994
sS'CharacterOffsetBegin'
p2995
S'715'
p2996
stp2997
a(g192
(dp2998
S'NamedEntityTag'
p2999
g96
sS'CharacterOffsetEnd'
p3000
S'723'
p3001
sS'Lemma'
p3002
g192
sS'PartOfSpeech'
p3003
g192
sS'CharacterOffsetBegin'
p3004
S'722'
p3005
stp3006
asa(dp3007
g7
S'(ROOT (S (NP (PRP We)) (VP (MD can) (ADVP (RB only)) (VP (VB wonder) (SBAR (IN if) (S (NP (NP (DT some) (NNS members)) (PP (IN of) (NP (NNP Primakovs) (NN team)))) (VP (VB understand) (NP (NP (DT the) (JJ basic) (NN arithmetic)) (PP (IN of) (NP (DT the) (JJ global) (NN economy))))))))) (. .)))'
p3008
sg9
S'We can only wonder if some members of Primakovs team understand the basic arithmetic of the global economy.'
p3009
sg11
(lp3010
(S'root'
p3011
S'ROOT'
p3012
S'wonder'
p3013
tp3014
a(S'nsubj'
p3015
S'wonder'
p3016
S'We'
p3017
tp3018
a(S'aux'
p3019
S'wonder'
p3020
S'can'
p3021
tp3022
a(S'advmod'
p3023
S'wonder'
p3024
S'only'
p3025
tp3026
a(S'mark'
p3027
S'understand'
p3028
S'if'
p3029
tp3030
a(S'det'
p3031
S'members'
p3032
S'some'
p3033
tp3034
a(S'nsubj'
p3035
S'understand'
p3036
S'members'
p3037
tp3038
a(S'nn'
p3039
S'team'
p3040
S'Primakovs'
p3041
tp3042
a(S'prep_of'
p3043
S'members'
p3044
S'team'
p3045
tp3046
a(S'advcl'
p3047
S'wonder'
p3048
S'understand'
p3049
tp3050
a(S'det'
p3051
S'arithmetic'
p3052
S'the'
p3053
tp3054
a(S'amod'
p3055
S'arithmetic'
p3056
S'basic'
p3057
tp3058
a(S'dobj'
p3059
S'understand'
p3060
S'arithmetic'
p3061
tp3062
a(S'det'
p3063
S'economy'
p3064
S'the'
p3065
tp3066
a(S'amod'
p3067
S'economy'
p3068
S'global'
p3069
tp3070
a(S'prep_of'
p3071
S'arithmetic'
p3072
S'economy'
p3073
tp3074
asg49
(lp3075
(g3011
S'ROOT-0'
p3076
S'wonder-4'
p3077
tp3078
a(g3015
S'wonder-4'
p3079
S'We-1'
p3080
tp3081
a(g3019
S'wonder-4'
p3082
S'can-2'
p3083
tp3084
a(g3023
S'wonder-4'
p3085
S'only-3'
p3086
tp3087
a(g3027
S'understand-11'
p3088
S'if-5'
p3089
tp3090
a(g3031
S'members-7'
p3091
S'some-6'
p3092
tp3093
a(g3035
S'understand-11'
p3094
S'members-7'
p3095
tp3096
a(g3039
S'team-10'
p3097
S'Primakovs-9'
p3098
tp3099
a(g3043
S'members-7'
p3100
S'team-10'
p3101
tp3102
a(g3047
S'wonder-4'
p3103
S'understand-11'
p3104
tp3105
a(g3051
S'arithmetic-14'
p3106
S'the-12'
p3107
tp3108
a(g3055
S'arithmetic-14'
p3109
S'basic-13'
p3110
tp3111
a(g3059
S'understand-11'
p3112
S'arithmetic-14'
p3113
tp3114
a(g3063
S'economy-18'
p3115
S'the-16'
p3116
tp3117
a(g3067
S'economy-18'
p3118
S'global-17'
p3119
tp3120
a(g3071
S'arithmetic-14'
p3121
S'economy-18'
p3122
tp3123
asg78
(lp3124
(S'We'
p3125
(dp3126
S'NamedEntityTag'
p3127
g96
sS'CharacterOffsetEnd'
p3128
S'726'
p3129
sS'Lemma'
p3130
S'we'
p3131
sS'PartOfSpeech'
p3132
S'PRP'
p3133
sS'CharacterOffsetBegin'
p3134
S'724'
p3135
stp3136
a(S'can'
p3137
(dp3138
S'NamedEntityTag'
p3139
g96
sS'CharacterOffsetEnd'
p3140
S'730'
p3141
sS'Lemma'
p3142
S'can'
p3143
sS'PartOfSpeech'
p3144
S'MD'
p3145
sS'CharacterOffsetBegin'
p3146
S'727'
p3147
stp3148
a(S'only'
p3149
(dp3150
S'NamedEntityTag'
p3151
g96
sS'CharacterOffsetEnd'
p3152
S'735'
p3153
sS'Lemma'
p3154
S'only'
p3155
sS'PartOfSpeech'
p3156
S'RB'
p3157
sS'CharacterOffsetBegin'
p3158
S'731'
p3159
stp3160
a(S'wonder'
p3161
(dp3162
S'NamedEntityTag'
p3163
g96
sS'CharacterOffsetEnd'
p3164
S'742'
p3165
sS'Lemma'
p3166
S'wonder'
p3167
sS'PartOfSpeech'
p3168
S'VB'
p3169
sS'CharacterOffsetBegin'
p3170
S'736'
p3171
stp3172
a(S'if'
p3173
(dp3174
S'NamedEntityTag'
p3175
g96
sS'CharacterOffsetEnd'
p3176
S'745'
p3177
sS'Lemma'
p3178
S'if'
p3179
sS'PartOfSpeech'
p3180
S'IN'
p3181
sS'CharacterOffsetBegin'
p3182
S'743'
p3183
stp3184
a(S'some'
p3185
(dp3186
S'NamedEntityTag'
p3187
g96
sS'CharacterOffsetEnd'
p3188
S'750'
p3189
sS'Lemma'
p3190
S'some'
p3191
sS'PartOfSpeech'
p3192
S'DT'
p3193
sS'CharacterOffsetBegin'
p3194
S'746'
p3195
stp3196
a(S'members'
p3197
(dp3198
S'NamedEntityTag'
p3199
g96
sS'CharacterOffsetEnd'
p3200
S'758'
p3201
sS'Lemma'
p3202
S'member'
p3203
sS'PartOfSpeech'
p3204
S'NNS'
p3205
sS'CharacterOffsetBegin'
p3206
S'751'
p3207
stp3208
a(S'of'
p3209
(dp3210
S'NamedEntityTag'
p3211
g96
sS'CharacterOffsetEnd'
p3212
S'761'
p3213
sS'Lemma'
p3214
S'of'
p3215
sS'PartOfSpeech'
p3216
S'IN'
p3217
sS'CharacterOffsetBegin'
p3218
S'759'
p3219
stp3220
a(S'Primakovs'
p3221
(dp3222
S'NamedEntityTag'
p3223
g96
sS'CharacterOffsetEnd'
p3224
S'771'
p3225
sS'Lemma'
p3226
S'Primakovs'
p3227
sS'PartOfSpeech'
p3228
S'NNP'
p3229
sS'CharacterOffsetBegin'
p3230
S'762'
p3231
stp3232
a(S'team'
p3233
(dp3234
S'NamedEntityTag'
p3235
g96
sS'CharacterOffsetEnd'
p3236
S'776'
p3237
sS'Lemma'
p3238
S'team'
p3239
sS'PartOfSpeech'
p3240
S'NN'
p3241
sS'CharacterOffsetBegin'
p3242
S'772'
p3243
stp3244
a(S'understand'
p3245
(dp3246
S'NamedEntityTag'
p3247
g96
sS'CharacterOffsetEnd'
p3248
S'787'
p3249
sS'Lemma'
p3250
S'understand'
p3251
sS'PartOfSpeech'
p3252
S'VB'
p3253
sS'CharacterOffsetBegin'
p3254
S'777'
p3255
stp3256
a(S'the'
p3257
(dp3258
S'NamedEntityTag'
p3259
g96
sS'CharacterOffsetEnd'
p3260
S'791'
p3261
sS'Lemma'
p3262
S'the'
p3263
sS'PartOfSpeech'
p3264
S'DT'
p3265
sS'CharacterOffsetBegin'
p3266
S'788'
p3267
stp3268
a(S'basic'
p3269
(dp3270
S'NamedEntityTag'
p3271
g96
sS'CharacterOffsetEnd'
p3272
S'797'
p3273
sS'Lemma'
p3274
S'basic'
p3275
sS'PartOfSpeech'
p3276
S'JJ'
p3277
sS'CharacterOffsetBegin'
p3278
S'792'
p3279
stp3280
a(S'arithmetic'
p3281
(dp3282
S'NamedEntityTag'
p3283
g96
sS'CharacterOffsetEnd'
p3284
S'808'
p3285
sS'Lemma'
p3286
S'arithmetic'
p3287
sS'PartOfSpeech'
p3288
S'NN'
p3289
sS'CharacterOffsetBegin'
p3290
S'798'
p3291
stp3292
a(S'of'
p3293
(dp3294
S'NamedEntityTag'
p3295
g96
sS'CharacterOffsetEnd'
p3296
S'811'
p3297
sS'Lemma'
p3298
S'of'
p3299
sS'PartOfSpeech'
p3300
S'IN'
p3301
sS'CharacterOffsetBegin'
p3302
S'809'
p3303
stp3304
a(S'the'
p3305
(dp3306
S'NamedEntityTag'
p3307
g96
sS'CharacterOffsetEnd'
p3308
S'815'
p3309
sS'Lemma'
p3310
S'the'
p3311
sS'PartOfSpeech'
p3312
S'DT'
p3313
sS'CharacterOffsetBegin'
p3314
S'812'
p3315
stp3316
a(S'global'
p3317
(dp3318
S'NamedEntityTag'
p3319
g96
sS'CharacterOffsetEnd'
p3320
S'822'
p3321
sS'Lemma'
p3322
S'global'
p3323
sS'PartOfSpeech'
p3324
S'JJ'
p3325
sS'CharacterOffsetBegin'
p3326
S'816'
p3327
stp3328
a(S'economy'
p3329
(dp3330
S'NamedEntityTag'
p3331
g96
sS'CharacterOffsetEnd'
p3332
S'830'
p3333
sS'Lemma'
p3334
S'economy'
p3335
sS'PartOfSpeech'
p3336
S'NN'
p3337
sS'CharacterOffsetBegin'
p3338
S'823'
p3339
stp3340
a(g192
(dp3341
S'NamedEntityTag'
p3342
g96
sS'CharacterOffsetEnd'
p3343
S'831'
p3344
sS'Lemma'
p3345
g192
sS'PartOfSpeech'
p3346
g192
sS'CharacterOffsetBegin'
p3347
S'830'
p3348
stp3349
asa(dp3350
g7
S'(ROOT (S (SBAR (IN While) (S (VP (VBG praising) (NP (NP (NNP Primakov)) (, ,) (ADVP (RB once)) (NP (NP (PRP$ her) (NN counterpart)) (SBAR (WHADVP (WRB when)) (S (NP (PRP he)) (VP (VBD was) (NP (JJ foreign) (NN minister)) (, ,) (PP (IN as) (NP (NP (DT a) (NN pragmatist)) (ADJP (JJ able) (S (VP (TO to) (VP (VB cooperate) (PP (IN on) (NP (JJ key) (NNS issues))) (PP (IN with) (NP (NNP Washington))))))))))))))))) (, ,) (NP (PRP she)) (VP (VBD had) (NP (NP (JJ harsh) (NNS words)) (PP (IN of) (S (VP (VBG warning) (PP (IN for) (NP (PRP him)))))))) (. .)))'
p3351
sg9
S'While praising Primakov, once her counterpart when he was foreign minister, as a pragmatist able to cooperate on key issues with Washington, she had harsh words of warning for him.'
p3352
sg11
(lp3353
(S'root'
p3354
S'ROOT'
p3355
S'had'
p3356
tp3357
a(S'mark'
p3358
S'praising'
p3359
S'While'
p3360
tp3361
a(S'advcl'
p3362
S'had'
p3363
S'praising'
p3364
tp3365
a(S'dobj'
p3366
S'praising'
p3367
S'Primakov'
p3368
tp3369
a(S'advmod'
p3370
S'Primakov'
p3371
S'once'
p3372
tp3373
a(S'poss'
p3374
S'counterpart'
p3375
S'her'
p3376
tp3377
a(S'dep'
p3378
S'Primakov'
p3379
S'counterpart'
p3380
tp3381
a(S'advmod'
p3382
S'minister'
p3383
S'when'
p3384
tp3385
a(S'nsubj'
p3386
S'minister'
p3387
S'he'
p3388
tp3389
a(S'cop'
p3390
S'minister'
p3391
S'was'
p3392
tp3393
a(S'amod'
p3394
S'minister'
p3395
S'foreign'
p3396
tp3397
a(S'rcmod'
p3398
S'counterpart'
p3399
S'minister'
p3400
tp3401
a(S'det'
p3402
S'pragmatist'
p3403
g1558
tp3404
a(S'prep_as'
p3405
S'minister'
p3406
S'pragmatist'
p3407
tp3408
a(S'amod'
p3409
S'pragmatist'
p3410
S'able'
p3411
tp3412
a(S'aux'
p3413
S'cooperate'
p3414
S'to'
p3415
tp3416
a(S'xcomp'
p3417
S'able'
p3418
S'cooperate'
p3419
tp3420
a(S'amod'
p3421
S'issues'
p3422
S'key'
p3423
tp3424
a(S'prep_on'
p3425
S'cooperate'
p3426
S'issues'
p3427
tp3428
a(S'prep_with'
p3429
S'cooperate'
p3430
S'Washington'
p3431
tp3432
a(S'nsubj'
p3433
S'had'
p3434
S'she'
p3435
tp3436
a(S'amod'
p3437
S'words'
p3438
S'harsh'
p3439
tp3440
a(S'dobj'
p3441
S'had'
p3442
S'words'
p3443
tp3444
a(S'prepc_of'
p3445
S'words'
p3446
S'warning'
p3447
tp3448
a(S'prep_for'
p3449
S'warning'
p3450
S'him'
p3451
tp3452
asg49
(lp3453
(g3354
S'ROOT-0'
p3454
S'had-27'
p3455
tp3456
a(g3358
S'praising-2'
p3457
S'While-1'
p3458
tp3459
a(g3362
S'had-27'
p3460
S'praising-2'
p3461
tp3462
a(g3366
S'praising-2'
p3463
S'Primakov-3'
p3464
tp3465
a(g3370
S'Primakov-3'
p3466
S'once-5'
p3467
tp3468
a(g3374
S'counterpart-7'
p3469
S'her-6'
p3470
tp3471
a(g3378
S'Primakov-3'
p3472
S'counterpart-7'
p3473
tp3474
a(g3382
S'minister-12'
p3475
S'when-8'
p3476
tp3477
a(g3386
S'minister-12'
p3478
S'he-9'
p3479
tp3480
a(g3390
S'minister-12'
p3481
S'was-10'
p3482
tp3483
a(g3394
S'minister-12'
p3484
S'foreign-11'
p3485
tp3486
a(g3398
S'counterpart-7'
p3487
S'minister-12'
p3488
tp3489
a(g3402
S'pragmatist-16'
p3490
S'a-15'
p3491
tp3492
a(g3405
S'minister-12'
p3493
S'pragmatist-16'
p3494
tp3495
a(g3409
S'pragmatist-16'
p3496
S'able-17'
p3497
tp3498
a(g3413
S'cooperate-19'
p3499
S'to-18'
p3500
tp3501
a(g3417
S'able-17'
p3502
S'cooperate-19'
p3503
tp3504
a(g3421
S'issues-22'
p3505
S'key-21'
p3506
tp3507
a(g3425
S'cooperate-19'
p3508
S'issues-22'
p3509
tp3510
a(g3429
S'cooperate-19'
p3511
S'Washington-24'
p3512
tp3513
a(g3433
S'had-27'
p3514
S'she-26'
p3515
tp3516
a(g3437
S'words-29'
p3517
S'harsh-28'
p3518
tp3519
a(g3441
S'had-27'
p3520
S'words-29'
p3521
tp3522
a(g3445
S'words-29'
p3523
S'warning-31'
p3524
tp3525
a(g3449
S'warning-31'
p3526
S'him-33'
p3527
tp3528
asg78
(lp3529
(S'While'
p3530
(dp3531
S'NamedEntityTag'
p3532
g96
sS'CharacterOffsetEnd'
p3533
S'837'
p3534
sS'Lemma'
p3535
S'while'
p3536
sS'PartOfSpeech'
p3537
S'IN'
p3538
sS'CharacterOffsetBegin'
p3539
S'832'
p3540
stp3541
a(S'praising'
p3542
(dp3543
S'NamedEntityTag'
p3544
g96
sS'CharacterOffsetEnd'
p3545
S'846'
p3546
sS'Lemma'
p3547
S'praise'
p3548
sS'PartOfSpeech'
p3549
S'VBG'
p3550
sS'CharacterOffsetBegin'
p3551
S'838'
p3552
stp3553
a(S'Primakov'
p3554
(dp3555
S'NamedEntityTag'
p3556
S'PERSON'
p3557
sS'CharacterOffsetEnd'
p3558
S'855'
p3559
sS'Lemma'
p3560
S'Primakov'
p3561
sS'PartOfSpeech'
p3562
S'NNP'
p3563
sS'CharacterOffsetBegin'
p3564
S'847'
p3565
stp3566
a(g1332
(dp3567
S'NamedEntityTag'
p3568
g96
sS'CharacterOffsetEnd'
p3569
S'856'
p3570
sS'Lemma'
p3571
g1332
sS'PartOfSpeech'
p3572
g1332
sS'CharacterOffsetBegin'
p3573
S'855'
p3574
stp3575
a(S'once'
p3576
(dp3577
S'NormalizedNamedEntityTag'
p3578
S'PAST_REF'
p3579
sS'Timex'
p3580
S'<TIMEX3 tid="t5" type="DATE" value="PAST_REF">once</TIMEX3>'
p3581
sS'Lemma'
p3582
S'once'
p3583
sS'CharacterOffsetEnd'
p3584
S'861'
p3585
sS'PartOfSpeech'
p3586
S'RB'
p3587
sS'CharacterOffsetBegin'
p3588
S'857'
p3589
sS'NamedEntityTag'
p3590
S'DATE'
p3591
stp3592
a(S'her'
p3593
(dp3594
S'NamedEntityTag'
p3595
g96
sS'CharacterOffsetEnd'
p3596
S'865'
p3597
sS'Lemma'
p3598
S'she'
p3599
sS'PartOfSpeech'
p3600
S'PRP$'
p3601
sS'CharacterOffsetBegin'
p3602
S'862'
p3603
stp3604
a(S'counterpart'
p3605
(dp3606
S'NamedEntityTag'
p3607
g96
sS'CharacterOffsetEnd'
p3608
S'877'
p3609
sS'Lemma'
p3610
S'counterpart'
p3611
sS'PartOfSpeech'
p3612
S'NN'
p3613
sS'CharacterOffsetBegin'
p3614
S'866'
p3615
stp3616
a(S'when'
p3617
(dp3618
S'NamedEntityTag'
p3619
g96
sS'CharacterOffsetEnd'
p3620
S'882'
p3621
sS'Lemma'
p3622
S'when'
p3623
sS'PartOfSpeech'
p3624
S'WRB'
p3625
sS'CharacterOffsetBegin'
p3626
S'878'
p3627
stp3628
a(S'he'
p3629
(dp3630
S'NamedEntityTag'
p3631
g96
sS'CharacterOffsetEnd'
p3632
S'885'
p3633
sS'Lemma'
p3634
S'he'
p3635
sS'PartOfSpeech'
p3636
S'PRP'
p3637
sS'CharacterOffsetBegin'
p3638
S'883'
p3639
stp3640
a(S'was'
p3641
(dp3642
S'NamedEntityTag'
p3643
g96
sS'CharacterOffsetEnd'
p3644
S'889'
p3645
sS'Lemma'
p3646
S'be'
p3647
sS'PartOfSpeech'
p3648
S'VBD'
p3649
sS'CharacterOffsetBegin'
p3650
S'886'
p3651
stp3652
a(S'foreign'
p3653
(dp3654
S'NamedEntityTag'
p3655
g96
sS'CharacterOffsetEnd'
p3656
S'897'
p3657
sS'Lemma'
p3658
S'foreign'
p3659
sS'PartOfSpeech'
p3660
S'JJ'
p3661
sS'CharacterOffsetBegin'
p3662
S'890'
p3663
stp3664
a(S'minister'
p3665
(dp3666
S'NamedEntityTag'
p3667
g96
sS'CharacterOffsetEnd'
p3668
S'906'
p3669
sS'Lemma'
p3670
S'minister'
p3671
sS'PartOfSpeech'
p3672
S'NN'
p3673
sS'CharacterOffsetBegin'
p3674
S'898'
p3675
stp3676
a(g1332
(dp3677
S'NamedEntityTag'
p3678
g96
sS'CharacterOffsetEnd'
p3679
S'907'
p3680
sS'Lemma'
p3681
g1332
sS'PartOfSpeech'
p3682
g1332
sS'CharacterOffsetBegin'
p3683
S'906'
p3684
stp3685
a(S'as'
p3686
(dp3687
S'NamedEntityTag'
p3688
g96
sS'CharacterOffsetEnd'
p3689
S'910'
p3690
sS'Lemma'
p3691
S'as'
p3692
sS'PartOfSpeech'
p3693
S'IN'
p3694
sS'CharacterOffsetBegin'
p3695
S'908'
p3696
stp3697
a(g1558
(dp3698
S'NamedEntityTag'
p3699
g96
sS'CharacterOffsetEnd'
p3700
S'912'
p3701
sS'Lemma'
p3702
g1558
sS'PartOfSpeech'
p3703
S'DT'
p3704
sS'CharacterOffsetBegin'
p3705
S'911'
p3706
stp3707
a(S'pragmatist'
p3708
(dp3709
S'NamedEntityTag'
p3710
g96
sS'CharacterOffsetEnd'
p3711
S'923'
p3712
sS'Lemma'
p3713
S'pragmatist'
p3714
sS'PartOfSpeech'
p3715
S'NN'
p3716
sS'CharacterOffsetBegin'
p3717
S'913'
p3718
stp3719
a(S'able'
p3720
(dp3721
S'NamedEntityTag'
p3722
g96
sS'CharacterOffsetEnd'
p3723
S'928'
p3724
sS'Lemma'
p3725
S'able'
p3726
sS'PartOfSpeech'
p3727
S'JJ'
p3728
sS'CharacterOffsetBegin'
p3729
S'924'
p3730
stp3731
a(S'to'
p3732
(dp3733
S'NamedEntityTag'
p3734
g96
sS'CharacterOffsetEnd'
p3735
S'931'
p3736
sS'Lemma'
p3737
S'to'
p3738
sS'PartOfSpeech'
p3739
S'TO'
p3740
sS'CharacterOffsetBegin'
p3741
S'929'
p3742
stp3743
a(S'cooperate'
p3744
(dp3745
S'NamedEntityTag'
p3746
g96
sS'CharacterOffsetEnd'
p3747
S'941'
p3748
sS'Lemma'
p3749
S'cooperate'
p3750
sS'PartOfSpeech'
p3751
S'VB'
p3752
sS'CharacterOffsetBegin'
p3753
S'932'
p3754
stp3755
a(S'on'
p3756
(dp3757
S'NamedEntityTag'
p3758
g96
sS'CharacterOffsetEnd'
p3759
S'944'
p3760
sS'Lemma'
p3761
S'on'
p3762
sS'PartOfSpeech'
p3763
S'IN'
p3764
sS'CharacterOffsetBegin'
p3765
S'942'
p3766
stp3767
a(S'key'
p3768
(dp3769
S'NamedEntityTag'
p3770
g96
sS'CharacterOffsetEnd'
p3771
S'948'
p3772
sS'Lemma'
p3773
S'key'
p3774
sS'PartOfSpeech'
p3775
S'JJ'
p3776
sS'CharacterOffsetBegin'
p3777
S'945'
p3778
stp3779
a(S'issues'
p3780
(dp3781
S'NamedEntityTag'
p3782
g96
sS'CharacterOffsetEnd'
p3783
S'955'
p3784
sS'Lemma'
p3785
S'issue'
p3786
sS'PartOfSpeech'
p3787
S'NNS'
p3788
sS'CharacterOffsetBegin'
p3789
S'949'
p3790
stp3791
a(S'with'
p3792
(dp3793
S'NamedEntityTag'
p3794
g96
sS'CharacterOffsetEnd'
p3795
S'960'
p3796
sS'Lemma'
p3797
S'with'
p3798
sS'PartOfSpeech'
p3799
S'IN'
p3800
sS'CharacterOffsetBegin'
p3801
S'956'
p3802
stp3803
a(S'Washington'
p3804
(dp3805
S'NamedEntityTag'
p3806
S'LOCATION'
p3807
sS'CharacterOffsetEnd'
p3808
S'971'
p3809
sS'Lemma'
p3810
S'Washington'
p3811
sS'PartOfSpeech'
p3812
S'NNP'
p3813
sS'CharacterOffsetBegin'
p3814
S'961'
p3815
stp3816
a(g1332
(dp3817
S'NamedEntityTag'
p3818
g96
sS'CharacterOffsetEnd'
p3819
S'972'
p3820
sS'Lemma'
p3821
g1332
sS'PartOfSpeech'
p3822
g1332
sS'CharacterOffsetBegin'
p3823
S'971'
p3824
stp3825
a(S'she'
p3826
(dp3827
S'NamedEntityTag'
p3828
g96
sS'CharacterOffsetEnd'
p3829
S'976'
p3830
sS'Lemma'
p3831
S'she'
p3832
sS'PartOfSpeech'
p3833
S'PRP'
p3834
sS'CharacterOffsetBegin'
p3835
S'973'
p3836
stp3837
a(S'had'
p3838
(dp3839
S'NamedEntityTag'
p3840
g96
sS'CharacterOffsetEnd'
p3841
S'980'
p3842
sS'Lemma'
p3843
S'have'
p3844
sS'PartOfSpeech'
p3845
S'VBD'
p3846
sS'CharacterOffsetBegin'
p3847
S'977'
p3848
stp3849
a(S'harsh'
p3850
(dp3851
S'NamedEntityTag'
p3852
g96
sS'CharacterOffsetEnd'
p3853
S'986'
p3854
sS'Lemma'
p3855
S'harsh'
p3856
sS'PartOfSpeech'
p3857
S'JJ'
p3858
sS'CharacterOffsetBegin'
p3859
S'981'
p3860
stp3861
a(S'words'
p3862
(dp3863
S'NamedEntityTag'
p3864
g96
sS'CharacterOffsetEnd'
p3865
S'992'
p3866
sS'Lemma'
p3867
S'word'
p3868
sS'PartOfSpeech'
p3869
S'NNS'
p3870
sS'CharacterOffsetBegin'
p3871
S'987'
p3872
stp3873
a(S'of'
p3874
(dp3875
S'NamedEntityTag'
p3876
g96
sS'CharacterOffsetEnd'
p3877
S'995'
p3878
sS'Lemma'
p3879
S'of'
p3880
sS'PartOfSpeech'
p3881
S'IN'
p3882
sS'CharacterOffsetBegin'
p3883
S'993'
p3884
stp3885
a(S'warning'
p3886
(dp3887
S'NamedEntityTag'
p3888
g96
sS'CharacterOffsetEnd'
p3889
S'1003'
p3890
sS'Lemma'
p3891
S'warn'
p3892
sS'PartOfSpeech'
p3893
S'VBG'
p3894
sS'CharacterOffsetBegin'
p3895
S'996'
p3896
stp3897
a(S'for'
p3898
(dp3899
S'NamedEntityTag'
p3900
g96
sS'CharacterOffsetEnd'
p3901
S'1007'
p3902
sS'Lemma'
p3903
S'for'
p3904
sS'PartOfSpeech'
p3905
S'IN'
p3906
sS'CharacterOffsetBegin'
p3907
S'1004'
p3908
stp3909
a(S'him'
p3910
(dp3911
S'NamedEntityTag'
p3912
g96
sS'CharacterOffsetEnd'
p3913
S'1011'
p3914
sS'Lemma'
p3915
S'he'
p3916
sS'PartOfSpeech'
p3917
S'PRP'
p3918
sS'CharacterOffsetBegin'
p3919
S'1008'
p3920
stp3921
a(g192
(dp3922
S'NamedEntityTag'
p3923
g96
sS'CharacterOffsetEnd'
p3924
S'1012'
p3925
sS'Lemma'
p3926
g192
sS'PartOfSpeech'
p3927
g192
sS'CharacterOffsetBegin'
p3928
S'1011'
p3929
stp3930
asa(dp3931
g7
S'(ROOT (S (NP (NP (PRP$ Our) (JJ initial) (NN reaction)) (PP (TO to) (NP (NP (DT some)) (PP (IN of) (NP (NP (DT the) (NN direction) (NNS hes)) (VP (VBG going) (PP (IN in)))))))) (VP (VBZ has) (RB not) (VP (VBN been) (ADJP (RB particularly) (JJ positive) (PRN (, ,) (S (NP (PRP she)) (VP (VBD said) (, ,) (S (VP (VBG adding))))) (, ,)) (SBAR (S (NP (DT The) (NN question)) (ADVP (RB now)) (VP (VBZ is) (SBAR (IN whether) (S (NP (DT that) (NN cooperation)) (VP (MD can) (VP (VB continue))))))))))) (. .)))'
p3932
sg9
S'Our initial reaction to some of the direction hes going in has not been particularly positive, she said, adding, The question now is whether that cooperation can continue.'
p3933
sg11
(lp3934
(S'root'
p3935
S'ROOT'
p3936
S'positive'
p3937
tp3938
a(S'poss'
p3939
S'reaction'
p3940
S'Our'
p3941
tp3942
a(S'amod'
p3943
S'reaction'
p3944
S'initial'
p3945
tp3946
a(S'nsubj'
p3947
S'positive'
p3948
S'reaction'
p3949
tp3950
a(S'prep_to'
p3951
S'reaction'
p3952
S'some'
p3953
tp3954
a(S'det'
p3955
S'hes'
p3956
S'the'
p3957
tp3958
a(S'nn'
p3959
S'hes'
p3960
S'direction'
p3961
tp3962
a(S'prep_of'
p3963
S'some'
p3964
S'hes'
p3965
tp3966
a(S'partmod'
p3967
S'hes'
p3968
S'going'
p3969
tp3970
a(S'prep'
p3971
S'going'
p3972
S'in'
p3973
tp3974
a(S'aux'
p3975
S'positive'
p3976
S'has'
p3977
tp3978
a(S'neg'
p3979
S'positive'
p3980
S'not'
p3981
tp3982
a(S'cop'
p3983
S'positive'
p3984
S'been'
p3985
tp3986
a(S'advmod'
p3987
S'positive'
p3988
S'particularly'
p3989
tp3990
a(S'nsubj'
p3991
S'said'
p3992
S'she'
p3993
tp3994
a(S'dep'
p3995
S'positive'
p3996
S'said'
p3997
tp3998
a(S'xcomp'
p3999
S'said'
p4000
S'adding'
p4001
tp4002
a(S'det'
p4003
S'question'
p4004
S'The'
p4005
tp4006
a(S'nsubj'
p4007
S'is'
p4008
S'question'
p4009
tp4010
a(S'advmod'
p4011
S'is'
p4012
S'now'
p4013
tp4014
a(S'ccomp'
p4015
S'positive'
p4016
S'is'
p4017
tp4018
a(S'mark'
p4019
S'continue'
p4020
S'whether'
p4021
tp4022
a(S'det'
p4023
S'cooperation'
p4024
S'that'
p4025
tp4026
a(S'nsubj'
p4027
S'continue'
p4028
S'cooperation'
p4029
tp4030
a(S'aux'
p4031
S'continue'
p4032
S'can'
p4033
tp4034
a(S'ccomp'
p4035
S'is'
p4036
S'continue'
p4037
tp4038
asg49
(lp4039
(g3935
S'ROOT-0'
p4040
S'positive-16'
p4041
tp4042
a(g3939
S'reaction-3'
p4043
S'Our-1'
p4044
tp4045
a(g3943
S'reaction-3'
p4046
S'initial-2'
p4047
tp4048
a(g3947
S'positive-16'
p4049
S'reaction-3'
p4050
tp4051
a(g3951
S'reaction-3'
p4052
S'some-5'
p4053
tp4054
a(g3955
S'hes-9'
p4055
S'the-7'
p4056
tp4057
a(g3959
S'hes-9'
p4058
S'direction-8'
p4059
tp4060
a(g3963
S'some-5'
p4061
S'hes-9'
p4062
tp4063
a(g3967
S'hes-9'
p4064
S'going-10'
p4065
tp4066
a(g3971
S'going-10'
p4067
S'in-11'
p4068
tp4069
a(g3975
S'positive-16'
p4070
S'has-12'
p4071
tp4072
a(g3979
S'positive-16'
p4073
S'not-13'
p4074
tp4075
a(g3983
S'positive-16'
p4076
S'been-14'
p4077
tp4078
a(g3987
S'positive-16'
p4079
S'particularly-15'
p4080
tp4081
a(g3991
S'said-19'
p4082
S'she-18'
p4083
tp4084
a(g3995
S'positive-16'
p4085
S'said-19'
p4086
tp4087
a(g3999
S'said-19'
p4088
S'adding-21'
p4089
tp4090
a(g4003
S'question-24'
p4091
S'The-23'
p4092
tp4093
a(g4007
S'is-26'
p4094
S'question-24'
p4095
tp4096
a(g4011
S'is-26'
p4097
S'now-25'
p4098
tp4099
a(g4015
S'positive-16'
p4100
S'is-26'
p4101
tp4102
a(g4019
S'continue-31'
p4103
S'whether-27'
p4104
tp4105
a(g4023
S'cooperation-29'
p4106
S'that-28'
p4107
tp4108
a(g4027
S'continue-31'
p4109
S'cooperation-29'
p4110
tp4111
a(g4031
S'continue-31'
p4112
S'can-30'
p4113
tp4114
a(g4035
S'is-26'
p4115
S'continue-31'
p4116
tp4117
asg78
(lp4118
(S'Our'
p4119
(dp4120
S'NamedEntityTag'
p4121
g96
sS'CharacterOffsetEnd'
p4122
S'1016'
p4123
sS'Lemma'
p4124
S'we'
p4125
sS'PartOfSpeech'
p4126
S'PRP$'
p4127
sS'CharacterOffsetBegin'
p4128
S'1013'
p4129
stp4130
a(S'initial'
p4131
(dp4132
S'NamedEntityTag'
p4133
g96
sS'CharacterOffsetEnd'
p4134
S'1024'
p4135
sS'Lemma'
p4136
S'initial'
p4137
sS'PartOfSpeech'
p4138
S'JJ'
p4139
sS'CharacterOffsetBegin'
p4140
S'1017'
p4141
stp4142
a(S'reaction'
p4143
(dp4144
S'NamedEntityTag'
p4145
g96
sS'CharacterOffsetEnd'
p4146
S'1033'
p4147
sS'Lemma'
p4148
S'reaction'
p4149
sS'PartOfSpeech'
p4150
S'NN'
p4151
sS'CharacterOffsetBegin'
p4152
S'1025'
p4153
stp4154
a(S'to'
p4155
(dp4156
S'NamedEntityTag'
p4157
g96
sS'CharacterOffsetEnd'
p4158
S'1036'
p4159
sS'Lemma'
p4160
S'to'
p4161
sS'PartOfSpeech'
p4162
S'TO'
p4163
sS'CharacterOffsetBegin'
p4164
S'1034'
p4165
stp4166
a(S'some'
p4167
(dp4168
S'NamedEntityTag'
p4169
g96
sS'CharacterOffsetEnd'
p4170
S'1041'
p4171
sS'Lemma'
p4172
S'some'
p4173
sS'PartOfSpeech'
p4174
S'DT'
p4175
sS'CharacterOffsetBegin'
p4176
S'1037'
p4177
stp4178
a(S'of'
p4179
(dp4180
S'NamedEntityTag'
p4181
g96
sS'CharacterOffsetEnd'
p4182
S'1044'
p4183
sS'Lemma'
p4184
S'of'
p4185
sS'PartOfSpeech'
p4186
S'IN'
p4187
sS'CharacterOffsetBegin'
p4188
S'1042'
p4189
stp4190
a(S'the'
p4191
(dp4192
S'NamedEntityTag'
p4193
g96
sS'CharacterOffsetEnd'
p4194
S'1048'
p4195
sS'Lemma'
p4196
S'the'
p4197
sS'PartOfSpeech'
p4198
S'DT'
p4199
sS'CharacterOffsetBegin'
p4200
S'1045'
p4201
stp4202
a(S'direction'
p4203
(dp4204
S'NamedEntityTag'
p4205
g96
sS'CharacterOffsetEnd'
p4206
S'1058'
p4207
sS'Lemma'
p4208
S'direction'
p4209
sS'PartOfSpeech'
p4210
S'NN'
p4211
sS'CharacterOffsetBegin'
p4212
S'1049'
p4213
stp4214
a(S'hes'
p4215
(dp4216
S'NamedEntityTag'
p4217
g96
sS'CharacterOffsetEnd'
p4218
S'1062'
p4219
sS'Lemma'
p4220
S'he'
p4221
sS'PartOfSpeech'
p4222
S'NNS'
p4223
sS'CharacterOffsetBegin'
p4224
S'1059'
p4225
stp4226
a(S'going'
p4227
(dp4228
S'NamedEntityTag'
p4229
g96
sS'CharacterOffsetEnd'
p4230
S'1068'
p4231
sS'Lemma'
p4232
S'go'
p4233
sS'PartOfSpeech'
p4234
S'VBG'
p4235
sS'CharacterOffsetBegin'
p4236
S'1063'
p4237
stp4238
a(S'in'
p4239
(dp4240
S'NamedEntityTag'
p4241
g96
sS'CharacterOffsetEnd'
p4242
S'1071'
p4243
sS'Lemma'
p4244
S'in'
p4245
sS'PartOfSpeech'
p4246
S'IN'
p4247
sS'CharacterOffsetBegin'
p4248
S'1069'
p4249
stp4250
a(S'has'
p4251
(dp4252
S'NamedEntityTag'
p4253
g96
sS'CharacterOffsetEnd'
p4254
S'1075'
p4255
sS'Lemma'
p4256
S'have'
p4257
sS'PartOfSpeech'
p4258
S'VBZ'
p4259
sS'CharacterOffsetBegin'
p4260
S'1072'
p4261
stp4262
a(S'not'
p4263
(dp4264
S'NamedEntityTag'
p4265
g96
sS'CharacterOffsetEnd'
p4266
S'1079'
p4267
sS'Lemma'
p4268
S'not'
p4269
sS'PartOfSpeech'
p4270
S'RB'
p4271
sS'CharacterOffsetBegin'
p4272
S'1076'
p4273
stp4274
a(S'been'
p4275
(dp4276
S'NamedEntityTag'
p4277
g96
sS'CharacterOffsetEnd'
p4278
S'1084'
p4279
sS'Lemma'
p4280
S'be'
p4281
sS'PartOfSpeech'
p4282
S'VBN'
p4283
sS'CharacterOffsetBegin'
p4284
S'1080'
p4285
stp4286
a(S'particularly'
p4287
(dp4288
S'NamedEntityTag'
p4289
g96
sS'CharacterOffsetEnd'
p4290
S'1097'
p4291
sS'Lemma'
p4292
S'particularly'
p4293
sS'PartOfSpeech'
p4294
S'RB'
p4295
sS'CharacterOffsetBegin'
p4296
S'1085'
p4297
stp4298
a(S'positive'
p4299
(dp4300
S'NamedEntityTag'
p4301
g96
sS'CharacterOffsetEnd'
p4302
S'1106'
p4303
sS'Lemma'
p4304
S'positive'
p4305
sS'PartOfSpeech'
p4306
S'JJ'
p4307
sS'CharacterOffsetBegin'
p4308
S'1098'
p4309
stp4310
a(g1332
(dp4311
S'NamedEntityTag'
p4312
g96
sS'CharacterOffsetEnd'
p4313
S'1107'
p4314
sS'Lemma'
p4315
g1332
sS'PartOfSpeech'
p4316
g1332
sS'CharacterOffsetBegin'
p4317
S'1106'
p4318
stp4319
a(S'she'
p4320
(dp4321
S'NamedEntityTag'
p4322
g96
sS'CharacterOffsetEnd'
p4323
S'1111'
p4324
sS'Lemma'
p4325
S'she'
p4326
sS'PartOfSpeech'
p4327
S'PRP'
p4328
sS'CharacterOffsetBegin'
p4329
S'1108'
p4330
stp4331
a(S'said'
p4332
(dp4333
S'NamedEntityTag'
p4334
g96
sS'CharacterOffsetEnd'
p4335
S'1116'
p4336
sS'Lemma'
p4337
S'say'
p4338
sS'PartOfSpeech'
p4339
S'VBD'
p4340
sS'CharacterOffsetBegin'
p4341
S'1112'
p4342
stp4343
a(g1332
(dp4344
S'NamedEntityTag'
p4345
g96
sS'CharacterOffsetEnd'
p4346
S'1117'
p4347
sS'Lemma'
p4348
g1332
sS'PartOfSpeech'
p4349
g1332
sS'CharacterOffsetBegin'
p4350
S'1116'
p4351
stp4352
a(S'adding'
p4353
(dp4354
S'NamedEntityTag'
p4355
g96
sS'CharacterOffsetEnd'
p4356
S'1124'
p4357
sS'Lemma'
p4358
S'add'
p4359
sS'PartOfSpeech'
p4360
S'VBG'
p4361
sS'CharacterOffsetBegin'
p4362
S'1118'
p4363
stp4364
a(g1332
(dp4365
S'NamedEntityTag'
p4366
g96
sS'CharacterOffsetEnd'
p4367
S'1125'
p4368
sS'Lemma'
p4369
g1332
sS'PartOfSpeech'
p4370
g1332
sS'CharacterOffsetBegin'
p4371
S'1124'
p4372
stp4373
a(S'The'
p4374
(dp4375
S'NamedEntityTag'
p4376
g96
sS'CharacterOffsetEnd'
p4377
S'1129'
p4378
sS'Lemma'
p4379
S'the'
p4380
sS'PartOfSpeech'
p4381
S'DT'
p4382
sS'CharacterOffsetBegin'
p4383
S'1126'
p4384
stp4385
a(S'question'
p4386
(dp4387
S'NamedEntityTag'
p4388
g96
sS'CharacterOffsetEnd'
p4389
S'1138'
p4390
sS'Lemma'
p4391
S'question'
p4392
sS'PartOfSpeech'
p4393
S'NN'
p4394
sS'CharacterOffsetBegin'
p4395
S'1130'
p4396
stp4397
a(S'now'
p4398
(dp4399
S'NormalizedNamedEntityTag'
p4400
S'PRESENT_REF'
p4401
sS'Timex'
p4402
S'<TIMEX3 tid="t6" type="DATE" value="PRESENT_REF">now</TIMEX3>'
p4403
sS'Lemma'
p4404
S'now'
p4405
sS'CharacterOffsetEnd'
p4406
S'1142'
p4407
sS'PartOfSpeech'
p4408
S'RB'
p4409
sS'CharacterOffsetBegin'
p4410
S'1139'
p4411
sS'NamedEntityTag'
p4412
S'DATE'
p4413
stp4414
a(S'is'
p4415
(dp4416
S'NamedEntityTag'
p4417
g96
sS'CharacterOffsetEnd'
p4418
S'1145'
p4419
sS'Lemma'
p4420
S'be'
p4421
sS'PartOfSpeech'
p4422
S'VBZ'
p4423
sS'CharacterOffsetBegin'
p4424
S'1143'
p4425
stp4426
a(S'whether'
p4427
(dp4428
S'NamedEntityTag'
p4429
g96
sS'CharacterOffsetEnd'
p4430
S'1153'
p4431
sS'Lemma'
p4432
S'whether'
p4433
sS'PartOfSpeech'
p4434
S'IN'
p4435
sS'CharacterOffsetBegin'
p4436
S'1146'
p4437
stp4438
a(S'that'
p4439
(dp4440
S'NamedEntityTag'
p4441
g96
sS'CharacterOffsetEnd'
p4442
S'1158'
p4443
sS'Lemma'
p4444
S'that'
p4445
sS'PartOfSpeech'
p4446
S'DT'
p4447
sS'CharacterOffsetBegin'
p4448
S'1154'
p4449
stp4450
a(S'cooperation'
p4451
(dp4452
S'NamedEntityTag'
p4453
g96
sS'CharacterOffsetEnd'
p4454
S'1170'
p4455
sS'Lemma'
p4456
S'cooperation'
p4457
sS'PartOfSpeech'
p4458
S'NN'
p4459
sS'CharacterOffsetBegin'
p4460
S'1159'
p4461
stp4462
a(S'can'
p4463
(dp4464
S'NamedEntityTag'
p4465
g96
sS'CharacterOffsetEnd'
p4466
S'1174'
p4467
sS'Lemma'
p4468
S'can'
p4469
sS'PartOfSpeech'
p4470
S'MD'
p4471
sS'CharacterOffsetBegin'
p4472
S'1171'
p4473
stp4474
a(S'continue'
p4475
(dp4476
S'NamedEntityTag'
p4477
g96
sS'CharacterOffsetEnd'
p4478
S'1183'
p4479
sS'Lemma'
p4480
S'continue'
p4481
sS'PartOfSpeech'
p4482
S'VB'
p4483
sS'CharacterOffsetBegin'
p4484
S'1175'
p4485
stp4486
a(g192
(dp4487
S'NamedEntityTag'
p4488
g96
sS'CharacterOffsetEnd'
p4489
S'1184'
p4490
sS'Lemma'
p4491
g192
sS'PartOfSpeech'
p4492
g192
sS'CharacterOffsetBegin'
p4493
S'1183'
p4494
stp4495
asa(dp4496
g7
S'(ROOT (S (S (NP (DT The) (NNP United) (NNPS States)) (VP (VP (MD must) (VP (VB keep) (PRT (RP up)) (NP (PRP$ its) (NN aid)) (PP (TO to) (NP (NNP Russia))))) (CC but) (VP (VBZ is) (VP (VBG adjusting) (S (NP (PRP it)) (VP (TO to) (VP (VB promote) (NP (NP (NP (DT the) (NN building)) (PP (IN of) (NP (NP (NN democracy) (CC and) (NN student)) (NNS exchanges)))) (CONJP (RB as) (RB well) (IN as)) (NP (NNS arms) (NN control)))))))))) (, ,) (NP (NNP Albright)) (VP (VBD said)) (. .)))'
p4497
sg9
S'The United States must keep up its aid to Russia but is adjusting it to promote the building of democracy and student exchanges as well as arms control, Albright said.'
p4498
sg11
(lp4499
(S'root'
p4500
S'ROOT'
p4501
S'said'
p4502
tp4503
a(S'det'
p4504
S'States'
p4505
S'The'
p4506
tp4507
a(S'nn'
p4508
S'States'
p4509
S'United'
p4510
tp4511
a(S'nsubj'
p4512
S'keep'
p4513
S'States'
p4514
tp4515
a(S'aux'
p4516
S'keep'
p4517
S'must'
p4518
tp4519
a(S'ccomp'
p4520
S'said'
p4521
S'keep'
p4522
tp4523
a(S'prt'
p4524
S'keep'
p4525
S'up'
p4526
tp4527
a(S'poss'
p4528
S'aid'
p4529
S'its'
p4530
tp4531
a(S'dobj'
p4532
S'keep'
p4533
S'aid'
p4534
tp4535
a(S'prep_to'
p4536
S'keep'
p4537
S'Russia'
p4538
tp4539
a(S'aux'
p4540
S'adjusting'
p4541
S'is'
p4542
tp4543
a(S'conj_but'
p4544
S'keep'
p4545
S'adjusting'
p4546
tp4547
a(S'nsubj'
p4548
S'promote'
p4549
S'it'
p4550
tp4551
a(S'aux'
p4552
S'promote'
p4553
S'to'
p4554
tp4555
a(S'xcomp'
p4556
S'adjusting'
p4557
S'promote'
p4558
tp4559
a(S'det'
p4560
S'building'
p4561
S'the'
p4562
tp4563
a(S'dobj'
p4564
S'promote'
p4565
S'building'
p4566
tp4567
a(S'nn'
p4568
S'exchanges'
p4569
S'democracy'
p4570
tp4571
a(S'conj_and'
p4572
S'democracy'
p4573
S'student'
p4574
tp4575
a(S'prep_of'
p4576
S'building'
p4577
S'exchanges'
p4578
tp4579
a(S'nn'
p4580
S'control'
p4581
S'arms'
p4582
tp4583
a(S'conj_and'
p4584
S'building'
p4585
S'control'
p4586
tp4587
a(S'nsubj'
p4588
S'said'
p4589
S'Albright'
p4590
tp4591
asg49
(lp4592
(g4500
S'ROOT-0'
p4593
S'said-31'
p4594
tp4595
a(g4504
S'States-3'
p4596
S'The-1'
p4597
tp4598
a(g4508
S'States-3'
p4599
S'United-2'
p4600
tp4601
a(g4512
S'keep-5'
p4602
S'States-3'
p4603
tp4604
a(g4516
S'keep-5'
p4605
S'must-4'
p4606
tp4607
a(g4520
S'said-31'
p4608
S'keep-5'
p4609
tp4610
a(g4524
S'keep-5'
p4611
S'up-6'
p4612
tp4613
a(g4528
S'aid-8'
p4614
S'its-7'
p4615
tp4616
a(g4532
S'keep-5'
p4617
S'aid-8'
p4618
tp4619
a(g4536
S'keep-5'
p4620
S'Russia-10'
p4621
tp4622
a(g4540
S'adjusting-13'
p4623
S'is-12'
p4624
tp4625
a(g4544
S'keep-5'
p4626
S'adjusting-13'
p4627
tp4628
a(g4548
S'promote-16'
p4629
S'it-14'
p4630
tp4631
a(g4552
S'promote-16'
p4632
S'to-15'
p4633
tp4634
a(g4556
S'adjusting-13'
p4635
S'promote-16'
p4636
tp4637
a(g4560
S'building-18'
p4638
S'the-17'
p4639
tp4640
a(g4564
S'promote-16'
p4641
S'building-18'
p4642
tp4643
a(g4568
S'exchanges-23'
p4644
S'democracy-20'
p4645
tp4646
a(g4572
S'democracy-20'
p4647
S'student-22'
p4648
tp4649
a(g4576
S'building-18'
p4650
S'exchanges-23'
p4651
tp4652
a(g4580
S'control-28'
p4653
S'arms-27'
p4654
tp4655
a(g4584
S'building-18'
p4656
S'control-28'
p4657
tp4658
a(g4588
S'said-31'
p4659
S'Albright-30'
p4660
tp4661
asg78
(lp4662
(S'The'
p4663
(dp4664
S'NamedEntityTag'
p4665
g96
sS'CharacterOffsetEnd'
p4666
S'1188'
p4667
sS'Lemma'
p4668
S'the'
p4669
sS'PartOfSpeech'
p4670
S'DT'
p4671
sS'CharacterOffsetBegin'
p4672
S'1185'
p4673
stp4674
a(S'United'
p4675
(dp4676
S'NamedEntityTag'
p4677
S'LOCATION'
p4678
sS'CharacterOffsetEnd'
p4679
S'1195'
p4680
sS'Lemma'
p4681
S'United'
p4682
sS'PartOfSpeech'
p4683
S'NNP'
p4684
sS'CharacterOffsetBegin'
p4685
S'1189'
p4686
stp4687
a(S'States'
p4688
(dp4689
S'NamedEntityTag'
p4690
S'LOCATION'
p4691
sS'CharacterOffsetEnd'
p4692
S'1202'
p4693
sS'Lemma'
p4694
S'States'
p4695
sS'PartOfSpeech'
p4696
S'NNPS'
p4697
sS'CharacterOffsetBegin'
p4698
S'1196'
p4699
stp4700
a(S'must'
p4701
(dp4702
S'NamedEntityTag'
p4703
g96
sS'CharacterOffsetEnd'
p4704
S'1207'
p4705
sS'Lemma'
p4706
S'must'
p4707
sS'PartOfSpeech'
p4708
S'MD'
p4709
sS'CharacterOffsetBegin'
p4710
S'1203'
p4711
stp4712
a(S'keep'
p4713
(dp4714
S'NamedEntityTag'
p4715
g96
sS'CharacterOffsetEnd'
p4716
S'1212'
p4717
sS'Lemma'
p4718
S'keep'
p4719
sS'PartOfSpeech'
p4720
S'VB'
p4721
sS'CharacterOffsetBegin'
p4722
S'1208'
p4723
stp4724
a(S'up'
p4725
(dp4726
S'NamedEntityTag'
p4727
g96
sS'CharacterOffsetEnd'
p4728
S'1215'
p4729
sS'Lemma'
p4730
S'up'
p4731
sS'PartOfSpeech'
p4732
S'RP'
p4733
sS'CharacterOffsetBegin'
p4734
S'1213'
p4735
stp4736
a(S'its'
p4737
(dp4738
S'NamedEntityTag'
p4739
g96
sS'CharacterOffsetEnd'
p4740
S'1219'
p4741
sS'Lemma'
p4742
S'its'
p4743
sS'PartOfSpeech'
p4744
S'PRP$'
p4745
sS'CharacterOffsetBegin'
p4746
S'1216'
p4747
stp4748
a(S'aid'
p4749
(dp4750
S'NamedEntityTag'
p4751
g96
sS'CharacterOffsetEnd'
p4752
S'1223'
p4753
sS'Lemma'
p4754
S'aid'
p4755
sS'PartOfSpeech'
p4756
S'NN'
p4757
sS'CharacterOffsetBegin'
p4758
S'1220'
p4759
stp4760
a(S'to'
p4761
(dp4762
S'NamedEntityTag'
p4763
g96
sS'CharacterOffsetEnd'
p4764
S'1226'
p4765
sS'Lemma'
p4766
S'to'
p4767
sS'PartOfSpeech'
p4768
S'TO'
p4769
sS'CharacterOffsetBegin'
p4770
S'1224'
p4771
stp4772
a(S'Russia'
p4773
(dp4774
S'NamedEntityTag'
p4775
S'LOCATION'
p4776
sS'CharacterOffsetEnd'
p4777
S'1233'
p4778
sS'Lemma'
p4779
S'Russia'
p4780
sS'PartOfSpeech'
p4781
S'NNP'
p4782
sS'CharacterOffsetBegin'
p4783
S'1227'
p4784
stp4785
a(S'but'
p4786
(dp4787
S'NamedEntityTag'
p4788
g96
sS'CharacterOffsetEnd'
p4789
S'1237'
p4790
sS'Lemma'
p4791
S'but'
p4792
sS'PartOfSpeech'
p4793
S'CC'
p4794
sS'CharacterOffsetBegin'
p4795
S'1234'
p4796
stp4797
a(S'is'
p4798
(dp4799
S'NamedEntityTag'
p4800
g96
sS'CharacterOffsetEnd'
p4801
S'1240'
p4802
sS'Lemma'
p4803
S'be'
p4804
sS'PartOfSpeech'
p4805
S'VBZ'
p4806
sS'CharacterOffsetBegin'
p4807
S'1238'
p4808
stp4809
a(S'adjusting'
p4810
(dp4811
S'NamedEntityTag'
p4812
g96
sS'CharacterOffsetEnd'
p4813
S'1250'
p4814
sS'Lemma'
p4815
S'adjust'
p4816
sS'PartOfSpeech'
p4817
S'VBG'
p4818
sS'CharacterOffsetBegin'
p4819
S'1241'
p4820
stp4821
a(S'it'
p4822
(dp4823
S'NamedEntityTag'
p4824
g96
sS'CharacterOffsetEnd'
p4825
S'1253'
p4826
sS'Lemma'
p4827
S'it'
p4828
sS'PartOfSpeech'
p4829
S'PRP'
p4830
sS'CharacterOffsetBegin'
p4831
S'1251'
p4832
stp4833
a(S'to'
p4834
(dp4835
S'NamedEntityTag'
p4836
g96
sS'CharacterOffsetEnd'
p4837
S'1256'
p4838
sS'Lemma'
p4839
S'to'
p4840
sS'PartOfSpeech'
p4841
S'TO'
p4842
sS'CharacterOffsetBegin'
p4843
S'1254'
p4844
stp4845
a(S'promote'
p4846
(dp4847
S'NamedEntityTag'
p4848
g96
sS'CharacterOffsetEnd'
p4849
S'1264'
p4850
sS'Lemma'
p4851
S'promote'
p4852
sS'PartOfSpeech'
p4853
S'VB'
p4854
sS'CharacterOffsetBegin'
p4855
S'1257'
p4856
stp4857
a(S'the'
p4858
(dp4859
S'NamedEntityTag'
p4860
g96
sS'CharacterOffsetEnd'
p4861
S'1268'
p4862
sS'Lemma'
p4863
S'the'
p4864
sS'PartOfSpeech'
p4865
S'DT'
p4866
sS'CharacterOffsetBegin'
p4867
S'1265'
p4868
stp4869
a(S'building'
p4870
(dp4871
S'NamedEntityTag'
p4872
g96
sS'CharacterOffsetEnd'
p4873
S'1277'
p4874
sS'Lemma'
p4875
S'building'
p4876
sS'PartOfSpeech'
p4877
S'NN'
p4878
sS'CharacterOffsetBegin'
p4879
S'1269'
p4880
stp4881
a(S'of'
p4882
(dp4883
S'NamedEntityTag'
p4884
g96
sS'CharacterOffsetEnd'
p4885
S'1280'
p4886
sS'Lemma'
p4887
S'of'
p4888
sS'PartOfSpeech'
p4889
S'IN'
p4890
sS'CharacterOffsetBegin'
p4891
S'1278'
p4892
stp4893
a(S'democracy'
p4894
(dp4895
S'NamedEntityTag'
p4896
g96
sS'CharacterOffsetEnd'
p4897
S'1290'
p4898
sS'Lemma'
p4899
S'democracy'
p4900
sS'PartOfSpeech'
p4901
S'NN'
p4902
sS'CharacterOffsetBegin'
p4903
S'1281'
p4904
stp4905
a(S'and'
p4906
(dp4907
S'NamedEntityTag'
p4908
g96
sS'CharacterOffsetEnd'
p4909
S'1294'
p4910
sS'Lemma'
p4911
S'and'
p4912
sS'PartOfSpeech'
p4913
S'CC'
p4914
sS'CharacterOffsetBegin'
p4915
S'1291'
p4916
stp4917
a(S'student'
p4918
(dp4919
S'NamedEntityTag'
p4920
g96
sS'CharacterOffsetEnd'
p4921
S'1302'
p4922
sS'Lemma'
p4923
S'student'
p4924
sS'PartOfSpeech'
p4925
S'NN'
p4926
sS'CharacterOffsetBegin'
p4927
S'1295'
p4928
stp4929
a(S'exchanges'
p4930
(dp4931
S'NamedEntityTag'
p4932
g96
sS'CharacterOffsetEnd'
p4933
S'1312'
p4934
sS'Lemma'
p4935
S'exchange'
p4936
sS'PartOfSpeech'
p4937
S'NNS'
p4938
sS'CharacterOffsetBegin'
p4939
S'1303'
p4940
stp4941
a(S'as'
p4942
(dp4943
S'NamedEntityTag'
p4944
g96
sS'CharacterOffsetEnd'
p4945
S'1315'
p4946
sS'Lemma'
p4947
S'as'
p4948
sS'PartOfSpeech'
p4949
S'RB'
p4950
sS'CharacterOffsetBegin'
p4951
S'1313'
p4952
stp4953
a(S'well'
p4954
(dp4955
S'NamedEntityTag'
p4956
g96
sS'CharacterOffsetEnd'
p4957
S'1320'
p4958
sS'Lemma'
p4959
S'well'
p4960
sS'PartOfSpeech'
p4961
S'RB'
p4962
sS'CharacterOffsetBegin'
p4963
S'1316'
p4964
stp4965
a(S'as'
p4966
(dp4967
S'NamedEntityTag'
p4968
g96
sS'CharacterOffsetEnd'
p4969
S'1323'
p4970
sS'Lemma'
p4971
S'as'
p4972
sS'PartOfSpeech'
p4973
S'IN'
p4974
sS'CharacterOffsetBegin'
p4975
S'1321'
p4976
stp4977
a(S'arms'
p4978
(dp4979
S'NamedEntityTag'
p4980
g96
sS'CharacterOffsetEnd'
p4981
S'1328'
p4982
sS'Lemma'
p4983
S'arm'
p4984
sS'PartOfSpeech'
p4985
S'NNS'
p4986
sS'CharacterOffsetBegin'
p4987
S'1324'
p4988
stp4989
a(S'control'
p4990
(dp4991
S'NamedEntityTag'
p4992
g96
sS'CharacterOffsetEnd'
p4993
S'1336'
p4994
sS'Lemma'
p4995
S'control'
p4996
sS'PartOfSpeech'
p4997
S'NN'
p4998
sS'CharacterOffsetBegin'
p4999
S'1329'
p5000
stp5001
a(g1332
(dp5002
S'NamedEntityTag'
p5003
g96
sS'CharacterOffsetEnd'
p5004
S'1337'
p5005
sS'Lemma'
p5006
g1332
sS'PartOfSpeech'
p5007
g1332
sS'CharacterOffsetBegin'
p5008
S'1336'
p5009
stp5010
a(S'Albright'
p5011
(dp5012
S'NamedEntityTag'
p5013
S'PERSON'
p5014
sS'CharacterOffsetEnd'
p5015
S'1346'
p5016
sS'Lemma'
p5017
S'Albright'
p5018
sS'PartOfSpeech'
p5019
S'NNP'
p5020
sS'CharacterOffsetBegin'
p5021
S'1338'
p5022
stp5023
a(S'said'
p5024
(dp5025
S'NamedEntityTag'
p5026
g96
sS'CharacterOffsetEnd'
p5027
S'1351'
p5028
sS'Lemma'
p5029
S'say'
p5030
sS'PartOfSpeech'
p5031
S'VBD'
p5032
sS'CharacterOffsetBegin'
p5033
S'1347'
p5034
stp5035
a(g192
(dp5036
S'NamedEntityTag'
p5037
g96
sS'CharacterOffsetEnd'
p5038
S'1352'
p5039
sS'Lemma'
p5040
g192
sS'PartOfSpeech'
p5041
g192
sS'CharacterOffsetBegin'
p5042
S'1351'
p5043
stp5044
asa(dp5045
g7
S'(ROOT (S (NP (NNP Washington)) (VP (VBZ does) (RB not) (VP (VB favor) (NP (JJR more) (JJ direct) (NN aid)))) (. .)))'
p5046
sg9
S'Washington does not favor more direct aid.'
p5047
sg11
(lp5048
(S'root'
p5049
S'ROOT'
p5050
S'favor'
p5051
tp5052
a(S'nsubj'
p5053
S'favor'
p5054
S'Washington'
p5055
tp5056
a(S'aux'
p5057
S'favor'
p5058
S'does'
p5059
tp5060
a(S'neg'
p5061
S'favor'
p5062
S'not'
p5063
tp5064
a(S'amod'
p5065
S'aid'
p5066
S'more'
p5067
tp5068
a(S'amod'
p5069
S'aid'
p5070
S'direct'
p5071
tp5072
a(S'dobj'
p5073
S'favor'
p5074
S'aid'
p5075
tp5076
asg49
(lp5077
(g5049
S'ROOT-0'
p5078
S'favor-4'
p5079
tp5080
a(g5053
S'favor-4'
p5081
S'Washington-1'
p5082
tp5083
a(g5057
S'favor-4'
p5084
S'does-2'
p5085
tp5086
a(g5061
S'favor-4'
p5087
S'not-3'
p5088
tp5089
a(g5065
S'aid-7'
p5090
S'more-5'
p5091
tp5092
a(g5069
S'aid-7'
p5093
S'direct-6'
p5094
tp5095
a(g5073
S'favor-4'
p5096
S'aid-7'
p5097
tp5098
asg78
(lp5099
(S'Washington'
p5100
(dp5101
S'NamedEntityTag'
p5102
S'LOCATION'
p5103
sS'CharacterOffsetEnd'
p5104
S'1363'
p5105
sS'Lemma'
p5106
S'Washington'
p5107
sS'PartOfSpeech'
p5108
S'NNP'
p5109
sS'CharacterOffsetBegin'
p5110
S'1353'
p5111
stp5112
a(S'does'
p5113
(dp5114
S'NamedEntityTag'
p5115
g96
sS'CharacterOffsetEnd'
p5116
S'1368'
p5117
sS'Lemma'
p5118
S'do'
p5119
sS'PartOfSpeech'
p5120
S'VBZ'
p5121
sS'CharacterOffsetBegin'
p5122
S'1364'
p5123
stp5124
a(S'not'
p5125
(dp5126
S'NamedEntityTag'
p5127
g96
sS'CharacterOffsetEnd'
p5128
S'1372'
p5129
sS'Lemma'
p5130
S'not'
p5131
sS'PartOfSpeech'
p5132
S'RB'
p5133
sS'CharacterOffsetBegin'
p5134
S'1369'
p5135
stp5136
a(S'favor'
p5137
(dp5138
S'NamedEntityTag'
p5139
g96
sS'CharacterOffsetEnd'
p5140
S'1378'
p5141
sS'Lemma'
p5142
S'favor'
p5143
sS'PartOfSpeech'
p5144
S'VB'
p5145
sS'CharacterOffsetBegin'
p5146
S'1373'
p5147
stp5148
a(S'more'
p5149
(dp5150
S'NamedEntityTag'
p5151
g96
sS'CharacterOffsetEnd'
p5152
S'1383'
p5153
sS'Lemma'
p5154
S'more'
p5155
sS'PartOfSpeech'
p5156
S'JJR'
p5157
sS'CharacterOffsetBegin'
p5158
S'1379'
p5159
stp5160
a(S'direct'
p5161
(dp5162
S'NamedEntityTag'
p5163
g96
sS'CharacterOffsetEnd'
p5164
S'1390'
p5165
sS'Lemma'
p5166
S'direct'
p5167
sS'PartOfSpeech'
p5168
S'JJ'
p5169
sS'CharacterOffsetBegin'
p5170
S'1384'
p5171
stp5172
a(S'aid'
p5173
(dp5174
S'NamedEntityTag'
p5175
g96
sS'CharacterOffsetEnd'
p5176
S'1394'
p5177
sS'Lemma'
p5178
S'aid'
p5179
sS'PartOfSpeech'
p5180
S'NN'
p5181
sS'CharacterOffsetBegin'
p5182
S'1391'
p5183
stp5184
a(g192
(dp5185
S'NamedEntityTag'
p5186
g96
sS'CharacterOffsetEnd'
p5187
S'1395'
p5188
sS'Lemma'
p5189
g192
sS'PartOfSpeech'
p5190
g192
sS'CharacterOffsetBegin'
p5191
S'1394'
p5192
stp5193
asa(dp5194
g7
S'(ROOT (S (S (NP (JJR More) (JJ big) (NNS bailouts)) (VP (VBP are) (RB not) (PP (IN by) (S (NP (PRP themselves)) (VP (VBG going) (S (VP (TO to) (VP (VB restore) (NP (NN investor) (NN confidence)) (PP (IN in) (NP (NNP Russia))))))))))) (, ,) (NP (PRP she)) (VP (VBD said)) (. .)))'
p5195
sg9
S'More big bailouts are not by themselves going to restore investor confidence in Russia, she said.'
p5196
sg11
(lp5197
(S'root'
p5198
S'ROOT'
p5199
S'said'
p5200
tp5201
a(S'amod'
p5202
S'bailouts'
p5203
S'More'
p5204
tp5205
a(S'amod'
p5206
S'bailouts'
p5207
S'big'
p5208
tp5209
a(S'nsubj'
p5210
S'are'
p5211
S'bailouts'
p5212
tp5213
a(S'ccomp'
p5214
S'said'
p5215
S'are'
p5216
tp5217
a(S'neg'
p5218
S'are'
p5219
S'not'
p5220
tp5221
a(S'nsubj'
p5222
S'going'
p5223
S'themselves'
p5224
tp5225
a(S'prepc_by'
p5226
S'are'
p5227
S'going'
p5228
tp5229
a(S'aux'
p5230
S'restore'
p5231
S'to'
p5232
tp5233
a(S'xcomp'
p5234
S'going'
p5235
S'restore'
p5236
tp5237
a(S'nn'
p5238
S'confidence'
p5239
S'investor'
p5240
tp5241
a(S'dobj'
p5242
S'restore'
p5243
S'confidence'
p5244
tp5245
a(S'prep_in'
p5246
S'restore'
p5247
S'Russia'
p5248
tp5249
a(S'nsubj'
p5250
S'said'
p5251
S'she'
p5252
tp5253
asg49
(lp5254
(g5198
S'ROOT-0'
p5255
S'said-17'
p5256
tp5257
a(g5202
S'bailouts-3'
p5258
S'More-1'
p5259
tp5260
a(g5206
S'bailouts-3'
p5261
S'big-2'
p5262
tp5263
a(g5210
S'are-4'
p5264
S'bailouts-3'
p5265
tp5266
a(g5214
S'said-17'
p5267
S'are-4'
p5268
tp5269
a(g5218
S'are-4'
p5270
S'not-5'
p5271
tp5272
a(g5222
S'going-8'
p5273
S'themselves-7'
p5274
tp5275
a(g5226
S'are-4'
p5276
S'going-8'
p5277
tp5278
a(g5230
S'restore-10'
p5279
S'to-9'
p5280
tp5281
a(g5234
S'going-8'
p5282
S'restore-10'
p5283
tp5284
a(g5238
S'confidence-12'
p5285
S'investor-11'
p5286
tp5287
a(g5242
S'restore-10'
p5288
S'confidence-12'
p5289
tp5290
a(g5246
S'restore-10'
p5291
S'Russia-14'
p5292
tp5293
a(g5250
S'said-17'
p5294
S'she-16'
p5295
tp5296
asg78
(lp5297
(S'More'
p5298
(dp5299
S'NamedEntityTag'
p5300
g96
sS'CharacterOffsetEnd'
p5301
S'1400'
p5302
sS'Lemma'
p5303
S'more'
p5304
sS'PartOfSpeech'
p5305
S'JJR'
p5306
sS'CharacterOffsetBegin'
p5307
S'1396'
p5308
stp5309
a(S'big'
p5310
(dp5311
S'NamedEntityTag'
p5312
g96
sS'CharacterOffsetEnd'
p5313
S'1404'
p5314
sS'Lemma'
p5315
S'big'
p5316
sS'PartOfSpeech'
p5317
S'JJ'
p5318
sS'CharacterOffsetBegin'
p5319
S'1401'
p5320
stp5321
a(S'bailouts'
p5322
(dp5323
S'NamedEntityTag'
p5324
g96
sS'CharacterOffsetEnd'
p5325
S'1413'
p5326
sS'Lemma'
p5327
S'bailout'
p5328
sS'PartOfSpeech'
p5329
S'NNS'
p5330
sS'CharacterOffsetBegin'
p5331
S'1405'
p5332
stp5333
a(S'are'
p5334
(dp5335
S'NamedEntityTag'
p5336
g96
sS'CharacterOffsetEnd'
p5337
S'1417'
p5338
sS'Lemma'
p5339
S'be'
p5340
sS'PartOfSpeech'
p5341
S'VBP'
p5342
sS'CharacterOffsetBegin'
p5343
S'1414'
p5344
stp5345
a(S'not'
p5346
(dp5347
S'NamedEntityTag'
p5348
g96
sS'CharacterOffsetEnd'
p5349
S'1421'
p5350
sS'Lemma'
p5351
S'not'
p5352
sS'PartOfSpeech'
p5353
S'RB'
p5354
sS'CharacterOffsetBegin'
p5355
S'1418'
p5356
stp5357
a(S'by'
p5358
(dp5359
S'NamedEntityTag'
p5360
g96
sS'CharacterOffsetEnd'
p5361
S'1424'
p5362
sS'Lemma'
p5363
S'by'
p5364
sS'PartOfSpeech'
p5365
S'IN'
p5366
sS'CharacterOffsetBegin'
p5367
S'1422'
p5368
stp5369
a(S'themselves'
p5370
(dp5371
S'NamedEntityTag'
p5372
g96
sS'CharacterOffsetEnd'
p5373
S'1435'
p5374
sS'Lemma'
p5375
S'themselves'
p5376
sS'PartOfSpeech'
p5377
S'PRP'
p5378
sS'CharacterOffsetBegin'
p5379
S'1425'
p5380
stp5381
a(S'going'
p5382
(dp5383
S'NamedEntityTag'
p5384
g96
sS'CharacterOffsetEnd'
p5385
S'1441'
p5386
sS'Lemma'
p5387
S'go'
p5388
sS'PartOfSpeech'
p5389
S'VBG'
p5390
sS'CharacterOffsetBegin'
p5391
S'1436'
p5392
stp5393
a(S'to'
p5394
(dp5395
S'NamedEntityTag'
p5396
g96
sS'CharacterOffsetEnd'
p5397
S'1444'
p5398
sS'Lemma'
p5399
S'to'
p5400
sS'PartOfSpeech'
p5401
S'TO'
p5402
sS'CharacterOffsetBegin'
p5403
S'1442'
p5404
stp5405
a(S'restore'
p5406
(dp5407
S'NamedEntityTag'
p5408
g96
sS'CharacterOffsetEnd'
p5409
S'1452'
p5410
sS'Lemma'
p5411
S'restore'
p5412
sS'PartOfSpeech'
p5413
S'VB'
p5414
sS'CharacterOffsetBegin'
p5415
S'1445'
p5416
stp5417
a(S'investor'
p5418
(dp5419
S'NamedEntityTag'
p5420
g96
sS'CharacterOffsetEnd'
p5421
S'1461'
p5422
sS'Lemma'
p5423
S'investor'
p5424
sS'PartOfSpeech'
p5425
S'NN'
p5426
sS'CharacterOffsetBegin'
p5427
S'1453'
p5428
stp5429
a(S'confidence'
p5430
(dp5431
S'NamedEntityTag'
p5432
g96
sS'CharacterOffsetEnd'
p5433
S'1472'
p5434
sS'Lemma'
p5435
S'confidence'
p5436
sS'PartOfSpeech'
p5437
S'NN'
p5438
sS'CharacterOffsetBegin'
p5439
S'1462'
p5440
stp5441
a(S'in'
p5442
(dp5443
S'NamedEntityTag'
p5444
g96
sS'CharacterOffsetEnd'
p5445
S'1475'
p5446
sS'Lemma'
p5447
S'in'
p5448
sS'PartOfSpeech'
p5449
S'IN'
p5450
sS'CharacterOffsetBegin'
p5451
S'1473'
p5452
stp5453
a(S'Russia'
p5454
(dp5455
S'NamedEntityTag'
p5456
S'LOCATION'
p5457
sS'CharacterOffsetEnd'
p5458
S'1482'
p5459
sS'Lemma'
p5460
S'Russia'
p5461
sS'PartOfSpeech'
p5462
S'NNP'
p5463
sS'CharacterOffsetBegin'
p5464
S'1476'
p5465
stp5466
a(g1332
(dp5467
S'NamedEntityTag'
p5468
g96
sS'CharacterOffsetEnd'
p5469
S'1483'
p5470
sS'Lemma'
p5471
g1332
sS'PartOfSpeech'
p5472
g1332
sS'CharacterOffsetBegin'
p5473
S'1482'
p5474
stp5475
a(S'she'
p5476
(dp5477
S'NamedEntityTag'
p5478
g96
sS'CharacterOffsetEnd'
p5479
S'1487'
p5480
sS'Lemma'
p5481
S'she'
p5482
sS'PartOfSpeech'
p5483
S'PRP'
p5484
sS'CharacterOffsetBegin'
p5485
S'1484'
p5486
stp5487
a(S'said'
p5488
(dp5489
S'NamedEntityTag'
p5490
g96
sS'CharacterOffsetEnd'
p5491
S'1492'
p5492
sS'Lemma'
p5493
S'say'
p5494
sS'PartOfSpeech'
p5495
S'VBD'
p5496
sS'CharacterOffsetBegin'
p5497
S'1488'
p5498
stp5499
a(g192
(dp5500
S'NamedEntityTag'
p5501
g96
sS'CharacterOffsetEnd'
p5502
S'1493'
p5503
sS'Lemma'
p5504
g192
sS'PartOfSpeech'
p5505
g192
sS'CharacterOffsetBegin'
p5506
S'1492'
p5507
stp5508
asa(dp5509
g7
S'(ROOT (S (PP (IN In) (NP (DT the) (JJ long) (NN run))) (, ,) (NP (NP (DT the) (NN gap)) (PP (IN between) (NP (NP (NNP Russias) (NNS needs)) (CC and) (NP (PRP$ its) (NNS resources))))) (VP (MD must) (VP (VB be) (VP (VBN met) (PP (RB not) (PP (IN by) (NP (JJ foreign) (NNS bailouts))) (CC but) (PP (IN by) (NP (JJ foreign) (NN investment))))))) (. .)))'
p5510
sg9
S'In the long run, the gap between Russias needs and its resources must be met not by foreign bailouts but by foreign investment.'
p5511
sg11
(lp5512
(S'root'
p5513
S'ROOT'
p5514
S'met'
p5515
tp5516
a(S'det'
p5517
S'run'
p5518
S'the'
p5519
tp5520
a(S'amod'
p5521
S'run'
p5522
S'long'
p5523
tp5524
a(S'prep_in'
p5525
S'met'
p5526
S'run'
p5527
tp5528
a(S'det'
p5529
S'gap'
p5530
S'the'
p5531
tp5532
a(S'nsubjpass'
p5533
S'met'
p5534
S'gap'
p5535
tp5536
a(S'nn'
p5537
S'needs'
p5538
S'Russias'
p5539
tp5540
a(S'prep_between'
p5541
S'gap'
p5542
S'needs'
p5543
tp5544
a(S'poss'
p5545
S'resources'
p5546
S'its'
p5547
tp5548
a(S'conj_and'
p5549
S'needs'
p5550
S'resources'
p5551
tp5552
a(S'aux'
p5553
S'met'
p5554
S'must'
p5555
tp5556
a(S'auxpass'
p5557
S'met'
p5558
S'be'
p5559
tp5560
a(S'neg'
p5561
S'met'
p5562
S'not'
p5563
tp5564
a(S'amod'
p5565
S'bailouts'
p5566
S'foreign'
p5567
tp5568
a(S'agent'
p5569
S'met'
p5570
S'bailouts'
p5571
tp5572
a(S'amod'
p5573
S'investment'
p5574
S'foreign'
p5575
tp5576
a(S'conj_but'
p5577
S'bailouts'
p5578
S'investment'
p5579
tp5580
asg49
(lp5581
(g5513
S'ROOT-0'
p5582
S'met-16'
p5583
tp5584
a(g5517
S'run-4'
p5585
S'the-2'
p5586
tp5587
a(g5521
S'run-4'
p5588
S'long-3'
p5589
tp5590
a(g5525
S'met-16'
p5591
S'run-4'
p5592
tp5593
a(g5529
S'gap-7'
p5594
S'the-6'
p5595
tp5596
a(g5533
S'met-16'
p5597
S'gap-7'
p5598
tp5599
a(g5537
S'needs-10'
p5600
S'Russias-9'
p5601
tp5602
a(g5541
S'gap-7'
p5603
S'needs-10'
p5604
tp5605
a(g5545
S'resources-13'
p5606
S'its-12'
p5607
tp5608
a(g5549
S'needs-10'
p5609
S'resources-13'
p5610
tp5611
a(g5553
S'met-16'
p5612
S'must-14'
p5613
tp5614
a(g5557
S'met-16'
p5615
S'be-15'
p5616
tp5617
a(g5561
S'met-16'
p5618
S'not-17'
p5619
tp5620
a(g5565
S'bailouts-20'
p5621
S'foreign-19'
p5622
tp5623
a(g5569
S'met-16'
p5624
S'bailouts-20'
p5625
tp5626
a(g5573
S'investment-24'
p5627
S'foreign-23'
p5628
tp5629
a(g5577
S'bailouts-20'
p5630
S'investment-24'
p5631
tp5632
asg78
(lp5633
(S'In'
p5634
(dp5635
S'NamedEntityTag'
p5636
g96
sS'CharacterOffsetEnd'
p5637
S'1496'
p5638
sS'Lemma'
p5639
S'in'
p5640
sS'PartOfSpeech'
p5641
S'IN'
p5642
sS'CharacterOffsetBegin'
p5643
S'1494'
p5644
stp5645
a(S'the'
p5646
(dp5647
S'NamedEntityTag'
p5648
g96
sS'CharacterOffsetEnd'
p5649
S'1500'
p5650
sS'Lemma'
p5651
S'the'
p5652
sS'PartOfSpeech'
p5653
S'DT'
p5654
sS'CharacterOffsetBegin'
p5655
S'1497'
p5656
stp5657
a(S'long'
p5658
(dp5659
S'NamedEntityTag'
p5660
g96
sS'CharacterOffsetEnd'
p5661
S'1505'
p5662
sS'Lemma'
p5663
S'long'
p5664
sS'PartOfSpeech'
p5665
S'JJ'
p5666
sS'CharacterOffsetBegin'
p5667
S'1501'
p5668
stp5669
a(S'run'
p5670
(dp5671
S'NamedEntityTag'
p5672
g96
sS'CharacterOffsetEnd'
p5673
S'1509'
p5674
sS'Lemma'
p5675
S'run'
p5676
sS'PartOfSpeech'
p5677
S'NN'
p5678
sS'CharacterOffsetBegin'
p5679
S'1506'
p5680
stp5681
a(g1332
(dp5682
S'NamedEntityTag'
p5683
g96
sS'CharacterOffsetEnd'
p5684
S'1510'
p5685
sS'Lemma'
p5686
g1332
sS'PartOfSpeech'
p5687
g1332
sS'CharacterOffsetBegin'
p5688
S'1509'
p5689
stp5690
a(S'the'
p5691
(dp5692
S'NamedEntityTag'
p5693
g96
sS'CharacterOffsetEnd'
p5694
S'1514'
p5695
sS'Lemma'
p5696
S'the'
p5697
sS'PartOfSpeech'
p5698
S'DT'
p5699
sS'CharacterOffsetBegin'
p5700
S'1511'
p5701
stp5702
a(S'gap'
p5703
(dp5704
S'NamedEntityTag'
p5705
g96
sS'CharacterOffsetEnd'
p5706
S'1518'
p5707
sS'Lemma'
p5708
S'gap'
p5709
sS'PartOfSpeech'
p5710
S'NN'
p5711
sS'CharacterOffsetBegin'
p5712
S'1515'
p5713
stp5714
a(S'between'
p5715
(dp5716
S'NamedEntityTag'
p5717
g96
sS'CharacterOffsetEnd'
p5718
S'1526'
p5719
sS'Lemma'
p5720
S'between'
p5721
sS'PartOfSpeech'
p5722
S'IN'
p5723
sS'CharacterOffsetBegin'
p5724
S'1519'
p5725
stp5726
a(S'Russias'
p5727
(dp5728
S'NamedEntityTag'
p5729
S'MISC'
p5730
sS'CharacterOffsetEnd'
p5731
S'1534'
p5732
sS'Lemma'
p5733
S'Russias'
p5734
sS'PartOfSpeech'
p5735
S'NNP'
p5736
sS'CharacterOffsetBegin'
p5737
S'1527'
p5738
stp5739
a(S'needs'
p5740
(dp5741
S'NamedEntityTag'
p5742
g96
sS'CharacterOffsetEnd'
p5743
S'1540'
p5744
sS'Lemma'
p5745
S'need'
p5746
sS'PartOfSpeech'
p5747
S'NNS'
p5748
sS'CharacterOffsetBegin'
p5749
S'1535'
p5750
stp5751
a(S'and'
p5752
(dp5753
S'NamedEntityTag'
p5754
g96
sS'CharacterOffsetEnd'
p5755
S'1544'
p5756
sS'Lemma'
p5757
S'and'
p5758
sS'PartOfSpeech'
p5759
S'CC'
p5760
sS'CharacterOffsetBegin'
p5761
S'1541'
p5762
stp5763
a(S'its'
p5764
(dp5765
S'NamedEntityTag'
p5766
g96
sS'CharacterOffsetEnd'
p5767
S'1548'
p5768
sS'Lemma'
p5769
S'its'
p5770
sS'PartOfSpeech'
p5771
S'PRP$'
p5772
sS'CharacterOffsetBegin'
p5773
S'1545'
p5774
stp5775
a(S'resources'
p5776
(dp5777
S'NamedEntityTag'
p5778
g96
sS'CharacterOffsetEnd'
p5779
S'1558'
p5780
sS'Lemma'
p5781
S'resource'
p5782
sS'PartOfSpeech'
p5783
S'NNS'
p5784
sS'CharacterOffsetBegin'
p5785
S'1549'
p5786
stp5787
a(S'must'
p5788
(dp5789
S'NamedEntityTag'
p5790
g96
sS'CharacterOffsetEnd'
p5791
S'1563'
p5792
sS'Lemma'
p5793
S'must'
p5794
sS'PartOfSpeech'
p5795
S'MD'
p5796
sS'CharacterOffsetBegin'
p5797
S'1559'
p5798
stp5799
a(S'be'
p5800
(dp5801
S'NamedEntityTag'
p5802
g96
sS'CharacterOffsetEnd'
p5803
S'1566'
p5804
sS'Lemma'
p5805
S'be'
p5806
sS'PartOfSpeech'
p5807
S'VB'
p5808
sS'CharacterOffsetBegin'
p5809
S'1564'
p5810
stp5811
a(S'met'
p5812
(dp5813
S'NamedEntityTag'
p5814
g96
sS'CharacterOffsetEnd'
p5815
S'1570'
p5816
sS'Lemma'
p5817
S'meet'
p5818
sS'PartOfSpeech'
p5819
S'VBN'
p5820
sS'CharacterOffsetBegin'
p5821
S'1567'
p5822
stp5823
a(S'not'
p5824
(dp5825
S'NamedEntityTag'
p5826
g96
sS'CharacterOffsetEnd'
p5827
S'1574'
p5828
sS'Lemma'
p5829
S'not'
p5830
sS'PartOfSpeech'
p5831
S'RB'
p5832
sS'CharacterOffsetBegin'
p5833
S'1571'
p5834
stp5835
a(S'by'
p5836
(dp5837
S'NamedEntityTag'
p5838
g96
sS'CharacterOffsetEnd'
p5839
S'1577'
p5840
sS'Lemma'
p5841
S'by'
p5842
sS'PartOfSpeech'
p5843
S'IN'
p5844
sS'CharacterOffsetBegin'
p5845
S'1575'
p5846
stp5847
a(S'foreign'
p5848
(dp5849
S'NamedEntityTag'
p5850
g96
sS'CharacterOffsetEnd'
p5851
S'1585'
p5852
sS'Lemma'
p5853
S'foreign'
p5854
sS'PartOfSpeech'
p5855
S'JJ'
p5856
sS'CharacterOffsetBegin'
p5857
S'1578'
p5858
stp5859
a(S'bailouts'
p5860
(dp5861
S'NamedEntityTag'
p5862
g96
sS'CharacterOffsetEnd'
p5863
S'1594'
p5864
sS'Lemma'
p5865
S'bailout'
p5866
sS'PartOfSpeech'
p5867
S'NNS'
p5868
sS'CharacterOffsetBegin'
p5869
S'1586'
p5870
stp5871
a(S'but'
p5872
(dp5873
S'NamedEntityTag'
p5874
g96
sS'CharacterOffsetEnd'
p5875
S'1598'
p5876
sS'Lemma'
p5877
S'but'
p5878
sS'PartOfSpeech'
p5879
S'CC'
p5880
sS'CharacterOffsetBegin'
p5881
S'1595'
p5882
stp5883
a(S'by'
p5884
(dp5885
S'NamedEntityTag'
p5886
g96
sS'CharacterOffsetEnd'
p5887
S'1601'
p5888
sS'Lemma'
p5889
S'by'
p5890
sS'PartOfSpeech'
p5891
S'IN'
p5892
sS'CharacterOffsetBegin'
p5893
S'1599'
p5894
stp5895
a(S'foreign'
p5896
(dp5897
S'NamedEntityTag'
p5898
g96
sS'CharacterOffsetEnd'
p5899
S'1609'
p5900
sS'Lemma'
p5901
S'foreign'
p5902
sS'PartOfSpeech'
p5903
S'JJ'
p5904
sS'CharacterOffsetBegin'
p5905
S'1602'
p5906
stp5907
a(S'investment'
p5908
(dp5909
S'NamedEntityTag'
p5910
g96
sS'CharacterOffsetEnd'
p5911
S'1620'
p5912
sS'Lemma'
p5913
S'investment'
p5914
sS'PartOfSpeech'
p5915
S'NN'
p5916
sS'CharacterOffsetBegin'
p5917
S'1610'
p5918
stp5919
a(g192
(dp5920
S'NamedEntityTag'
p5921
g96
sS'CharacterOffsetEnd'
p5922
S'1621'
p5923
sS'Lemma'
p5924
g192
sS'PartOfSpeech'
p5925
g192
sS'CharacterOffsetBegin'
p5926
S'1620'
p5927
stp5928
asa(dp5929
g7
S'(ROOT (S (NP (NNP Albright)) (ADVP (RB sharply)) (VP (VBD criticized) (PP (IN as) (NP (JJ self-defeating))) (NP (NP (DT the) (JJ many) (NNS voices)) (PP (IN in) (NP (NNP Russia))) (SBAR (WHNP (WP who)) (S (VP (VBP want) (S (VP (TO to) (VP (VB shift) (NP (NP (DT the) (NN emphasis)) (PP (IN in) (NP (NNP Russias) (NN interaction)))) (PP (IN with) (NP (NP (NNP America)) (CC and) (NP (PRP$ our) (NNS allies)))) (PP (IN from) (NP (NP (CD one)) (PP (IN of) (NP (NN partnership))))) (PP (TO to) (NP (NP (CD one)) (PP (IN of) (NP (NN assertiveness) (, ,) (NN opposition) (CC and) (NN defiance))) (PP (IN for) (NP (PRP$ its) (JJ own) (NN stake))))))))))))) (. .)))'
p5930
sg9
S'Albright sharply criticized as self-defeating the many voices in Russia who want to shift the emphasis in Russias interaction with America and our allies from one of partnership to one of assertiveness, opposition and defiance for its own stake.'
p5931
sg11
(lp5932
(S'root'
p5933
S'ROOT'
p5934
S'criticized'
p5935
tp5936
a(S'nsubj'
p5937
S'criticized'
p5938
S'Albright'
p5939
tp5940
a(S'advmod'
p5941
S'criticized'
p5942
S'sharply'
p5943
tp5944
a(S'prep_as'
p5945
S'criticized'
p5946
S'self-defeating'
p5947
tp5948
a(S'det'
p5949
S'voices'
p5950
S'the'
p5951
tp5952
a(S'amod'
p5953
S'voices'
p5954
S'many'
p5955
tp5956
a(S'dobj'
p5957
S'criticized'
p5958
S'voices'
p5959
tp5960
a(S'prep_in'
p5961
S'voices'
p5962
S'Russia'
p5963
tp5964
a(S'nsubj'
p5965
S'want'
p5966
S'who'
p5967
tp5968
a(S'rcmod'
p5969
S'voices'
p5970
S'want'
p5971
tp5972
a(S'aux'
p5973
S'shift'
p5974
S'to'
p5975
tp5976
a(S'xcomp'
p5977
S'want'
p5978
S'shift'
p5979
tp5980
a(S'det'
p5981
S'emphasis'
p5982
S'the'
p5983
tp5984
a(S'dobj'
p5985
S'shift'
p5986
S'emphasis'
p5987
tp5988
a(S'nn'
p5989
S'interaction'
p5990
S'Russias'
p5991
tp5992
a(S'prep_in'
p5993
S'emphasis'
p5994
S'interaction'
p5995
tp5996
a(S'prep_with'
p5997
S'shift'
p5998
S'America'
p5999
tp6000
a(S'poss'
p6001
S'allies'
p6002
S'our'
p6003
tp6004
a(S'conj_and'
p6005
S'America'
p6006
S'allies'
p6007
tp6008
a(S'prep_from'
p6009
S'shift'
p6010
S'one'
p6011
tp6012
a(S'prep_of'
p6013
S'one'
p6014
S'partnership'
p6015
tp6016
a(S'prep_to'
p6017
S'shift'
p6018
S'one'
p6019
tp6020
a(S'prep_of'
p6021
S'one'
p6022
S'assertiveness'
p6023
tp6024
a(S'conj_and'
p6025
S'assertiveness'
p6026
S'opposition'
p6027
tp6028
a(S'conj_and'
p6029
S'assertiveness'
p6030
S'defiance'
p6031
tp6032
a(S'poss'
p6033
S'stake'
p6034
S'its'
p6035
tp6036
a(S'amod'
p6037
S'stake'
p6038
S'own'
p6039
tp6040
a(S'prep_for'
p6041
S'one'
p6042
S'stake'
p6043
tp6044
asg49
(lp6045
(g5933
S'ROOT-0'
p6046
S'criticized-3'
p6047
tp6048
a(g5937
S'criticized-3'
p6049
S'Albright-1'
p6050
tp6051
a(g5941
S'criticized-3'
p6052
S'sharply-2'
p6053
tp6054
a(g5945
S'criticized-3'
p6055
S'self-defeating-5'
p6056
tp6057
a(g5949
S'voices-8'
p6058
S'the-6'
p6059
tp6060
a(g5953
S'voices-8'
p6061
S'many-7'
p6062
tp6063
a(g5957
S'criticized-3'
p6064
S'voices-8'
p6065
tp6066
a(g5961
S'voices-8'
p6067
S'Russia-10'
p6068
tp6069
a(g5965
S'want-12'
p6070
S'who-11'
p6071
tp6072
a(g5969
S'voices-8'
p6073
S'want-12'
p6074
tp6075
a(g5973
S'shift-14'
p6076
S'to-13'
p6077
tp6078
a(g5977
S'want-12'
p6079
S'shift-14'
p6080
tp6081
a(g5981
S'emphasis-16'
p6082
S'the-15'
p6083
tp6084
a(g5985
S'shift-14'
p6085
S'emphasis-16'
p6086
tp6087
a(g5989
S'interaction-19'
p6088
S'Russias-18'
p6089
tp6090
a(g5993
S'emphasis-16'
p6091
S'interaction-19'
p6092
tp6093
a(g5997
S'shift-14'
p6094
S'America-21'
p6095
tp6096
a(g6001
S'allies-24'
p6097
S'our-23'
p6098
tp6099
a(g6005
S'America-21'
p6100
S'allies-24'
p6101
tp6102
a(g6009
S'shift-14'
p6103
S'one-26'
p6104
tp6105
a(g6013
S'one-26'
p6106
S'partnership-28'
p6107
tp6108
a(g6017
S'shift-14'
p6109
S'one-30'
p6110
tp6111
a(g6021
S'one-30'
p6112
S'assertiveness-32'
p6113
tp6114
a(g6025
S'assertiveness-32'
p6115
S'opposition-34'
p6116
tp6117
a(g6029
S'assertiveness-32'
p6118
S'defiance-36'
p6119
tp6120
a(g6033
S'stake-40'
p6121
S'its-38'
p6122
tp6123
a(g6037
S'stake-40'
p6124
S'own-39'
p6125
tp6126
a(g6041
S'one-30'
p6127
S'stake-40'
p6128
tp6129
asg78
(lp6130
(S'Albright'
p6131
(dp6132
S'NamedEntityTag'
p6133
S'PERSON'
p6134
sS'CharacterOffsetEnd'
p6135
S'1630'
p6136
sS'Lemma'
p6137
S'Albright'
p6138
sS'PartOfSpeech'
p6139
S'NNP'
p6140
sS'CharacterOffsetBegin'
p6141
S'1622'
p6142
stp6143
a(S'sharply'
p6144
(dp6145
S'NamedEntityTag'
p6146
g96
sS'CharacterOffsetEnd'
p6147
S'1638'
p6148
sS'Lemma'
p6149
S'sharply'
p6150
sS'PartOfSpeech'
p6151
S'RB'
p6152
sS'CharacterOffsetBegin'
p6153
S'1631'
p6154
stp6155
a(S'criticized'
p6156
(dp6157
S'NamedEntityTag'
p6158
g96
sS'CharacterOffsetEnd'
p6159
S'1649'
p6160
sS'Lemma'
p6161
S'criticize'
p6162
sS'PartOfSpeech'
p6163
S'VBD'
p6164
sS'CharacterOffsetBegin'
p6165
S'1639'
p6166
stp6167
a(S'as'
p6168
(dp6169
S'NamedEntityTag'
p6170
g96
sS'CharacterOffsetEnd'
p6171
S'1652'
p6172
sS'Lemma'
p6173
S'as'
p6174
sS'PartOfSpeech'
p6175
S'IN'
p6176
sS'CharacterOffsetBegin'
p6177
S'1650'
p6178
stp6179
a(S'self-defeating'
p6180
(dp6181
S'NamedEntityTag'
p6182
g96
sS'CharacterOffsetEnd'
p6183
S'1667'
p6184
sS'Lemma'
p6185
S'self-defeating'
p6186
sS'PartOfSpeech'
p6187
S'JJ'
p6188
sS'CharacterOffsetBegin'
p6189
S'1653'
p6190
stp6191
a(S'the'
p6192
(dp6193
S'NamedEntityTag'
p6194
g96
sS'CharacterOffsetEnd'
p6195
S'1671'
p6196
sS'Lemma'
p6197
S'the'
p6198
sS'PartOfSpeech'
p6199
S'DT'
p6200
sS'CharacterOffsetBegin'
p6201
S'1668'
p6202
stp6203
a(S'many'
p6204
(dp6205
S'NamedEntityTag'
p6206
g96
sS'CharacterOffsetEnd'
p6207
S'1676'
p6208
sS'Lemma'
p6209
S'many'
p6210
sS'PartOfSpeech'
p6211
S'JJ'
p6212
sS'CharacterOffsetBegin'
p6213
S'1672'
p6214
stp6215
a(S'voices'
p6216
(dp6217
S'NamedEntityTag'
p6218
g96
sS'CharacterOffsetEnd'
p6219
S'1683'
p6220
sS'Lemma'
p6221
S'voice'
p6222
sS'PartOfSpeech'
p6223
S'NNS'
p6224
sS'CharacterOffsetBegin'
p6225
S'1677'
p6226
stp6227
a(S'in'
p6228
(dp6229
S'NamedEntityTag'
p6230
g96
sS'CharacterOffsetEnd'
p6231
S'1686'
p6232
sS'Lemma'
p6233
S'in'
p6234
sS'PartOfSpeech'
p6235
S'IN'
p6236
sS'CharacterOffsetBegin'
p6237
S'1684'
p6238
stp6239
a(S'Russia'
p6240
(dp6241
S'NamedEntityTag'
p6242
S'LOCATION'
p6243
sS'CharacterOffsetEnd'
p6244
S'1693'
p6245
sS'Lemma'
p6246
S'Russia'
p6247
sS'PartOfSpeech'
p6248
S'NNP'
p6249
sS'CharacterOffsetBegin'
p6250
S'1687'
p6251
stp6252
a(S'who'
p6253
(dp6254
S'NamedEntityTag'
p6255
g96
sS'CharacterOffsetEnd'
p6256
S'1697'
p6257
sS'Lemma'
p6258
S'who'
p6259
sS'PartOfSpeech'
p6260
S'WP'
p6261
sS'CharacterOffsetBegin'
p6262
S'1694'
p6263
stp6264
a(S'want'
p6265
(dp6266
S'NamedEntityTag'
p6267
g96
sS'CharacterOffsetEnd'
p6268
S'1702'
p6269
sS'Lemma'
p6270
S'want'
p6271
sS'PartOfSpeech'
p6272
S'VBP'
p6273
sS'CharacterOffsetBegin'
p6274
S'1698'
p6275
stp6276
a(S'to'
p6277
(dp6278
S'NamedEntityTag'
p6279
g96
sS'CharacterOffsetEnd'
p6280
S'1705'
p6281
sS'Lemma'
p6282
S'to'
p6283
sS'PartOfSpeech'
p6284
S'TO'
p6285
sS'CharacterOffsetBegin'
p6286
S'1703'
p6287
stp6288
a(S'shift'
p6289
(dp6290
S'NamedEntityTag'
p6291
g96
sS'CharacterOffsetEnd'
p6292
S'1711'
p6293
sS'Lemma'
p6294
S'shift'
p6295
sS'PartOfSpeech'
p6296
S'VB'
p6297
sS'CharacterOffsetBegin'
p6298
S'1706'
p6299
stp6300
a(S'the'
p6301
(dp6302
S'NamedEntityTag'
p6303
g96
sS'CharacterOffsetEnd'
p6304
S'1715'
p6305
sS'Lemma'
p6306
S'the'
p6307
sS'PartOfSpeech'
p6308
S'DT'
p6309
sS'CharacterOffsetBegin'
p6310
S'1712'
p6311
stp6312
a(S'emphasis'
p6313
(dp6314
S'NamedEntityTag'
p6315
g96
sS'CharacterOffsetEnd'
p6316
S'1724'
p6317
sS'Lemma'
p6318
S'emphasis'
p6319
sS'PartOfSpeech'
p6320
S'NN'
p6321
sS'CharacterOffsetBegin'
p6322
S'1716'
p6323
stp6324
a(S'in'
p6325
(dp6326
S'NamedEntityTag'
p6327
g96
sS'CharacterOffsetEnd'
p6328
S'1727'
p6329
sS'Lemma'
p6330
S'in'
p6331
sS'PartOfSpeech'
p6332
S'IN'
p6333
sS'CharacterOffsetBegin'
p6334
S'1725'
p6335
stp6336
a(S'Russias'
p6337
(dp6338
S'NamedEntityTag'
p6339
g96
sS'CharacterOffsetEnd'
p6340
S'1735'
p6341
sS'Lemma'
p6342
S'Russias'
p6343
sS'PartOfSpeech'
p6344
S'NNP'
p6345
sS'CharacterOffsetBegin'
p6346
S'1728'
p6347
stp6348
a(S'interaction'
p6349
(dp6350
S'NamedEntityTag'
p6351
g96
sS'CharacterOffsetEnd'
p6352
S'1747'
p6353
sS'Lemma'
p6354
S'interaction'
p6355
sS'PartOfSpeech'
p6356
S'NN'
p6357
sS'CharacterOffsetBegin'
p6358
S'1736'
p6359
stp6360
a(S'with'
p6361
(dp6362
S'NamedEntityTag'
p6363
g96
sS'CharacterOffsetEnd'
p6364
S'1752'
p6365
sS'Lemma'
p6366
S'with'
p6367
sS'PartOfSpeech'
p6368
S'IN'
p6369
sS'CharacterOffsetBegin'
p6370
S'1748'
p6371
stp6372
a(S'America'
p6373
(dp6374
S'NamedEntityTag'
p6375
S'LOCATION'
p6376
sS'CharacterOffsetEnd'
p6377
S'1760'
p6378
sS'Lemma'
p6379
S'America'
p6380
sS'PartOfSpeech'
p6381
S'NNP'
p6382
sS'CharacterOffsetBegin'
p6383
S'1753'
p6384
stp6385
a(S'and'
p6386
(dp6387
S'NamedEntityTag'
p6388
g96
sS'CharacterOffsetEnd'
p6389
S'1764'
p6390
sS'Lemma'
p6391
S'and'
p6392
sS'PartOfSpeech'
p6393
S'CC'
p6394
sS'CharacterOffsetBegin'
p6395
S'1761'
p6396
stp6397
a(S'our'
p6398
(dp6399
S'NamedEntityTag'
p6400
g96
sS'CharacterOffsetEnd'
p6401
S'1768'
p6402
sS'Lemma'
p6403
S'we'
p6404
sS'PartOfSpeech'
p6405
S'PRP$'
p6406
sS'CharacterOffsetBegin'
p6407
S'1765'
p6408
stp6409
a(S'allies'
p6410
(dp6411
S'NamedEntityTag'
p6412
g96
sS'CharacterOffsetEnd'
p6413
S'1775'
p6414
sS'Lemma'
p6415
S'ally'
p6416
sS'PartOfSpeech'
p6417
S'NNS'
p6418
sS'CharacterOffsetBegin'
p6419
S'1769'
p6420
stp6421
a(S'from'
p6422
(dp6423
S'NamedEntityTag'
p6424
g96
sS'CharacterOffsetEnd'
p6425
S'1780'
p6426
sS'Lemma'
p6427
S'from'
p6428
sS'PartOfSpeech'
p6429
S'IN'
p6430
sS'CharacterOffsetBegin'
p6431
S'1776'
p6432
stp6433
a(S'one'
p6434
(dp6435
S'NormalizedNamedEntityTag'
p6436
S'1.0'
p6437
sS'Lemma'
p6438
S'one'
p6439
sS'CharacterOffsetEnd'
p6440
S'1784'
p6441
sS'PartOfSpeech'
p6442
S'CD'
p6443
sS'CharacterOffsetBegin'
p6444
S'1781'
p6445
sS'NamedEntityTag'
p6446
S'NUMBER'
p6447
stp6448
a(S'of'
p6449
(dp6450
S'NamedEntityTag'
p6451
g96
sS'CharacterOffsetEnd'
p6452
S'1787'
p6453
sS'Lemma'
p6454
S'of'
p6455
sS'PartOfSpeech'
p6456
S'IN'
p6457
sS'CharacterOffsetBegin'
p6458
S'1785'
p6459
stp6460
a(S'partnership'
p6461
(dp6462
S'NamedEntityTag'
p6463
g96
sS'CharacterOffsetEnd'
p6464
S'1799'
p6465
sS'Lemma'
p6466
S'partnership'
p6467
sS'PartOfSpeech'
p6468
S'NN'
p6469
sS'CharacterOffsetBegin'
p6470
S'1788'
p6471
stp6472
a(S'to'
p6473
(dp6474
S'NamedEntityTag'
p6475
g96
sS'CharacterOffsetEnd'
p6476
S'1802'
p6477
sS'Lemma'
p6478
S'to'
p6479
sS'PartOfSpeech'
p6480
S'TO'
p6481
sS'CharacterOffsetBegin'
p6482
S'1800'
p6483
stp6484
a(S'one'
p6485
(dp6486
S'NormalizedNamedEntityTag'
p6487
S'1.0'
p6488
sS'Lemma'
p6489
S'one'
p6490
sS'CharacterOffsetEnd'
p6491
S'1806'
p6492
sS'PartOfSpeech'
p6493
S'CD'
p6494
sS'CharacterOffsetBegin'
p6495
S'1803'
p6496
sS'NamedEntityTag'
p6497
S'NUMBER'
p6498
stp6499
a(S'of'
p6500
(dp6501
S'NamedEntityTag'
p6502
g96
sS'CharacterOffsetEnd'
p6503
S'1809'
p6504
sS'Lemma'
p6505
S'of'
p6506
sS'PartOfSpeech'
p6507
S'IN'
p6508
sS'CharacterOffsetBegin'
p6509
S'1807'
p6510
stp6511
a(S'assertiveness'
p6512
(dp6513
S'NamedEntityTag'
p6514
g96
sS'CharacterOffsetEnd'
p6515
S'1823'
p6516
sS'Lemma'
p6517
S'assertiveness'
p6518
sS'PartOfSpeech'
p6519
S'NN'
p6520
sS'CharacterOffsetBegin'
p6521
S'1810'
p6522
stp6523
a(g1332
(dp6524
S'NamedEntityTag'
p6525
g96
sS'CharacterOffsetEnd'
p6526
S'1824'
p6527
sS'Lemma'
p6528
g1332
sS'PartOfSpeech'
p6529
g1332
sS'CharacterOffsetBegin'
p6530
S'1823'
p6531
stp6532
a(S'opposition'
p6533
(dp6534
S'NamedEntityTag'
p6535
g96
sS'CharacterOffsetEnd'
p6536
S'1835'
p6537
sS'Lemma'
p6538
S'opposition'
p6539
sS'PartOfSpeech'
p6540
S'NN'
p6541
sS'CharacterOffsetBegin'
p6542
S'1825'
p6543
stp6544
a(S'and'
p6545
(dp6546
S'NamedEntityTag'
p6547
g96
sS'CharacterOffsetEnd'
p6548
S'1839'
p6549
sS'Lemma'
p6550
S'and'
p6551
sS'PartOfSpeech'
p6552
S'CC'
p6553
sS'CharacterOffsetBegin'
p6554
S'1836'
p6555
stp6556
a(S'defiance'
p6557
(dp6558
S'NamedEntityTag'
p6559
g96
sS'CharacterOffsetEnd'
p6560
S'1848'
p6561
sS'Lemma'
p6562
S'defiance'
p6563
sS'PartOfSpeech'
p6564
S'NN'
p6565
sS'CharacterOffsetBegin'
p6566
S'1840'
p6567
stp6568
a(S'for'
p6569
(dp6570
S'NamedEntityTag'
p6571
g96
sS'CharacterOffsetEnd'
p6572
S'1852'
p6573
sS'Lemma'
p6574
S'for'
p6575
sS'PartOfSpeech'
p6576
S'IN'
p6577
sS'CharacterOffsetBegin'
p6578
S'1849'
p6579
stp6580
a(S'its'
p6581
(dp6582
S'NamedEntityTag'
p6583
g96
sS'CharacterOffsetEnd'
p6584
S'1856'
p6585
sS'Lemma'
p6586
S'its'
p6587
sS'PartOfSpeech'
p6588
S'PRP$'
p6589
sS'CharacterOffsetBegin'
p6590
S'1853'
p6591
stp6592
a(S'own'
p6593
(dp6594
S'NamedEntityTag'
p6595
g96
sS'CharacterOffsetEnd'
p6596
S'1860'
p6597
sS'Lemma'
p6598
S'own'
p6599
sS'PartOfSpeech'
p6600
S'JJ'
p6601
sS'CharacterOffsetBegin'
p6602
S'1857'
p6603
stp6604
a(S'stake'
p6605
(dp6606
S'NamedEntityTag'
p6607
g96
sS'CharacterOffsetEnd'
p6608
S'1866'
p6609
sS'Lemma'
p6610
S'stake'
p6611
sS'PartOfSpeech'
p6612
S'NN'
p6613
sS'CharacterOffsetBegin'
p6614
S'1861'
p6615
stp6616
a(g192
(dp6617
S'NamedEntityTag'
p6618
g96
sS'CharacterOffsetEnd'
p6619
S'1867'
p6620
sS'Lemma'
p6621
g192
sS'PartOfSpeech'
p6622
g192
sS'CharacterOffsetBegin'
p6623
S'1866'
p6624
stp6625
asa(dp6626
g7
S'(ROOT (S (S (NP (NNP Russia)) (VP (MD could) (RB not) (VP (VB stand) (ADVP (RB alone)) (PP (IN in) (NP (DT the) (NN world)))))) (PRN (, ,) (S (NP (PRP she)) (VP (VBD said))) (, ,)) (CC and) (S (NP (NP (DT the) (NNP United) (NNPS States) (NN ability)) (SBAR (S (VP (TO to) (VP (VB help) (NP (NNPS Russians))))))) (VP (VBP help) (SBAR (S (NP (PRP themselves)) (VP (MD will) (VP (VB go) (PP (IN from) (S (VP (VBG being) (ADJP (ADJP (RB merely) (RB very)) (, ,) (RB very) (ADJP (JJ difficult) (PP (TO to) (S (VP (VBG being) (ADJP (RB absolutely) (JJ impossible)))))))))))))))) (. .)))'
p6627
sg9
S'Russia could not stand alone in the world, she said, and the United States ability to help Russians help themselves will go from being merely very, very difficult to being absolutely impossible.'
p6628
sg11
(lp6629
(S'root'
p6630
S'ROOT'
p6631
S'stand'
p6632
tp6633
a(S'nsubj'
p6634
S'stand'
p6635
S'Russia'
p6636
tp6637
a(S'aux'
p6638
S'stand'
p6639
S'could'
p6640
tp6641
a(S'neg'
p6642
S'stand'
p6643
S'not'
p6644
tp6645
a(S'advmod'
p6646
S'stand'
p6647
S'alone'
p6648
tp6649
a(S'det'
p6650
S'world'
p6651
S'the'
p6652
tp6653
a(S'prep_in'
p6654
S'stand'
p6655
S'world'
p6656
tp6657
a(S'nsubj'
p6658
S'said'
p6659
S'she'
p6660
tp6661
a(S'dep'
p6662
S'stand'
p6663
S'said'
p6664
tp6665
a(S'det'
p6666
S'ability'
p6667
S'the'
p6668
tp6669
a(S'nn'
p6670
S'ability'
p6671
S'United'
p6672
tp6673
a(S'nn'
p6674
S'ability'
p6675
S'States'
p6676
tp6677
a(S'nsubj'
p6678
S'help'
p6679
S'ability'
p6680
tp6681
a(S'aux'
p6682
S'help'
p6683
S'to'
p6684
tp6685
a(S'infmod'
p6686
S'ability'
p6687
S'help'
p6688
tp6689
a(S'dobj'
p6690
S'help'
p6691
S'Russians'
p6692
tp6693
a(S'conj_and'
p6694
S'stand'
p6695
S'help'
p6696
tp6697
a(S'nsubj'
p6698
S'go'
p6699
S'themselves'
p6700
tp6701
a(S'aux'
p6702
S'go'
p6703
S'will'
p6704
tp6705
a(S'ccomp'
p6706
S'help'
p6707
S'go'
p6708
tp6709
a(S'prep'
p6710
S'go'
p6711
S'from'
p6712
tp6713
a(S'cop'
p6714
S'very'
p6715
S'being'
p6716
tp6717
a(S'advmod'
p6718
S'very'
p6719
S'merely'
p6720
tp6721
a(S'pcomp'
p6722
S'from'
p6723
S'very'
p6724
tp6725
a(S'advmod'
p6726
S'very'
p6727
S'very'
p6728
tp6729
a(S'dep'
p6730
S'very'
p6731
S'difficult'
p6732
tp6733
a(S'cop'
p6734
S'impossible'
p6735
S'being'
p6736
tp6737
a(S'advmod'
p6738
S'impossible'
p6739
S'absolutely'
p6740
tp6741
a(S'prepc_to'
p6742
S'difficult'
p6743
S'impossible'
p6744
tp6745
asg49
(lp6746
(g6630
S'ROOT-0'
p6747
S'stand-4'
p6748
tp6749
a(g6634
S'stand-4'
p6750
S'Russia-1'
p6751
tp6752
a(g6638
S'stand-4'
p6753
S'could-2'
p6754
tp6755
a(g6642
S'stand-4'
p6756
S'not-3'
p6757
tp6758
a(g6646
S'stand-4'
p6759
S'alone-5'
p6760
tp6761
a(g6650
S'world-8'
p6762
S'the-7'
p6763
tp6764
a(g6654
S'stand-4'
p6765
S'world-8'
p6766
tp6767
a(g6658
S'said-11'
p6768
S'she-10'
p6769
tp6770
a(g6662
S'stand-4'
p6771
S'said-11'
p6772
tp6773
a(g6666
S'ability-17'
p6774
S'the-14'
p6775
tp6776
a(g6670
S'ability-17'
p6777
S'United-15'
p6778
tp6779
a(g6674
S'ability-17'
p6780
S'States-16'
p6781
tp6782
a(g6678
S'help-21'
p6783
S'ability-17'
p6784
tp6785
a(g6682
S'help-19'
p6786
S'to-18'
p6787
tp6788
a(g6686
S'ability-17'
p6789
S'help-19'
p6790
tp6791
a(g6690
S'help-19'
p6792
S'Russians-20'
p6793
tp6794
a(g6694
S'stand-4'
p6795
S'help-21'
p6796
tp6797
a(g6698
S'go-24'
p6798
S'themselves-22'
p6799
tp6800
a(g6702
S'go-24'
p6801
S'will-23'
p6802
tp6803
a(g6706
S'help-21'
p6804
S'go-24'
p6805
tp6806
a(g6710
S'go-24'
p6807
S'from-25'
p6808
tp6809
a(g6714
S'very-28'
p6810
S'being-26'
p6811
tp6812
a(g6718
S'very-28'
p6813
S'merely-27'
p6814
tp6815
a(g6722
S'from-25'
p6816
S'very-28'
p6817
tp6818
a(g6726
S'very-28'
p6819
S'very-30'
p6820
tp6821
a(g6730
S'very-28'
p6822
S'difficult-31'
p6823
tp6824
a(g6734
S'impossible-35'
p6825
S'being-33'
p6826
tp6827
a(g6738
S'impossible-35'
p6828
S'absolutely-34'
p6829
tp6830
a(g6742
S'difficult-31'
p6831
S'impossible-35'
p6832
tp6833
asg78
(lp6834
(S'Russia'
p6835
(dp6836
S'NamedEntityTag'
p6837
S'LOCATION'
p6838
sS'CharacterOffsetEnd'
p6839
S'1874'
p6840
sS'Lemma'
p6841
S'Russia'
p6842
sS'PartOfSpeech'
p6843
S'NNP'
p6844
sS'CharacterOffsetBegin'
p6845
S'1868'
p6846
stp6847
a(S'could'
p6848
(dp6849
S'NamedEntityTag'
p6850
g96
sS'CharacterOffsetEnd'
p6851
S'1880'
p6852
sS'Lemma'
p6853
S'could'
p6854
sS'PartOfSpeech'
p6855
S'MD'
p6856
sS'CharacterOffsetBegin'
p6857
S'1875'
p6858
stp6859
a(S'not'
p6860
(dp6861
S'NamedEntityTag'
p6862
g96
sS'CharacterOffsetEnd'
p6863
S'1884'
p6864
sS'Lemma'
p6865
S'not'
p6866
sS'PartOfSpeech'
p6867
S'RB'
p6868
sS'CharacterOffsetBegin'
p6869
S'1881'
p6870
stp6871
a(S'stand'
p6872
(dp6873
S'NamedEntityTag'
p6874
g96
sS'CharacterOffsetEnd'
p6875
S'1890'
p6876
sS'Lemma'
p6877
S'stand'
p6878
sS'PartOfSpeech'
p6879
S'VB'
p6880
sS'CharacterOffsetBegin'
p6881
S'1885'
p6882
stp6883
a(S'alone'
p6884
(dp6885
S'NamedEntityTag'
p6886
g96
sS'CharacterOffsetEnd'
p6887
S'1896'
p6888
sS'Lemma'
p6889
S'alone'
p6890
sS'PartOfSpeech'
p6891
S'RB'
p6892
sS'CharacterOffsetBegin'
p6893
S'1891'
p6894
stp6895
a(S'in'
p6896
(dp6897
S'NamedEntityTag'
p6898
g96
sS'CharacterOffsetEnd'
p6899
S'1899'
p6900
sS'Lemma'
p6901
S'in'
p6902
sS'PartOfSpeech'
p6903
S'IN'
p6904
sS'CharacterOffsetBegin'
p6905
S'1897'
p6906
stp6907
a(S'the'
p6908
(dp6909
S'NamedEntityTag'
p6910
g96
sS'CharacterOffsetEnd'
p6911
S'1903'
p6912
sS'Lemma'
p6913
S'the'
p6914
sS'PartOfSpeech'
p6915
S'DT'
p6916
sS'CharacterOffsetBegin'
p6917
S'1900'
p6918
stp6919
a(S'world'
p6920
(dp6921
S'NamedEntityTag'
p6922
g96
sS'CharacterOffsetEnd'
p6923
S'1909'
p6924
sS'Lemma'
p6925
S'world'
p6926
sS'PartOfSpeech'
p6927
S'NN'
p6928
sS'CharacterOffsetBegin'
p6929
S'1904'
p6930
stp6931
a(g1332
(dp6932
S'NamedEntityTag'
p6933
g96
sS'CharacterOffsetEnd'
p6934
S'1910'
p6935
sS'Lemma'
p6936
g1332
sS'PartOfSpeech'
p6937
g1332
sS'CharacterOffsetBegin'
p6938
S'1909'
p6939
stp6940
a(S'she'
p6941
(dp6942
S'NamedEntityTag'
p6943
g96
sS'CharacterOffsetEnd'
p6944
S'1914'
p6945
sS'Lemma'
p6946
S'she'
p6947
sS'PartOfSpeech'
p6948
S'PRP'
p6949
sS'CharacterOffsetBegin'
p6950
S'1911'
p6951
stp6952
a(S'said'
p6953
(dp6954
S'NamedEntityTag'
p6955
g96
sS'CharacterOffsetEnd'
p6956
S'1919'
p6957
sS'Lemma'
p6958
S'say'
p6959
sS'PartOfSpeech'
p6960
S'VBD'
p6961
sS'CharacterOffsetBegin'
p6962
S'1915'
p6963
stp6964
a(g1332
(dp6965
S'NamedEntityTag'
p6966
g96
sS'CharacterOffsetEnd'
p6967
S'1920'
p6968
sS'Lemma'
p6969
g1332
sS'PartOfSpeech'
p6970
g1332
sS'CharacterOffsetBegin'
p6971
S'1919'
p6972
stp6973
a(S'and'
p6974
(dp6975
S'NamedEntityTag'
p6976
g96
sS'CharacterOffsetEnd'
p6977
S'1924'
p6978
sS'Lemma'
p6979
S'and'
p6980
sS'PartOfSpeech'
p6981
S'CC'
p6982
sS'CharacterOffsetBegin'
p6983
S'1921'
p6984
stp6985
a(S'the'
p6986
(dp6987
S'NamedEntityTag'
p6988
g96
sS'CharacterOffsetEnd'
p6989
S'1928'
p6990
sS'Lemma'
p6991
S'the'
p6992
sS'PartOfSpeech'
p6993
S'DT'
p6994
sS'CharacterOffsetBegin'
p6995
S'1925'
p6996
stp6997
a(S'United'
p6998
(dp6999
S'NamedEntityTag'
p7000
S'LOCATION'
p7001
sS'CharacterOffsetEnd'
p7002
S'1935'
p7003
sS'Lemma'
p7004
S'United'
p7005
sS'PartOfSpeech'
p7006
S'NNP'
p7007
sS'CharacterOffsetBegin'
p7008
S'1929'
p7009
stp7010
a(S'States'
p7011
(dp7012
S'NamedEntityTag'
p7013
S'LOCATION'
p7014
sS'CharacterOffsetEnd'
p7015
S'1942'
p7016
sS'Lemma'
p7017
S'States'
p7018
sS'PartOfSpeech'
p7019
S'NNPS'
p7020
sS'CharacterOffsetBegin'
p7021
S'1936'
p7022
stp7023
a(S'ability'
p7024
(dp7025
S'NamedEntityTag'
p7026
g96
sS'CharacterOffsetEnd'
p7027
S'1950'
p7028
sS'Lemma'
p7029
S'ability'
p7030
sS'PartOfSpeech'
p7031
S'NN'
p7032
sS'CharacterOffsetBegin'
p7033
S'1943'
p7034
stp7035
a(S'to'
p7036
(dp7037
S'NamedEntityTag'
p7038
g96
sS'CharacterOffsetEnd'
p7039
S'1953'
p7040
sS'Lemma'
p7041
S'to'
p7042
sS'PartOfSpeech'
p7043
S'TO'
p7044
sS'CharacterOffsetBegin'
p7045
S'1951'
p7046
stp7047
a(S'help'
p7048
(dp7049
S'NamedEntityTag'
p7050
g96
sS'CharacterOffsetEnd'
p7051
S'1958'
p7052
sS'Lemma'
p7053
S'help'
p7054
sS'PartOfSpeech'
p7055
S'VB'
p7056
sS'CharacterOffsetBegin'
p7057
S'1954'
p7058
stp7059
a(S'Russians'
p7060
(dp7061
S'NamedEntityTag'
p7062
S'MISC'
p7063
sS'CharacterOffsetEnd'
p7064
S'1967'
p7065
sS'Lemma'
p7066
S'Russians'
p7067
sS'PartOfSpeech'
p7068
S'NNPS'
p7069
sS'CharacterOffsetBegin'
p7070
S'1959'
p7071
stp7072
a(S'help'
p7073
(dp7074
S'NamedEntityTag'
p7075
g96
sS'CharacterOffsetEnd'
p7076
S'1972'
p7077
sS'Lemma'
p7078
S'help'
p7079
sS'PartOfSpeech'
p7080
S'VBP'
p7081
sS'CharacterOffsetBegin'
p7082
S'1968'
p7083
stp7084
a(S'themselves'
p7085
(dp7086
S'NamedEntityTag'
p7087
g96
sS'CharacterOffsetEnd'
p7088
S'1983'
p7089
sS'Lemma'
p7090
S'themselves'
p7091
sS'PartOfSpeech'
p7092
S'PRP'
p7093
sS'CharacterOffsetBegin'
p7094
S'1973'
p7095
stp7096
a(S'will'
p7097
(dp7098
S'NamedEntityTag'
p7099
g96
sS'CharacterOffsetEnd'
p7100
S'1988'
p7101
sS'Lemma'
p7102
S'will'
p7103
sS'PartOfSpeech'
p7104
S'MD'
p7105
sS'CharacterOffsetBegin'
p7106
S'1984'
p7107
stp7108
a(S'go'
p7109
(dp7110
S'NamedEntityTag'
p7111
g96
sS'CharacterOffsetEnd'
p7112
S'1991'
p7113
sS'Lemma'
p7114
S'go'
p7115
sS'PartOfSpeech'
p7116
S'VB'
p7117
sS'CharacterOffsetBegin'
p7118
S'1989'
p7119
stp7120
a(S'from'
p7121
(dp7122
S'NamedEntityTag'
p7123
g96
sS'CharacterOffsetEnd'
p7124
S'1996'
p7125
sS'Lemma'
p7126
S'from'
p7127
sS'PartOfSpeech'
p7128
S'IN'
p7129
sS'CharacterOffsetBegin'
p7130
S'1992'
p7131
stp7132
a(S'being'
p7133
(dp7134
S'NamedEntityTag'
p7135
g96
sS'CharacterOffsetEnd'
p7136
S'2002'
p7137
sS'Lemma'
p7138
S'be'
p7139
sS'PartOfSpeech'
p7140
S'VBG'
p7141
sS'CharacterOffsetBegin'
p7142
S'1997'
p7143
stp7144
a(S'merely'
p7145
(dp7146
S'NamedEntityTag'
p7147
g96
sS'CharacterOffsetEnd'
p7148
S'2009'
p7149
sS'Lemma'
p7150
S'merely'
p7151
sS'PartOfSpeech'
p7152
S'RB'
p7153
sS'CharacterOffsetBegin'
p7154
S'2003'
p7155
stp7156
a(S'very'
p7157
(dp7158
S'NamedEntityTag'
p7159
g96
sS'CharacterOffsetEnd'
p7160
S'2014'
p7161
sS'Lemma'
p7162
S'very'
p7163
sS'PartOfSpeech'
p7164
S'RB'
p7165
sS'CharacterOffsetBegin'
p7166
S'2010'
p7167
stp7168
a(g1332
(dp7169
S'NamedEntityTag'
p7170
g96
sS'CharacterOffsetEnd'
p7171
S'2015'
p7172
sS'Lemma'
p7173
g1332
sS'PartOfSpeech'
p7174
g1332
sS'CharacterOffsetBegin'
p7175
S'2014'
p7176
stp7177
a(S'very'
p7178
(dp7179
S'NamedEntityTag'
p7180
g96
sS'CharacterOffsetEnd'
p7181
S'2020'
p7182
sS'Lemma'
p7183
S'very'
p7184
sS'PartOfSpeech'
p7185
S'RB'
p7186
sS'CharacterOffsetBegin'
p7187
S'2016'
p7188
stp7189
a(S'difficult'
p7190
(dp7191
S'NamedEntityTag'
p7192
g96
sS'CharacterOffsetEnd'
p7193
S'2030'
p7194
sS'Lemma'
p7195
S'difficult'
p7196
sS'PartOfSpeech'
p7197
S'JJ'
p7198
sS'CharacterOffsetBegin'
p7199
S'2021'
p7200
stp7201
a(S'to'
p7202
(dp7203
S'NamedEntityTag'
p7204
g96
sS'CharacterOffsetEnd'
p7205
S'2033'
p7206
sS'Lemma'
p7207
S'to'
p7208
sS'PartOfSpeech'
p7209
S'TO'
p7210
sS'CharacterOffsetBegin'
p7211
S'2031'
p7212
stp7213
a(S'being'
p7214
(dp7215
S'NamedEntityTag'
p7216
g96
sS'CharacterOffsetEnd'
p7217
S'2039'
p7218
sS'Lemma'
p7219
S'be'
p7220
sS'PartOfSpeech'
p7221
S'VBG'
p7222
sS'CharacterOffsetBegin'
p7223
S'2034'
p7224
stp7225
a(S'absolutely'
p7226
(dp7227
S'NamedEntityTag'
p7228
g96
sS'CharacterOffsetEnd'
p7229
S'2050'
p7230
sS'Lemma'
p7231
S'absolutely'
p7232
sS'PartOfSpeech'
p7233
S'RB'
p7234
sS'CharacterOffsetBegin'
p7235
S'2040'
p7236
stp7237
a(S'impossible'
p7238
(dp7239
S'NamedEntityTag'
p7240
g96
sS'CharacterOffsetEnd'
p7241
S'2061'
p7242
sS'Lemma'
p7243
S'impossible'
p7244
sS'PartOfSpeech'
p7245
S'JJ'
p7246
sS'CharacterOffsetBegin'
p7247
S'2051'
p7248
stp7249
a(g192
(dp7250
S'NamedEntityTag'
p7251
g96
sS'CharacterOffsetEnd'
p7252
S'2062'
p7253
sS'Lemma'
p7254
g192
sS'PartOfSpeech'
p7255
g192
sS'CharacterOffsetBegin'
p7256
S'2061'
p7257
stp7258
asa(dp7259
g7
S'(ROOT (S (PP (IN At) (NP (DT the) (JJ same) (NN time))) (, ,) (NP (PRP she)) (VP (VBD said) (PRN (, ,) (S (NP (NNP Washington)) (VP (MD would) (RB not) (VP (VB assume) (NP (DT the) (JJS worst))))) (, ,)) (SBAR (IN for) (S (NP (EX there)) (VP (VBP are) (ADVP (RB still)) (NP (NP (JJ plenty)) (PP (IN of) (NP (NP (NNS people)) (PP (IN in) (NP (NNP Russia))))) (SBAR (WHNP (WP who)) (S (VP (MD will) (VP (VB fight) (PP (IN against) (S (VP (VBG turning) (PRT (RP back)) (NP (DT the) (NN clock)))))))))))))) (. .)))'
p7260
sg9
S'At the same time, she said, Washington would not assume the worst, for there are still plenty of people in Russia who will fight against turning back the clock.'
p7261
sg11
(lp7262
(S'root'
p7263
S'ROOT'
p7264
S'said'
p7265
tp7266
a(S'det'
p7267
S'time'
p7268
S'the'
p7269
tp7270
a(S'amod'
p7271
S'time'
p7272
S'same'
p7273
tp7274
a(S'prep_at'
p7275
S'said'
p7276
S'time'
p7277
tp7278
a(S'nsubj'
p7279
S'said'
p7280
S'she'
p7281
tp7282
a(S'nsubj'
p7283
S'assume'
p7284
S'Washington'
p7285
tp7286
a(S'aux'
p7287
S'assume'
p7288
S'would'
p7289
tp7290
a(S'neg'
p7291
S'assume'
p7292
S'not'
p7293
tp7294
a(S'parataxis'
p7295
S'said'
p7296
S'assume'
p7297
tp7298
a(S'det'
p7299
S'worst'
p7300
S'the'
p7301
tp7302
a(S'dobj'
p7303
S'assume'
p7304
S'worst'
p7305
tp7306
a(S'mark'
p7307
S'are'
p7308
S'for'
p7309
tp7310
a(S'expl'
p7311
S'are'
p7312
S'there'
p7313
tp7314
a(S'advcl'
p7315
S'said'
p7316
S'are'
p7317
tp7318
a(S'advmod'
p7319
S'are'
p7320
S'still'
p7321
tp7322
a(S'nsubj'
p7323
S'are'
p7324
S'plenty'
p7325
tp7326
a(S'prep_of'
p7327
S'plenty'
p7328
S'people'
p7329
tp7330
a(S'prep_in'
p7331
S'people'
p7332
S'Russia'
p7333
tp7334
a(S'nsubj'
p7335
S'fight'
p7336
S'who'
p7337
tp7338
a(S'aux'
p7339
S'fight'
p7340
S'will'
p7341
tp7342
a(S'rcmod'
p7343
S'plenty'
p7344
S'fight'
p7345
tp7346
a(S'prepc_against'
p7347
S'fight'
p7348
S'turning'
p7349
tp7350
a(S'prt'
p7351
S'turning'
p7352
S'back'
p7353
tp7354
a(S'det'
p7355
S'clock'
p7356
S'the'
p7357
tp7358
a(S'dobj'
p7359
S'turning'
p7360
S'clock'
p7361
tp7362
asg49
(lp7363
(g7263
S'ROOT-0'
p7364
S'said-7'
p7365
tp7366
a(g7267
S'time-4'
p7367
S'the-2'
p7368
tp7369
a(g7271
S'time-4'
p7370
S'same-3'
p7371
tp7372
a(g7275
S'said-7'
p7373
S'time-4'
p7374
tp7375
a(g7279
S'said-7'
p7376
S'she-6'
p7377
tp7378
a(g7283
S'assume-12'
p7379
S'Washington-9'
p7380
tp7381
a(g7287
S'assume-12'
p7382
S'would-10'
p7383
tp7384
a(g7291
S'assume-12'
p7385
S'not-11'
p7386
tp7387
a(g7295
S'said-7'
p7388
S'assume-12'
p7389
tp7390
a(g7299
S'worst-14'
p7391
S'the-13'
p7392
tp7393
a(g7303
S'assume-12'
p7394
S'worst-14'
p7395
tp7396
a(g7307
S'are-18'
p7397
S'for-16'
p7398
tp7399
a(g7311
S'are-18'
p7400
S'there-17'
p7401
tp7402
a(g7315
S'said-7'
p7403
S'are-18'
p7404
tp7405
a(g7319
S'are-18'
p7406
S'still-19'
p7407
tp7408
a(g7323
S'are-18'
p7409
S'plenty-20'
p7410
tp7411
a(g7327
S'plenty-20'
p7412
S'people-22'
p7413
tp7414
a(g7331
S'people-22'
p7415
S'Russia-24'
p7416
tp7417
a(g7335
S'fight-27'
p7418
S'who-25'
p7419
tp7420
a(g7339
S'fight-27'
p7421
S'will-26'
p7422
tp7423
a(g7343
S'plenty-20'
p7424
S'fight-27'
p7425
tp7426
a(g7347
S'fight-27'
p7427
S'turning-29'
p7428
tp7429
a(g7351
S'turning-29'
p7430
S'back-30'
p7431
tp7432
a(g7355
S'clock-32'
p7433
S'the-31'
p7434
tp7435
a(g7359
S'turning-29'
p7436
S'clock-32'
p7437
tp7438
asg78
(lp7439
(S'At'
p7440
(dp7441
S'NamedEntityTag'
p7442
g96
sS'CharacterOffsetEnd'
p7443
S'2065'
p7444
sS'Lemma'
p7445
S'at'
p7446
sS'PartOfSpeech'
p7447
S'IN'
p7448
sS'CharacterOffsetBegin'
p7449
S'2063'
p7450
stp7451
a(S'the'
p7452
(dp7453
S'NamedEntityTag'
p7454
g96
sS'CharacterOffsetEnd'
p7455
S'2069'
p7456
sS'Lemma'
p7457
S'the'
p7458
sS'PartOfSpeech'
p7459
S'DT'
p7460
sS'CharacterOffsetBegin'
p7461
S'2066'
p7462
stp7463
a(S'same'
p7464
(dp7465
S'NamedEntityTag'
p7466
g96
sS'CharacterOffsetEnd'
p7467
S'2074'
p7468
sS'Lemma'
p7469
S'same'
p7470
sS'PartOfSpeech'
p7471
S'JJ'
p7472
sS'CharacterOffsetBegin'
p7473
S'2070'
p7474
stp7475
a(S'time'
p7476
(dp7477
S'NamedEntityTag'
p7478
g96
sS'CharacterOffsetEnd'
p7479
S'2079'
p7480
sS'Lemma'
p7481
S'time'
p7482
sS'PartOfSpeech'
p7483
S'NN'
p7484
sS'CharacterOffsetBegin'
p7485
S'2075'
p7486
stp7487
a(g1332
(dp7488
S'NamedEntityTag'
p7489
g96
sS'CharacterOffsetEnd'
p7490
S'2080'
p7491
sS'Lemma'
p7492
g1332
sS'PartOfSpeech'
p7493
g1332
sS'CharacterOffsetBegin'
p7494
S'2079'
p7495
stp7496
a(S'she'
p7497
(dp7498
S'NamedEntityTag'
p7499
g96
sS'CharacterOffsetEnd'
p7500
S'2084'
p7501
sS'Lemma'
p7502
S'she'
p7503
sS'PartOfSpeech'
p7504
S'PRP'
p7505
sS'CharacterOffsetBegin'
p7506
S'2081'
p7507
stp7508
a(S'said'
p7509
(dp7510
S'NamedEntityTag'
p7511
g96
sS'CharacterOffsetEnd'
p7512
S'2089'
p7513
sS'Lemma'
p7514
S'say'
p7515
sS'PartOfSpeech'
p7516
S'VBD'
p7517
sS'CharacterOffsetBegin'
p7518
S'2085'
p7519
stp7520
a(g1332
(dp7521
S'NamedEntityTag'
p7522
g96
sS'CharacterOffsetEnd'
p7523
S'2090'
p7524
sS'Lemma'
p7525
g1332
sS'PartOfSpeech'
p7526
g1332
sS'CharacterOffsetBegin'
p7527
S'2089'
p7528
stp7529
a(S'Washington'
p7530
(dp7531
S'NamedEntityTag'
p7532
S'LOCATION'
p7533
sS'CharacterOffsetEnd'
p7534
S'2101'
p7535
sS'Lemma'
p7536
S'Washington'
p7537
sS'PartOfSpeech'
p7538
S'NNP'
p7539
sS'CharacterOffsetBegin'
p7540
S'2091'
p7541
stp7542
a(S'would'
p7543
(dp7544
S'NamedEntityTag'
p7545
g96
sS'CharacterOffsetEnd'
p7546
S'2107'
p7547
sS'Lemma'
p7548
S'would'
p7549
sS'PartOfSpeech'
p7550
S'MD'
p7551
sS'CharacterOffsetBegin'
p7552
S'2102'
p7553
stp7554
a(S'not'
p7555
(dp7556
S'NamedEntityTag'
p7557
g96
sS'CharacterOffsetEnd'
p7558
S'2111'
p7559
sS'Lemma'
p7560
S'not'
p7561
sS'PartOfSpeech'
p7562
S'RB'
p7563
sS'CharacterOffsetBegin'
p7564
S'2108'
p7565
stp7566
a(S'assume'
p7567
(dp7568
S'NamedEntityTag'
p7569
g96
sS'CharacterOffsetEnd'
p7570
S'2118'
p7571
sS'Lemma'
p7572
S'assume'
p7573
sS'PartOfSpeech'
p7574
S'VB'
p7575
sS'CharacterOffsetBegin'
p7576
S'2112'
p7577
stp7578
a(S'the'
p7579
(dp7580
S'NamedEntityTag'
p7581
g96
sS'CharacterOffsetEnd'
p7582
S'2122'
p7583
sS'Lemma'
p7584
S'the'
p7585
sS'PartOfSpeech'
p7586
S'DT'
p7587
sS'CharacterOffsetBegin'
p7588
S'2119'
p7589
stp7590
a(S'worst'
p7591
(dp7592
S'NamedEntityTag'
p7593
g96
sS'CharacterOffsetEnd'
p7594
S'2128'
p7595
sS'Lemma'
p7596
S'worst'
p7597
sS'PartOfSpeech'
p7598
S'JJS'
p7599
sS'CharacterOffsetBegin'
p7600
S'2123'
p7601
stp7602
a(g1332
(dp7603
S'NamedEntityTag'
p7604
g96
sS'CharacterOffsetEnd'
p7605
S'2129'
p7606
sS'Lemma'
p7607
g1332
sS'PartOfSpeech'
p7608
g1332
sS'CharacterOffsetBegin'
p7609
S'2128'
p7610
stp7611
a(S'for'
p7612
(dp7613
S'NamedEntityTag'
p7614
g96
sS'CharacterOffsetEnd'
p7615
S'2133'
p7616
sS'Lemma'
p7617
S'for'
p7618
sS'PartOfSpeech'
p7619
S'IN'
p7620
sS'CharacterOffsetBegin'
p7621
S'2130'
p7622
stp7623
a(S'there'
p7624
(dp7625
S'NamedEntityTag'
p7626
g96
sS'CharacterOffsetEnd'
p7627
S'2139'
p7628
sS'Lemma'
p7629
S'there'
p7630
sS'PartOfSpeech'
p7631
S'EX'
p7632
sS'CharacterOffsetBegin'
p7633
S'2134'
p7634
stp7635
a(S'are'
p7636
(dp7637
S'NamedEntityTag'
p7638
g96
sS'CharacterOffsetEnd'
p7639
S'2143'
p7640
sS'Lemma'
p7641
S'be'
p7642
sS'PartOfSpeech'
p7643
S'VBP'
p7644
sS'CharacterOffsetBegin'
p7645
S'2140'
p7646
stp7647
a(S'still'
p7648
(dp7649
S'NamedEntityTag'
p7650
g96
sS'CharacterOffsetEnd'
p7651
S'2149'
p7652
sS'Lemma'
p7653
S'still'
p7654
sS'PartOfSpeech'
p7655
S'RB'
p7656
sS'CharacterOffsetBegin'
p7657
S'2144'
p7658
stp7659
a(S'plenty'
p7660
(dp7661
S'NamedEntityTag'
p7662
g96
sS'CharacterOffsetEnd'
p7663
S'2156'
p7664
sS'Lemma'
p7665
S'plenty'
p7666
sS'PartOfSpeech'
p7667
S'JJ'
p7668
sS'CharacterOffsetBegin'
p7669
S'2150'
p7670
stp7671
a(S'of'
p7672
(dp7673
S'NamedEntityTag'
p7674
g96
sS'CharacterOffsetEnd'
p7675
S'2159'
p7676
sS'Lemma'
p7677
S'of'
p7678
sS'PartOfSpeech'
p7679
S'IN'
p7680
sS'CharacterOffsetBegin'
p7681
S'2157'
p7682
stp7683
a(S'people'
p7684
(dp7685
S'NamedEntityTag'
p7686
g96
sS'CharacterOffsetEnd'
p7687
S'2166'
p7688
sS'Lemma'
p7689
S'people'
p7690
sS'PartOfSpeech'
p7691
S'NNS'
p7692
sS'CharacterOffsetBegin'
p7693
S'2160'
p7694
stp7695
a(S'in'
p7696
(dp7697
S'NamedEntityTag'
p7698
g96
sS'CharacterOffsetEnd'
p7699
S'2169'
p7700
sS'Lemma'
p7701
S'in'
p7702
sS'PartOfSpeech'
p7703
S'IN'
p7704
sS'CharacterOffsetBegin'
p7705
S'2167'
p7706
stp7707
a(S'Russia'
p7708
(dp7709
S'NamedEntityTag'
p7710
S'LOCATION'
p7711
sS'CharacterOffsetEnd'
p7712
S'2176'
p7713
sS'Lemma'
p7714
S'Russia'
p7715
sS'PartOfSpeech'
p7716
S'NNP'
p7717
sS'CharacterOffsetBegin'
p7718
S'2170'
p7719
stp7720
a(S'who'
p7721
(dp7722
S'NamedEntityTag'
p7723
g96
sS'CharacterOffsetEnd'
p7724
S'2180'
p7725
sS'Lemma'
p7726
S'who'
p7727
sS'PartOfSpeech'
p7728
S'WP'
p7729
sS'CharacterOffsetBegin'
p7730
S'2177'
p7731
stp7732
a(S'will'
p7733
(dp7734
S'NamedEntityTag'
p7735
g96
sS'CharacterOffsetEnd'
p7736
S'2185'
p7737
sS'Lemma'
p7738
S'will'
p7739
sS'PartOfSpeech'
p7740
S'MD'
p7741
sS'CharacterOffsetBegin'
p7742
S'2181'
p7743
stp7744
a(S'fight'
p7745
(dp7746
S'NamedEntityTag'
p7747
g96
sS'CharacterOffsetEnd'
p7748
S'2191'
p7749
sS'Lemma'
p7750
S'fight'
p7751
sS'PartOfSpeech'
p7752
S'VB'
p7753
sS'CharacterOffsetBegin'
p7754
S'2186'
p7755
stp7756
a(S'against'
p7757
(dp7758
S'NamedEntityTag'
p7759
g96
sS'CharacterOffsetEnd'
p7760
S'2199'
p7761
sS'Lemma'
p7762
S'against'
p7763
sS'PartOfSpeech'
p7764
S'IN'
p7765
sS'CharacterOffsetBegin'
p7766
S'2192'
p7767
stp7768
a(S'turning'
p7769
(dp7770
S'NamedEntityTag'
p7771
g96
sS'CharacterOffsetEnd'
p7772
S'2207'
p7773
sS'Lemma'
p7774
S'turn'
p7775
sS'PartOfSpeech'
p7776
S'VBG'
p7777
sS'CharacterOffsetBegin'
p7778
S'2200'
p7779
stp7780
a(S'back'
p7781
(dp7782
S'NamedEntityTag'
p7783
g96
sS'CharacterOffsetEnd'
p7784
S'2212'
p7785
sS'Lemma'
p7786
S'back'
p7787
sS'PartOfSpeech'
p7788
S'RP'
p7789
sS'CharacterOffsetBegin'
p7790
S'2208'
p7791
stp7792
a(S'the'
p7793
(dp7794
S'NamedEntityTag'
p7795
g96
sS'CharacterOffsetEnd'
p7796
S'2216'
p7797
sS'Lemma'
p7798
S'the'
p7799
sS'PartOfSpeech'
p7800
S'DT'
p7801
sS'CharacterOffsetBegin'
p7802
S'2213'
p7803
stp7804
a(S'clock'
p7805
(dp7806
S'NamedEntityTag'
p7807
g96
sS'CharacterOffsetEnd'
p7808
S'2222'
p7809
sS'Lemma'
p7810
S'clock'
p7811
sS'PartOfSpeech'
p7812
S'NN'
p7813
sS'CharacterOffsetBegin'
p7814
S'2217'
p7815
stp7816
a(g192
(dp7817
S'NamedEntityTag'
p7818
g96
sS'CharacterOffsetEnd'
p7819
S'2223'
p7820
sS'Lemma'
p7821
g192
sS'PartOfSpeech'
p7822
g192
sS'CharacterOffsetBegin'
p7823
S'2222'
p7824
stp7825
asa(dp7826
g7
S'(ROOT (S (CC And) (NP (PRP she)) (VP (VBD urged) (SBAR (S (NP (NP (DT the) (NN world) (NN _)) (CC and) (NP (JJ American) (NNS critics))) (VP (VBP _) (S (VP (TO to) (VP (VP (VB be) (NP (NP (NN patient)) (PP (IN with) (NP (NP (DT the) (NNS workings)) (PP (IN of) (NP (NP (DT the) (JJ democratic) (NN process)) (PP (IN in) (NP (NNP Russia))))))))) (CC and) (RB not) (VP (VB start) (NP (DT each) (NN day)) (PP (IN by) (S (VP (VBG taking) (NP (NP (DT a) (NN census)) (PP (IN of) (NP (NP (NNS reformers)) (PP (IN in) (NP (NP (DT the) (NNP Kremlin)) (, ,) (NP (NP (DT a) (NN census)) (SBAR (WHNP (WDT that)) (S (NP (JJ American) (NNS officials)) (ADVP (PRP themselves)) (VP (VBD promoted) (SBAR (IN before) (S (NP (NNP President) (NNP Boris) (NNP Yeltsin)) (VP (VBD dismissed) (NP (DT the) (JJ previous) (NN government))))))))))))))))))))))))) (. .)))'
p7827
sg9
S'And she urged the world _ and American critics _ to be patient with the workings of the democratic process in Russia and not start each day by taking a census of reformers in the Kremlin, a census that American officials themselves promoted before President Boris Yeltsin dismissed the previous government.'
p7828
sg11
(lp7829
(S'root'
p7830
S'ROOT'
p7831
S'urged'
p7832
tp7833
a(S'cc'
p7834
S'urged'
p7835
S'And'
p7836
tp7837
a(S'nsubj'
p7838
S'urged'
p7839
S'she'
p7840
tp7841
a(S'det'
p7842
S'_'
p7843
S'the'
p7844
tp7845
a(S'nn'
p7846
g7843
S'world'
p7847
tp7848
a(S'nsubj'
p7849
g7843
g7843
tp7850
a(S'amod'
p7851
S'critics'
p7852
S'American'
p7853
tp7854
a(S'conj_and'
p7855
g7843
S'critics'
p7856
tp7857
a(S'ccomp'
p7858
S'urged'
p7859
g7843
tp7860
a(S'aux'
p7861
S'patient'
p7862
S'to'
p7863
tp7864
a(S'cop'
p7865
S'patient'
p7866
S'be'
p7867
tp7868
a(S'xcomp'
p7869
g7843
S'patient'
p7870
tp7871
a(S'det'
p7872
S'workings'
p7873
S'the'
p7874
tp7875
a(S'prep_with'
p7876
S'patient'
p7877
S'workings'
p7878
tp7879
a(S'det'
p7880
S'process'
p7881
S'the'
p7882
tp7883
a(S'amod'
p7884
S'process'
p7885
S'democratic'
p7886
tp7887
a(S'prep_of'
p7888
S'workings'
p7889
S'process'
p7890
tp7891
a(S'prep_in'
p7892
S'process'
p7893
S'Russia'
p7894
tp7895
a(S'conj_and'
p7896
S'patient'
p7897
S'not'
p7898
tp7899
a(S'dep'
p7900
S'patient'
p7901
S'start'
p7902
tp7903
a(S'det'
p7904
S'day'
p7905
S'each'
p7906
tp7907
a(S'tmod'
p7908
S'start'
p7909
S'day'
p7910
tp7911
a(S'prepc_by'
p7912
S'start'
p7913
S'taking'
p7914
tp7915
a(S'det'
p7916
S'census'
p7917
g1558
tp7918
a(S'dobj'
p7919
S'taking'
p7920
S'census'
p7921
tp7922
a(S'prep_of'
p7923
S'census'
p7924
S'reformers'
p7925
tp7926
a(S'det'
p7927
S'Kremlin'
p7928
S'the'
p7929
tp7930
a(S'prep_in'
p7931
S'reformers'
p7932
S'Kremlin'
p7933
tp7934
a(S'det'
p7935
S'census'
p7936
g1558
tp7937
a(S'appos'
p7938
S'Kremlin'
p7939
S'census'
p7940
tp7941
a(S'dobj'
p7942
S'promoted'
p7943
S'that'
p7944
tp7945
a(S'amod'
p7946
S'officials'
p7947
S'American'
p7948
tp7949
a(S'nsubj'
p7950
S'promoted'
p7951
S'officials'
p7952
tp7953
a(S'advmod'
p7954
S'promoted'
p7955
S'themselves'
p7956
tp7957
a(S'rcmod'
p7958
S'census'
p7959
S'promoted'
p7960
tp7961
a(S'mark'
p7962
S'dismissed'
p7963
S'before'
p7964
tp7965
a(S'nn'
p7966
S'Yeltsin'
p7967
S'President'
p7968
tp7969
a(S'nn'
p7970
S'Yeltsin'
p7971
S'Boris'
p7972
tp7973
a(S'nsubj'
p7974
S'dismissed'
p7975
S'Yeltsin'
p7976
tp7977
a(S'advcl'
p7978
S'promoted'
p7979
S'dismissed'
p7980
tp7981
a(S'det'
p7982
S'government'
p7983
S'the'
p7984
tp7985
a(S'amod'
p7986
S'government'
p7987
S'previous'
p7988
tp7989
a(S'dobj'
p7990
S'dismissed'
p7991
S'government'
p7992
tp7993
asg49
(lp7994
(g7830
S'ROOT-0'
p7995
S'urged-3'
p7996
tp7997
a(g7834
S'urged-3'
p7998
S'And-1'
p7999
tp8000
a(g7838
S'urged-3'
p8001
S'she-2'
p8002
tp8003
a(g7842
S'_-6'
p8004
S'the-4'
p8005
tp8006
a(g7846
S'_-6'
p8007
S'world-5'
p8008
tp8009
a(g7849
S'_-10'
p8010
S'_-6'
p8011
tp8012
a(g7851
S'critics-9'
p8013
S'American-8'
p8014
tp8015
a(g7855
S'_-6'
p8016
S'critics-9'
p8017
tp8018
a(g7858
S'urged-3'
p8019
S'_-10'
p8020
tp8021
a(g7861
S'patient-13'
p8022
S'to-11'
p8023
tp8024
a(g7865
S'patient-13'
p8025
S'be-12'
p8026
tp8027
a(g7869
S'_-10'
p8028
S'patient-13'
p8029
tp8030
a(g7872
S'workings-16'
p8031
S'the-15'
p8032
tp8033
a(g7876
S'patient-13'
p8034
S'workings-16'
p8035
tp8036
a(g7880
S'process-20'
p8037
S'the-18'
p8038
tp8039
a(g7884
S'process-20'
p8040
S'democratic-19'
p8041
tp8042
a(g7888
S'workings-16'
p8043
S'process-20'
p8044
tp8045
a(g7892
S'process-20'
p8046
S'Russia-22'
p8047
tp8048
a(g7896
S'patient-13'
p8049
S'not-24'
p8050
tp8051
a(g7900
S'patient-13'
p8052
S'start-25'
p8053
tp8054
a(g7904
S'day-27'
p8055
S'each-26'
p8056
tp8057
a(g7908
S'start-25'
p8058
S'day-27'
p8059
tp8060
a(g7912
S'start-25'
p8061
S'taking-29'
p8062
tp8063
a(g7916
S'census-31'
p8064
S'a-30'
p8065
tp8066
a(g7919
S'taking-29'
p8067
S'census-31'
p8068
tp8069
a(g7923
S'census-31'
p8070
S'reformers-33'
p8071
tp8072
a(g7927
S'Kremlin-36'
p8073
S'the-35'
p8074
tp8075
a(g7931
S'reformers-33'
p8076
S'Kremlin-36'
p8077
tp8078
a(g7935
S'census-39'
p8079
S'a-38'
p8080
tp8081
a(g7938
S'Kremlin-36'
p8082
S'census-39'
p8083
tp8084
a(g7942
S'promoted-44'
p8085
S'that-40'
p8086
tp8087
a(g7946
S'officials-42'
p8088
S'American-41'
p8089
tp8090
a(g7950
S'promoted-44'
p8091
S'officials-42'
p8092
tp8093
a(g7954
S'promoted-44'
p8094
S'themselves-43'
p8095
tp8096
a(g7958
S'census-39'
p8097
S'promoted-44'
p8098
tp8099
a(g7962
S'dismissed-49'
p8100
S'before-45'
p8101
tp8102
a(g7966
S'Yeltsin-48'
p8103
S'President-46'
p8104
tp8105
a(g7970
S'Yeltsin-48'
p8106
S'Boris-47'
p8107
tp8108
a(g7974
S'dismissed-49'
p8109
S'Yeltsin-48'
p8110
tp8111
a(g7978
S'promoted-44'
p8112
S'dismissed-49'
p8113
tp8114
a(g7982
S'government-52'
p8115
S'the-50'
p8116
tp8117
a(g7986
S'government-52'
p8118
S'previous-51'
p8119
tp8120
a(g7990
S'dismissed-49'
p8121
S'government-52'
p8122
tp8123
asg78
(lp8124
(S'And'
p8125
(dp8126
S'NamedEntityTag'
p8127
g96
sS'CharacterOffsetEnd'
p8128
S'2227'
p8129
sS'Lemma'
p8130
S'and'
p8131
sS'PartOfSpeech'
p8132
S'CC'
p8133
sS'CharacterOffsetBegin'
p8134
S'2224'
p8135
stp8136
a(S'she'
p8137
(dp8138
S'NamedEntityTag'
p8139
g96
sS'CharacterOffsetEnd'
p8140
S'2231'
p8141
sS'Lemma'
p8142
S'she'
p8143
sS'PartOfSpeech'
p8144
S'PRP'
p8145
sS'CharacterOffsetBegin'
p8146
S'2228'
p8147
stp8148
a(S'urged'
p8149
(dp8150
S'NamedEntityTag'
p8151
g96
sS'CharacterOffsetEnd'
p8152
S'2237'
p8153
sS'Lemma'
p8154
S'urge'
p8155
sS'PartOfSpeech'
p8156
S'VBD'
p8157
sS'CharacterOffsetBegin'
p8158
S'2232'
p8159
stp8160
a(S'the'
p8161
(dp8162
S'NamedEntityTag'
p8163
g96
sS'CharacterOffsetEnd'
p8164
S'2241'
p8165
sS'Lemma'
p8166
S'the'
p8167
sS'PartOfSpeech'
p8168
S'DT'
p8169
sS'CharacterOffsetBegin'
p8170
S'2238'
p8171
stp8172
a(S'world'
p8173
(dp8174
S'NamedEntityTag'
p8175
g96
sS'CharacterOffsetEnd'
p8176
S'2247'
p8177
sS'Lemma'
p8178
S'world'
p8179
sS'PartOfSpeech'
p8180
S'NN'
p8181
sS'CharacterOffsetBegin'
p8182
S'2242'
p8183
stp8184
a(g7843
(dp8185
S'NamedEntityTag'
p8186
g96
sS'CharacterOffsetEnd'
p8187
S'2249'
p8188
sS'Lemma'
p8189
g7843
sS'PartOfSpeech'
p8190
S'NN'
p8191
sS'CharacterOffsetBegin'
p8192
S'2248'
p8193
stp8194
a(S'and'
p8195
(dp8196
S'NamedEntityTag'
p8197
g96
sS'CharacterOffsetEnd'
p8198
S'2253'
p8199
sS'Lemma'
p8200
S'and'
p8201
sS'PartOfSpeech'
p8202
S'CC'
p8203
sS'CharacterOffsetBegin'
p8204
S'2250'
p8205
stp8206
a(S'American'
p8207
(dp8208
S'NamedEntityTag'
p8209
S'LOCATION'
p8210
sS'CharacterOffsetEnd'
p8211
S'2262'
p8212
sS'Lemma'
p8213
S'american'
p8214
sS'PartOfSpeech'
p8215
S'JJ'
p8216
sS'CharacterOffsetBegin'
p8217
S'2254'
p8218
stp8219
a(S'critics'
p8220
(dp8221
S'NamedEntityTag'
p8222
g96
sS'CharacterOffsetEnd'
p8223
S'2270'
p8224
sS'Lemma'
p8225
S'critic'
p8226
sS'PartOfSpeech'
p8227
S'NNS'
p8228
sS'CharacterOffsetBegin'
p8229
S'2263'
p8230
stp8231
a(g7843
(dp8232
S'NamedEntityTag'
p8233
g96
sS'CharacterOffsetEnd'
p8234
S'2272'
p8235
sS'Lemma'
p8236
g7843
sS'PartOfSpeech'
p8237
S'VBP'
p8238
sS'CharacterOffsetBegin'
p8239
S'2271'
p8240
stp8241
a(S'to'
p8242
(dp8243
S'NamedEntityTag'
p8244
g96
sS'CharacterOffsetEnd'
p8245
S'2275'
p8246
sS'Lemma'
p8247
S'to'
p8248
sS'PartOfSpeech'
p8249
S'TO'
p8250
sS'CharacterOffsetBegin'
p8251
S'2273'
p8252
stp8253
a(S'be'
p8254
(dp8255
S'NamedEntityTag'
p8256
g96
sS'CharacterOffsetEnd'
p8257
S'2278'
p8258
sS'Lemma'
p8259
S'be'
p8260
sS'PartOfSpeech'
p8261
S'VB'
p8262
sS'CharacterOffsetBegin'
p8263
S'2276'
p8264
stp8265
a(S'patient'
p8266
(dp8267
S'NamedEntityTag'
p8268
g96
sS'CharacterOffsetEnd'
p8269
S'2286'
p8270
sS'Lemma'
p8271
S'patient'
p8272
sS'PartOfSpeech'
p8273
S'NN'
p8274
sS'CharacterOffsetBegin'
p8275
S'2279'
p8276
stp8277
a(S'with'
p8278
(dp8279
S'NamedEntityTag'
p8280
g96
sS'CharacterOffsetEnd'
p8281
S'2291'
p8282
sS'Lemma'
p8283
S'with'
p8284
sS'PartOfSpeech'
p8285
S'IN'
p8286
sS'CharacterOffsetBegin'
p8287
S'2287'
p8288
stp8289
a(S'the'
p8290
(dp8291
S'NamedEntityTag'
p8292
g96
sS'CharacterOffsetEnd'
p8293
S'2295'
p8294
sS'Lemma'
p8295
S'the'
p8296
sS'PartOfSpeech'
p8297
S'DT'
p8298
sS'CharacterOffsetBegin'
p8299
S'2292'
p8300
stp8301
a(S'workings'
p8302
(dp8303
S'NamedEntityTag'
p8304
g96
sS'CharacterOffsetEnd'
p8305
S'2304'
p8306
sS'Lemma'
p8307
S'workings'
p8308
sS'PartOfSpeech'
p8309
S'NNS'
p8310
sS'CharacterOffsetBegin'
p8311
S'2296'
p8312
stp8313
a(S'of'
p8314
(dp8315
S'NamedEntityTag'
p8316
g96
sS'CharacterOffsetEnd'
p8317
S'2307'
p8318
sS'Lemma'
p8319
S'of'
p8320
sS'PartOfSpeech'
p8321
S'IN'
p8322
sS'CharacterOffsetBegin'
p8323
S'2305'
p8324
stp8325
a(S'the'
p8326
(dp8327
S'NamedEntityTag'
p8328
g96
sS'CharacterOffsetEnd'
p8329
S'2311'
p8330
sS'Lemma'
p8331
S'the'
p8332
sS'PartOfSpeech'
p8333
S'DT'
p8334
sS'CharacterOffsetBegin'
p8335
S'2308'
p8336
stp8337
a(S'democratic'
p8338
(dp8339
S'NamedEntityTag'
p8340
g96
sS'CharacterOffsetEnd'
p8341
S'2322'
p8342
sS'Lemma'
p8343
S'democratic'
p8344
sS'PartOfSpeech'
p8345
S'JJ'
p8346
sS'CharacterOffsetBegin'
p8347
S'2312'
p8348
stp8349
a(S'process'
p8350
(dp8351
S'NamedEntityTag'
p8352
g96
sS'CharacterOffsetEnd'
p8353
S'2330'
p8354
sS'Lemma'
p8355
S'process'
p8356
sS'PartOfSpeech'
p8357
S'NN'
p8358
sS'CharacterOffsetBegin'
p8359
S'2323'
p8360
stp8361
a(S'in'
p8362
(dp8363
S'NamedEntityTag'
p8364
g96
sS'CharacterOffsetEnd'
p8365
S'2333'
p8366
sS'Lemma'
p8367
S'in'
p8368
sS'PartOfSpeech'
p8369
S'IN'
p8370
sS'CharacterOffsetBegin'
p8371
S'2331'
p8372
stp8373
a(S'Russia'
p8374
(dp8375
S'NamedEntityTag'
p8376
S'LOCATION'
p8377
sS'CharacterOffsetEnd'
p8378
S'2340'
p8379
sS'Lemma'
p8380
S'Russia'
p8381
sS'PartOfSpeech'
p8382
S'NNP'
p8383
sS'CharacterOffsetBegin'
p8384
S'2334'
p8385
stp8386
a(S'and'
p8387
(dp8388
S'NamedEntityTag'
p8389
g96
sS'CharacterOffsetEnd'
p8390
S'2344'
p8391
sS'Lemma'
p8392
S'and'
p8393
sS'PartOfSpeech'
p8394
S'CC'
p8395
sS'CharacterOffsetBegin'
p8396
S'2341'
p8397
stp8398
a(S'not'
p8399
(dp8400
S'NamedEntityTag'
p8401
g96
sS'CharacterOffsetEnd'
p8402
S'2348'
p8403
sS'Lemma'
p8404
S'not'
p8405
sS'PartOfSpeech'
p8406
S'RB'
p8407
sS'CharacterOffsetBegin'
p8408
S'2345'
p8409
stp8410
a(S'start'
p8411
(dp8412
S'NamedEntityTag'
p8413
g96
sS'CharacterOffsetEnd'
p8414
S'2354'
p8415
sS'Lemma'
p8416
S'start'
p8417
sS'PartOfSpeech'
p8418
S'VB'
p8419
sS'CharacterOffsetBegin'
p8420
S'2349'
p8421
stp8422
a(S'each'
p8423
(dp8424
S'Timex'
p8425
S'<TIMEX3 periodicity="P1D" quant="each" tid="t7" type="SET" value="P1D">each day</TIMEX3>'
p8426
sS'Lemma'
p8427
S'each'
p8428
sS'CharacterOffsetEnd'
p8429
S'2359'
p8430
sS'PartOfSpeech'
p8431
S'DT'
p8432
sS'CharacterOffsetBegin'
p8433
S'2355'
p8434
sS'NamedEntityTag'
p8435
S'SET'
p8436
stp8437
a(S'day'
p8438
(dp8439
S'Timex'
p8440
S'<TIMEX3 periodicity="P1D" quant="each" tid="t7" type="SET" value="P1D">each day</TIMEX3>'
p8441
sS'Lemma'
p8442
S'day'
p8443
sS'CharacterOffsetEnd'
p8444
S'2363'
p8445
sS'PartOfSpeech'
p8446
S'NN'
p8447
sS'CharacterOffsetBegin'
p8448
S'2360'
p8449
sS'NamedEntityTag'
p8450
S'SET'
p8451
stp8452
a(S'by'
p8453
(dp8454
S'NamedEntityTag'
p8455
g96
sS'CharacterOffsetEnd'
p8456
S'2366'
p8457
sS'Lemma'
p8458
S'by'
p8459
sS'PartOfSpeech'
p8460
S'IN'
p8461
sS'CharacterOffsetBegin'
p8462
S'2364'
p8463
stp8464
a(S'taking'
p8465
(dp8466
S'NamedEntityTag'
p8467
g96
sS'CharacterOffsetEnd'
p8468
S'2373'
p8469
sS'Lemma'
p8470
S'take'
p8471
sS'PartOfSpeech'
p8472
S'VBG'
p8473
sS'CharacterOffsetBegin'
p8474
S'2367'
p8475
stp8476
a(g1558
(dp8477
S'NamedEntityTag'
p8478
g96
sS'CharacterOffsetEnd'
p8479
S'2375'
p8480
sS'Lemma'
p8481
g1558
sS'PartOfSpeech'
p8482
S'DT'
p8483
sS'CharacterOffsetBegin'
p8484
S'2374'
p8485
stp8486
a(S'census'
p8487
(dp8488
S'NamedEntityTag'
p8489
g96
sS'CharacterOffsetEnd'
p8490
S'2382'
p8491
sS'Lemma'
p8492
S'census'
p8493
sS'PartOfSpeech'
p8494
S'NN'
p8495
sS'CharacterOffsetBegin'
p8496
S'2376'
p8497
stp8498
a(S'of'
p8499
(dp8500
S'NamedEntityTag'
p8501
g96
sS'CharacterOffsetEnd'
p8502
S'2385'
p8503
sS'Lemma'
p8504
S'of'
p8505
sS'PartOfSpeech'
p8506
S'IN'
p8507
sS'CharacterOffsetBegin'
p8508
S'2383'
p8509
stp8510
a(S'reformers'
p8511
(dp8512
S'NamedEntityTag'
p8513
g96
sS'CharacterOffsetEnd'
p8514
S'2395'
p8515
sS'Lemma'
p8516
S'reformer'
p8517
sS'PartOfSpeech'
p8518
S'NNS'
p8519
sS'CharacterOffsetBegin'
p8520
S'2386'
p8521
stp8522
a(S'in'
p8523
(dp8524
S'NamedEntityTag'
p8525
g96
sS'CharacterOffsetEnd'
p8526
S'2398'
p8527
sS'Lemma'
p8528
S'in'
p8529
sS'PartOfSpeech'
p8530
S'IN'
p8531
sS'CharacterOffsetBegin'
p8532
S'2396'
p8533
stp8534
a(S'the'
p8535
(dp8536
S'NamedEntityTag'
p8537
g96
sS'CharacterOffsetEnd'
p8538
S'2402'
p8539
sS'Lemma'
p8540
S'the'
p8541
sS'PartOfSpeech'
p8542
S'DT'
p8543
sS'CharacterOffsetBegin'
p8544
S'2399'
p8545
stp8546
a(S'Kremlin'
p8547
(dp8548
S'NamedEntityTag'
p8549
S'LOCATION'
p8550
sS'CharacterOffsetEnd'
p8551
S'2410'
p8552
sS'Lemma'
p8553
S'Kremlin'
p8554
sS'PartOfSpeech'
p8555
S'NNP'
p8556
sS'CharacterOffsetBegin'
p8557
S'2403'
p8558
stp8559
a(g1332
(dp8560
S'NamedEntityTag'
p8561
g96
sS'CharacterOffsetEnd'
p8562
S'2411'
p8563
sS'Lemma'
p8564
g1332
sS'PartOfSpeech'
p8565
g1332
sS'CharacterOffsetBegin'
p8566
S'2410'
p8567
stp8568
a(g1558
(dp8569
S'NamedEntityTag'
p8570
g96
sS'CharacterOffsetEnd'
p8571
S'2413'
p8572
sS'Lemma'
p8573
g1558
sS'PartOfSpeech'
p8574
S'DT'
p8575
sS'CharacterOffsetBegin'
p8576
S'2412'
p8577
stp8578
a(S'census'
p8579
(dp8580
S'NamedEntityTag'
p8581
g96
sS'CharacterOffsetEnd'
p8582
S'2420'
p8583
sS'Lemma'
p8584
S'census'
p8585
sS'PartOfSpeech'
p8586
S'NN'
p8587
sS'CharacterOffsetBegin'
p8588
S'2414'
p8589
stp8590
a(S'that'
p8591
(dp8592
S'NamedEntityTag'
p8593
g96
sS'CharacterOffsetEnd'
p8594
S'2425'
p8595
sS'Lemma'
p8596
S'that'
p8597
sS'PartOfSpeech'
p8598
S'WDT'
p8599
sS'CharacterOffsetBegin'
p8600
S'2421'
p8601
stp8602
a(S'American'
p8603
(dp8604
S'NamedEntityTag'
p8605
S'MISC'
p8606
sS'CharacterOffsetEnd'
p8607
S'2434'
p8608
sS'Lemma'
p8609
S'american'
p8610
sS'PartOfSpeech'
p8611
S'JJ'
p8612
sS'CharacterOffsetBegin'
p8613
S'2426'
p8614
stp8615
a(S'officials'
p8616
(dp8617
S'NamedEntityTag'
p8618
g96
sS'CharacterOffsetEnd'
p8619
S'2444'
p8620
sS'Lemma'
p8621
S'official'
p8622
sS'PartOfSpeech'
p8623
S'NNS'
p8624
sS'CharacterOffsetBegin'
p8625
S'2435'
p8626
stp8627
a(S'themselves'
p8628
(dp8629
S'NamedEntityTag'
p8630
g96
sS'CharacterOffsetEnd'
p8631
S'2455'
p8632
sS'Lemma'
p8633
S'themselves'
p8634
sS'PartOfSpeech'
p8635
S'PRP'
p8636
sS'CharacterOffsetBegin'
p8637
S'2445'
p8638
stp8639
a(S'promoted'
p8640
(dp8641
S'NamedEntityTag'
p8642
g96
sS'CharacterOffsetEnd'
p8643
S'2464'
p8644
sS'Lemma'
p8645
S'promote'
p8646
sS'PartOfSpeech'
p8647
S'VBD'
p8648
sS'CharacterOffsetBegin'
p8649
S'2456'
p8650
stp8651
a(S'before'
p8652
(dp8653
S'NamedEntityTag'
p8654
g96
sS'CharacterOffsetEnd'
p8655
S'2471'
p8656
sS'Lemma'
p8657
S'before'
p8658
sS'PartOfSpeech'
p8659
S'IN'
p8660
sS'CharacterOffsetBegin'
p8661
S'2465'
p8662
stp8663
a(S'President'
p8664
(dp8665
S'NamedEntityTag'
p8666
g96
sS'CharacterOffsetEnd'
p8667
S'2481'
p8668
sS'Lemma'
p8669
S'President'
p8670
sS'PartOfSpeech'
p8671
S'NNP'
p8672
sS'CharacterOffsetBegin'
p8673
S'2472'
p8674
stp8675
a(S'Boris'
p8676
(dp8677
S'NamedEntityTag'
p8678
S'PERSON'
p8679
sS'CharacterOffsetEnd'
p8680
S'2487'
p8681
sS'Lemma'
p8682
S'Boris'
p8683
sS'PartOfSpeech'
p8684
S'NNP'
p8685
sS'CharacterOffsetBegin'
p8686
S'2482'
p8687
stp8688
a(S'Yeltsin'
p8689
(dp8690
S'NamedEntityTag'
p8691
S'PERSON'
p8692
sS'CharacterOffsetEnd'
p8693
S'2495'
p8694
sS'Lemma'
p8695
S'Yeltsin'
p8696
sS'PartOfSpeech'
p8697
S'NNP'
p8698
sS'CharacterOffsetBegin'
p8699
S'2488'
p8700
stp8701
a(S'dismissed'
p8702
(dp8703
S'NamedEntityTag'
p8704
g96
sS'CharacterOffsetEnd'
p8705
S'2505'
p8706
sS'Lemma'
p8707
S'dismiss'
p8708
sS'PartOfSpeech'
p8709
S'VBD'
p8710
sS'CharacterOffsetBegin'
p8711
S'2496'
p8712
stp8713
a(S'the'
p8714
(dp8715
S'NamedEntityTag'
p8716
g96
sS'CharacterOffsetEnd'
p8717
S'2509'
p8718
sS'Lemma'
p8719
S'the'
p8720
sS'PartOfSpeech'
p8721
S'DT'
p8722
sS'CharacterOffsetBegin'
p8723
S'2506'
p8724
stp8725
a(S'previous'
p8726
(dp8727
S'NamedEntityTag'
p8728
g96
sS'CharacterOffsetEnd'
p8729
S'2518'
p8730
sS'Lemma'
p8731
S'previous'
p8732
sS'PartOfSpeech'
p8733
S'JJ'
p8734
sS'CharacterOffsetBegin'
p8735
S'2510'
p8736
stp8737
a(S'government'
p8738
(dp8739
S'NamedEntityTag'
p8740
g96
sS'CharacterOffsetEnd'
p8741
S'2529'
p8742
sS'Lemma'
p8743
S'government'
p8744
sS'PartOfSpeech'
p8745
S'NN'
p8746
sS'CharacterOffsetBegin'
p8747
S'2519'
p8748
stp8749
a(g192
(dp8750
S'NamedEntityTag'
p8751
g96
sS'CharacterOffsetEnd'
p8752
S'2530'
p8753
sS'Lemma'
p8754
g192
sS'PartOfSpeech'
p8755
g192
sS'CharacterOffsetBegin'
p8756
S'2529'
p8757
stp8758
asa(dp8759
g7
S'(ROOT (S (S (SBAR (IN While) (S (NP (NNP Moscow)) (VP (MD may) (VP (VB continue) (S (VP (TO to) (VP (VB oppose) (NP (NP (DT any) (NNP NATO) (NN use)) (PP (IN of) (NP (NN force)))) (PP (IN against) (NP (JJ Serbian) (NNS forces))) (PP (IN in) (NP (NP (DT the) (JJ southern) (NN province)) (PP (IN of) (NP (NNP Kosovo)))))))))))) (, ,) (NP (NNP Albright)) (VP (VBD said))) (, ,) (NP (NNP NATO)) (VP (MD must) (VP (VB be) (VP (VBN prepared) (S (VP (TO to) (VP (VB act) (ADVP (RB regardless)))))))) (. .)))'
p8760
sg9
S'While Moscow may continue to oppose any NATO use of force against Serbian forces in the southern province of Kosovo, Albright said, NATO must be prepared to act regardless.'
p8761
sg11
(lp8762
(S'root'
p8763
S'ROOT'
p8764
S'prepared'
p8765
tp8766
a(S'mark'
p8767
S'continue'
p8768
S'While'
p8769
tp8770
a(S'nsubj'
p8771
S'continue'
p8772
S'Moscow'
p8773
tp8774
a(S'aux'
p8775
S'continue'
p8776
S'may'
p8777
tp8778
a(S'advcl'
p8779
S'said'
p8780
S'continue'
p8781
tp8782
a(S'aux'
p8783
S'oppose'
p8784
S'to'
p8785
tp8786
a(S'xcomp'
p8787
S'continue'
p8788
S'oppose'
p8789
tp8790
a(S'det'
p8791
S'use'
p8792
S'any'
p8793
tp8794
a(S'nn'
p8795
S'use'
p8796
S'NATO'
p8797
tp8798
a(S'dobj'
p8799
S'oppose'
p8800
S'use'
p8801
tp8802
a(S'prep_of'
p8803
S'use'
p8804
S'force'
p8805
tp8806
a(S'amod'
p8807
S'forces'
p8808
S'Serbian'
p8809
tp8810
a(S'prep_against'
p8811
S'oppose'
p8812
S'forces'
p8813
tp8814
a(S'det'
p8815
S'province'
p8816
S'the'
p8817
tp8818
a(S'amod'
p8819
S'province'
p8820
S'southern'
p8821
tp8822
a(S'prep_in'
p8823
S'oppose'
p8824
S'province'
p8825
tp8826
a(S'prep_of'
p8827
S'province'
p8828
S'Kosovo'
p8829
tp8830
a(S'nsubj'
p8831
S'said'
p8832
S'Albright'
p8833
tp8834
a(S'ccomp'
p8835
S'prepared'
p8836
S'said'
p8837
tp8838
a(S'nsubjpass'
p8839
S'prepared'
p8840
S'NATO'
p8841
tp8842
a(S'aux'
p8843
S'prepared'
p8844
S'must'
p8845
tp8846
a(S'auxpass'
p8847
S'prepared'
p8848
S'be'
p8849
tp8850
a(S'aux'
p8851
S'act'
p8852
S'to'
p8853
tp8854
a(S'xcomp'
p8855
S'prepared'
p8856
S'act'
p8857
tp8858
a(S'advmod'
p8859
S'act'
p8860
S'regardless'
p8861
tp8862
asg49
(lp8863
(g8763
S'ROOT-0'
p8864
S'prepared-28'
p8865
tp8866
a(g8767
S'continue-4'
p8867
S'While-1'
p8868
tp8869
a(g8771
S'continue-4'
p8870
S'Moscow-2'
p8871
tp8872
a(g8775
S'continue-4'
p8873
S'may-3'
p8874
tp8875
a(g8779
S'said-23'
p8876
S'continue-4'
p8877
tp8878
a(g8783
S'oppose-6'
p8879
S'to-5'
p8880
tp8881
a(g8787
S'continue-4'
p8882
S'oppose-6'
p8883
tp8884
a(g8791
S'use-9'
p8885
S'any-7'
p8886
tp8887
a(g8795
S'use-9'
p8888
S'NATO-8'
p8889
tp8890
a(g8799
S'oppose-6'
p8891
S'use-9'
p8892
tp8893
a(g8803
S'use-9'
p8894
S'force-11'
p8895
tp8896
a(g8807
S'forces-14'
p8897
S'Serbian-13'
p8898
tp8899
a(g8811
S'oppose-6'
p8900
S'forces-14'
p8901
tp8902
a(g8815
S'province-18'
p8903
S'the-16'
p8904
tp8905
a(g8819
S'province-18'
p8906
S'southern-17'
p8907
tp8908
a(g8823
S'oppose-6'
p8909
S'province-18'
p8910
tp8911
a(g8827
S'province-18'
p8912
S'Kosovo-20'
p8913
tp8914
a(g8831
S'said-23'
p8915
S'Albright-22'
p8916
tp8917
a(g8835
S'prepared-28'
p8918
S'said-23'
p8919
tp8920
a(g8839
S'prepared-28'
p8921
S'NATO-25'
p8922
tp8923
a(g8843
S'prepared-28'
p8924
S'must-26'
p8925
tp8926
a(g8847
S'prepared-28'
p8927
S'be-27'
p8928
tp8929
a(g8851
S'act-30'
p8930
S'to-29'
p8931
tp8932
a(g8855
S'prepared-28'
p8933
S'act-30'
p8934
tp8935
a(g8859
S'act-30'
p8936
S'regardless-31'
p8937
tp8938
asg78
(lp8939
(S'While'
p8940
(dp8941
S'NamedEntityTag'
p8942
g96
sS'CharacterOffsetEnd'
p8943
S'2536'
p8944
sS'Lemma'
p8945
S'while'
p8946
sS'PartOfSpeech'
p8947
S'IN'
p8948
sS'CharacterOffsetBegin'
p8949
S'2531'
p8950
stp8951
a(S'Moscow'
p8952
(dp8953
S'NamedEntityTag'
p8954
S'LOCATION'
p8955
sS'CharacterOffsetEnd'
p8956
S'2543'
p8957
sS'Lemma'
p8958
S'Moscow'
p8959
sS'PartOfSpeech'
p8960
S'NNP'
p8961
sS'CharacterOffsetBegin'
p8962
S'2537'
p8963
stp8964
a(S'may'
p8965
(dp8966
S'NamedEntityTag'
p8967
g96
sS'CharacterOffsetEnd'
p8968
S'2547'
p8969
sS'Lemma'
p8970
S'may'
p8971
sS'PartOfSpeech'
p8972
S'MD'
p8973
sS'CharacterOffsetBegin'
p8974
S'2544'
p8975
stp8976
a(S'continue'
p8977
(dp8978
S'NamedEntityTag'
p8979
g96
sS'CharacterOffsetEnd'
p8980
S'2556'
p8981
sS'Lemma'
p8982
S'continue'
p8983
sS'PartOfSpeech'
p8984
S'VB'
p8985
sS'CharacterOffsetBegin'
p8986
S'2548'
p8987
stp8988
a(S'to'
p8989
(dp8990
S'NamedEntityTag'
p8991
g96
sS'CharacterOffsetEnd'
p8992
S'2559'
p8993
sS'Lemma'
p8994
S'to'
p8995
sS'PartOfSpeech'
p8996
S'TO'
p8997
sS'CharacterOffsetBegin'
p8998
S'2557'
p8999
stp9000
a(S'oppose'
p9001
(dp9002
S'NamedEntityTag'
p9003
g96
sS'CharacterOffsetEnd'
p9004
S'2566'
p9005
sS'Lemma'
p9006
S'oppose'
p9007
sS'PartOfSpeech'
p9008
S'VB'
p9009
sS'CharacterOffsetBegin'
p9010
S'2560'
p9011
stp9012
a(S'any'
p9013
(dp9014
S'NamedEntityTag'
p9015
g96
sS'CharacterOffsetEnd'
p9016
S'2570'
p9017
sS'Lemma'
p9018
S'any'
p9019
sS'PartOfSpeech'
p9020
S'DT'
p9021
sS'CharacterOffsetBegin'
p9022
S'2567'
p9023
stp9024
a(S'NATO'
p9025
(dp9026
S'NamedEntityTag'
p9027
S'ORGANIZATION'
p9028
sS'CharacterOffsetEnd'
p9029
S'2575'
p9030
sS'Lemma'
p9031
S'NATO'
p9032
sS'PartOfSpeech'
p9033
S'NNP'
p9034
sS'CharacterOffsetBegin'
p9035
S'2571'
p9036
stp9037
a(S'use'
p9038
(dp9039
S'NamedEntityTag'
p9040
g96
sS'CharacterOffsetEnd'
p9041
S'2579'
p9042
sS'Lemma'
p9043
S'use'
p9044
sS'PartOfSpeech'
p9045
S'NN'
p9046
sS'CharacterOffsetBegin'
p9047
S'2576'
p9048
stp9049
a(S'of'
p9050
(dp9051
S'NamedEntityTag'
p9052
g96
sS'CharacterOffsetEnd'
p9053
S'2582'
p9054
sS'Lemma'
p9055
S'of'
p9056
sS'PartOfSpeech'
p9057
S'IN'
p9058
sS'CharacterOffsetBegin'
p9059
S'2580'
p9060
stp9061
a(S'force'
p9062
(dp9063
S'NamedEntityTag'
p9064
g96
sS'CharacterOffsetEnd'
p9065
S'2588'
p9066
sS'Lemma'
p9067
S'force'
p9068
sS'PartOfSpeech'
p9069
S'NN'
p9070
sS'CharacterOffsetBegin'
p9071
S'2583'
p9072
stp9073
a(S'against'
p9074
(dp9075
S'NamedEntityTag'
p9076
g96
sS'CharacterOffsetEnd'
p9077
S'2596'
p9078
sS'Lemma'
p9079
S'against'
p9080
sS'PartOfSpeech'
p9081
S'IN'
p9082
sS'CharacterOffsetBegin'
p9083
S'2589'
p9084
stp9085
a(S'Serbian'
p9086
(dp9087
S'NamedEntityTag'
p9088
S'MISC'
p9089
sS'CharacterOffsetEnd'
p9090
S'2604'
p9091
sS'Lemma'
p9092
S'serbian'
p9093
sS'PartOfSpeech'
p9094
S'JJ'
p9095
sS'CharacterOffsetBegin'
p9096
S'2597'
p9097
stp9098
a(S'forces'
p9099
(dp9100
S'NamedEntityTag'
p9101
g96
sS'CharacterOffsetEnd'
p9102
S'2611'
p9103
sS'Lemma'
p9104
S'force'
p9105
sS'PartOfSpeech'
p9106
S'NNS'
p9107
sS'CharacterOffsetBegin'
p9108
S'2605'
p9109
stp9110
a(S'in'
p9111
(dp9112
S'NamedEntityTag'
p9113
g96
sS'CharacterOffsetEnd'
p9114
S'2614'
p9115
sS'Lemma'
p9116
S'in'
p9117
sS'PartOfSpeech'
p9118
S'IN'
p9119
sS'CharacterOffsetBegin'
p9120
S'2612'
p9121
stp9122
a(S'the'
p9123
(dp9124
S'NamedEntityTag'
p9125
g96
sS'CharacterOffsetEnd'
p9126
S'2618'
p9127
sS'Lemma'
p9128
S'the'
p9129
sS'PartOfSpeech'
p9130
S'DT'
p9131
sS'CharacterOffsetBegin'
p9132
S'2615'
p9133
stp9134
a(S'southern'
p9135
(dp9136
S'NamedEntityTag'
p9137
g96
sS'CharacterOffsetEnd'
p9138
S'2627'
p9139
sS'Lemma'
p9140
S'southern'
p9141
sS'PartOfSpeech'
p9142
S'JJ'
p9143
sS'CharacterOffsetBegin'
p9144
S'2619'
p9145
stp9146
a(S'province'
p9147
(dp9148
S'NamedEntityTag'
p9149
g96
sS'CharacterOffsetEnd'
p9150
S'2636'
p9151
sS'Lemma'
p9152
S'province'
p9153
sS'PartOfSpeech'
p9154
S'NN'
p9155
sS'CharacterOffsetBegin'
p9156
S'2628'
p9157
stp9158
a(S'of'
p9159
(dp9160
S'NamedEntityTag'
p9161
g96
sS'CharacterOffsetEnd'
p9162
S'2639'
p9163
sS'Lemma'
p9164
S'of'
p9165
sS'PartOfSpeech'
p9166
S'IN'
p9167
sS'CharacterOffsetBegin'
p9168
S'2637'
p9169
stp9170
a(S'Kosovo'
p9171
(dp9172
S'NamedEntityTag'
p9173
S'LOCATION'
p9174
sS'CharacterOffsetEnd'
p9175
S'2646'
p9176
sS'Lemma'
p9177
S'Kosovo'
p9178
sS'PartOfSpeech'
p9179
S'NNP'
p9180
sS'CharacterOffsetBegin'
p9181
S'2640'
p9182
stp9183
a(g1332
(dp9184
S'NamedEntityTag'
p9185
g96
sS'CharacterOffsetEnd'
p9186
S'2647'
p9187
sS'Lemma'
p9188
g1332
sS'PartOfSpeech'
p9189
g1332
sS'CharacterOffsetBegin'
p9190
S'2646'
p9191
stp9192
a(S'Albright'
p9193
(dp9194
S'NamedEntityTag'
p9195
S'PERSON'
p9196
sS'CharacterOffsetEnd'
p9197
S'2656'
p9198
sS'Lemma'
p9199
S'Albright'
p9200
sS'PartOfSpeech'
p9201
S'NNP'
p9202
sS'CharacterOffsetBegin'
p9203
S'2648'
p9204
stp9205
a(S'said'
p9206
(dp9207
S'NamedEntityTag'
p9208
g96
sS'CharacterOffsetEnd'
p9209
S'2661'
p9210
sS'Lemma'
p9211
S'say'
p9212
sS'PartOfSpeech'
p9213
S'VBD'
p9214
sS'CharacterOffsetBegin'
p9215
S'2657'
p9216
stp9217
a(g1332
(dp9218
S'NamedEntityTag'
p9219
g96
sS'CharacterOffsetEnd'
p9220
S'2662'
p9221
sS'Lemma'
p9222
g1332
sS'PartOfSpeech'
p9223
g1332
sS'CharacterOffsetBegin'
p9224
S'2661'
p9225
stp9226
a(S'NATO'
p9227
(dp9228
S'NamedEntityTag'
p9229
S'ORGANIZATION'
p9230
sS'CharacterOffsetEnd'
p9231
S'2667'
p9232
sS'Lemma'
p9233
S'NATO'
p9234
sS'PartOfSpeech'
p9235
S'NNP'
p9236
sS'CharacterOffsetBegin'
p9237
S'2663'
p9238
stp9239
a(S'must'
p9240
(dp9241
S'NamedEntityTag'
p9242
g96
sS'CharacterOffsetEnd'
p9243
S'2672'
p9244
sS'Lemma'
p9245
S'must'
p9246
sS'PartOfSpeech'
p9247
S'MD'
p9248
sS'CharacterOffsetBegin'
p9249
S'2668'
p9250
stp9251
a(S'be'
p9252
(dp9253
S'NamedEntityTag'
p9254
g96
sS'CharacterOffsetEnd'
p9255
S'2675'
p9256
sS'Lemma'
p9257
S'be'
p9258
sS'PartOfSpeech'
p9259
S'VB'
p9260
sS'CharacterOffsetBegin'
p9261
S'2673'
p9262
stp9263
a(S'prepared'
p9264
(dp9265
S'NamedEntityTag'
p9266
g96
sS'CharacterOffsetEnd'
p9267
S'2684'
p9268
sS'Lemma'
p9269
S'prepare'
p9270
sS'PartOfSpeech'
p9271
S'VBN'
p9272
sS'CharacterOffsetBegin'
p9273
S'2676'
p9274
stp9275
a(S'to'
p9276
(dp9277
S'NamedEntityTag'
p9278
g96
sS'CharacterOffsetEnd'
p9279
S'2687'
p9280
sS'Lemma'
p9281
S'to'
p9282
sS'PartOfSpeech'
p9283
S'TO'
p9284
sS'CharacterOffsetBegin'
p9285
S'2685'
p9286
stp9287
a(S'act'
p9288
(dp9289
S'NamedEntityTag'
p9290
g96
sS'CharacterOffsetEnd'
p9291
S'2691'
p9292
sS'Lemma'
p9293
S'act'
p9294
sS'PartOfSpeech'
p9295
S'VB'
p9296
sS'CharacterOffsetBegin'
p9297
S'2688'
p9298
stp9299
a(S'regardless'
p9300
(dp9301
S'NamedEntityTag'
p9302
g96
sS'CharacterOffsetEnd'
p9303
S'2702'
p9304
sS'Lemma'
p9305
S'regardless'
p9306
sS'PartOfSpeech'
p9307
S'RB'
p9308
sS'CharacterOffsetBegin'
p9309
S'2692'
p9310
stp9311
a(g192
(dp9312
S'NamedEntityTag'
p9313
g96
sS'CharacterOffsetEnd'
p9314
S'2703'
p9315
sS'Lemma'
p9316
g192
sS'PartOfSpeech'
p9317
g192
sS'CharacterOffsetBegin'
p9318
S'2702'
p9319
stp9320
asass.