(dp0
S'models'
p1
(lp2
(dp3
S'sentences'
p4
(lp5
(dp6
S'parsetree'
p7
S'(ROOT (NP (NP (JJ Chinese) (NN police)) (NP (NP (NN detain) (NN organizer)) (PP (IN of) (NP (JJ dissident) (NN group) (NN monitoring) (NN corruption))))))'
p8
sS'text'
p9
S'Chinese police detain organizer of dissident group monitoring corruption'
p10
sS'dependencies'
p11
(lp12
(S'root'
p13
S'ROOT'
p14
S'police'
p15
tp16
a(S'amod'
p17
S'police'
p18
S'Chinese'
p19
tp20
a(S'nn'
p21
S'organizer'
p22
S'detain'
p23
tp24
a(S'dep'
p25
S'police'
p26
S'organizer'
p27
tp28
a(S'amod'
p29
S'corruption'
p30
S'dissident'
p31
tp32
a(S'nn'
p33
S'corruption'
p34
S'group'
p35
tp36
a(S'nn'
p37
S'corruption'
p38
S'monitoring'
p39
tp40
a(S'prep_of'
p41
S'organizer'
p42
S'corruption'
p43
tp44
asS'indexeddependencies'
p45
(lp46
(g13
S'ROOT-0'
p47
S'police-2'
p48
tp49
a(g17
S'police-2'
p50
S'Chinese-1'
p51
tp52
a(g21
S'organizer-4'
p53
S'detain-3'
p54
tp55
a(g25
S'police-2'
p56
S'organizer-4'
p57
tp58
a(g29
S'corruption-9'
p59
S'dissident-6'
p60
tp61
a(g33
S'corruption-9'
p62
S'group-7'
p63
tp64
a(g37
S'corruption-9'
p65
S'monitoring-8'
p66
tp67
a(g41
S'organizer-4'
p68
S'corruption-9'
p69
tp70
asS'words'
p71
(lp72
(S'Chinese'
p73
(dp74
S'NamedEntityTag'
p75
S'MISC'
p76
sS'CharacterOffsetEnd'
p77
S'8'
p78
sS'Lemma'
p79
S'chinese'
p80
sS'PartOfSpeech'
p81
S'JJ'
p82
sS'CharacterOffsetBegin'
p83
S'1'
p84
stp85
a(S'police'
p86
(dp87
S'NamedEntityTag'
p88
S'O'
p89
sS'CharacterOffsetEnd'
p90
S'15'
p91
sS'Lemma'
p92
S'police'
p93
sS'PartOfSpeech'
p94
S'NN'
p95
sS'CharacterOffsetBegin'
p96
S'9'
p97
stp98
a(S'detain'
p99
(dp100
S'NamedEntityTag'
p101
g89
sS'CharacterOffsetEnd'
p102
S'22'
p103
sS'Lemma'
p104
S'detain'
p105
sS'PartOfSpeech'
p106
S'NN'
p107
sS'CharacterOffsetBegin'
p108
S'16'
p109
stp110
a(S'organizer'
p111
(dp112
S'NamedEntityTag'
p113
g89
sS'CharacterOffsetEnd'
p114
S'32'
p115
sS'Lemma'
p116
S'organizer'
p117
sS'PartOfSpeech'
p118
S'NN'
p119
sS'CharacterOffsetBegin'
p120
S'23'
p121
stp122
a(S'of'
p123
(dp124
S'NamedEntityTag'
p125
g89
sS'CharacterOffsetEnd'
p126
S'35'
p127
sS'Lemma'
p128
S'of'
p129
sS'PartOfSpeech'
p130
S'IN'
p131
sS'CharacterOffsetBegin'
p132
S'33'
p133
stp134
a(S'dissident'
p135
(dp136
S'NamedEntityTag'
p137
g89
sS'CharacterOffsetEnd'
p138
S'45'
p139
sS'Lemma'
p140
S'dissident'
p141
sS'PartOfSpeech'
p142
S'JJ'
p143
sS'CharacterOffsetBegin'
p144
S'36'
p145
stp146
a(S'group'
p147
(dp148
S'NamedEntityTag'
p149
g89
sS'CharacterOffsetEnd'
p150
S'51'
p151
sS'Lemma'
p152
S'group'
p153
sS'PartOfSpeech'
p154
S'NN'
p155
sS'CharacterOffsetBegin'
p156
S'46'
p157
stp158
a(S'monitoring'
p159
(dp160
S'NamedEntityTag'
p161
g89
sS'CharacterOffsetEnd'
p162
S'62'
p163
sS'Lemma'
p164
S'monitoring'
p165
sS'PartOfSpeech'
p166
S'NN'
p167
sS'CharacterOffsetBegin'
p168
S'52'
p169
stp170
a(S'corruption'
p171
(dp172
S'NamedEntityTag'
p173
g89
sS'CharacterOffsetEnd'
p174
S'73'
p175
sS'Lemma'
p176
S'corruption'
p177
sS'PartOfSpeech'
p178
S'NN'
p179
sS'CharacterOffsetBegin'
p180
S'63'
p181
stp182
asasa(dp183
g4
(lp184
(dp185
g7
S"(ROOT (S (NP (NP (JJ Dissident) (NN group) (NN leader) (NNP Aun) (NNP Jun)) (VP (VBN arrested))) (, ,) (VP (VBD told) (SBAR (S (NP (NP (NN group) (POS 's)) (NNS activities)) (VP (MD must) (VP (VB stop))))))))"
p186
sg9
S"Dissident group leader Aun Jun arrested, told group's activities must stop"
p187
sg11
(lp188
(S'root'
p189
S'ROOT'
p190
S'told'
p191
tp192
a(S'amod'
p193
S'Jun'
p194
S'Dissident'
p195
tp196
a(S'nn'
p197
S'Jun'
p198
S'group'
p199
tp200
a(S'nn'
p201
S'Jun'
p202
S'leader'
p203
tp204
a(S'nn'
p205
S'Jun'
p206
S'Aun'
p207
tp208
a(S'nsubj'
p209
S'told'
p210
S'Jun'
p211
tp212
a(S'partmod'
p213
S'Jun'
p214
S'arrested'
p215
tp216
a(S'poss'
p217
S'activities'
p218
S'group'
p219
tp220
a(S'nsubj'
p221
S'stop'
p222
S'activities'
p223
tp224
a(S'aux'
p225
S'stop'
p226
S'must'
p227
tp228
a(S'ccomp'
p229
S'told'
p230
S'stop'
p231
tp232
asg45
(lp233
(g189
S'ROOT-0'
p234
S'told-8'
p235
tp236
a(g193
S'Jun-5'
p237
S'Dissident-1'
p238
tp239
a(g197
S'Jun-5'
p240
S'group-2'
p241
tp242
a(g201
S'Jun-5'
p243
S'leader-3'
p244
tp245
a(g205
S'Jun-5'
p246
S'Aun-4'
p247
tp248
a(g209
S'told-8'
p249
S'Jun-5'
p250
tp251
a(g213
S'Jun-5'
p252
S'arrested-6'
p253
tp254
a(g217
S'activities-11'
p255
S'group-9'
p256
tp257
a(g221
S'stop-13'
p258
S'activities-11'
p259
tp260
a(g225
S'stop-13'
p261
S'must-12'
p262
tp263
a(g229
S'told-8'
p264
S'stop-13'
p265
tp266
asg71
(lp267
(S'Dissident'
p268
(dp269
S'NamedEntityTag'
p270
g89
sS'CharacterOffsetEnd'
p271
S'10'
p272
sS'Lemma'
p273
S'dissident'
p274
sS'PartOfSpeech'
p275
S'JJ'
p276
sS'CharacterOffsetBegin'
p277
g84
stp278
a(S'group'
p279
(dp280
S'NamedEntityTag'
p281
g89
sS'CharacterOffsetEnd'
p282
S'16'
p283
sS'Lemma'
p284
S'group'
p285
sS'PartOfSpeech'
p286
S'NN'
p287
sS'CharacterOffsetBegin'
p288
S'11'
p289
stp290
a(S'leader'
p291
(dp292
S'NamedEntityTag'
p293
g89
sS'CharacterOffsetEnd'
p294
S'23'
p295
sS'Lemma'
p296
S'leader'
p297
sS'PartOfSpeech'
p298
S'NN'
p299
sS'CharacterOffsetBegin'
p300
S'17'
p301
stp302
a(S'Aun'
p303
(dp304
S'NamedEntityTag'
p305
S'PERSON'
p306
sS'CharacterOffsetEnd'
p307
S'27'
p308
sS'Lemma'
p309
S'Aun'
p310
sS'PartOfSpeech'
p311
S'NNP'
p312
sS'CharacterOffsetBegin'
p313
S'24'
p314
stp315
a(S'Jun'
p316
(dp317
S'Timex'
p318
S'<TIMEX3 tid="t1" type="DATE" value="XXXX-06">Jun</TIMEX3>'
p319
sS'Lemma'
p320
S'Jun'
p321
sS'CharacterOffsetEnd'
p322
S'31'
p323
sS'PartOfSpeech'
p324
S'NNP'
p325
sS'CharacterOffsetBegin'
p326
S'28'
p327
sS'NamedEntityTag'
p328
S'PERSON'
p329
stp330
a(S'arrested'
p331
(dp332
S'NamedEntityTag'
p333
g89
sS'CharacterOffsetEnd'
p334
S'40'
p335
sS'Lemma'
p336
S'arrest'
p337
sS'PartOfSpeech'
p338
S'VBN'
p339
sS'CharacterOffsetBegin'
p340
S'32'
p341
stp342
a(S','
p343
(dp344
S'NamedEntityTag'
p345
g89
sS'CharacterOffsetEnd'
p346
S'41'
p347
sS'Lemma'
p348
g343
sS'PartOfSpeech'
p349
g343
sS'CharacterOffsetBegin'
p350
S'40'
p351
stp352
a(S'told'
p353
(dp354
S'NamedEntityTag'
p355
g89
sS'CharacterOffsetEnd'
p356
S'46'
p357
sS'Lemma'
p358
S'tell'
p359
sS'PartOfSpeech'
p360
S'VBD'
p361
sS'CharacterOffsetBegin'
p362
S'42'
p363
stp364
a(S'group'
p365
(dp366
S'NamedEntityTag'
p367
g89
sS'CharacterOffsetEnd'
p368
S'52'
p369
sS'Lemma'
p370
S'group'
p371
sS'PartOfSpeech'
p372
S'NN'
p373
sS'CharacterOffsetBegin'
p374
S'47'
p375
stp376
a(S"'s"
p377
(dp378
S'NamedEntityTag'
p379
g89
sS'CharacterOffsetEnd'
p380
S'54'
p381
sS'Lemma'
p382
S"'s"
p383
sS'PartOfSpeech'
p384
S'POS'
p385
sS'CharacterOffsetBegin'
p386
S'52'
p387
stp388
a(S'activities'
p389
(dp390
S'NamedEntityTag'
p391
g89
sS'CharacterOffsetEnd'
p392
S'65'
p393
sS'Lemma'
p394
S'activity'
p395
sS'PartOfSpeech'
p396
S'NNS'
p397
sS'CharacterOffsetBegin'
p398
S'55'
p399
stp400
a(S'must'
p401
(dp402
S'NamedEntityTag'
p403
g89
sS'CharacterOffsetEnd'
p404
S'70'
p405
sS'Lemma'
p406
S'must'
p407
sS'PartOfSpeech'
p408
S'MD'
p409
sS'CharacterOffsetBegin'
p410
S'66'
p411
stp412
a(S'stop'
p413
(dp414
S'NamedEntityTag'
p415
g89
sS'CharacterOffsetEnd'
p416
S'75'
p417
sS'Lemma'
p418
S'stop'
p419
sS'PartOfSpeech'
p420
S'VB'
p421
sS'CharacterOffsetBegin'
p422
S'71'
p423
stp424
asasa(dp425
g4
(lp426
(dp427
g7
S'(ROOT (S (NP (NNP China)) (VP (VBZ refuses) (NP (NN permission)) (S (VP (TO to) (VP (VB operate) (PP (TO to) (NP (NN group) (NN monitoring) (NN official) (NN corruption)))))))))'
p428
sg9
S'China refuses permission to operate to group monitoring official corruption'
p429
sg11
(lp430
(S'root'
p431
S'ROOT'
p432
S'refuses'
p433
tp434
a(S'nsubj'
p435
S'refuses'
p436
S'China'
p437
tp438
a(S'dobj'
p439
S'refuses'
p440
S'permission'
p441
tp442
a(S'aux'
p443
S'operate'
p444
S'to'
p445
tp446
a(S'xcomp'
p447
S'refuses'
p448
S'operate'
p449
tp450
a(S'nn'
p451
S'corruption'
p452
S'group'
p453
tp454
a(S'nn'
p455
S'corruption'
p456
S'monitoring'
p457
tp458
a(S'nn'
p459
S'corruption'
p460
S'official'
p461
tp462
a(S'prep_to'
p463
S'operate'
p464
S'corruption'
p465
tp466
asg45
(lp467
(g431
S'ROOT-0'
p468
S'refuses-2'
p469
tp470
a(g435
S'refuses-2'
p471
S'China-1'
p472
tp473
a(g439
S'refuses-2'
p474
S'permission-3'
p475
tp476
a(g443
S'operate-5'
p477
S'to-4'
p478
tp479
a(g447
S'refuses-2'
p480
S'operate-5'
p481
tp482
a(g451
S'corruption-10'
p483
S'group-7'
p484
tp485
a(g455
S'corruption-10'
p486
S'monitoring-8'
p487
tp488
a(g459
S'corruption-10'
p489
S'official-9'
p490
tp491
a(g463
S'operate-5'
p492
S'corruption-10'
p493
tp494
asg71
(lp495
(S'China'
p496
(dp497
S'NamedEntityTag'
p498
S'LOCATION'
p499
sS'CharacterOffsetEnd'
p500
S'6'
p501
sS'Lemma'
p502
S'China'
p503
sS'PartOfSpeech'
p504
S'NNP'
p505
sS'CharacterOffsetBegin'
p506
g84
stp507
a(S'refuses'
p508
(dp509
S'NamedEntityTag'
p510
g89
sS'CharacterOffsetEnd'
p511
S'14'
p512
sS'Lemma'
p513
S'refuse'
p514
sS'PartOfSpeech'
p515
S'VBZ'
p516
sS'CharacterOffsetBegin'
p517
S'7'
p518
stp519
a(S'permission'
p520
(dp521
S'NamedEntityTag'
p522
g89
sS'CharacterOffsetEnd'
p523
S'25'
p524
sS'Lemma'
p525
S'permission'
p526
sS'PartOfSpeech'
p527
S'NN'
p528
sS'CharacterOffsetBegin'
p529
S'15'
p530
stp531
a(S'to'
p532
(dp533
S'NamedEntityTag'
p534
g89
sS'CharacterOffsetEnd'
p535
S'28'
p536
sS'Lemma'
p537
S'to'
p538
sS'PartOfSpeech'
p539
S'TO'
p540
sS'CharacterOffsetBegin'
p541
S'26'
p542
stp543
a(S'operate'
p544
(dp545
S'NamedEntityTag'
p546
g89
sS'CharacterOffsetEnd'
p547
S'36'
p548
sS'Lemma'
p549
S'operate'
p550
sS'PartOfSpeech'
p551
S'VB'
p552
sS'CharacterOffsetBegin'
p553
S'29'
p554
stp555
a(S'to'
p556
(dp557
S'NamedEntityTag'
p558
g89
sS'CharacterOffsetEnd'
p559
S'39'
p560
sS'Lemma'
p561
S'to'
p562
sS'PartOfSpeech'
p563
S'TO'
p564
sS'CharacterOffsetBegin'
p565
S'37'
p566
stp567
a(S'group'
p568
(dp569
S'NamedEntityTag'
p570
g89
sS'CharacterOffsetEnd'
p571
S'45'
p572
sS'Lemma'
p573
S'group'
p574
sS'PartOfSpeech'
p575
S'NN'
p576
sS'CharacterOffsetBegin'
p577
S'40'
p578
stp579
a(S'monitoring'
p580
(dp581
S'NamedEntityTag'
p582
g89
sS'CharacterOffsetEnd'
p583
S'56'
p584
sS'Lemma'
p585
S'monitoring'
p586
sS'PartOfSpeech'
p587
S'NN'
p588
sS'CharacterOffsetBegin'
p589
S'46'
p590
stp591
a(S'official'
p592
(dp593
S'NamedEntityTag'
p594
g89
sS'CharacterOffsetEnd'
p595
S'65'
p596
sS'Lemma'
p597
S'official'
p598
sS'PartOfSpeech'
p599
S'NN'
p600
sS'CharacterOffsetBegin'
p601
S'57'
p602
stp603
a(S'corruption'
p604
(dp605
S'NamedEntityTag'
p606
g89
sS'CharacterOffsetEnd'
p607
S'76'
p608
sS'Lemma'
p609
S'corruption'
p610
sS'PartOfSpeech'
p611
S'NN'
p612
sS'CharacterOffsetBegin'
p613
S'66'
p614
stp615
asasa(dp616
g4
(lp617
(dp618
g7
S'(ROOT (NP (NP (NNP China)) (NP (NNS detains) (CC and) (NNS questions)) (NP (NNP Corruption) (NNP Watch) (NN activist))))'
p619
sg9
S'China detains and questions Corruption Watch activist'
p620
sg11
(lp621
(S'root'
p622
S'ROOT'
p623
S'China'
p624
tp625
a(S'dep'
p626
S'China'
p627
S'detains'
p628
tp629
a(S'conj_and'
p630
S'detains'
p631
S'questions'
p632
tp633
a(S'nn'
p634
S'activist'
p635
S'Corruption'
p636
tp637
a(S'nn'
p638
S'activist'
p639
S'Watch'
p640
tp641
a(S'dep'
p642
S'China'
p643
S'activist'
p644
tp645
asg45
(lp646
(g622
S'ROOT-0'
p647
S'China-1'
p648
tp649
a(g626
S'China-1'
p650
S'detains-2'
p651
tp652
a(g630
S'detains-2'
p653
S'questions-4'
p654
tp655
a(g634
S'activist-7'
p656
S'Corruption-5'
p657
tp658
a(g638
S'activist-7'
p659
S'Watch-6'
p660
tp661
a(g642
S'China-1'
p662
S'activist-7'
p663
tp664
asg71
(lp665
(S'China'
p666
(dp667
S'NamedEntityTag'
p668
S'LOCATION'
p669
sS'CharacterOffsetEnd'
p670
g501
sS'Lemma'
p671
S'China'
p672
sS'PartOfSpeech'
p673
S'NNP'
p674
sS'CharacterOffsetBegin'
p675
g84
stp676
a(S'detains'
p677
(dp678
S'NamedEntityTag'
p679
g89
sS'CharacterOffsetEnd'
p680
S'14'
p681
sS'Lemma'
p682
S'detain'
p683
sS'PartOfSpeech'
p684
S'NNS'
p685
sS'CharacterOffsetBegin'
p686
g518
stp687
a(S'and'
p688
(dp689
S'NamedEntityTag'
p690
g89
sS'CharacterOffsetEnd'
p691
S'18'
p692
sS'Lemma'
p693
S'and'
p694
sS'PartOfSpeech'
p695
S'CC'
p696
sS'CharacterOffsetBegin'
p697
S'15'
p698
stp699
a(S'questions'
p700
(dp701
S'NamedEntityTag'
p702
g89
sS'CharacterOffsetEnd'
p703
S'28'
p704
sS'Lemma'
p705
S'question'
p706
sS'PartOfSpeech'
p707
S'NNS'
p708
sS'CharacterOffsetBegin'
p709
S'19'
p710
stp711
a(S'Corruption'
p712
(dp713
S'NamedEntityTag'
p714
g89
sS'CharacterOffsetEnd'
p715
S'39'
p716
sS'Lemma'
p717
S'Corruption'
p718
sS'PartOfSpeech'
p719
S'NNP'
p720
sS'CharacterOffsetBegin'
p721
S'29'
p722
stp723
a(S'Watch'
p724
(dp725
S'NamedEntityTag'
p726
g89
sS'CharacterOffsetEnd'
p727
S'45'
p728
sS'Lemma'
p729
S'Watch'
p730
sS'PartOfSpeech'
p731
S'NNP'
p732
sS'CharacterOffsetBegin'
p733
S'40'
p734
stp735
a(S'activist'
p736
(dp737
S'NamedEntityTag'
p738
g89
sS'CharacterOffsetEnd'
p739
S'54'
p740
sS'Lemma'
p741
S'activist'
p742
sS'PartOfSpeech'
p743
S'NN'
p744
sS'CharacterOffsetBegin'
p745
S'46'
p746
stp747
asasasS'article'
p748
(dp749
S'coref'
p750
(lp751
(lp752
((S'him'
p753
I1
I8
I18
I19
tp754
(S'Police'
p755
I0
I0
I0
I1
tp756
tp757
a((S'Police'
p758
I2
I0
I0
I1
tp759
(S'Police'
p760
I0
I0
I0
I1
tp761
tp762
a((S'police'
p763
I10
I3
I13
I14
tp764
(S'Police'
p765
I0
I0
I0
I1
tp766
tp767
aa(lp768
((S'him'
p769
I0
I-1
I19
I20
tp770
(S'the organizer of a group'
p771
I0
I5
I4
I9
tp772
tp773
aa(lp774
((S'the group'
p775
I5
I4
I13
I15
tp776
(S'a group'
p777
I0
I8
I7
I9
tp778
tp779
a((S'its'
p780
I5
I7
I17
I18
tp781
(S'a group'
p782
I0
I8
I7
I9
tp783
tp784
a((S'the group'
p785
I9
I2
I11
I13
tp786
(S'a group'
p787
I0
I8
I7
I9
tp788
tp789
a((S'the group'
p790
I10
I3
I22
I24
tp791
(S'a group'
p792
I0
I8
I7
I9
tp793
tp794
aa(lp795
((S'its activities'
p796
I5
I8
I17
I19
tp797
(S'the groups activities'
p798
I0
I2
I20
I23
tp799
tp800
aa(lp801
((S'Thursday'
p802
I8
I7
I17
I18
tp803
(S'Thursday'
p804
I0
I1
I31
I32
tp805
tp806
aa(lp807
((S'China'
p808
I6
I-1
I9
I10
tp809
(S'China'
p810
I1
I0
I40
I41
tp811
tp812
a((S'China'
p813
I9
I6
I6
I7
tp814
(S'China'
p815
I1
I0
I40
I41
tp816
tp817
aa(lp818
((S'their'
p819
I2
I7
I7
I8
tp820
(S'Police in Xinyang , in central Chinas Henan province'
p821
I1
I0
I0
I9
tp822
tp823
aa(lp824
((S'An Jun'
p825
I2
I6
I15
I17
tp826
(S'An Jun'
p827
I1
I2
I11
I13
tp828
tp829
a((S'An Jun'
p830
I5
I6
I5
I7
tp831
(S'An Jun'
p832
I1
I2
I11
I13
tp833
tp834
aa(lp835
((S'Information Center'
p836
I2
I0
I29
I31
tp837
(S'the Information Center of Human Rights and Democratic Movement in China'
p838
I1
I2
I30
I41
tp839
tp840
a((S'the center'
p841
I3
I8
I17
I19
tp842
(S'the Information Center of Human Rights and Democratic Movement in China'
p843
I1
I2
I30
I41
tp844
tp845
a((S'the center'
p846
I4
I7
I16
I18
tp847
(S'the Information Center of Human Rights and Democratic Movement in China'
p848
I1
I2
I30
I41
tp849
tp850
a((S'the center'
p851
I5
I1
I20
I22
tp852
(S'the Information Center of Human Rights and Democratic Movement in China'
p853
I1
I2
I30
I41
tp854
tp855
a((S'The Information Center'
p856
I7
I2
I0
I3
tp857
(S'the Information Center of Human Rights and Democratic Movement in China'
p858
I1
I2
I30
I41
tp859
tp860
a((S'the center'
p861
I8
I6
I5
I7
tp862
(S'the Information Center of Human Rights and Democratic Movement in China'
p863
I1
I2
I30
I41
tp864
tp865
aa(lp866
((S'them'
p867
I2
I2
I22
I23
tp868
(S'members with their work and home addresses'
p869
I2
I5
I5
I12
tp870
tp871
aa(lp872
((S'a demand An Jun refused for fear of getting them into trouble'
p873
I2
I4
I13
I25
tp874
(S'the Hong Kong-based Information Center said'
p875
I2
I-1
I26
I32
tp876
tp877
aa(lp878
((S'It'
p879
I4
I0
I0
I1
tp880
(S'Corruption Watch'
p881
I3
I1
I0
I2
tp882
tp883
a((S'Corruption Watch'
p884
I7
I5
I4
I6
tp885
(S'Corruption Watch'
p886
I3
I1
I0
I2
tp887
tp888
a((S'its'
p889
I7
I3
I13
I14
tp890
(S'Corruption Watch'
p891
I3
I1
I0
I2
tp892
tp893
aa(lp894
((S'a would-be opposition group'
p895
I8
I3
I30
I34
tp896
(S'the China Democracy Party'
p897
I8
I8
I35
I39
tp898
tp899
aasg4
(lp900
(dp901
g7
S'(ROOT (S (S (NP (NNP Police)) (VP (VP (VBD detained)) (CC and) (VP (VBD questioned) (SBAR (S (NP (NP (DT the) (NN organizer)) (PP (IN of) (NP (DT a) (NN group)))) (VP (VP (VBD set) (PRT (RP up)) (PP (IN by) (NP (NNS dissidents))) (S (VP (TO to) (VP (VB monitor) (NP (JJ official) (NN corruption)))))) (CC and) (VP (VBD told) (NP (PRP him)) (SBAR (S (NP (DT the) (NNS groups) (NNS activities)) (VP (MD must) (VP (VB cease)))))))))))) (, ,) (NP (DT a) (JJ human) (NNS rights) (NN group)) (VP (VBD said) (NP-TMP (NNP Thursday))) (. .)))'
p902
sg9
S'Police detained and questioned the organizer of a group set up by dissidents to monitor official corruption and told him the groups activities must cease, a human rights group said Thursday.'
p903
sg11
(lp904
(S'root'
p905
S'ROOT'
p906
S'said'
p907
tp908
a(S'nsubj'
p909
S'detained'
p910
S'Police'
p911
tp912
a(S'ccomp'
p913
S'said'
p914
S'detained'
p915
tp916
a(S'conj_and'
p917
S'detained'
p918
S'questioned'
p919
tp920
a(S'det'
p921
S'organizer'
p922
S'the'
p923
tp924
a(S'nsubj'
p925
S'set'
p926
S'organizer'
p927
tp928
a(S'det'
p929
S'group'
p930
S'a'
p931
tp932
a(S'prep_of'
p933
S'organizer'
p934
S'group'
p935
tp936
a(S'ccomp'
p937
S'questioned'
p938
S'set'
p939
tp940
a(S'prt'
p941
S'set'
p942
S'up'
p943
tp944
a(S'prep_by'
p945
S'set'
p946
S'dissidents'
p947
tp948
a(S'aux'
p949
S'monitor'
p950
S'to'
p951
tp952
a(S'xcomp'
p953
S'set'
p954
S'monitor'
p955
tp956
a(S'amod'
p957
S'corruption'
p958
S'official'
p959
tp960
a(S'dobj'
p961
S'monitor'
p962
S'corruption'
p963
tp964
a(S'conj_and'
p965
S'set'
p966
S'told'
p967
tp968
a(S'dobj'
p969
S'told'
p970
S'him'
p971
tp972
a(S'det'
p973
S'activities'
p974
S'the'
p975
tp976
a(S'nn'
p977
S'activities'
p978
S'groups'
p979
tp980
a(S'nsubj'
p981
S'cease'
p982
S'activities'
p983
tp984
a(S'aux'
p985
S'cease'
p986
S'must'
p987
tp988
a(S'dep'
p989
S'told'
p990
S'cease'
p991
tp992
a(S'det'
p993
S'group'
p994
g931
tp995
a(S'amod'
p996
S'group'
p997
S'human'
p998
tp999
a(S'nn'
p1000
S'group'
p1001
S'rights'
p1002
tp1003
a(S'nsubj'
p1004
S'said'
p1005
S'group'
p1006
tp1007
a(S'tmod'
p1008
S'said'
p1009
S'Thursday'
p1010
tp1011
asg45
(lp1012
(g905
S'ROOT-0'
p1013
S'said-31'
p1014
tp1015
a(g909
S'detained-2'
p1016
S'Police-1'
p1017
tp1018
a(g913
S'said-31'
p1019
S'detained-2'
p1020
tp1021
a(g917
S'detained-2'
p1022
S'questioned-4'
p1023
tp1024
a(g921
S'organizer-6'
p1025
S'the-5'
p1026
tp1027
a(g925
S'set-10'
p1028
S'organizer-6'
p1029
tp1030
a(g929
S'group-9'
p1031
S'a-8'
p1032
tp1033
a(g933
S'organizer-6'
p1034
S'group-9'
p1035
tp1036
a(g937
S'questioned-4'
p1037
S'set-10'
p1038
tp1039
a(g941
S'set-10'
p1040
S'up-11'
p1041
tp1042
a(g945
S'set-10'
p1043
S'dissidents-13'
p1044
tp1045
a(g949
S'monitor-15'
p1046
S'to-14'
p1047
tp1048
a(g953
S'set-10'
p1049
S'monitor-15'
p1050
tp1051
a(g957
S'corruption-17'
p1052
S'official-16'
p1053
tp1054
a(g961
S'monitor-15'
p1055
S'corruption-17'
p1056
tp1057
a(g965
S'set-10'
p1058
S'told-19'
p1059
tp1060
a(g969
S'told-19'
p1061
S'him-20'
p1062
tp1063
a(g973
S'activities-23'
p1064
S'the-21'
p1065
tp1066
a(g977
S'activities-23'
p1067
S'groups-22'
p1068
tp1069
a(g981
S'cease-25'
p1070
S'activities-23'
p1071
tp1072
a(g985
S'cease-25'
p1073
S'must-24'
p1074
tp1075
a(g989
S'told-19'
p1076
S'cease-25'
p1077
tp1078
a(g993
S'group-30'
p1079
S'a-27'
p1080
tp1081
a(g996
S'group-30'
p1082
S'human-28'
p1083
tp1084
a(g1000
S'group-30'
p1085
S'rights-29'
p1086
tp1087
a(g1004
S'said-31'
p1088
S'group-30'
p1089
tp1090
a(g1008
S'said-31'
p1091
S'Thursday-32'
p1092
tp1093
asg71
(lp1094
(S'Police'
p1095
(dp1096
S'NamedEntityTag'
p1097
g89
sS'CharacterOffsetEnd'
p1098
g501
sS'Lemma'
p1099
S'Police'
p1100
sS'PartOfSpeech'
p1101
S'NNP'
p1102
sS'CharacterOffsetBegin'
p1103
S'0'
p1104
stp1105
a(S'detained'
p1106
(dp1107
S'NamedEntityTag'
p1108
g89
sS'CharacterOffsetEnd'
p1109
S'15'
p1110
sS'Lemma'
p1111
S'detain'
p1112
sS'PartOfSpeech'
p1113
S'VBD'
p1114
sS'CharacterOffsetBegin'
p1115
g518
stp1116
a(S'and'
p1117
(dp1118
S'NamedEntityTag'
p1119
g89
sS'CharacterOffsetEnd'
p1120
S'19'
p1121
sS'Lemma'
p1122
S'and'
p1123
sS'PartOfSpeech'
p1124
S'CC'
p1125
sS'CharacterOffsetBegin'
p1126
S'16'
p1127
stp1128
a(S'questioned'
p1129
(dp1130
S'NamedEntityTag'
p1131
g89
sS'CharacterOffsetEnd'
p1132
S'30'
p1133
sS'Lemma'
p1134
S'question'
p1135
sS'PartOfSpeech'
p1136
S'VBD'
p1137
sS'CharacterOffsetBegin'
p1138
S'20'
p1139
stp1140
a(S'the'
p1141
(dp1142
S'NamedEntityTag'
p1143
g89
sS'CharacterOffsetEnd'
p1144
S'34'
p1145
sS'Lemma'
p1146
S'the'
p1147
sS'PartOfSpeech'
p1148
S'DT'
p1149
sS'CharacterOffsetBegin'
p1150
S'31'
p1151
stp1152
a(S'organizer'
p1153
(dp1154
S'NamedEntityTag'
p1155
g89
sS'CharacterOffsetEnd'
p1156
S'44'
p1157
sS'Lemma'
p1158
S'organizer'
p1159
sS'PartOfSpeech'
p1160
S'NN'
p1161
sS'CharacterOffsetBegin'
p1162
S'35'
p1163
stp1164
a(S'of'
p1165
(dp1166
S'NamedEntityTag'
p1167
g89
sS'CharacterOffsetEnd'
p1168
S'47'
p1169
sS'Lemma'
p1170
S'of'
p1171
sS'PartOfSpeech'
p1172
S'IN'
p1173
sS'CharacterOffsetBegin'
p1174
S'45'
p1175
stp1176
a(g931
(dp1177
S'NamedEntityTag'
p1178
g89
sS'CharacterOffsetEnd'
p1179
S'49'
p1180
sS'Lemma'
p1181
g931
sS'PartOfSpeech'
p1182
S'DT'
p1183
sS'CharacterOffsetBegin'
p1184
S'48'
p1185
stp1186
a(S'group'
p1187
(dp1188
S'NamedEntityTag'
p1189
g89
sS'CharacterOffsetEnd'
p1190
S'55'
p1191
sS'Lemma'
p1192
S'group'
p1193
sS'PartOfSpeech'
p1194
S'NN'
p1195
sS'CharacterOffsetBegin'
p1196
S'50'
p1197
stp1198
a(S'set'
p1199
(dp1200
S'NamedEntityTag'
p1201
g89
sS'CharacterOffsetEnd'
p1202
S'59'
p1203
sS'Lemma'
p1204
S'set'
p1205
sS'PartOfSpeech'
p1206
S'VBD'
p1207
sS'CharacterOffsetBegin'
p1208
S'56'
p1209
stp1210
a(S'up'
p1211
(dp1212
S'NamedEntityTag'
p1213
g89
sS'CharacterOffsetEnd'
p1214
S'62'
p1215
sS'Lemma'
p1216
S'up'
p1217
sS'PartOfSpeech'
p1218
S'RP'
p1219
sS'CharacterOffsetBegin'
p1220
S'60'
p1221
stp1222
a(S'by'
p1223
(dp1224
S'NamedEntityTag'
p1225
g89
sS'CharacterOffsetEnd'
p1226
S'65'
p1227
sS'Lemma'
p1228
S'by'
p1229
sS'PartOfSpeech'
p1230
S'IN'
p1231
sS'CharacterOffsetBegin'
p1232
S'63'
p1233
stp1234
a(S'dissidents'
p1235
(dp1236
S'NamedEntityTag'
p1237
g89
sS'CharacterOffsetEnd'
p1238
S'76'
p1239
sS'Lemma'
p1240
S'dissident'
p1241
sS'PartOfSpeech'
p1242
S'NNS'
p1243
sS'CharacterOffsetBegin'
p1244
S'66'
p1245
stp1246
a(S'to'
p1247
(dp1248
S'NamedEntityTag'
p1249
g89
sS'CharacterOffsetEnd'
p1250
S'79'
p1251
sS'Lemma'
p1252
S'to'
p1253
sS'PartOfSpeech'
p1254
S'TO'
p1255
sS'CharacterOffsetBegin'
p1256
S'77'
p1257
stp1258
a(S'monitor'
p1259
(dp1260
S'NamedEntityTag'
p1261
g89
sS'CharacterOffsetEnd'
p1262
S'87'
p1263
sS'Lemma'
p1264
S'monitor'
p1265
sS'PartOfSpeech'
p1266
S'VB'
p1267
sS'CharacterOffsetBegin'
p1268
S'80'
p1269
stp1270
a(S'official'
p1271
(dp1272
S'NamedEntityTag'
p1273
g89
sS'CharacterOffsetEnd'
p1274
S'96'
p1275
sS'Lemma'
p1276
S'official'
p1277
sS'PartOfSpeech'
p1278
S'JJ'
p1279
sS'CharacterOffsetBegin'
p1280
S'88'
p1281
stp1282
a(S'corruption'
p1283
(dp1284
S'NamedEntityTag'
p1285
g89
sS'CharacterOffsetEnd'
p1286
S'107'
p1287
sS'Lemma'
p1288
S'corruption'
p1289
sS'PartOfSpeech'
p1290
S'NN'
p1291
sS'CharacterOffsetBegin'
p1292
S'97'
p1293
stp1294
a(S'and'
p1295
(dp1296
S'NamedEntityTag'
p1297
g89
sS'CharacterOffsetEnd'
p1298
S'111'
p1299
sS'Lemma'
p1300
S'and'
p1301
sS'PartOfSpeech'
p1302
S'CC'
p1303
sS'CharacterOffsetBegin'
p1304
S'108'
p1305
stp1306
a(S'told'
p1307
(dp1308
S'NamedEntityTag'
p1309
g89
sS'CharacterOffsetEnd'
p1310
S'116'
p1311
sS'Lemma'
p1312
S'tell'
p1313
sS'PartOfSpeech'
p1314
S'VBD'
p1315
sS'CharacterOffsetBegin'
p1316
S'112'
p1317
stp1318
a(S'him'
p1319
(dp1320
S'NamedEntityTag'
p1321
g89
sS'CharacterOffsetEnd'
p1322
S'120'
p1323
sS'Lemma'
p1324
S'he'
p1325
sS'PartOfSpeech'
p1326
S'PRP'
p1327
sS'CharacterOffsetBegin'
p1328
S'117'
p1329
stp1330
a(S'the'
p1331
(dp1332
S'NamedEntityTag'
p1333
g89
sS'CharacterOffsetEnd'
p1334
S'124'
p1335
sS'Lemma'
p1336
S'the'
p1337
sS'PartOfSpeech'
p1338
S'DT'
p1339
sS'CharacterOffsetBegin'
p1340
S'121'
p1341
stp1342
a(S'groups'
p1343
(dp1344
S'NamedEntityTag'
p1345
g89
sS'CharacterOffsetEnd'
p1346
S'131'
p1347
sS'Lemma'
p1348
S'group'
p1349
sS'PartOfSpeech'
p1350
S'NNS'
p1351
sS'CharacterOffsetBegin'
p1352
S'125'
p1353
stp1354
a(S'activities'
p1355
(dp1356
S'NamedEntityTag'
p1357
g89
sS'CharacterOffsetEnd'
p1358
S'142'
p1359
sS'Lemma'
p1360
S'activity'
p1361
sS'PartOfSpeech'
p1362
S'NNS'
p1363
sS'CharacterOffsetBegin'
p1364
S'132'
p1365
stp1366
a(S'must'
p1367
(dp1368
S'NamedEntityTag'
p1369
g89
sS'CharacterOffsetEnd'
p1370
S'147'
p1371
sS'Lemma'
p1372
S'must'
p1373
sS'PartOfSpeech'
p1374
S'MD'
p1375
sS'CharacterOffsetBegin'
p1376
S'143'
p1377
stp1378
a(S'cease'
p1379
(dp1380
S'NamedEntityTag'
p1381
g89
sS'CharacterOffsetEnd'
p1382
S'153'
p1383
sS'Lemma'
p1384
S'cease'
p1385
sS'PartOfSpeech'
p1386
S'VB'
p1387
sS'CharacterOffsetBegin'
p1388
S'148'
p1389
stp1390
a(g343
(dp1391
S'NamedEntityTag'
p1392
g89
sS'CharacterOffsetEnd'
p1393
S'154'
p1394
sS'Lemma'
p1395
g343
sS'PartOfSpeech'
p1396
g343
sS'CharacterOffsetBegin'
p1397
S'153'
p1398
stp1399
a(g931
(dp1400
S'NamedEntityTag'
p1401
g89
sS'CharacterOffsetEnd'
p1402
S'156'
p1403
sS'Lemma'
p1404
g931
sS'PartOfSpeech'
p1405
S'DT'
p1406
sS'CharacterOffsetBegin'
p1407
S'155'
p1408
stp1409
a(S'human'
p1410
(dp1411
S'NamedEntityTag'
p1412
g89
sS'CharacterOffsetEnd'
p1413
S'162'
p1414
sS'Lemma'
p1415
S'human'
p1416
sS'PartOfSpeech'
p1417
S'JJ'
p1418
sS'CharacterOffsetBegin'
p1419
S'157'
p1420
stp1421
a(S'rights'
p1422
(dp1423
S'NamedEntityTag'
p1424
g89
sS'CharacterOffsetEnd'
p1425
S'169'
p1426
sS'Lemma'
p1427
S'rights'
p1428
sS'PartOfSpeech'
p1429
S'NNS'
p1430
sS'CharacterOffsetBegin'
p1431
S'163'
p1432
stp1433
a(S'group'
p1434
(dp1435
S'NamedEntityTag'
p1436
g89
sS'CharacterOffsetEnd'
p1437
S'175'
p1438
sS'Lemma'
p1439
S'group'
p1440
sS'PartOfSpeech'
p1441
S'NN'
p1442
sS'CharacterOffsetBegin'
p1443
S'170'
p1444
stp1445
a(S'said'
p1446
(dp1447
S'NamedEntityTag'
p1448
g89
sS'CharacterOffsetEnd'
p1449
S'180'
p1450
sS'Lemma'
p1451
S'say'
p1452
sS'PartOfSpeech'
p1453
S'VBD'
p1454
sS'CharacterOffsetBegin'
p1455
S'176'
p1456
stp1457
a(S'Thursday'
p1458
(dp1459
S'NormalizedNamedEntityTag'
p1460
S'XXXX-WXX-4'
p1461
sS'Timex'
p1462
S'<TIMEX3 tid="t1" type="DATE" value="XXXX-WXX-4">Thursday</TIMEX3>'
p1463
sS'Lemma'
p1464
S'Thursday'
p1465
sS'CharacterOffsetEnd'
p1466
S'189'
p1467
sS'PartOfSpeech'
p1468
S'NNP'
p1469
sS'CharacterOffsetBegin'
p1470
S'181'
p1471
sS'NamedEntityTag'
p1472
S'DATE'
p1473
stp1474
a(S'.'
p1475
(dp1476
S'NamedEntityTag'
p1477
g89
sS'CharacterOffsetEnd'
p1478
S'190'
p1479
sS'Lemma'
p1480
g1475
sS'PartOfSpeech'
p1481
g1475
sS'CharacterOffsetBegin'
p1482
S'189'
p1483
stp1484
asa(dp1485
g7
S'(ROOT (S (NP (NP (NNS Police)) (PP (IN in) (NP (NNP Xinyang))) (, ,) (PP (IN in) (NP (JJ central) (NNP Chinas) (NNP Henan) (NN province))) (, ,)) (VP (VP (VBD took) (ADVP (NP (DT An) (NN Jun)) (RB away)) (NP-TMP (NNP Wednesday) (NN afternoon))) (CC and) (VP (VBD held) (NP (PRP him)) (PP (IN until) (NP (JJ past) (NN midnight))) (PP (IN for) (S (VP (VBG questioning) (PP (IN about) (NP (DT the) (NNS groups) (NNS members))))))) (, ,) (VP (VBD said) (NP (NP (DT the) (NNP Information) (NNP Center)) (PP (IN of) (NP (NP (NP (NNP Human) (NNPS Rights)) (CC and) (NP (JJ Democratic) (NNP Movement))) (PP (IN in) (NP (NNP China)))))))) (. .)))'
p1486
sg9
S'Police in Xinyang, in central Chinas Henan province, took An Jun away Wednesday afternoon and held him until past midnight for questioning about the groups members, said the Information Center of Human Rights and Democratic Movement in China.'
p1487
sg11
(lp1488
(S'root'
p1489
S'ROOT'
p1490
S'took'
p1491
tp1492
a(S'nsubj'
p1493
S'took'
p1494
S'Police'
p1495
tp1496
a(S'prep_in'
p1497
S'Police'
p1498
S'Xinyang'
p1499
tp1500
a(S'amod'
p1501
S'province'
p1502
S'central'
p1503
tp1504
a(S'nn'
p1505
S'province'
p1506
S'Chinas'
p1507
tp1508
a(S'nn'
p1509
S'province'
p1510
S'Henan'
p1511
tp1512
a(S'prep_in'
p1513
S'Police'
p1514
S'province'
p1515
tp1516
a(S'det'
p1517
S'Jun'
p1518
S'An'
p1519
tp1520
a(S'npadvmod'
p1521
S'away'
p1522
S'Jun'
p1523
tp1524
a(S'advmod'
p1525
S'took'
p1526
S'away'
p1527
tp1528
a(S'nn'
p1529
S'afternoon'
p1530
S'Wednesday'
p1531
tp1532
a(S'tmod'
p1533
S'took'
p1534
S'afternoon'
p1535
tp1536
a(S'conj_and'
p1537
S'took'
p1538
S'held'
p1539
tp1540
a(S'dobj'
p1541
S'held'
p1542
S'him'
p1543
tp1544
a(S'amod'
p1545
S'midnight'
p1546
S'past'
p1547
tp1548
a(S'prep_until'
p1549
S'held'
p1550
S'midnight'
p1551
tp1552
a(S'prepc_for'
p1553
S'held'
p1554
S'questioning'
p1555
tp1556
a(S'det'
p1557
S'members'
p1558
S'the'
p1559
tp1560
a(S'nn'
p1561
S'members'
p1562
S'groups'
p1563
tp1564
a(S'prep_about'
p1565
S'questioning'
p1566
S'members'
p1567
tp1568
a(S'dep'
p1569
S'took'
p1570
S'said'
p1571
tp1572
a(S'det'
p1573
S'Center'
p1574
S'the'
p1575
tp1576
a(S'nn'
p1577
S'Center'
p1578
S'Information'
p1579
tp1580
a(S'dobj'
p1581
S'said'
p1582
S'Center'
p1583
tp1584
a(S'nn'
p1585
S'Rights'
p1586
S'Human'
p1587
tp1588
a(S'prep_of'
p1589
S'Center'
p1590
S'Rights'
p1591
tp1592
a(S'amod'
p1593
S'Movement'
p1594
S'Democratic'
p1595
tp1596
a(S'conj_and'
p1597
S'Rights'
p1598
S'Movement'
p1599
tp1600
a(S'prep_in'
p1601
S'Rights'
p1602
S'China'
p1603
tp1604
asg45
(lp1605
(g1489
S'ROOT-0'
p1606
S'took-11'
p1607
tp1608
a(g1493
S'took-11'
p1609
S'Police-1'
p1610
tp1611
a(g1497
S'Police-1'
p1612
S'Xinyang-3'
p1613
tp1614
a(g1501
S'province-9'
p1615
S'central-6'
p1616
tp1617
a(g1505
S'province-9'
p1618
S'Chinas-7'
p1619
tp1620
a(g1509
S'province-9'
p1621
S'Henan-8'
p1622
tp1623
a(g1513
S'Police-1'
p1624
S'province-9'
p1625
tp1626
a(g1517
S'Jun-13'
p1627
S'An-12'
p1628
tp1629
a(g1521
S'away-14'
p1630
S'Jun-13'
p1631
tp1632
a(g1525
S'took-11'
p1633
S'away-14'
p1634
tp1635
a(g1529
S'afternoon-16'
p1636
S'Wednesday-15'
p1637
tp1638
a(g1533
S'took-11'
p1639
S'afternoon-16'
p1640
tp1641
a(g1537
S'took-11'
p1642
S'held-18'
p1643
tp1644
a(g1541
S'held-18'
p1645
S'him-19'
p1646
tp1647
a(g1545
S'midnight-22'
p1648
S'past-21'
p1649
tp1650
a(g1549
S'held-18'
p1651
S'midnight-22'
p1652
tp1653
a(g1553
S'held-18'
p1654
S'questioning-24'
p1655
tp1656
a(g1557
S'members-28'
p1657
S'the-26'
p1658
tp1659
a(g1561
S'members-28'
p1660
S'groups-27'
p1661
tp1662
a(g1565
S'questioning-24'
p1663
S'members-28'
p1664
tp1665
a(g1569
S'took-11'
p1666
S'said-30'
p1667
tp1668
a(g1573
S'Center-33'
p1669
S'the-31'
p1670
tp1671
a(g1577
S'Center-33'
p1672
S'Information-32'
p1673
tp1674
a(g1581
S'said-30'
p1675
S'Center-33'
p1676
tp1677
a(g1585
S'Rights-36'
p1678
S'Human-35'
p1679
tp1680
a(g1589
S'Center-33'
p1681
S'Rights-36'
p1682
tp1683
a(g1593
S'Movement-39'
p1684
S'Democratic-38'
p1685
tp1686
a(g1597
S'Rights-36'
p1687
S'Movement-39'
p1688
tp1689
a(g1601
S'Rights-36'
p1690
S'China-41'
p1691
tp1692
asg71
(lp1693
(S'Police'
p1694
(dp1695
S'NamedEntityTag'
p1696
g89
sS'CharacterOffsetEnd'
p1697
S'197'
p1698
sS'Lemma'
p1699
S'police'
p1700
sS'PartOfSpeech'
p1701
S'NNS'
p1702
sS'CharacterOffsetBegin'
p1703
S'191'
p1704
stp1705
a(S'in'
p1706
(dp1707
S'NamedEntityTag'
p1708
g89
sS'CharacterOffsetEnd'
p1709
S'200'
p1710
sS'Lemma'
p1711
S'in'
p1712
sS'PartOfSpeech'
p1713
S'IN'
p1714
sS'CharacterOffsetBegin'
p1715
S'198'
p1716
stp1717
a(S'Xinyang'
p1718
(dp1719
S'NamedEntityTag'
p1720
S'LOCATION'
p1721
sS'CharacterOffsetEnd'
p1722
S'208'
p1723
sS'Lemma'
p1724
S'Xinyang'
p1725
sS'PartOfSpeech'
p1726
S'NNP'
p1727
sS'CharacterOffsetBegin'
p1728
S'201'
p1729
stp1730
a(g343
(dp1731
S'NamedEntityTag'
p1732
g89
sS'CharacterOffsetEnd'
p1733
S'209'
p1734
sS'Lemma'
p1735
g343
sS'PartOfSpeech'
p1736
g343
sS'CharacterOffsetBegin'
p1737
S'208'
p1738
stp1739
a(S'in'
p1740
(dp1741
S'NamedEntityTag'
p1742
g89
sS'CharacterOffsetEnd'
p1743
S'212'
p1744
sS'Lemma'
p1745
S'in'
p1746
sS'PartOfSpeech'
p1747
S'IN'
p1748
sS'CharacterOffsetBegin'
p1749
S'210'
p1750
stp1751
a(S'central'
p1752
(dp1753
S'NamedEntityTag'
p1754
g89
sS'CharacterOffsetEnd'
p1755
S'220'
p1756
sS'Lemma'
p1757
S'central'
p1758
sS'PartOfSpeech'
p1759
S'JJ'
p1760
sS'CharacterOffsetBegin'
p1761
S'213'
p1762
stp1763
a(S'Chinas'
p1764
(dp1765
S'NamedEntityTag'
p1766
g89
sS'CharacterOffsetEnd'
p1767
S'227'
p1768
sS'Lemma'
p1769
S'Chinas'
p1770
sS'PartOfSpeech'
p1771
S'NNP'
p1772
sS'CharacterOffsetBegin'
p1773
S'221'
p1774
stp1775
a(S'Henan'
p1776
(dp1777
S'NamedEntityTag'
p1778
S'LOCATION'
p1779
sS'CharacterOffsetEnd'
p1780
S'233'
p1781
sS'Lemma'
p1782
S'Henan'
p1783
sS'PartOfSpeech'
p1784
S'NNP'
p1785
sS'CharacterOffsetBegin'
p1786
S'228'
p1787
stp1788
a(S'province'
p1789
(dp1790
S'NamedEntityTag'
p1791
g89
sS'CharacterOffsetEnd'
p1792
S'242'
p1793
sS'Lemma'
p1794
S'province'
p1795
sS'PartOfSpeech'
p1796
S'NN'
p1797
sS'CharacterOffsetBegin'
p1798
S'234'
p1799
stp1800
a(g343
(dp1801
S'NamedEntityTag'
p1802
g89
sS'CharacterOffsetEnd'
p1803
S'243'
p1804
sS'Lemma'
p1805
g343
sS'PartOfSpeech'
p1806
g343
sS'CharacterOffsetBegin'
p1807
S'242'
p1808
stp1809
a(S'took'
p1810
(dp1811
S'NamedEntityTag'
p1812
g89
sS'CharacterOffsetEnd'
p1813
S'248'
p1814
sS'Lemma'
p1815
S'take'
p1816
sS'PartOfSpeech'
p1817
S'VBD'
p1818
sS'CharacterOffsetBegin'
p1819
S'244'
p1820
stp1821
a(S'An'
p1822
(dp1823
S'NamedEntityTag'
p1824
g89
sS'CharacterOffsetEnd'
p1825
S'251'
p1826
sS'Lemma'
p1827
g931
sS'PartOfSpeech'
p1828
S'DT'
p1829
sS'CharacterOffsetBegin'
p1830
S'249'
p1831
stp1832
a(S'Jun'
p1833
(dp1834
S'NormalizedNamedEntityTag'
p1835
S'XXXX-06'
p1836
sS'Timex'
p1837
S'<TIMEX3 tid="t2" type="DATE" value="XXXX-06">Jun</TIMEX3>'
p1838
sS'Lemma'
p1839
S'jun'
p1840
sS'CharacterOffsetEnd'
p1841
S'255'
p1842
sS'PartOfSpeech'
p1843
S'NN'
p1844
sS'CharacterOffsetBegin'
p1845
S'252'
p1846
sS'NamedEntityTag'
p1847
S'DATE'
p1848
stp1849
a(S'away'
p1850
(dp1851
S'NamedEntityTag'
p1852
g89
sS'CharacterOffsetEnd'
p1853
S'260'
p1854
sS'Lemma'
p1855
S'away'
p1856
sS'PartOfSpeech'
p1857
S'RB'
p1858
sS'CharacterOffsetBegin'
p1859
S'256'
p1860
stp1861
a(S'Wednesday'
p1862
(dp1863
S'NormalizedNamedEntityTag'
p1864
S'XXXX-WXX-3TAF'
p1865
sS'Timex'
p1866
S'<TIMEX3 tid="t3" type="TIME" value="XXXX-WXX-3TAF">Wednesday afternoon</TIMEX3>'
p1867
sS'Lemma'
p1868
S'Wednesday'
p1869
sS'CharacterOffsetEnd'
p1870
S'270'
p1871
sS'PartOfSpeech'
p1872
S'NNP'
p1873
sS'CharacterOffsetBegin'
p1874
S'261'
p1875
sS'NamedEntityTag'
p1876
S'DATE'
p1877
stp1878
a(S'afternoon'
p1879
(dp1880
S'NormalizedNamedEntityTag'
p1881
S'XXXX-WXX-3TAF'
p1882
sS'Timex'
p1883
S'<TIMEX3 tid="t3" type="TIME" value="XXXX-WXX-3TAF">Wednesday afternoon</TIMEX3>'
p1884
sS'Lemma'
p1885
S'afternoon'
p1886
sS'CharacterOffsetEnd'
p1887
S'280'
p1888
sS'PartOfSpeech'
p1889
S'NN'
p1890
sS'CharacterOffsetBegin'
p1891
S'271'
p1892
sS'NamedEntityTag'
p1893
S'TIME'
p1894
stp1895
a(S'and'
p1896
(dp1897
S'NamedEntityTag'
p1898
g89
sS'CharacterOffsetEnd'
p1899
S'284'
p1900
sS'Lemma'
p1901
S'and'
p1902
sS'PartOfSpeech'
p1903
S'CC'
p1904
sS'CharacterOffsetBegin'
p1905
S'281'
p1906
stp1907
a(S'held'
p1908
(dp1909
S'NamedEntityTag'
p1910
g89
sS'CharacterOffsetEnd'
p1911
S'289'
p1912
sS'Lemma'
p1913
S'hold'
p1914
sS'PartOfSpeech'
p1915
S'VBD'
p1916
sS'CharacterOffsetBegin'
p1917
S'285'
p1918
stp1919
a(S'him'
p1920
(dp1921
S'NamedEntityTag'
p1922
g89
sS'CharacterOffsetEnd'
p1923
S'293'
p1924
sS'Lemma'
p1925
S'he'
p1926
sS'PartOfSpeech'
p1927
S'PRP'
p1928
sS'CharacterOffsetBegin'
p1929
S'290'
p1930
stp1931
a(S'until'
p1932
(dp1933
S'NamedEntityTag'
p1934
g89
sS'CharacterOffsetEnd'
p1935
S'299'
p1936
sS'Lemma'
p1937
S'until'
p1938
sS'PartOfSpeech'
p1939
S'IN'
p1940
sS'CharacterOffsetBegin'
p1941
S'294'
p1942
stp1943
a(S'past'
p1944
(dp1945
S'NormalizedNamedEntityTag'
p1946
S'PAST_REF'
p1947
sS'Timex'
p1948
S'<TIMEX3 tid="t4" type="DATE" value="PAST_REF">past</TIMEX3>'
p1949
sS'Lemma'
p1950
S'past'
p1951
sS'CharacterOffsetEnd'
p1952
S'304'
p1953
sS'PartOfSpeech'
p1954
S'JJ'
p1955
sS'CharacterOffsetBegin'
p1956
S'300'
p1957
sS'NamedEntityTag'
p1958
S'DATE'
p1959
stp1960
a(S'midnight'
p1961
(dp1962
S'NormalizedNamedEntityTag'
p1963
S'T00:00'
p1964
sS'Timex'
p1965
S'<TIMEX3 tid="t5" type="TIME" value="T00:00">midnight</TIMEX3>'
p1966
sS'Lemma'
p1967
S'midnight'
p1968
sS'CharacterOffsetEnd'
p1969
S'313'
p1970
sS'PartOfSpeech'
p1971
S'NN'
p1972
sS'CharacterOffsetBegin'
p1973
S'305'
p1974
sS'NamedEntityTag'
p1975
S'TIME'
p1976
stp1977
a(S'for'
p1978
(dp1979
S'NamedEntityTag'
p1980
g89
sS'CharacterOffsetEnd'
p1981
S'317'
p1982
sS'Lemma'
p1983
S'for'
p1984
sS'PartOfSpeech'
p1985
S'IN'
p1986
sS'CharacterOffsetBegin'
p1987
S'314'
p1988
stp1989
a(S'questioning'
p1990
(dp1991
S'NamedEntityTag'
p1992
g89
sS'CharacterOffsetEnd'
p1993
S'329'
p1994
sS'Lemma'
p1995
S'question'
p1996
sS'PartOfSpeech'
p1997
S'VBG'
p1998
sS'CharacterOffsetBegin'
p1999
S'318'
p2000
stp2001
a(S'about'
p2002
(dp2003
S'NamedEntityTag'
p2004
g89
sS'CharacterOffsetEnd'
p2005
S'335'
p2006
sS'Lemma'
p2007
S'about'
p2008
sS'PartOfSpeech'
p2009
S'IN'
p2010
sS'CharacterOffsetBegin'
p2011
S'330'
p2012
stp2013
a(S'the'
p2014
(dp2015
S'NamedEntityTag'
p2016
g89
sS'CharacterOffsetEnd'
p2017
S'339'
p2018
sS'Lemma'
p2019
S'the'
p2020
sS'PartOfSpeech'
p2021
S'DT'
p2022
sS'CharacterOffsetBegin'
p2023
S'336'
p2024
stp2025
a(S'groups'
p2026
(dp2027
S'NamedEntityTag'
p2028
g89
sS'CharacterOffsetEnd'
p2029
S'346'
p2030
sS'Lemma'
p2031
S'group'
p2032
sS'PartOfSpeech'
p2033
S'NNS'
p2034
sS'CharacterOffsetBegin'
p2035
S'340'
p2036
stp2037
a(S'members'
p2038
(dp2039
S'NamedEntityTag'
p2040
g89
sS'CharacterOffsetEnd'
p2041
S'354'
p2042
sS'Lemma'
p2043
S'member'
p2044
sS'PartOfSpeech'
p2045
S'NNS'
p2046
sS'CharacterOffsetBegin'
p2047
S'347'
p2048
stp2049
a(g343
(dp2050
S'NamedEntityTag'
p2051
g89
sS'CharacterOffsetEnd'
p2052
S'355'
p2053
sS'Lemma'
p2054
g343
sS'PartOfSpeech'
p2055
g343
sS'CharacterOffsetBegin'
p2056
S'354'
p2057
stp2058
a(S'said'
p2059
(dp2060
S'NamedEntityTag'
p2061
g89
sS'CharacterOffsetEnd'
p2062
S'360'
p2063
sS'Lemma'
p2064
S'say'
p2065
sS'PartOfSpeech'
p2066
S'VBD'
p2067
sS'CharacterOffsetBegin'
p2068
S'356'
p2069
stp2070
a(S'the'
p2071
(dp2072
S'NamedEntityTag'
p2073
g89
sS'CharacterOffsetEnd'
p2074
S'364'
p2075
sS'Lemma'
p2076
S'the'
p2077
sS'PartOfSpeech'
p2078
S'DT'
p2079
sS'CharacterOffsetBegin'
p2080
S'361'
p2081
stp2082
a(S'Information'
p2083
(dp2084
S'NamedEntityTag'
p2085
S'ORGANIZATION'
p2086
sS'CharacterOffsetEnd'
p2087
S'376'
p2088
sS'Lemma'
p2089
S'Information'
p2090
sS'PartOfSpeech'
p2091
S'NNP'
p2092
sS'CharacterOffsetBegin'
p2093
S'365'
p2094
stp2095
a(S'Center'
p2096
(dp2097
S'NamedEntityTag'
p2098
S'ORGANIZATION'
p2099
sS'CharacterOffsetEnd'
p2100
S'383'
p2101
sS'Lemma'
p2102
S'Center'
p2103
sS'PartOfSpeech'
p2104
S'NNP'
p2105
sS'CharacterOffsetBegin'
p2106
S'377'
p2107
stp2108
a(S'of'
p2109
(dp2110
S'NamedEntityTag'
p2111
S'ORGANIZATION'
p2112
sS'CharacterOffsetEnd'
p2113
S'386'
p2114
sS'Lemma'
p2115
S'of'
p2116
sS'PartOfSpeech'
p2117
S'IN'
p2118
sS'CharacterOffsetBegin'
p2119
S'384'
p2120
stp2121
a(S'Human'
p2122
(dp2123
S'NamedEntityTag'
p2124
S'ORGANIZATION'
p2125
sS'CharacterOffsetEnd'
p2126
S'392'
p2127
sS'Lemma'
p2128
S'Human'
p2129
sS'PartOfSpeech'
p2130
S'NNP'
p2131
sS'CharacterOffsetBegin'
p2132
S'387'
p2133
stp2134
a(S'Rights'
p2135
(dp2136
S'NamedEntityTag'
p2137
S'ORGANIZATION'
p2138
sS'CharacterOffsetEnd'
p2139
S'399'
p2140
sS'Lemma'
p2141
S'Rights'
p2142
sS'PartOfSpeech'
p2143
S'NNPS'
p2144
sS'CharacterOffsetBegin'
p2145
S'393'
p2146
stp2147
a(S'and'
p2148
(dp2149
S'NamedEntityTag'
p2150
S'ORGANIZATION'
p2151
sS'CharacterOffsetEnd'
p2152
S'403'
p2153
sS'Lemma'
p2154
S'and'
p2155
sS'PartOfSpeech'
p2156
S'CC'
p2157
sS'CharacterOffsetBegin'
p2158
S'400'
p2159
stp2160
a(S'Democratic'
p2161
(dp2162
S'NamedEntityTag'
p2163
S'ORGANIZATION'
p2164
sS'CharacterOffsetEnd'
p2165
S'414'
p2166
sS'Lemma'
p2167
S'democratic'
p2168
sS'PartOfSpeech'
p2169
S'JJ'
p2170
sS'CharacterOffsetBegin'
p2171
S'404'
p2172
stp2173
a(S'Movement'
p2174
(dp2175
S'NamedEntityTag'
p2176
S'ORGANIZATION'
p2177
sS'CharacterOffsetEnd'
p2178
S'423'
p2179
sS'Lemma'
p2180
S'Movement'
p2181
sS'PartOfSpeech'
p2182
S'NNP'
p2183
sS'CharacterOffsetBegin'
p2184
S'415'
p2185
stp2186
a(S'in'
p2187
(dp2188
S'NamedEntityTag'
p2189
g89
sS'CharacterOffsetEnd'
p2190
S'426'
p2191
sS'Lemma'
p2192
S'in'
p2193
sS'PartOfSpeech'
p2194
S'IN'
p2195
sS'CharacterOffsetBegin'
p2196
S'424'
p2197
stp2198
a(S'China'
p2199
(dp2200
S'NamedEntityTag'
p2201
S'LOCATION'
p2202
sS'CharacterOffsetEnd'
p2203
S'432'
p2204
sS'Lemma'
p2205
S'China'
p2206
sS'PartOfSpeech'
p2207
S'NNP'
p2208
sS'CharacterOffsetBegin'
p2209
S'427'
p2210
stp2211
a(g1475
(dp2212
S'NamedEntityTag'
p2213
g89
sS'CharacterOffsetEnd'
p2214
S'433'
p2215
sS'Lemma'
p2216
g1475
sS'PartOfSpeech'
p2217
g1475
sS'CharacterOffsetBegin'
p2218
S'432'
p2219
stp2220
asa(dp2221
g7
S'(ROOT (S (NP (NNP Police)) (VP (VBD wanted) (NP (NP (DT a) (NN list)) (PP (IN of) (NP (NP (NP (NNS members)) (PP (IN with) (NP (NP (PRP$ their) (NN work)) (CC and) (NP (NN home) (NNS addresses))))) (, ,) (NP (NP (DT a) (NN demand)) (SBAR (S (NP (DT An) (NN Jun)) (VP (VBD refused) (PP (IN for) (NP (NP (NN fear)) (PP (IN of) (S (VP (VBG getting) (NP (PRP them)) (PP (IN into) (NP (NN trouble)))))))))))) (, ,) (NP (NP (DT the) (ADVP (NNP Hong) (JJ Kong-based)) (NN Information)) (SBAR (S (NP (NNP Center)) (VP (VBD said))))))))) (. .)))'
p2222
sg9
S'Police wanted a list of members with their work and home addresses, a demand An Jun refused for fear of getting them into trouble, the Hong Kong-based Information Center said.'
p2223
sg11
(lp2224
(S'root'
p2225
S'ROOT'
p2226
S'wanted'
p2227
tp2228
a(S'nsubj'
p2229
S'wanted'
p2230
S'Police'
p2231
tp2232
a(S'det'
p2233
S'list'
p2234
g931
tp2235
a(S'dobj'
p2236
S'wanted'
p2237
S'list'
p2238
tp2239
a(S'prep_of'
p2240
S'list'
p2241
S'members'
p2242
tp2243
a(S'poss'
p2244
S'work'
p2245
S'their'
p2246
tp2247
a(S'prep_with'
p2248
S'members'
p2249
S'work'
p2250
tp2251
a(S'nn'
p2252
S'addresses'
p2253
S'home'
p2254
tp2255
a(S'conj_and'
p2256
S'work'
p2257
S'addresses'
p2258
tp2259
a(S'det'
p2260
S'demand'
p2261
g931
tp2262
a(S'appos'
p2263
S'members'
p2264
S'demand'
p2265
tp2266
a(S'det'
p2267
S'Jun'
p2268
S'An'
p2269
tp2270
a(S'nsubj'
p2271
S'refused'
p2272
S'Jun'
p2273
tp2274
a(S'rcmod'
p2275
S'demand'
p2276
S'refused'
p2277
tp2278
a(S'prep_for'
p2279
S'refused'
p2280
S'fear'
p2281
tp2282
a(S'prepc_of'
p2283
S'fear'
p2284
S'getting'
p2285
tp2286
a(S'dobj'
p2287
S'getting'
p2288
S'them'
p2289
tp2290
a(S'prep_into'
p2291
S'getting'
p2292
S'trouble'
p2293
tp2294
a(S'det'
p2295
S'Information'
p2296
S'the'
p2297
tp2298
a(S'dep'
p2299
S'Kong-based'
p2300
S'Hong'
p2301
tp2302
a(S'advmod'
p2303
S'Information'
p2304
S'Kong-based'
p2305
tp2306
a(S'appos'
p2307
S'members'
p2308
S'Information'
p2309
tp2310
a(S'nsubj'
p2311
S'said'
p2312
S'Center'
p2313
tp2314
a(S'rcmod'
p2315
S'Information'
p2316
S'said'
p2317
tp2318
asg45
(lp2319
(g2225
S'ROOT-0'
p2320
S'wanted-2'
p2321
tp2322
a(g2229
S'wanted-2'
p2323
S'Police-1'
p2324
tp2325
a(g2233
S'list-4'
p2326
S'a-3'
p2327
tp2328
a(g2236
S'wanted-2'
p2329
S'list-4'
p2330
tp2331
a(g2240
S'list-4'
p2332
S'members-6'
p2333
tp2334
a(g2244
S'work-9'
p2335
S'their-8'
p2336
tp2337
a(g2248
S'members-6'
p2338
S'work-9'
p2339
tp2340
a(g2252
S'addresses-12'
p2341
S'home-11'
p2342
tp2343
a(g2256
S'work-9'
p2344
S'addresses-12'
p2345
tp2346
a(g2260
S'demand-15'
p2347
S'a-14'
p2348
tp2349
a(g2263
S'members-6'
p2350
S'demand-15'
p2351
tp2352
a(g2267
S'Jun-17'
p2353
S'An-16'
p2354
tp2355
a(g2271
S'refused-18'
p2356
S'Jun-17'
p2357
tp2358
a(g2275
S'demand-15'
p2359
S'refused-18'
p2360
tp2361
a(g2279
S'refused-18'
p2362
S'fear-20'
p2363
tp2364
a(g2283
S'fear-20'
p2365
S'getting-22'
p2366
tp2367
a(g2287
S'getting-22'
p2368
S'them-23'
p2369
tp2370
a(g2291
S'getting-22'
p2371
S'trouble-25'
p2372
tp2373
a(g2295
S'Information-30'
p2374
S'the-27'
p2375
tp2376
a(g2299
S'Kong-based-29'
p2377
S'Hong-28'
p2378
tp2379
a(g2303
S'Information-30'
p2380
S'Kong-based-29'
p2381
tp2382
a(g2307
S'members-6'
p2383
S'Information-30'
p2384
tp2385
a(g2311
S'said-32'
p2386
S'Center-31'
p2387
tp2388
a(g2315
S'Information-30'
p2389
S'said-32'
p2390
tp2391
asg71
(lp2392
(S'Police'
p2393
(dp2394
S'NamedEntityTag'
p2395
g89
sS'CharacterOffsetEnd'
p2396
S'440'
p2397
sS'Lemma'
p2398
S'Police'
p2399
sS'PartOfSpeech'
p2400
S'NNP'
p2401
sS'CharacterOffsetBegin'
p2402
S'434'
p2403
stp2404
a(S'wanted'
p2405
(dp2406
S'NamedEntityTag'
p2407
g89
sS'CharacterOffsetEnd'
p2408
S'447'
p2409
sS'Lemma'
p2410
S'want'
p2411
sS'PartOfSpeech'
p2412
S'VBD'
p2413
sS'CharacterOffsetBegin'
p2414
S'441'
p2415
stp2416
a(g931
(dp2417
S'NamedEntityTag'
p2418
g89
sS'CharacterOffsetEnd'
p2419
S'449'
p2420
sS'Lemma'
p2421
g931
sS'PartOfSpeech'
p2422
S'DT'
p2423
sS'CharacterOffsetBegin'
p2424
S'448'
p2425
stp2426
a(S'list'
p2427
(dp2428
S'NamedEntityTag'
p2429
g89
sS'CharacterOffsetEnd'
p2430
S'454'
p2431
sS'Lemma'
p2432
S'list'
p2433
sS'PartOfSpeech'
p2434
S'NN'
p2435
sS'CharacterOffsetBegin'
p2436
S'450'
p2437
stp2438
a(S'of'
p2439
(dp2440
S'NamedEntityTag'
p2441
g89
sS'CharacterOffsetEnd'
p2442
S'457'
p2443
sS'Lemma'
p2444
S'of'
p2445
sS'PartOfSpeech'
p2446
S'IN'
p2447
sS'CharacterOffsetBegin'
p2448
S'455'
p2449
stp2450
a(S'members'
p2451
(dp2452
S'NamedEntityTag'
p2453
g89
sS'CharacterOffsetEnd'
p2454
S'465'
p2455
sS'Lemma'
p2456
S'member'
p2457
sS'PartOfSpeech'
p2458
S'NNS'
p2459
sS'CharacterOffsetBegin'
p2460
S'458'
p2461
stp2462
a(S'with'
p2463
(dp2464
S'NamedEntityTag'
p2465
g89
sS'CharacterOffsetEnd'
p2466
S'470'
p2467
sS'Lemma'
p2468
S'with'
p2469
sS'PartOfSpeech'
p2470
S'IN'
p2471
sS'CharacterOffsetBegin'
p2472
S'466'
p2473
stp2474
a(S'their'
p2475
(dp2476
S'NamedEntityTag'
p2477
g89
sS'CharacterOffsetEnd'
p2478
S'476'
p2479
sS'Lemma'
p2480
S'they'
p2481
sS'PartOfSpeech'
p2482
S'PRP$'
p2483
sS'CharacterOffsetBegin'
p2484
S'471'
p2485
stp2486
a(S'work'
p2487
(dp2488
S'NamedEntityTag'
p2489
g89
sS'CharacterOffsetEnd'
p2490
S'481'
p2491
sS'Lemma'
p2492
S'work'
p2493
sS'PartOfSpeech'
p2494
S'NN'
p2495
sS'CharacterOffsetBegin'
p2496
S'477'
p2497
stp2498
a(S'and'
p2499
(dp2500
S'NamedEntityTag'
p2501
g89
sS'CharacterOffsetEnd'
p2502
S'485'
p2503
sS'Lemma'
p2504
S'and'
p2505
sS'PartOfSpeech'
p2506
S'CC'
p2507
sS'CharacterOffsetBegin'
p2508
S'482'
p2509
stp2510
a(S'home'
p2511
(dp2512
S'NamedEntityTag'
p2513
g89
sS'CharacterOffsetEnd'
p2514
S'490'
p2515
sS'Lemma'
p2516
S'home'
p2517
sS'PartOfSpeech'
p2518
S'NN'
p2519
sS'CharacterOffsetBegin'
p2520
S'486'
p2521
stp2522
a(S'addresses'
p2523
(dp2524
S'NamedEntityTag'
p2525
g89
sS'CharacterOffsetEnd'
p2526
S'500'
p2527
sS'Lemma'
p2528
S'address'
p2529
sS'PartOfSpeech'
p2530
S'NNS'
p2531
sS'CharacterOffsetBegin'
p2532
S'491'
p2533
stp2534
a(g343
(dp2535
S'NamedEntityTag'
p2536
g89
sS'CharacterOffsetEnd'
p2537
S'501'
p2538
sS'Lemma'
p2539
g343
sS'PartOfSpeech'
p2540
g343
sS'CharacterOffsetBegin'
p2541
S'500'
p2542
stp2543
a(g931
(dp2544
S'NamedEntityTag'
p2545
g89
sS'CharacterOffsetEnd'
p2546
S'503'
p2547
sS'Lemma'
p2548
g931
sS'PartOfSpeech'
p2549
S'DT'
p2550
sS'CharacterOffsetBegin'
p2551
S'502'
p2552
stp2553
a(S'demand'
p2554
(dp2555
S'NamedEntityTag'
p2556
g89
sS'CharacterOffsetEnd'
p2557
S'510'
p2558
sS'Lemma'
p2559
S'demand'
p2560
sS'PartOfSpeech'
p2561
S'NN'
p2562
sS'CharacterOffsetBegin'
p2563
S'504'
p2564
stp2565
a(S'An'
p2566
(dp2567
S'NamedEntityTag'
p2568
g89
sS'CharacterOffsetEnd'
p2569
S'513'
p2570
sS'Lemma'
p2571
g931
sS'PartOfSpeech'
p2572
S'DT'
p2573
sS'CharacterOffsetBegin'
p2574
S'511'
p2575
stp2576
a(S'Jun'
p2577
(dp2578
S'NormalizedNamedEntityTag'
p2579
S'XXXX-06'
p2580
sS'Timex'
p2581
S'<TIMEX3 tid="t6" type="DATE" value="XXXX-06">Jun</TIMEX3>'
p2582
sS'Lemma'
p2583
S'jun'
p2584
sS'CharacterOffsetEnd'
p2585
S'517'
p2586
sS'PartOfSpeech'
p2587
S'NN'
p2588
sS'CharacterOffsetBegin'
p2589
S'514'
p2590
sS'NamedEntityTag'
p2591
S'DATE'
p2592
stp2593
a(S'refused'
p2594
(dp2595
S'NamedEntityTag'
p2596
g89
sS'CharacterOffsetEnd'
p2597
S'525'
p2598
sS'Lemma'
p2599
S'refuse'
p2600
sS'PartOfSpeech'
p2601
S'VBD'
p2602
sS'CharacterOffsetBegin'
p2603
S'518'
p2604
stp2605
a(S'for'
p2606
(dp2607
S'NamedEntityTag'
p2608
g89
sS'CharacterOffsetEnd'
p2609
S'529'
p2610
sS'Lemma'
p2611
S'for'
p2612
sS'PartOfSpeech'
p2613
S'IN'
p2614
sS'CharacterOffsetBegin'
p2615
S'526'
p2616
stp2617
a(S'fear'
p2618
(dp2619
S'NamedEntityTag'
p2620
g89
sS'CharacterOffsetEnd'
p2621
S'534'
p2622
sS'Lemma'
p2623
S'fear'
p2624
sS'PartOfSpeech'
p2625
S'NN'
p2626
sS'CharacterOffsetBegin'
p2627
S'530'
p2628
stp2629
a(S'of'
p2630
(dp2631
S'NamedEntityTag'
p2632
g89
sS'CharacterOffsetEnd'
p2633
S'537'
p2634
sS'Lemma'
p2635
S'of'
p2636
sS'PartOfSpeech'
p2637
S'IN'
p2638
sS'CharacterOffsetBegin'
p2639
S'535'
p2640
stp2641
a(S'getting'
p2642
(dp2643
S'NamedEntityTag'
p2644
g89
sS'CharacterOffsetEnd'
p2645
S'545'
p2646
sS'Lemma'
p2647
S'get'
p2648
sS'PartOfSpeech'
p2649
S'VBG'
p2650
sS'CharacterOffsetBegin'
p2651
S'538'
p2652
stp2653
a(S'them'
p2654
(dp2655
S'NamedEntityTag'
p2656
g89
sS'CharacterOffsetEnd'
p2657
S'550'
p2658
sS'Lemma'
p2659
S'they'
p2660
sS'PartOfSpeech'
p2661
S'PRP'
p2662
sS'CharacterOffsetBegin'
p2663
S'546'
p2664
stp2665
a(S'into'
p2666
(dp2667
S'NamedEntityTag'
p2668
g89
sS'CharacterOffsetEnd'
p2669
S'555'
p2670
sS'Lemma'
p2671
S'into'
p2672
sS'PartOfSpeech'
p2673
S'IN'
p2674
sS'CharacterOffsetBegin'
p2675
S'551'
p2676
stp2677
a(S'trouble'
p2678
(dp2679
S'NamedEntityTag'
p2680
g89
sS'CharacterOffsetEnd'
p2681
S'563'
p2682
sS'Lemma'
p2683
S'trouble'
p2684
sS'PartOfSpeech'
p2685
S'NN'
p2686
sS'CharacterOffsetBegin'
p2687
S'556'
p2688
stp2689
a(g343
(dp2690
S'NamedEntityTag'
p2691
g89
sS'CharacterOffsetEnd'
p2692
S'564'
p2693
sS'Lemma'
p2694
g343
sS'PartOfSpeech'
p2695
g343
sS'CharacterOffsetBegin'
p2696
S'563'
p2697
stp2698
a(S'the'
p2699
(dp2700
S'NamedEntityTag'
p2701
g89
sS'CharacterOffsetEnd'
p2702
S'568'
p2703
sS'Lemma'
p2704
S'the'
p2705
sS'PartOfSpeech'
p2706
S'DT'
p2707
sS'CharacterOffsetBegin'
p2708
S'565'
p2709
stp2710
a(S'Hong'
p2711
(dp2712
S'NamedEntityTag'
p2713
S'MISC'
p2714
sS'CharacterOffsetEnd'
p2715
S'573'
p2716
sS'Lemma'
p2717
S'Hong'
p2718
sS'PartOfSpeech'
p2719
S'NNP'
p2720
sS'CharacterOffsetBegin'
p2721
S'569'
p2722
stp2723
a(S'Kong-based'
p2724
(dp2725
S'NamedEntityTag'
p2726
S'MISC'
p2727
sS'CharacterOffsetEnd'
p2728
S'584'
p2729
sS'Lemma'
p2730
S'kong-based'
p2731
sS'PartOfSpeech'
p2732
S'JJ'
p2733
sS'CharacterOffsetBegin'
p2734
S'574'
p2735
stp2736
a(S'Information'
p2737
(dp2738
S'NamedEntityTag'
p2739
S'ORGANIZATION'
p2740
sS'CharacterOffsetEnd'
p2741
S'596'
p2742
sS'Lemma'
p2743
S'information'
p2744
sS'PartOfSpeech'
p2745
S'NN'
p2746
sS'CharacterOffsetBegin'
p2747
S'585'
p2748
stp2749
a(S'Center'
p2750
(dp2751
S'NamedEntityTag'
p2752
S'ORGANIZATION'
p2753
sS'CharacterOffsetEnd'
p2754
S'603'
p2755
sS'Lemma'
p2756
S'Center'
p2757
sS'PartOfSpeech'
p2758
S'NNP'
p2759
sS'CharacterOffsetBegin'
p2760
S'597'
p2761
stp2762
a(S'said'
p2763
(dp2764
S'NamedEntityTag'
p2765
g89
sS'CharacterOffsetEnd'
p2766
S'608'
p2767
sS'Lemma'
p2768
S'say'
p2769
sS'PartOfSpeech'
p2770
S'VBD'
p2771
sS'CharacterOffsetBegin'
p2772
S'604'
p2773
stp2774
a(g1475
(dp2775
S'NamedEntityTag'
p2776
g89
sS'CharacterOffsetEnd'
p2777
S'609'
p2778
sS'Lemma'
p2779
g1475
sS'PartOfSpeech'
p2780
g1475
sS'CharacterOffsetBegin'
p2781
S'608'
p2782
stp2783
asa(dp2784
g7
S'(ROOT (S (S (NP (NP (NNP Corruption) (NNP Watch)) (, ,) (VP (VBN founded) (PP (IN by) (NP (NP (CD nine) (NNS dissidents)) (PP (IN in) (NP (CD seven) (NNS provinces)))))) (, ,)) (ADVP (RB now)) (VP (VBZ has) (NP (QP (RB nearly) (CD 100)) (NNS members)))) (, ,) (NP (DT the) (NN center)) (VP (VBD said)) (. .)))'
p2785
sg9
S'Corruption Watch, founded by nine dissidents in seven provinces, now has nearly 100 members, the center said.'
p2786
sg11
(lp2787
(S'root'
p2788
S'ROOT'
p2789
S'said'
p2790
tp2791
a(S'nn'
p2792
S'Watch'
p2793
S'Corruption'
p2794
tp2795
a(S'nsubj'
p2796
S'has'
p2797
S'Watch'
p2798
tp2799
a(S'partmod'
p2800
S'Watch'
p2801
S'founded'
p2802
tp2803
a(S'num'
p2804
S'dissidents'
p2805
S'nine'
p2806
tp2807
a(S'agent'
p2808
S'founded'
p2809
S'dissidents'
p2810
tp2811
a(S'num'
p2812
S'provinces'
p2813
S'seven'
p2814
tp2815
a(S'prep_in'
p2816
S'dissidents'
p2817
S'provinces'
p2818
tp2819
a(S'advmod'
p2820
S'has'
p2821
S'now'
p2822
tp2823
a(S'ccomp'
p2824
S'said'
p2825
S'has'
p2826
tp2827
a(S'quantmod'
p2828
S'100'
p2829
S'nearly'
p2830
tp2831
a(S'num'
p2832
S'members'
p2833
S'100'
p2834
tp2835
a(S'dobj'
p2836
S'has'
p2837
S'members'
p2838
tp2839
a(S'det'
p2840
S'center'
p2841
S'the'
p2842
tp2843
a(S'nsubj'
p2844
S'said'
p2845
S'center'
p2846
tp2847
asg45
(lp2848
(g2788
S'ROOT-0'
p2849
S'said-20'
p2850
tp2851
a(g2792
S'Watch-2'
p2852
S'Corruption-1'
p2853
tp2854
a(g2796
S'has-13'
p2855
S'Watch-2'
p2856
tp2857
a(g2800
S'Watch-2'
p2858
S'founded-4'
p2859
tp2860
a(g2804
S'dissidents-7'
p2861
S'nine-6'
p2862
tp2863
a(g2808
S'founded-4'
p2864
S'dissidents-7'
p2865
tp2866
a(g2812
S'provinces-10'
p2867
S'seven-9'
p2868
tp2869
a(g2816
S'dissidents-7'
p2870
S'provinces-10'
p2871
tp2872
a(g2820
S'has-13'
p2873
S'now-12'
p2874
tp2875
a(g2824
S'said-20'
p2876
S'has-13'
p2877
tp2878
a(g2828
S'100-15'
p2879
S'nearly-14'
p2880
tp2881
a(g2832
S'members-16'
p2882
S'100-15'
p2883
tp2884
a(g2836
S'has-13'
p2885
S'members-16'
p2886
tp2887
a(g2840
S'center-19'
p2888
S'the-18'
p2889
tp2890
a(g2844
S'said-20'
p2891
S'center-19'
p2892
tp2893
asg71
(lp2894
(S'Corruption'
p2895
(dp2896
S'NamedEntityTag'
p2897
g89
sS'CharacterOffsetEnd'
p2898
S'620'
p2899
sS'Lemma'
p2900
S'Corruption'
p2901
sS'PartOfSpeech'
p2902
S'NNP'
p2903
sS'CharacterOffsetBegin'
p2904
S'610'
p2905
stp2906
a(S'Watch'
p2907
(dp2908
S'NamedEntityTag'
p2909
g89
sS'CharacterOffsetEnd'
p2910
S'626'
p2911
sS'Lemma'
p2912
S'Watch'
p2913
sS'PartOfSpeech'
p2914
S'NNP'
p2915
sS'CharacterOffsetBegin'
p2916
S'621'
p2917
stp2918
a(g343
(dp2919
S'NamedEntityTag'
p2920
g89
sS'CharacterOffsetEnd'
p2921
S'627'
p2922
sS'Lemma'
p2923
g343
sS'PartOfSpeech'
p2924
g343
sS'CharacterOffsetBegin'
p2925
S'626'
p2926
stp2927
a(S'founded'
p2928
(dp2929
S'NamedEntityTag'
p2930
g89
sS'CharacterOffsetEnd'
p2931
S'635'
p2932
sS'Lemma'
p2933
S'found'
p2934
sS'PartOfSpeech'
p2935
S'VBN'
p2936
sS'CharacterOffsetBegin'
p2937
S'628'
p2938
stp2939
a(S'by'
p2940
(dp2941
S'NamedEntityTag'
p2942
g89
sS'CharacterOffsetEnd'
p2943
S'638'
p2944
sS'Lemma'
p2945
S'by'
p2946
sS'PartOfSpeech'
p2947
S'IN'
p2948
sS'CharacterOffsetBegin'
p2949
S'636'
p2950
stp2951
a(S'nine'
p2952
(dp2953
S'NormalizedNamedEntityTag'
p2954
S'9.0'
p2955
sS'Lemma'
p2956
S'nine'
p2957
sS'CharacterOffsetEnd'
p2958
S'643'
p2959
sS'PartOfSpeech'
p2960
S'CD'
p2961
sS'CharacterOffsetBegin'
p2962
S'639'
p2963
sS'NamedEntityTag'
p2964
S'NUMBER'
p2965
stp2966
a(S'dissidents'
p2967
(dp2968
S'NamedEntityTag'
p2969
g89
sS'CharacterOffsetEnd'
p2970
S'654'
p2971
sS'Lemma'
p2972
S'dissident'
p2973
sS'PartOfSpeech'
p2974
S'NNS'
p2975
sS'CharacterOffsetBegin'
p2976
S'644'
p2977
stp2978
a(S'in'
p2979
(dp2980
S'NamedEntityTag'
p2981
g89
sS'CharacterOffsetEnd'
p2982
S'657'
p2983
sS'Lemma'
p2984
S'in'
p2985
sS'PartOfSpeech'
p2986
S'IN'
p2987
sS'CharacterOffsetBegin'
p2988
S'655'
p2989
stp2990
a(S'seven'
p2991
(dp2992
S'NormalizedNamedEntityTag'
p2993
S'7.0'
p2994
sS'Lemma'
p2995
S'seven'
p2996
sS'CharacterOffsetEnd'
p2997
S'663'
p2998
sS'PartOfSpeech'
p2999
S'CD'
p3000
sS'CharacterOffsetBegin'
p3001
S'658'
p3002
sS'NamedEntityTag'
p3003
S'NUMBER'
p3004
stp3005
a(S'provinces'
p3006
(dp3007
S'NamedEntityTag'
p3008
g89
sS'CharacterOffsetEnd'
p3009
S'673'
p3010
sS'Lemma'
p3011
S'province'
p3012
sS'PartOfSpeech'
p3013
S'NNS'
p3014
sS'CharacterOffsetBegin'
p3015
S'664'
p3016
stp3017
a(g343
(dp3018
S'NamedEntityTag'
p3019
g89
sS'CharacterOffsetEnd'
p3020
S'674'
p3021
sS'Lemma'
p3022
g343
sS'PartOfSpeech'
p3023
g343
sS'CharacterOffsetBegin'
p3024
S'673'
p3025
stp3026
a(S'now'
p3027
(dp3028
S'NormalizedNamedEntityTag'
p3029
S'PRESENT_REF'
p3030
sS'Timex'
p3031
S'<TIMEX3 tid="t7" type="DATE" value="PRESENT_REF">now</TIMEX3>'
p3032
sS'Lemma'
p3033
S'now'
p3034
sS'CharacterOffsetEnd'
p3035
S'678'
p3036
sS'PartOfSpeech'
p3037
S'RB'
p3038
sS'CharacterOffsetBegin'
p3039
S'675'
p3040
sS'NamedEntityTag'
p3041
S'DATE'
p3042
stp3043
a(S'has'
p3044
(dp3045
S'NamedEntityTag'
p3046
g89
sS'CharacterOffsetEnd'
p3047
S'682'
p3048
sS'Lemma'
p3049
S'have'
p3050
sS'PartOfSpeech'
p3051
S'VBZ'
p3052
sS'CharacterOffsetBegin'
p3053
S'679'
p3054
stp3055
a(S'nearly'
p3056
(dp3057
S'NamedEntityTag'
p3058
g89
sS'CharacterOffsetEnd'
p3059
S'689'
p3060
sS'Lemma'
p3061
S'nearly'
p3062
sS'PartOfSpeech'
p3063
S'RB'
p3064
sS'CharacterOffsetBegin'
p3065
S'683'
p3066
stp3067
a(S'100'
p3068
(dp3069
S'NormalizedNamedEntityTag'
p3070
S'~100.0'
p3071
sS'Lemma'
p3072
S'100'
p3073
sS'CharacterOffsetEnd'
p3074
S'693'
p3075
sS'PartOfSpeech'
p3076
S'CD'
p3077
sS'CharacterOffsetBegin'
p3078
S'690'
p3079
sS'NamedEntityTag'
p3080
S'NUMBER'
p3081
stp3082
a(S'members'
p3083
(dp3084
S'NamedEntityTag'
p3085
g89
sS'CharacterOffsetEnd'
p3086
S'701'
p3087
sS'Lemma'
p3088
S'member'
p3089
sS'PartOfSpeech'
p3090
S'NNS'
p3091
sS'CharacterOffsetBegin'
p3092
S'694'
p3093
stp3094
a(g343
(dp3095
S'NamedEntityTag'
p3096
g89
sS'CharacterOffsetEnd'
p3097
S'702'
p3098
sS'Lemma'
p3099
g343
sS'PartOfSpeech'
p3100
g343
sS'CharacterOffsetBegin'
p3101
S'701'
p3102
stp3103
a(S'the'
p3104
(dp3105
S'NamedEntityTag'
p3106
g89
sS'CharacterOffsetEnd'
p3107
S'706'
p3108
sS'Lemma'
p3109
S'the'
p3110
sS'PartOfSpeech'
p3111
S'DT'
p3112
sS'CharacterOffsetBegin'
p3113
S'703'
p3114
stp3115
a(S'center'
p3116
(dp3117
S'NamedEntityTag'
p3118
g89
sS'CharacterOffsetEnd'
p3119
S'713'
p3120
sS'Lemma'
p3121
S'center'
p3122
sS'PartOfSpeech'
p3123
S'NN'
p3124
sS'CharacterOffsetBegin'
p3125
S'707'
p3126
stp3127
a(S'said'
p3128
(dp3129
S'NamedEntityTag'
p3130
g89
sS'CharacterOffsetEnd'
p3131
S'718'
p3132
sS'Lemma'
p3133
S'say'
p3134
sS'PartOfSpeech'
p3135
S'VBD'
p3136
sS'CharacterOffsetBegin'
p3137
S'714'
p3138
stp3139
a(g1475
(dp3140
S'NamedEntityTag'
p3141
g89
sS'CharacterOffsetEnd'
p3142
S'719'
p3143
sS'Lemma'
p3144
g1475
sS'PartOfSpeech'
p3145
g1475
sS'CharacterOffsetBegin'
p3146
S'718'
p3147
stp3148
asa(dp3149
g7
S'(ROOT (S (S (NP (PRP It)) (VP (VP (VBD applied) (NP-TMP (JJ last) (NN month)) (PP (TO to) (NP (DT the) (NN government))) (S (VP (TO to) (VP (VB register) (ADVP (RB officially)))))) (, ,) (CC but) (VP (VBD received) (NP (DT no) (NN response))))) (, ,) (NP (DT the) (NN center)) (VP (VBD added)) (. .)))'
p3150
sg9
S'It applied last month to the government to register officially, but received no response, the center added.'
p3151
sg11
(lp3152
(S'root'
p3153
S'ROOT'
p3154
S'added'
p3155
tp3156
a(S'nsubj'
p3157
S'applied'
p3158
S'It'
p3159
tp3160
a(S'ccomp'
p3161
S'added'
p3162
S'applied'
p3163
tp3164
a(S'amod'
p3165
S'month'
p3166
S'last'
p3167
tp3168
a(S'tmod'
p3169
S'applied'
p3170
S'month'
p3171
tp3172
a(S'det'
p3173
S'government'
p3174
S'the'
p3175
tp3176
a(S'prep_to'
p3177
S'applied'
p3178
S'government'
p3179
tp3180
a(S'aux'
p3181
S'register'
p3182
S'to'
p3183
tp3184
a(S'xcomp'
p3185
S'applied'
p3186
S'register'
p3187
tp3188
a(S'advmod'
p3189
S'register'
p3190
S'officially'
p3191
tp3192
a(S'conj_but'
p3193
S'applied'
p3194
S'received'
p3195
tp3196
a(S'det'
p3197
S'response'
p3198
S'no'
p3199
tp3200
a(S'dobj'
p3201
S'received'
p3202
S'response'
p3203
tp3204
a(S'det'
p3205
S'center'
p3206
S'the'
p3207
tp3208
a(S'nsubj'
p3209
S'added'
p3210
S'center'
p3211
tp3212
asg45
(lp3213
(g3153
S'ROOT-0'
p3214
S'added-19'
p3215
tp3216
a(g3157
S'applied-2'
p3217
S'It-1'
p3218
tp3219
a(g3161
S'added-19'
p3220
S'applied-2'
p3221
tp3222
a(g3165
S'month-4'
p3223
S'last-3'
p3224
tp3225
a(g3169
S'applied-2'
p3226
S'month-4'
p3227
tp3228
a(g3173
S'government-7'
p3229
S'the-6'
p3230
tp3231
a(g3177
S'applied-2'
p3232
S'government-7'
p3233
tp3234
a(g3181
S'register-9'
p3235
S'to-8'
p3236
tp3237
a(g3185
S'applied-2'
p3238
S'register-9'
p3239
tp3240
a(g3189
S'register-9'
p3241
S'officially-10'
p3242
tp3243
a(g3193
S'applied-2'
p3244
S'received-13'
p3245
tp3246
a(g3197
S'response-15'
p3247
S'no-14'
p3248
tp3249
a(g3201
S'received-13'
p3250
S'response-15'
p3251
tp3252
a(g3205
S'center-18'
p3253
S'the-17'
p3254
tp3255
a(g3209
S'added-19'
p3256
S'center-18'
p3257
tp3258
asg71
(lp3259
(S'It'
p3260
(dp3261
S'NamedEntityTag'
p3262
g89
sS'CharacterOffsetEnd'
p3263
S'722'
p3264
sS'Lemma'
p3265
S'it'
p3266
sS'PartOfSpeech'
p3267
S'PRP'
p3268
sS'CharacterOffsetBegin'
p3269
S'720'
p3270
stp3271
a(S'applied'
p3272
(dp3273
S'NamedEntityTag'
p3274
g89
sS'CharacterOffsetEnd'
p3275
S'730'
p3276
sS'Lemma'
p3277
S'apply'
p3278
sS'PartOfSpeech'
p3279
S'VBD'
p3280
sS'CharacterOffsetBegin'
p3281
S'723'
p3282
stp3283
a(S'last'
p3284
(dp3285
S'NormalizedNamedEntityTag'
p3286
S'THIS'
p3287
sS'Timex'
p3288
S'<TIMEX3 alt_value="THIS P1M OFFSET P-1M" anchorTimeID="t9" temporalFunction="true" tid="t8" type="DATE" valueFromFunction="tf0">last month</TIMEX3>'
p3289
sS'Lemma'
p3290
S'last'
p3291
sS'CharacterOffsetEnd'
p3292
S'735'
p3293
sS'PartOfSpeech'
p3294
S'JJ'
p3295
sS'CharacterOffsetBegin'
p3296
S'731'
p3297
sS'NamedEntityTag'
p3298
S'DATE'
p3299
stp3300
a(S'month'
p3301
(dp3302
S'NormalizedNamedEntityTag'
p3303
S'THIS'
p3304
sS'Timex'
p3305
S'<TIMEX3 alt_value="THIS P1M OFFSET P-1M" anchorTimeID="t9" temporalFunction="true" tid="t8" type="DATE" valueFromFunction="tf0">last month</TIMEX3>'
p3306
sS'Lemma'
p3307
S'month'
p3308
sS'CharacterOffsetEnd'
p3309
S'741'
p3310
sS'PartOfSpeech'
p3311
S'NN'
p3312
sS'CharacterOffsetBegin'
p3313
S'736'
p3314
sS'NamedEntityTag'
p3315
S'DATE'
p3316
stp3317
a(S'to'
p3318
(dp3319
S'NamedEntityTag'
p3320
g89
sS'CharacterOffsetEnd'
p3321
S'744'
p3322
sS'Lemma'
p3323
S'to'
p3324
sS'PartOfSpeech'
p3325
S'TO'
p3326
sS'CharacterOffsetBegin'
p3327
S'742'
p3328
stp3329
a(S'the'
p3330
(dp3331
S'NamedEntityTag'
p3332
g89
sS'CharacterOffsetEnd'
p3333
S'748'
p3334
sS'Lemma'
p3335
S'the'
p3336
sS'PartOfSpeech'
p3337
S'DT'
p3338
sS'CharacterOffsetBegin'
p3339
S'745'
p3340
stp3341
a(S'government'
p3342
(dp3343
S'NamedEntityTag'
p3344
g89
sS'CharacterOffsetEnd'
p3345
S'759'
p3346
sS'Lemma'
p3347
S'government'
p3348
sS'PartOfSpeech'
p3349
S'NN'
p3350
sS'CharacterOffsetBegin'
p3351
S'749'
p3352
stp3353
a(S'to'
p3354
(dp3355
S'NamedEntityTag'
p3356
g89
sS'CharacterOffsetEnd'
p3357
S'762'
p3358
sS'Lemma'
p3359
S'to'
p3360
sS'PartOfSpeech'
p3361
S'TO'
p3362
sS'CharacterOffsetBegin'
p3363
S'760'
p3364
stp3365
a(S'register'
p3366
(dp3367
S'NamedEntityTag'
p3368
g89
sS'CharacterOffsetEnd'
p3369
S'771'
p3370
sS'Lemma'
p3371
S'register'
p3372
sS'PartOfSpeech'
p3373
S'VB'
p3374
sS'CharacterOffsetBegin'
p3375
S'763'
p3376
stp3377
a(S'officially'
p3378
(dp3379
S'NamedEntityTag'
p3380
g89
sS'CharacterOffsetEnd'
p3381
S'782'
p3382
sS'Lemma'
p3383
S'officially'
p3384
sS'PartOfSpeech'
p3385
S'RB'
p3386
sS'CharacterOffsetBegin'
p3387
S'772'
p3388
stp3389
a(g343
(dp3390
S'NamedEntityTag'
p3391
g89
sS'CharacterOffsetEnd'
p3392
S'783'
p3393
sS'Lemma'
p3394
g343
sS'PartOfSpeech'
p3395
g343
sS'CharacterOffsetBegin'
p3396
S'782'
p3397
stp3398
a(S'but'
p3399
(dp3400
S'NamedEntityTag'
p3401
g89
sS'CharacterOffsetEnd'
p3402
S'787'
p3403
sS'Lemma'
p3404
S'but'
p3405
sS'PartOfSpeech'
p3406
S'CC'
p3407
sS'CharacterOffsetBegin'
p3408
S'784'
p3409
stp3410
a(S'received'
p3411
(dp3412
S'NamedEntityTag'
p3413
g89
sS'CharacterOffsetEnd'
p3414
S'796'
p3415
sS'Lemma'
p3416
S'receive'
p3417
sS'PartOfSpeech'
p3418
S'VBD'
p3419
sS'CharacterOffsetBegin'
p3420
S'788'
p3421
stp3422
a(S'no'
p3423
(dp3424
S'NamedEntityTag'
p3425
g89
sS'CharacterOffsetEnd'
p3426
S'799'
p3427
sS'Lemma'
p3428
S'no'
p3429
sS'PartOfSpeech'
p3430
S'DT'
p3431
sS'CharacterOffsetBegin'
p3432
S'797'
p3433
stp3434
a(S'response'
p3435
(dp3436
S'NamedEntityTag'
p3437
g89
sS'CharacterOffsetEnd'
p3438
S'808'
p3439
sS'Lemma'
p3440
S'response'
p3441
sS'PartOfSpeech'
p3442
S'NN'
p3443
sS'CharacterOffsetBegin'
p3444
S'800'
p3445
stp3446
a(g343
(dp3447
S'NamedEntityTag'
p3448
g89
sS'CharacterOffsetEnd'
p3449
S'809'
p3450
sS'Lemma'
p3451
g343
sS'PartOfSpeech'
p3452
g343
sS'CharacterOffsetBegin'
p3453
S'808'
p3454
stp3455
a(S'the'
p3456
(dp3457
S'NamedEntityTag'
p3458
g89
sS'CharacterOffsetEnd'
p3459
S'813'
p3460
sS'Lemma'
p3461
S'the'
p3462
sS'PartOfSpeech'
p3463
S'DT'
p3464
sS'CharacterOffsetBegin'
p3465
S'810'
p3466
stp3467
a(S'center'
p3468
(dp3469
S'NamedEntityTag'
p3470
g89
sS'CharacterOffsetEnd'
p3471
S'820'
p3472
sS'Lemma'
p3473
S'center'
p3474
sS'PartOfSpeech'
p3475
S'NN'
p3476
sS'CharacterOffsetBegin'
p3477
S'814'
p3478
stp3479
a(S'added'
p3480
(dp3481
S'NamedEntityTag'
p3482
g89
sS'CharacterOffsetEnd'
p3483
S'826'
p3484
sS'Lemma'
p3485
S'add'
p3486
sS'PartOfSpeech'
p3487
S'VBD'
p3488
sS'CharacterOffsetBegin'
p3489
S'821'
p3490
stp3491
a(g1475
(dp3492
S'NamedEntityTag'
p3493
g89
sS'CharacterOffsetEnd'
p3494
S'827'
p3495
sS'Lemma'
p3496
g1475
sS'PartOfSpeech'
p3497
g1475
sS'CharacterOffsetBegin'
p3498
S'826'
p3499
stp3500
asa(dp3501
g7
S'(ROOT (S (S (NP (NP (DT The) (NN police) (NNS officers)) (SBAR (WHNP (WP who)) (S (VP (VBD questioned) (NP (DT An) (NN Jun)))))) (VP (VBD said) (SBAR (IN that) (S (PP (IN without) (NP (JJ official) (NN permission))) (, ,) (NP (DT the) (NN group)) (VP (MD must) (VP (VB cease) (NP (PRP$ its) (NNS activities)))))))) (, ,) (NP (DT the) (NN center)) (VP (VBD said)) (. .)))'
p3502
sg9
S'The police officers who questioned An Jun said that without official permission, the group must cease its activities, the center said.'
p3503
sg11
(lp3504
(S'root'
p3505
S'ROOT'
p3506
S'said'
p3507
tp3508
a(S'det'
p3509
S'officers'
p3510
S'The'
p3511
tp3512
a(S'nn'
p3513
S'officers'
p3514
S'police'
p3515
tp3516
a(S'nsubj'
p3517
S'said'
p3518
S'officers'
p3519
tp3520
a(S'nsubj'
p3521
S'questioned'
p3522
S'who'
p3523
tp3524
a(S'rcmod'
p3525
S'officers'
p3526
S'questioned'
p3527
tp3528
a(S'det'
p3529
S'Jun'
p3530
S'An'
p3531
tp3532
a(S'dobj'
p3533
S'questioned'
p3534
S'Jun'
p3535
tp3536
a(S'ccomp'
p3537
S'said'
p3538
S'said'
p3539
tp3540
a(S'mark'
p3541
S'cease'
p3542
S'that'
p3543
tp3544
a(S'amod'
p3545
S'permission'
p3546
S'official'
p3547
tp3548
a(S'prep_without'
p3549
S'cease'
p3550
S'permission'
p3551
tp3552
a(S'det'
p3553
S'group'
p3554
S'the'
p3555
tp3556
a(S'nsubj'
p3557
S'cease'
p3558
S'group'
p3559
tp3560
a(S'aux'
p3561
S'cease'
p3562
S'must'
p3563
tp3564
a(S'ccomp'
p3565
S'said'
p3566
S'cease'
p3567
tp3568
a(S'poss'
p3569
S'activities'
p3570
S'its'
p3571
tp3572
a(S'dobj'
p3573
S'cease'
p3574
S'activities'
p3575
tp3576
a(S'det'
p3577
S'center'
p3578
S'the'
p3579
tp3580
a(S'nsubj'
p3581
S'said'
p3582
S'center'
p3583
tp3584
asg45
(lp3585
(g3505
S'ROOT-0'
p3586
S'said-23'
p3587
tp3588
a(g3509
S'officers-3'
p3589
S'The-1'
p3590
tp3591
a(g3513
S'officers-3'
p3592
S'police-2'
p3593
tp3594
a(g3517
S'said-8'
p3595
S'officers-3'
p3596
tp3597
a(g3521
S'questioned-5'
p3598
S'who-4'
p3599
tp3600
a(g3525
S'officers-3'
p3601
S'questioned-5'
p3602
tp3603
a(g3529
S'Jun-7'
p3604
S'An-6'
p3605
tp3606
a(g3533
S'questioned-5'
p3607
S'Jun-7'
p3608
tp3609
a(g3537
S'said-23'
p3610
S'said-8'
p3611
tp3612
a(g3541
S'cease-17'
p3613
S'that-9'
p3614
tp3615
a(g3545
S'permission-12'
p3616
S'official-11'
p3617
tp3618
a(g3549
S'cease-17'
p3619
S'permission-12'
p3620
tp3621
a(g3553
S'group-15'
p3622
S'the-14'
p3623
tp3624
a(g3557
S'cease-17'
p3625
S'group-15'
p3626
tp3627
a(g3561
S'cease-17'
p3628
S'must-16'
p3629
tp3630
a(g3565
S'said-8'
p3631
S'cease-17'
p3632
tp3633
a(g3569
S'activities-19'
p3634
S'its-18'
p3635
tp3636
a(g3573
S'cease-17'
p3637
S'activities-19'
p3638
tp3639
a(g3577
S'center-22'
p3640
S'the-21'
p3641
tp3642
a(g3581
S'said-23'
p3643
S'center-22'
p3644
tp3645
asg71
(lp3646
(S'The'
p3647
(dp3648
S'NamedEntityTag'
p3649
g89
sS'CharacterOffsetEnd'
p3650
S'831'
p3651
sS'Lemma'
p3652
S'the'
p3653
sS'PartOfSpeech'
p3654
S'DT'
p3655
sS'CharacterOffsetBegin'
p3656
S'828'
p3657
stp3658
a(S'police'
p3659
(dp3660
S'NamedEntityTag'
p3661
g89
sS'CharacterOffsetEnd'
p3662
S'838'
p3663
sS'Lemma'
p3664
S'police'
p3665
sS'PartOfSpeech'
p3666
S'NN'
p3667
sS'CharacterOffsetBegin'
p3668
S'832'
p3669
stp3670
a(S'officers'
p3671
(dp3672
S'NamedEntityTag'
p3673
g89
sS'CharacterOffsetEnd'
p3674
S'847'
p3675
sS'Lemma'
p3676
S'officer'
p3677
sS'PartOfSpeech'
p3678
S'NNS'
p3679
sS'CharacterOffsetBegin'
p3680
S'839'
p3681
stp3682
a(S'who'
p3683
(dp3684
S'NamedEntityTag'
p3685
g89
sS'CharacterOffsetEnd'
p3686
S'851'
p3687
sS'Lemma'
p3688
S'who'
p3689
sS'PartOfSpeech'
p3690
S'WP'
p3691
sS'CharacterOffsetBegin'
p3692
S'848'
p3693
stp3694
a(S'questioned'
p3695
(dp3696
S'NamedEntityTag'
p3697
g89
sS'CharacterOffsetEnd'
p3698
S'862'
p3699
sS'Lemma'
p3700
S'question'
p3701
sS'PartOfSpeech'
p3702
S'VBD'
p3703
sS'CharacterOffsetBegin'
p3704
S'852'
p3705
stp3706
a(S'An'
p3707
(dp3708
S'NamedEntityTag'
p3709
g89
sS'CharacterOffsetEnd'
p3710
S'865'
p3711
sS'Lemma'
p3712
g931
sS'PartOfSpeech'
p3713
S'DT'
p3714
sS'CharacterOffsetBegin'
p3715
S'863'
p3716
stp3717
a(S'Jun'
p3718
(dp3719
S'NormalizedNamedEntityTag'
p3720
S'XXXX-06'
p3721
sS'Timex'
p3722
S'<TIMEX3 tid="t10" type="DATE" value="XXXX-06">Jun</TIMEX3>'
p3723
sS'Lemma'
p3724
S'jun'
p3725
sS'CharacterOffsetEnd'
p3726
S'869'
p3727
sS'PartOfSpeech'
p3728
S'NN'
p3729
sS'CharacterOffsetBegin'
p3730
S'866'
p3731
sS'NamedEntityTag'
p3732
S'DATE'
p3733
stp3734
a(S'said'
p3735
(dp3736
S'NamedEntityTag'
p3737
g89
sS'CharacterOffsetEnd'
p3738
S'874'
p3739
sS'Lemma'
p3740
S'say'
p3741
sS'PartOfSpeech'
p3742
S'VBD'
p3743
sS'CharacterOffsetBegin'
p3744
S'870'
p3745
stp3746
a(S'that'
p3747
(dp3748
S'NamedEntityTag'
p3749
g89
sS'CharacterOffsetEnd'
p3750
S'879'
p3751
sS'Lemma'
p3752
S'that'
p3753
sS'PartOfSpeech'
p3754
S'IN'
p3755
sS'CharacterOffsetBegin'
p3756
S'875'
p3757
stp3758
a(S'without'
p3759
(dp3760
S'NamedEntityTag'
p3761
g89
sS'CharacterOffsetEnd'
p3762
S'887'
p3763
sS'Lemma'
p3764
S'without'
p3765
sS'PartOfSpeech'
p3766
S'IN'
p3767
sS'CharacterOffsetBegin'
p3768
S'880'
p3769
stp3770
a(S'official'
p3771
(dp3772
S'NamedEntityTag'
p3773
g89
sS'CharacterOffsetEnd'
p3774
S'896'
p3775
sS'Lemma'
p3776
S'official'
p3777
sS'PartOfSpeech'
p3778
S'JJ'
p3779
sS'CharacterOffsetBegin'
p3780
S'888'
p3781
stp3782
a(S'permission'
p3783
(dp3784
S'NamedEntityTag'
p3785
g89
sS'CharacterOffsetEnd'
p3786
S'907'
p3787
sS'Lemma'
p3788
S'permission'
p3789
sS'PartOfSpeech'
p3790
S'NN'
p3791
sS'CharacterOffsetBegin'
p3792
S'897'
p3793
stp3794
a(g343
(dp3795
S'NamedEntityTag'
p3796
g89
sS'CharacterOffsetEnd'
p3797
S'908'
p3798
sS'Lemma'
p3799
g343
sS'PartOfSpeech'
p3800
g343
sS'CharacterOffsetBegin'
p3801
S'907'
p3802
stp3803
a(S'the'
p3804
(dp3805
S'NamedEntityTag'
p3806
g89
sS'CharacterOffsetEnd'
p3807
S'912'
p3808
sS'Lemma'
p3809
S'the'
p3810
sS'PartOfSpeech'
p3811
S'DT'
p3812
sS'CharacterOffsetBegin'
p3813
S'909'
p3814
stp3815
a(S'group'
p3816
(dp3817
S'NamedEntityTag'
p3818
g89
sS'CharacterOffsetEnd'
p3819
S'918'
p3820
sS'Lemma'
p3821
S'group'
p3822
sS'PartOfSpeech'
p3823
S'NN'
p3824
sS'CharacterOffsetBegin'
p3825
S'913'
p3826
stp3827
a(S'must'
p3828
(dp3829
S'NamedEntityTag'
p3830
g89
sS'CharacterOffsetEnd'
p3831
S'923'
p3832
sS'Lemma'
p3833
S'must'
p3834
sS'PartOfSpeech'
p3835
S'MD'
p3836
sS'CharacterOffsetBegin'
p3837
S'919'
p3838
stp3839
a(S'cease'
p3840
(dp3841
S'NamedEntityTag'
p3842
g89
sS'CharacterOffsetEnd'
p3843
S'929'
p3844
sS'Lemma'
p3845
S'cease'
p3846
sS'PartOfSpeech'
p3847
S'VB'
p3848
sS'CharacterOffsetBegin'
p3849
S'924'
p3850
stp3851
a(S'its'
p3852
(dp3853
S'NamedEntityTag'
p3854
g89
sS'CharacterOffsetEnd'
p3855
S'933'
p3856
sS'Lemma'
p3857
S'its'
p3858
sS'PartOfSpeech'
p3859
S'PRP$'
p3860
sS'CharacterOffsetBegin'
p3861
S'930'
p3862
stp3863
a(S'activities'
p3864
(dp3865
S'NamedEntityTag'
p3866
g89
sS'CharacterOffsetEnd'
p3867
S'944'
p3868
sS'Lemma'
p3869
S'activity'
p3870
sS'PartOfSpeech'
p3871
S'NNS'
p3872
sS'CharacterOffsetBegin'
p3873
S'934'
p3874
stp3875
a(g343
(dp3876
S'NamedEntityTag'
p3877
g89
sS'CharacterOffsetEnd'
p3878
S'945'
p3879
sS'Lemma'
p3880
g343
sS'PartOfSpeech'
p3881
g343
sS'CharacterOffsetBegin'
p3882
S'944'
p3883
stp3884
a(S'the'
p3885
(dp3886
S'NamedEntityTag'
p3887
g89
sS'CharacterOffsetEnd'
p3888
S'949'
p3889
sS'Lemma'
p3890
S'the'
p3891
sS'PartOfSpeech'
p3892
S'DT'
p3893
sS'CharacterOffsetBegin'
p3894
S'946'
p3895
stp3896
a(S'center'
p3897
(dp3898
S'NamedEntityTag'
p3899
g89
sS'CharacterOffsetEnd'
p3900
S'956'
p3901
sS'Lemma'
p3902
S'center'
p3903
sS'PartOfSpeech'
p3904
S'NN'
p3905
sS'CharacterOffsetBegin'
p3906
S'950'
p3907
stp3908
a(S'said'
p3909
(dp3910
S'NamedEntityTag'
p3911
g89
sS'CharacterOffsetEnd'
p3912
S'961'
p3913
sS'Lemma'
p3914
S'say'
p3915
sS'PartOfSpeech'
p3916
S'VBD'
p3917
sS'CharacterOffsetBegin'
p3918
S'957'
p3919
stp3920
a(g1475
(dp3921
S'NamedEntityTag'
p3922
g89
sS'CharacterOffsetEnd'
p3923
S'962'
p3924
sS'Lemma'
p3925
g1475
sS'PartOfSpeech'
p3926
g1475
sS'CharacterOffsetBegin'
p3927
S'961'
p3928
stp3929
asa(dp3930
g7
S'(ROOT (S (NP (JJ Rampant) (JJ official) (NN corruption)) (VP (VBZ is) (NP (NP (DT a) (JJ major) (JJ public) (NN gripe)) (PP (IN in) (NP (NNP China))))) (. .)))'
p3931
sg9
S'Rampant official corruption is a major public gripe in China.'
p3932
sg11
(lp3933
(S'root'
p3934
S'ROOT'
p3935
S'gripe'
p3936
tp3937
a(S'amod'
p3938
S'corruption'
p3939
S'Rampant'
p3940
tp3941
a(S'amod'
p3942
S'corruption'
p3943
S'official'
p3944
tp3945
a(S'nsubj'
p3946
S'gripe'
p3947
S'corruption'
p3948
tp3949
a(S'cop'
p3950
S'gripe'
p3951
S'is'
p3952
tp3953
a(S'det'
p3954
S'gripe'
p3955
g931
tp3956
a(S'amod'
p3957
S'gripe'
p3958
S'major'
p3959
tp3960
a(S'amod'
p3961
S'gripe'
p3962
S'public'
p3963
tp3964
a(S'prep_in'
p3965
S'gripe'
p3966
S'China'
p3967
tp3968
asg45
(lp3969
(g3934
S'ROOT-0'
p3970
S'gripe-8'
p3971
tp3972
a(g3938
S'corruption-3'
p3973
S'Rampant-1'
p3974
tp3975
a(g3942
S'corruption-3'
p3976
S'official-2'
p3977
tp3978
a(g3946
S'gripe-8'
p3979
S'corruption-3'
p3980
tp3981
a(g3950
S'gripe-8'
p3982
S'is-4'
p3983
tp3984
a(g3954
S'gripe-8'
p3985
S'a-5'
p3986
tp3987
a(g3957
S'gripe-8'
p3988
S'major-6'
p3989
tp3990
a(g3961
S'gripe-8'
p3991
S'public-7'
p3992
tp3993
a(g3965
S'gripe-8'
p3994
S'China-10'
p3995
tp3996
asg71
(lp3997
(S'Rampant'
p3998
(dp3999
S'NamedEntityTag'
p4000
g89
sS'CharacterOffsetEnd'
p4001
S'970'
p4002
sS'Lemma'
p4003
S'rampant'
p4004
sS'PartOfSpeech'
p4005
S'JJ'
p4006
sS'CharacterOffsetBegin'
p4007
S'963'
p4008
stp4009
a(S'official'
p4010
(dp4011
S'NamedEntityTag'
p4012
g89
sS'CharacterOffsetEnd'
p4013
S'979'
p4014
sS'Lemma'
p4015
S'official'
p4016
sS'PartOfSpeech'
p4017
S'JJ'
p4018
sS'CharacterOffsetBegin'
p4019
S'971'
p4020
stp4021
a(S'corruption'
p4022
(dp4023
S'NamedEntityTag'
p4024
g89
sS'CharacterOffsetEnd'
p4025
S'990'
p4026
sS'Lemma'
p4027
S'corruption'
p4028
sS'PartOfSpeech'
p4029
S'NN'
p4030
sS'CharacterOffsetBegin'
p4031
S'980'
p4032
stp4033
a(S'is'
p4034
(dp4035
S'NamedEntityTag'
p4036
g89
sS'CharacterOffsetEnd'
p4037
S'993'
p4038
sS'Lemma'
p4039
S'be'
p4040
sS'PartOfSpeech'
p4041
S'VBZ'
p4042
sS'CharacterOffsetBegin'
p4043
S'991'
p4044
stp4045
a(g931
(dp4046
S'NamedEntityTag'
p4047
g89
sS'CharacterOffsetEnd'
p4048
S'995'
p4049
sS'Lemma'
p4050
g931
sS'PartOfSpeech'
p4051
S'DT'
p4052
sS'CharacterOffsetBegin'
p4053
S'994'
p4054
stp4055
a(S'major'
p4056
(dp4057
S'NamedEntityTag'
p4058
g89
sS'CharacterOffsetEnd'
p4059
S'1001'
p4060
sS'Lemma'
p4061
S'major'
p4062
sS'PartOfSpeech'
p4063
S'JJ'
p4064
sS'CharacterOffsetBegin'
p4065
S'996'
p4066
stp4067
a(S'public'
p4068
(dp4069
S'NamedEntityTag'
p4070
g89
sS'CharacterOffsetEnd'
p4071
S'1008'
p4072
sS'Lemma'
p4073
S'public'
p4074
sS'PartOfSpeech'
p4075
S'JJ'
p4076
sS'CharacterOffsetBegin'
p4077
S'1002'
p4078
stp4079
a(S'gripe'
p4080
(dp4081
S'NamedEntityTag'
p4082
g89
sS'CharacterOffsetEnd'
p4083
S'1014'
p4084
sS'Lemma'
p4085
S'gripe'
p4086
sS'PartOfSpeech'
p4087
S'NN'
p4088
sS'CharacterOffsetBegin'
p4089
S'1009'
p4090
stp4091
a(S'in'
p4092
(dp4093
S'NamedEntityTag'
p4094
g89
sS'CharacterOffsetEnd'
p4095
S'1017'
p4096
sS'Lemma'
p4097
S'in'
p4098
sS'PartOfSpeech'
p4099
S'IN'
p4100
sS'CharacterOffsetBegin'
p4101
S'1015'
p4102
stp4103
a(S'China'
p4104
(dp4105
S'NamedEntityTag'
p4106
S'LOCATION'
p4107
sS'CharacterOffsetEnd'
p4108
S'1023'
p4109
sS'Lemma'
p4110
S'China'
p4111
sS'PartOfSpeech'
p4112
S'NNP'
p4113
sS'CharacterOffsetBegin'
p4114
S'1018'
p4115
stp4116
a(g1475
(dp4117
S'NamedEntityTag'
p4118
g89
sS'CharacterOffsetEnd'
p4119
S'1024'
p4120
sS'Lemma'
p4121
g1475
sS'PartOfSpeech'
p4122
g1475
sS'CharacterOffsetBegin'
p4123
S'1023'
p4124
stp4125
asa(dp4126
g7
S'(ROOT (S (NP (DT The) (NNP Information) (NNP Center)) (VP (VBD said) (SBAR (S (NP (NNP Corruption) (NNP Watch)) (VP (VBD had) (ADVP (RB already)) (VP (VBN received) (NP (NP (NNS reports)) (PP (IN of) (NP (NN graft)))) (PP (IN in) (NP (NP (PRP$ its) (JJ first) (NN month)) (PP (IN of) (NP (NN operation)))))))))) (. .)))'
p4127
sg9
S'The Information Center said Corruption Watch had already received reports of graft in its first month of operation.'
p4128
sg11
(lp4129
(S'root'
p4130
S'ROOT'
p4131
S'said'
p4132
tp4133
a(S'det'
p4134
S'Center'
p4135
S'The'
p4136
tp4137
a(S'nn'
p4138
S'Center'
p4139
S'Information'
p4140
tp4141
a(S'nsubj'
p4142
S'said'
p4143
S'Center'
p4144
tp4145
a(S'nn'
p4146
S'Watch'
p4147
S'Corruption'
p4148
tp4149
a(S'nsubj'
p4150
S'received'
p4151
S'Watch'
p4152
tp4153
a(S'aux'
p4154
S'received'
p4155
S'had'
p4156
tp4157
a(S'advmod'
p4158
S'received'
p4159
S'already'
p4160
tp4161
a(S'ccomp'
p4162
S'said'
p4163
S'received'
p4164
tp4165
a(S'dobj'
p4166
S'received'
p4167
S'reports'
p4168
tp4169
a(S'prep_of'
p4170
S'reports'
p4171
S'graft'
p4172
tp4173
a(S'poss'
p4174
S'month'
p4175
S'its'
p4176
tp4177
a(S'amod'
p4178
S'month'
p4179
S'first'
p4180
tp4181
a(S'prep_in'
p4182
S'received'
p4183
S'month'
p4184
tp4185
a(S'prep_of'
p4186
S'month'
p4187
S'operation'
p4188
tp4189
asg45
(lp4190
(g4130
S'ROOT-0'
p4191
S'said-4'
p4192
tp4193
a(g4134
S'Center-3'
p4194
S'The-1'
p4195
tp4196
a(g4138
S'Center-3'
p4197
S'Information-2'
p4198
tp4199
a(g4142
S'said-4'
p4200
S'Center-3'
p4201
tp4202
a(g4146
S'Watch-6'
p4203
S'Corruption-5'
p4204
tp4205
a(g4150
S'received-9'
p4206
S'Watch-6'
p4207
tp4208
a(g4154
S'received-9'
p4209
S'had-7'
p4210
tp4211
a(g4158
S'received-9'
p4212
S'already-8'
p4213
tp4214
a(g4162
S'said-4'
p4215
S'received-9'
p4216
tp4217
a(g4166
S'received-9'
p4218
S'reports-10'
p4219
tp4220
a(g4170
S'reports-10'
p4221
S'graft-12'
p4222
tp4223
a(g4174
S'month-16'
p4224
S'its-14'
p4225
tp4226
a(g4178
S'month-16'
p4227
S'first-15'
p4228
tp4229
a(g4182
S'received-9'
p4230
S'month-16'
p4231
tp4232
a(g4186
S'month-16'
p4233
S'operation-18'
p4234
tp4235
asg71
(lp4236
(S'The'
p4237
(dp4238
S'NamedEntityTag'
p4239
g89
sS'CharacterOffsetEnd'
p4240
S'1028'
p4241
sS'Lemma'
p4242
S'the'
p4243
sS'PartOfSpeech'
p4244
S'DT'
p4245
sS'CharacterOffsetBegin'
p4246
S'1025'
p4247
stp4248
a(S'Information'
p4249
(dp4250
S'NamedEntityTag'
p4251
S'ORGANIZATION'
p4252
sS'CharacterOffsetEnd'
p4253
S'1040'
p4254
sS'Lemma'
p4255
S'Information'
p4256
sS'PartOfSpeech'
p4257
S'NNP'
p4258
sS'CharacterOffsetBegin'
p4259
S'1029'
p4260
stp4261
a(S'Center'
p4262
(dp4263
S'NamedEntityTag'
p4264
S'ORGANIZATION'
p4265
sS'CharacterOffsetEnd'
p4266
S'1047'
p4267
sS'Lemma'
p4268
S'Center'
p4269
sS'PartOfSpeech'
p4270
S'NNP'
p4271
sS'CharacterOffsetBegin'
p4272
S'1041'
p4273
stp4274
a(S'said'
p4275
(dp4276
S'NamedEntityTag'
p4277
g89
sS'CharacterOffsetEnd'
p4278
S'1052'
p4279
sS'Lemma'
p4280
S'say'
p4281
sS'PartOfSpeech'
p4282
S'VBD'
p4283
sS'CharacterOffsetBegin'
p4284
S'1048'
p4285
stp4286
a(S'Corruption'
p4287
(dp4288
S'NamedEntityTag'
p4289
S'ORGANIZATION'
p4290
sS'CharacterOffsetEnd'
p4291
S'1063'
p4292
sS'Lemma'
p4293
S'Corruption'
p4294
sS'PartOfSpeech'
p4295
S'NNP'
p4296
sS'CharacterOffsetBegin'
p4297
S'1053'
p4298
stp4299
a(S'Watch'
p4300
(dp4301
S'NamedEntityTag'
p4302
S'ORGANIZATION'
p4303
sS'CharacterOffsetEnd'
p4304
S'1069'
p4305
sS'Lemma'
p4306
S'Watch'
p4307
sS'PartOfSpeech'
p4308
S'NNP'
p4309
sS'CharacterOffsetBegin'
p4310
S'1064'
p4311
stp4312
a(S'had'
p4313
(dp4314
S'NamedEntityTag'
p4315
g89
sS'CharacterOffsetEnd'
p4316
S'1073'
p4317
sS'Lemma'
p4318
S'have'
p4319
sS'PartOfSpeech'
p4320
S'VBD'
p4321
sS'CharacterOffsetBegin'
p4322
S'1070'
p4323
stp4324
a(S'already'
p4325
(dp4326
S'NamedEntityTag'
p4327
g89
sS'CharacterOffsetEnd'
p4328
S'1081'
p4329
sS'Lemma'
p4330
S'already'
p4331
sS'PartOfSpeech'
p4332
S'RB'
p4333
sS'CharacterOffsetBegin'
p4334
S'1074'
p4335
stp4336
a(S'received'
p4337
(dp4338
S'NamedEntityTag'
p4339
g89
sS'CharacterOffsetEnd'
p4340
S'1090'
p4341
sS'Lemma'
p4342
S'receive'
p4343
sS'PartOfSpeech'
p4344
S'VBN'
p4345
sS'CharacterOffsetBegin'
p4346
S'1082'
p4347
stp4348
a(S'reports'
p4349
(dp4350
S'NamedEntityTag'
p4351
g89
sS'CharacterOffsetEnd'
p4352
S'1098'
p4353
sS'Lemma'
p4354
S'report'
p4355
sS'PartOfSpeech'
p4356
S'NNS'
p4357
sS'CharacterOffsetBegin'
p4358
S'1091'
p4359
stp4360
a(S'of'
p4361
(dp4362
S'NamedEntityTag'
p4363
g89
sS'CharacterOffsetEnd'
p4364
S'1101'
p4365
sS'Lemma'
p4366
S'of'
p4367
sS'PartOfSpeech'
p4368
S'IN'
p4369
sS'CharacterOffsetBegin'
p4370
S'1099'
p4371
stp4372
a(S'graft'
p4373
(dp4374
S'NamedEntityTag'
p4375
g89
sS'CharacterOffsetEnd'
p4376
S'1107'
p4377
sS'Lemma'
p4378
S'graft'
p4379
sS'PartOfSpeech'
p4380
S'NN'
p4381
sS'CharacterOffsetBegin'
p4382
S'1102'
p4383
stp4384
a(S'in'
p4385
(dp4386
S'NamedEntityTag'
p4387
g89
sS'CharacterOffsetEnd'
p4388
S'1110'
p4389
sS'Lemma'
p4390
S'in'
p4391
sS'PartOfSpeech'
p4392
S'IN'
p4393
sS'CharacterOffsetBegin'
p4394
S'1108'
p4395
stp4396
a(S'its'
p4397
(dp4398
S'NamedEntityTag'
p4399
g89
sS'CharacterOffsetEnd'
p4400
S'1114'
p4401
sS'Lemma'
p4402
S'its'
p4403
sS'PartOfSpeech'
p4404
S'PRP$'
p4405
sS'CharacterOffsetBegin'
p4406
S'1111'
p4407
stp4408
a(S'first'
p4409
(dp4410
S'NormalizedNamedEntityTag'
p4411
S'1.0'
p4412
sS'Lemma'
p4413
S'first'
p4414
sS'CharacterOffsetEnd'
p4415
S'1120'
p4416
sS'PartOfSpeech'
p4417
S'JJ'
p4418
sS'CharacterOffsetBegin'
p4419
S'1115'
p4420
sS'NamedEntityTag'
p4421
S'ORDINAL'
p4422
stp4423
a(S'month'
p4424
(dp4425
S'NormalizedNamedEntityTag'
p4426
S'P1M'
p4427
sS'Timex'
p4428
S'<TIMEX3 tid="t11" type="DURATION" value="P1M">month</TIMEX3>'
p4429
sS'Lemma'
p4430
S'month'
p4431
sS'CharacterOffsetEnd'
p4432
S'1126'
p4433
sS'PartOfSpeech'
p4434
S'NN'
p4435
sS'CharacterOffsetBegin'
p4436
S'1121'
p4437
sS'NamedEntityTag'
p4438
S'DURATION'
p4439
stp4440
a(S'of'
p4441
(dp4442
S'NamedEntityTag'
p4443
g89
sS'CharacterOffsetEnd'
p4444
S'1129'
p4445
sS'Lemma'
p4446
S'of'
p4447
sS'PartOfSpeech'
p4448
S'IN'
p4449
sS'CharacterOffsetBegin'
p4450
S'1127'
p4451
stp4452
a(S'operation'
p4453
(dp4454
S'NamedEntityTag'
p4455
g89
sS'CharacterOffsetEnd'
p4456
S'1139'
p4457
sS'Lemma'
p4458
S'operation'
p4459
sS'PartOfSpeech'
p4460
S'NN'
p4461
sS'CharacterOffsetBegin'
p4462
S'1130'
p4463
stp4464
a(g1475
(dp4465
S'NamedEntityTag'
p4466
g89
sS'CharacterOffsetEnd'
p4467
S'1140'
p4468
sS'Lemma'
p4469
g1475
sS'PartOfSpeech'
p4470
g1475
sS'CharacterOffsetBegin'
p4471
S'1139'
p4472
stp4473
asa(dp4474
g7
S'(ROOT (S (PP (IN In) (NP (DT a) (JJ separate) (NN report))) (, ,) (NP (DT the) (NN center)) (VP (VBD said) (SBAR (IN that) (S (NP (NP (DT an) (NN official)) (PP (IN in) (NP (DT the) (NNP Sichuan) (JJ provincial) (NN government)))) (VP (VBD refused) (NP-TMP (NNP Thursday)) (S (VP (TO to) (VP (VB accept) (NP (DT an) (NN application)) (PP (IN by) (NP (CD three) (NNS dissidents))) (S (VP (TO to) (VP (VB form) (NP (NP (DT a) (NN branch)) (PP (IN of) (NP (NP (DT a) (JJ would-be) (NN opposition) (NN group)) (, ,) (NP (DT the) (NNP China) (NNP Democracy) (NNP Party))))))))))))))) (. .)))'
p4475
sg9
S'In a separate report, the center said that an official in the Sichuan provincial government refused Thursday to accept an application by three dissidents to form a branch of a would-be opposition group, the China Democracy Party.'
p4476
sg11
(lp4477
(S'root'
p4478
S'ROOT'
p4479
S'said'
p4480
tp4481
a(S'det'
p4482
S'report'
p4483
g931
tp4484
a(S'amod'
p4485
S'report'
p4486
S'separate'
p4487
tp4488
a(S'prep_in'
p4489
S'said'
p4490
S'report'
p4491
tp4492
a(S'det'
p4493
S'center'
p4494
S'the'
p4495
tp4496
a(S'nsubj'
p4497
S'said'
p4498
S'center'
p4499
tp4500
a(S'mark'
p4501
S'refused'
p4502
S'that'
p4503
tp4504
a(S'det'
p4505
S'official'
p4506
S'an'
p4507
tp4508
a(S'nsubj'
p4509
S'refused'
p4510
S'official'
p4511
tp4512
a(S'det'
p4513
S'government'
p4514
S'the'
p4515
tp4516
a(S'nn'
p4517
S'government'
p4518
S'Sichuan'
p4519
tp4520
a(S'amod'
p4521
S'government'
p4522
S'provincial'
p4523
tp4524
a(S'prep_in'
p4525
S'official'
p4526
S'government'
p4527
tp4528
a(S'ccomp'
p4529
S'said'
p4530
S'refused'
p4531
tp4532
a(S'tmod'
p4533
S'refused'
p4534
S'Thursday'
p4535
tp4536
a(S'aux'
p4537
S'accept'
p4538
S'to'
p4539
tp4540
a(S'xcomp'
p4541
S'refused'
p4542
S'accept'
p4543
tp4544
a(S'det'
p4545
S'application'
p4546
S'an'
p4547
tp4548
a(S'dobj'
p4549
S'accept'
p4550
S'application'
p4551
tp4552
a(S'num'
p4553
S'dissidents'
p4554
S'three'
p4555
tp4556
a(S'prep_by'
p4557
S'accept'
p4558
S'dissidents'
p4559
tp4560
a(S'aux'
p4561
S'form'
p4562
S'to'
p4563
tp4564
a(S'xcomp'
p4565
S'accept'
p4566
S'form'
p4567
tp4568
a(S'det'
p4569
S'branch'
p4570
g931
tp4571
a(S'dobj'
p4572
S'form'
p4573
S'branch'
p4574
tp4575
a(S'det'
p4576
S'group'
p4577
g931
tp4578
a(S'amod'
p4579
S'group'
p4580
S'would-be'
p4581
tp4582
a(S'nn'
p4583
S'group'
p4584
S'opposition'
p4585
tp4586
a(S'prep_of'
p4587
S'branch'
p4588
S'group'
p4589
tp4590
a(S'det'
p4591
S'Party'
p4592
S'the'
p4593
tp4594
a(S'nn'
p4595
S'Party'
p4596
S'China'
p4597
tp4598
a(S'nn'
p4599
S'Party'
p4600
S'Democracy'
p4601
tp4602
a(S'appos'
p4603
S'group'
p4604
S'Party'
p4605
tp4606
asg45
(lp4607
(g4478
S'ROOT-0'
p4608
S'said-8'
p4609
tp4610
a(g4482
S'report-4'
p4611
S'a-2'
p4612
tp4613
a(g4485
S'report-4'
p4614
S'separate-3'
p4615
tp4616
a(g4489
S'said-8'
p4617
S'report-4'
p4618
tp4619
a(g4493
S'center-7'
p4620
S'the-6'
p4621
tp4622
a(g4497
S'said-8'
p4623
S'center-7'
p4624
tp4625
a(g4501
S'refused-17'
p4626
S'that-9'
p4627
tp4628
a(g4505
S'official-11'
p4629
S'an-10'
p4630
tp4631
a(g4509
S'refused-17'
p4632
S'official-11'
p4633
tp4634
a(g4513
S'government-16'
p4635
S'the-13'
p4636
tp4637
a(g4517
S'government-16'
p4638
S'Sichuan-14'
p4639
tp4640
a(g4521
S'government-16'
p4641
S'provincial-15'
p4642
tp4643
a(g4525
S'official-11'
p4644
S'government-16'
p4645
tp4646
a(g4529
S'said-8'
p4647
S'refused-17'
p4648
tp4649
a(g4533
S'refused-17'
p4650
S'Thursday-18'
p4651
tp4652
a(g4537
S'accept-20'
p4653
S'to-19'
p4654
tp4655
a(g4541
S'refused-17'
p4656
S'accept-20'
p4657
tp4658
a(g4545
S'application-22'
p4659
S'an-21'
p4660
tp4661
a(g4549
S'accept-20'
p4662
S'application-22'
p4663
tp4664
a(g4553
S'dissidents-25'
p4665
S'three-24'
p4666
tp4667
a(g4557
S'accept-20'
p4668
S'dissidents-25'
p4669
tp4670
a(g4561
S'form-27'
p4671
S'to-26'
p4672
tp4673
a(g4565
S'accept-20'
p4674
S'form-27'
p4675
tp4676
a(g4569
S'branch-29'
p4677
S'a-28'
p4678
tp4679
a(g4572
S'form-27'
p4680
S'branch-29'
p4681
tp4682
a(g4576
S'group-34'
p4683
S'a-31'
p4684
tp4685
a(g4579
S'group-34'
p4686
S'would-be-32'
p4687
tp4688
a(g4583
S'group-34'
p4689
S'opposition-33'
p4690
tp4691
a(g4587
S'branch-29'
p4692
S'group-34'
p4693
tp4694
a(g4591
S'Party-39'
p4695
S'the-36'
p4696
tp4697
a(g4595
S'Party-39'
p4698
S'China-37'
p4699
tp4700
a(g4599
S'Party-39'
p4701
S'Democracy-38'
p4702
tp4703
a(g4603
S'group-34'
p4704
S'Party-39'
p4705
tp4706
asg71
(lp4707
(S'In'
p4708
(dp4709
S'NamedEntityTag'
p4710
g89
sS'CharacterOffsetEnd'
p4711
S'1143'
p4712
sS'Lemma'
p4713
S'in'
p4714
sS'PartOfSpeech'
p4715
S'IN'
p4716
sS'CharacterOffsetBegin'
p4717
S'1141'
p4718
stp4719
a(g931
(dp4720
S'NamedEntityTag'
p4721
g89
sS'CharacterOffsetEnd'
p4722
S'1145'
p4723
sS'Lemma'
p4724
g931
sS'PartOfSpeech'
p4725
S'DT'
p4726
sS'CharacterOffsetBegin'
p4727
S'1144'
p4728
stp4729
a(S'separate'
p4730
(dp4731
S'NamedEntityTag'
p4732
g89
sS'CharacterOffsetEnd'
p4733
S'1154'
p4734
sS'Lemma'
p4735
S'separate'
p4736
sS'PartOfSpeech'
p4737
S'JJ'
p4738
sS'CharacterOffsetBegin'
p4739
S'1146'
p4740
stp4741
a(S'report'
p4742
(dp4743
S'NamedEntityTag'
p4744
g89
sS'CharacterOffsetEnd'
p4745
S'1161'
p4746
sS'Lemma'
p4747
S'report'
p4748
sS'PartOfSpeech'
p4749
S'NN'
p4750
sS'CharacterOffsetBegin'
p4751
S'1155'
p4752
stp4753
a(g343
(dp4754
S'NamedEntityTag'
p4755
g89
sS'CharacterOffsetEnd'
p4756
S'1162'
p4757
sS'Lemma'
p4758
g343
sS'PartOfSpeech'
p4759
g343
sS'CharacterOffsetBegin'
p4760
S'1161'
p4761
stp4762
a(S'the'
p4763
(dp4764
S'NamedEntityTag'
p4765
g89
sS'CharacterOffsetEnd'
p4766
S'1166'
p4767
sS'Lemma'
p4768
S'the'
p4769
sS'PartOfSpeech'
p4770
S'DT'
p4771
sS'CharacterOffsetBegin'
p4772
S'1163'
p4773
stp4774
a(S'center'
p4775
(dp4776
S'NamedEntityTag'
p4777
g89
sS'CharacterOffsetEnd'
p4778
S'1173'
p4779
sS'Lemma'
p4780
S'center'
p4781
sS'PartOfSpeech'
p4782
S'NN'
p4783
sS'CharacterOffsetBegin'
p4784
S'1167'
p4785
stp4786
a(S'said'
p4787
(dp4788
S'NamedEntityTag'
p4789
g89
sS'CharacterOffsetEnd'
p4790
S'1178'
p4791
sS'Lemma'
p4792
S'say'
p4793
sS'PartOfSpeech'
p4794
S'VBD'
p4795
sS'CharacterOffsetBegin'
p4796
S'1174'
p4797
stp4798
a(S'that'
p4799
(dp4800
S'NamedEntityTag'
p4801
g89
sS'CharacterOffsetEnd'
p4802
S'1183'
p4803
sS'Lemma'
p4804
S'that'
p4805
sS'PartOfSpeech'
p4806
S'IN'
p4807
sS'CharacterOffsetBegin'
p4808
S'1179'
p4809
stp4810
a(S'an'
p4811
(dp4812
S'NamedEntityTag'
p4813
g89
sS'CharacterOffsetEnd'
p4814
S'1186'
p4815
sS'Lemma'
p4816
g931
sS'PartOfSpeech'
p4817
S'DT'
p4818
sS'CharacterOffsetBegin'
p4819
S'1184'
p4820
stp4821
a(S'official'
p4822
(dp4823
S'NamedEntityTag'
p4824
g89
sS'CharacterOffsetEnd'
p4825
S'1195'
p4826
sS'Lemma'
p4827
S'official'
p4828
sS'PartOfSpeech'
p4829
S'NN'
p4830
sS'CharacterOffsetBegin'
p4831
S'1187'
p4832
stp4833
a(S'in'
p4834
(dp4835
S'NamedEntityTag'
p4836
g89
sS'CharacterOffsetEnd'
p4837
S'1198'
p4838
sS'Lemma'
p4839
S'in'
p4840
sS'PartOfSpeech'
p4841
S'IN'
p4842
sS'CharacterOffsetBegin'
p4843
S'1196'
p4844
stp4845
a(S'the'
p4846
(dp4847
S'NamedEntityTag'
p4848
g89
sS'CharacterOffsetEnd'
p4849
S'1202'
p4850
sS'Lemma'
p4851
S'the'
p4852
sS'PartOfSpeech'
p4853
S'DT'
p4854
sS'CharacterOffsetBegin'
p4855
S'1199'
p4856
stp4857
a(S'Sichuan'
p4858
(dp4859
S'NamedEntityTag'
p4860
S'LOCATION'
p4861
sS'CharacterOffsetEnd'
p4862
S'1210'
p4863
sS'Lemma'
p4864
S'Sichuan'
p4865
sS'PartOfSpeech'
p4866
S'NNP'
p4867
sS'CharacterOffsetBegin'
p4868
S'1203'
p4869
stp4870
a(S'provincial'
p4871
(dp4872
S'NamedEntityTag'
p4873
g89
sS'CharacterOffsetEnd'
p4874
S'1221'
p4875
sS'Lemma'
p4876
S'provincial'
p4877
sS'PartOfSpeech'
p4878
S'JJ'
p4879
sS'CharacterOffsetBegin'
p4880
S'1211'
p4881
stp4882
a(S'government'
p4883
(dp4884
S'NamedEntityTag'
p4885
g89
sS'CharacterOffsetEnd'
p4886
S'1232'
p4887
sS'Lemma'
p4888
S'government'
p4889
sS'PartOfSpeech'
p4890
S'NN'
p4891
sS'CharacterOffsetBegin'
p4892
S'1222'
p4893
stp4894
a(S'refused'
p4895
(dp4896
S'NamedEntityTag'
p4897
g89
sS'CharacterOffsetEnd'
p4898
S'1240'
p4899
sS'Lemma'
p4900
S'refuse'
p4901
sS'PartOfSpeech'
p4902
S'VBD'
p4903
sS'CharacterOffsetBegin'
p4904
S'1233'
p4905
stp4906
a(S'Thursday'
p4907
(dp4908
S'NormalizedNamedEntityTag'
p4909
S'XXXX-WXX-4'
p4910
sS'Timex'
p4911
S'<TIMEX3 tid="t1" type="DATE" value="XXXX-WXX-4">Thursday</TIMEX3>'
p4912
sS'Lemma'
p4913
S'Thursday'
p4914
sS'CharacterOffsetEnd'
p4915
S'1249'
p4916
sS'PartOfSpeech'
p4917
S'NNP'
p4918
sS'CharacterOffsetBegin'
p4919
S'1241'
p4920
sS'NamedEntityTag'
p4921
S'DATE'
p4922
stp4923
a(S'to'
p4924
(dp4925
S'NamedEntityTag'
p4926
g89
sS'CharacterOffsetEnd'
p4927
S'1252'
p4928
sS'Lemma'
p4929
S'to'
p4930
sS'PartOfSpeech'
p4931
S'TO'
p4932
sS'CharacterOffsetBegin'
p4933
S'1250'
p4934
stp4935
a(S'accept'
p4936
(dp4937
S'NamedEntityTag'
p4938
g89
sS'CharacterOffsetEnd'
p4939
S'1259'
p4940
sS'Lemma'
p4941
S'accept'
p4942
sS'PartOfSpeech'
p4943
S'VB'
p4944
sS'CharacterOffsetBegin'
p4945
S'1253'
p4946
stp4947
a(S'an'
p4948
(dp4949
S'NamedEntityTag'
p4950
g89
sS'CharacterOffsetEnd'
p4951
S'1262'
p4952
sS'Lemma'
p4953
g931
sS'PartOfSpeech'
p4954
S'DT'
p4955
sS'CharacterOffsetBegin'
p4956
S'1260'
p4957
stp4958
a(S'application'
p4959
(dp4960
S'NamedEntityTag'
p4961
g89
sS'CharacterOffsetEnd'
p4962
S'1274'
p4963
sS'Lemma'
p4964
S'application'
p4965
sS'PartOfSpeech'
p4966
S'NN'
p4967
sS'CharacterOffsetBegin'
p4968
S'1263'
p4969
stp4970
a(S'by'
p4971
(dp4972
S'NamedEntityTag'
p4973
g89
sS'CharacterOffsetEnd'
p4974
S'1277'
p4975
sS'Lemma'
p4976
S'by'
p4977
sS'PartOfSpeech'
p4978
S'IN'
p4979
sS'CharacterOffsetBegin'
p4980
S'1275'
p4981
stp4982
a(S'three'
p4983
(dp4984
S'NormalizedNamedEntityTag'
p4985
S'3.0'
p4986
sS'Lemma'
p4987
S'three'
p4988
sS'CharacterOffsetEnd'
p4989
S'1283'
p4990
sS'PartOfSpeech'
p4991
S'CD'
p4992
sS'CharacterOffsetBegin'
p4993
S'1278'
p4994
sS'NamedEntityTag'
p4995
S'NUMBER'
p4996
stp4997
a(S'dissidents'
p4998
(dp4999
S'NamedEntityTag'
p5000
g89
sS'CharacterOffsetEnd'
p5001
S'1294'
p5002
sS'Lemma'
p5003
S'dissident'
p5004
sS'PartOfSpeech'
p5005
S'NNS'
p5006
sS'CharacterOffsetBegin'
p5007
S'1284'
p5008
stp5009
a(S'to'
p5010
(dp5011
S'NamedEntityTag'
p5012
g89
sS'CharacterOffsetEnd'
p5013
S'1297'
p5014
sS'Lemma'
p5015
S'to'
p5016
sS'PartOfSpeech'
p5017
S'TO'
p5018
sS'CharacterOffsetBegin'
p5019
S'1295'
p5020
stp5021
a(S'form'
p5022
(dp5023
S'NamedEntityTag'
p5024
g89
sS'CharacterOffsetEnd'
p5025
S'1302'
p5026
sS'Lemma'
p5027
S'form'
p5028
sS'PartOfSpeech'
p5029
S'VB'
p5030
sS'CharacterOffsetBegin'
p5031
S'1298'
p5032
stp5033
a(g931
(dp5034
S'NamedEntityTag'
p5035
g89
sS'CharacterOffsetEnd'
p5036
S'1304'
p5037
sS'Lemma'
p5038
g931
sS'PartOfSpeech'
p5039
S'DT'
p5040
sS'CharacterOffsetBegin'
p5041
S'1303'
p5042
stp5043
a(S'branch'
p5044
(dp5045
S'NamedEntityTag'
p5046
g89
sS'CharacterOffsetEnd'
p5047
S'1311'
p5048
sS'Lemma'
p5049
S'branch'
p5050
sS'PartOfSpeech'
p5051
S'NN'
p5052
sS'CharacterOffsetBegin'
p5053
S'1305'
p5054
stp5055
a(S'of'
p5056
(dp5057
S'NamedEntityTag'
p5058
g89
sS'CharacterOffsetEnd'
p5059
S'1314'
p5060
sS'Lemma'
p5061
S'of'
p5062
sS'PartOfSpeech'
p5063
S'IN'
p5064
sS'CharacterOffsetBegin'
p5065
S'1312'
p5066
stp5067
a(g931
(dp5068
S'NamedEntityTag'
p5069
g89
sS'CharacterOffsetEnd'
p5070
S'1316'
p5071
sS'Lemma'
p5072
g931
sS'PartOfSpeech'
p5073
S'DT'
p5074
sS'CharacterOffsetBegin'
p5075
S'1315'
p5076
stp5077
a(S'would-be'
p5078
(dp5079
S'NamedEntityTag'
p5080
g89
sS'CharacterOffsetEnd'
p5081
S'1325'
p5082
sS'Lemma'
p5083
S'would-be'
p5084
sS'PartOfSpeech'
p5085
S'JJ'
p5086
sS'CharacterOffsetBegin'
p5087
S'1317'
p5088
stp5089
a(S'opposition'
p5090
(dp5091
S'NamedEntityTag'
p5092
g89
sS'CharacterOffsetEnd'
p5093
S'1336'
p5094
sS'Lemma'
p5095
S'opposition'
p5096
sS'PartOfSpeech'
p5097
S'NN'
p5098
sS'CharacterOffsetBegin'
p5099
S'1326'
p5100
stp5101
a(S'group'
p5102
(dp5103
S'NamedEntityTag'
p5104
g89
sS'CharacterOffsetEnd'
p5105
S'1342'
p5106
sS'Lemma'
p5107
S'group'
p5108
sS'PartOfSpeech'
p5109
S'NN'
p5110
sS'CharacterOffsetBegin'
p5111
S'1337'
p5112
stp5113
a(g343
(dp5114
S'NamedEntityTag'
p5115
g89
sS'CharacterOffsetEnd'
p5116
S'1343'
p5117
sS'Lemma'
p5118
g343
sS'PartOfSpeech'
p5119
g343
sS'CharacterOffsetBegin'
p5120
S'1342'
p5121
stp5122
a(S'the'
p5123
(dp5124
S'NamedEntityTag'
p5125
g89
sS'CharacterOffsetEnd'
p5126
S'1347'
p5127
sS'Lemma'
p5128
S'the'
p5129
sS'PartOfSpeech'
p5130
S'DT'
p5131
sS'CharacterOffsetBegin'
p5132
S'1344'
p5133
stp5134
a(S'China'
p5135
(dp5136
S'NamedEntityTag'
p5137
S'ORGANIZATION'
p5138
sS'CharacterOffsetEnd'
p5139
S'1353'
p5140
sS'Lemma'
p5141
S'China'
p5142
sS'PartOfSpeech'
p5143
S'NNP'
p5144
sS'CharacterOffsetBegin'
p5145
S'1348'
p5146
stp5147
a(S'Democracy'
p5148
(dp5149
S'NamedEntityTag'
p5150
S'ORGANIZATION'
p5151
sS'CharacterOffsetEnd'
p5152
S'1363'
p5153
sS'Lemma'
p5154
S'Democracy'
p5155
sS'PartOfSpeech'
p5156
S'NNP'
p5157
sS'CharacterOffsetBegin'
p5158
S'1354'
p5159
stp5160
a(S'Party'
p5161
(dp5162
S'NamedEntityTag'
p5163
S'ORGANIZATION'
p5164
sS'CharacterOffsetEnd'
p5165
S'1369'
p5166
sS'Lemma'
p5167
S'Party'
p5168
sS'PartOfSpeech'
p5169
S'NNP'
p5170
sS'CharacterOffsetBegin'
p5171
S'1364'
p5172
stp5173
a(g1475
(dp5174
S'NamedEntityTag'
p5175
g89
sS'CharacterOffsetEnd'
p5176
S'1370'
p5177
sS'Lemma'
p5178
g1475
sS'PartOfSpeech'
p5179
g1475
sS'CharacterOffsetBegin'
p5180
S'1369'
p5181
stp5182
asa(dp5183
g7
S'(ROOT (S (S (NP (NP (NNS Groups)) (PP (IN of) (NP (NP (NNS dissidents)) (PP (IN in) (NP (NP (NNS cities)) (PP (IN across) (NP (NNP China)))))))) (VP (VBP have) (VP (VBN attempted) (S (VP (TO to) (VP (VB register) (NP (DT the) (NN group))))) (, ,) (SBAR (IN as) (S (VP (VBN required) (PP (IN by) (NP (NN law))))))))) (, ,) (CC but) (S (NP (NNS authorities)) (VP (VBP have) (VP (VBN rejected) (NP (DT those) (NNS applications))))) (. .)))'
p5184
sg9
S'Groups of dissidents in cities across China have attempted to register the group, as required by law, but authorities have rejected those applications.'
p5185
sg11
(lp5186
(S'root'
p5187
S'ROOT'
p5188
S'attempted'
p5189
tp5190
a(S'nsubj'
p5191
S'attempted'
p5192
S'Groups'
p5193
tp5194
a(S'prep_of'
p5195
S'Groups'
p5196
S'dissidents'
p5197
tp5198
a(S'prep_in'
p5199
S'dissidents'
p5200
S'cities'
p5201
tp5202
a(S'prep_across'
p5203
S'cities'
p5204
S'China'
p5205
tp5206
a(S'aux'
p5207
S'attempted'
p5208
S'have'
p5209
tp5210
a(S'aux'
p5211
S'register'
p5212
S'to'
p5213
tp5214
a(S'xcomp'
p5215
S'attempted'
p5216
S'register'
p5217
tp5218
a(S'det'
p5219
S'group'
p5220
S'the'
p5221
tp5222
a(S'dobj'
p5223
S'register'
p5224
S'group'
p5225
tp5226
a(S'mark'
p5227
S'required'
p5228
S'as'
p5229
tp5230
a(S'advcl'
p5231
S'attempted'
p5232
S'required'
p5233
tp5234
a(S'prep_by'
p5235
S'required'
p5236
S'law'
p5237
tp5238
a(S'nsubj'
p5239
S'rejected'
p5240
S'authorities'
p5241
tp5242
a(S'aux'
p5243
S'rejected'
p5244
S'have'
p5245
tp5246
a(S'conj_but'
p5247
S'attempted'
p5248
S'rejected'
p5249
tp5250
a(S'det'
p5251
S'applications'
p5252
S'those'
p5253
tp5254
a(S'dobj'
p5255
S'rejected'
p5256
S'applications'
p5257
tp5258
asg45
(lp5259
(g5187
S'ROOT-0'
p5260
S'attempted-9'
p5261
tp5262
a(g5191
S'attempted-9'
p5263
S'Groups-1'
p5264
tp5265
a(g5195
S'Groups-1'
p5266
S'dissidents-3'
p5267
tp5268
a(g5199
S'dissidents-3'
p5269
S'cities-5'
p5270
tp5271
a(g5203
S'cities-5'
p5272
S'China-7'
p5273
tp5274
a(g5207
S'attempted-9'
p5275
S'have-8'
p5276
tp5277
a(g5211
S'register-11'
p5278
S'to-10'
p5279
tp5280
a(g5215
S'attempted-9'
p5281
S'register-11'
p5282
tp5283
a(g5219
S'group-13'
p5284
S'the-12'
p5285
tp5286
a(g5223
S'register-11'
p5287
S'group-13'
p5288
tp5289
a(g5227
S'required-16'
p5290
S'as-15'
p5291
tp5292
a(g5231
S'attempted-9'
p5293
S'required-16'
p5294
tp5295
a(g5235
S'required-16'
p5296
S'law-18'
p5297
tp5298
a(g5239
S'rejected-23'
p5299
S'authorities-21'
p5300
tp5301
a(g5243
S'rejected-23'
p5302
S'have-22'
p5303
tp5304
a(g5247
S'attempted-9'
p5305
S'rejected-23'
p5306
tp5307
a(g5251
S'applications-25'
p5308
S'those-24'
p5309
tp5310
a(g5255
S'rejected-23'
p5311
S'applications-25'
p5312
tp5313
asg71
(lp5314
(S'Groups'
p5315
(dp5316
S'NamedEntityTag'
p5317
g89
sS'CharacterOffsetEnd'
p5318
S'1377'
p5319
sS'Lemma'
p5320
S'group'
p5321
sS'PartOfSpeech'
p5322
S'NNS'
p5323
sS'CharacterOffsetBegin'
p5324
S'1371'
p5325
stp5326
a(S'of'
p5327
(dp5328
S'NamedEntityTag'
p5329
g89
sS'CharacterOffsetEnd'
p5330
S'1380'
p5331
sS'Lemma'
p5332
S'of'
p5333
sS'PartOfSpeech'
p5334
S'IN'
p5335
sS'CharacterOffsetBegin'
p5336
S'1378'
p5337
stp5338
a(S'dissidents'
p5339
(dp5340
S'NamedEntityTag'
p5341
g89
sS'CharacterOffsetEnd'
p5342
S'1391'
p5343
sS'Lemma'
p5344
S'dissident'
p5345
sS'PartOfSpeech'
p5346
S'NNS'
p5347
sS'CharacterOffsetBegin'
p5348
S'1381'
p5349
stp5350
a(S'in'
p5351
(dp5352
S'NamedEntityTag'
p5353
g89
sS'CharacterOffsetEnd'
p5354
S'1394'
p5355
sS'Lemma'
p5356
S'in'
p5357
sS'PartOfSpeech'
p5358
S'IN'
p5359
sS'CharacterOffsetBegin'
p5360
S'1392'
p5361
stp5362
a(S'cities'
p5363
(dp5364
S'NamedEntityTag'
p5365
g89
sS'CharacterOffsetEnd'
p5366
S'1401'
p5367
sS'Lemma'
p5368
S'city'
p5369
sS'PartOfSpeech'
p5370
S'NNS'
p5371
sS'CharacterOffsetBegin'
p5372
S'1395'
p5373
stp5374
a(S'across'
p5375
(dp5376
S'NamedEntityTag'
p5377
g89
sS'CharacterOffsetEnd'
p5378
S'1408'
p5379
sS'Lemma'
p5380
S'across'
p5381
sS'PartOfSpeech'
p5382
S'IN'
p5383
sS'CharacterOffsetBegin'
p5384
S'1402'
p5385
stp5386
a(S'China'
p5387
(dp5388
S'NamedEntityTag'
p5389
S'LOCATION'
p5390
sS'CharacterOffsetEnd'
p5391
S'1414'
p5392
sS'Lemma'
p5393
S'China'
p5394
sS'PartOfSpeech'
p5395
S'NNP'
p5396
sS'CharacterOffsetBegin'
p5397
S'1409'
p5398
stp5399
a(S'have'
p5400
(dp5401
S'NamedEntityTag'
p5402
g89
sS'CharacterOffsetEnd'
p5403
S'1419'
p5404
sS'Lemma'
p5405
S'have'
p5406
sS'PartOfSpeech'
p5407
S'VBP'
p5408
sS'CharacterOffsetBegin'
p5409
S'1415'
p5410
stp5411
a(S'attempted'
p5412
(dp5413
S'NamedEntityTag'
p5414
g89
sS'CharacterOffsetEnd'
p5415
S'1429'
p5416
sS'Lemma'
p5417
S'attempt'
p5418
sS'PartOfSpeech'
p5419
S'VBN'
p5420
sS'CharacterOffsetBegin'
p5421
S'1420'
p5422
stp5423
a(S'to'
p5424
(dp5425
S'NamedEntityTag'
p5426
g89
sS'CharacterOffsetEnd'
p5427
S'1432'
p5428
sS'Lemma'
p5429
S'to'
p5430
sS'PartOfSpeech'
p5431
S'TO'
p5432
sS'CharacterOffsetBegin'
p5433
S'1430'
p5434
stp5435
a(S'register'
p5436
(dp5437
S'NamedEntityTag'
p5438
g89
sS'CharacterOffsetEnd'
p5439
S'1441'
p5440
sS'Lemma'
p5441
S'register'
p5442
sS'PartOfSpeech'
p5443
S'VB'
p5444
sS'CharacterOffsetBegin'
p5445
S'1433'
p5446
stp5447
a(S'the'
p5448
(dp5449
S'NamedEntityTag'
p5450
g89
sS'CharacterOffsetEnd'
p5451
S'1445'
p5452
sS'Lemma'
p5453
S'the'
p5454
sS'PartOfSpeech'
p5455
S'DT'
p5456
sS'CharacterOffsetBegin'
p5457
S'1442'
p5458
stp5459
a(S'group'
p5460
(dp5461
S'NamedEntityTag'
p5462
g89
sS'CharacterOffsetEnd'
p5463
S'1451'
p5464
sS'Lemma'
p5465
S'group'
p5466
sS'PartOfSpeech'
p5467
S'NN'
p5468
sS'CharacterOffsetBegin'
p5469
S'1446'
p5470
stp5471
a(g343
(dp5472
S'NamedEntityTag'
p5473
g89
sS'CharacterOffsetEnd'
p5474
S'1452'
p5475
sS'Lemma'
p5476
g343
sS'PartOfSpeech'
p5477
g343
sS'CharacterOffsetBegin'
p5478
S'1451'
p5479
stp5480
a(S'as'
p5481
(dp5482
S'NamedEntityTag'
p5483
g89
sS'CharacterOffsetEnd'
p5484
S'1455'
p5485
sS'Lemma'
p5486
S'as'
p5487
sS'PartOfSpeech'
p5488
S'IN'
p5489
sS'CharacterOffsetBegin'
p5490
S'1453'
p5491
stp5492
a(S'required'
p5493
(dp5494
S'NamedEntityTag'
p5495
g89
sS'CharacterOffsetEnd'
p5496
S'1464'
p5497
sS'Lemma'
p5498
S'require'
p5499
sS'PartOfSpeech'
p5500
S'VBN'
p5501
sS'CharacterOffsetBegin'
p5502
S'1456'
p5503
stp5504
a(S'by'
p5505
(dp5506
S'NamedEntityTag'
p5507
g89
sS'CharacterOffsetEnd'
p5508
S'1467'
p5509
sS'Lemma'
p5510
S'by'
p5511
sS'PartOfSpeech'
p5512
S'IN'
p5513
sS'CharacterOffsetBegin'
p5514
S'1465'
p5515
stp5516
a(S'law'
p5517
(dp5518
S'NamedEntityTag'
p5519
g89
sS'CharacterOffsetEnd'
p5520
S'1471'
p5521
sS'Lemma'
p5522
S'law'
p5523
sS'PartOfSpeech'
p5524
S'NN'
p5525
sS'CharacterOffsetBegin'
p5526
S'1468'
p5527
stp5528
a(g343
(dp5529
S'NamedEntityTag'
p5530
g89
sS'CharacterOffsetEnd'
p5531
S'1472'
p5532
sS'Lemma'
p5533
g343
sS'PartOfSpeech'
p5534
g343
sS'CharacterOffsetBegin'
p5535
S'1471'
p5536
stp5537
a(S'but'
p5538
(dp5539
S'NamedEntityTag'
p5540
g89
sS'CharacterOffsetEnd'
p5541
S'1476'
p5542
sS'Lemma'
p5543
S'but'
p5544
sS'PartOfSpeech'
p5545
S'CC'
p5546
sS'CharacterOffsetBegin'
p5547
S'1473'
p5548
stp5549
a(S'authorities'
p5550
(dp5551
S'NamedEntityTag'
p5552
g89
sS'CharacterOffsetEnd'
p5553
S'1488'
p5554
sS'Lemma'
p5555
S'authority'
p5556
sS'PartOfSpeech'
p5557
S'NNS'
p5558
sS'CharacterOffsetBegin'
p5559
S'1477'
p5560
stp5561
a(S'have'
p5562
(dp5563
S'NamedEntityTag'
p5564
g89
sS'CharacterOffsetEnd'
p5565
S'1493'
p5566
sS'Lemma'
p5567
S'have'
p5568
sS'PartOfSpeech'
p5569
S'VBP'
p5570
sS'CharacterOffsetBegin'
p5571
S'1489'
p5572
stp5573
a(S'rejected'
p5574
(dp5575
S'NamedEntityTag'
p5576
g89
sS'CharacterOffsetEnd'
p5577
S'1502'
p5578
sS'Lemma'
p5579
S'reject'
p5580
sS'PartOfSpeech'
p5581
S'VBN'
p5582
sS'CharacterOffsetBegin'
p5583
S'1494'
p5584
stp5585
a(S'those'
p5586
(dp5587
S'NamedEntityTag'
p5588
g89
sS'CharacterOffsetEnd'
p5589
S'1508'
p5590
sS'Lemma'
p5591
S'those'
p5592
sS'PartOfSpeech'
p5593
S'DT'
p5594
sS'CharacterOffsetBegin'
p5595
S'1503'
p5596
stp5597
a(S'applications'
p5598
(dp5599
S'NamedEntityTag'
p5600
g89
sS'CharacterOffsetEnd'
p5601
S'1521'
p5602
sS'Lemma'
p5603
S'application'
p5604
sS'PartOfSpeech'
p5605
S'NNS'
p5606
sS'CharacterOffsetBegin'
p5607
S'1509'
p5608
stp5609
a(g1475
(dp5610
S'NamedEntityTag'
p5611
g89
sS'CharacterOffsetEnd'
p5612
S'1522'
p5613
sS'Lemma'
p5614
g1475
sS'PartOfSpeech'
p5615
g1475
sS'CharacterOffsetBegin'
p5616
S'1521'
p5617
stp5618
asa(dp5619
g7
S'(ROOT (S (SBAR (NP (NN Signaling)) (IN that) (S (NP (NP (DT the) (JJ Communist) (NNP Partys) (JJ 49-year-old) (NN ban)) (PP (IN on) (NP (NN opposition) (NNS groups)))) (VP (VBZ remains) (ADJP (JJ intact))))) (, ,) (NP (NNS police)) (VP (VP (VBP have) (VP (VBN detained))) (CC and) (VP (VBD questioned) (NP (NP (JJ many) (NNS dissidents)) (VP (VBN associated) (PP (IN with) (NP (DT the) (NN group))))))) (. .)))'
p5620
sg9
S'Signaling that the Communist Partys 49-year-old ban on opposition groups remains intact, police have detained and questioned many dissidents associated with the group.'
p5621
sg11
(lp5622
(S'root'
p5623
S'ROOT'
p5624
S'detained'
p5625
tp5626
a(S'dep'
p5627
S'intact'
p5628
S'Signaling'
p5629
tp5630
a(S'mark'
p5631
S'intact'
p5632
S'that'
p5633
tp5634
a(S'det'
p5635
S'ban'
p5636
S'the'
p5637
tp5638
a(S'amod'
p5639
S'ban'
p5640
S'Communist'
p5641
tp5642
a(S'nn'
p5643
S'ban'
p5644
S'Partys'
p5645
tp5646
a(S'amod'
p5647
S'ban'
p5648
S'49-year-old'
p5649
tp5650
a(S'nsubj'
p5651
S'intact'
p5652
S'ban'
p5653
tp5654
a(S'nn'
p5655
S'groups'
p5656
S'opposition'
p5657
tp5658
a(S'prep_on'
p5659
S'ban'
p5660
S'groups'
p5661
tp5662
a(S'cop'
p5663
S'intact'
p5664
S'remains'
p5665
tp5666
a(S'advcl'
p5667
S'detained'
p5668
S'intact'
p5669
tp5670
a(S'nsubj'
p5671
S'detained'
p5672
S'police'
p5673
tp5674
a(S'aux'
p5675
S'detained'
p5676
S'have'
p5677
tp5678
a(S'conj_and'
p5679
S'detained'
p5680
S'questioned'
p5681
tp5682
a(S'amod'
p5683
S'dissidents'
p5684
S'many'
p5685
tp5686
a(S'dobj'
p5687
S'questioned'
p5688
S'dissidents'
p5689
tp5690
a(S'partmod'
p5691
S'dissidents'
p5692
S'associated'
p5693
tp5694
a(S'det'
p5695
S'group'
p5696
S'the'
p5697
tp5698
a(S'prep_with'
p5699
S'associated'
p5700
S'group'
p5701
tp5702
asg45
(lp5703
(g5623
S'ROOT-0'
p5704
S'detained-16'
p5705
tp5706
a(g5627
S'intact-12'
p5707
S'Signaling-1'
p5708
tp5709
a(g5631
S'intact-12'
p5710
S'that-2'
p5711
tp5712
a(g5635
S'ban-7'
p5713
S'the-3'
p5714
tp5715
a(g5639
S'ban-7'
p5716
S'Communist-4'
p5717
tp5718
a(g5643
S'ban-7'
p5719
S'Partys-5'
p5720
tp5721
a(g5647
S'ban-7'
p5722
S'49-year-old-6'
p5723
tp5724
a(g5651
S'intact-12'
p5725
S'ban-7'
p5726
tp5727
a(g5655
S'groups-10'
p5728
S'opposition-9'
p5729
tp5730
a(g5659
S'ban-7'
p5731
S'groups-10'
p5732
tp5733
a(g5663
S'intact-12'
p5734
S'remains-11'
p5735
tp5736
a(g5667
S'detained-16'
p5737
S'intact-12'
p5738
tp5739
a(g5671
S'detained-16'
p5740
S'police-14'
p5741
tp5742
a(g5675
S'detained-16'
p5743
S'have-15'
p5744
tp5745
a(g5679
S'detained-16'
p5746
S'questioned-18'
p5747
tp5748
a(g5683
S'dissidents-20'
p5749
S'many-19'
p5750
tp5751
a(g5687
S'questioned-18'
p5752
S'dissidents-20'
p5753
tp5754
a(g5691
S'dissidents-20'
p5755
S'associated-21'
p5756
tp5757
a(g5695
S'group-24'
p5758
S'the-23'
p5759
tp5760
a(g5699
S'associated-21'
p5761
S'group-24'
p5762
tp5763
asg71
(lp5764
(S'Signaling'
p5765
(dp5766
S'NamedEntityTag'
p5767
g89
sS'CharacterOffsetEnd'
p5768
S'1532'
p5769
sS'Lemma'
p5770
S'signaling'
p5771
sS'PartOfSpeech'
p5772
S'NN'
p5773
sS'CharacterOffsetBegin'
p5774
S'1523'
p5775
stp5776
a(S'that'
p5777
(dp5778
S'NamedEntityTag'
p5779
g89
sS'CharacterOffsetEnd'
p5780
S'1537'
p5781
sS'Lemma'
p5782
S'that'
p5783
sS'PartOfSpeech'
p5784
S'IN'
p5785
sS'CharacterOffsetBegin'
p5786
S'1533'
p5787
stp5788
a(S'the'
p5789
(dp5790
S'NamedEntityTag'
p5791
g89
sS'CharacterOffsetEnd'
p5792
S'1541'
p5793
sS'Lemma'
p5794
S'the'
p5795
sS'PartOfSpeech'
p5796
S'DT'
p5797
sS'CharacterOffsetBegin'
p5798
S'1538'
p5799
stp5800
a(S'Communist'
p5801
(dp5802
S'NamedEntityTag'
p5803
g89
sS'CharacterOffsetEnd'
p5804
S'1551'
p5805
sS'Lemma'
p5806
S'communist'
p5807
sS'PartOfSpeech'
p5808
S'JJ'
p5809
sS'CharacterOffsetBegin'
p5810
S'1542'
p5811
stp5812
a(S'Partys'
p5813
(dp5814
S'NamedEntityTag'
p5815
g89
sS'CharacterOffsetEnd'
p5816
S'1558'
p5817
sS'Lemma'
p5818
S'Partys'
p5819
sS'PartOfSpeech'
p5820
S'NNP'
p5821
sS'CharacterOffsetBegin'
p5822
S'1552'
p5823
stp5824
a(S'49-year-old'
p5825
(dp5826
S'NormalizedNamedEntityTag'
p5827
S'P49Y'
p5828
sS'Timex'
p5829
S'<TIMEX3 tid="t12" type="DURATION" value="P49Y">49-year-old</TIMEX3>'
p5830
sS'Lemma'
p5831
S'49-year-old'
p5832
sS'CharacterOffsetEnd'
p5833
S'1570'
p5834
sS'PartOfSpeech'
p5835
S'JJ'
p5836
sS'CharacterOffsetBegin'
p5837
S'1559'
p5838
sS'NamedEntityTag'
p5839
S'DURATION'
p5840
stp5841
a(S'ban'
p5842
(dp5843
S'NamedEntityTag'
p5844
g89
sS'CharacterOffsetEnd'
p5845
S'1574'
p5846
sS'Lemma'
p5847
S'ban'
p5848
sS'PartOfSpeech'
p5849
S'NN'
p5850
sS'CharacterOffsetBegin'
p5851
S'1571'
p5852
stp5853
a(S'on'
p5854
(dp5855
S'NamedEntityTag'
p5856
g89
sS'CharacterOffsetEnd'
p5857
S'1577'
p5858
sS'Lemma'
p5859
S'on'
p5860
sS'PartOfSpeech'
p5861
S'IN'
p5862
sS'CharacterOffsetBegin'
p5863
S'1575'
p5864
stp5865
a(S'opposition'
p5866
(dp5867
S'NamedEntityTag'
p5868
g89
sS'CharacterOffsetEnd'
p5869
S'1588'
p5870
sS'Lemma'
p5871
S'opposition'
p5872
sS'PartOfSpeech'
p5873
S'NN'
p5874
sS'CharacterOffsetBegin'
p5875
S'1578'
p5876
stp5877
a(S'groups'
p5878
(dp5879
S'NamedEntityTag'
p5880
g89
sS'CharacterOffsetEnd'
p5881
S'1595'
p5882
sS'Lemma'
p5883
S'group'
p5884
sS'PartOfSpeech'
p5885
S'NNS'
p5886
sS'CharacterOffsetBegin'
p5887
S'1589'
p5888
stp5889
a(S'remains'
p5890
(dp5891
S'NamedEntityTag'
p5892
g89
sS'CharacterOffsetEnd'
p5893
S'1603'
p5894
sS'Lemma'
p5895
S'remain'
p5896
sS'PartOfSpeech'
p5897
S'VBZ'
p5898
sS'CharacterOffsetBegin'
p5899
S'1596'
p5900
stp5901
a(S'intact'
p5902
(dp5903
S'NamedEntityTag'
p5904
g89
sS'CharacterOffsetEnd'
p5905
S'1610'
p5906
sS'Lemma'
p5907
S'intact'
p5908
sS'PartOfSpeech'
p5909
S'JJ'
p5910
sS'CharacterOffsetBegin'
p5911
S'1604'
p5912
stp5913
a(g343
(dp5914
S'NamedEntityTag'
p5915
g89
sS'CharacterOffsetEnd'
p5916
S'1611'
p5917
sS'Lemma'
p5918
g343
sS'PartOfSpeech'
p5919
g343
sS'CharacterOffsetBegin'
p5920
S'1610'
p5921
stp5922
a(S'police'
p5923
(dp5924
S'NamedEntityTag'
p5925
g89
sS'CharacterOffsetEnd'
p5926
S'1618'
p5927
sS'Lemma'
p5928
S'police'
p5929
sS'PartOfSpeech'
p5930
S'NNS'
p5931
sS'CharacterOffsetBegin'
p5932
S'1612'
p5933
stp5934
a(S'have'
p5935
(dp5936
S'NamedEntityTag'
p5937
g89
sS'CharacterOffsetEnd'
p5938
S'1623'
p5939
sS'Lemma'
p5940
S'have'
p5941
sS'PartOfSpeech'
p5942
S'VBP'
p5943
sS'CharacterOffsetBegin'
p5944
S'1619'
p5945
stp5946
a(S'detained'
p5947
(dp5948
S'NamedEntityTag'
p5949
g89
sS'CharacterOffsetEnd'
p5950
S'1632'
p5951
sS'Lemma'
p5952
S'detain'
p5953
sS'PartOfSpeech'
p5954
S'VBN'
p5955
sS'CharacterOffsetBegin'
p5956
S'1624'
p5957
stp5958
a(S'and'
p5959
(dp5960
S'NamedEntityTag'
p5961
g89
sS'CharacterOffsetEnd'
p5962
S'1636'
p5963
sS'Lemma'
p5964
S'and'
p5965
sS'PartOfSpeech'
p5966
S'CC'
p5967
sS'CharacterOffsetBegin'
p5968
S'1633'
p5969
stp5970
a(S'questioned'
p5971
(dp5972
S'NamedEntityTag'
p5973
g89
sS'CharacterOffsetEnd'
p5974
S'1647'
p5975
sS'Lemma'
p5976
S'question'
p5977
sS'PartOfSpeech'
p5978
S'VBD'
p5979
sS'CharacterOffsetBegin'
p5980
S'1637'
p5981
stp5982
a(S'many'
p5983
(dp5984
S'NamedEntityTag'
p5985
g89
sS'CharacterOffsetEnd'
p5986
S'1652'
p5987
sS'Lemma'
p5988
S'many'
p5989
sS'PartOfSpeech'
p5990
S'JJ'
p5991
sS'CharacterOffsetBegin'
p5992
S'1648'
p5993
stp5994
a(S'dissidents'
p5995
(dp5996
S'NamedEntityTag'
p5997
g89
sS'CharacterOffsetEnd'
p5998
S'1663'
p5999
sS'Lemma'
p6000
S'dissident'
p6001
sS'PartOfSpeech'
p6002
S'NNS'
p6003
sS'CharacterOffsetBegin'
p6004
S'1653'
p6005
stp6006
a(S'associated'
p6007
(dp6008
S'NamedEntityTag'
p6009
g89
sS'CharacterOffsetEnd'
p6010
S'1674'
p6011
sS'Lemma'
p6012
S'associate'
p6013
sS'PartOfSpeech'
p6014
S'VBN'
p6015
sS'CharacterOffsetBegin'
p6016
S'1664'
p6017
stp6018
a(S'with'
p6019
(dp6020
S'NamedEntityTag'
p6021
g89
sS'CharacterOffsetEnd'
p6022
S'1679'
p6023
sS'Lemma'
p6024
S'with'
p6025
sS'PartOfSpeech'
p6026
S'IN'
p6027
sS'CharacterOffsetBegin'
p6028
S'1675'
p6029
stp6030
a(S'the'
p6031
(dp6032
S'NamedEntityTag'
p6033
g89
sS'CharacterOffsetEnd'
p6034
S'1683'
p6035
sS'Lemma'
p6036
S'the'
p6037
sS'PartOfSpeech'
p6038
S'DT'
p6039
sS'CharacterOffsetBegin'
p6040
S'1680'
p6041
stp6042
a(S'group'
p6043
(dp6044
S'NamedEntityTag'
p6045
g89
sS'CharacterOffsetEnd'
p6046
S'1689'
p6047
sS'Lemma'
p6048
S'group'
p6049
sS'PartOfSpeech'
p6050
S'NN'
p6051
sS'CharacterOffsetBegin'
p6052
S'1684'
p6053
stp6054
a(g1475
(dp6055
S'NamedEntityTag'
p6056
g89
sS'CharacterOffsetEnd'
p6057
S'1690'
p6058
sS'Lemma'
p6059
g1475
sS'PartOfSpeech'
p6060
g1475
sS'CharacterOffsetBegin'
p6061
S'1689'
p6062
stp6063
asass.