(dp0
S'models'
p1
(lp2
(dp3
S'sentences'
p4
(lp5
(dp6
S'parsetree'
p7
S'(ROOT (S (NP (NP (NNS Arrests)) (PP (IN of) (NP (NNS dissidents)))) (VP (VBZ shows) (NP (JJ Chinese) (NN intent) (S (VP (TO to) (VP (VB prevent) (NP (NN opposition) (NN party)))))))))'
p8
sS'text'
p9
S'Arrests of dissidents shows Chinese intent to prevent opposition party'
p10
sS'dependencies'
p11
(lp12
(S'root'
p13
S'ROOT'
p14
S'shows'
p15
tp16
a(S'nsubj'
p17
S'shows'
p18
S'Arrests'
p19
tp20
a(S'prep_of'
p21
S'Arrests'
p22
S'dissidents'
p23
tp24
a(S'amod'
p25
S'intent'
p26
S'Chinese'
p27
tp28
a(S'dobj'
p29
S'shows'
p30
S'intent'
p31
tp32
a(S'aux'
p33
S'prevent'
p34
S'to'
p35
tp36
a(S'infmod'
p37
S'intent'
p38
S'prevent'
p39
tp40
a(S'nn'
p41
S'party'
p42
S'opposition'
p43
tp44
a(S'dobj'
p45
S'prevent'
p46
S'party'
p47
tp48
asS'indexeddependencies'
p49
(lp50
(g13
S'ROOT-0'
p51
S'shows-4'
p52
tp53
a(g17
S'shows-4'
p54
S'Arrests-1'
p55
tp56
a(g21
S'Arrests-1'
p57
S'dissidents-3'
p58
tp59
a(g25
S'intent-6'
p60
S'Chinese-5'
p61
tp62
a(g29
S'shows-4'
p63
S'intent-6'
p64
tp65
a(g33
S'prevent-8'
p66
S'to-7'
p67
tp68
a(g37
S'intent-6'
p69
S'prevent-8'
p70
tp71
a(g41
S'party-10'
p72
S'opposition-9'
p73
tp74
a(g45
S'prevent-8'
p75
S'party-10'
p76
tp77
asS'words'
p78
(lp79
(S'Arrests'
p80
(dp81
S'NamedEntityTag'
p82
S'O'
p83
sS'CharacterOffsetEnd'
p84
S'8'
p85
sS'Lemma'
p86
S'arrest'
p87
sS'PartOfSpeech'
p88
S'NNS'
p89
sS'CharacterOffsetBegin'
p90
S'1'
p91
stp92
a(S'of'
p93
(dp94
S'NamedEntityTag'
p95
g83
sS'CharacterOffsetEnd'
p96
S'11'
p97
sS'Lemma'
p98
S'of'
p99
sS'PartOfSpeech'
p100
S'IN'
p101
sS'CharacterOffsetBegin'
p102
S'9'
p103
stp104
a(S'dissidents'
p105
(dp106
S'NamedEntityTag'
p107
g83
sS'CharacterOffsetEnd'
p108
S'22'
p109
sS'Lemma'
p110
S'dissident'
p111
sS'PartOfSpeech'
p112
S'NNS'
p113
sS'CharacterOffsetBegin'
p114
S'12'
p115
stp116
a(S'shows'
p117
(dp118
S'NamedEntityTag'
p119
g83
sS'CharacterOffsetEnd'
p120
S'28'
p121
sS'Lemma'
p122
S'show'
p123
sS'PartOfSpeech'
p124
S'VBZ'
p125
sS'CharacterOffsetBegin'
p126
S'23'
p127
stp128
a(S'Chinese'
p129
(dp130
S'NamedEntityTag'
p131
S'MISC'
p132
sS'CharacterOffsetEnd'
p133
S'36'
p134
sS'Lemma'
p135
S'chinese'
p136
sS'PartOfSpeech'
p137
S'JJ'
p138
sS'CharacterOffsetBegin'
p139
S'29'
p140
stp141
a(S'intent'
p142
(dp143
S'NamedEntityTag'
p144
g83
sS'CharacterOffsetEnd'
p145
S'43'
p146
sS'Lemma'
p147
S'intent'
p148
sS'PartOfSpeech'
p149
S'NN'
p150
sS'CharacterOffsetBegin'
p151
S'37'
p152
stp153
a(S'to'
p154
(dp155
S'NamedEntityTag'
p156
g83
sS'CharacterOffsetEnd'
p157
S'46'
p158
sS'Lemma'
p159
S'to'
p160
sS'PartOfSpeech'
p161
S'TO'
p162
sS'CharacterOffsetBegin'
p163
S'44'
p164
stp165
a(S'prevent'
p166
(dp167
S'NamedEntityTag'
p168
g83
sS'CharacterOffsetEnd'
p169
S'54'
p170
sS'Lemma'
p171
S'prevent'
p172
sS'PartOfSpeech'
p173
S'VB'
p174
sS'CharacterOffsetBegin'
p175
S'47'
p176
stp177
a(S'opposition'
p178
(dp179
S'NamedEntityTag'
p180
g83
sS'CharacterOffsetEnd'
p181
S'65'
p182
sS'Lemma'
p183
S'opposition'
p184
sS'PartOfSpeech'
p185
S'NN'
p186
sS'CharacterOffsetBegin'
p187
S'55'
p188
stp189
a(S'party'
p190
(dp191
S'NamedEntityTag'
p192
g83
sS'CharacterOffsetEnd'
p193
S'71'
p194
sS'Lemma'
p195
S'party'
p196
sS'PartOfSpeech'
p197
S'NN'
p198
sS'CharacterOffsetBegin'
p199
S'66'
p200
stp201
asasa(dp202
g4
(lp203
(dp204
g7
S'(ROOT (S (NP (NNP PRC)) (VP (VBZ says) (NP (NP (NNP Xu) (NNP Wenli)) (, ,) (NP (NP (NNP Qin) (NNP Yongmin)) (VP (VBN arrested) (PP (IN for) (S (VP (VBG endangering) (NP (JJ national) (NN security)))))))))))'
p205
sg9
S'PRC says Xu Wenli, Qin Yongmin arrested for endangering national security'
p206
sg11
(lp207
(S'root'
p208
S'ROOT'
p209
S'says'
p210
tp211
a(S'nsubj'
p212
S'says'
p213
S'PRC'
p214
tp215
a(S'nn'
p216
S'Wenli'
p217
S'Xu'
p218
tp219
a(S'dobj'
p220
S'says'
p221
S'Wenli'
p222
tp223
a(S'nn'
p224
S'Yongmin'
p225
S'Qin'
p226
tp227
a(S'appos'
p228
S'Wenli'
p229
S'Yongmin'
p230
tp231
a(S'partmod'
p232
S'Yongmin'
p233
S'arrested'
p234
tp235
a(S'prepc_for'
p236
S'arrested'
p237
S'endangering'
p238
tp239
a(S'amod'
p240
S'security'
p241
S'national'
p242
tp243
a(S'dobj'
p244
S'endangering'
p245
S'security'
p246
tp247
asg49
(lp248
(g208
S'ROOT-0'
p249
S'says-2'
p250
tp251
a(g212
S'says-2'
p252
S'PRC-1'
p253
tp254
a(g216
S'Wenli-4'
p255
S'Xu-3'
p256
tp257
a(g220
S'says-2'
p258
S'Wenli-4'
p259
tp260
a(g224
S'Yongmin-7'
p261
S'Qin-6'
p262
tp263
a(g228
S'Wenli-4'
p264
S'Yongmin-7'
p265
tp266
a(g232
S'Yongmin-7'
p267
S'arrested-8'
p268
tp269
a(g236
S'arrested-8'
p270
S'endangering-10'
p271
tp272
a(g240
S'security-12'
p273
S'national-11'
p274
tp275
a(g244
S'endangering-10'
p276
S'security-12'
p277
tp278
asg78
(lp279
(S'PRC'
p280
(dp281
S'NamedEntityTag'
p282
S'ORGANIZATION'
p283
sS'CharacterOffsetEnd'
p284
S'4'
p285
sS'Lemma'
p286
S'PRC'
p287
sS'PartOfSpeech'
p288
S'NNP'
p289
sS'CharacterOffsetBegin'
p290
g91
stp291
a(S'says'
p292
(dp293
S'NamedEntityTag'
p294
g83
sS'CharacterOffsetEnd'
p295
g103
sS'Lemma'
p296
S'say'
p297
sS'PartOfSpeech'
p298
S'VBZ'
p299
sS'CharacterOffsetBegin'
p300
S'5'
p301
stp302
a(S'Xu'
p303
(dp304
S'NamedEntityTag'
p305
S'PERSON'
p306
sS'CharacterOffsetEnd'
p307
S'12'
p308
sS'Lemma'
p309
S'Xu'
p310
sS'PartOfSpeech'
p311
S'NNP'
p312
sS'CharacterOffsetBegin'
p313
S'10'
p314
stp315
a(S'Wenli'
p316
(dp317
S'NamedEntityTag'
p318
S'PERSON'
p319
sS'CharacterOffsetEnd'
p320
S'18'
p321
sS'Lemma'
p322
S'Wenli'
p323
sS'PartOfSpeech'
p324
S'NNP'
p325
sS'CharacterOffsetBegin'
p326
S'13'
p327
stp328
a(S','
p329
(dp330
S'NamedEntityTag'
p331
g83
sS'CharacterOffsetEnd'
p332
S'19'
p333
sS'Lemma'
p334
g329
sS'PartOfSpeech'
p335
g329
sS'CharacterOffsetBegin'
p336
S'18'
p337
stp338
a(S'Qin'
p339
(dp340
S'NamedEntityTag'
p341
S'PERSON'
p342
sS'CharacterOffsetEnd'
p343
S'23'
p344
sS'Lemma'
p345
S'Qin'
p346
sS'PartOfSpeech'
p347
S'NNP'
p348
sS'CharacterOffsetBegin'
p349
S'20'
p350
stp351
a(S'Yongmin'
p352
(dp353
S'NamedEntityTag'
p354
S'PERSON'
p355
sS'CharacterOffsetEnd'
p356
S'31'
p357
sS'Lemma'
p358
S'Yongmin'
p359
sS'PartOfSpeech'
p360
S'NNP'
p361
sS'CharacterOffsetBegin'
p362
S'24'
p363
stp364
a(S'arrested'
p365
(dp366
S'NamedEntityTag'
p367
g83
sS'CharacterOffsetEnd'
p368
S'40'
p369
sS'Lemma'
p370
S'arrest'
p371
sS'PartOfSpeech'
p372
S'VBN'
p373
sS'CharacterOffsetBegin'
p374
S'32'
p375
stp376
a(S'for'
p377
(dp378
S'NamedEntityTag'
p379
g83
sS'CharacterOffsetEnd'
p380
S'44'
p381
sS'Lemma'
p382
S'for'
p383
sS'PartOfSpeech'
p384
S'IN'
p385
sS'CharacterOffsetBegin'
p386
S'41'
p387
stp388
a(S'endangering'
p389
(dp390
S'NamedEntityTag'
p391
g83
sS'CharacterOffsetEnd'
p392
S'56'
p393
sS'Lemma'
p394
S'endanger'
p395
sS'PartOfSpeech'
p396
S'VBG'
p397
sS'CharacterOffsetBegin'
p398
S'45'
p399
stp400
a(S'national'
p401
(dp402
S'NamedEntityTag'
p403
g83
sS'CharacterOffsetEnd'
p404
S'65'
p405
sS'Lemma'
p406
S'national'
p407
sS'PartOfSpeech'
p408
S'JJ'
p409
sS'CharacterOffsetBegin'
p410
S'57'
p411
stp412
a(S'security'
p413
(dp414
S'NamedEntityTag'
p415
g83
sS'CharacterOffsetEnd'
p416
S'74'
p417
sS'Lemma'
p418
S'security'
p419
sS'PartOfSpeech'
p420
S'NN'
p421
sS'CharacterOffsetBegin'
p422
S'66'
p423
stp424
asasa(dp425
g4
(lp426
(dp427
g7
S"(ROOT (S (NP (NNP China)) (VP (VBZ calls) (NP (NP (NNS efforts)) (PP (IN for) (NP (NP (JJ new) (NN party)) (`` ``) (VP (VBG inciting) (S (VP (VB overthrow)))) (PP (IN of) (NP (DT the) (NN government) ('' '')))))))))"
p428
sg9
S'China calls efforts for new party "inciting overthrow of the government"'
p429
sg11
(lp430
(S'root'
p431
S'ROOT'
p432
S'calls'
p433
tp434
a(S'nsubj'
p435
S'calls'
p436
S'China'
p437
tp438
a(S'dobj'
p439
S'calls'
p440
S'efforts'
p441
tp442
a(S'amod'
p443
S'party'
p444
S'new'
p445
tp446
a(S'prep_for'
p447
S'efforts'
p448
S'party'
p449
tp450
a(S'partmod'
p451
S'party'
p452
S'inciting'
p453
tp454
a(S'ccomp'
p455
S'inciting'
p456
S'overthrow'
p457
tp458
a(S'det'
p459
S'government'
p460
S'the'
p461
tp462
a(S'prep_of'
p463
S'party'
p464
S'government'
p465
tp466
asg49
(lp467
(g431
S'ROOT-0'
p468
S'calls-2'
p469
tp470
a(g435
S'calls-2'
p471
S'China-1'
p472
tp473
a(g439
S'calls-2'
p474
S'efforts-3'
p475
tp476
a(g443
S'party-6'
p477
S'new-5'
p478
tp479
a(g447
S'efforts-3'
p480
S'party-6'
p481
tp482
a(g451
S'party-6'
p483
S'inciting-8'
p484
tp485
a(g455
S'inciting-8'
p486
S'overthrow-9'
p487
tp488
a(g459
S'government-12'
p489
S'the-11'
p490
tp491
a(g463
S'party-6'
p492
S'government-12'
p493
tp494
asg78
(lp495
(S'China'
p496
(dp497
S'NamedEntityTag'
p498
S'LOCATION'
p499
sS'CharacterOffsetEnd'
p500
S'6'
p501
sS'Lemma'
p502
S'China'
p503
sS'PartOfSpeech'
p504
S'NNP'
p505
sS'CharacterOffsetBegin'
p506
g91
stp507
a(S'calls'
p508
(dp509
S'NamedEntityTag'
p510
g83
sS'CharacterOffsetEnd'
p511
S'12'
p512
sS'Lemma'
p513
S'call'
p514
sS'PartOfSpeech'
p515
S'VBZ'
p516
sS'CharacterOffsetBegin'
p517
S'7'
p518
stp519
a(S'efforts'
p520
(dp521
S'NamedEntityTag'
p522
g83
sS'CharacterOffsetEnd'
p523
S'20'
p524
sS'Lemma'
p525
S'effort'
p526
sS'PartOfSpeech'
p527
S'NNS'
p528
sS'CharacterOffsetBegin'
p529
S'13'
p530
stp531
a(S'for'
p532
(dp533
S'NamedEntityTag'
p534
g83
sS'CharacterOffsetEnd'
p535
S'24'
p536
sS'Lemma'
p537
S'for'
p538
sS'PartOfSpeech'
p539
S'IN'
p540
sS'CharacterOffsetBegin'
p541
S'21'
p542
stp543
a(S'new'
p544
(dp545
S'NamedEntityTag'
p546
g83
sS'CharacterOffsetEnd'
p547
S'28'
p548
sS'Lemma'
p549
S'new'
p550
sS'PartOfSpeech'
p551
S'JJ'
p552
sS'CharacterOffsetBegin'
p553
S'25'
p554
stp555
a(S'party'
p556
(dp557
S'NamedEntityTag'
p558
g83
sS'CharacterOffsetEnd'
p559
S'34'
p560
sS'Lemma'
p561
S'party'
p562
sS'PartOfSpeech'
p563
S'NN'
p564
sS'CharacterOffsetBegin'
p565
S'29'
p566
stp567
a(S'``'
p568
(dp569
S'NamedEntityTag'
p570
g83
sS'CharacterOffsetEnd'
p571
S'36'
p572
sS'Lemma'
p573
S'``'
p574
sS'PartOfSpeech'
p575
S'``'
p576
sS'CharacterOffsetBegin'
p577
S'35'
p578
stp579
a(S'inciting'
p580
(dp581
S'NamedEntityTag'
p582
g83
sS'CharacterOffsetEnd'
p583
S'44'
p584
sS'Lemma'
p585
S'incite'
p586
sS'PartOfSpeech'
p587
S'VBG'
p588
sS'CharacterOffsetBegin'
p589
S'36'
p590
stp591
a(S'overthrow'
p592
(dp593
S'NamedEntityTag'
p594
g83
sS'CharacterOffsetEnd'
p595
S'54'
p596
sS'Lemma'
p597
S'overthrow'
p598
sS'PartOfSpeech'
p599
S'VB'
p600
sS'CharacterOffsetBegin'
p601
S'45'
p602
stp603
a(S'of'
p604
(dp605
S'NamedEntityTag'
p606
g83
sS'CharacterOffsetEnd'
p607
S'57'
p608
sS'Lemma'
p609
S'of'
p610
sS'PartOfSpeech'
p611
S'IN'
p612
sS'CharacterOffsetBegin'
p613
S'55'
p614
stp615
a(S'the'
p616
(dp617
S'NamedEntityTag'
p618
g83
sS'CharacterOffsetEnd'
p619
S'61'
p620
sS'Lemma'
p621
S'the'
p622
sS'PartOfSpeech'
p623
S'DT'
p624
sS'CharacterOffsetBegin'
p625
S'58'
p626
stp627
a(S'government'
p628
(dp629
S'NamedEntityTag'
p630
g83
sS'CharacterOffsetEnd'
p631
S'72'
p632
sS'Lemma'
p633
S'government'
p634
sS'PartOfSpeech'
p635
S'NN'
p636
sS'CharacterOffsetBegin'
p637
S'62'
p638
stp639
a(S"''"
p640
(dp641
S'NamedEntityTag'
p642
g83
sS'CharacterOffsetEnd'
p643
S'73'
p644
sS'Lemma'
p645
S"''"
p646
sS'PartOfSpeech'
p647
S"''"
p648
sS'CharacterOffsetBegin'
p649
S'72'
p650
stp651
asasa(dp652
g4
(lp653
(dp654
g7
S'(ROOT (FRAG (NP (NP (NNP China) (NNS arrests)) (SBAR (S (NP (NP (JJ prominent) (NNS dissidents)) (PP (IN in) (NP (NN attempt)))) (VP (TO to) (VP (VB quash) (NP (NN opposition) (NN party)))))))))'
p655
sg9
S'China arrests prominent dissidents in attempt to quash opposition party'
p656
sg11
(lp657
(S'root'
p658
S'ROOT'
p659
S'arrests'
p660
tp661
a(S'nn'
p662
S'arrests'
p663
S'China'
p664
tp665
a(S'amod'
p666
S'dissidents'
p667
S'prominent'
p668
tp669
a(S'nsubj'
p670
S'quash'
p671
S'dissidents'
p672
tp673
a(S'prep_in'
p674
S'dissidents'
p675
S'attempt'
p676
tp677
a(S'aux'
p678
S'quash'
p679
S'to'
p680
tp681
a(S'infmod'
p682
S'arrests'
p683
S'quash'
p684
tp685
a(S'nn'
p686
S'party'
p687
S'opposition'
p688
tp689
a(S'dobj'
p690
S'quash'
p691
S'party'
p692
tp693
asg49
(lp694
(g658
S'ROOT-0'
p695
S'arrests-2'
p696
tp697
a(g662
S'arrests-2'
p698
S'China-1'
p699
tp700
a(g666
S'dissidents-4'
p701
S'prominent-3'
p702
tp703
a(g670
S'quash-8'
p704
S'dissidents-4'
p705
tp706
a(g674
S'dissidents-4'
p707
S'attempt-6'
p708
tp709
a(g678
S'quash-8'
p710
S'to-7'
p711
tp712
a(g682
S'arrests-2'
p713
S'quash-8'
p714
tp715
a(g686
S'party-10'
p716
S'opposition-9'
p717
tp718
a(g690
S'quash-8'
p719
S'party-10'
p720
tp721
asg78
(lp722
(S'China'
p723
(dp724
S'NamedEntityTag'
p725
S'LOCATION'
p726
sS'CharacterOffsetEnd'
p727
g501
sS'Lemma'
p728
S'China'
p729
sS'PartOfSpeech'
p730
S'NNP'
p731
sS'CharacterOffsetBegin'
p732
g91
stp733
a(S'arrests'
p734
(dp735
S'NamedEntityTag'
p736
g83
sS'CharacterOffsetEnd'
p737
S'14'
p738
sS'Lemma'
p739
S'arrest'
p740
sS'PartOfSpeech'
p741
S'NNS'
p742
sS'CharacterOffsetBegin'
p743
g518
stp744
a(S'prominent'
p745
(dp746
S'NamedEntityTag'
p747
g83
sS'CharacterOffsetEnd'
p748
S'24'
p749
sS'Lemma'
p750
S'prominent'
p751
sS'PartOfSpeech'
p752
S'JJ'
p753
sS'CharacterOffsetBegin'
p754
S'15'
p755
stp756
a(S'dissidents'
p757
(dp758
S'NamedEntityTag'
p759
g83
sS'CharacterOffsetEnd'
p760
S'35'
p761
sS'Lemma'
p762
S'dissident'
p763
sS'PartOfSpeech'
p764
S'NNS'
p765
sS'CharacterOffsetBegin'
p766
S'25'
p767
stp768
a(S'in'
p769
(dp770
S'NamedEntityTag'
p771
g83
sS'CharacterOffsetEnd'
p772
S'38'
p773
sS'Lemma'
p774
S'in'
p775
sS'PartOfSpeech'
p776
S'IN'
p777
sS'CharacterOffsetBegin'
p778
S'36'
p779
stp780
a(S'attempt'
p781
(dp782
S'NamedEntityTag'
p783
g83
sS'CharacterOffsetEnd'
p784
S'46'
p785
sS'Lemma'
p786
S'attempt'
p787
sS'PartOfSpeech'
p788
S'NN'
p789
sS'CharacterOffsetBegin'
p790
S'39'
p791
stp792
a(S'to'
p793
(dp794
S'NamedEntityTag'
p795
g83
sS'CharacterOffsetEnd'
p796
S'49'
p797
sS'Lemma'
p798
S'to'
p799
sS'PartOfSpeech'
p800
S'TO'
p801
sS'CharacterOffsetBegin'
p802
S'47'
p803
stp804
a(S'quash'
p805
(dp806
S'NamedEntityTag'
p807
g83
sS'CharacterOffsetEnd'
p808
S'55'
p809
sS'Lemma'
p810
S'quash'
p811
sS'PartOfSpeech'
p812
S'VB'
p813
sS'CharacterOffsetBegin'
p814
S'50'
p815
stp816
a(S'opposition'
p817
(dp818
S'NamedEntityTag'
p819
g83
sS'CharacterOffsetEnd'
p820
S'66'
p821
sS'Lemma'
p822
S'opposition'
p823
sS'PartOfSpeech'
p824
S'NN'
p825
sS'CharacterOffsetBegin'
p826
S'56'
p827
stp828
a(S'party'
p829
(dp830
S'NamedEntityTag'
p831
g83
sS'CharacterOffsetEnd'
p832
S'72'
p833
sS'Lemma'
p834
S'party'
p835
sS'PartOfSpeech'
p836
S'NN'
p837
sS'CharacterOffsetBegin'
p838
S'67'
p839
stp840
asasasS'article'
p841
(dp842
S'coref'
p843
(lp844
(lp845
((S'two'
p846
I19
I1
I21
I22
tp847
(S'two'
p848
I0
I5
I5
I6
tp849
tp850
aa(lp851
((S'dissidents'
p852
I5
I7
I27
I28
tp853
(S'two prominent dissidents arrested this week'
p854
I0
I7
I5
I11
tp855
tp856
a((S'dissidents'
p857
I12
I1
I1
I2
tp858
(S'two prominent dissidents arrested this week'
p859
I0
I7
I5
I11
tp860
tp861
a((S'the dissidents'
p862
I14
I0
I19
I21
tp863
(S'two prominent dissidents arrested this week'
p864
I0
I7
I5
I11
tp865
tp866
a((S'the two dissidents'
p867
I19
I2
I20
I23
tp868
(S'two prominent dissidents arrested this week'
p869
I0
I7
I5
I11
tp870
tp871
aa(lp872
((S'Chinese leaders'
p873
I5
I3
I22
I24
tp874
(S'yet Chinese leaders'
p875
I0
I3
I21
I24
tp876
tp877
aa(lp878
((S'Xu'
p879
I5
I3
I3
I4
tp880
(S'Xu Wenli'
p881
I1
I5
I14
I16
tp882
tp883
a((S'Xu'
p884
I6
I0
I0
I1
tp885
(S'Xu Wenli'
p886
I1
I5
I14
I16
tp887
tp888
a((S'him'
p889
I7
I8
I18
I19
tp890
(S'Xu Wenli'
p891
I1
I5
I14
I16
tp892
tp893
a((S'Xu'
p894
I8
I0
I0
I1
tp895
(S'Xu Wenli'
p896
I1
I5
I14
I16
tp897
tp898
a((S'Xu'
p899
I11
I0
I0
I1
tp900
(S'Xu Wenli'
p901
I1
I5
I14
I16
tp902
tp903
a((S'Xu'
p904
I15
I5
I15
I16
tp905
(S'Xu Wenli'
p906
I1
I5
I14
I16
tp907
tp908
aa(lp909
((S'Qin'
p910
I5
I5
I5
I6
tp911
(S'Qin Yongmin'
p912
I1
I8
I17
I19
tp913
tp914
a((S'Qin'
p915
I6
I2
I2
I3
tp916
(S'Qin Yongmin'
p917
I1
I8
I17
I19
tp918
tp919
a((S'Qin'
p920
I8
I2
I2
I3
tp921
(S'Qin Yongmin'
p922
I1
I8
I17
I19
tp923
tp924
a((S'Qin'
p925
I15
I7
I17
I18
tp926
(S'Qin Yongmin'
p927
I1
I8
I17
I19
tp928
tp929
aa(lp930
((S'Zhu'
p931
I6
I-1
I29
I30
tp932
(S'Foreign Ministry spokesman Zhu Bangzao'
p933
I1
I4
I0
I5
tp934
tp935
a((S'Zhu'
p936
I16
I0
I0
I1
tp937
(S'Foreign Ministry spokesman Zhu Bangzao'
p938
I1
I4
I0
I5
tp939
tp940
a((S'Zhu'
p941
I19
I0
I0
I1
tp942
(S'Foreign Ministry spokesman Zhu Bangzao'
p943
I1
I4
I0
I5
tp944
tp945
aa(lp946
((S'China'
p947
I18
I8
I8
I9
tp948
(S'China'
p949
I2
I3
I43
I44
tp950
tp951
aa(lp952
((S'the Information Center'
p953
I7
I7
I25
I28
tp954
(S'Hong Kong-based Information Center of Human Rights and Democratic Movement'
p955
I2
I5
I32
I42
tp956
tp957
aa(lp958
((S'the government , the Hong Kong-based Information Center of Human Rights and Democratic Movement in China reported'
p959
I2
I-1
I28
I45
tp960
(S'the Hong Kong-based Information Center of Human Rights and Democratic Movement in China reported'
p961
I2
I4
I31
I45
tp962
tp963
a((S'the government'
p964
I2
I-1
I28
I30
tp965
(S'the Hong Kong-based Information Center of Human Rights and Democratic Movement in China reported'
p966
I2
I4
I31
I45
tp967
tp968
a((S'the government'
p969
I12
I0
I29
I31
tp970
(S'the Hong Kong-based Information Center of Human Rights and Democratic Movement in China reported'
p971
I2
I4
I31
I45
tp972
tp973
aa(lp974
((S'their'
p975
I5
I7
I7
I8
tp976
(S'the'
p977
I2
I5
I25
I26
tp978
tp979
aa(lp980
((S'the law'
p981
I4
I8
I7
I9
tp982
(S'Chinas vague state security law'
p983
I3
I1
I17
I22
tp984
tp985
aa(lp986
((S'it'
p987
I4
I3
I13
I14
tp988
(S'The ruling Communist Party'
p989
I4
I3
I0
I4
tp990
tp991
a((S'The Communist Party'
p992
I13
I2
I0
I3
tp993
(S'The ruling Communist Party'
p994
I4
I3
I0
I4
tp995
tp996
a((S'it'
p997
I13
I2
I12
I13
tp998
(S'The ruling Communist Party'
p999
I4
I3
I0
I4
tp1000
tp1001
aa(lp1002
((S'the arrests'
p1003
I14
I6
I15
I17
tp1004
(S'The arrests of Xu and Qin at their homes Monday night'
p1005
I5
I1
I0
I11
tp1006
tp1007
a((S'the arrests'
p1008
I16
I8
I7
I9
tp1009
(S'The arrests of Xu and Qin at their homes Monday night'
p1010
I5
I1
I0
I11
tp1011
tp1012
aa(lp1013
((S'Wang'
p1014
I9
I0
I0
I1
tp1015
(S'Wang'
p1016
I5
I7
I17
I18
tp1017
tp1018
a((S'a student leader in the 1989 Tiananmen Square democracy demonstrations'
p1019
I9
I4
I2
I12
tp1020
(S'Wang'
p1021
I5
I7
I17
I18
tp1022
tp1023
aa(lp1024
((S'them'
p1025
I5
I5
I15
I16
tp1026
(S'Xu and Qin at their homes Monday'
p1027
I5
I3
I3
I10
tp1028
tp1029
a((S'Xu and Qin'
p1030
I6
I0
I0
I3
tp1031
(S'Xu and Qin at their homes Monday'
p1032
I5
I3
I3
I10
tp1033
tp1034
a((S'their'
p1035
I6
I3
I13
I14
tp1036
(S'Xu and Qin at their homes Monday'
p1037
I5
I3
I3
I10
tp1038
tp1039
a((S'Xu and Qin'
p1040
I8
I0
I0
I3
tp1041
(S'Xu and Qin at their homes Monday'
p1042
I5
I3
I3
I10
tp1043
tp1044
a((S'their'
p1045
I8
I3
I13
I14
tp1046
(S'Xu and Qin at their homes Monday'
p1047
I5
I3
I3
I10
tp1048
tp1049
a((S'Xu and Qin'
p1050
I15
I5
I15
I18
tp1051
(S'Xu and Qin at their homes Monday'
p1052
I5
I3
I3
I10
tp1053
tp1054
aa(lp1055
((S'the China Democracy Party'
p1056
I12
I2
I9
I13
tp1057
(S'the China Democracy Party in June'
p1058
I5
I-1
I36
I42
tp1059
tp1060
a((S'China Democracy Party'
p1061
I12
I2
I10
I13
tp1062
(S'the China Democracy Party in June'
p1063
I5
I-1
I36
I42
tp1064
tp1065
aa(lp1066
((S'Wednesday'
p1067
I14
I3
I3
I4
tp1068
(S'Wednesday'
p1069
I7
I7
I7
I8
tp1070
tp1071
aa(lp1072
((S'police'
p1073
I12
I4
I14
I15
tp1074
(S'Police in Hangzhou city'
p1075
I7
I0
I0
I4
tp1076
tp1077
aa(lp1078
((S'it'
p1079
I11
I-1
I9
I10
tp1080
(S'12 years'
p1081
I11
I3
I2
I4
tp1082
tp1083
aa(lp1084
((S'the United States'
p1085
I16
I8
I16
I19
tp1086
(S'the United States'
p1087
I14
I3
I11
I14
tp1088
tp1089
a((S'United States'
p1090
I16
I8
I17
I19
tp1091
(S'the United States'
p1092
I14
I3
I11
I14
tp1093
tp1094
aa(lp1095
((S'their'
p1096
I15
I3
I3
I4
tp1097
(S'U.S. officials'
p1098
I15
I1
I0
I2
tp1099
tp1100
aa(lp1101
((S'fundamental human rights'
p1102
I14
I7
I25
I28
tp1103
(S'peaceful political activities'
p1104
I14
I3
I21
I24
tp1105
tp1106
aa(lp1107
((S'its'
p1108
I19
I7
I17
I18
tp1109
(S'no contradiction'
p1110
I19
I7
I6
I8
tp1111
tp1112
aasg4
(lp1113
(dp1114
g7
S'(ROOT (S (NP (NNP Chinas) (NN government)) (VP (VBD said) (NP-TMP (NNP Thursday)) (SBAR (IN that) (S (NP (NP (CD two) (JJ prominent) (NNS dissidents)) (VP (VBN arrested) (NP-TMP (DT this) (NN week)))) (VP (VBP are) (VP (VBN suspected) (PP (IN of) (S (VP (VBG endangering) (SBAR (S (NP (JJ national) (NN security)) (VP (VBD _) (NP (NP (DT the) (JJS clearest) (NN sign)) (SBAR (S (NP (RB yet) (JJ Chinese) (NNS leaders)) (VP (VBP plan) (S (VP (TO to) (VP (VB quash) (NP (DT a) (JJ would-be) (NN opposition) (NN party)))))))))))))))))))) (. .)))'
p1115
sg9
S'Chinas government said Thursday that two prominent dissidents arrested this week are suspected of endangering national security _ the clearest sign yet Chinese leaders plan to quash a would-be opposition party.'
p1116
sg11
(lp1117
(S'root'
p1118
S'ROOT'
p1119
S'said'
p1120
tp1121
a(S'nn'
p1122
S'government'
p1123
S'Chinas'
p1124
tp1125
a(S'nsubj'
p1126
S'said'
p1127
S'government'
p1128
tp1129
a(S'tmod'
p1130
S'said'
p1131
S'Thursday'
p1132
tp1133
a(S'mark'
p1134
S'suspected'
p1135
S'that'
p1136
tp1137
a(S'num'
p1138
S'dissidents'
p1139
S'two'
p1140
tp1141
a(S'amod'
p1142
S'dissidents'
p1143
S'prominent'
p1144
tp1145
a(S'nsubjpass'
p1146
S'suspected'
p1147
S'dissidents'
p1148
tp1149
a(S'partmod'
p1150
S'dissidents'
p1151
S'arrested'
p1152
tp1153
a(S'det'
p1154
S'week'
p1155
S'this'
p1156
tp1157
a(S'tmod'
p1158
S'arrested'
p1159
S'week'
p1160
tp1161
a(S'auxpass'
p1162
S'suspected'
p1163
S'are'
p1164
tp1165
a(S'ccomp'
p1166
S'said'
p1167
S'suspected'
p1168
tp1169
a(S'prepc_of'
p1170
S'suspected'
p1171
S'endangering'
p1172
tp1173
a(S'amod'
p1174
S'security'
p1175
S'national'
p1176
tp1177
a(S'nsubj'
p1178
S'_'
p1179
S'security'
p1180
tp1181
a(S'ccomp'
p1182
S'endangering'
p1183
g1179
tp1184
a(S'det'
p1185
S'sign'
p1186
S'the'
p1187
tp1188
a(S'amod'
p1189
S'sign'
p1190
S'clearest'
p1191
tp1192
a(S'dobj'
p1193
g1179
S'sign'
p1194
tp1195
a(S'advmod'
p1196
S'leaders'
p1197
S'yet'
p1198
tp1199
a(S'amod'
p1200
S'leaders'
p1201
S'Chinese'
p1202
tp1203
a(S'nsubj'
p1204
S'plan'
p1205
S'leaders'
p1206
tp1207
a(S'rcmod'
p1208
S'sign'
p1209
S'plan'
p1210
tp1211
a(S'aux'
p1212
S'quash'
p1213
S'to'
p1214
tp1215
a(S'xcomp'
p1216
S'plan'
p1217
S'quash'
p1218
tp1219
a(S'det'
p1220
S'party'
p1221
S'a'
p1222
tp1223
a(S'amod'
p1224
S'party'
p1225
S'would-be'
p1226
tp1227
a(S'nn'
p1228
S'party'
p1229
S'opposition'
p1230
tp1231
a(S'dobj'
p1232
S'quash'
p1233
S'party'
p1234
tp1235
asg49
(lp1236
(g1118
S'ROOT-0'
p1237
S'said-3'
p1238
tp1239
a(g1122
S'government-2'
p1240
S'Chinas-1'
p1241
tp1242
a(g1126
S'said-3'
p1243
S'government-2'
p1244
tp1245
a(g1130
S'said-3'
p1246
S'Thursday-4'
p1247
tp1248
a(g1134
S'suspected-13'
p1249
S'that-5'
p1250
tp1251
a(g1138
S'dissidents-8'
p1252
S'two-6'
p1253
tp1254
a(g1142
S'dissidents-8'
p1255
S'prominent-7'
p1256
tp1257
a(g1146
S'suspected-13'
p1258
S'dissidents-8'
p1259
tp1260
a(g1150
S'dissidents-8'
p1261
S'arrested-9'
p1262
tp1263
a(g1154
S'week-11'
p1264
S'this-10'
p1265
tp1266
a(g1158
S'arrested-9'
p1267
S'week-11'
p1268
tp1269
a(g1162
S'suspected-13'
p1270
S'are-12'
p1271
tp1272
a(g1166
S'said-3'
p1273
S'suspected-13'
p1274
tp1275
a(g1170
S'suspected-13'
p1276
S'endangering-15'
p1277
tp1278
a(g1174
S'security-17'
p1279
S'national-16'
p1280
tp1281
a(g1178
S'_-18'
p1282
S'security-17'
p1283
tp1284
a(g1182
S'endangering-15'
p1285
S'_-18'
p1286
tp1287
a(g1185
S'sign-21'
p1288
S'the-19'
p1289
tp1290
a(g1189
S'sign-21'
p1291
S'clearest-20'
p1292
tp1293
a(g1193
S'_-18'
p1294
S'sign-21'
p1295
tp1296
a(g1196
S'leaders-24'
p1297
S'yet-22'
p1298
tp1299
a(g1200
S'leaders-24'
p1300
S'Chinese-23'
p1301
tp1302
a(g1204
S'plan-25'
p1303
S'leaders-24'
p1304
tp1305
a(g1208
S'sign-21'
p1306
S'plan-25'
p1307
tp1308
a(g1212
S'quash-27'
p1309
S'to-26'
p1310
tp1311
a(g1216
S'plan-25'
p1312
S'quash-27'
p1313
tp1314
a(g1220
S'party-31'
p1315
S'a-28'
p1316
tp1317
a(g1224
S'party-31'
p1318
S'would-be-29'
p1319
tp1320
a(g1228
S'party-31'
p1321
S'opposition-30'
p1322
tp1323
a(g1232
S'quash-27'
p1324
S'party-31'
p1325
tp1326
asg78
(lp1327
(S'Chinas'
p1328
(dp1329
S'NamedEntityTag'
p1330
g83
sS'CharacterOffsetEnd'
p1331
g501
sS'Lemma'
p1332
S'Chinas'
p1333
sS'PartOfSpeech'
p1334
S'NNP'
p1335
sS'CharacterOffsetBegin'
p1336
S'0'
p1337
stp1338
a(S'government'
p1339
(dp1340
S'NamedEntityTag'
p1341
g83
sS'CharacterOffsetEnd'
p1342
S'17'
p1343
sS'Lemma'
p1344
S'government'
p1345
sS'PartOfSpeech'
p1346
S'NN'
p1347
sS'CharacterOffsetBegin'
p1348
g518
stp1349
a(S'said'
p1350
(dp1351
S'NamedEntityTag'
p1352
g83
sS'CharacterOffsetEnd'
p1353
S'22'
p1354
sS'Lemma'
p1355
S'say'
p1356
sS'PartOfSpeech'
p1357
S'VBD'
p1358
sS'CharacterOffsetBegin'
p1359
S'18'
p1360
stp1361
a(S'Thursday'
p1362
(dp1363
S'NormalizedNamedEntityTag'
p1364
S'XXXX-WXX-4'
p1365
sS'Timex'
p1366
S'<TIMEX3 tid="t1" type="DATE" value="XXXX-WXX-4">Thursday</TIMEX3>'
p1367
sS'Lemma'
p1368
S'Thursday'
p1369
sS'CharacterOffsetEnd'
p1370
S'31'
p1371
sS'PartOfSpeech'
p1372
S'NNP'
p1373
sS'CharacterOffsetBegin'
p1374
S'23'
p1375
sS'NamedEntityTag'
p1376
S'DATE'
p1377
stp1378
a(S'that'
p1379
(dp1380
S'NamedEntityTag'
p1381
g83
sS'CharacterOffsetEnd'
p1382
S'36'
p1383
sS'Lemma'
p1384
S'that'
p1385
sS'PartOfSpeech'
p1386
S'IN'
p1387
sS'CharacterOffsetBegin'
p1388
S'32'
p1389
stp1390
a(S'two'
p1391
(dp1392
S'NormalizedNamedEntityTag'
p1393
S'2.0'
p1394
sS'Lemma'
p1395
S'two'
p1396
sS'CharacterOffsetEnd'
p1397
S'40'
p1398
sS'PartOfSpeech'
p1399
S'CD'
p1400
sS'CharacterOffsetBegin'
p1401
S'37'
p1402
sS'NamedEntityTag'
p1403
S'NUMBER'
p1404
stp1405
a(S'prominent'
p1406
(dp1407
S'NamedEntityTag'
p1408
g83
sS'CharacterOffsetEnd'
p1409
S'50'
p1410
sS'Lemma'
p1411
S'prominent'
p1412
sS'PartOfSpeech'
p1413
S'JJ'
p1414
sS'CharacterOffsetBegin'
p1415
S'41'
p1416
stp1417
a(S'dissidents'
p1418
(dp1419
S'NamedEntityTag'
p1420
g83
sS'CharacterOffsetEnd'
p1421
S'61'
p1422
sS'Lemma'
p1423
S'dissident'
p1424
sS'PartOfSpeech'
p1425
S'NNS'
p1426
sS'CharacterOffsetBegin'
p1427
S'51'
p1428
stp1429
a(S'arrested'
p1430
(dp1431
S'NamedEntityTag'
p1432
g83
sS'CharacterOffsetEnd'
p1433
S'70'
p1434
sS'Lemma'
p1435
S'arrest'
p1436
sS'PartOfSpeech'
p1437
S'VBN'
p1438
sS'CharacterOffsetBegin'
p1439
S'62'
p1440
stp1441
a(S'this'
p1442
(dp1443
S'NormalizedNamedEntityTag'
p1444
S'THIS'
p1445
sS'Timex'
p1446
S'<TIMEX3 alt_value="THIS P1W" anchorTimeID="t0" temporalFunction="true" tid="t2" type="DATE" valueFromFunction="tf0">this week</TIMEX3>'
p1447
sS'Lemma'
p1448
S'this'
p1449
sS'CharacterOffsetEnd'
p1450
S'75'
p1451
sS'PartOfSpeech'
p1452
S'DT'
p1453
sS'CharacterOffsetBegin'
p1454
S'71'
p1455
sS'NamedEntityTag'
p1456
S'DATE'
p1457
stp1458
a(S'week'
p1459
(dp1460
S'NormalizedNamedEntityTag'
p1461
S'THIS'
p1462
sS'Timex'
p1463
S'<TIMEX3 alt_value="THIS P1W" anchorTimeID="t0" temporalFunction="true" tid="t2" type="DATE" valueFromFunction="tf0">this week</TIMEX3>'
p1464
sS'Lemma'
p1465
S'week'
p1466
sS'CharacterOffsetEnd'
p1467
S'80'
p1468
sS'PartOfSpeech'
p1469
S'NN'
p1470
sS'CharacterOffsetBegin'
p1471
S'76'
p1472
sS'NamedEntityTag'
p1473
S'DATE'
p1474
stp1475
a(S'are'
p1476
(dp1477
S'NamedEntityTag'
p1478
g83
sS'CharacterOffsetEnd'
p1479
S'84'
p1480
sS'Lemma'
p1481
S'be'
p1482
sS'PartOfSpeech'
p1483
S'VBP'
p1484
sS'CharacterOffsetBegin'
p1485
S'81'
p1486
stp1487
a(S'suspected'
p1488
(dp1489
S'NamedEntityTag'
p1490
g83
sS'CharacterOffsetEnd'
p1491
S'94'
p1492
sS'Lemma'
p1493
S'suspect'
p1494
sS'PartOfSpeech'
p1495
S'VBN'
p1496
sS'CharacterOffsetBegin'
p1497
S'85'
p1498
stp1499
a(S'of'
p1500
(dp1501
S'NamedEntityTag'
p1502
g83
sS'CharacterOffsetEnd'
p1503
S'97'
p1504
sS'Lemma'
p1505
S'of'
p1506
sS'PartOfSpeech'
p1507
S'IN'
p1508
sS'CharacterOffsetBegin'
p1509
S'95'
p1510
stp1511
a(S'endangering'
p1512
(dp1513
S'NamedEntityTag'
p1514
g83
sS'CharacterOffsetEnd'
p1515
S'109'
p1516
sS'Lemma'
p1517
S'endanger'
p1518
sS'PartOfSpeech'
p1519
S'VBG'
p1520
sS'CharacterOffsetBegin'
p1521
S'98'
p1522
stp1523
a(S'national'
p1524
(dp1525
S'NamedEntityTag'
p1526
g83
sS'CharacterOffsetEnd'
p1527
S'118'
p1528
sS'Lemma'
p1529
S'national'
p1530
sS'PartOfSpeech'
p1531
S'JJ'
p1532
sS'CharacterOffsetBegin'
p1533
S'110'
p1534
stp1535
a(S'security'
p1536
(dp1537
S'NamedEntityTag'
p1538
g83
sS'CharacterOffsetEnd'
p1539
S'127'
p1540
sS'Lemma'
p1541
S'security'
p1542
sS'PartOfSpeech'
p1543
S'NN'
p1544
sS'CharacterOffsetBegin'
p1545
S'119'
p1546
stp1547
a(g1179
(dp1548
S'NamedEntityTag'
p1549
g83
sS'CharacterOffsetEnd'
p1550
S'129'
p1551
sS'Lemma'
p1552
g1179
sS'PartOfSpeech'
p1553
S'VBD'
p1554
sS'CharacterOffsetBegin'
p1555
S'128'
p1556
stp1557
a(S'the'
p1558
(dp1559
S'NamedEntityTag'
p1560
g83
sS'CharacterOffsetEnd'
p1561
S'133'
p1562
sS'Lemma'
p1563
S'the'
p1564
sS'PartOfSpeech'
p1565
S'DT'
p1566
sS'CharacterOffsetBegin'
p1567
S'130'
p1568
stp1569
a(S'clearest'
p1570
(dp1571
S'NamedEntityTag'
p1572
g83
sS'CharacterOffsetEnd'
p1573
S'142'
p1574
sS'Lemma'
p1575
S'clearest'
p1576
sS'PartOfSpeech'
p1577
S'JJS'
p1578
sS'CharacterOffsetBegin'
p1579
S'134'
p1580
stp1581
a(S'sign'
p1582
(dp1583
S'NamedEntityTag'
p1584
g83
sS'CharacterOffsetEnd'
p1585
S'147'
p1586
sS'Lemma'
p1587
S'sign'
p1588
sS'PartOfSpeech'
p1589
S'NN'
p1590
sS'CharacterOffsetBegin'
p1591
S'143'
p1592
stp1593
a(S'yet'
p1594
(dp1595
S'NamedEntityTag'
p1596
g83
sS'CharacterOffsetEnd'
p1597
S'151'
p1598
sS'Lemma'
p1599
S'yet'
p1600
sS'PartOfSpeech'
p1601
S'RB'
p1602
sS'CharacterOffsetBegin'
p1603
S'148'
p1604
stp1605
a(S'Chinese'
p1606
(dp1607
S'NamedEntityTag'
p1608
S'MISC'
p1609
sS'CharacterOffsetEnd'
p1610
S'159'
p1611
sS'Lemma'
p1612
S'chinese'
p1613
sS'PartOfSpeech'
p1614
S'JJ'
p1615
sS'CharacterOffsetBegin'
p1616
S'152'
p1617
stp1618
a(S'leaders'
p1619
(dp1620
S'NamedEntityTag'
p1621
g83
sS'CharacterOffsetEnd'
p1622
S'167'
p1623
sS'Lemma'
p1624
S'leader'
p1625
sS'PartOfSpeech'
p1626
S'NNS'
p1627
sS'CharacterOffsetBegin'
p1628
S'160'
p1629
stp1630
a(S'plan'
p1631
(dp1632
S'NamedEntityTag'
p1633
g83
sS'CharacterOffsetEnd'
p1634
S'172'
p1635
sS'Lemma'
p1636
S'plan'
p1637
sS'PartOfSpeech'
p1638
S'VBP'
p1639
sS'CharacterOffsetBegin'
p1640
S'168'
p1641
stp1642
a(S'to'
p1643
(dp1644
S'NamedEntityTag'
p1645
g83
sS'CharacterOffsetEnd'
p1646
S'175'
p1647
sS'Lemma'
p1648
S'to'
p1649
sS'PartOfSpeech'
p1650
S'TO'
p1651
sS'CharacterOffsetBegin'
p1652
S'173'
p1653
stp1654
a(S'quash'
p1655
(dp1656
S'NamedEntityTag'
p1657
g83
sS'CharacterOffsetEnd'
p1658
S'181'
p1659
sS'Lemma'
p1660
S'quash'
p1661
sS'PartOfSpeech'
p1662
S'VB'
p1663
sS'CharacterOffsetBegin'
p1664
S'176'
p1665
stp1666
a(g1222
(dp1667
S'NamedEntityTag'
p1668
g83
sS'CharacterOffsetEnd'
p1669
S'183'
p1670
sS'Lemma'
p1671
g1222
sS'PartOfSpeech'
p1672
S'DT'
p1673
sS'CharacterOffsetBegin'
p1674
S'182'
p1675
stp1676
a(S'would-be'
p1677
(dp1678
S'NamedEntityTag'
p1679
g83
sS'CharacterOffsetEnd'
p1680
S'192'
p1681
sS'Lemma'
p1682
S'would-be'
p1683
sS'PartOfSpeech'
p1684
S'JJ'
p1685
sS'CharacterOffsetBegin'
p1686
S'184'
p1687
stp1688
a(S'opposition'
p1689
(dp1690
S'NamedEntityTag'
p1691
g83
sS'CharacterOffsetEnd'
p1692
S'203'
p1693
sS'Lemma'
p1694
S'opposition'
p1695
sS'PartOfSpeech'
p1696
S'NN'
p1697
sS'CharacterOffsetBegin'
p1698
S'193'
p1699
stp1700
a(S'party'
p1701
(dp1702
S'NamedEntityTag'
p1703
g83
sS'CharacterOffsetEnd'
p1704
S'209'
p1705
sS'Lemma'
p1706
S'party'
p1707
sS'PartOfSpeech'
p1708
S'NN'
p1709
sS'CharacterOffsetBegin'
p1710
S'204'
p1711
stp1712
a(S'.'
p1713
(dp1714
S'NamedEntityTag'
p1715
g83
sS'CharacterOffsetEnd'
p1716
S'210'
p1717
sS'Lemma'
p1718
g1713
sS'PartOfSpeech'
p1719
g1713
sS'CharacterOffsetBegin'
p1720
S'209'
p1721
stp1722
asa(dp1723
g7
S'(ROOT (S (NP (NNP Foreign) (NNP Ministry) (NN spokesman) (NNP Zhu) (NNP Bangzao)) (VP (VBD refused) (S (VP (TO to) (VP (VB specify) (SBAR (SBAR (WHNP (WP what)) (S (NP (NNS laws)) (VP (VBD were) (VP (VBN broken))))) (CC or) (SBAR (WHADVP (WRB how)) (S (NP (NP (NNP Xu) (NNP Wenli)) (CC and) (NP (NNP Qin) (NNP Yongmin))) (VP (VBD endangered) (NP (DT the) (NN state)))))))))) (. .)))'
p1724
sg9
S'Foreign Ministry spokesman Zhu Bangzao refused to specify what laws were broken or how Xu Wenli and Qin Yongmin endangered the state.'
p1725
sg11
(lp1726
(S'root'
p1727
S'ROOT'
p1728
S'refused'
p1729
tp1730
a(S'nn'
p1731
S'Bangzao'
p1732
S'Foreign'
p1733
tp1734
a(S'nn'
p1735
S'Bangzao'
p1736
S'Ministry'
p1737
tp1738
a(S'nn'
p1739
S'Bangzao'
p1740
S'spokesman'
p1741
tp1742
a(S'nn'
p1743
S'Bangzao'
p1744
S'Zhu'
p1745
tp1746
a(S'nsubj'
p1747
S'refused'
p1748
S'Bangzao'
p1749
tp1750
a(S'aux'
p1751
S'specify'
p1752
S'to'
p1753
tp1754
a(S'xcomp'
p1755
S'refused'
p1756
S'specify'
p1757
tp1758
a(S'dobj'
p1759
S'broken'
p1760
S'what'
p1761
tp1762
a(S'nsubjpass'
p1763
S'broken'
p1764
S'laws'
p1765
tp1766
a(S'auxpass'
p1767
S'broken'
p1768
S'were'
p1769
tp1770
a(S'dep'
p1771
S'specify'
p1772
S'broken'
p1773
tp1774
a(S'advmod'
p1775
S'endangered'
p1776
S'how'
p1777
tp1778
a(S'nn'
p1779
S'Wenli'
p1780
S'Xu'
p1781
tp1782
a(S'nsubj'
p1783
S'endangered'
p1784
S'Wenli'
p1785
tp1786
a(S'nn'
p1787
S'Yongmin'
p1788
S'Qin'
p1789
tp1790
a(S'conj_and'
p1791
S'Wenli'
p1792
S'Yongmin'
p1793
tp1794
a(S'conj_or'
p1795
S'broken'
p1796
S'endangered'
p1797
tp1798
a(S'det'
p1799
S'state'
p1800
S'the'
p1801
tp1802
a(S'dobj'
p1803
S'endangered'
p1804
S'state'
p1805
tp1806
asg49
(lp1807
(g1727
S'ROOT-0'
p1808
S'refused-6'
p1809
tp1810
a(g1731
S'Bangzao-5'
p1811
S'Foreign-1'
p1812
tp1813
a(g1735
S'Bangzao-5'
p1814
S'Ministry-2'
p1815
tp1816
a(g1739
S'Bangzao-5'
p1817
S'spokesman-3'
p1818
tp1819
a(g1743
S'Bangzao-5'
p1820
S'Zhu-4'
p1821
tp1822
a(g1747
S'refused-6'
p1823
S'Bangzao-5'
p1824
tp1825
a(g1751
S'specify-8'
p1826
S'to-7'
p1827
tp1828
a(g1755
S'refused-6'
p1829
S'specify-8'
p1830
tp1831
a(g1759
S'broken-12'
p1832
S'what-9'
p1833
tp1834
a(g1763
S'broken-12'
p1835
S'laws-10'
p1836
tp1837
a(g1767
S'broken-12'
p1838
S'were-11'
p1839
tp1840
a(g1771
S'specify-8'
p1841
S'broken-12'
p1842
tp1843
a(g1775
S'endangered-20'
p1844
S'how-14'
p1845
tp1846
a(g1779
S'Wenli-16'
p1847
S'Xu-15'
p1848
tp1849
a(g1783
S'endangered-20'
p1850
S'Wenli-16'
p1851
tp1852
a(g1787
S'Yongmin-19'
p1853
S'Qin-18'
p1854
tp1855
a(g1791
S'Wenli-16'
p1856
S'Yongmin-19'
p1857
tp1858
a(g1795
S'broken-12'
p1859
S'endangered-20'
p1860
tp1861
a(g1799
S'state-22'
p1862
S'the-21'
p1863
tp1864
a(g1803
S'endangered-20'
p1865
S'state-22'
p1866
tp1867
asg78
(lp1868
(S'Foreign'
p1869
(dp1870
S'NamedEntityTag'
p1871
S'ORGANIZATION'
p1872
sS'CharacterOffsetEnd'
p1873
S'218'
p1874
sS'Lemma'
p1875
S'Foreign'
p1876
sS'PartOfSpeech'
p1877
S'NNP'
p1878
sS'CharacterOffsetBegin'
p1879
S'211'
p1880
stp1881
a(S'Ministry'
p1882
(dp1883
S'NamedEntityTag'
p1884
S'ORGANIZATION'
p1885
sS'CharacterOffsetEnd'
p1886
S'227'
p1887
sS'Lemma'
p1888
S'Ministry'
p1889
sS'PartOfSpeech'
p1890
S'NNP'
p1891
sS'CharacterOffsetBegin'
p1892
S'219'
p1893
stp1894
a(S'spokesman'
p1895
(dp1896
S'NamedEntityTag'
p1897
g83
sS'CharacterOffsetEnd'
p1898
S'237'
p1899
sS'Lemma'
p1900
S'spokesman'
p1901
sS'PartOfSpeech'
p1902
S'NN'
p1903
sS'CharacterOffsetBegin'
p1904
S'228'
p1905
stp1906
a(S'Zhu'
p1907
(dp1908
S'NamedEntityTag'
p1909
S'PERSON'
p1910
sS'CharacterOffsetEnd'
p1911
S'241'
p1912
sS'Lemma'
p1913
S'Zhu'
p1914
sS'PartOfSpeech'
p1915
S'NNP'
p1916
sS'CharacterOffsetBegin'
p1917
S'238'
p1918
stp1919
a(S'Bangzao'
p1920
(dp1921
S'NamedEntityTag'
p1922
S'PERSON'
p1923
sS'CharacterOffsetEnd'
p1924
S'249'
p1925
sS'Lemma'
p1926
S'Bangzao'
p1927
sS'PartOfSpeech'
p1928
S'NNP'
p1929
sS'CharacterOffsetBegin'
p1930
S'242'
p1931
stp1932
a(S'refused'
p1933
(dp1934
S'NamedEntityTag'
p1935
g83
sS'CharacterOffsetEnd'
p1936
S'257'
p1937
sS'Lemma'
p1938
S'refuse'
p1939
sS'PartOfSpeech'
p1940
S'VBD'
p1941
sS'CharacterOffsetBegin'
p1942
S'250'
p1943
stp1944
a(S'to'
p1945
(dp1946
S'NamedEntityTag'
p1947
g83
sS'CharacterOffsetEnd'
p1948
S'260'
p1949
sS'Lemma'
p1950
S'to'
p1951
sS'PartOfSpeech'
p1952
S'TO'
p1953
sS'CharacterOffsetBegin'
p1954
S'258'
p1955
stp1956
a(S'specify'
p1957
(dp1958
S'NamedEntityTag'
p1959
g83
sS'CharacterOffsetEnd'
p1960
S'268'
p1961
sS'Lemma'
p1962
S'specify'
p1963
sS'PartOfSpeech'
p1964
S'VB'
p1965
sS'CharacterOffsetBegin'
p1966
S'261'
p1967
stp1968
a(S'what'
p1969
(dp1970
S'NamedEntityTag'
p1971
g83
sS'CharacterOffsetEnd'
p1972
S'273'
p1973
sS'Lemma'
p1974
S'what'
p1975
sS'PartOfSpeech'
p1976
S'WP'
p1977
sS'CharacterOffsetBegin'
p1978
S'269'
p1979
stp1980
a(S'laws'
p1981
(dp1982
S'NamedEntityTag'
p1983
g83
sS'CharacterOffsetEnd'
p1984
S'278'
p1985
sS'Lemma'
p1986
S'law'
p1987
sS'PartOfSpeech'
p1988
S'NNS'
p1989
sS'CharacterOffsetBegin'
p1990
S'274'
p1991
stp1992
a(S'were'
p1993
(dp1994
S'NamedEntityTag'
p1995
g83
sS'CharacterOffsetEnd'
p1996
S'283'
p1997
sS'Lemma'
p1998
S'be'
p1999
sS'PartOfSpeech'
p2000
S'VBD'
p2001
sS'CharacterOffsetBegin'
p2002
S'279'
p2003
stp2004
a(S'broken'
p2005
(dp2006
S'NamedEntityTag'
p2007
g83
sS'CharacterOffsetEnd'
p2008
S'290'
p2009
sS'Lemma'
p2010
S'break'
p2011
sS'PartOfSpeech'
p2012
S'VBN'
p2013
sS'CharacterOffsetBegin'
p2014
S'284'
p2015
stp2016
a(S'or'
p2017
(dp2018
S'NamedEntityTag'
p2019
g83
sS'CharacterOffsetEnd'
p2020
S'293'
p2021
sS'Lemma'
p2022
S'or'
p2023
sS'PartOfSpeech'
p2024
S'CC'
p2025
sS'CharacterOffsetBegin'
p2026
S'291'
p2027
stp2028
a(S'how'
p2029
(dp2030
S'NamedEntityTag'
p2031
g83
sS'CharacterOffsetEnd'
p2032
S'297'
p2033
sS'Lemma'
p2034
S'how'
p2035
sS'PartOfSpeech'
p2036
S'WRB'
p2037
sS'CharacterOffsetBegin'
p2038
S'294'
p2039
stp2040
a(S'Xu'
p2041
(dp2042
S'NamedEntityTag'
p2043
S'PERSON'
p2044
sS'CharacterOffsetEnd'
p2045
S'300'
p2046
sS'Lemma'
p2047
S'Xu'
p2048
sS'PartOfSpeech'
p2049
S'NNP'
p2050
sS'CharacterOffsetBegin'
p2051
S'298'
p2052
stp2053
a(S'Wenli'
p2054
(dp2055
S'NamedEntityTag'
p2056
S'PERSON'
p2057
sS'CharacterOffsetEnd'
p2058
S'306'
p2059
sS'Lemma'
p2060
S'Wenli'
p2061
sS'PartOfSpeech'
p2062
S'NNP'
p2063
sS'CharacterOffsetBegin'
p2064
S'301'
p2065
stp2066
a(S'and'
p2067
(dp2068
S'NamedEntityTag'
p2069
g83
sS'CharacterOffsetEnd'
p2070
S'310'
p2071
sS'Lemma'
p2072
S'and'
p2073
sS'PartOfSpeech'
p2074
S'CC'
p2075
sS'CharacterOffsetBegin'
p2076
S'307'
p2077
stp2078
a(S'Qin'
p2079
(dp2080
S'NamedEntityTag'
p2081
S'PERSON'
p2082
sS'CharacterOffsetEnd'
p2083
S'314'
p2084
sS'Lemma'
p2085
S'Qin'
p2086
sS'PartOfSpeech'
p2087
S'NNP'
p2088
sS'CharacterOffsetBegin'
p2089
S'311'
p2090
stp2091
a(S'Yongmin'
p2092
(dp2093
S'NamedEntityTag'
p2094
S'PERSON'
p2095
sS'CharacterOffsetEnd'
p2096
S'322'
p2097
sS'Lemma'
p2098
S'Yongmin'
p2099
sS'PartOfSpeech'
p2100
S'NNP'
p2101
sS'CharacterOffsetBegin'
p2102
S'315'
p2103
stp2104
a(S'endangered'
p2105
(dp2106
S'NamedEntityTag'
p2107
g83
sS'CharacterOffsetEnd'
p2108
S'333'
p2109
sS'Lemma'
p2110
S'endanger'
p2111
sS'PartOfSpeech'
p2112
S'VBD'
p2113
sS'CharacterOffsetBegin'
p2114
S'323'
p2115
stp2116
a(S'the'
p2117
(dp2118
S'NamedEntityTag'
p2119
g83
sS'CharacterOffsetEnd'
p2120
S'337'
p2121
sS'Lemma'
p2122
S'the'
p2123
sS'PartOfSpeech'
p2124
S'DT'
p2125
sS'CharacterOffsetBegin'
p2126
S'334'
p2127
stp2128
a(S'state'
p2129
(dp2130
S'NamedEntityTag'
p2131
g83
sS'CharacterOffsetEnd'
p2132
S'343'
p2133
sS'Lemma'
p2134
S'state'
p2135
sS'PartOfSpeech'
p2136
S'NN'
p2137
sS'CharacterOffsetBegin'
p2138
S'338'
p2139
stp2140
a(g1713
(dp2141
S'NamedEntityTag'
p2142
g83
sS'CharacterOffsetEnd'
p2143
S'344'
p2144
sS'Lemma'
p2145
g1713
sS'PartOfSpeech'
p2146
g1713
sS'CharacterOffsetBegin'
p2147
S'343'
p2148
stp2149
asa(dp2150
g7
S'(ROOT (S (NP (NP (DT A) (JJ third) (VBG leading) (NN advocate)) (PP (IN of) (NP (NP (DT the) (NNP China) (NNP Democracy) (NNP Party)) (SBAR (WHNP (WP who)) (S (VP (VBZ has) (VP (VBN been) (PP (IN in) (NP (NN custody))) (PP (IN for) (NP (NP (DT a) (NN month)) (, ,) (NP (NNP Wang) (NNP Youcai)) (, ,)))))))))) (VP (VBD was) (VP (VBN accused) (PP (IN of) (S (VP (VBG inciting) (S (NP (DT the)) (VP (VB overthrow) (PP (IN of) (NP (NP (DT the) (NN government)) (, ,) (NP (NP (DT the) (ADVP (NNP Hong) (JJ Kong-based)) (NN Information)) (SBAR (S (NP (NP (NNP Center)) (PP (IN of) (NP (NP (NP (NNP Human) (NNPS Rights)) (CC and) (NP (JJ Democratic) (NNP Movement))) (PP (IN in) (NP (NNP China)))))) (VP (VBD reported)))))))))))))) (. .)))'
p2151
sg9
S'A third leading advocate of the China Democracy Party who has been in custody for a month, Wang Youcai, was accused of inciting the overthrow of the government, the Hong Kong-based Information Center of Human Rights and Democratic Movement in China reported.'
p2152
sg11
(lp2153
(S'root'
p2154
S'ROOT'
p2155
S'accused'
p2156
tp2157
a(S'det'
p2158
S'advocate'
p2159
S'A'
p2160
tp2161
a(S'amod'
p2162
S'advocate'
p2163
S'third'
p2164
tp2165
a(S'amod'
p2166
S'advocate'
p2167
S'leading'
p2168
tp2169
a(S'nsubjpass'
p2170
S'accused'
p2171
S'advocate'
p2172
tp2173
a(S'det'
p2174
S'Party'
p2175
S'the'
p2176
tp2177
a(S'nn'
p2178
S'Party'
p2179
S'China'
p2180
tp2181
a(S'nn'
p2182
S'Party'
p2183
S'Democracy'
p2184
tp2185
a(S'prep_of'
p2186
S'advocate'
p2187
S'Party'
p2188
tp2189
a(S'nsubj'
p2190
S'been'
p2191
S'who'
p2192
tp2193
a(S'aux'
p2194
S'been'
p2195
S'has'
p2196
tp2197
a(S'rcmod'
p2198
S'Party'
p2199
S'been'
p2200
tp2201
a(S'prep_in'
p2202
S'been'
p2203
S'custody'
p2204
tp2205
a(S'det'
p2206
S'month'
p2207
g1222
tp2208
a(S'prep_for'
p2209
S'been'
p2210
S'month'
p2211
tp2212
a(S'nn'
p2213
S'Youcai'
p2214
S'Wang'
p2215
tp2216
a(S'appos'
p2217
S'month'
p2218
S'Youcai'
p2219
tp2220
a(S'auxpass'
p2221
S'accused'
p2222
S'was'
p2223
tp2224
a(S'prepc_of'
p2225
S'accused'
p2226
S'inciting'
p2227
tp2228
a(S'nsubj'
p2229
S'overthrow'
p2230
S'the'
p2231
tp2232
a(S'ccomp'
p2233
S'inciting'
p2234
S'overthrow'
p2235
tp2236
a(S'det'
p2237
S'government'
p2238
S'the'
p2239
tp2240
a(S'prep_of'
p2241
S'overthrow'
p2242
S'government'
p2243
tp2244
a(S'det'
p2245
S'Information'
p2246
S'the'
p2247
tp2248
a(S'dep'
p2249
S'Kong-based'
p2250
S'Hong'
p2251
tp2252
a(S'advmod'
p2253
S'Information'
p2254
S'Kong-based'
p2255
tp2256
a(S'appos'
p2257
S'government'
p2258
S'Information'
p2259
tp2260
a(S'nsubj'
p2261
S'reported'
p2262
S'Center'
p2263
tp2264
a(S'nn'
p2265
S'Rights'
p2266
S'Human'
p2267
tp2268
a(S'prep_of'
p2269
S'Center'
p2270
S'Rights'
p2271
tp2272
a(S'amod'
p2273
S'Movement'
p2274
S'Democratic'
p2275
tp2276
a(S'conj_and'
p2277
S'Rights'
p2278
S'Movement'
p2279
tp2280
a(S'prep_in'
p2281
S'Rights'
p2282
S'China'
p2283
tp2284
a(S'rcmod'
p2285
S'Information'
p2286
S'reported'
p2287
tp2288
asg49
(lp2289
(g2154
S'ROOT-0'
p2290
S'accused-23'
p2291
tp2292
a(g2158
S'advocate-4'
p2293
S'A-1'
p2294
tp2295
a(g2162
S'advocate-4'
p2296
S'third-2'
p2297
tp2298
a(g2166
S'advocate-4'
p2299
S'leading-3'
p2300
tp2301
a(g2170
S'accused-23'
p2302
S'advocate-4'
p2303
tp2304
a(g2174
S'Party-9'
p2305
S'the-6'
p2306
tp2307
a(g2178
S'Party-9'
p2308
S'China-7'
p2309
tp2310
a(g2182
S'Party-9'
p2311
S'Democracy-8'
p2312
tp2313
a(g2186
S'advocate-4'
p2314
S'Party-9'
p2315
tp2316
a(g2190
S'been-12'
p2317
S'who-10'
p2318
tp2319
a(g2194
S'been-12'
p2320
S'has-11'
p2321
tp2322
a(g2198
S'Party-9'
p2323
S'been-12'
p2324
tp2325
a(g2202
S'been-12'
p2326
S'custody-14'
p2327
tp2328
a(g2206
S'month-17'
p2329
S'a-16'
p2330
tp2331
a(g2209
S'been-12'
p2332
S'month-17'
p2333
tp2334
a(g2213
S'Youcai-20'
p2335
S'Wang-19'
p2336
tp2337
a(g2217
S'month-17'
p2338
S'Youcai-20'
p2339
tp2340
a(g2221
S'accused-23'
p2341
S'was-22'
p2342
tp2343
a(g2225
S'accused-23'
p2344
S'inciting-25'
p2345
tp2346
a(g2229
S'overthrow-27'
p2347
S'the-26'
p2348
tp2349
a(g2233
S'inciting-25'
p2350
S'overthrow-27'
p2351
tp2352
a(g2237
S'government-30'
p2353
S'the-29'
p2354
tp2355
a(g2241
S'overthrow-27'
p2356
S'government-30'
p2357
tp2358
a(g2245
S'Information-35'
p2359
S'the-32'
p2360
tp2361
a(g2249
S'Kong-based-34'
p2362
S'Hong-33'
p2363
tp2364
a(g2253
S'Information-35'
p2365
S'Kong-based-34'
p2366
tp2367
a(g2257
S'government-30'
p2368
S'Information-35'
p2369
tp2370
a(g2261
S'reported-45'
p2371
S'Center-36'
p2372
tp2373
a(g2265
S'Rights-39'
p2374
S'Human-38'
p2375
tp2376
a(g2269
S'Center-36'
p2377
S'Rights-39'
p2378
tp2379
a(g2273
S'Movement-42'
p2380
S'Democratic-41'
p2381
tp2382
a(g2277
S'Rights-39'
p2383
S'Movement-42'
p2384
tp2385
a(g2281
S'Rights-39'
p2386
S'China-44'
p2387
tp2388
a(g2285
S'Information-35'
p2389
S'reported-45'
p2390
tp2391
asg78
(lp2392
(g2160
(dp2393
S'NamedEntityTag'
p2394
g83
sS'CharacterOffsetEnd'
p2395
S'346'
p2396
sS'Lemma'
p2397
g1222
sS'PartOfSpeech'
p2398
S'DT'
p2399
sS'CharacterOffsetBegin'
p2400
S'345'
p2401
stp2402
a(S'third'
p2403
(dp2404
S'NormalizedNamedEntityTag'
p2405
S'3.0'
p2406
sS'Lemma'
p2407
S'third'
p2408
sS'CharacterOffsetEnd'
p2409
S'352'
p2410
sS'PartOfSpeech'
p2411
S'JJ'
p2412
sS'CharacterOffsetBegin'
p2413
S'347'
p2414
sS'NamedEntityTag'
p2415
S'ORDINAL'
p2416
stp2417
a(S'leading'
p2418
(dp2419
S'NamedEntityTag'
p2420
g83
sS'CharacterOffsetEnd'
p2421
S'360'
p2422
sS'Lemma'
p2423
S'lead'
p2424
sS'PartOfSpeech'
p2425
S'VBG'
p2426
sS'CharacterOffsetBegin'
p2427
S'353'
p2428
stp2429
a(S'advocate'
p2430
(dp2431
S'NamedEntityTag'
p2432
g83
sS'CharacterOffsetEnd'
p2433
S'369'
p2434
sS'Lemma'
p2435
S'advocate'
p2436
sS'PartOfSpeech'
p2437
S'NN'
p2438
sS'CharacterOffsetBegin'
p2439
S'361'
p2440
stp2441
a(S'of'
p2442
(dp2443
S'NamedEntityTag'
p2444
g83
sS'CharacterOffsetEnd'
p2445
S'372'
p2446
sS'Lemma'
p2447
S'of'
p2448
sS'PartOfSpeech'
p2449
S'IN'
p2450
sS'CharacterOffsetBegin'
p2451
S'370'
p2452
stp2453
a(S'the'
p2454
(dp2455
S'NamedEntityTag'
p2456
g83
sS'CharacterOffsetEnd'
p2457
S'376'
p2458
sS'Lemma'
p2459
S'the'
p2460
sS'PartOfSpeech'
p2461
S'DT'
p2462
sS'CharacterOffsetBegin'
p2463
S'373'
p2464
stp2465
a(S'China'
p2466
(dp2467
S'NamedEntityTag'
p2468
S'ORGANIZATION'
p2469
sS'CharacterOffsetEnd'
p2470
S'382'
p2471
sS'Lemma'
p2472
S'China'
p2473
sS'PartOfSpeech'
p2474
S'NNP'
p2475
sS'CharacterOffsetBegin'
p2476
S'377'
p2477
stp2478
a(S'Democracy'
p2479
(dp2480
S'NamedEntityTag'
p2481
S'ORGANIZATION'
p2482
sS'CharacterOffsetEnd'
p2483
S'392'
p2484
sS'Lemma'
p2485
S'Democracy'
p2486
sS'PartOfSpeech'
p2487
S'NNP'
p2488
sS'CharacterOffsetBegin'
p2489
S'383'
p2490
stp2491
a(S'Party'
p2492
(dp2493
S'NamedEntityTag'
p2494
S'ORGANIZATION'
p2495
sS'CharacterOffsetEnd'
p2496
S'398'
p2497
sS'Lemma'
p2498
S'Party'
p2499
sS'PartOfSpeech'
p2500
S'NNP'
p2501
sS'CharacterOffsetBegin'
p2502
S'393'
p2503
stp2504
a(S'who'
p2505
(dp2506
S'NamedEntityTag'
p2507
g83
sS'CharacterOffsetEnd'
p2508
S'402'
p2509
sS'Lemma'
p2510
S'who'
p2511
sS'PartOfSpeech'
p2512
S'WP'
p2513
sS'CharacterOffsetBegin'
p2514
S'399'
p2515
stp2516
a(S'has'
p2517
(dp2518
S'NamedEntityTag'
p2519
g83
sS'CharacterOffsetEnd'
p2520
S'406'
p2521
sS'Lemma'
p2522
S'have'
p2523
sS'PartOfSpeech'
p2524
S'VBZ'
p2525
sS'CharacterOffsetBegin'
p2526
S'403'
p2527
stp2528
a(S'been'
p2529
(dp2530
S'NamedEntityTag'
p2531
g83
sS'CharacterOffsetEnd'
p2532
S'411'
p2533
sS'Lemma'
p2534
S'be'
p2535
sS'PartOfSpeech'
p2536
S'VBN'
p2537
sS'CharacterOffsetBegin'
p2538
S'407'
p2539
stp2540
a(S'in'
p2541
(dp2542
S'NamedEntityTag'
p2543
g83
sS'CharacterOffsetEnd'
p2544
S'414'
p2545
sS'Lemma'
p2546
S'in'
p2547
sS'PartOfSpeech'
p2548
S'IN'
p2549
sS'CharacterOffsetBegin'
p2550
S'412'
p2551
stp2552
a(S'custody'
p2553
(dp2554
S'NamedEntityTag'
p2555
g83
sS'CharacterOffsetEnd'
p2556
S'422'
p2557
sS'Lemma'
p2558
S'custody'
p2559
sS'PartOfSpeech'
p2560
S'NN'
p2561
sS'CharacterOffsetBegin'
p2562
S'415'
p2563
stp2564
a(S'for'
p2565
(dp2566
S'NamedEntityTag'
p2567
g83
sS'CharacterOffsetEnd'
p2568
S'426'
p2569
sS'Lemma'
p2570
S'for'
p2571
sS'PartOfSpeech'
p2572
S'IN'
p2573
sS'CharacterOffsetBegin'
p2574
S'423'
p2575
stp2576
a(g1222
(dp2577
S'NormalizedNamedEntityTag'
p2578
S'P1M'
p2579
sS'Timex'
p2580
S'<TIMEX3 tid="t3" type="DURATION" value="P1M">a month</TIMEX3>'
p2581
sS'Lemma'
p2582
g1222
sS'CharacterOffsetEnd'
p2583
S'428'
p2584
sS'PartOfSpeech'
p2585
S'DT'
p2586
sS'CharacterOffsetBegin'
p2587
S'427'
p2588
sS'NamedEntityTag'
p2589
S'DURATION'
p2590
stp2591
a(S'month'
p2592
(dp2593
S'NormalizedNamedEntityTag'
p2594
S'P1M'
p2595
sS'Timex'
p2596
S'<TIMEX3 tid="t3" type="DURATION" value="P1M">a month</TIMEX3>'
p2597
sS'Lemma'
p2598
S'month'
p2599
sS'CharacterOffsetEnd'
p2600
S'434'
p2601
sS'PartOfSpeech'
p2602
S'NN'
p2603
sS'CharacterOffsetBegin'
p2604
S'429'
p2605
sS'NamedEntityTag'
p2606
S'DURATION'
p2607
stp2608
a(g329
(dp2609
S'NamedEntityTag'
p2610
g83
sS'CharacterOffsetEnd'
p2611
S'435'
p2612
sS'Lemma'
p2613
g329
sS'PartOfSpeech'
p2614
g329
sS'CharacterOffsetBegin'
p2615
S'434'
p2616
stp2617
a(S'Wang'
p2618
(dp2619
S'NamedEntityTag'
p2620
S'PERSON'
p2621
sS'CharacterOffsetEnd'
p2622
S'440'
p2623
sS'Lemma'
p2624
S'Wang'
p2625
sS'PartOfSpeech'
p2626
S'NNP'
p2627
sS'CharacterOffsetBegin'
p2628
S'436'
p2629
stp2630
a(S'Youcai'
p2631
(dp2632
S'NamedEntityTag'
p2633
S'PERSON'
p2634
sS'CharacterOffsetEnd'
p2635
S'447'
p2636
sS'Lemma'
p2637
S'Youcai'
p2638
sS'PartOfSpeech'
p2639
S'NNP'
p2640
sS'CharacterOffsetBegin'
p2641
S'441'
p2642
stp2643
a(g329
(dp2644
S'NamedEntityTag'
p2645
g83
sS'CharacterOffsetEnd'
p2646
S'448'
p2647
sS'Lemma'
p2648
g329
sS'PartOfSpeech'
p2649
g329
sS'CharacterOffsetBegin'
p2650
S'447'
p2651
stp2652
a(S'was'
p2653
(dp2654
S'NamedEntityTag'
p2655
g83
sS'CharacterOffsetEnd'
p2656
S'452'
p2657
sS'Lemma'
p2658
S'be'
p2659
sS'PartOfSpeech'
p2660
S'VBD'
p2661
sS'CharacterOffsetBegin'
p2662
S'449'
p2663
stp2664
a(S'accused'
p2665
(dp2666
S'NamedEntityTag'
p2667
g83
sS'CharacterOffsetEnd'
p2668
S'460'
p2669
sS'Lemma'
p2670
S'accuse'
p2671
sS'PartOfSpeech'
p2672
S'VBN'
p2673
sS'CharacterOffsetBegin'
p2674
S'453'
p2675
stp2676
a(S'of'
p2677
(dp2678
S'NamedEntityTag'
p2679
g83
sS'CharacterOffsetEnd'
p2680
S'463'
p2681
sS'Lemma'
p2682
S'of'
p2683
sS'PartOfSpeech'
p2684
S'IN'
p2685
sS'CharacterOffsetBegin'
p2686
S'461'
p2687
stp2688
a(S'inciting'
p2689
(dp2690
S'NamedEntityTag'
p2691
g83
sS'CharacterOffsetEnd'
p2692
S'472'
p2693
sS'Lemma'
p2694
S'incite'
p2695
sS'PartOfSpeech'
p2696
S'VBG'
p2697
sS'CharacterOffsetBegin'
p2698
S'464'
p2699
stp2700
a(S'the'
p2701
(dp2702
S'NamedEntityTag'
p2703
g83
sS'CharacterOffsetEnd'
p2704
S'476'
p2705
sS'Lemma'
p2706
S'the'
p2707
sS'PartOfSpeech'
p2708
S'DT'
p2709
sS'CharacterOffsetBegin'
p2710
S'473'
p2711
stp2712
a(S'overthrow'
p2713
(dp2714
S'NamedEntityTag'
p2715
g83
sS'CharacterOffsetEnd'
p2716
S'486'
p2717
sS'Lemma'
p2718
S'overthrow'
p2719
sS'PartOfSpeech'
p2720
S'VB'
p2721
sS'CharacterOffsetBegin'
p2722
S'477'
p2723
stp2724
a(S'of'
p2725
(dp2726
S'NamedEntityTag'
p2727
g83
sS'CharacterOffsetEnd'
p2728
S'489'
p2729
sS'Lemma'
p2730
S'of'
p2731
sS'PartOfSpeech'
p2732
S'IN'
p2733
sS'CharacterOffsetBegin'
p2734
S'487'
p2735
stp2736
a(S'the'
p2737
(dp2738
S'NamedEntityTag'
p2739
g83
sS'CharacterOffsetEnd'
p2740
S'493'
p2741
sS'Lemma'
p2742
S'the'
p2743
sS'PartOfSpeech'
p2744
S'DT'
p2745
sS'CharacterOffsetBegin'
p2746
S'490'
p2747
stp2748
a(S'government'
p2749
(dp2750
S'NamedEntityTag'
p2751
g83
sS'CharacterOffsetEnd'
p2752
S'504'
p2753
sS'Lemma'
p2754
S'government'
p2755
sS'PartOfSpeech'
p2756
S'NN'
p2757
sS'CharacterOffsetBegin'
p2758
S'494'
p2759
stp2760
a(g329
(dp2761
S'NamedEntityTag'
p2762
g83
sS'CharacterOffsetEnd'
p2763
S'505'
p2764
sS'Lemma'
p2765
g329
sS'PartOfSpeech'
p2766
g329
sS'CharacterOffsetBegin'
p2767
S'504'
p2768
stp2769
a(S'the'
p2770
(dp2771
S'NamedEntityTag'
p2772
g83
sS'CharacterOffsetEnd'
p2773
S'509'
p2774
sS'Lemma'
p2775
S'the'
p2776
sS'PartOfSpeech'
p2777
S'DT'
p2778
sS'CharacterOffsetBegin'
p2779
S'506'
p2780
stp2781
a(S'Hong'
p2782
(dp2783
S'NamedEntityTag'
p2784
S'ORGANIZATION'
p2785
sS'CharacterOffsetEnd'
p2786
S'514'
p2787
sS'Lemma'
p2788
S'Hong'
p2789
sS'PartOfSpeech'
p2790
S'NNP'
p2791
sS'CharacterOffsetBegin'
p2792
S'510'
p2793
stp2794
a(S'Kong-based'
p2795
(dp2796
S'NamedEntityTag'
p2797
S'ORGANIZATION'
p2798
sS'CharacterOffsetEnd'
p2799
S'525'
p2800
sS'Lemma'
p2801
S'kong-based'
p2802
sS'PartOfSpeech'
p2803
S'JJ'
p2804
sS'CharacterOffsetBegin'
p2805
S'515'
p2806
stp2807
a(S'Information'
p2808
(dp2809
S'NamedEntityTag'
p2810
S'ORGANIZATION'
p2811
sS'CharacterOffsetEnd'
p2812
S'537'
p2813
sS'Lemma'
p2814
S'information'
p2815
sS'PartOfSpeech'
p2816
S'NN'
p2817
sS'CharacterOffsetBegin'
p2818
S'526'
p2819
stp2820
a(S'Center'
p2821
(dp2822
S'NamedEntityTag'
p2823
S'ORGANIZATION'
p2824
sS'CharacterOffsetEnd'
p2825
S'544'
p2826
sS'Lemma'
p2827
S'Center'
p2828
sS'PartOfSpeech'
p2829
S'NNP'
p2830
sS'CharacterOffsetBegin'
p2831
S'538'
p2832
stp2833
a(S'of'
p2834
(dp2835
S'NamedEntityTag'
p2836
S'ORGANIZATION'
p2837
sS'CharacterOffsetEnd'
p2838
S'547'
p2839
sS'Lemma'
p2840
S'of'
p2841
sS'PartOfSpeech'
p2842
S'IN'
p2843
sS'CharacterOffsetBegin'
p2844
S'545'
p2845
stp2846
a(S'Human'
p2847
(dp2848
S'NamedEntityTag'
p2849
S'ORGANIZATION'
p2850
sS'CharacterOffsetEnd'
p2851
S'553'
p2852
sS'Lemma'
p2853
S'Human'
p2854
sS'PartOfSpeech'
p2855
S'NNP'
p2856
sS'CharacterOffsetBegin'
p2857
S'548'
p2858
stp2859
a(S'Rights'
p2860
(dp2861
S'NamedEntityTag'
p2862
S'ORGANIZATION'
p2863
sS'CharacterOffsetEnd'
p2864
S'560'
p2865
sS'Lemma'
p2866
S'Rights'
p2867
sS'PartOfSpeech'
p2868
S'NNPS'
p2869
sS'CharacterOffsetBegin'
p2870
S'554'
p2871
stp2872
a(S'and'
p2873
(dp2874
S'NamedEntityTag'
p2875
S'ORGANIZATION'
p2876
sS'CharacterOffsetEnd'
p2877
S'564'
p2878
sS'Lemma'
p2879
S'and'
p2880
sS'PartOfSpeech'
p2881
S'CC'
p2882
sS'CharacterOffsetBegin'
p2883
S'561'
p2884
stp2885
a(S'Democratic'
p2886
(dp2887
S'NamedEntityTag'
p2888
S'ORGANIZATION'
p2889
sS'CharacterOffsetEnd'
p2890
S'575'
p2891
sS'Lemma'
p2892
S'democratic'
p2893
sS'PartOfSpeech'
p2894
S'JJ'
p2895
sS'CharacterOffsetBegin'
p2896
S'565'
p2897
stp2898
a(S'Movement'
p2899
(dp2900
S'NamedEntityTag'
p2901
S'ORGANIZATION'
p2902
sS'CharacterOffsetEnd'
p2903
S'584'
p2904
sS'Lemma'
p2905
S'Movement'
p2906
sS'PartOfSpeech'
p2907
S'NNP'
p2908
sS'CharacterOffsetBegin'
p2909
S'576'
p2910
stp2911
a(S'in'
p2912
(dp2913
S'NamedEntityTag'
p2914
g83
sS'CharacterOffsetEnd'
p2915
S'587'
p2916
sS'Lemma'
p2917
S'in'
p2918
sS'PartOfSpeech'
p2919
S'IN'
p2920
sS'CharacterOffsetBegin'
p2921
S'585'
p2922
stp2923
a(S'China'
p2924
(dp2925
S'NamedEntityTag'
p2926
S'LOCATION'
p2927
sS'CharacterOffsetEnd'
p2928
S'593'
p2929
sS'Lemma'
p2930
S'China'
p2931
sS'PartOfSpeech'
p2932
S'NNP'
p2933
sS'CharacterOffsetBegin'
p2934
S'588'
p2935
stp2936
a(S'reported'
p2937
(dp2938
S'NamedEntityTag'
p2939
g83
sS'CharacterOffsetEnd'
p2940
S'602'
p2941
sS'Lemma'
p2942
S'report'
p2943
sS'PartOfSpeech'
p2944
S'VBD'
p2945
sS'CharacterOffsetBegin'
p2946
S'594'
p2947
stp2948
a(g1713
(dp2949
S'NamedEntityTag'
p2950
g83
sS'CharacterOffsetEnd'
p2951
S'603'
p2952
sS'Lemma'
p2953
g1713
sS'PartOfSpeech'
p2954
g1713
sS'CharacterOffsetBegin'
p2955
S'602'
p2956
stp2957
asa(dp2958
g7
S'(ROOT (S (NP (DT All) (CD three) (NNS men)) (VP (MD could) (VP (VB face) (PRT (RP up)) (PP (TO to) (NP (NP (NN life)) (PP (IN in) (NP (NN prison))))) (SBAR (IN if) (S (VP (VBN convicted) (PP (IN of) (NP (NP (DT the) (JJS harshest) (NNS measures)) (PP (IN under) (NP (NP (NNP Chinas)) (ADJP (JJ vague) (NN state)) (NN security) (NN law)))))))))) (. .)))'
p2959
sg9
S'All three men could face up to life in prison if convicted of the harshest measures under Chinas vague state security law.'
p2960
sg11
(lp2961
(S'root'
p2962
S'ROOT'
p2963
S'face'
p2964
tp2965
a(S'det'
p2966
S'men'
p2967
S'All'
p2968
tp2969
a(S'num'
p2970
S'men'
p2971
S'three'
p2972
tp2973
a(S'nsubj'
p2974
S'face'
p2975
S'men'
p2976
tp2977
a(S'aux'
p2978
S'face'
p2979
S'could'
p2980
tp2981
a(S'prt'
p2982
S'face'
p2983
S'up'
p2984
tp2985
a(S'prep_to'
p2986
S'face'
p2987
S'life'
p2988
tp2989
a(S'prep_in'
p2990
S'life'
p2991
S'prison'
p2992
tp2993
a(S'mark'
p2994
S'convicted'
p2995
S'if'
p2996
tp2997
a(S'advcl'
p2998
S'face'
p2999
S'convicted'
p3000
tp3001
a(S'det'
p3002
S'measures'
p3003
S'the'
p3004
tp3005
a(S'amod'
p3006
S'measures'
p3007
S'harshest'
p3008
tp3009
a(S'prep_of'
p3010
S'convicted'
p3011
S'measures'
p3012
tp3013
a(S'nn'
p3014
S'law'
p3015
S'Chinas'
p3016
tp3017
a(S'dep'
p3018
S'state'
p3019
S'vague'
p3020
tp3021
a(S'amod'
p3022
S'law'
p3023
S'state'
p3024
tp3025
a(S'nn'
p3026
S'law'
p3027
S'security'
p3028
tp3029
a(S'prep_under'
p3030
S'measures'
p3031
S'law'
p3032
tp3033
asg49
(lp3034
(g2962
S'ROOT-0'
p3035
S'face-5'
p3036
tp3037
a(g2966
S'men-3'
p3038
S'All-1'
p3039
tp3040
a(g2970
S'men-3'
p3041
S'three-2'
p3042
tp3043
a(g2974
S'face-5'
p3044
S'men-3'
p3045
tp3046
a(g2978
S'face-5'
p3047
S'could-4'
p3048
tp3049
a(g2982
S'face-5'
p3050
S'up-6'
p3051
tp3052
a(g2986
S'face-5'
p3053
S'life-8'
p3054
tp3055
a(g2990
S'life-8'
p3056
S'prison-10'
p3057
tp3058
a(g2994
S'convicted-12'
p3059
S'if-11'
p3060
tp3061
a(g2998
S'face-5'
p3062
S'convicted-12'
p3063
tp3064
a(g3002
S'measures-16'
p3065
S'the-14'
p3066
tp3067
a(g3006
S'measures-16'
p3068
S'harshest-15'
p3069
tp3070
a(g3010
S'convicted-12'
p3071
S'measures-16'
p3072
tp3073
a(g3014
S'law-22'
p3074
S'Chinas-18'
p3075
tp3076
a(g3018
S'state-20'
p3077
S'vague-19'
p3078
tp3079
a(g3022
S'law-22'
p3080
S'state-20'
p3081
tp3082
a(g3026
S'law-22'
p3083
S'security-21'
p3084
tp3085
a(g3030
S'measures-16'
p3086
S'law-22'
p3087
tp3088
asg78
(lp3089
(S'All'
p3090
(dp3091
S'NamedEntityTag'
p3092
g83
sS'CharacterOffsetEnd'
p3093
S'607'
p3094
sS'Lemma'
p3095
S'all'
p3096
sS'PartOfSpeech'
p3097
S'DT'
p3098
sS'CharacterOffsetBegin'
p3099
S'604'
p3100
stp3101
a(S'three'
p3102
(dp3103
S'NormalizedNamedEntityTag'
p3104
S'3.0'
p3105
sS'Lemma'
p3106
S'three'
p3107
sS'CharacterOffsetEnd'
p3108
S'613'
p3109
sS'PartOfSpeech'
p3110
S'CD'
p3111
sS'CharacterOffsetBegin'
p3112
S'608'
p3113
sS'NamedEntityTag'
p3114
S'NUMBER'
p3115
stp3116
a(S'men'
p3117
(dp3118
S'NamedEntityTag'
p3119
g83
sS'CharacterOffsetEnd'
p3120
S'617'
p3121
sS'Lemma'
p3122
S'man'
p3123
sS'PartOfSpeech'
p3124
S'NNS'
p3125
sS'CharacterOffsetBegin'
p3126
S'614'
p3127
stp3128
a(S'could'
p3129
(dp3130
S'NamedEntityTag'
p3131
g83
sS'CharacterOffsetEnd'
p3132
S'623'
p3133
sS'Lemma'
p3134
S'could'
p3135
sS'PartOfSpeech'
p3136
S'MD'
p3137
sS'CharacterOffsetBegin'
p3138
S'618'
p3139
stp3140
a(S'face'
p3141
(dp3142
S'NamedEntityTag'
p3143
g83
sS'CharacterOffsetEnd'
p3144
S'628'
p3145
sS'Lemma'
p3146
S'face'
p3147
sS'PartOfSpeech'
p3148
S'VB'
p3149
sS'CharacterOffsetBegin'
p3150
S'624'
p3151
stp3152
a(S'up'
p3153
(dp3154
S'NamedEntityTag'
p3155
g83
sS'CharacterOffsetEnd'
p3156
S'631'
p3157
sS'Lemma'
p3158
S'up'
p3159
sS'PartOfSpeech'
p3160
S'RP'
p3161
sS'CharacterOffsetBegin'
p3162
S'629'
p3163
stp3164
a(S'to'
p3165
(dp3166
S'NamedEntityTag'
p3167
g83
sS'CharacterOffsetEnd'
p3168
S'634'
p3169
sS'Lemma'
p3170
S'to'
p3171
sS'PartOfSpeech'
p3172
S'TO'
p3173
sS'CharacterOffsetBegin'
p3174
S'632'
p3175
stp3176
a(S'life'
p3177
(dp3178
S'NamedEntityTag'
p3179
g83
sS'CharacterOffsetEnd'
p3180
S'639'
p3181
sS'Lemma'
p3182
S'life'
p3183
sS'PartOfSpeech'
p3184
S'NN'
p3185
sS'CharacterOffsetBegin'
p3186
S'635'
p3187
stp3188
a(S'in'
p3189
(dp3190
S'NamedEntityTag'
p3191
g83
sS'CharacterOffsetEnd'
p3192
S'642'
p3193
sS'Lemma'
p3194
S'in'
p3195
sS'PartOfSpeech'
p3196
S'IN'
p3197
sS'CharacterOffsetBegin'
p3198
S'640'
p3199
stp3200
a(S'prison'
p3201
(dp3202
S'NamedEntityTag'
p3203
g83
sS'CharacterOffsetEnd'
p3204
S'649'
p3205
sS'Lemma'
p3206
S'prison'
p3207
sS'PartOfSpeech'
p3208
S'NN'
p3209
sS'CharacterOffsetBegin'
p3210
S'643'
p3211
stp3212
a(S'if'
p3213
(dp3214
S'NamedEntityTag'
p3215
g83
sS'CharacterOffsetEnd'
p3216
S'652'
p3217
sS'Lemma'
p3218
S'if'
p3219
sS'PartOfSpeech'
p3220
S'IN'
p3221
sS'CharacterOffsetBegin'
p3222
S'650'
p3223
stp3224
a(S'convicted'
p3225
(dp3226
S'NamedEntityTag'
p3227
g83
sS'CharacterOffsetEnd'
p3228
S'662'
p3229
sS'Lemma'
p3230
S'convict'
p3231
sS'PartOfSpeech'
p3232
S'VBN'
p3233
sS'CharacterOffsetBegin'
p3234
S'653'
p3235
stp3236
a(S'of'
p3237
(dp3238
S'NamedEntityTag'
p3239
g83
sS'CharacterOffsetEnd'
p3240
S'665'
p3241
sS'Lemma'
p3242
S'of'
p3243
sS'PartOfSpeech'
p3244
S'IN'
p3245
sS'CharacterOffsetBegin'
p3246
S'663'
p3247
stp3248
a(S'the'
p3249
(dp3250
S'NamedEntityTag'
p3251
g83
sS'CharacterOffsetEnd'
p3252
S'669'
p3253
sS'Lemma'
p3254
S'the'
p3255
sS'PartOfSpeech'
p3256
S'DT'
p3257
sS'CharacterOffsetBegin'
p3258
S'666'
p3259
stp3260
a(S'harshest'
p3261
(dp3262
S'NamedEntityTag'
p3263
g83
sS'CharacterOffsetEnd'
p3264
S'678'
p3265
sS'Lemma'
p3266
S'harshest'
p3267
sS'PartOfSpeech'
p3268
S'JJS'
p3269
sS'CharacterOffsetBegin'
p3270
S'670'
p3271
stp3272
a(S'measures'
p3273
(dp3274
S'NamedEntityTag'
p3275
g83
sS'CharacterOffsetEnd'
p3276
S'687'
p3277
sS'Lemma'
p3278
S'measure'
p3279
sS'PartOfSpeech'
p3280
S'NNS'
p3281
sS'CharacterOffsetBegin'
p3282
S'679'
p3283
stp3284
a(S'under'
p3285
(dp3286
S'NamedEntityTag'
p3287
g83
sS'CharacterOffsetEnd'
p3288
S'693'
p3289
sS'Lemma'
p3290
S'under'
p3291
sS'PartOfSpeech'
p3292
S'IN'
p3293
sS'CharacterOffsetBegin'
p3294
S'688'
p3295
stp3296
a(S'Chinas'
p3297
(dp3298
S'NamedEntityTag'
p3299
S'MISC'
p3300
sS'CharacterOffsetEnd'
p3301
S'700'
p3302
sS'Lemma'
p3303
S'Chinas'
p3304
sS'PartOfSpeech'
p3305
S'NNP'
p3306
sS'CharacterOffsetBegin'
p3307
S'694'
p3308
stp3309
a(S'vague'
p3310
(dp3311
S'NamedEntityTag'
p3312
g83
sS'CharacterOffsetEnd'
p3313
S'706'
p3314
sS'Lemma'
p3315
S'vague'
p3316
sS'PartOfSpeech'
p3317
S'JJ'
p3318
sS'CharacterOffsetBegin'
p3319
S'701'
p3320
stp3321
a(S'state'
p3322
(dp3323
S'NamedEntityTag'
p3324
g83
sS'CharacterOffsetEnd'
p3325
S'712'
p3326
sS'Lemma'
p3327
S'state'
p3328
sS'PartOfSpeech'
p3329
S'NN'
p3330
sS'CharacterOffsetBegin'
p3331
S'707'
p3332
stp3333
a(S'security'
p3334
(dp3335
S'NamedEntityTag'
p3336
g83
sS'CharacterOffsetEnd'
p3337
S'721'
p3338
sS'Lemma'
p3339
S'security'
p3340
sS'PartOfSpeech'
p3341
S'NN'
p3342
sS'CharacterOffsetBegin'
p3343
S'713'
p3344
stp3345
a(S'law'
p3346
(dp3347
S'NamedEntityTag'
p3348
g83
sS'CharacterOffsetEnd'
p3349
S'725'
p3350
sS'Lemma'
p3351
S'law'
p3352
sS'PartOfSpeech'
p3353
S'NN'
p3354
sS'CharacterOffsetBegin'
p3355
S'722'
p3356
stp3357
a(g1713
(dp3358
S'NamedEntityTag'
p3359
g83
sS'CharacterOffsetEnd'
p3360
S'726'
p3361
sS'Lemma'
p3362
g1713
sS'PartOfSpeech'
p3363
g1713
sS'CharacterOffsetBegin'
p3364
S'725'
p3365
stp3366
asa(dp3367
g7
S'(ROOT (S (NP (DT The) (NN ruling) (NNP Communist) (NNP Party)) (VP (VBZ has) (VP (VBN resorted) (PP (TO to) (NP (DT the) (NN law))) (PP (TO to) (NP (NN silence) (NN dissent))) (SBAR (IN since) (S (NP (PRP it)) (VP (VBD went) (PP (IN into) (NP (NN effect))) (NP-TMP (JJ last) (NN year))))))) (. .)))'
p3368
sg9
S'The ruling Communist Party has resorted to the law to silence dissent since it went into effect last year.'
p3369
sg11
(lp3370
(S'root'
p3371
S'ROOT'
p3372
S'resorted'
p3373
tp3374
a(S'det'
p3375
S'Party'
p3376
S'The'
p3377
tp3378
a(S'nn'
p3379
S'Party'
p3380
S'ruling'
p3381
tp3382
a(S'nn'
p3383
S'Party'
p3384
S'Communist'
p3385
tp3386
a(S'nsubj'
p3387
S'resorted'
p3388
S'Party'
p3389
tp3390
a(S'aux'
p3391
S'resorted'
p3392
S'has'
p3393
tp3394
a(S'det'
p3395
S'law'
p3396
S'the'
p3397
tp3398
a(S'prep_to'
p3399
S'resorted'
p3400
S'law'
p3401
tp3402
a(S'nn'
p3403
S'dissent'
p3404
S'silence'
p3405
tp3406
a(S'prep_to'
p3407
S'resorted'
p3408
S'dissent'
p3409
tp3410
a(S'mark'
p3411
S'went'
p3412
S'since'
p3413
tp3414
a(S'nsubj'
p3415
S'went'
p3416
S'it'
p3417
tp3418
a(S'advcl'
p3419
S'resorted'
p3420
S'went'
p3421
tp3422
a(S'prep_into'
p3423
S'went'
p3424
S'effect'
p3425
tp3426
a(S'amod'
p3427
S'year'
p3428
S'last'
p3429
tp3430
a(S'tmod'
p3431
S'went'
p3432
S'year'
p3433
tp3434
asg49
(lp3435
(g3371
S'ROOT-0'
p3436
S'resorted-6'
p3437
tp3438
a(g3375
S'Party-4'
p3439
S'The-1'
p3440
tp3441
a(g3379
S'Party-4'
p3442
S'ruling-2'
p3443
tp3444
a(g3383
S'Party-4'
p3445
S'Communist-3'
p3446
tp3447
a(g3387
S'resorted-6'
p3448
S'Party-4'
p3449
tp3450
a(g3391
S'resorted-6'
p3451
S'has-5'
p3452
tp3453
a(g3395
S'law-9'
p3454
S'the-8'
p3455
tp3456
a(g3399
S'resorted-6'
p3457
S'law-9'
p3458
tp3459
a(g3403
S'dissent-12'
p3460
S'silence-11'
p3461
tp3462
a(g3407
S'resorted-6'
p3463
S'dissent-12'
p3464
tp3465
a(g3411
S'went-15'
p3466
S'since-13'
p3467
tp3468
a(g3415
S'went-15'
p3469
S'it-14'
p3470
tp3471
a(g3419
S'resorted-6'
p3472
S'went-15'
p3473
tp3474
a(g3423
S'went-15'
p3475
S'effect-17'
p3476
tp3477
a(g3427
S'year-19'
p3478
S'last-18'
p3479
tp3480
a(g3431
S'went-15'
p3481
S'year-19'
p3482
tp3483
asg78
(lp3484
(S'The'
p3485
(dp3486
S'NamedEntityTag'
p3487
g83
sS'CharacterOffsetEnd'
p3488
S'730'
p3489
sS'Lemma'
p3490
S'the'
p3491
sS'PartOfSpeech'
p3492
S'DT'
p3493
sS'CharacterOffsetBegin'
p3494
S'727'
p3495
stp3496
a(S'ruling'
p3497
(dp3498
S'NamedEntityTag'
p3499
g83
sS'CharacterOffsetEnd'
p3500
S'737'
p3501
sS'Lemma'
p3502
S'ruling'
p3503
sS'PartOfSpeech'
p3504
S'NN'
p3505
sS'CharacterOffsetBegin'
p3506
S'731'
p3507
stp3508
a(S'Communist'
p3509
(dp3510
S'NamedEntityTag'
p3511
S'ORGANIZATION'
p3512
sS'CharacterOffsetEnd'
p3513
S'747'
p3514
sS'Lemma'
p3515
S'Communist'
p3516
sS'PartOfSpeech'
p3517
S'NNP'
p3518
sS'CharacterOffsetBegin'
p3519
S'738'
p3520
stp3521
a(S'Party'
p3522
(dp3523
S'NamedEntityTag'
p3524
S'ORGANIZATION'
p3525
sS'CharacterOffsetEnd'
p3526
S'753'
p3527
sS'Lemma'
p3528
S'Party'
p3529
sS'PartOfSpeech'
p3530
S'NNP'
p3531
sS'CharacterOffsetBegin'
p3532
S'748'
p3533
stp3534
a(S'has'
p3535
(dp3536
S'NamedEntityTag'
p3537
g83
sS'CharacterOffsetEnd'
p3538
S'757'
p3539
sS'Lemma'
p3540
S'have'
p3541
sS'PartOfSpeech'
p3542
S'VBZ'
p3543
sS'CharacterOffsetBegin'
p3544
S'754'
p3545
stp3546
a(S'resorted'
p3547
(dp3548
S'NamedEntityTag'
p3549
g83
sS'CharacterOffsetEnd'
p3550
S'766'
p3551
sS'Lemma'
p3552
S'resort'
p3553
sS'PartOfSpeech'
p3554
S'VBN'
p3555
sS'CharacterOffsetBegin'
p3556
S'758'
p3557
stp3558
a(S'to'
p3559
(dp3560
S'NamedEntityTag'
p3561
g83
sS'CharacterOffsetEnd'
p3562
S'769'
p3563
sS'Lemma'
p3564
S'to'
p3565
sS'PartOfSpeech'
p3566
S'TO'
p3567
sS'CharacterOffsetBegin'
p3568
S'767'
p3569
stp3570
a(S'the'
p3571
(dp3572
S'NamedEntityTag'
p3573
g83
sS'CharacterOffsetEnd'
p3574
S'773'
p3575
sS'Lemma'
p3576
S'the'
p3577
sS'PartOfSpeech'
p3578
S'DT'
p3579
sS'CharacterOffsetBegin'
p3580
S'770'
p3581
stp3582
a(S'law'
p3583
(dp3584
S'NamedEntityTag'
p3585
g83
sS'CharacterOffsetEnd'
p3586
S'777'
p3587
sS'Lemma'
p3588
S'law'
p3589
sS'PartOfSpeech'
p3590
S'NN'
p3591
sS'CharacterOffsetBegin'
p3592
S'774'
p3593
stp3594
a(S'to'
p3595
(dp3596
S'NamedEntityTag'
p3597
g83
sS'CharacterOffsetEnd'
p3598
S'780'
p3599
sS'Lemma'
p3600
S'to'
p3601
sS'PartOfSpeech'
p3602
S'TO'
p3603
sS'CharacterOffsetBegin'
p3604
S'778'
p3605
stp3606
a(S'silence'
p3607
(dp3608
S'NamedEntityTag'
p3609
g83
sS'CharacterOffsetEnd'
p3610
S'788'
p3611
sS'Lemma'
p3612
S'silence'
p3613
sS'PartOfSpeech'
p3614
S'NN'
p3615
sS'CharacterOffsetBegin'
p3616
S'781'
p3617
stp3618
a(S'dissent'
p3619
(dp3620
S'NamedEntityTag'
p3621
g83
sS'CharacterOffsetEnd'
p3622
S'796'
p3623
sS'Lemma'
p3624
S'dissent'
p3625
sS'PartOfSpeech'
p3626
S'NN'
p3627
sS'CharacterOffsetBegin'
p3628
S'789'
p3629
stp3630
a(S'since'
p3631
(dp3632
S'NamedEntityTag'
p3633
g83
sS'CharacterOffsetEnd'
p3634
S'802'
p3635
sS'Lemma'
p3636
S'since'
p3637
sS'PartOfSpeech'
p3638
S'IN'
p3639
sS'CharacterOffsetBegin'
p3640
S'797'
p3641
stp3642
a(S'it'
p3643
(dp3644
S'NamedEntityTag'
p3645
g83
sS'CharacterOffsetEnd'
p3646
S'805'
p3647
sS'Lemma'
p3648
S'it'
p3649
sS'PartOfSpeech'
p3650
S'PRP'
p3651
sS'CharacterOffsetBegin'
p3652
S'803'
p3653
stp3654
a(S'went'
p3655
(dp3656
S'NamedEntityTag'
p3657
g83
sS'CharacterOffsetEnd'
p3658
S'810'
p3659
sS'Lemma'
p3660
S'go'
p3661
sS'PartOfSpeech'
p3662
S'VBD'
p3663
sS'CharacterOffsetBegin'
p3664
S'806'
p3665
stp3666
a(S'into'
p3667
(dp3668
S'NamedEntityTag'
p3669
g83
sS'CharacterOffsetEnd'
p3670
S'815'
p3671
sS'Lemma'
p3672
S'into'
p3673
sS'PartOfSpeech'
p3674
S'IN'
p3675
sS'CharacterOffsetBegin'
p3676
S'811'
p3677
stp3678
a(S'effect'
p3679
(dp3680
S'NamedEntityTag'
p3681
g83
sS'CharacterOffsetEnd'
p3682
S'822'
p3683
sS'Lemma'
p3684
S'effect'
p3685
sS'PartOfSpeech'
p3686
S'NN'
p3687
sS'CharacterOffsetBegin'
p3688
S'816'
p3689
stp3690
a(S'last'
p3691
(dp3692
S'NormalizedNamedEntityTag'
p3693
S'THIS'
p3694
sS'Timex'
p3695
S'<TIMEX3 alt_value="THIS P1Y OFFSET P-1Y" anchorTimeID="t5" temporalFunction="true" tid="t4" type="DATE" valueFromFunction="tf1">last year</TIMEX3>'
p3696
sS'Lemma'
p3697
S'last'
p3698
sS'CharacterOffsetEnd'
p3699
S'827'
p3700
sS'PartOfSpeech'
p3701
S'JJ'
p3702
sS'CharacterOffsetBegin'
p3703
S'823'
p3704
sS'NamedEntityTag'
p3705
S'DATE'
p3706
stp3707
a(S'year'
p3708
(dp3709
S'NormalizedNamedEntityTag'
p3710
S'THIS'
p3711
sS'Timex'
p3712
S'<TIMEX3 alt_value="THIS P1Y OFFSET P-1Y" anchorTimeID="t5" temporalFunction="true" tid="t4" type="DATE" valueFromFunction="tf1">last year</TIMEX3>'
p3713
sS'Lemma'
p3714
S'year'
p3715
sS'CharacterOffsetEnd'
p3716
S'832'
p3717
sS'PartOfSpeech'
p3718
S'NN'
p3719
sS'CharacterOffsetBegin'
p3720
S'828'
p3721
sS'NamedEntityTag'
p3722
S'DATE'
p3723
stp3724
a(g1713
(dp3725
S'NamedEntityTag'
p3726
g83
sS'CharacterOffsetEnd'
p3727
S'833'
p3728
sS'Lemma'
p3729
g1713
sS'PartOfSpeech'
p3730
g1713
sS'CharacterOffsetBegin'
p3731
S'832'
p3732
stp3733
asa(dp3734
g7
S'(ROOT (S (NP (NP (NP (DT The) (NNS arrests)) (PP (IN of) (NP (NP (NNP Xu) (CC and) (NNP Qin)) (PP (IN at) (NP (PRP$ their) (NNS homes))) (NP-TMP (NNP Monday)))) (NP-TMP (NN night))) (CC and) (NP (NP (DT the) (NNS accusations)) (PP (IN against) (NP (NP (PRP them)) (CC and) (NP (NNP Wang)))))) (VP (VBD were) (NP (NP (DT the) (JJS sharpest) (NN action)) (SBAR (S (NP (JJ Chinese) (NNS leaders)) (VP (VBP have) (VP (VBN taken) (SBAR (IN since) (S (NP (NNS dissidents)) (VP (VBD began) (S (VP (VBG pushing) (S (VP (TO to) (VP (VP (VB set) (PRT (RP up))) (CC and) (VP (ADVP (RB legally)) (VB register) (NP (NP (DT the) (NNP China) (NNP Democracy) (NNP Party)) (PP (IN in) (NP (NNP June))))))))))))))))))) (. .)))'
p3735
sg9
S'The arrests of Xu and Qin at their homes Monday night and the accusations against them and Wang were the sharpest action Chinese leaders have taken since dissidents began pushing to set up and legally register the China Democracy Party in June.'
p3736
sg11
(lp3737
(S'root'
p3738
S'ROOT'
p3739
S'action'
p3740
tp3741
a(S'det'
p3742
S'arrests'
p3743
S'The'
p3744
tp3745
a(S'nsubj'
p3746
S'action'
p3747
S'arrests'
p3748
tp3749
a(S'prep_of'
p3750
S'arrests'
p3751
S'Xu'
p3752
tp3753
a(S'conj_and'
p3754
S'Xu'
p3755
S'Qin'
p3756
tp3757
a(S'poss'
p3758
S'homes'
p3759
S'their'
p3760
tp3761
a(S'prep_at'
p3762
S'Xu'
p3763
S'homes'
p3764
tp3765
a(S'tmod'
p3766
S'Xu'
p3767
S'Monday'
p3768
tp3769
a(S'tmod'
p3770
S'arrests'
p3771
S'night'
p3772
tp3773
a(S'det'
p3774
S'accusations'
p3775
S'the'
p3776
tp3777
a(S'conj_and'
p3778
S'arrests'
p3779
S'accusations'
p3780
tp3781
a(S'prep_against'
p3782
S'accusations'
p3783
S'them'
p3784
tp3785
a(S'conj_and'
p3786
S'them'
p3787
S'Wang'
p3788
tp3789
a(S'cop'
p3790
S'action'
p3791
S'were'
p3792
tp3793
a(S'det'
p3794
S'action'
p3795
S'the'
p3796
tp3797
a(S'amod'
p3798
S'action'
p3799
S'sharpest'
p3800
tp3801
a(S'amod'
p3802
S'leaders'
p3803
S'Chinese'
p3804
tp3805
a(S'nsubj'
p3806
S'taken'
p3807
S'leaders'
p3808
tp3809
a(S'aux'
p3810
S'taken'
p3811
S'have'
p3812
tp3813
a(S'rcmod'
p3814
S'action'
p3815
S'taken'
p3816
tp3817
a(S'mark'
p3818
S'began'
p3819
S'since'
p3820
tp3821
a(S'nsubj'
p3822
S'began'
p3823
S'dissidents'
p3824
tp3825
a(S'advcl'
p3826
S'taken'
p3827
S'began'
p3828
tp3829
a(S'xcomp'
p3830
S'began'
p3831
S'pushing'
p3832
tp3833
a(S'aux'
p3834
S'set'
p3835
S'to'
p3836
tp3837
a(S'xcomp'
p3838
S'pushing'
p3839
S'set'
p3840
tp3841
a(S'prt'
p3842
S'set'
p3843
S'up'
p3844
tp3845
a(S'advmod'
p3846
S'register'
p3847
S'legally'
p3848
tp3849
a(S'conj_and'
p3850
S'set'
p3851
S'register'
p3852
tp3853
a(S'det'
p3854
S'Party'
p3855
S'the'
p3856
tp3857
a(S'nn'
p3858
S'Party'
p3859
S'China'
p3860
tp3861
a(S'nn'
p3862
S'Party'
p3863
S'Democracy'
p3864
tp3865
a(S'dobj'
p3866
S'register'
p3867
S'Party'
p3868
tp3869
a(S'prep_in'
p3870
S'Party'
p3871
S'June'
p3872
tp3873
asg49
(lp3874
(g3738
S'ROOT-0'
p3875
S'action-22'
p3876
tp3877
a(g3742
S'arrests-2'
p3878
S'The-1'
p3879
tp3880
a(g3746
S'action-22'
p3881
S'arrests-2'
p3882
tp3883
a(g3750
S'arrests-2'
p3884
S'Xu-4'
p3885
tp3886
a(g3754
S'Xu-4'
p3887
S'Qin-6'
p3888
tp3889
a(g3758
S'homes-9'
p3890
S'their-8'
p3891
tp3892
a(g3762
S'Xu-4'
p3893
S'homes-9'
p3894
tp3895
a(g3766
S'Xu-4'
p3896
S'Monday-10'
p3897
tp3898
a(g3770
S'arrests-2'
p3899
S'night-11'
p3900
tp3901
a(g3774
S'accusations-14'
p3902
S'the-13'
p3903
tp3904
a(g3778
S'arrests-2'
p3905
S'accusations-14'
p3906
tp3907
a(g3782
S'accusations-14'
p3908
S'them-16'
p3909
tp3910
a(g3786
S'them-16'
p3911
S'Wang-18'
p3912
tp3913
a(g3790
S'action-22'
p3914
S'were-19'
p3915
tp3916
a(g3794
S'action-22'
p3917
S'the-20'
p3918
tp3919
a(g3798
S'action-22'
p3920
S'sharpest-21'
p3921
tp3922
a(g3802
S'leaders-24'
p3923
S'Chinese-23'
p3924
tp3925
a(g3806
S'taken-26'
p3926
S'leaders-24'
p3927
tp3928
a(g3810
S'taken-26'
p3929
S'have-25'
p3930
tp3931
a(g3814
S'action-22'
p3932
S'taken-26'
p3933
tp3934
a(g3818
S'began-29'
p3935
S'since-27'
p3936
tp3937
a(g3822
S'began-29'
p3938
S'dissidents-28'
p3939
tp3940
a(g3826
S'taken-26'
p3941
S'began-29'
p3942
tp3943
a(g3830
S'began-29'
p3944
S'pushing-30'
p3945
tp3946
a(g3834
S'set-32'
p3947
S'to-31'
p3948
tp3949
a(g3838
S'pushing-30'
p3950
S'set-32'
p3951
tp3952
a(g3842
S'set-32'
p3953
S'up-33'
p3954
tp3955
a(g3846
S'register-36'
p3956
S'legally-35'
p3957
tp3958
a(g3850
S'set-32'
p3959
S'register-36'
p3960
tp3961
a(g3854
S'Party-40'
p3962
S'the-37'
p3963
tp3964
a(g3858
S'Party-40'
p3965
S'China-38'
p3966
tp3967
a(g3862
S'Party-40'
p3968
S'Democracy-39'
p3969
tp3970
a(g3866
S'register-36'
p3971
S'Party-40'
p3972
tp3973
a(g3870
S'Party-40'
p3974
S'June-42'
p3975
tp3976
asg78
(lp3977
(S'The'
p3978
(dp3979
S'NamedEntityTag'
p3980
g83
sS'CharacterOffsetEnd'
p3981
S'837'
p3982
sS'Lemma'
p3983
S'the'
p3984
sS'PartOfSpeech'
p3985
S'DT'
p3986
sS'CharacterOffsetBegin'
p3987
S'834'
p3988
stp3989
a(S'arrests'
p3990
(dp3991
S'NamedEntityTag'
p3992
g83
sS'CharacterOffsetEnd'
p3993
S'845'
p3994
sS'Lemma'
p3995
S'arrest'
p3996
sS'PartOfSpeech'
p3997
S'NNS'
p3998
sS'CharacterOffsetBegin'
p3999
S'838'
p4000
stp4001
a(S'of'
p4002
(dp4003
S'NamedEntityTag'
p4004
g83
sS'CharacterOffsetEnd'
p4005
S'848'
p4006
sS'Lemma'
p4007
S'of'
p4008
sS'PartOfSpeech'
p4009
S'IN'
p4010
sS'CharacterOffsetBegin'
p4011
S'846'
p4012
stp4013
a(S'Xu'
p4014
(dp4015
S'NamedEntityTag'
p4016
g83
sS'CharacterOffsetEnd'
p4017
S'851'
p4018
sS'Lemma'
p4019
S'Xu'
p4020
sS'PartOfSpeech'
p4021
S'NNP'
p4022
sS'CharacterOffsetBegin'
p4023
S'849'
p4024
stp4025
a(S'and'
p4026
(dp4027
S'NamedEntityTag'
p4028
g83
sS'CharacterOffsetEnd'
p4029
S'855'
p4030
sS'Lemma'
p4031
S'and'
p4032
sS'PartOfSpeech'
p4033
S'CC'
p4034
sS'CharacterOffsetBegin'
p4035
S'852'
p4036
stp4037
a(S'Qin'
p4038
(dp4039
S'NamedEntityTag'
p4040
S'PERSON'
p4041
sS'CharacterOffsetEnd'
p4042
S'859'
p4043
sS'Lemma'
p4044
S'Qin'
p4045
sS'PartOfSpeech'
p4046
S'NNP'
p4047
sS'CharacterOffsetBegin'
p4048
S'856'
p4049
stp4050
a(S'at'
p4051
(dp4052
S'NamedEntityTag'
p4053
g83
sS'CharacterOffsetEnd'
p4054
S'862'
p4055
sS'Lemma'
p4056
S'at'
p4057
sS'PartOfSpeech'
p4058
S'IN'
p4059
sS'CharacterOffsetBegin'
p4060
S'860'
p4061
stp4062
a(S'their'
p4063
(dp4064
S'NamedEntityTag'
p4065
g83
sS'CharacterOffsetEnd'
p4066
S'868'
p4067
sS'Lemma'
p4068
S'they'
p4069
sS'PartOfSpeech'
p4070
S'PRP$'
p4071
sS'CharacterOffsetBegin'
p4072
S'863'
p4073
stp4074
a(S'homes'
p4075
(dp4076
S'NamedEntityTag'
p4077
g83
sS'CharacterOffsetEnd'
p4078
S'874'
p4079
sS'Lemma'
p4080
S'home'
p4081
sS'PartOfSpeech'
p4082
S'NNS'
p4083
sS'CharacterOffsetBegin'
p4084
S'869'
p4085
stp4086
a(S'Monday'
p4087
(dp4088
S'NormalizedNamedEntityTag'
p4089
S'XXXX-WXX-1TNI'
p4090
sS'Timex'
p4091
S'<TIMEX3 tid="t6" type="TIME" value="XXXX-WXX-1TNI">Monday night</TIMEX3>'
p4092
sS'Lemma'
p4093
S'Monday'
p4094
sS'CharacterOffsetEnd'
p4095
S'881'
p4096
sS'PartOfSpeech'
p4097
S'NNP'
p4098
sS'CharacterOffsetBegin'
p4099
S'875'
p4100
sS'NamedEntityTag'
p4101
S'DATE'
p4102
stp4103
a(S'night'
p4104
(dp4105
S'NormalizedNamedEntityTag'
p4106
S'XXXX-WXX-1TNI'
p4107
sS'Timex'
p4108
S'<TIMEX3 tid="t6" type="TIME" value="XXXX-WXX-1TNI">Monday night</TIMEX3>'
p4109
sS'Lemma'
p4110
S'night'
p4111
sS'CharacterOffsetEnd'
p4112
S'887'
p4113
sS'PartOfSpeech'
p4114
S'NN'
p4115
sS'CharacterOffsetBegin'
p4116
S'882'
p4117
sS'NamedEntityTag'
p4118
S'TIME'
p4119
stp4120
a(S'and'
p4121
(dp4122
S'NamedEntityTag'
p4123
g83
sS'CharacterOffsetEnd'
p4124
S'891'
p4125
sS'Lemma'
p4126
S'and'
p4127
sS'PartOfSpeech'
p4128
S'CC'
p4129
sS'CharacterOffsetBegin'
p4130
S'888'
p4131
stp4132
a(S'the'
p4133
(dp4134
S'NamedEntityTag'
p4135
g83
sS'CharacterOffsetEnd'
p4136
S'895'
p4137
sS'Lemma'
p4138
S'the'
p4139
sS'PartOfSpeech'
p4140
S'DT'
p4141
sS'CharacterOffsetBegin'
p4142
S'892'
p4143
stp4144
a(S'accusations'
p4145
(dp4146
S'NamedEntityTag'
p4147
g83
sS'CharacterOffsetEnd'
p4148
S'907'
p4149
sS'Lemma'
p4150
S'accusation'
p4151
sS'PartOfSpeech'
p4152
S'NNS'
p4153
sS'CharacterOffsetBegin'
p4154
S'896'
p4155
stp4156
a(S'against'
p4157
(dp4158
S'NamedEntityTag'
p4159
g83
sS'CharacterOffsetEnd'
p4160
S'915'
p4161
sS'Lemma'
p4162
S'against'
p4163
sS'PartOfSpeech'
p4164
S'IN'
p4165
sS'CharacterOffsetBegin'
p4166
S'908'
p4167
stp4168
a(S'them'
p4169
(dp4170
S'NamedEntityTag'
p4171
g83
sS'CharacterOffsetEnd'
p4172
S'920'
p4173
sS'Lemma'
p4174
S'they'
p4175
sS'PartOfSpeech'
p4176
S'PRP'
p4177
sS'CharacterOffsetBegin'
p4178
S'916'
p4179
stp4180
a(S'and'
p4181
(dp4182
S'NamedEntityTag'
p4183
g83
sS'CharacterOffsetEnd'
p4184
S'924'
p4185
sS'Lemma'
p4186
S'and'
p4187
sS'PartOfSpeech'
p4188
S'CC'
p4189
sS'CharacterOffsetBegin'
p4190
S'921'
p4191
stp4192
a(S'Wang'
p4193
(dp4194
S'NamedEntityTag'
p4195
S'PERSON'
p4196
sS'CharacterOffsetEnd'
p4197
S'929'
p4198
sS'Lemma'
p4199
S'Wang'
p4200
sS'PartOfSpeech'
p4201
S'NNP'
p4202
sS'CharacterOffsetBegin'
p4203
S'925'
p4204
stp4205
a(S'were'
p4206
(dp4207
S'NamedEntityTag'
p4208
g83
sS'CharacterOffsetEnd'
p4209
S'934'
p4210
sS'Lemma'
p4211
S'be'
p4212
sS'PartOfSpeech'
p4213
S'VBD'
p4214
sS'CharacterOffsetBegin'
p4215
S'930'
p4216
stp4217
a(S'the'
p4218
(dp4219
S'NamedEntityTag'
p4220
g83
sS'CharacterOffsetEnd'
p4221
S'938'
p4222
sS'Lemma'
p4223
S'the'
p4224
sS'PartOfSpeech'
p4225
S'DT'
p4226
sS'CharacterOffsetBegin'
p4227
S'935'
p4228
stp4229
a(S'sharpest'
p4230
(dp4231
S'NamedEntityTag'
p4232
g83
sS'CharacterOffsetEnd'
p4233
S'947'
p4234
sS'Lemma'
p4235
S'sharpest'
p4236
sS'PartOfSpeech'
p4237
S'JJS'
p4238
sS'CharacterOffsetBegin'
p4239
S'939'
p4240
stp4241
a(S'action'
p4242
(dp4243
S'NamedEntityTag'
p4244
g83
sS'CharacterOffsetEnd'
p4245
S'954'
p4246
sS'Lemma'
p4247
S'action'
p4248
sS'PartOfSpeech'
p4249
S'NN'
p4250
sS'CharacterOffsetBegin'
p4251
S'948'
p4252
stp4253
a(S'Chinese'
p4254
(dp4255
S'NamedEntityTag'
p4256
S'MISC'
p4257
sS'CharacterOffsetEnd'
p4258
S'962'
p4259
sS'Lemma'
p4260
S'chinese'
p4261
sS'PartOfSpeech'
p4262
S'JJ'
p4263
sS'CharacterOffsetBegin'
p4264
S'955'
p4265
stp4266
a(S'leaders'
p4267
(dp4268
S'NamedEntityTag'
p4269
g83
sS'CharacterOffsetEnd'
p4270
S'970'
p4271
sS'Lemma'
p4272
S'leader'
p4273
sS'PartOfSpeech'
p4274
S'NNS'
p4275
sS'CharacterOffsetBegin'
p4276
S'963'
p4277
stp4278
a(S'have'
p4279
(dp4280
S'NamedEntityTag'
p4281
g83
sS'CharacterOffsetEnd'
p4282
S'975'
p4283
sS'Lemma'
p4284
S'have'
p4285
sS'PartOfSpeech'
p4286
S'VBP'
p4287
sS'CharacterOffsetBegin'
p4288
S'971'
p4289
stp4290
a(S'taken'
p4291
(dp4292
S'NamedEntityTag'
p4293
g83
sS'CharacterOffsetEnd'
p4294
S'981'
p4295
sS'Lemma'
p4296
S'take'
p4297
sS'PartOfSpeech'
p4298
S'VBN'
p4299
sS'CharacterOffsetBegin'
p4300
S'976'
p4301
stp4302
a(S'since'
p4303
(dp4304
S'NamedEntityTag'
p4305
g83
sS'CharacterOffsetEnd'
p4306
S'987'
p4307
sS'Lemma'
p4308
S'since'
p4309
sS'PartOfSpeech'
p4310
S'IN'
p4311
sS'CharacterOffsetBegin'
p4312
S'982'
p4313
stp4314
a(S'dissidents'
p4315
(dp4316
S'NamedEntityTag'
p4317
g83
sS'CharacterOffsetEnd'
p4318
S'998'
p4319
sS'Lemma'
p4320
S'dissident'
p4321
sS'PartOfSpeech'
p4322
S'NNS'
p4323
sS'CharacterOffsetBegin'
p4324
S'988'
p4325
stp4326
a(S'began'
p4327
(dp4328
S'NamedEntityTag'
p4329
g83
sS'CharacterOffsetEnd'
p4330
S'1004'
p4331
sS'Lemma'
p4332
S'begin'
p4333
sS'PartOfSpeech'
p4334
S'VBD'
p4335
sS'CharacterOffsetBegin'
p4336
S'999'
p4337
stp4338
a(S'pushing'
p4339
(dp4340
S'NamedEntityTag'
p4341
g83
sS'CharacterOffsetEnd'
p4342
S'1012'
p4343
sS'Lemma'
p4344
S'push'
p4345
sS'PartOfSpeech'
p4346
S'VBG'
p4347
sS'CharacterOffsetBegin'
p4348
S'1005'
p4349
stp4350
a(S'to'
p4351
(dp4352
S'NamedEntityTag'
p4353
g83
sS'CharacterOffsetEnd'
p4354
S'1015'
p4355
sS'Lemma'
p4356
S'to'
p4357
sS'PartOfSpeech'
p4358
S'TO'
p4359
sS'CharacterOffsetBegin'
p4360
S'1013'
p4361
stp4362
a(S'set'
p4363
(dp4364
S'NamedEntityTag'
p4365
g83
sS'CharacterOffsetEnd'
p4366
S'1019'
p4367
sS'Lemma'
p4368
S'set'
p4369
sS'PartOfSpeech'
p4370
S'VB'
p4371
sS'CharacterOffsetBegin'
p4372
S'1016'
p4373
stp4374
a(S'up'
p4375
(dp4376
S'NamedEntityTag'
p4377
g83
sS'CharacterOffsetEnd'
p4378
S'1022'
p4379
sS'Lemma'
p4380
S'up'
p4381
sS'PartOfSpeech'
p4382
S'RP'
p4383
sS'CharacterOffsetBegin'
p4384
S'1020'
p4385
stp4386
a(S'and'
p4387
(dp4388
S'NamedEntityTag'
p4389
g83
sS'CharacterOffsetEnd'
p4390
S'1026'
p4391
sS'Lemma'
p4392
S'and'
p4393
sS'PartOfSpeech'
p4394
S'CC'
p4395
sS'CharacterOffsetBegin'
p4396
S'1023'
p4397
stp4398
a(S'legally'
p4399
(dp4400
S'NamedEntityTag'
p4401
g83
sS'CharacterOffsetEnd'
p4402
S'1034'
p4403
sS'Lemma'
p4404
S'legally'
p4405
sS'PartOfSpeech'
p4406
S'RB'
p4407
sS'CharacterOffsetBegin'
p4408
S'1027'
p4409
stp4410
a(S'register'
p4411
(dp4412
S'NamedEntityTag'
p4413
g83
sS'CharacterOffsetEnd'
p4414
S'1043'
p4415
sS'Lemma'
p4416
S'register'
p4417
sS'PartOfSpeech'
p4418
S'VB'
p4419
sS'CharacterOffsetBegin'
p4420
S'1035'
p4421
stp4422
a(S'the'
p4423
(dp4424
S'NamedEntityTag'
p4425
g83
sS'CharacterOffsetEnd'
p4426
S'1047'
p4427
sS'Lemma'
p4428
S'the'
p4429
sS'PartOfSpeech'
p4430
S'DT'
p4431
sS'CharacterOffsetBegin'
p4432
S'1044'
p4433
stp4434
a(S'China'
p4435
(dp4436
S'NamedEntityTag'
p4437
S'ORGANIZATION'
p4438
sS'CharacterOffsetEnd'
p4439
S'1053'
p4440
sS'Lemma'
p4441
S'China'
p4442
sS'PartOfSpeech'
p4443
S'NNP'
p4444
sS'CharacterOffsetBegin'
p4445
S'1048'
p4446
stp4447
a(S'Democracy'
p4448
(dp4449
S'NamedEntityTag'
p4450
S'ORGANIZATION'
p4451
sS'CharacterOffsetEnd'
p4452
S'1063'
p4453
sS'Lemma'
p4454
S'Democracy'
p4455
sS'PartOfSpeech'
p4456
S'NNP'
p4457
sS'CharacterOffsetBegin'
p4458
S'1054'
p4459
stp4460
a(S'Party'
p4461
(dp4462
S'NamedEntityTag'
p4463
S'ORGANIZATION'
p4464
sS'CharacterOffsetEnd'
p4465
S'1069'
p4466
sS'Lemma'
p4467
S'Party'
p4468
sS'PartOfSpeech'
p4469
S'NNP'
p4470
sS'CharacterOffsetBegin'
p4471
S'1064'
p4472
stp4473
a(S'in'
p4474
(dp4475
S'NamedEntityTag'
p4476
g83
sS'CharacterOffsetEnd'
p4477
S'1072'
p4478
sS'Lemma'
p4479
S'in'
p4480
sS'PartOfSpeech'
p4481
S'IN'
p4482
sS'CharacterOffsetBegin'
p4483
S'1070'
p4484
stp4485
a(S'June'
p4486
(dp4487
S'NormalizedNamedEntityTag'
p4488
S'XXXX-06'
p4489
sS'Timex'
p4490
S'<TIMEX3 tid="t7" type="DATE" value="XXXX-06">June</TIMEX3>'
p4491
sS'Lemma'
p4492
S'June'
p4493
sS'CharacterOffsetEnd'
p4494
S'1077'
p4495
sS'PartOfSpeech'
p4496
S'NNP'
p4497
sS'CharacterOffsetBegin'
p4498
S'1073'
p4499
sS'NamedEntityTag'
p4500
S'DATE'
p4501
stp4502
a(g1713
(dp4503
S'NamedEntityTag'
p4504
g83
sS'CharacterOffsetEnd'
p4505
S'1078'
p4506
sS'Lemma'
p4507
g1713
sS'PartOfSpeech'
p4508
g1713
sS'CharacterOffsetBegin'
p4509
S'1077'
p4510
stp4511
asa(dp4512
g7
S'(ROOT (S (S (S (NP (NNP Xu) (CC and) (NNP Qin)) (VP (VBD were) (VP (VBN suspected) (PP (IN of) (NP (NN involvement))) (PP (IN in) (NP (NP (NNS activities)) (VP (VBG endangering) (NP (NN state) (NN security)))))))) (CC and) (S (NP (PRP$ their) (NN behavior)) (VP (VBD breached) (NP (NP (JJ relevant) (NNS provisions)) (PP (IN of) (NP (NP (DT the) (JJ criminal) (NNS laws)) (PP (IN of) (NP (NP (DT the) (NNPS Peoples) (NNP Republic)) (PP (IN of) (NP (NNP China))))))))))) (, ,) (NP (NNP Zhu)) (VP (VBD said) (PP (IN at) (NP (DT a) (JJ twice-weekly) (NN briefing)))) (. .)))'
p4513
sg9
S'Xu and Qin were suspected of involvement in activities endangering state security and their behavior breached relevant provisions of the criminal laws of the Peoples Republic of China, Zhu said at a twice-weekly briefing.'
p4514
sg11
(lp4515
(S'root'
p4516
S'ROOT'
p4517
S'said'
p4518
tp4519
a(S'nsubjpass'
p4520
S'suspected'
p4521
S'Xu'
p4522
tp4523
a(S'conj_and'
p4524
S'Xu'
p4525
S'Qin'
p4526
tp4527
a(S'auxpass'
p4528
S'suspected'
p4529
S'were'
p4530
tp4531
a(S'ccomp'
p4532
S'said'
p4533
S'suspected'
p4534
tp4535
a(S'prep_of'
p4536
S'suspected'
p4537
S'involvement'
p4538
tp4539
a(S'prep_in'
p4540
S'suspected'
p4541
S'activities'
p4542
tp4543
a(S'partmod'
p4544
S'activities'
p4545
S'endangering'
p4546
tp4547
a(S'nn'
p4548
S'security'
p4549
S'state'
p4550
tp4551
a(S'dobj'
p4552
S'endangering'
p4553
S'security'
p4554
tp4555
a(S'poss'
p4556
S'behavior'
p4557
S'their'
p4558
tp4559
a(S'nsubj'
p4560
S'breached'
p4561
S'behavior'
p4562
tp4563
a(S'conj_and'
p4564
S'suspected'
p4565
S'breached'
p4566
tp4567
a(S'amod'
p4568
S'provisions'
p4569
S'relevant'
p4570
tp4571
a(S'dobj'
p4572
S'breached'
p4573
S'provisions'
p4574
tp4575
a(S'det'
p4576
S'laws'
p4577
S'the'
p4578
tp4579
a(S'amod'
p4580
S'laws'
p4581
S'criminal'
p4582
tp4583
a(S'prep_of'
p4584
S'provisions'
p4585
S'laws'
p4586
tp4587
a(S'det'
p4588
S'Republic'
p4589
S'the'
p4590
tp4591
a(S'nn'
p4592
S'Republic'
p4593
S'Peoples'
p4594
tp4595
a(S'prep_of'
p4596
S'laws'
p4597
S'Republic'
p4598
tp4599
a(S'prep_of'
p4600
S'Republic'
p4601
S'China'
p4602
tp4603
a(S'nsubj'
p4604
S'said'
p4605
S'Zhu'
p4606
tp4607
a(S'det'
p4608
S'briefing'
p4609
g1222
tp4610
a(S'amod'
p4611
S'briefing'
p4612
S'twice-weekly'
p4613
tp4614
a(S'prep_at'
p4615
S'said'
p4616
S'briefing'
p4617
tp4618
asg49
(lp4619
(g4516
S'ROOT-0'
p4620
S'said-31'
p4621
tp4622
a(g4520
S'suspected-5'
p4623
S'Xu-1'
p4624
tp4625
a(g4524
S'Xu-1'
p4626
S'Qin-3'
p4627
tp4628
a(g4528
S'suspected-5'
p4629
S'were-4'
p4630
tp4631
a(g4532
S'said-31'
p4632
S'suspected-5'
p4633
tp4634
a(g4536
S'suspected-5'
p4635
S'involvement-7'
p4636
tp4637
a(g4540
S'suspected-5'
p4638
S'activities-9'
p4639
tp4640
a(g4544
S'activities-9'
p4641
S'endangering-10'
p4642
tp4643
a(g4548
S'security-12'
p4644
S'state-11'
p4645
tp4646
a(g4552
S'endangering-10'
p4647
S'security-12'
p4648
tp4649
a(g4556
S'behavior-15'
p4650
S'their-14'
p4651
tp4652
a(g4560
S'breached-16'
p4653
S'behavior-15'
p4654
tp4655
a(g4564
S'suspected-5'
p4656
S'breached-16'
p4657
tp4658
a(g4568
S'provisions-18'
p4659
S'relevant-17'
p4660
tp4661
a(g4572
S'breached-16'
p4662
S'provisions-18'
p4663
tp4664
a(g4576
S'laws-22'
p4665
S'the-20'
p4666
tp4667
a(g4580
S'laws-22'
p4668
S'criminal-21'
p4669
tp4670
a(g4584
S'provisions-18'
p4671
S'laws-22'
p4672
tp4673
a(g4588
S'Republic-26'
p4674
S'the-24'
p4675
tp4676
a(g4592
S'Republic-26'
p4677
S'Peoples-25'
p4678
tp4679
a(g4596
S'laws-22'
p4680
S'Republic-26'
p4681
tp4682
a(g4600
S'Republic-26'
p4683
S'China-28'
p4684
tp4685
a(g4604
S'said-31'
p4686
S'Zhu-30'
p4687
tp4688
a(g4608
S'briefing-35'
p4689
S'a-33'
p4690
tp4691
a(g4611
S'briefing-35'
p4692
S'twice-weekly-34'
p4693
tp4694
a(g4615
S'said-31'
p4695
S'briefing-35'
p4696
tp4697
asg78
(lp4698
(S'Xu'
p4699
(dp4700
S'NamedEntityTag'
p4701
S'PERSON'
p4702
sS'CharacterOffsetEnd'
p4703
S'1081'
p4704
sS'Lemma'
p4705
S'Xu'
p4706
sS'PartOfSpeech'
p4707
S'NNP'
p4708
sS'CharacterOffsetBegin'
p4709
S'1079'
p4710
stp4711
a(S'and'
p4712
(dp4713
S'NamedEntityTag'
p4714
g83
sS'CharacterOffsetEnd'
p4715
S'1085'
p4716
sS'Lemma'
p4717
S'and'
p4718
sS'PartOfSpeech'
p4719
S'CC'
p4720
sS'CharacterOffsetBegin'
p4721
S'1082'
p4722
stp4723
a(S'Qin'
p4724
(dp4725
S'NamedEntityTag'
p4726
S'PERSON'
p4727
sS'CharacterOffsetEnd'
p4728
S'1089'
p4729
sS'Lemma'
p4730
S'Qin'
p4731
sS'PartOfSpeech'
p4732
S'NNP'
p4733
sS'CharacterOffsetBegin'
p4734
S'1086'
p4735
stp4736
a(S'were'
p4737
(dp4738
S'NamedEntityTag'
p4739
g83
sS'CharacterOffsetEnd'
p4740
S'1094'
p4741
sS'Lemma'
p4742
S'be'
p4743
sS'PartOfSpeech'
p4744
S'VBD'
p4745
sS'CharacterOffsetBegin'
p4746
S'1090'
p4747
stp4748
a(S'suspected'
p4749
(dp4750
S'NamedEntityTag'
p4751
g83
sS'CharacterOffsetEnd'
p4752
S'1104'
p4753
sS'Lemma'
p4754
S'suspect'
p4755
sS'PartOfSpeech'
p4756
S'VBN'
p4757
sS'CharacterOffsetBegin'
p4758
S'1095'
p4759
stp4760
a(S'of'
p4761
(dp4762
S'NamedEntityTag'
p4763
g83
sS'CharacterOffsetEnd'
p4764
S'1107'
p4765
sS'Lemma'
p4766
S'of'
p4767
sS'PartOfSpeech'
p4768
S'IN'
p4769
sS'CharacterOffsetBegin'
p4770
S'1105'
p4771
stp4772
a(S'involvement'
p4773
(dp4774
S'NamedEntityTag'
p4775
g83
sS'CharacterOffsetEnd'
p4776
S'1119'
p4777
sS'Lemma'
p4778
S'involvement'
p4779
sS'PartOfSpeech'
p4780
S'NN'
p4781
sS'CharacterOffsetBegin'
p4782
S'1108'
p4783
stp4784
a(S'in'
p4785
(dp4786
S'NamedEntityTag'
p4787
g83
sS'CharacterOffsetEnd'
p4788
S'1122'
p4789
sS'Lemma'
p4790
S'in'
p4791
sS'PartOfSpeech'
p4792
S'IN'
p4793
sS'CharacterOffsetBegin'
p4794
S'1120'
p4795
stp4796
a(S'activities'
p4797
(dp4798
S'NamedEntityTag'
p4799
g83
sS'CharacterOffsetEnd'
p4800
S'1133'
p4801
sS'Lemma'
p4802
S'activity'
p4803
sS'PartOfSpeech'
p4804
S'NNS'
p4805
sS'CharacterOffsetBegin'
p4806
S'1123'
p4807
stp4808
a(S'endangering'
p4809
(dp4810
S'NamedEntityTag'
p4811
g83
sS'CharacterOffsetEnd'
p4812
S'1145'
p4813
sS'Lemma'
p4814
S'endanger'
p4815
sS'PartOfSpeech'
p4816
S'VBG'
p4817
sS'CharacterOffsetBegin'
p4818
S'1134'
p4819
stp4820
a(S'state'
p4821
(dp4822
S'NamedEntityTag'
p4823
g83
sS'CharacterOffsetEnd'
p4824
S'1151'
p4825
sS'Lemma'
p4826
S'state'
p4827
sS'PartOfSpeech'
p4828
S'NN'
p4829
sS'CharacterOffsetBegin'
p4830
S'1146'
p4831
stp4832
a(S'security'
p4833
(dp4834
S'NamedEntityTag'
p4835
g83
sS'CharacterOffsetEnd'
p4836
S'1160'
p4837
sS'Lemma'
p4838
S'security'
p4839
sS'PartOfSpeech'
p4840
S'NN'
p4841
sS'CharacterOffsetBegin'
p4842
S'1152'
p4843
stp4844
a(S'and'
p4845
(dp4846
S'NamedEntityTag'
p4847
g83
sS'CharacterOffsetEnd'
p4848
S'1164'
p4849
sS'Lemma'
p4850
S'and'
p4851
sS'PartOfSpeech'
p4852
S'CC'
p4853
sS'CharacterOffsetBegin'
p4854
S'1161'
p4855
stp4856
a(S'their'
p4857
(dp4858
S'NamedEntityTag'
p4859
g83
sS'CharacterOffsetEnd'
p4860
S'1170'
p4861
sS'Lemma'
p4862
S'they'
p4863
sS'PartOfSpeech'
p4864
S'PRP$'
p4865
sS'CharacterOffsetBegin'
p4866
S'1165'
p4867
stp4868
a(S'behavior'
p4869
(dp4870
S'NamedEntityTag'
p4871
g83
sS'CharacterOffsetEnd'
p4872
S'1179'
p4873
sS'Lemma'
p4874
S'behavior'
p4875
sS'PartOfSpeech'
p4876
S'NN'
p4877
sS'CharacterOffsetBegin'
p4878
S'1171'
p4879
stp4880
a(S'breached'
p4881
(dp4882
S'NamedEntityTag'
p4883
g83
sS'CharacterOffsetEnd'
p4884
S'1188'
p4885
sS'Lemma'
p4886
S'breach'
p4887
sS'PartOfSpeech'
p4888
S'VBD'
p4889
sS'CharacterOffsetBegin'
p4890
S'1180'
p4891
stp4892
a(S'relevant'
p4893
(dp4894
S'NamedEntityTag'
p4895
g83
sS'CharacterOffsetEnd'
p4896
S'1197'
p4897
sS'Lemma'
p4898
S'relevant'
p4899
sS'PartOfSpeech'
p4900
S'JJ'
p4901
sS'CharacterOffsetBegin'
p4902
S'1189'
p4903
stp4904
a(S'provisions'
p4905
(dp4906
S'NamedEntityTag'
p4907
g83
sS'CharacterOffsetEnd'
p4908
S'1208'
p4909
sS'Lemma'
p4910
S'provision'
p4911
sS'PartOfSpeech'
p4912
S'NNS'
p4913
sS'CharacterOffsetBegin'
p4914
S'1198'
p4915
stp4916
a(S'of'
p4917
(dp4918
S'NamedEntityTag'
p4919
g83
sS'CharacterOffsetEnd'
p4920
S'1211'
p4921
sS'Lemma'
p4922
S'of'
p4923
sS'PartOfSpeech'
p4924
S'IN'
p4925
sS'CharacterOffsetBegin'
p4926
S'1209'
p4927
stp4928
a(S'the'
p4929
(dp4930
S'NamedEntityTag'
p4931
g83
sS'CharacterOffsetEnd'
p4932
S'1215'
p4933
sS'Lemma'
p4934
S'the'
p4935
sS'PartOfSpeech'
p4936
S'DT'
p4937
sS'CharacterOffsetBegin'
p4938
S'1212'
p4939
stp4940
a(S'criminal'
p4941
(dp4942
S'NamedEntityTag'
p4943
g83
sS'CharacterOffsetEnd'
p4944
S'1224'
p4945
sS'Lemma'
p4946
S'criminal'
p4947
sS'PartOfSpeech'
p4948
S'JJ'
p4949
sS'CharacterOffsetBegin'
p4950
S'1216'
p4951
stp4952
a(S'laws'
p4953
(dp4954
S'NamedEntityTag'
p4955
g83
sS'CharacterOffsetEnd'
p4956
S'1229'
p4957
sS'Lemma'
p4958
S'law'
p4959
sS'PartOfSpeech'
p4960
S'NNS'
p4961
sS'CharacterOffsetBegin'
p4962
S'1225'
p4963
stp4964
a(S'of'
p4965
(dp4966
S'NamedEntityTag'
p4967
g83
sS'CharacterOffsetEnd'
p4968
S'1232'
p4969
sS'Lemma'
p4970
S'of'
p4971
sS'PartOfSpeech'
p4972
S'IN'
p4973
sS'CharacterOffsetBegin'
p4974
S'1230'
p4975
stp4976
a(S'the'
p4977
(dp4978
S'NamedEntityTag'
p4979
g83
sS'CharacterOffsetEnd'
p4980
S'1236'
p4981
sS'Lemma'
p4982
S'the'
p4983
sS'PartOfSpeech'
p4984
S'DT'
p4985
sS'CharacterOffsetBegin'
p4986
S'1233'
p4987
stp4988
a(S'Peoples'
p4989
(dp4990
S'NamedEntityTag'
p4991
S'LOCATION'
p4992
sS'CharacterOffsetEnd'
p4993
S'1244'
p4994
sS'Lemma'
p4995
S'Peoples'
p4996
sS'PartOfSpeech'
p4997
S'NNPS'
p4998
sS'CharacterOffsetBegin'
p4999
S'1237'
p5000
stp5001
a(S'Republic'
p5002
(dp5003
S'NamedEntityTag'
p5004
S'LOCATION'
p5005
sS'CharacterOffsetEnd'
p5006
S'1253'
p5007
sS'Lemma'
p5008
S'Republic'
p5009
sS'PartOfSpeech'
p5010
S'NNP'
p5011
sS'CharacterOffsetBegin'
p5012
S'1245'
p5013
stp5014
a(S'of'
p5015
(dp5016
S'NamedEntityTag'
p5017
S'LOCATION'
p5018
sS'CharacterOffsetEnd'
p5019
S'1256'
p5020
sS'Lemma'
p5021
S'of'
p5022
sS'PartOfSpeech'
p5023
S'IN'
p5024
sS'CharacterOffsetBegin'
p5025
S'1254'
p5026
stp5027
a(S'China'
p5028
(dp5029
S'NamedEntityTag'
p5030
S'LOCATION'
p5031
sS'CharacterOffsetEnd'
p5032
S'1262'
p5033
sS'Lemma'
p5034
S'China'
p5035
sS'PartOfSpeech'
p5036
S'NNP'
p5037
sS'CharacterOffsetBegin'
p5038
S'1257'
p5039
stp5040
a(g329
(dp5041
S'NamedEntityTag'
p5042
g83
sS'CharacterOffsetEnd'
p5043
S'1263'
p5044
sS'Lemma'
p5045
g329
sS'PartOfSpeech'
p5046
g329
sS'CharacterOffsetBegin'
p5047
S'1262'
p5048
stp5049
a(S'Zhu'
p5050
(dp5051
S'NamedEntityTag'
p5052
S'PERSON'
p5053
sS'CharacterOffsetEnd'
p5054
S'1267'
p5055
sS'Lemma'
p5056
S'Zhu'
p5057
sS'PartOfSpeech'
p5058
S'NNP'
p5059
sS'CharacterOffsetBegin'
p5060
S'1264'
p5061
stp5062
a(S'said'
p5063
(dp5064
S'NamedEntityTag'
p5065
g83
sS'CharacterOffsetEnd'
p5066
S'1272'
p5067
sS'Lemma'
p5068
S'say'
p5069
sS'PartOfSpeech'
p5070
S'VBD'
p5071
sS'CharacterOffsetBegin'
p5072
S'1268'
p5073
stp5074
a(S'at'
p5075
(dp5076
S'NamedEntityTag'
p5077
g83
sS'CharacterOffsetEnd'
p5078
S'1275'
p5079
sS'Lemma'
p5080
S'at'
p5081
sS'PartOfSpeech'
p5082
S'IN'
p5083
sS'CharacterOffsetBegin'
p5084
S'1273'
p5085
stp5086
a(g1222
(dp5087
S'NamedEntityTag'
p5088
g83
sS'CharacterOffsetEnd'
p5089
S'1277'
p5090
sS'Lemma'
p5091
g1222
sS'PartOfSpeech'
p5092
S'DT'
p5093
sS'CharacterOffsetBegin'
p5094
S'1276'
p5095
stp5096
a(S'twice-weekly'
p5097
(dp5098
S'NamedEntityTag'
p5099
g83
sS'CharacterOffsetEnd'
p5100
S'1290'
p5101
sS'Lemma'
p5102
S'twice-weekly'
p5103
sS'PartOfSpeech'
p5104
S'JJ'
p5105
sS'CharacterOffsetBegin'
p5106
S'1278'
p5107
stp5108
a(S'briefing'
p5109
(dp5110
S'NamedEntityTag'
p5111
g83
sS'CharacterOffsetEnd'
p5112
S'1299'
p5113
sS'Lemma'
p5114
S'briefing'
p5115
sS'PartOfSpeech'
p5116
S'NN'
p5117
sS'CharacterOffsetBegin'
p5118
S'1291'
p5119
stp5120
a(g1713
(dp5121
S'NamedEntityTag'
p5122
g83
sS'CharacterOffsetEnd'
p5123
S'1300'
p5124
sS'Lemma'
p5125
g1713
sS'PartOfSpeech'
p5126
g1713
sS'CharacterOffsetBegin'
p5127
S'1299'
p5128
stp5129
asa(dp5130
g7
S'(ROOT (S (S (NP (NP (NNS Police)) (PP (IN in) (NP (NNP Hangzhou) (NN city)))) (VP (VBN notified) (NP (NNP Wangs) (NN wife)) (NP-TMP (NNP Wednesday)) (SBAR (IN that) (S (NP (NNS charges)) (VP (VBP have) (ADVP (RB already)) (VP (VBN been) (VP (VBN submitted) (PP (TO to) (NP (NNS prosecutors))) (, ,) (S (VP (VBG bringing) (NP (PRP him)) (PP (ADVP (NP (DT a) (NN step)) (RBR closer)) (TO to) (NP (NN trial)))))))))))) (, ,) (NP (DT the) (NNP Information) (NNP Center)) (VP (VBD said)) (. .)))'
p5131
sg9
S'Police in Hangzhou city notified Wangs wife Wednesday that charges have already been submitted to prosecutors, bringing him a step closer to trial, the Information Center said.'
p5132
sg11
(lp5133
(S'root'
p5134
S'ROOT'
p5135
S'said'
p5136
tp5137
a(S'nsubj'
p5138
S'notified'
p5139
S'Police'
p5140
tp5141
a(S'nn'
p5142
S'city'
p5143
S'Hangzhou'
p5144
tp5145
a(S'prep_in'
p5146
S'Police'
p5147
S'city'
p5148
tp5149
a(S'partmod'
p5150
S'said'
p5151
S'notified'
p5152
tp5153
a(S'nn'
p5154
S'wife'
p5155
S'Wangs'
p5156
tp5157
a(S'dobj'
p5158
S'notified'
p5159
S'wife'
p5160
tp5161
a(S'tmod'
p5162
S'notified'
p5163
S'Wednesday'
p5164
tp5165
a(S'mark'
p5166
S'submitted'
p5167
S'that'
p5168
tp5169
a(S'nsubjpass'
p5170
S'submitted'
p5171
S'charges'
p5172
tp5173
a(S'aux'
p5174
S'submitted'
p5175
S'have'
p5176
tp5177
a(S'advmod'
p5178
S'submitted'
p5179
S'already'
p5180
tp5181
a(S'auxpass'
p5182
S'submitted'
p5183
S'been'
p5184
tp5185
a(S'ccomp'
p5186
S'notified'
p5187
S'submitted'
p5188
tp5189
a(S'prep_to'
p5190
S'submitted'
p5191
S'prosecutors'
p5192
tp5193
a(S'xcomp'
p5194
S'submitted'
p5195
S'bringing'
p5196
tp5197
a(S'dobj'
p5198
S'bringing'
p5199
S'him'
p5200
tp5201
a(S'det'
p5202
S'step'
p5203
g1222
tp5204
a(S'npadvmod'
p5205
S'closer'
p5206
S'step'
p5207
tp5208
a(S'advmod'
p5209
S'bringing'
p5210
S'closer'
p5211
tp5212
a(S'prep_to'
p5213
S'bringing'
p5214
S'trial'
p5215
tp5216
a(S'det'
p5217
S'Center'
p5218
S'the'
p5219
tp5220
a(S'nn'
p5221
S'Center'
p5222
S'Information'
p5223
tp5224
a(S'nsubj'
p5225
S'said'
p5226
S'Center'
p5227
tp5228
asg49
(lp5229
(g5134
S'ROOT-0'
p5230
S'said-29'
p5231
tp5232
a(g5138
S'notified-5'
p5233
S'Police-1'
p5234
tp5235
a(g5142
S'city-4'
p5236
S'Hangzhou-3'
p5237
tp5238
a(g5146
S'Police-1'
p5239
S'city-4'
p5240
tp5241
a(g5150
S'said-29'
p5242
S'notified-5'
p5243
tp5244
a(g5154
S'wife-7'
p5245
S'Wangs-6'
p5246
tp5247
a(g5158
S'notified-5'
p5248
S'wife-7'
p5249
tp5250
a(g5162
S'notified-5'
p5251
S'Wednesday-8'
p5252
tp5253
a(g5166
S'submitted-14'
p5254
S'that-9'
p5255
tp5256
a(g5170
S'submitted-14'
p5257
S'charges-10'
p5258
tp5259
a(g5174
S'submitted-14'
p5260
S'have-11'
p5261
tp5262
a(g5178
S'submitted-14'
p5263
S'already-12'
p5264
tp5265
a(g5182
S'submitted-14'
p5266
S'been-13'
p5267
tp5268
a(g5186
S'notified-5'
p5269
S'submitted-14'
p5270
tp5271
a(g5190
S'submitted-14'
p5272
S'prosecutors-16'
p5273
tp5274
a(g5194
S'submitted-14'
p5275
S'bringing-18'
p5276
tp5277
a(g5198
S'bringing-18'
p5278
S'him-19'
p5279
tp5280
a(g5202
S'step-21'
p5281
S'a-20'
p5282
tp5283
a(g5205
S'closer-22'
p5284
S'step-21'
p5285
tp5286
a(g5209
S'bringing-18'
p5287
S'closer-22'
p5288
tp5289
a(g5213
S'bringing-18'
p5290
S'trial-24'
p5291
tp5292
a(g5217
S'Center-28'
p5293
S'the-26'
p5294
tp5295
a(g5221
S'Center-28'
p5296
S'Information-27'
p5297
tp5298
a(g5225
S'said-29'
p5299
S'Center-28'
p5300
tp5301
asg78
(lp5302
(S'Police'
p5303
(dp5304
S'NamedEntityTag'
p5305
g83
sS'CharacterOffsetEnd'
p5306
S'1307'
p5307
sS'Lemma'
p5308
S'police'
p5309
sS'PartOfSpeech'
p5310
S'NNS'
p5311
sS'CharacterOffsetBegin'
p5312
S'1301'
p5313
stp5314
a(S'in'
p5315
(dp5316
S'NamedEntityTag'
p5317
g83
sS'CharacterOffsetEnd'
p5318
S'1310'
p5319
sS'Lemma'
p5320
S'in'
p5321
sS'PartOfSpeech'
p5322
S'IN'
p5323
sS'CharacterOffsetBegin'
p5324
S'1308'
p5325
stp5326
a(S'Hangzhou'
p5327
(dp5328
S'NamedEntityTag'
p5329
S'LOCATION'
p5330
sS'CharacterOffsetEnd'
p5331
S'1319'
p5332
sS'Lemma'
p5333
S'Hangzhou'
p5334
sS'PartOfSpeech'
p5335
S'NNP'
p5336
sS'CharacterOffsetBegin'
p5337
S'1311'
p5338
stp5339
a(S'city'
p5340
(dp5341
S'NamedEntityTag'
p5342
g83
sS'CharacterOffsetEnd'
p5343
S'1324'
p5344
sS'Lemma'
p5345
S'city'
p5346
sS'PartOfSpeech'
p5347
S'NN'
p5348
sS'CharacterOffsetBegin'
p5349
S'1320'
p5350
stp5351
a(S'notified'
p5352
(dp5353
S'NamedEntityTag'
p5354
g83
sS'CharacterOffsetEnd'
p5355
S'1333'
p5356
sS'Lemma'
p5357
S'notify'
p5358
sS'PartOfSpeech'
p5359
S'VBN'
p5360
sS'CharacterOffsetBegin'
p5361
S'1325'
p5362
stp5363
a(S'Wangs'
p5364
(dp5365
S'NamedEntityTag'
p5366
S'ORGANIZATION'
p5367
sS'CharacterOffsetEnd'
p5368
S'1339'
p5369
sS'Lemma'
p5370
S'Wangs'
p5371
sS'PartOfSpeech'
p5372
S'NNP'
p5373
sS'CharacterOffsetBegin'
p5374
S'1334'
p5375
stp5376
a(S'wife'
p5377
(dp5378
S'NamedEntityTag'
p5379
g83
sS'CharacterOffsetEnd'
p5380
S'1344'
p5381
sS'Lemma'
p5382
S'wife'
p5383
sS'PartOfSpeech'
p5384
S'NN'
p5385
sS'CharacterOffsetBegin'
p5386
S'1340'
p5387
stp5388
a(S'Wednesday'
p5389
(dp5390
S'NormalizedNamedEntityTag'
p5391
S'XXXX-WXX-3'
p5392
sS'Timex'
p5393
S'<TIMEX3 tid="t8" type="DATE" value="XXXX-WXX-3">Wednesday</TIMEX3>'
p5394
sS'Lemma'
p5395
S'Wednesday'
p5396
sS'CharacterOffsetEnd'
p5397
S'1354'
p5398
sS'PartOfSpeech'
p5399
S'NNP'
p5400
sS'CharacterOffsetBegin'
p5401
S'1345'
p5402
sS'NamedEntityTag'
p5403
S'DATE'
p5404
stp5405
a(S'that'
p5406
(dp5407
S'NamedEntityTag'
p5408
g83
sS'CharacterOffsetEnd'
p5409
S'1359'
p5410
sS'Lemma'
p5411
S'that'
p5412
sS'PartOfSpeech'
p5413
S'IN'
p5414
sS'CharacterOffsetBegin'
p5415
S'1355'
p5416
stp5417
a(S'charges'
p5418
(dp5419
S'NamedEntityTag'
p5420
g83
sS'CharacterOffsetEnd'
p5421
S'1367'
p5422
sS'Lemma'
p5423
S'charge'
p5424
sS'PartOfSpeech'
p5425
S'NNS'
p5426
sS'CharacterOffsetBegin'
p5427
S'1360'
p5428
stp5429
a(S'have'
p5430
(dp5431
S'NamedEntityTag'
p5432
g83
sS'CharacterOffsetEnd'
p5433
S'1372'
p5434
sS'Lemma'
p5435
S'have'
p5436
sS'PartOfSpeech'
p5437
S'VBP'
p5438
sS'CharacterOffsetBegin'
p5439
S'1368'
p5440
stp5441
a(S'already'
p5442
(dp5443
S'NamedEntityTag'
p5444
g83
sS'CharacterOffsetEnd'
p5445
S'1380'
p5446
sS'Lemma'
p5447
S'already'
p5448
sS'PartOfSpeech'
p5449
S'RB'
p5450
sS'CharacterOffsetBegin'
p5451
S'1373'
p5452
stp5453
a(S'been'
p5454
(dp5455
S'NamedEntityTag'
p5456
g83
sS'CharacterOffsetEnd'
p5457
S'1385'
p5458
sS'Lemma'
p5459
S'be'
p5460
sS'PartOfSpeech'
p5461
S'VBN'
p5462
sS'CharacterOffsetBegin'
p5463
S'1381'
p5464
stp5465
a(S'submitted'
p5466
(dp5467
S'NamedEntityTag'
p5468
g83
sS'CharacterOffsetEnd'
p5469
S'1395'
p5470
sS'Lemma'
p5471
S'submit'
p5472
sS'PartOfSpeech'
p5473
S'VBN'
p5474
sS'CharacterOffsetBegin'
p5475
S'1386'
p5476
stp5477
a(S'to'
p5478
(dp5479
S'NamedEntityTag'
p5480
g83
sS'CharacterOffsetEnd'
p5481
S'1398'
p5482
sS'Lemma'
p5483
S'to'
p5484
sS'PartOfSpeech'
p5485
S'TO'
p5486
sS'CharacterOffsetBegin'
p5487
S'1396'
p5488
stp5489
a(S'prosecutors'
p5490
(dp5491
S'NamedEntityTag'
p5492
g83
sS'CharacterOffsetEnd'
p5493
S'1410'
p5494
sS'Lemma'
p5495
S'prosecutor'
p5496
sS'PartOfSpeech'
p5497
S'NNS'
p5498
sS'CharacterOffsetBegin'
p5499
S'1399'
p5500
stp5501
a(g329
(dp5502
S'NamedEntityTag'
p5503
g83
sS'CharacterOffsetEnd'
p5504
S'1411'
p5505
sS'Lemma'
p5506
g329
sS'PartOfSpeech'
p5507
g329
sS'CharacterOffsetBegin'
p5508
S'1410'
p5509
stp5510
a(S'bringing'
p5511
(dp5512
S'NamedEntityTag'
p5513
g83
sS'CharacterOffsetEnd'
p5514
S'1420'
p5515
sS'Lemma'
p5516
S'bring'
p5517
sS'PartOfSpeech'
p5518
S'VBG'
p5519
sS'CharacterOffsetBegin'
p5520
S'1412'
p5521
stp5522
a(S'him'
p5523
(dp5524
S'NamedEntityTag'
p5525
g83
sS'CharacterOffsetEnd'
p5526
S'1424'
p5527
sS'Lemma'
p5528
S'he'
p5529
sS'PartOfSpeech'
p5530
S'PRP'
p5531
sS'CharacterOffsetBegin'
p5532
S'1421'
p5533
stp5534
a(g1222
(dp5535
S'NamedEntityTag'
p5536
g83
sS'CharacterOffsetEnd'
p5537
S'1426'
p5538
sS'Lemma'
p5539
g1222
sS'PartOfSpeech'
p5540
S'DT'
p5541
sS'CharacterOffsetBegin'
p5542
S'1425'
p5543
stp5544
a(S'step'
p5545
(dp5546
S'NamedEntityTag'
p5547
g83
sS'CharacterOffsetEnd'
p5548
S'1431'
p5549
sS'Lemma'
p5550
S'step'
p5551
sS'PartOfSpeech'
p5552
S'NN'
p5553
sS'CharacterOffsetBegin'
p5554
S'1427'
p5555
stp5556
a(S'closer'
p5557
(dp5558
S'NamedEntityTag'
p5559
g83
sS'CharacterOffsetEnd'
p5560
S'1438'
p5561
sS'Lemma'
p5562
S'closer'
p5563
sS'PartOfSpeech'
p5564
S'RBR'
p5565
sS'CharacterOffsetBegin'
p5566
S'1432'
p5567
stp5568
a(S'to'
p5569
(dp5570
S'NamedEntityTag'
p5571
g83
sS'CharacterOffsetEnd'
p5572
S'1441'
p5573
sS'Lemma'
p5574
S'to'
p5575
sS'PartOfSpeech'
p5576
S'TO'
p5577
sS'CharacterOffsetBegin'
p5578
S'1439'
p5579
stp5580
a(S'trial'
p5581
(dp5582
S'NamedEntityTag'
p5583
g83
sS'CharacterOffsetEnd'
p5584
S'1447'
p5585
sS'Lemma'
p5586
S'trial'
p5587
sS'PartOfSpeech'
p5588
S'NN'
p5589
sS'CharacterOffsetBegin'
p5590
S'1442'
p5591
stp5592
a(g329
(dp5593
S'NamedEntityTag'
p5594
g83
sS'CharacterOffsetEnd'
p5595
S'1448'
p5596
sS'Lemma'
p5597
g329
sS'PartOfSpeech'
p5598
g329
sS'CharacterOffsetBegin'
p5599
S'1447'
p5600
stp5601
a(S'the'
p5602
(dp5603
S'NamedEntityTag'
p5604
g83
sS'CharacterOffsetEnd'
p5605
S'1452'
p5606
sS'Lemma'
p5607
S'the'
p5608
sS'PartOfSpeech'
p5609
S'DT'
p5610
sS'CharacterOffsetBegin'
p5611
S'1449'
p5612
stp5613
a(S'Information'
p5614
(dp5615
S'NamedEntityTag'
p5616
S'ORGANIZATION'
p5617
sS'CharacterOffsetEnd'
p5618
S'1464'
p5619
sS'Lemma'
p5620
S'Information'
p5621
sS'PartOfSpeech'
p5622
S'NNP'
p5623
sS'CharacterOffsetBegin'
p5624
S'1453'
p5625
stp5626
a(S'Center'
p5627
(dp5628
S'NamedEntityTag'
p5629
S'ORGANIZATION'
p5630
sS'CharacterOffsetEnd'
p5631
S'1471'
p5632
sS'Lemma'
p5633
S'Center'
p5634
sS'PartOfSpeech'
p5635
S'NNP'
p5636
sS'CharacterOffsetBegin'
p5637
S'1465'
p5638
stp5639
a(S'said'
p5640
(dp5641
S'NamedEntityTag'
p5642
g83
sS'CharacterOffsetEnd'
p5643
S'1476'
p5644
sS'Lemma'
p5645
S'say'
p5646
sS'PartOfSpeech'
p5647
S'VBD'
p5648
sS'CharacterOffsetBegin'
p5649
S'1472'
p5650
stp5651
a(g1713
(dp5652
S'NamedEntityTag'
p5653
g83
sS'CharacterOffsetEnd'
p5654
S'1477'
p5655
sS'Lemma'
p5656
g1713
sS'PartOfSpeech'
p5657
g1713
sS'CharacterOffsetBegin'
p5658
S'1476'
p5659
stp5660
asa(dp5661
g7
S'(ROOT (S (NP (NNP Xu) (CC and) (NNP Qin)) (VP (VBP are) (NP (NP (JJ influential) (NNS figures)) (PP (IN in) (NP (DT the) (JJ dissident) (NN community)))) (, ,) (S (VP (VBG having) (VP (VBN started) (NP (PRP$ their) (NN campaign)) (PP (IN for) (NP (NN change))) (PP (ADVP (NP (CD 20) (NNS years)) (RB ago)) (IN in) (NP (DT the) (JJ seminal) (NNP Democracy) (NNP Wall) (NN movement))))))) (. .)))'
p5662
sg9
S'Xu and Qin are influential figures in the dissident community, having started their campaign for change 20 years ago in the seminal Democracy Wall movement.'
p5663
sg11
(lp5664
(S'root'
p5665
S'ROOT'
p5666
S'figures'
p5667
tp5668
a(S'nsubj'
p5669
S'figures'
p5670
S'Xu'
p5671
tp5672
a(S'conj_and'
p5673
S'Xu'
p5674
S'Qin'
p5675
tp5676
a(S'cop'
p5677
S'figures'
p5678
S'are'
p5679
tp5680
a(S'amod'
p5681
S'figures'
p5682
S'influential'
p5683
tp5684
a(S'det'
p5685
S'community'
p5686
S'the'
p5687
tp5688
a(S'amod'
p5689
S'community'
p5690
S'dissident'
p5691
tp5692
a(S'prep_in'
p5693
S'figures'
p5694
S'community'
p5695
tp5696
a(S'aux'
p5697
S'started'
p5698
S'having'
p5699
tp5700
a(S'partmod'
p5701
S'figures'
p5702
S'started'
p5703
tp5704
a(S'poss'
p5705
S'campaign'
p5706
S'their'
p5707
tp5708
a(S'dobj'
p5709
S'started'
p5710
S'campaign'
p5711
tp5712
a(S'prep_for'
p5713
S'started'
p5714
S'change'
p5715
tp5716
a(S'num'
p5717
S'years'
p5718
S'20'
p5719
tp5720
a(S'npadvmod'
p5721
S'ago'
p5722
S'years'
p5723
tp5724
a(S'advmod'
p5725
S'started'
p5726
S'ago'
p5727
tp5728
a(S'det'
p5729
S'movement'
p5730
S'the'
p5731
tp5732
a(S'amod'
p5733
S'movement'
p5734
S'seminal'
p5735
tp5736
a(S'nn'
p5737
S'movement'
p5738
S'Democracy'
p5739
tp5740
a(S'nn'
p5741
S'movement'
p5742
S'Wall'
p5743
tp5744
a(S'prep_in'
p5745
S'started'
p5746
S'movement'
p5747
tp5748
asg49
(lp5749
(g5665
S'ROOT-0'
p5750
S'figures-6'
p5751
tp5752
a(g5669
S'figures-6'
p5753
S'Xu-1'
p5754
tp5755
a(g5673
S'Xu-1'
p5756
S'Qin-3'
p5757
tp5758
a(g5677
S'figures-6'
p5759
S'are-4'
p5760
tp5761
a(g5681
S'figures-6'
p5762
S'influential-5'
p5763
tp5764
a(g5685
S'community-10'
p5765
S'the-8'
p5766
tp5767
a(g5689
S'community-10'
p5768
S'dissident-9'
p5769
tp5770
a(g5693
S'figures-6'
p5771
S'community-10'
p5772
tp5773
a(g5697
S'started-13'
p5774
S'having-12'
p5775
tp5776
a(g5701
S'figures-6'
p5777
S'started-13'
p5778
tp5779
a(g5705
S'campaign-15'
p5780
S'their-14'
p5781
tp5782
a(g5709
S'started-13'
p5783
S'campaign-15'
p5784
tp5785
a(g5713
S'started-13'
p5786
S'change-17'
p5787
tp5788
a(g5717
S'years-19'
p5789
S'20-18'
p5790
tp5791
a(g5721
S'ago-20'
p5792
S'years-19'
p5793
tp5794
a(g5725
S'started-13'
p5795
S'ago-20'
p5796
tp5797
a(g5729
S'movement-26'
p5798
S'the-22'
p5799
tp5800
a(g5733
S'movement-26'
p5801
S'seminal-23'
p5802
tp5803
a(g5737
S'movement-26'
p5804
S'Democracy-24'
p5805
tp5806
a(g5741
S'movement-26'
p5807
S'Wall-25'
p5808
tp5809
a(g5745
S'started-13'
p5810
S'movement-26'
p5811
tp5812
asg78
(lp5813
(S'Xu'
p5814
(dp5815
S'NamedEntityTag'
p5816
g83
sS'CharacterOffsetEnd'
p5817
S'1480'
p5818
sS'Lemma'
p5819
S'Xu'
p5820
sS'PartOfSpeech'
p5821
S'NNP'
p5822
sS'CharacterOffsetBegin'
p5823
S'1478'
p5824
stp5825
a(S'and'
p5826
(dp5827
S'NamedEntityTag'
p5828
g83
sS'CharacterOffsetEnd'
p5829
S'1484'
p5830
sS'Lemma'
p5831
S'and'
p5832
sS'PartOfSpeech'
p5833
S'CC'
p5834
sS'CharacterOffsetBegin'
p5835
S'1481'
p5836
stp5837
a(S'Qin'
p5838
(dp5839
S'NamedEntityTag'
p5840
S'PERSON'
p5841
sS'CharacterOffsetEnd'
p5842
S'1488'
p5843
sS'Lemma'
p5844
S'Qin'
p5845
sS'PartOfSpeech'
p5846
S'NNP'
p5847
sS'CharacterOffsetBegin'
p5848
S'1485'
p5849
stp5850
a(S'are'
p5851
(dp5852
S'NamedEntityTag'
p5853
g83
sS'CharacterOffsetEnd'
p5854
S'1492'
p5855
sS'Lemma'
p5856
S'be'
p5857
sS'PartOfSpeech'
p5858
S'VBP'
p5859
sS'CharacterOffsetBegin'
p5860
S'1489'
p5861
stp5862
a(S'influential'
p5863
(dp5864
S'NamedEntityTag'
p5865
g83
sS'CharacterOffsetEnd'
p5866
S'1504'
p5867
sS'Lemma'
p5868
S'influential'
p5869
sS'PartOfSpeech'
p5870
S'JJ'
p5871
sS'CharacterOffsetBegin'
p5872
S'1493'
p5873
stp5874
a(S'figures'
p5875
(dp5876
S'NamedEntityTag'
p5877
g83
sS'CharacterOffsetEnd'
p5878
S'1512'
p5879
sS'Lemma'
p5880
S'figure'
p5881
sS'PartOfSpeech'
p5882
S'NNS'
p5883
sS'CharacterOffsetBegin'
p5884
S'1505'
p5885
stp5886
a(S'in'
p5887
(dp5888
S'NamedEntityTag'
p5889
g83
sS'CharacterOffsetEnd'
p5890
S'1515'
p5891
sS'Lemma'
p5892
S'in'
p5893
sS'PartOfSpeech'
p5894
S'IN'
p5895
sS'CharacterOffsetBegin'
p5896
S'1513'
p5897
stp5898
a(S'the'
p5899
(dp5900
S'NamedEntityTag'
p5901
g83
sS'CharacterOffsetEnd'
p5902
S'1519'
p5903
sS'Lemma'
p5904
S'the'
p5905
sS'PartOfSpeech'
p5906
S'DT'
p5907
sS'CharacterOffsetBegin'
p5908
S'1516'
p5909
stp5910
a(S'dissident'
p5911
(dp5912
S'NamedEntityTag'
p5913
g83
sS'CharacterOffsetEnd'
p5914
S'1529'
p5915
sS'Lemma'
p5916
S'dissident'
p5917
sS'PartOfSpeech'
p5918
S'JJ'
p5919
sS'CharacterOffsetBegin'
p5920
S'1520'
p5921
stp5922
a(S'community'
p5923
(dp5924
S'NamedEntityTag'
p5925
g83
sS'CharacterOffsetEnd'
p5926
S'1539'
p5927
sS'Lemma'
p5928
S'community'
p5929
sS'PartOfSpeech'
p5930
S'NN'
p5931
sS'CharacterOffsetBegin'
p5932
S'1530'
p5933
stp5934
a(g329
(dp5935
S'NamedEntityTag'
p5936
g83
sS'CharacterOffsetEnd'
p5937
S'1540'
p5938
sS'Lemma'
p5939
g329
sS'PartOfSpeech'
p5940
g329
sS'CharacterOffsetBegin'
p5941
S'1539'
p5942
stp5943
a(S'having'
p5944
(dp5945
S'NamedEntityTag'
p5946
g83
sS'CharacterOffsetEnd'
p5947
S'1547'
p5948
sS'Lemma'
p5949
S'have'
p5950
sS'PartOfSpeech'
p5951
S'VBG'
p5952
sS'CharacterOffsetBegin'
p5953
S'1541'
p5954
stp5955
a(S'started'
p5956
(dp5957
S'NamedEntityTag'
p5958
g83
sS'CharacterOffsetEnd'
p5959
S'1555'
p5960
sS'Lemma'
p5961
S'start'
p5962
sS'PartOfSpeech'
p5963
S'VBN'
p5964
sS'CharacterOffsetBegin'
p5965
S'1548'
p5966
stp5967
a(S'their'
p5968
(dp5969
S'NamedEntityTag'
p5970
g83
sS'CharacterOffsetEnd'
p5971
S'1561'
p5972
sS'Lemma'
p5973
S'they'
p5974
sS'PartOfSpeech'
p5975
S'PRP$'
p5976
sS'CharacterOffsetBegin'
p5977
S'1556'
p5978
stp5979
a(S'campaign'
p5980
(dp5981
S'NamedEntityTag'
p5982
g83
sS'CharacterOffsetEnd'
p5983
S'1570'
p5984
sS'Lemma'
p5985
S'campaign'
p5986
sS'PartOfSpeech'
p5987
S'NN'
p5988
sS'CharacterOffsetBegin'
p5989
S'1562'
p5990
stp5991
a(S'for'
p5992
(dp5993
S'NamedEntityTag'
p5994
g83
sS'CharacterOffsetEnd'
p5995
S'1574'
p5996
sS'Lemma'
p5997
S'for'
p5998
sS'PartOfSpeech'
p5999
S'IN'
p6000
sS'CharacterOffsetBegin'
p6001
S'1571'
p6002
stp6003
a(S'change'
p6004
(dp6005
S'NamedEntityTag'
p6006
g83
sS'CharacterOffsetEnd'
p6007
S'1581'
p6008
sS'Lemma'
p6009
S'change'
p6010
sS'PartOfSpeech'
p6011
S'NN'
p6012
sS'CharacterOffsetBegin'
p6013
S'1575'
p6014
stp6015
a(S'20'
p6016
(dp6017
S'NormalizedNamedEntityTag'
p6018
S'OFFSET'
p6019
sS'Timex'
p6020
S'<TIMEX3 alt_value="OFFSET P-20Y" anchorTimeID="t0" temporalFunction="true" tid="t9" type="DATE" valueFromFunction="tf2">20 years ago</TIMEX3>'
p6021
sS'Lemma'
p6022
S'20'
p6023
sS'CharacterOffsetEnd'
p6024
S'1584'
p6025
sS'PartOfSpeech'
p6026
S'CD'
p6027
sS'CharacterOffsetBegin'
p6028
S'1582'
p6029
sS'NamedEntityTag'
p6030
S'DATE'
p6031
stp6032
a(S'years'
p6033
(dp6034
S'NormalizedNamedEntityTag'
p6035
S'OFFSET'
p6036
sS'Timex'
p6037
S'<TIMEX3 alt_value="OFFSET P-20Y" anchorTimeID="t0" temporalFunction="true" tid="t9" type="DATE" valueFromFunction="tf2">20 years ago</TIMEX3>'
p6038
sS'Lemma'
p6039
S'year'
p6040
sS'CharacterOffsetEnd'
p6041
S'1590'
p6042
sS'PartOfSpeech'
p6043
S'NNS'
p6044
sS'CharacterOffsetBegin'
p6045
S'1585'
p6046
sS'NamedEntityTag'
p6047
S'DATE'
p6048
stp6049
a(S'ago'
p6050
(dp6051
S'NormalizedNamedEntityTag'
p6052
S'OFFSET'
p6053
sS'Timex'
p6054
S'<TIMEX3 alt_value="OFFSET P-20Y" anchorTimeID="t0" temporalFunction="true" tid="t9" type="DATE" valueFromFunction="tf2">20 years ago</TIMEX3>'
p6055
sS'Lemma'
p6056
S'ago'
p6057
sS'CharacterOffsetEnd'
p6058
S'1594'
p6059
sS'PartOfSpeech'
p6060
S'RB'
p6061
sS'CharacterOffsetBegin'
p6062
S'1591'
p6063
sS'NamedEntityTag'
p6064
S'DATE'
p6065
stp6066
a(S'in'
p6067
(dp6068
S'NamedEntityTag'
p6069
g83
sS'CharacterOffsetEnd'
p6070
S'1597'
p6071
sS'Lemma'
p6072
S'in'
p6073
sS'PartOfSpeech'
p6074
S'IN'
p6075
sS'CharacterOffsetBegin'
p6076
S'1595'
p6077
stp6078
a(S'the'
p6079
(dp6080
S'NamedEntityTag'
p6081
g83
sS'CharacterOffsetEnd'
p6082
S'1601'
p6083
sS'Lemma'
p6084
S'the'
p6085
sS'PartOfSpeech'
p6086
S'DT'
p6087
sS'CharacterOffsetBegin'
p6088
S'1598'
p6089
stp6090
a(S'seminal'
p6091
(dp6092
S'NamedEntityTag'
p6093
g83
sS'CharacterOffsetEnd'
p6094
S'1609'
p6095
sS'Lemma'
p6096
S'seminal'
p6097
sS'PartOfSpeech'
p6098
S'JJ'
p6099
sS'CharacterOffsetBegin'
p6100
S'1602'
p6101
stp6102
a(S'Democracy'
p6103
(dp6104
S'NamedEntityTag'
p6105
g83
sS'CharacterOffsetEnd'
p6106
S'1619'
p6107
sS'Lemma'
p6108
S'Democracy'
p6109
sS'PartOfSpeech'
p6110
S'NNP'
p6111
sS'CharacterOffsetBegin'
p6112
S'1610'
p6113
stp6114
a(S'Wall'
p6115
(dp6116
S'NamedEntityTag'
p6117
g83
sS'CharacterOffsetEnd'
p6118
S'1624'
p6119
sS'Lemma'
p6120
S'Wall'
p6121
sS'PartOfSpeech'
p6122
S'NNP'
p6123
sS'CharacterOffsetBegin'
p6124
S'1620'
p6125
stp6126
a(S'movement'
p6127
(dp6128
S'NamedEntityTag'
p6129
g83
sS'CharacterOffsetEnd'
p6130
S'1633'
p6131
sS'Lemma'
p6132
S'movement'
p6133
sS'PartOfSpeech'
p6134
S'NN'
p6135
sS'CharacterOffsetBegin'
p6136
S'1625'
p6137
stp6138
a(g1713
(dp6139
S'NamedEntityTag'
p6140
g83
sS'CharacterOffsetEnd'
p6141
S'1634'
p6142
sS'Lemma'
p6143
g1713
sS'PartOfSpeech'
p6144
g1713
sS'CharacterOffsetBegin'
p6145
S'1633'
p6146
stp6147
asa(dp6148
g7
S'(ROOT (S (NP (NNP Wang)) (VP (VBD was) (NP (NP (DT a) (NN student) (NN leader)) (PP (IN in) (NP (DT the) (CD 1989) (NNP Tiananmen) (NNP Square) (NN democracy) (NNS demonstrations))))) (. .)))'
p6149
sg9
S'Wang was a student leader in the 1989 Tiananmen Square democracy demonstrations.'
p6150
sg11
(lp6151
(S'root'
p6152
S'ROOT'
p6153
S'leader'
p6154
tp6155
a(S'nsubj'
p6156
S'leader'
p6157
S'Wang'
p6158
tp6159
a(S'cop'
p6160
S'leader'
p6161
S'was'
p6162
tp6163
a(S'det'
p6164
S'leader'
p6165
g1222
tp6166
a(S'nn'
p6167
S'leader'
p6168
S'student'
p6169
tp6170
a(S'det'
p6171
S'demonstrations'
p6172
S'the'
p6173
tp6174
a(S'num'
p6175
S'demonstrations'
p6176
S'1989'
p6177
tp6178
a(S'nn'
p6179
S'demonstrations'
p6180
S'Tiananmen'
p6181
tp6182
a(S'nn'
p6183
S'demonstrations'
p6184
S'Square'
p6185
tp6186
a(S'nn'
p6187
S'demonstrations'
p6188
S'democracy'
p6189
tp6190
a(S'prep_in'
p6191
S'leader'
p6192
S'demonstrations'
p6193
tp6194
asg49
(lp6195
(g6152
S'ROOT-0'
p6196
S'leader-5'
p6197
tp6198
a(g6156
S'leader-5'
p6199
S'Wang-1'
p6200
tp6201
a(g6160
S'leader-5'
p6202
S'was-2'
p6203
tp6204
a(g6164
S'leader-5'
p6205
S'a-3'
p6206
tp6207
a(g6167
S'leader-5'
p6208
S'student-4'
p6209
tp6210
a(g6171
S'demonstrations-12'
p6211
S'the-7'
p6212
tp6213
a(g6175
S'demonstrations-12'
p6214
S'1989-8'
p6215
tp6216
a(g6179
S'demonstrations-12'
p6217
S'Tiananmen-9'
p6218
tp6219
a(g6183
S'demonstrations-12'
p6220
S'Square-10'
p6221
tp6222
a(g6187
S'demonstrations-12'
p6223
S'democracy-11'
p6224
tp6225
a(g6191
S'leader-5'
p6226
S'demonstrations-12'
p6227
tp6228
asg78
(lp6229
(S'Wang'
p6230
(dp6231
S'NamedEntityTag'
p6232
S'PERSON'
p6233
sS'CharacterOffsetEnd'
p6234
S'1639'
p6235
sS'Lemma'
p6236
S'Wang'
p6237
sS'PartOfSpeech'
p6238
S'NNP'
p6239
sS'CharacterOffsetBegin'
p6240
S'1635'
p6241
stp6242
a(S'was'
p6243
(dp6244
S'NamedEntityTag'
p6245
g83
sS'CharacterOffsetEnd'
p6246
S'1643'
p6247
sS'Lemma'
p6248
S'be'
p6249
sS'PartOfSpeech'
p6250
S'VBD'
p6251
sS'CharacterOffsetBegin'
p6252
S'1640'
p6253
stp6254
a(g1222
(dp6255
S'NamedEntityTag'
p6256
g83
sS'CharacterOffsetEnd'
p6257
S'1645'
p6258
sS'Lemma'
p6259
g1222
sS'PartOfSpeech'
p6260
S'DT'
p6261
sS'CharacterOffsetBegin'
p6262
S'1644'
p6263
stp6264
a(S'student'
p6265
(dp6266
S'NamedEntityTag'
p6267
g83
sS'CharacterOffsetEnd'
p6268
S'1653'
p6269
sS'Lemma'
p6270
S'student'
p6271
sS'PartOfSpeech'
p6272
S'NN'
p6273
sS'CharacterOffsetBegin'
p6274
S'1646'
p6275
stp6276
a(S'leader'
p6277
(dp6278
S'NamedEntityTag'
p6279
g83
sS'CharacterOffsetEnd'
p6280
S'1660'
p6281
sS'Lemma'
p6282
S'leader'
p6283
sS'PartOfSpeech'
p6284
S'NN'
p6285
sS'CharacterOffsetBegin'
p6286
S'1654'
p6287
stp6288
a(S'in'
p6289
(dp6290
S'NamedEntityTag'
p6291
g83
sS'CharacterOffsetEnd'
p6292
S'1663'
p6293
sS'Lemma'
p6294
S'in'
p6295
sS'PartOfSpeech'
p6296
S'IN'
p6297
sS'CharacterOffsetBegin'
p6298
S'1661'
p6299
stp6300
a(S'the'
p6301
(dp6302
S'NamedEntityTag'
p6303
g83
sS'CharacterOffsetEnd'
p6304
S'1667'
p6305
sS'Lemma'
p6306
S'the'
p6307
sS'PartOfSpeech'
p6308
S'DT'
p6309
sS'CharacterOffsetBegin'
p6310
S'1664'
p6311
stp6312
a(S'1989'
p6313
(dp6314
S'NormalizedNamedEntityTag'
p6315
S'1989'
p6316
sS'Timex'
p6317
S'<TIMEX3 tid="t10" type="DATE" value="1989">1989</TIMEX3>'
p6318
sS'Lemma'
p6319
S'1989'
p6320
sS'CharacterOffsetEnd'
p6321
S'1672'
p6322
sS'PartOfSpeech'
p6323
S'CD'
p6324
sS'CharacterOffsetBegin'
p6325
S'1668'
p6326
sS'NamedEntityTag'
p6327
S'DATE'
p6328
stp6329
a(S'Tiananmen'
p6330
(dp6331
S'NamedEntityTag'
p6332
g83
sS'CharacterOffsetEnd'
p6333
S'1682'
p6334
sS'Lemma'
p6335
S'Tiananmen'
p6336
sS'PartOfSpeech'
p6337
S'NNP'
p6338
sS'CharacterOffsetBegin'
p6339
S'1673'
p6340
stp6341
a(S'Square'
p6342
(dp6343
S'NamedEntityTag'
p6344
g83
sS'CharacterOffsetEnd'
p6345
S'1689'
p6346
sS'Lemma'
p6347
S'Square'
p6348
sS'PartOfSpeech'
p6349
S'NNP'
p6350
sS'CharacterOffsetBegin'
p6351
S'1683'
p6352
stp6353
a(S'democracy'
p6354
(dp6355
S'NamedEntityTag'
p6356
g83
sS'CharacterOffsetEnd'
p6357
S'1699'
p6358
sS'Lemma'
p6359
S'democracy'
p6360
sS'PartOfSpeech'
p6361
S'NN'
p6362
sS'CharacterOffsetBegin'
p6363
S'1690'
p6364
stp6365
a(S'demonstrations'
p6366
(dp6367
S'NamedEntityTag'
p6368
g83
sS'CharacterOffsetEnd'
p6369
S'1714'
p6370
sS'Lemma'
p6371
S'demonstration'
p6372
sS'PartOfSpeech'
p6373
S'NNS'
p6374
sS'CharacterOffsetBegin'
p6375
S'1700'
p6376
stp6377
a(g1713
(dp6378
S'NamedEntityTag'
p6379
g83
sS'CharacterOffsetEnd'
p6380
S'1715'
p6381
sS'Lemma'
p6382
g1713
sS'PartOfSpeech'
p6383
g1713
sS'CharacterOffsetBegin'
p6384
S'1714'
p6385
stp6386
asa(dp6387
g7
S'(ROOT (S (NP (DT Both)) (VP (VBP have) (VP (VBN served) (NP-TMP (NN time)) (PP (IN in) (NP (NN prison))))) (. .)))'
p6388
sg9
S'Both have served time in prison.'
p6389
sg11
(lp6390
(S'root'
p6391
S'ROOT'
p6392
S'served'
p6393
tp6394
a(S'nsubj'
p6395
S'served'
p6396
S'Both'
p6397
tp6398
a(S'aux'
p6399
S'served'
p6400
S'have'
p6401
tp6402
a(S'tmod'
p6403
S'served'
p6404
S'time'
p6405
tp6406
a(S'prep_in'
p6407
S'served'
p6408
S'prison'
p6409
tp6410
asg49
(lp6411
(g6391
S'ROOT-0'
p6412
S'served-3'
p6413
tp6414
a(g6395
S'served-3'
p6415
S'Both-1'
p6416
tp6417
a(g6399
S'served-3'
p6418
S'have-2'
p6419
tp6420
a(g6403
S'served-3'
p6421
S'time-4'
p6422
tp6423
a(g6407
S'served-3'
p6424
S'prison-6'
p6425
tp6426
asg78
(lp6427
(S'Both'
p6428
(dp6429
S'NamedEntityTag'
p6430
g83
sS'CharacterOffsetEnd'
p6431
S'1720'
p6432
sS'Lemma'
p6433
S'both'
p6434
sS'PartOfSpeech'
p6435
S'DT'
p6436
sS'CharacterOffsetBegin'
p6437
S'1716'
p6438
stp6439
a(S'have'
p6440
(dp6441
S'NamedEntityTag'
p6442
g83
sS'CharacterOffsetEnd'
p6443
S'1725'
p6444
sS'Lemma'
p6445
S'have'
p6446
sS'PartOfSpeech'
p6447
S'VBP'
p6448
sS'CharacterOffsetBegin'
p6449
S'1721'
p6450
stp6451
a(S'served'
p6452
(dp6453
S'NamedEntityTag'
p6454
g83
sS'CharacterOffsetEnd'
p6455
S'1732'
p6456
sS'Lemma'
p6457
S'serve'
p6458
sS'PartOfSpeech'
p6459
S'VBN'
p6460
sS'CharacterOffsetBegin'
p6461
S'1726'
p6462
stp6463
a(S'time'
p6464
(dp6465
S'NamedEntityTag'
p6466
g83
sS'CharacterOffsetEnd'
p6467
S'1737'
p6468
sS'Lemma'
p6469
S'time'
p6470
sS'PartOfSpeech'
p6471
S'NN'
p6472
sS'CharacterOffsetBegin'
p6473
S'1733'
p6474
stp6475
a(S'in'
p6476
(dp6477
S'NamedEntityTag'
p6478
g83
sS'CharacterOffsetEnd'
p6479
S'1740'
p6480
sS'Lemma'
p6481
S'in'
p6482
sS'PartOfSpeech'
p6483
S'IN'
p6484
sS'CharacterOffsetBegin'
p6485
S'1738'
p6486
stp6487
a(S'prison'
p6488
(dp6489
S'NamedEntityTag'
p6490
g83
sS'CharacterOffsetEnd'
p6491
S'1747'
p6492
sS'Lemma'
p6493
S'prison'
p6494
sS'PartOfSpeech'
p6495
S'NN'
p6496
sS'CharacterOffsetBegin'
p6497
S'1741'
p6498
stp6499
a(g1713
(dp6500
S'NamedEntityTag'
p6501
g83
sS'CharacterOffsetEnd'
p6502
S'1748'
p6503
sS'Lemma'
p6504
g1713
sS'PartOfSpeech'
p6505
g1713
sS'CharacterOffsetBegin'
p6506
S'1747'
p6507
stp6508
asa(dp6509
g7
S'(ROOT (S (NP (NNP Xu)) (VP (VBD spent) (NP (CD 12) (NNS years)) (PP (IN in) (NP (NP (NN jail)) (, ,) (NP (NP (RB much)) (PP (IN of) (NP (PRP it)))))) (PP (IN in) (NP (JJ solitary) (NN confinement)))) (. .)))'
p6510
sg9
S'Xu spent 12 years in jail, much of it in solitary confinement.'
p6511
sg11
(lp6512
(S'root'
p6513
S'ROOT'
p6514
S'spent'
p6515
tp6516
a(S'nsubj'
p6517
S'spent'
p6518
S'Xu'
p6519
tp6520
a(S'num'
p6521
S'years'
p6522
S'12'
p6523
tp6524
a(S'tmod'
p6525
S'spent'
p6526
S'years'
p6527
tp6528
a(S'prep_in'
p6529
S'spent'
p6530
S'jail'
p6531
tp6532
a(S'appos'
p6533
S'jail'
p6534
S'much'
p6535
tp6536
a(S'prep_of'
p6537
S'much'
p6538
S'it'
p6539
tp6540
a(S'amod'
p6541
S'confinement'
p6542
S'solitary'
p6543
tp6544
a(S'prep_in'
p6545
S'spent'
p6546
S'confinement'
p6547
tp6548
asg49
(lp6549
(g6513
S'ROOT-0'
p6550
S'spent-2'
p6551
tp6552
a(g6517
S'spent-2'
p6553
S'Xu-1'
p6554
tp6555
a(g6521
S'years-4'
p6556
S'12-3'
p6557
tp6558
a(g6525
S'spent-2'
p6559
S'years-4'
p6560
tp6561
a(g6529
S'spent-2'
p6562
S'jail-6'
p6563
tp6564
a(g6533
S'jail-6'
p6565
S'much-8'
p6566
tp6567
a(g6537
S'much-8'
p6568
S'it-10'
p6569
tp6570
a(g6541
S'confinement-13'
p6571
S'solitary-12'
p6572
tp6573
a(g6545
S'spent-2'
p6574
S'confinement-13'
p6575
tp6576
asg78
(lp6577
(S'Xu'
p6578
(dp6579
S'NamedEntityTag'
p6580
S'PERSON'
p6581
sS'CharacterOffsetEnd'
p6582
S'1751'
p6583
sS'Lemma'
p6584
S'Xu'
p6585
sS'PartOfSpeech'
p6586
S'NNP'
p6587
sS'CharacterOffsetBegin'
p6588
S'1749'
p6589
stp6590
a(S'spent'
p6591
(dp6592
S'NamedEntityTag'
p6593
g83
sS'CharacterOffsetEnd'
p6594
S'1757'
p6595
sS'Lemma'
p6596
S'spend'
p6597
sS'PartOfSpeech'
p6598
S'VBD'
p6599
sS'CharacterOffsetBegin'
p6600
S'1752'
p6601
stp6602
a(S'12'
p6603
(dp6604
S'NormalizedNamedEntityTag'
p6605
S'P12Y'
p6606
sS'Timex'
p6607
S'<TIMEX3 tid="t11" type="DURATION" value="P12Y">12 years</TIMEX3>'
p6608
sS'Lemma'
p6609
S'12'
p6610
sS'CharacterOffsetEnd'
p6611
S'1760'
p6612
sS'PartOfSpeech'
p6613
S'CD'
p6614
sS'CharacterOffsetBegin'
p6615
S'1758'
p6616
sS'NamedEntityTag'
p6617
S'DURATION'
p6618
stp6619
a(S'years'
p6620
(dp6621
S'NormalizedNamedEntityTag'
p6622
S'P12Y'
p6623
sS'Timex'
p6624
S'<TIMEX3 tid="t11" type="DURATION" value="P12Y">12 years</TIMEX3>'
p6625
sS'Lemma'
p6626
S'year'
p6627
sS'CharacterOffsetEnd'
p6628
S'1766'
p6629
sS'PartOfSpeech'
p6630
S'NNS'
p6631
sS'CharacterOffsetBegin'
p6632
S'1761'
p6633
sS'NamedEntityTag'
p6634
S'DURATION'
p6635
stp6636
a(S'in'
p6637
(dp6638
S'NamedEntityTag'
p6639
g83
sS'CharacterOffsetEnd'
p6640
S'1769'
p6641
sS'Lemma'
p6642
S'in'
p6643
sS'PartOfSpeech'
p6644
S'IN'
p6645
sS'CharacterOffsetBegin'
p6646
S'1767'
p6647
stp6648
a(S'jail'
p6649
(dp6650
S'NamedEntityTag'
p6651
g83
sS'CharacterOffsetEnd'
p6652
S'1774'
p6653
sS'Lemma'
p6654
S'jail'
p6655
sS'PartOfSpeech'
p6656
S'NN'
p6657
sS'CharacterOffsetBegin'
p6658
S'1770'
p6659
stp6660
a(g329
(dp6661
S'NamedEntityTag'
p6662
g83
sS'CharacterOffsetEnd'
p6663
S'1775'
p6664
sS'Lemma'
p6665
g329
sS'PartOfSpeech'
p6666
g329
sS'CharacterOffsetBegin'
p6667
S'1774'
p6668
stp6669
a(S'much'
p6670
(dp6671
S'NamedEntityTag'
p6672
g83
sS'CharacterOffsetEnd'
p6673
S'1780'
p6674
sS'Lemma'
p6675
S'much'
p6676
sS'PartOfSpeech'
p6677
S'RB'
p6678
sS'CharacterOffsetBegin'
p6679
S'1776'
p6680
stp6681
a(S'of'
p6682
(dp6683
S'NamedEntityTag'
p6684
g83
sS'CharacterOffsetEnd'
p6685
S'1783'
p6686
sS'Lemma'
p6687
S'of'
p6688
sS'PartOfSpeech'
p6689
S'IN'
p6690
sS'CharacterOffsetBegin'
p6691
S'1781'
p6692
stp6693
a(S'it'
p6694
(dp6695
S'NamedEntityTag'
p6696
g83
sS'CharacterOffsetEnd'
p6697
S'1786'
p6698
sS'Lemma'
p6699
S'it'
p6700
sS'PartOfSpeech'
p6701
S'PRP'
p6702
sS'CharacterOffsetBegin'
p6703
S'1784'
p6704
stp6705
a(S'in'
p6706
(dp6707
S'NamedEntityTag'
p6708
g83
sS'CharacterOffsetEnd'
p6709
S'1789'
p6710
sS'Lemma'
p6711
S'in'
p6712
sS'PartOfSpeech'
p6713
S'IN'
p6714
sS'CharacterOffsetBegin'
p6715
S'1787'
p6716
stp6717
a(S'solitary'
p6718
(dp6719
S'NamedEntityTag'
p6720
g83
sS'CharacterOffsetEnd'
p6721
S'1798'
p6722
sS'Lemma'
p6723
S'solitary'
p6724
sS'PartOfSpeech'
p6725
S'JJ'
p6726
sS'CharacterOffsetBegin'
p6727
S'1790'
p6728
stp6729
a(S'confinement'
p6730
(dp6731
S'NamedEntityTag'
p6732
g83
sS'CharacterOffsetEnd'
p6733
S'1810'
p6734
sS'Lemma'
p6735
S'confinement'
p6736
sS'PartOfSpeech'
p6737
S'NN'
p6738
sS'CharacterOffsetBegin'
p6739
S'1799'
p6740
stp6741
a(g1713
(dp6742
S'NamedEntityTag'
p6743
g83
sS'CharacterOffsetEnd'
p6744
S'1811'
p6745
sS'Lemma'
p6746
g1713
sS'PartOfSpeech'
p6747
g1713
sS'CharacterOffsetBegin'
p6748
S'1810'
p6749
stp6750
asa(dp6751
g7
S'(ROOT (S (S (SBAR (IN Since) (S (NP (NNS dissidents)) (VP (VBD began) (S (VP (VP (VBG organizing)) (CC and) (VP (VBG trying) (S (VP (TO to) (VP (ADVP (RB legally)) (VB register) (NP (DT the) (NNP China) (NNP Democracy) (NNP Party))))))))))) (, ,) (NP (NNS police)) (VP (VP (VBP have) (VP (VBN harassed))) (CC and) (VP (ADVP (NN briefly)) (VBD detained) (NP (QP (XS (JJR more) (IN than)) (CD two) (NN dozen)) (NNS members))))) (, ,) (CC but) (S (ADVP (IN until) (RB now)) (NP (DT the) (NN government)) (VP (VBD had) (RB not) (VP (VBN leveled) (PP (JJ such) (NP (ADJP (RB politically) (VBN charged)) (NNS allegations)))))) (. .)))'
p6752
sg9
S'Since dissidents began organizing and trying to legally register the China Democracy Party, police have harassed and briefly detained more than two dozen members, but until now the government had not leveled such politically charged allegations.'
p6753
sg11
(lp6754
(S'root'
p6755
S'ROOT'
p6756
S'harassed'
p6757
tp6758
a(S'mark'
p6759
S'began'
p6760
S'Since'
p6761
tp6762
a(S'nsubj'
p6763
S'began'
p6764
S'dissidents'
p6765
tp6766
a(S'advcl'
p6767
S'harassed'
p6768
S'began'
p6769
tp6770
a(S'ccomp'
p6771
S'began'
p6772
S'organizing'
p6773
tp6774
a(S'conj_and'
p6775
S'organizing'
p6776
S'trying'
p6777
tp6778
a(S'aux'
p6779
S'register'
p6780
S'to'
p6781
tp6782
a(S'advmod'
p6783
S'register'
p6784
S'legally'
p6785
tp6786
a(S'xcomp'
p6787
S'trying'
p6788
S'register'
p6789
tp6790
a(S'det'
p6791
S'Party'
p6792
S'the'
p6793
tp6794
a(S'nn'
p6795
S'Party'
p6796
S'China'
p6797
tp6798
a(S'nn'
p6799
S'Party'
p6800
S'Democracy'
p6801
tp6802
a(S'dobj'
p6803
S'register'
p6804
S'Party'
p6805
tp6806
a(S'nsubj'
p6807
S'harassed'
p6808
S'police'
p6809
tp6810
a(S'aux'
p6811
S'harassed'
p6812
S'have'
p6813
tp6814
a(S'advmod'
p6815
S'detained'
p6816
S'briefly'
p6817
tp6818
a(S'conj_and'
p6819
S'harassed'
p6820
S'detained'
p6821
tp6822
a(S'mwe'
p6823
S'than'
p6824
S'more'
p6825
tp6826
a(S'quantmod'
p6827
S'dozen'
p6828
S'than'
p6829
tp6830
a(S'number'
p6831
S'dozen'
p6832
S'two'
p6833
tp6834
a(S'num'
p6835
S'members'
p6836
S'dozen'
p6837
tp6838
a(S'dobj'
p6839
S'detained'
p6840
S'members'
p6841
tp6842
a(S'advmod'
p6843
S'leveled'
p6844
S'until'
p6845
tp6846
a(S'advmod'
p6847
S'until'
p6848
S'now'
p6849
tp6850
a(S'det'
p6851
S'government'
p6852
S'the'
p6853
tp6854
a(S'nsubj'
p6855
S'leveled'
p6856
S'government'
p6857
tp6858
a(S'aux'
p6859
S'leveled'
p6860
S'had'
p6861
tp6862
a(S'neg'
p6863
S'leveled'
p6864
S'not'
p6865
tp6866
a(S'conj_but'
p6867
S'harassed'
p6868
S'leveled'
p6869
tp6870
a(S'prep'
p6871
S'leveled'
p6872
S'such'
p6873
tp6874
a(S'advmod'
p6875
S'charged'
p6876
S'politically'
p6877
tp6878
a(S'amod'
p6879
S'allegations'
p6880
S'charged'
p6881
tp6882
a(S'dep'
p6883
S'such'
p6884
S'allegations'
p6885
tp6886
asg49
(lp6887
(g6755
S'ROOT-0'
p6888
S'harassed-17'
p6889
tp6890
a(g6759
S'began-3'
p6891
S'Since-1'
p6892
tp6893
a(g6763
S'began-3'
p6894
S'dissidents-2'
p6895
tp6896
a(g6767
S'harassed-17'
p6897
S'began-3'
p6898
tp6899
a(g6771
S'began-3'
p6900
S'organizing-4'
p6901
tp6902
a(g6775
S'organizing-4'
p6903
S'trying-6'
p6904
tp6905
a(g6779
S'register-9'
p6906
S'to-7'
p6907
tp6908
a(g6783
S'register-9'
p6909
S'legally-8'
p6910
tp6911
a(g6787
S'trying-6'
p6912
S'register-9'
p6913
tp6914
a(g6791
S'Party-13'
p6915
S'the-10'
p6916
tp6917
a(g6795
S'Party-13'
p6918
S'China-11'
p6919
tp6920
a(g6799
S'Party-13'
p6921
S'Democracy-12'
p6922
tp6923
a(g6803
S'register-9'
p6924
S'Party-13'
p6925
tp6926
a(g6807
S'harassed-17'
p6927
S'police-15'
p6928
tp6929
a(g6811
S'harassed-17'
p6930
S'have-16'
p6931
tp6932
a(g6815
S'detained-20'
p6933
S'briefly-19'
p6934
tp6935
a(g6819
S'harassed-17'
p6936
S'detained-20'
p6937
tp6938
a(g6823
S'than-22'
p6939
S'more-21'
p6940
tp6941
a(g6827
S'dozen-24'
p6942
S'than-22'
p6943
tp6944
a(g6831
S'dozen-24'
p6945
S'two-23'
p6946
tp6947
a(g6835
S'members-25'
p6948
S'dozen-24'
p6949
tp6950
a(g6839
S'detained-20'
p6951
S'members-25'
p6952
tp6953
a(g6843
S'leveled-34'
p6954
S'until-28'
p6955
tp6956
a(g6847
S'until-28'
p6957
S'now-29'
p6958
tp6959
a(g6851
S'government-31'
p6960
S'the-30'
p6961
tp6962
a(g6855
S'leveled-34'
p6963
S'government-31'
p6964
tp6965
a(g6859
S'leveled-34'
p6966
S'had-32'
p6967
tp6968
a(g6863
S'leveled-34'
p6969
S'not-33'
p6970
tp6971
a(g6867
S'harassed-17'
p6972
S'leveled-34'
p6973
tp6974
a(g6871
S'leveled-34'
p6975
S'such-35'
p6976
tp6977
a(g6875
S'charged-37'
p6978
S'politically-36'
p6979
tp6980
a(g6879
S'allegations-38'
p6981
S'charged-37'
p6982
tp6983
a(g6883
S'such-35'
p6984
S'allegations-38'
p6985
tp6986
asg78
(lp6987
(S'Since'
p6988
(dp6989
S'NamedEntityTag'
p6990
g83
sS'CharacterOffsetEnd'
p6991
S'1817'
p6992
sS'Lemma'
p6993
S'since'
p6994
sS'PartOfSpeech'
p6995
S'IN'
p6996
sS'CharacterOffsetBegin'
p6997
S'1812'
p6998
stp6999
a(S'dissidents'
p7000
(dp7001
S'NamedEntityTag'
p7002
g83
sS'CharacterOffsetEnd'
p7003
S'1828'
p7004
sS'Lemma'
p7005
S'dissident'
p7006
sS'PartOfSpeech'
p7007
S'NNS'
p7008
sS'CharacterOffsetBegin'
p7009
S'1818'
p7010
stp7011
a(S'began'
p7012
(dp7013
S'NamedEntityTag'
p7014
g83
sS'CharacterOffsetEnd'
p7015
S'1834'
p7016
sS'Lemma'
p7017
S'begin'
p7018
sS'PartOfSpeech'
p7019
S'VBD'
p7020
sS'CharacterOffsetBegin'
p7021
S'1829'
p7022
stp7023
a(S'organizing'
p7024
(dp7025
S'NamedEntityTag'
p7026
g83
sS'CharacterOffsetEnd'
p7027
S'1845'
p7028
sS'Lemma'
p7029
S'organize'
p7030
sS'PartOfSpeech'
p7031
S'VBG'
p7032
sS'CharacterOffsetBegin'
p7033
S'1835'
p7034
stp7035
a(S'and'
p7036
(dp7037
S'NamedEntityTag'
p7038
g83
sS'CharacterOffsetEnd'
p7039
S'1849'
p7040
sS'Lemma'
p7041
S'and'
p7042
sS'PartOfSpeech'
p7043
S'CC'
p7044
sS'CharacterOffsetBegin'
p7045
S'1846'
p7046
stp7047
a(S'trying'
p7048
(dp7049
S'NamedEntityTag'
p7050
g83
sS'CharacterOffsetEnd'
p7051
S'1856'
p7052
sS'Lemma'
p7053
S'try'
p7054
sS'PartOfSpeech'
p7055
S'VBG'
p7056
sS'CharacterOffsetBegin'
p7057
S'1850'
p7058
stp7059
a(S'to'
p7060
(dp7061
S'NamedEntityTag'
p7062
g83
sS'CharacterOffsetEnd'
p7063
S'1859'
p7064
sS'Lemma'
p7065
S'to'
p7066
sS'PartOfSpeech'
p7067
S'TO'
p7068
sS'CharacterOffsetBegin'
p7069
S'1857'
p7070
stp7071
a(S'legally'
p7072
(dp7073
S'NamedEntityTag'
p7074
g83
sS'CharacterOffsetEnd'
p7075
S'1867'
p7076
sS'Lemma'
p7077
S'legally'
p7078
sS'PartOfSpeech'
p7079
S'RB'
p7080
sS'CharacterOffsetBegin'
p7081
S'1860'
p7082
stp7083
a(S'register'
p7084
(dp7085
S'NamedEntityTag'
p7086
g83
sS'CharacterOffsetEnd'
p7087
S'1876'
p7088
sS'Lemma'
p7089
S'register'
p7090
sS'PartOfSpeech'
p7091
S'VB'
p7092
sS'CharacterOffsetBegin'
p7093
S'1868'
p7094
stp7095
a(S'the'
p7096
(dp7097
S'NamedEntityTag'
p7098
g83
sS'CharacterOffsetEnd'
p7099
S'1880'
p7100
sS'Lemma'
p7101
S'the'
p7102
sS'PartOfSpeech'
p7103
S'DT'
p7104
sS'CharacterOffsetBegin'
p7105
S'1877'
p7106
stp7107
a(S'China'
p7108
(dp7109
S'NamedEntityTag'
p7110
S'ORGANIZATION'
p7111
sS'CharacterOffsetEnd'
p7112
S'1886'
p7113
sS'Lemma'
p7114
S'China'
p7115
sS'PartOfSpeech'
p7116
S'NNP'
p7117
sS'CharacterOffsetBegin'
p7118
S'1881'
p7119
stp7120
a(S'Democracy'
p7121
(dp7122
S'NamedEntityTag'
p7123
S'ORGANIZATION'
p7124
sS'CharacterOffsetEnd'
p7125
S'1896'
p7126
sS'Lemma'
p7127
S'Democracy'
p7128
sS'PartOfSpeech'
p7129
S'NNP'
p7130
sS'CharacterOffsetBegin'
p7131
S'1887'
p7132
stp7133
a(S'Party'
p7134
(dp7135
S'NamedEntityTag'
p7136
S'ORGANIZATION'
p7137
sS'CharacterOffsetEnd'
p7138
S'1902'
p7139
sS'Lemma'
p7140
S'Party'
p7141
sS'PartOfSpeech'
p7142
S'NNP'
p7143
sS'CharacterOffsetBegin'
p7144
S'1897'
p7145
stp7146
a(g329
(dp7147
S'NamedEntityTag'
p7148
g83
sS'CharacterOffsetEnd'
p7149
S'1903'
p7150
sS'Lemma'
p7151
g329
sS'PartOfSpeech'
p7152
g329
sS'CharacterOffsetBegin'
p7153
S'1902'
p7154
stp7155
a(S'police'
p7156
(dp7157
S'NamedEntityTag'
p7158
g83
sS'CharacterOffsetEnd'
p7159
S'1910'
p7160
sS'Lemma'
p7161
S'police'
p7162
sS'PartOfSpeech'
p7163
S'NNS'
p7164
sS'CharacterOffsetBegin'
p7165
S'1904'
p7166
stp7167
a(S'have'
p7168
(dp7169
S'NamedEntityTag'
p7170
g83
sS'CharacterOffsetEnd'
p7171
S'1915'
p7172
sS'Lemma'
p7173
S'have'
p7174
sS'PartOfSpeech'
p7175
S'VBP'
p7176
sS'CharacterOffsetBegin'
p7177
S'1911'
p7178
stp7179
a(S'harassed'
p7180
(dp7181
S'NamedEntityTag'
p7182
g83
sS'CharacterOffsetEnd'
p7183
S'1924'
p7184
sS'Lemma'
p7185
S'harass'
p7186
sS'PartOfSpeech'
p7187
S'VBN'
p7188
sS'CharacterOffsetBegin'
p7189
S'1916'
p7190
stp7191
a(S'and'
p7192
(dp7193
S'NamedEntityTag'
p7194
g83
sS'CharacterOffsetEnd'
p7195
S'1928'
p7196
sS'Lemma'
p7197
S'and'
p7198
sS'PartOfSpeech'
p7199
S'CC'
p7200
sS'CharacterOffsetBegin'
p7201
S'1925'
p7202
stp7203
a(S'briefly'
p7204
(dp7205
S'NamedEntityTag'
p7206
g83
sS'CharacterOffsetEnd'
p7207
S'1936'
p7208
sS'Lemma'
p7209
S'briefly'
p7210
sS'PartOfSpeech'
p7211
S'NN'
p7212
sS'CharacterOffsetBegin'
p7213
S'1929'
p7214
stp7215
a(S'detained'
p7216
(dp7217
S'NamedEntityTag'
p7218
g83
sS'CharacterOffsetEnd'
p7219
S'1945'
p7220
sS'Lemma'
p7221
S'detain'
p7222
sS'PartOfSpeech'
p7223
S'VBD'
p7224
sS'CharacterOffsetBegin'
p7225
S'1937'
p7226
stp7227
a(S'more'
p7228
(dp7229
S'NamedEntityTag'
p7230
g83
sS'CharacterOffsetEnd'
p7231
S'1950'
p7232
sS'Lemma'
p7233
S'more'
p7234
sS'PartOfSpeech'
p7235
S'JJR'
p7236
sS'CharacterOffsetBegin'
p7237
S'1946'
p7238
stp7239
a(S'than'
p7240
(dp7241
S'NamedEntityTag'
p7242
g83
sS'CharacterOffsetEnd'
p7243
S'1955'
p7244
sS'Lemma'
p7245
S'than'
p7246
sS'PartOfSpeech'
p7247
S'IN'
p7248
sS'CharacterOffsetBegin'
p7249
S'1951'
p7250
stp7251
a(S'two'
p7252
(dp7253
S'NormalizedNamedEntityTag'
p7254
S'>24.0'
p7255
sS'Lemma'
p7256
S'two'
p7257
sS'CharacterOffsetEnd'
p7258
S'1959'
p7259
sS'PartOfSpeech'
p7260
S'CD'
p7261
sS'CharacterOffsetBegin'
p7262
S'1956'
p7263
sS'NamedEntityTag'
p7264
S'NUMBER'
p7265
stp7266
a(S'dozen'
p7267
(dp7268
S'NormalizedNamedEntityTag'
p7269
S'>24.0'
p7270
sS'Lemma'
p7271
S'dozen'
p7272
sS'CharacterOffsetEnd'
p7273
S'1965'
p7274
sS'PartOfSpeech'
p7275
S'NN'
p7276
sS'CharacterOffsetBegin'
p7277
S'1960'
p7278
sS'NamedEntityTag'
p7279
S'NUMBER'
p7280
stp7281
a(S'members'
p7282
(dp7283
S'NamedEntityTag'
p7284
g83
sS'CharacterOffsetEnd'
p7285
S'1973'
p7286
sS'Lemma'
p7287
S'member'
p7288
sS'PartOfSpeech'
p7289
S'NNS'
p7290
sS'CharacterOffsetBegin'
p7291
S'1966'
p7292
stp7293
a(g329
(dp7294
S'NamedEntityTag'
p7295
g83
sS'CharacterOffsetEnd'
p7296
S'1974'
p7297
sS'Lemma'
p7298
g329
sS'PartOfSpeech'
p7299
g329
sS'CharacterOffsetBegin'
p7300
S'1973'
p7301
stp7302
a(S'but'
p7303
(dp7304
S'NamedEntityTag'
p7305
g83
sS'CharacterOffsetEnd'
p7306
S'1978'
p7307
sS'Lemma'
p7308
S'but'
p7309
sS'PartOfSpeech'
p7310
S'CC'
p7311
sS'CharacterOffsetBegin'
p7312
S'1975'
p7313
stp7314
a(S'until'
p7315
(dp7316
S'NamedEntityTag'
p7317
g83
sS'CharacterOffsetEnd'
p7318
S'1984'
p7319
sS'Lemma'
p7320
S'until'
p7321
sS'PartOfSpeech'
p7322
S'IN'
p7323
sS'CharacterOffsetBegin'
p7324
S'1979'
p7325
stp7326
a(S'now'
p7327
(dp7328
S'NormalizedNamedEntityTag'
p7329
S'PRESENT_REF'
p7330
sS'Timex'
p7331
S'<TIMEX3 tid="t12" type="DATE" value="PRESENT_REF">now</TIMEX3>'
p7332
sS'Lemma'
p7333
S'now'
p7334
sS'CharacterOffsetEnd'
p7335
S'1988'
p7336
sS'PartOfSpeech'
p7337
S'RB'
p7338
sS'CharacterOffsetBegin'
p7339
S'1985'
p7340
sS'NamedEntityTag'
p7341
S'DATE'
p7342
stp7343
a(S'the'
p7344
(dp7345
S'NamedEntityTag'
p7346
g83
sS'CharacterOffsetEnd'
p7347
S'1992'
p7348
sS'Lemma'
p7349
S'the'
p7350
sS'PartOfSpeech'
p7351
S'DT'
p7352
sS'CharacterOffsetBegin'
p7353
S'1989'
p7354
stp7355
a(S'government'
p7356
(dp7357
S'NamedEntityTag'
p7358
g83
sS'CharacterOffsetEnd'
p7359
S'2003'
p7360
sS'Lemma'
p7361
S'government'
p7362
sS'PartOfSpeech'
p7363
S'NN'
p7364
sS'CharacterOffsetBegin'
p7365
S'1993'
p7366
stp7367
a(S'had'
p7368
(dp7369
S'NamedEntityTag'
p7370
g83
sS'CharacterOffsetEnd'
p7371
S'2007'
p7372
sS'Lemma'
p7373
S'have'
p7374
sS'PartOfSpeech'
p7375
S'VBD'
p7376
sS'CharacterOffsetBegin'
p7377
S'2004'
p7378
stp7379
a(S'not'
p7380
(dp7381
S'NamedEntityTag'
p7382
g83
sS'CharacterOffsetEnd'
p7383
S'2011'
p7384
sS'Lemma'
p7385
S'not'
p7386
sS'PartOfSpeech'
p7387
S'RB'
p7388
sS'CharacterOffsetBegin'
p7389
S'2008'
p7390
stp7391
a(S'leveled'
p7392
(dp7393
S'NamedEntityTag'
p7394
g83
sS'CharacterOffsetEnd'
p7395
S'2019'
p7396
sS'Lemma'
p7397
S'level'
p7398
sS'PartOfSpeech'
p7399
S'VBN'
p7400
sS'CharacterOffsetBegin'
p7401
S'2012'
p7402
stp7403
a(S'such'
p7404
(dp7405
S'NamedEntityTag'
p7406
g83
sS'CharacterOffsetEnd'
p7407
S'2024'
p7408
sS'Lemma'
p7409
S'such'
p7410
sS'PartOfSpeech'
p7411
S'JJ'
p7412
sS'CharacterOffsetBegin'
p7413
S'2020'
p7414
stp7415
a(S'politically'
p7416
(dp7417
S'NamedEntityTag'
p7418
g83
sS'CharacterOffsetEnd'
p7419
S'2036'
p7420
sS'Lemma'
p7421
S'politically'
p7422
sS'PartOfSpeech'
p7423
S'RB'
p7424
sS'CharacterOffsetBegin'
p7425
S'2025'
p7426
stp7427
a(S'charged'
p7428
(dp7429
S'NamedEntityTag'
p7430
g83
sS'CharacterOffsetEnd'
p7431
S'2044'
p7432
sS'Lemma'
p7433
S'charge'
p7434
sS'PartOfSpeech'
p7435
S'VBN'
p7436
sS'CharacterOffsetBegin'
p7437
S'2037'
p7438
stp7439
a(S'allegations'
p7440
(dp7441
S'NamedEntityTag'
p7442
g83
sS'CharacterOffsetEnd'
p7443
S'2056'
p7444
sS'Lemma'
p7445
S'allegation'
p7446
sS'PartOfSpeech'
p7447
S'NNS'
p7448
sS'CharacterOffsetBegin'
p7449
S'2045'
p7450
stp7451
a(g1713
(dp7452
S'NamedEntityTag'
p7453
g83
sS'CharacterOffsetEnd'
p7454
S'2057'
p7455
sS'Lemma'
p7456
g1713
sS'PartOfSpeech'
p7457
g1713
sS'CharacterOffsetBegin'
p7458
S'2056'
p7459
stp7460
asa(dp7461
g7
S'(ROOT (S (NP (DT The) (NNP Communist) (NNP Party)) (VP (VBZ has) (ADVP (RB never)) (VP (VBN allowed) (NP (DT another) (JJ political) (NN party)) (S (VP (TO to) (VP (VB form) (SBAR (IN since) (S (NP (PRP it)) (VP (VBD took) (NP (NN power)) (PP (IN in) (NP (CD 1949))))))))))) (. .)))'
p7462
sg9
S'The Communist Party has never allowed another political party to form since it took power in 1949.'
p7463
sg11
(lp7464
(S'root'
p7465
S'ROOT'
p7466
S'allowed'
p7467
tp7468
a(S'det'
p7469
S'Party'
p7470
S'The'
p7471
tp7472
a(S'nn'
p7473
S'Party'
p7474
S'Communist'
p7475
tp7476
a(S'nsubj'
p7477
S'allowed'
p7478
S'Party'
p7479
tp7480
a(S'aux'
p7481
S'allowed'
p7482
S'has'
p7483
tp7484
a(S'neg'
p7485
S'allowed'
p7486
S'never'
p7487
tp7488
a(S'det'
p7489
S'party'
p7490
S'another'
p7491
tp7492
a(S'amod'
p7493
S'party'
p7494
S'political'
p7495
tp7496
a(S'dobj'
p7497
S'allowed'
p7498
S'party'
p7499
tp7500
a(S'aux'
p7501
S'form'
p7502
S'to'
p7503
tp7504
a(S'xcomp'
p7505
S'allowed'
p7506
S'form'
p7507
tp7508
a(S'mark'
p7509
S'took'
p7510
S'since'
p7511
tp7512
a(S'nsubj'
p7513
S'took'
p7514
S'it'
p7515
tp7516
a(S'advcl'
p7517
S'form'
p7518
S'took'
p7519
tp7520
a(S'dobj'
p7521
S'took'
p7522
S'power'
p7523
tp7524
a(S'prep_in'
p7525
S'took'
p7526
S'1949'
p7527
tp7528
asg49
(lp7529
(g7465
S'ROOT-0'
p7530
S'allowed-6'
p7531
tp7532
a(g7469
S'Party-3'
p7533
S'The-1'
p7534
tp7535
a(g7473
S'Party-3'
p7536
S'Communist-2'
p7537
tp7538
a(g7477
S'allowed-6'
p7539
S'Party-3'
p7540
tp7541
a(g7481
S'allowed-6'
p7542
S'has-4'
p7543
tp7544
a(g7485
S'allowed-6'
p7545
S'never-5'
p7546
tp7547
a(g7489
S'party-9'
p7548
S'another-7'
p7549
tp7550
a(g7493
S'party-9'
p7551
S'political-8'
p7552
tp7553
a(g7497
S'allowed-6'
p7554
S'party-9'
p7555
tp7556
a(g7501
S'form-11'
p7557
S'to-10'
p7558
tp7559
a(g7505
S'allowed-6'
p7560
S'form-11'
p7561
tp7562
a(g7509
S'took-14'
p7563
S'since-12'
p7564
tp7565
a(g7513
S'took-14'
p7566
S'it-13'
p7567
tp7568
a(g7517
S'form-11'
p7569
S'took-14'
p7570
tp7571
a(g7521
S'took-14'
p7572
S'power-15'
p7573
tp7574
a(g7525
S'took-14'
p7575
S'1949-17'
p7576
tp7577
asg78
(lp7578
(S'The'
p7579
(dp7580
S'NamedEntityTag'
p7581
g83
sS'CharacterOffsetEnd'
p7582
S'2061'
p7583
sS'Lemma'
p7584
S'the'
p7585
sS'PartOfSpeech'
p7586
S'DT'
p7587
sS'CharacterOffsetBegin'
p7588
S'2058'
p7589
stp7590
a(S'Communist'
p7591
(dp7592
S'NamedEntityTag'
p7593
S'ORGANIZATION'
p7594
sS'CharacterOffsetEnd'
p7595
S'2071'
p7596
sS'Lemma'
p7597
S'Communist'
p7598
sS'PartOfSpeech'
p7599
S'NNP'
p7600
sS'CharacterOffsetBegin'
p7601
S'2062'
p7602
stp7603
a(S'Party'
p7604
(dp7605
S'NamedEntityTag'
p7606
S'ORGANIZATION'
p7607
sS'CharacterOffsetEnd'
p7608
S'2077'
p7609
sS'Lemma'
p7610
S'Party'
p7611
sS'PartOfSpeech'
p7612
S'NNP'
p7613
sS'CharacterOffsetBegin'
p7614
S'2072'
p7615
stp7616
a(S'has'
p7617
(dp7618
S'NamedEntityTag'
p7619
g83
sS'CharacterOffsetEnd'
p7620
S'2081'
p7621
sS'Lemma'
p7622
S'have'
p7623
sS'PartOfSpeech'
p7624
S'VBZ'
p7625
sS'CharacterOffsetBegin'
p7626
S'2078'
p7627
stp7628
a(S'never'
p7629
(dp7630
S'NamedEntityTag'
p7631
g83
sS'CharacterOffsetEnd'
p7632
S'2087'
p7633
sS'Lemma'
p7634
S'never'
p7635
sS'PartOfSpeech'
p7636
S'RB'
p7637
sS'CharacterOffsetBegin'
p7638
S'2082'
p7639
stp7640
a(S'allowed'
p7641
(dp7642
S'NamedEntityTag'
p7643
g83
sS'CharacterOffsetEnd'
p7644
S'2095'
p7645
sS'Lemma'
p7646
S'allow'
p7647
sS'PartOfSpeech'
p7648
S'VBN'
p7649
sS'CharacterOffsetBegin'
p7650
S'2088'
p7651
stp7652
a(S'another'
p7653
(dp7654
S'NamedEntityTag'
p7655
g83
sS'CharacterOffsetEnd'
p7656
S'2103'
p7657
sS'Lemma'
p7658
S'another'
p7659
sS'PartOfSpeech'
p7660
S'DT'
p7661
sS'CharacterOffsetBegin'
p7662
S'2096'
p7663
stp7664
a(S'political'
p7665
(dp7666
S'NamedEntityTag'
p7667
g83
sS'CharacterOffsetEnd'
p7668
S'2113'
p7669
sS'Lemma'
p7670
S'political'
p7671
sS'PartOfSpeech'
p7672
S'JJ'
p7673
sS'CharacterOffsetBegin'
p7674
S'2104'
p7675
stp7676
a(S'party'
p7677
(dp7678
S'NamedEntityTag'
p7679
g83
sS'CharacterOffsetEnd'
p7680
S'2119'
p7681
sS'Lemma'
p7682
S'party'
p7683
sS'PartOfSpeech'
p7684
S'NN'
p7685
sS'CharacterOffsetBegin'
p7686
S'2114'
p7687
stp7688
a(S'to'
p7689
(dp7690
S'NamedEntityTag'
p7691
g83
sS'CharacterOffsetEnd'
p7692
S'2122'
p7693
sS'Lemma'
p7694
S'to'
p7695
sS'PartOfSpeech'
p7696
S'TO'
p7697
sS'CharacterOffsetBegin'
p7698
S'2120'
p7699
stp7700
a(S'form'
p7701
(dp7702
S'NamedEntityTag'
p7703
g83
sS'CharacterOffsetEnd'
p7704
S'2127'
p7705
sS'Lemma'
p7706
S'form'
p7707
sS'PartOfSpeech'
p7708
S'VB'
p7709
sS'CharacterOffsetBegin'
p7710
S'2123'
p7711
stp7712
a(S'since'
p7713
(dp7714
S'NamedEntityTag'
p7715
g83
sS'CharacterOffsetEnd'
p7716
S'2133'
p7717
sS'Lemma'
p7718
S'since'
p7719
sS'PartOfSpeech'
p7720
S'IN'
p7721
sS'CharacterOffsetBegin'
p7722
S'2128'
p7723
stp7724
a(S'it'
p7725
(dp7726
S'NamedEntityTag'
p7727
g83
sS'CharacterOffsetEnd'
p7728
S'2136'
p7729
sS'Lemma'
p7730
S'it'
p7731
sS'PartOfSpeech'
p7732
S'PRP'
p7733
sS'CharacterOffsetBegin'
p7734
S'2134'
p7735
stp7736
a(S'took'
p7737
(dp7738
S'NamedEntityTag'
p7739
g83
sS'CharacterOffsetEnd'
p7740
S'2141'
p7741
sS'Lemma'
p7742
S'take'
p7743
sS'PartOfSpeech'
p7744
S'VBD'
p7745
sS'CharacterOffsetBegin'
p7746
S'2137'
p7747
stp7748
a(S'power'
p7749
(dp7750
S'NamedEntityTag'
p7751
g83
sS'CharacterOffsetEnd'
p7752
S'2147'
p7753
sS'Lemma'
p7754
S'power'
p7755
sS'PartOfSpeech'
p7756
S'NN'
p7757
sS'CharacterOffsetBegin'
p7758
S'2142'
p7759
stp7760
a(S'in'
p7761
(dp7762
S'NamedEntityTag'
p7763
g83
sS'CharacterOffsetEnd'
p7764
S'2150'
p7765
sS'Lemma'
p7766
S'in'
p7767
sS'PartOfSpeech'
p7768
S'IN'
p7769
sS'CharacterOffsetBegin'
p7770
S'2148'
p7771
stp7772
a(S'1949'
p7773
(dp7774
S'NormalizedNamedEntityTag'
p7775
S'1949'
p7776
sS'Timex'
p7777
S'<TIMEX3 tid="t13" type="DATE" value="1949">1949</TIMEX3>'
p7778
sS'Lemma'
p7779
S'1949'
p7780
sS'CharacterOffsetEnd'
p7781
S'2155'
p7782
sS'PartOfSpeech'
p7783
S'CD'
p7784
sS'CharacterOffsetBegin'
p7785
S'2151'
p7786
sS'NamedEntityTag'
p7787
S'DATE'
p7788
stp7789
a(g1713
(dp7790
S'NamedEntityTag'
p7791
g83
sS'CharacterOffsetEnd'
p7792
S'2156'
p7793
sS'Lemma'
p7794
g1713
sS'PartOfSpeech'
p7795
g1713
sS'CharacterOffsetBegin'
p7796
S'2155'
p7797
stp7798
asa(dp7799
g7
S'(ROOT (S (PP (IN In) (NP (NP (NNP Washington)) (PP (IN on) (NP (NNP Wednesday))))) (, ,) (NP (NNP White) (NNP House) (NN spokesman) (NNP Joe) (NNP Lockhart)) (VP (VBD said) (SBAR (S (NP (DT the) (NNP United) (NNPS States)) (VP (VP (VBD deplored) (NP (DT the) (NNS arrests))) (CC and) (VP (VBD said) (NP (DT the) (NNS dissidents)) (SBAR (S (NP (JJ peaceful) (JJ political) (NNS activities)) (VP (VBD were) (NP (JJ fundamental) (JJ human) (NNS rights)) (SBAR (IN that) (S (NP (DT all) (NNS governments)) (VP (MD should) (VP (VB protect))))))))))))) (. .)))'
p7800
sg9
S'In Washington on Wednesday, White House spokesman Joe Lockhart said the United States deplored the arrests and said the dissidents peaceful political activities were fundamental human rights that all governments should protect.'
p7801
sg11
(lp7802
(S'root'
p7803
S'ROOT'
p7804
S'said'
p7805
tp7806
a(S'prep_in'
p7807
S'said'
p7808
S'Washington'
p7809
tp7810
a(S'prep_on'
p7811
S'Washington'
p7812
S'Wednesday'
p7813
tp7814
a(S'nn'
p7815
S'Lockhart'
p7816
S'White'
p7817
tp7818
a(S'nn'
p7819
S'Lockhart'
p7820
S'House'
p7821
tp7822
a(S'nn'
p7823
S'Lockhart'
p7824
S'spokesman'
p7825
tp7826
a(S'nn'
p7827
S'Lockhart'
p7828
S'Joe'
p7829
tp7830
a(S'nsubj'
p7831
S'said'
p7832
S'Lockhart'
p7833
tp7834
a(S'det'
p7835
S'States'
p7836
S'the'
p7837
tp7838
a(S'nn'
p7839
S'States'
p7840
S'United'
p7841
tp7842
a(S'nsubj'
p7843
S'deplored'
p7844
S'States'
p7845
tp7846
a(S'ccomp'
p7847
S'said'
p7848
S'deplored'
p7849
tp7850
a(S'det'
p7851
S'arrests'
p7852
S'the'
p7853
tp7854
a(S'dobj'
p7855
S'deplored'
p7856
S'arrests'
p7857
tp7858
a(S'conj_and'
p7859
S'deplored'
p7860
S'said'
p7861
tp7862
a(S'det'
p7863
S'dissidents'
p7864
S'the'
p7865
tp7866
a(S'dobj'
p7867
S'said'
p7868
S'dissidents'
p7869
tp7870
a(S'amod'
p7871
S'activities'
p7872
S'peaceful'
p7873
tp7874
a(S'amod'
p7875
S'activities'
p7876
S'political'
p7877
tp7878
a(S'nsubj'
p7879
S'rights'
p7880
S'activities'
p7881
tp7882
a(S'cop'
p7883
S'rights'
p7884
S'were'
p7885
tp7886
a(S'amod'
p7887
S'rights'
p7888
S'fundamental'
p7889
tp7890
a(S'amod'
p7891
S'rights'
p7892
S'human'
p7893
tp7894
a(S'dep'
p7895
S'said'
p7896
S'rights'
p7897
tp7898
a(S'mark'
p7899
S'protect'
p7900
S'that'
p7901
tp7902
a(S'det'
p7903
S'governments'
p7904
S'all'
p7905
tp7906
a(S'nsubj'
p7907
S'protect'
p7908
S'governments'
p7909
tp7910
a(S'aux'
p7911
S'protect'
p7912
S'should'
p7913
tp7914
a(S'ccomp'
p7915
S'rights'
p7916
S'protect'
p7917
tp7918
asg49
(lp7919
(g7803
S'ROOT-0'
p7920
S'said-11'
p7921
tp7922
a(g7807
S'said-11'
p7923
S'Washington-2'
p7924
tp7925
a(g7811
S'Washington-2'
p7926
S'Wednesday-4'
p7927
tp7928
a(g7815
S'Lockhart-10'
p7929
S'White-6'
p7930
tp7931
a(g7819
S'Lockhart-10'
p7932
S'House-7'
p7933
tp7934
a(g7823
S'Lockhart-10'
p7935
S'spokesman-8'
p7936
tp7937
a(g7827
S'Lockhart-10'
p7938
S'Joe-9'
p7939
tp7940
a(g7831
S'said-11'
p7941
S'Lockhart-10'
p7942
tp7943
a(g7835
S'States-14'
p7944
S'the-12'
p7945
tp7946
a(g7839
S'States-14'
p7947
S'United-13'
p7948
tp7949
a(g7843
S'deplored-15'
p7950
S'States-14'
p7951
tp7952
a(g7847
S'said-11'
p7953
S'deplored-15'
p7954
tp7955
a(g7851
S'arrests-17'
p7956
S'the-16'
p7957
tp7958
a(g7855
S'deplored-15'
p7959
S'arrests-17'
p7960
tp7961
a(g7859
S'deplored-15'
p7962
S'said-19'
p7963
tp7964
a(g7863
S'dissidents-21'
p7965
S'the-20'
p7966
tp7967
a(g7867
S'said-19'
p7968
S'dissidents-21'
p7969
tp7970
a(g7871
S'activities-24'
p7971
S'peaceful-22'
p7972
tp7973
a(g7875
S'activities-24'
p7974
S'political-23'
p7975
tp7976
a(g7879
S'rights-28'
p7977
S'activities-24'
p7978
tp7979
a(g7883
S'rights-28'
p7980
S'were-25'
p7981
tp7982
a(g7887
S'rights-28'
p7983
S'fundamental-26'
p7984
tp7985
a(g7891
S'rights-28'
p7986
S'human-27'
p7987
tp7988
a(g7895
S'said-19'
p7989
S'rights-28'
p7990
tp7991
a(g7899
S'protect-33'
p7992
S'that-29'
p7993
tp7994
a(g7903
S'governments-31'
p7995
S'all-30'
p7996
tp7997
a(g7907
S'protect-33'
p7998
S'governments-31'
p7999
tp8000
a(g7911
S'protect-33'
p8001
S'should-32'
p8002
tp8003
a(g7915
S'rights-28'
p8004
S'protect-33'
p8005
tp8006
asg78
(lp8007
(S'In'
p8008
(dp8009
S'NamedEntityTag'
p8010
g83
sS'CharacterOffsetEnd'
p8011
S'2159'
p8012
sS'Lemma'
p8013
S'in'
p8014
sS'PartOfSpeech'
p8015
S'IN'
p8016
sS'CharacterOffsetBegin'
p8017
S'2157'
p8018
stp8019
a(S'Washington'
p8020
(dp8021
S'NamedEntityTag'
p8022
S'LOCATION'
p8023
sS'CharacterOffsetEnd'
p8024
S'2170'
p8025
sS'Lemma'
p8026
S'Washington'
p8027
sS'PartOfSpeech'
p8028
S'NNP'
p8029
sS'CharacterOffsetBegin'
p8030
S'2160'
p8031
stp8032
a(S'on'
p8033
(dp8034
S'NamedEntityTag'
p8035
g83
sS'CharacterOffsetEnd'
p8036
S'2173'
p8037
sS'Lemma'
p8038
S'on'
p8039
sS'PartOfSpeech'
p8040
S'IN'
p8041
sS'CharacterOffsetBegin'
p8042
S'2171'
p8043
stp8044
a(S'Wednesday'
p8045
(dp8046
S'NormalizedNamedEntityTag'
p8047
S'XXXX-WXX-3'
p8048
sS'Timex'
p8049
S'<TIMEX3 tid="t8" type="DATE" value="XXXX-WXX-3">Wednesday</TIMEX3>'
p8050
sS'Lemma'
p8051
S'Wednesday'
p8052
sS'CharacterOffsetEnd'
p8053
S'2183'
p8054
sS'PartOfSpeech'
p8055
S'NNP'
p8056
sS'CharacterOffsetBegin'
p8057
S'2174'
p8058
sS'NamedEntityTag'
p8059
S'DATE'
p8060
stp8061
a(g329
(dp8062
S'NamedEntityTag'
p8063
g83
sS'CharacterOffsetEnd'
p8064
S'2184'
p8065
sS'Lemma'
p8066
g329
sS'PartOfSpeech'
p8067
g329
sS'CharacterOffsetBegin'
p8068
S'2183'
p8069
stp8070
a(S'White'
p8071
(dp8072
S'NamedEntityTag'
p8073
S'ORGANIZATION'
p8074
sS'CharacterOffsetEnd'
p8075
S'2190'
p8076
sS'Lemma'
p8077
S'White'
p8078
sS'PartOfSpeech'
p8079
S'NNP'
p8080
sS'CharacterOffsetBegin'
p8081
S'2185'
p8082
stp8083
a(S'House'
p8084
(dp8085
S'NamedEntityTag'
p8086
S'ORGANIZATION'
p8087
sS'CharacterOffsetEnd'
p8088
S'2196'
p8089
sS'Lemma'
p8090
S'House'
p8091
sS'PartOfSpeech'
p8092
S'NNP'
p8093
sS'CharacterOffsetBegin'
p8094
S'2191'
p8095
stp8096
a(S'spokesman'
p8097
(dp8098
S'NamedEntityTag'
p8099
g83
sS'CharacterOffsetEnd'
p8100
S'2206'
p8101
sS'Lemma'
p8102
S'spokesman'
p8103
sS'PartOfSpeech'
p8104
S'NN'
p8105
sS'CharacterOffsetBegin'
p8106
S'2197'
p8107
stp8108
a(S'Joe'
p8109
(dp8110
S'NamedEntityTag'
p8111
S'PERSON'
p8112
sS'CharacterOffsetEnd'
p8113
S'2210'
p8114
sS'Lemma'
p8115
S'Joe'
p8116
sS'PartOfSpeech'
p8117
S'NNP'
p8118
sS'CharacterOffsetBegin'
p8119
S'2207'
p8120
stp8121
a(S'Lockhart'
p8122
(dp8123
S'NamedEntityTag'
p8124
S'PERSON'
p8125
sS'CharacterOffsetEnd'
p8126
S'2219'
p8127
sS'Lemma'
p8128
S'Lockhart'
p8129
sS'PartOfSpeech'
p8130
S'NNP'
p8131
sS'CharacterOffsetBegin'
p8132
S'2211'
p8133
stp8134
a(S'said'
p8135
(dp8136
S'NamedEntityTag'
p8137
g83
sS'CharacterOffsetEnd'
p8138
S'2224'
p8139
sS'Lemma'
p8140
S'say'
p8141
sS'PartOfSpeech'
p8142
S'VBD'
p8143
sS'CharacterOffsetBegin'
p8144
S'2220'
p8145
stp8146
a(S'the'
p8147
(dp8148
S'NamedEntityTag'
p8149
g83
sS'CharacterOffsetEnd'
p8150
S'2228'
p8151
sS'Lemma'
p8152
S'the'
p8153
sS'PartOfSpeech'
p8154
S'DT'
p8155
sS'CharacterOffsetBegin'
p8156
S'2225'
p8157
stp8158
a(S'United'
p8159
(dp8160
S'NamedEntityTag'
p8161
S'LOCATION'
p8162
sS'CharacterOffsetEnd'
p8163
S'2235'
p8164
sS'Lemma'
p8165
S'United'
p8166
sS'PartOfSpeech'
p8167
S'NNP'
p8168
sS'CharacterOffsetBegin'
p8169
S'2229'
p8170
stp8171
a(S'States'
p8172
(dp8173
S'NamedEntityTag'
p8174
S'LOCATION'
p8175
sS'CharacterOffsetEnd'
p8176
S'2242'
p8177
sS'Lemma'
p8178
S'States'
p8179
sS'PartOfSpeech'
p8180
S'NNPS'
p8181
sS'CharacterOffsetBegin'
p8182
S'2236'
p8183
stp8184
a(S'deplored'
p8185
(dp8186
S'NamedEntityTag'
p8187
g83
sS'CharacterOffsetEnd'
p8188
S'2251'
p8189
sS'Lemma'
p8190
S'deplore'
p8191
sS'PartOfSpeech'
p8192
S'VBD'
p8193
sS'CharacterOffsetBegin'
p8194
S'2243'
p8195
stp8196
a(S'the'
p8197
(dp8198
S'NamedEntityTag'
p8199
g83
sS'CharacterOffsetEnd'
p8200
S'2255'
p8201
sS'Lemma'
p8202
S'the'
p8203
sS'PartOfSpeech'
p8204
S'DT'
p8205
sS'CharacterOffsetBegin'
p8206
S'2252'
p8207
stp8208
a(S'arrests'
p8209
(dp8210
S'NamedEntityTag'
p8211
g83
sS'CharacterOffsetEnd'
p8212
S'2263'
p8213
sS'Lemma'
p8214
S'arrest'
p8215
sS'PartOfSpeech'
p8216
S'NNS'
p8217
sS'CharacterOffsetBegin'
p8218
S'2256'
p8219
stp8220
a(S'and'
p8221
(dp8222
S'NamedEntityTag'
p8223
g83
sS'CharacterOffsetEnd'
p8224
S'2267'
p8225
sS'Lemma'
p8226
S'and'
p8227
sS'PartOfSpeech'
p8228
S'CC'
p8229
sS'CharacterOffsetBegin'
p8230
S'2264'
p8231
stp8232
a(S'said'
p8233
(dp8234
S'NamedEntityTag'
p8235
g83
sS'CharacterOffsetEnd'
p8236
S'2272'
p8237
sS'Lemma'
p8238
S'say'
p8239
sS'PartOfSpeech'
p8240
S'VBD'
p8241
sS'CharacterOffsetBegin'
p8242
S'2268'
p8243
stp8244
a(S'the'
p8245
(dp8246
S'NamedEntityTag'
p8247
g83
sS'CharacterOffsetEnd'
p8248
S'2276'
p8249
sS'Lemma'
p8250
S'the'
p8251
sS'PartOfSpeech'
p8252
S'DT'
p8253
sS'CharacterOffsetBegin'
p8254
S'2273'
p8255
stp8256
a(S'dissidents'
p8257
(dp8258
S'NamedEntityTag'
p8259
g83
sS'CharacterOffsetEnd'
p8260
S'2287'
p8261
sS'Lemma'
p8262
S'dissident'
p8263
sS'PartOfSpeech'
p8264
S'NNS'
p8265
sS'CharacterOffsetBegin'
p8266
S'2277'
p8267
stp8268
a(S'peaceful'
p8269
(dp8270
S'NamedEntityTag'
p8271
g83
sS'CharacterOffsetEnd'
p8272
S'2296'
p8273
sS'Lemma'
p8274
S'peaceful'
p8275
sS'PartOfSpeech'
p8276
S'JJ'
p8277
sS'CharacterOffsetBegin'
p8278
S'2288'
p8279
stp8280
a(S'political'
p8281
(dp8282
S'NamedEntityTag'
p8283
g83
sS'CharacterOffsetEnd'
p8284
S'2306'
p8285
sS'Lemma'
p8286
S'political'
p8287
sS'PartOfSpeech'
p8288
S'JJ'
p8289
sS'CharacterOffsetBegin'
p8290
S'2297'
p8291
stp8292
a(S'activities'
p8293
(dp8294
S'NamedEntityTag'
p8295
g83
sS'CharacterOffsetEnd'
p8296
S'2317'
p8297
sS'Lemma'
p8298
S'activity'
p8299
sS'PartOfSpeech'
p8300
S'NNS'
p8301
sS'CharacterOffsetBegin'
p8302
S'2307'
p8303
stp8304
a(S'were'
p8305
(dp8306
S'NamedEntityTag'
p8307
g83
sS'CharacterOffsetEnd'
p8308
S'2322'
p8309
sS'Lemma'
p8310
S'be'
p8311
sS'PartOfSpeech'
p8312
S'VBD'
p8313
sS'CharacterOffsetBegin'
p8314
S'2318'
p8315
stp8316
a(S'fundamental'
p8317
(dp8318
S'NamedEntityTag'
p8319
g83
sS'CharacterOffsetEnd'
p8320
S'2334'
p8321
sS'Lemma'
p8322
S'fundamental'
p8323
sS'PartOfSpeech'
p8324
S'JJ'
p8325
sS'CharacterOffsetBegin'
p8326
S'2323'
p8327
stp8328
a(S'human'
p8329
(dp8330
S'NamedEntityTag'
p8331
g83
sS'CharacterOffsetEnd'
p8332
S'2340'
p8333
sS'Lemma'
p8334
S'human'
p8335
sS'PartOfSpeech'
p8336
S'JJ'
p8337
sS'CharacterOffsetBegin'
p8338
S'2335'
p8339
stp8340
a(S'rights'
p8341
(dp8342
S'NamedEntityTag'
p8343
g83
sS'CharacterOffsetEnd'
p8344
S'2347'
p8345
sS'Lemma'
p8346
S'rights'
p8347
sS'PartOfSpeech'
p8348
S'NNS'
p8349
sS'CharacterOffsetBegin'
p8350
S'2341'
p8351
stp8352
a(S'that'
p8353
(dp8354
S'NamedEntityTag'
p8355
g83
sS'CharacterOffsetEnd'
p8356
S'2352'
p8357
sS'Lemma'
p8358
S'that'
p8359
sS'PartOfSpeech'
p8360
S'IN'
p8361
sS'CharacterOffsetBegin'
p8362
S'2348'
p8363
stp8364
a(S'all'
p8365
(dp8366
S'NamedEntityTag'
p8367
g83
sS'CharacterOffsetEnd'
p8368
S'2356'
p8369
sS'Lemma'
p8370
S'all'
p8371
sS'PartOfSpeech'
p8372
S'DT'
p8373
sS'CharacterOffsetBegin'
p8374
S'2353'
p8375
stp8376
a(S'governments'
p8377
(dp8378
S'NamedEntityTag'
p8379
g83
sS'CharacterOffsetEnd'
p8380
S'2368'
p8381
sS'Lemma'
p8382
S'government'
p8383
sS'PartOfSpeech'
p8384
S'NNS'
p8385
sS'CharacterOffsetBegin'
p8386
S'2357'
p8387
stp8388
a(S'should'
p8389
(dp8390
S'NamedEntityTag'
p8391
g83
sS'CharacterOffsetEnd'
p8392
S'2375'
p8393
sS'Lemma'
p8394
S'should'
p8395
sS'PartOfSpeech'
p8396
S'MD'
p8397
sS'CharacterOffsetBegin'
p8398
S'2369'
p8399
stp8400
a(S'protect'
p8401
(dp8402
S'NamedEntityTag'
p8403
g83
sS'CharacterOffsetEnd'
p8404
S'2383'
p8405
sS'Lemma'
p8406
S'protect'
p8407
sS'PartOfSpeech'
p8408
S'VB'
p8409
sS'CharacterOffsetBegin'
p8410
S'2376'
p8411
stp8412
a(g1713
(dp8413
S'NamedEntityTag'
p8414
g83
sS'CharacterOffsetEnd'
p8415
S'2384'
p8416
sS'Lemma'
p8417
g1713
sS'PartOfSpeech'
p8418
g1713
sS'CharacterOffsetBegin'
p8419
S'2383'
p8420
stp8421
asa(dp8422
g7
S'(ROOT (S (NP (NNP U.S.) (NNS officials)) (VP (VP (VBD conveyed) (NP (PRP$ their) (NNS concerns)) (PP (TO to) (NP (NP (DT the) (NNP Chinese) (NNP Ministry)) (PP (IN of) (NP (NNP Foreign) (NNP Affairs)))))) (CC and) (VP (VBD urged) (SBAR (IN that) (S (NP (NNP Xu) (CC and) (NNP Qin)) (VP (VB be) (VP (VBN released) (ADVP (RB immediately)))))))) (. .)))'
p8423
sg9
S'U.S. officials conveyed their concerns to the Chinese Ministry of Foreign Affairs and urged that Xu and Qin be released immediately.'
p8424
sg11
(lp8425
(S'root'
p8426
S'ROOT'
p8427
S'conveyed'
p8428
tp8429
a(S'nn'
p8430
S'officials'
p8431
S'U.S.'
p8432
tp8433
a(S'nsubj'
p8434
S'conveyed'
p8435
S'officials'
p8436
tp8437
a(S'poss'
p8438
S'concerns'
p8439
S'their'
p8440
tp8441
a(S'dobj'
p8442
S'conveyed'
p8443
S'concerns'
p8444
tp8445
a(S'det'
p8446
S'Ministry'
p8447
S'the'
p8448
tp8449
a(S'nn'
p8450
S'Ministry'
p8451
S'Chinese'
p8452
tp8453
a(S'prep_to'
p8454
S'conveyed'
p8455
S'Ministry'
p8456
tp8457
a(S'nn'
p8458
S'Affairs'
p8459
S'Foreign'
p8460
tp8461
a(S'prep_of'
p8462
S'Ministry'
p8463
S'Affairs'
p8464
tp8465
a(S'conj_and'
p8466
S'conveyed'
p8467
S'urged'
p8468
tp8469
a(S'mark'
p8470
S'released'
p8471
S'that'
p8472
tp8473
a(S'nsubjpass'
p8474
S'released'
p8475
S'Xu'
p8476
tp8477
a(S'conj_and'
p8478
S'Xu'
p8479
S'Qin'
p8480
tp8481
a(S'auxpass'
p8482
S'released'
p8483
S'be'
p8484
tp8485
a(S'ccomp'
p8486
S'urged'
p8487
S'released'
p8488
tp8489
a(S'advmod'
p8490
S'released'
p8491
S'immediately'
p8492
tp8493
asg49
(lp8494
(g8426
S'ROOT-0'
p8495
S'conveyed-3'
p8496
tp8497
a(g8430
S'officials-2'
p8498
S'U.S.-1'
p8499
tp8500
a(g8434
S'conveyed-3'
p8501
S'officials-2'
p8502
tp8503
a(g8438
S'concerns-5'
p8504
S'their-4'
p8505
tp8506
a(g8442
S'conveyed-3'
p8507
S'concerns-5'
p8508
tp8509
a(g8446
S'Ministry-9'
p8510
S'the-7'
p8511
tp8512
a(g8450
S'Ministry-9'
p8513
S'Chinese-8'
p8514
tp8515
a(g8454
S'conveyed-3'
p8516
S'Ministry-9'
p8517
tp8518
a(g8458
S'Affairs-12'
p8519
S'Foreign-11'
p8520
tp8521
a(g8462
S'Ministry-9'
p8522
S'Affairs-12'
p8523
tp8524
a(g8466
S'conveyed-3'
p8525
S'urged-14'
p8526
tp8527
a(g8470
S'released-20'
p8528
S'that-15'
p8529
tp8530
a(g8474
S'released-20'
p8531
S'Xu-16'
p8532
tp8533
a(g8478
S'Xu-16'
p8534
S'Qin-18'
p8535
tp8536
a(g8482
S'released-20'
p8537
S'be-19'
p8538
tp8539
a(g8486
S'urged-14'
p8540
S'released-20'
p8541
tp8542
a(g8490
S'released-20'
p8543
S'immediately-21'
p8544
tp8545
asg78
(lp8546
(S'U.S.'
p8547
(dp8548
S'NamedEntityTag'
p8549
S'LOCATION'
p8550
sS'CharacterOffsetEnd'
p8551
S'2389'
p8552
sS'Lemma'
p8553
S'U.S.'
p8554
sS'PartOfSpeech'
p8555
S'NNP'
p8556
sS'CharacterOffsetBegin'
p8557
S'2385'
p8558
stp8559
a(S'officials'
p8560
(dp8561
S'NamedEntityTag'
p8562
g83
sS'CharacterOffsetEnd'
p8563
S'2399'
p8564
sS'Lemma'
p8565
S'official'
p8566
sS'PartOfSpeech'
p8567
S'NNS'
p8568
sS'CharacterOffsetBegin'
p8569
S'2390'
p8570
stp8571
a(S'conveyed'
p8572
(dp8573
S'NamedEntityTag'
p8574
g83
sS'CharacterOffsetEnd'
p8575
S'2408'
p8576
sS'Lemma'
p8577
S'convey'
p8578
sS'PartOfSpeech'
p8579
S'VBD'
p8580
sS'CharacterOffsetBegin'
p8581
S'2400'
p8582
stp8583
a(S'their'
p8584
(dp8585
S'NamedEntityTag'
p8586
g83
sS'CharacterOffsetEnd'
p8587
S'2414'
p8588
sS'Lemma'
p8589
S'they'
p8590
sS'PartOfSpeech'
p8591
S'PRP$'
p8592
sS'CharacterOffsetBegin'
p8593
S'2409'
p8594
stp8595
a(S'concerns'
p8596
(dp8597
S'NamedEntityTag'
p8598
g83
sS'CharacterOffsetEnd'
p8599
S'2423'
p8600
sS'Lemma'
p8601
S'concern'
p8602
sS'PartOfSpeech'
p8603
S'NNS'
p8604
sS'CharacterOffsetBegin'
p8605
S'2415'
p8606
stp8607
a(S'to'
p8608
(dp8609
S'NamedEntityTag'
p8610
g83
sS'CharacterOffsetEnd'
p8611
S'2426'
p8612
sS'Lemma'
p8613
S'to'
p8614
sS'PartOfSpeech'
p8615
S'TO'
p8616
sS'CharacterOffsetBegin'
p8617
S'2424'
p8618
stp8619
a(S'the'
p8620
(dp8621
S'NamedEntityTag'
p8622
g83
sS'CharacterOffsetEnd'
p8623
S'2430'
p8624
sS'Lemma'
p8625
S'the'
p8626
sS'PartOfSpeech'
p8627
S'DT'
p8628
sS'CharacterOffsetBegin'
p8629
S'2427'
p8630
stp8631
a(S'Chinese'
p8632
(dp8633
S'NamedEntityTag'
p8634
S'ORGANIZATION'
p8635
sS'CharacterOffsetEnd'
p8636
S'2438'
p8637
sS'Lemma'
p8638
S'Chinese'
p8639
sS'PartOfSpeech'
p8640
S'NNP'
p8641
sS'CharacterOffsetBegin'
p8642
S'2431'
p8643
stp8644
a(S'Ministry'
p8645
(dp8646
S'NamedEntityTag'
p8647
S'ORGANIZATION'
p8648
sS'CharacterOffsetEnd'
p8649
S'2447'
p8650
sS'Lemma'
p8651
S'Ministry'
p8652
sS'PartOfSpeech'
p8653
S'NNP'
p8654
sS'CharacterOffsetBegin'
p8655
S'2439'
p8656
stp8657
a(S'of'
p8658
(dp8659
S'NamedEntityTag'
p8660
S'ORGANIZATION'
p8661
sS'CharacterOffsetEnd'
p8662
S'2450'
p8663
sS'Lemma'
p8664
S'of'
p8665
sS'PartOfSpeech'
p8666
S'IN'
p8667
sS'CharacterOffsetBegin'
p8668
S'2448'
p8669
stp8670
a(S'Foreign'
p8671
(dp8672
S'NamedEntityTag'
p8673
S'ORGANIZATION'
p8674
sS'CharacterOffsetEnd'
p8675
S'2458'
p8676
sS'Lemma'
p8677
S'Foreign'
p8678
sS'PartOfSpeech'
p8679
S'NNP'
p8680
sS'CharacterOffsetBegin'
p8681
S'2451'
p8682
stp8683
a(S'Affairs'
p8684
(dp8685
S'NamedEntityTag'
p8686
S'ORGANIZATION'
p8687
sS'CharacterOffsetEnd'
p8688
S'2466'
p8689
sS'Lemma'
p8690
S'Affairs'
p8691
sS'PartOfSpeech'
p8692
S'NNP'
p8693
sS'CharacterOffsetBegin'
p8694
S'2459'
p8695
stp8696
a(S'and'
p8697
(dp8698
S'NamedEntityTag'
p8699
g83
sS'CharacterOffsetEnd'
p8700
S'2470'
p8701
sS'Lemma'
p8702
S'and'
p8703
sS'PartOfSpeech'
p8704
S'CC'
p8705
sS'CharacterOffsetBegin'
p8706
S'2467'
p8707
stp8708
a(S'urged'
p8709
(dp8710
S'NamedEntityTag'
p8711
g83
sS'CharacterOffsetEnd'
p8712
S'2476'
p8713
sS'Lemma'
p8714
S'urge'
p8715
sS'PartOfSpeech'
p8716
S'VBD'
p8717
sS'CharacterOffsetBegin'
p8718
S'2471'
p8719
stp8720
a(S'that'
p8721
(dp8722
S'NamedEntityTag'
p8723
g83
sS'CharacterOffsetEnd'
p8724
S'2481'
p8725
sS'Lemma'
p8726
S'that'
p8727
sS'PartOfSpeech'
p8728
S'IN'
p8729
sS'CharacterOffsetBegin'
p8730
S'2477'
p8731
stp8732
a(S'Xu'
p8733
(dp8734
S'NamedEntityTag'
p8735
S'PERSON'
p8736
sS'CharacterOffsetEnd'
p8737
S'2484'
p8738
sS'Lemma'
p8739
S'Xu'
p8740
sS'PartOfSpeech'
p8741
S'NNP'
p8742
sS'CharacterOffsetBegin'
p8743
S'2482'
p8744
stp8745
a(S'and'
p8746
(dp8747
S'NamedEntityTag'
p8748
g83
sS'CharacterOffsetEnd'
p8749
S'2488'
p8750
sS'Lemma'
p8751
S'and'
p8752
sS'PartOfSpeech'
p8753
S'CC'
p8754
sS'CharacterOffsetBegin'
p8755
S'2485'
p8756
stp8757
a(S'Qin'
p8758
(dp8759
S'NamedEntityTag'
p8760
S'PERSON'
p8761
sS'CharacterOffsetEnd'
p8762
S'2492'
p8763
sS'Lemma'
p8764
S'Qin'
p8765
sS'PartOfSpeech'
p8766
S'NNP'
p8767
sS'CharacterOffsetBegin'
p8768
S'2489'
p8769
stp8770
a(S'be'
p8771
(dp8772
S'NamedEntityTag'
p8773
g83
sS'CharacterOffsetEnd'
p8774
S'2495'
p8775
sS'Lemma'
p8776
S'be'
p8777
sS'PartOfSpeech'
p8778
S'VB'
p8779
sS'CharacterOffsetBegin'
p8780
S'2493'
p8781
stp8782
a(S'released'
p8783
(dp8784
S'NamedEntityTag'
p8785
g83
sS'CharacterOffsetEnd'
p8786
S'2504'
p8787
sS'Lemma'
p8788
S'release'
p8789
sS'PartOfSpeech'
p8790
S'VBN'
p8791
sS'CharacterOffsetBegin'
p8792
S'2496'
p8793
stp8794
a(S'immediately'
p8795
(dp8796
S'NamedEntityTag'
p8797
g83
sS'CharacterOffsetEnd'
p8798
S'2516'
p8799
sS'Lemma'
p8800
S'immediately'
p8801
sS'PartOfSpeech'
p8802
S'RB'
p8803
sS'CharacterOffsetBegin'
p8804
S'2505'
p8805
stp8806
a(g1713
(dp8807
S'NamedEntityTag'
p8808
g83
sS'CharacterOffsetEnd'
p8809
S'2517'
p8810
sS'Lemma'
p8811
g1713
sS'PartOfSpeech'
p8812
g1713
sS'CharacterOffsetBegin'
p8813
S'2516'
p8814
stp8815
asa(dp8816
g7
S'(ROOT (S (NP (NNP Zhu)) (VP (VBD criticized) (NP (NP (DT the) (NNP United) (NNPS States)) (PP (IN for) (S (VP (VBG condemning) (NP (DT the) (NNS arrests)))))) (, ,) (S (VP (VBG saying) (SBAR (IN that) (S (NP (NP (DT no) (NN country)) (, ,) (PP (VBG including) (NP (DT the) (NNP United) (NNPS States))) (, ,)) (VP (MD should) (VP (VB interfere) (PP (IN in) (NP (NNP Chinas) (JJ internal) (NNS affairs)))))))))) (. .)))'
p8817
sg9
S'Zhu criticized the United States for condemning the arrests, saying that no country, including the United States, should interfere in Chinas internal affairs.'
p8818
sg11
(lp8819
(S'root'
p8820
S'ROOT'
p8821
S'criticized'
p8822
tp8823
a(S'nsubj'
p8824
S'criticized'
p8825
S'Zhu'
p8826
tp8827
a(S'det'
p8828
S'States'
p8829
S'the'
p8830
tp8831
a(S'nn'
p8832
S'States'
p8833
S'United'
p8834
tp8835
a(S'dobj'
p8836
S'criticized'
p8837
S'States'
p8838
tp8839
a(S'prepc_for'
p8840
S'States'
p8841
S'condemning'
p8842
tp8843
a(S'det'
p8844
S'arrests'
p8845
S'the'
p8846
tp8847
a(S'dobj'
p8848
S'condemning'
p8849
S'arrests'
p8850
tp8851
a(S'partmod'
p8852
S'criticized'
p8853
S'saying'
p8854
tp8855
a(S'mark'
p8856
S'interfere'
p8857
S'that'
p8858
tp8859
a(S'det'
p8860
S'country'
p8861
S'no'
p8862
tp8863
a(S'nsubj'
p8864
S'interfere'
p8865
S'country'
p8866
tp8867
a(S'det'
p8868
S'States'
p8869
S'the'
p8870
tp8871
a(S'nn'
p8872
S'States'
p8873
S'United'
p8874
tp8875
a(S'prep_including'
p8876
S'country'
p8877
S'States'
p8878
tp8879
a(S'aux'
p8880
S'interfere'
p8881
S'should'
p8882
tp8883
a(S'ccomp'
p8884
S'saying'
p8885
S'interfere'
p8886
tp8887
a(S'nn'
p8888
S'affairs'
p8889
S'Chinas'
p8890
tp8891
a(S'amod'
p8892
S'affairs'
p8893
S'internal'
p8894
tp8895
a(S'prep_in'
p8896
S'interfere'
p8897
S'affairs'
p8898
tp8899
asg49
(lp8900
(g8820
S'ROOT-0'
p8901
S'criticized-2'
p8902
tp8903
a(g8824
S'criticized-2'
p8904
S'Zhu-1'
p8905
tp8906
a(g8828
S'States-5'
p8907
S'the-3'
p8908
tp8909
a(g8832
S'States-5'
p8910
S'United-4'
p8911
tp8912
a(g8836
S'criticized-2'
p8913
S'States-5'
p8914
tp8915
a(g8840
S'States-5'
p8916
S'condemning-7'
p8917
tp8918
a(g8844
S'arrests-9'
p8919
S'the-8'
p8920
tp8921
a(g8848
S'condemning-7'
p8922
S'arrests-9'
p8923
tp8924
a(g8852
S'criticized-2'
p8925
S'saying-11'
p8926
tp8927
a(g8856
S'interfere-22'
p8928
S'that-12'
p8929
tp8930
a(g8860
S'country-14'
p8931
S'no-13'
p8932
tp8933
a(g8864
S'interfere-22'
p8934
S'country-14'
p8935
tp8936
a(g8868
S'States-19'
p8937
S'the-17'
p8938
tp8939
a(g8872
S'States-19'
p8940
S'United-18'
p8941
tp8942
a(g8876
S'country-14'
p8943
S'States-19'
p8944
tp8945
a(g8880
S'interfere-22'
p8946
S'should-21'
p8947
tp8948
a(g8884
S'saying-11'
p8949
S'interfere-22'
p8950
tp8951
a(g8888
S'affairs-26'
p8952
S'Chinas-24'
p8953
tp8954
a(g8892
S'affairs-26'
p8955
S'internal-25'
p8956
tp8957
a(g8896
S'interfere-22'
p8958
S'affairs-26'
p8959
tp8960
asg78
(lp8961
(S'Zhu'
p8962
(dp8963
S'NamedEntityTag'
p8964
S'PERSON'
p8965
sS'CharacterOffsetEnd'
p8966
S'2521'
p8967
sS'Lemma'
p8968
S'Zhu'
p8969
sS'PartOfSpeech'
p8970
S'NNP'
p8971
sS'CharacterOffsetBegin'
p8972
S'2518'
p8973
stp8974
a(S'criticized'
p8975
(dp8976
S'NamedEntityTag'
p8977
g83
sS'CharacterOffsetEnd'
p8978
S'2532'
p8979
sS'Lemma'
p8980
S'criticize'
p8981
sS'PartOfSpeech'
p8982
S'VBD'
p8983
sS'CharacterOffsetBegin'
p8984
S'2522'
p8985
stp8986
a(S'the'
p8987
(dp8988
S'NamedEntityTag'
p8989
g83
sS'CharacterOffsetEnd'
p8990
S'2536'
p8991
sS'Lemma'
p8992
S'the'
p8993
sS'PartOfSpeech'
p8994
S'DT'
p8995
sS'CharacterOffsetBegin'
p8996
S'2533'
p8997
stp8998
a(S'United'
p8999
(dp9000
S'NamedEntityTag'
p9001
S'LOCATION'
p9002
sS'CharacterOffsetEnd'
p9003
S'2543'
p9004
sS'Lemma'
p9005
S'United'
p9006
sS'PartOfSpeech'
p9007
S'NNP'
p9008
sS'CharacterOffsetBegin'
p9009
S'2537'
p9010
stp9011
a(S'States'
p9012
(dp9013
S'NamedEntityTag'
p9014
S'LOCATION'
p9015
sS'CharacterOffsetEnd'
p9016
S'2550'
p9017
sS'Lemma'
p9018
S'States'
p9019
sS'PartOfSpeech'
p9020
S'NNPS'
p9021
sS'CharacterOffsetBegin'
p9022
S'2544'
p9023
stp9024
a(S'for'
p9025
(dp9026
S'NamedEntityTag'
p9027
g83
sS'CharacterOffsetEnd'
p9028
S'2554'
p9029
sS'Lemma'
p9030
S'for'
p9031
sS'PartOfSpeech'
p9032
S'IN'
p9033
sS'CharacterOffsetBegin'
p9034
S'2551'
p9035
stp9036
a(S'condemning'
p9037
(dp9038
S'NamedEntityTag'
p9039
g83
sS'CharacterOffsetEnd'
p9040
S'2565'
p9041
sS'Lemma'
p9042
S'condemn'
p9043
sS'PartOfSpeech'
p9044
S'VBG'
p9045
sS'CharacterOffsetBegin'
p9046
S'2555'
p9047
stp9048
a(S'the'
p9049
(dp9050
S'NamedEntityTag'
p9051
g83
sS'CharacterOffsetEnd'
p9052
S'2569'
p9053
sS'Lemma'
p9054
S'the'
p9055
sS'PartOfSpeech'
p9056
S'DT'
p9057
sS'CharacterOffsetBegin'
p9058
S'2566'
p9059
stp9060
a(S'arrests'
p9061
(dp9062
S'NamedEntityTag'
p9063
g83
sS'CharacterOffsetEnd'
p9064
S'2577'
p9065
sS'Lemma'
p9066
S'arrest'
p9067
sS'PartOfSpeech'
p9068
S'NNS'
p9069
sS'CharacterOffsetBegin'
p9070
S'2570'
p9071
stp9072
a(g329
(dp9073
S'NamedEntityTag'
p9074
g83
sS'CharacterOffsetEnd'
p9075
S'2578'
p9076
sS'Lemma'
p9077
g329
sS'PartOfSpeech'
p9078
g329
sS'CharacterOffsetBegin'
p9079
S'2577'
p9080
stp9081
a(S'saying'
p9082
(dp9083
S'NamedEntityTag'
p9084
g83
sS'CharacterOffsetEnd'
p9085
S'2585'
p9086
sS'Lemma'
p9087
S'say'
p9088
sS'PartOfSpeech'
p9089
S'VBG'
p9090
sS'CharacterOffsetBegin'
p9091
S'2579'
p9092
stp9093
a(S'that'
p9094
(dp9095
S'NamedEntityTag'
p9096
g83
sS'CharacterOffsetEnd'
p9097
S'2590'
p9098
sS'Lemma'
p9099
S'that'
p9100
sS'PartOfSpeech'
p9101
S'IN'
p9102
sS'CharacterOffsetBegin'
p9103
S'2586'
p9104
stp9105
a(S'no'
p9106
(dp9107
S'NamedEntityTag'
p9108
g83
sS'CharacterOffsetEnd'
p9109
S'2593'
p9110
sS'Lemma'
p9111
S'no'
p9112
sS'PartOfSpeech'
p9113
S'DT'
p9114
sS'CharacterOffsetBegin'
p9115
S'2591'
p9116
stp9117
a(S'country'
p9118
(dp9119
S'NamedEntityTag'
p9120
g83
sS'CharacterOffsetEnd'
p9121
S'2601'
p9122
sS'Lemma'
p9123
S'country'
p9124
sS'PartOfSpeech'
p9125
S'NN'
p9126
sS'CharacterOffsetBegin'
p9127
S'2594'
p9128
stp9129
a(g329
(dp9130
S'NamedEntityTag'
p9131
g83
sS'CharacterOffsetEnd'
p9132
S'2602'
p9133
sS'Lemma'
p9134
g329
sS'PartOfSpeech'
p9135
g329
sS'CharacterOffsetBegin'
p9136
S'2601'
p9137
stp9138
a(S'including'
p9139
(dp9140
S'NamedEntityTag'
p9141
g83
sS'CharacterOffsetEnd'
p9142
S'2612'
p9143
sS'Lemma'
p9144
S'include'
p9145
sS'PartOfSpeech'
p9146
S'VBG'
p9147
sS'CharacterOffsetBegin'
p9148
S'2603'
p9149
stp9150
a(S'the'
p9151
(dp9152
S'NamedEntityTag'
p9153
g83
sS'CharacterOffsetEnd'
p9154
S'2616'
p9155
sS'Lemma'
p9156
S'the'
p9157
sS'PartOfSpeech'
p9158
S'DT'
p9159
sS'CharacterOffsetBegin'
p9160
S'2613'
p9161
stp9162
a(S'United'
p9163
(dp9164
S'NamedEntityTag'
p9165
S'LOCATION'
p9166
sS'CharacterOffsetEnd'
p9167
S'2623'
p9168
sS'Lemma'
p9169
S'United'
p9170
sS'PartOfSpeech'
p9171
S'NNP'
p9172
sS'CharacterOffsetBegin'
p9173
S'2617'
p9174
stp9175
a(S'States'
p9176
(dp9177
S'NamedEntityTag'
p9178
S'LOCATION'
p9179
sS'CharacterOffsetEnd'
p9180
S'2630'
p9181
sS'Lemma'
p9182
S'States'
p9183
sS'PartOfSpeech'
p9184
S'NNPS'
p9185
sS'CharacterOffsetBegin'
p9186
S'2624'
p9187
stp9188
a(g329
(dp9189
S'NamedEntityTag'
p9190
g83
sS'CharacterOffsetEnd'
p9191
S'2631'
p9192
sS'Lemma'
p9193
g329
sS'PartOfSpeech'
p9194
g329
sS'CharacterOffsetBegin'
p9195
S'2630'
p9196
stp9197
a(S'should'
p9198
(dp9199
S'NamedEntityTag'
p9200
g83
sS'CharacterOffsetEnd'
p9201
S'2638'
p9202
sS'Lemma'
p9203
S'should'
p9204
sS'PartOfSpeech'
p9205
S'MD'
p9206
sS'CharacterOffsetBegin'
p9207
S'2632'
p9208
stp9209
a(S'interfere'
p9210
(dp9211
S'NamedEntityTag'
p9212
g83
sS'CharacterOffsetEnd'
p9213
S'2648'
p9214
sS'Lemma'
p9215
S'interfere'
p9216
sS'PartOfSpeech'
p9217
S'VB'
p9218
sS'CharacterOffsetBegin'
p9219
S'2639'
p9220
stp9221
a(S'in'
p9222
(dp9223
S'NamedEntityTag'
p9224
g83
sS'CharacterOffsetEnd'
p9225
S'2651'
p9226
sS'Lemma'
p9227
S'in'
p9228
sS'PartOfSpeech'
p9229
S'IN'
p9230
sS'CharacterOffsetBegin'
p9231
S'2649'
p9232
stp9233
a(S'Chinas'
p9234
(dp9235
S'NamedEntityTag'
p9236
g83
sS'CharacterOffsetEnd'
p9237
S'2658'
p9238
sS'Lemma'
p9239
S'Chinas'
p9240
sS'PartOfSpeech'
p9241
S'NNP'
p9242
sS'CharacterOffsetBegin'
p9243
S'2652'
p9244
stp9245
a(S'internal'
p9246
(dp9247
S'NamedEntityTag'
p9248
g83
sS'CharacterOffsetEnd'
p9249
S'2667'
p9250
sS'Lemma'
p9251
S'internal'
p9252
sS'PartOfSpeech'
p9253
S'JJ'
p9254
sS'CharacterOffsetBegin'
p9255
S'2659'
p9256
stp9257
a(S'affairs'
p9258
(dp9259
S'NamedEntityTag'
p9260
g83
sS'CharacterOffsetEnd'
p9261
S'2675'
p9262
sS'Lemma'
p9263
S'affair'
p9264
sS'PartOfSpeech'
p9265
S'NNS'
p9266
sS'CharacterOffsetBegin'
p9267
S'2668'
p9268
stp9269
a(g1713
(dp9270
S'NamedEntityTag'
p9271
g83
sS'CharacterOffsetEnd'
p9272
S'2676'
p9273
sS'Lemma'
p9274
g1713
sS'PartOfSpeech'
p9275
g1713
sS'CharacterOffsetBegin'
p9276
S'2675'
p9277
stp9278
asa(dp9279
g7
S'(ROOT (S (NP (NP (NNP China)) (PP (IN in) (NP (NNP October)))) (VP (VBD signed) (NP (NP (DT a) (JJ key) (NNP U.N.) (NN treaty)) (PP (IN on) (NP (ADJP (JJ civil) (CC and) (JJ political)) (NNS rights))) (SBAR (WHNP (WDT that)) (S (VP (VBZ guarantees) (NP (NP (NN freedom)) (PP (IN of) (NP (NN expression) (CC and) (NN freedom))) (PP (IN of) (NP (NN association))))))))) (. .)))'
p9280
sg9
S'China in October signed a key U.N. treaty on civil and political rights that guarantees freedom of expression and freedom of association.'
p9281
sg11
(lp9282
(S'root'
p9283
S'ROOT'
p9284
S'signed'
p9285
tp9286
a(S'nsubj'
p9287
S'signed'
p9288
S'China'
p9289
tp9290
a(S'prep_in'
p9291
S'China'
p9292
S'October'
p9293
tp9294
a(S'det'
p9295
S'treaty'
p9296
g1222
tp9297
a(S'amod'
p9298
S'treaty'
p9299
S'key'
p9300
tp9301
a(S'nn'
p9302
S'treaty'
p9303
S'U.N.'
p9304
tp9305
a(S'dobj'
p9306
S'signed'
p9307
S'treaty'
p9308
tp9309
a(S'amod'
p9310
S'rights'
p9311
S'civil'
p9312
tp9313
a(S'conj_and'
p9314
S'civil'
p9315
S'political'
p9316
tp9317
a(S'prep_on'
p9318
S'treaty'
p9319
S'rights'
p9320
tp9321
a(S'nsubj'
p9322
S'guarantees'
p9323
S'that'
p9324
tp9325
a(S'rcmod'
p9326
S'treaty'
p9327
S'guarantees'
p9328
tp9329
a(S'dobj'
p9330
S'guarantees'
p9331
S'freedom'
p9332
tp9333
a(S'prep_of'
p9334
S'freedom'
p9335
S'expression'
p9336
tp9337
a(S'conj_and'
p9338
S'expression'
p9339
S'freedom'
p9340
tp9341
a(S'prep_of'
p9342
S'freedom'
p9343
S'association'
p9344
tp9345
asg49
(lp9346
(g9283
S'ROOT-0'
p9347
S'signed-4'
p9348
tp9349
a(g9287
S'signed-4'
p9350
S'China-1'
p9351
tp9352
a(g9291
S'China-1'
p9353
S'October-3'
p9354
tp9355
a(g9295
S'treaty-8'
p9356
S'a-5'
p9357
tp9358
a(g9298
S'treaty-8'
p9359
S'key-6'
p9360
tp9361
a(g9302
S'treaty-8'
p9362
S'U.N.-7'
p9363
tp9364
a(g9306
S'signed-4'
p9365
S'treaty-8'
p9366
tp9367
a(g9310
S'rights-13'
p9368
S'civil-10'
p9369
tp9370
a(g9314
S'civil-10'
p9371
S'political-12'
p9372
tp9373
a(g9318
S'treaty-8'
p9374
S'rights-13'
p9375
tp9376
a(g9322
S'guarantees-15'
p9377
S'that-14'
p9378
tp9379
a(g9326
S'treaty-8'
p9380
S'guarantees-15'
p9381
tp9382
a(g9330
S'guarantees-15'
p9383
S'freedom-16'
p9384
tp9385
a(g9334
S'freedom-16'
p9386
S'expression-18'
p9387
tp9388
a(g9338
S'expression-18'
p9389
S'freedom-20'
p9390
tp9391
a(g9342
S'freedom-16'
p9392
S'association-22'
p9393
tp9394
asg78
(lp9395
(S'China'
p9396
(dp9397
S'NamedEntityTag'
p9398
S'LOCATION'
p9399
sS'CharacterOffsetEnd'
p9400
S'2682'
p9401
sS'Lemma'
p9402
S'China'
p9403
sS'PartOfSpeech'
p9404
S'NNP'
p9405
sS'CharacterOffsetBegin'
p9406
S'2677'
p9407
stp9408
a(S'in'
p9409
(dp9410
S'NamedEntityTag'
p9411
g83
sS'CharacterOffsetEnd'
p9412
S'2685'
p9413
sS'Lemma'
p9414
S'in'
p9415
sS'PartOfSpeech'
p9416
S'IN'
p9417
sS'CharacterOffsetBegin'
p9418
S'2683'
p9419
stp9420
a(S'October'
p9421
(dp9422
S'NormalizedNamedEntityTag'
p9423
S'XXXX-10'
p9424
sS'Timex'
p9425
S'<TIMEX3 tid="t14" type="DATE" value="XXXX-10">October</TIMEX3>'
p9426
sS'Lemma'
p9427
S'October'
p9428
sS'CharacterOffsetEnd'
p9429
S'2693'
p9430
sS'PartOfSpeech'
p9431
S'NNP'
p9432
sS'CharacterOffsetBegin'
p9433
S'2686'
p9434
sS'NamedEntityTag'
p9435
S'DATE'
p9436
stp9437
a(S'signed'
p9438
(dp9439
S'NamedEntityTag'
p9440
g83
sS'CharacterOffsetEnd'
p9441
S'2700'
p9442
sS'Lemma'
p9443
S'sign'
p9444
sS'PartOfSpeech'
p9445
S'VBD'
p9446
sS'CharacterOffsetBegin'
p9447
S'2694'
p9448
stp9449
a(g1222
(dp9450
S'NamedEntityTag'
p9451
g83
sS'CharacterOffsetEnd'
p9452
S'2702'
p9453
sS'Lemma'
p9454
g1222
sS'PartOfSpeech'
p9455
S'DT'
p9456
sS'CharacterOffsetBegin'
p9457
S'2701'
p9458
stp9459
a(S'key'
p9460
(dp9461
S'NamedEntityTag'
p9462
g83
sS'CharacterOffsetEnd'
p9463
S'2706'
p9464
sS'Lemma'
p9465
S'key'
p9466
sS'PartOfSpeech'
p9467
S'JJ'
p9468
sS'CharacterOffsetBegin'
p9469
S'2703'
p9470
stp9471
a(S'U.N.'
p9472
(dp9473
S'NamedEntityTag'
p9474
S'ORGANIZATION'
p9475
sS'CharacterOffsetEnd'
p9476
S'2711'
p9477
sS'Lemma'
p9478
S'U.N.'
p9479
sS'PartOfSpeech'
p9480
S'NNP'
p9481
sS'CharacterOffsetBegin'
p9482
S'2707'
p9483
stp9484
a(S'treaty'
p9485
(dp9486
S'NamedEntityTag'
p9487
g83
sS'CharacterOffsetEnd'
p9488
S'2718'
p9489
sS'Lemma'
p9490
S'treaty'
p9491
sS'PartOfSpeech'
p9492
S'NN'
p9493
sS'CharacterOffsetBegin'
p9494
S'2712'
p9495
stp9496
a(S'on'
p9497
(dp9498
S'NamedEntityTag'
p9499
g83
sS'CharacterOffsetEnd'
p9500
S'2721'
p9501
sS'Lemma'
p9502
S'on'
p9503
sS'PartOfSpeech'
p9504
S'IN'
p9505
sS'CharacterOffsetBegin'
p9506
S'2719'
p9507
stp9508
a(S'civil'
p9509
(dp9510
S'NamedEntityTag'
p9511
g83
sS'CharacterOffsetEnd'
p9512
S'2727'
p9513
sS'Lemma'
p9514
S'civil'
p9515
sS'PartOfSpeech'
p9516
S'JJ'
p9517
sS'CharacterOffsetBegin'
p9518
S'2722'
p9519
stp9520
a(S'and'
p9521
(dp9522
S'NamedEntityTag'
p9523
g83
sS'CharacterOffsetEnd'
p9524
S'2731'
p9525
sS'Lemma'
p9526
S'and'
p9527
sS'PartOfSpeech'
p9528
S'CC'
p9529
sS'CharacterOffsetBegin'
p9530
S'2728'
p9531
stp9532
a(S'political'
p9533
(dp9534
S'NamedEntityTag'
p9535
g83
sS'CharacterOffsetEnd'
p9536
S'2741'
p9537
sS'Lemma'
p9538
S'political'
p9539
sS'PartOfSpeech'
p9540
S'JJ'
p9541
sS'CharacterOffsetBegin'
p9542
S'2732'
p9543
stp9544
a(S'rights'
p9545
(dp9546
S'NamedEntityTag'
p9547
g83
sS'CharacterOffsetEnd'
p9548
S'2748'
p9549
sS'Lemma'
p9550
S'rights'
p9551
sS'PartOfSpeech'
p9552
S'NNS'
p9553
sS'CharacterOffsetBegin'
p9554
S'2742'
p9555
stp9556
a(S'that'
p9557
(dp9558
S'NamedEntityTag'
p9559
g83
sS'CharacterOffsetEnd'
p9560
S'2753'
p9561
sS'Lemma'
p9562
S'that'
p9563
sS'PartOfSpeech'
p9564
S'WDT'
p9565
sS'CharacterOffsetBegin'
p9566
S'2749'
p9567
stp9568
a(S'guarantees'
p9569
(dp9570
S'NamedEntityTag'
p9571
g83
sS'CharacterOffsetEnd'
p9572
S'2764'
p9573
sS'Lemma'
p9574
S'guarantee'
p9575
sS'PartOfSpeech'
p9576
S'VBZ'
p9577
sS'CharacterOffsetBegin'
p9578
S'2754'
p9579
stp9580
a(S'freedom'
p9581
(dp9582
S'NamedEntityTag'
p9583
g83
sS'CharacterOffsetEnd'
p9584
S'2772'
p9585
sS'Lemma'
p9586
S'freedom'
p9587
sS'PartOfSpeech'
p9588
S'NN'
p9589
sS'CharacterOffsetBegin'
p9590
S'2765'
p9591
stp9592
a(S'of'
p9593
(dp9594
S'NamedEntityTag'
p9595
g83
sS'CharacterOffsetEnd'
p9596
S'2775'
p9597
sS'Lemma'
p9598
S'of'
p9599
sS'PartOfSpeech'
p9600
S'IN'
p9601
sS'CharacterOffsetBegin'
p9602
S'2773'
p9603
stp9604
a(S'expression'
p9605
(dp9606
S'NamedEntityTag'
p9607
g83
sS'CharacterOffsetEnd'
p9608
S'2786'
p9609
sS'Lemma'
p9610
S'expression'
p9611
sS'PartOfSpeech'
p9612
S'NN'
p9613
sS'CharacterOffsetBegin'
p9614
S'2776'
p9615
stp9616
a(S'and'
p9617
(dp9618
S'NamedEntityTag'
p9619
g83
sS'CharacterOffsetEnd'
p9620
S'2790'
p9621
sS'Lemma'
p9622
S'and'
p9623
sS'PartOfSpeech'
p9624
S'CC'
p9625
sS'CharacterOffsetBegin'
p9626
S'2787'
p9627
stp9628
a(S'freedom'
p9629
(dp9630
S'NamedEntityTag'
p9631
g83
sS'CharacterOffsetEnd'
p9632
S'2798'
p9633
sS'Lemma'
p9634
S'freedom'
p9635
sS'PartOfSpeech'
p9636
S'NN'
p9637
sS'CharacterOffsetBegin'
p9638
S'2791'
p9639
stp9640
a(S'of'
p9641
(dp9642
S'NamedEntityTag'
p9643
g83
sS'CharacterOffsetEnd'
p9644
S'2801'
p9645
sS'Lemma'
p9646
S'of'
p9647
sS'PartOfSpeech'
p9648
S'IN'
p9649
sS'CharacterOffsetBegin'
p9650
S'2799'
p9651
stp9652
a(S'association'
p9653
(dp9654
S'NamedEntityTag'
p9655
g83
sS'CharacterOffsetEnd'
p9656
S'2813'
p9657
sS'Lemma'
p9658
S'association'
p9659
sS'PartOfSpeech'
p9660
S'NN'
p9661
sS'CharacterOffsetBegin'
p9662
S'2802'
p9663
stp9664
a(g1713
(dp9665
S'NamedEntityTag'
p9666
g83
sS'CharacterOffsetEnd'
p9667
S'2814'
p9668
sS'Lemma'
p9669
g1713
sS'PartOfSpeech'
p9670
g1713
sS'CharacterOffsetBegin'
p9671
S'2813'
p9672
stp9673
asa(dp9674
g7
S'(ROOT (S (NP (PRP It)) (VP (VBD was) (NP (NP (DT the) (JJ 17th) (JJ international) (JJ human) (NNS rights) (NN treaty)) (SBAR (S (NP (NNP China)) (VP (VBZ has) (VP (VBN signed))))))) (. .)))'
p9675
sg9
S'It was the 17th international human rights treaty China has signed.'
p9676
sg11
(lp9677
(S'root'
p9678
S'ROOT'
p9679
S'treaty'
p9680
tp9681
a(S'nsubj'
p9682
S'treaty'
p9683
S'It'
p9684
tp9685
a(S'cop'
p9686
S'treaty'
p9687
S'was'
p9688
tp9689
a(S'det'
p9690
S'treaty'
p9691
S'the'
p9692
tp9693
a(S'amod'
p9694
S'treaty'
p9695
S'17th'
p9696
tp9697
a(S'amod'
p9698
S'treaty'
p9699
S'international'
p9700
tp9701
a(S'amod'
p9702
S'treaty'
p9703
S'human'
p9704
tp9705
a(S'nn'
p9706
S'treaty'
p9707
S'rights'
p9708
tp9709
a(S'nsubj'
p9710
S'signed'
p9711
S'China'
p9712
tp9713
a(S'aux'
p9714
S'signed'
p9715
S'has'
p9716
tp9717
a(S'rcmod'
p9718
S'treaty'
p9719
S'signed'
p9720
tp9721
asg49
(lp9722
(g9678
S'ROOT-0'
p9723
S'treaty-8'
p9724
tp9725
a(g9682
S'treaty-8'
p9726
S'It-1'
p9727
tp9728
a(g9686
S'treaty-8'
p9729
S'was-2'
p9730
tp9731
a(g9690
S'treaty-8'
p9732
S'the-3'
p9733
tp9734
a(g9694
S'treaty-8'
p9735
S'17th-4'
p9736
tp9737
a(g9698
S'treaty-8'
p9738
S'international-5'
p9739
tp9740
a(g9702
S'treaty-8'
p9741
S'human-6'
p9742
tp9743
a(g9706
S'treaty-8'
p9744
S'rights-7'
p9745
tp9746
a(g9710
S'signed-11'
p9747
S'China-9'
p9748
tp9749
a(g9714
S'signed-11'
p9750
S'has-10'
p9751
tp9752
a(g9718
S'treaty-8'
p9753
S'signed-11'
p9754
tp9755
asg78
(lp9756
(S'It'
p9757
(dp9758
S'NamedEntityTag'
p9759
g83
sS'CharacterOffsetEnd'
p9760
S'2817'
p9761
sS'Lemma'
p9762
S'it'
p9763
sS'PartOfSpeech'
p9764
S'PRP'
p9765
sS'CharacterOffsetBegin'
p9766
S'2815'
p9767
stp9768
a(S'was'
p9769
(dp9770
S'NamedEntityTag'
p9771
g83
sS'CharacterOffsetEnd'
p9772
S'2821'
p9773
sS'Lemma'
p9774
S'be'
p9775
sS'PartOfSpeech'
p9776
S'VBD'
p9777
sS'CharacterOffsetBegin'
p9778
S'2818'
p9779
stp9780
a(S'the'
p9781
(dp9782
S'NamedEntityTag'
p9783
g83
sS'CharacterOffsetEnd'
p9784
S'2825'
p9785
sS'Lemma'
p9786
S'the'
p9787
sS'PartOfSpeech'
p9788
S'DT'
p9789
sS'CharacterOffsetBegin'
p9790
S'2822'
p9791
stp9792
a(S'17th'
p9793
(dp9794
S'NormalizedNamedEntityTag'
p9795
S'17.0'
p9796
sS'Lemma'
p9797
S'17th'
p9798
sS'CharacterOffsetEnd'
p9799
S'2830'
p9800
sS'PartOfSpeech'
p9801
S'JJ'
p9802
sS'CharacterOffsetBegin'
p9803
S'2826'
p9804
sS'NamedEntityTag'
p9805
S'ORDINAL'
p9806
stp9807
a(S'international'
p9808
(dp9809
S'NamedEntityTag'
p9810
g83
sS'CharacterOffsetEnd'
p9811
S'2844'
p9812
sS'Lemma'
p9813
S'international'
p9814
sS'PartOfSpeech'
p9815
S'JJ'
p9816
sS'CharacterOffsetBegin'
p9817
S'2831'
p9818
stp9819
a(S'human'
p9820
(dp9821
S'NamedEntityTag'
p9822
g83
sS'CharacterOffsetEnd'
p9823
S'2850'
p9824
sS'Lemma'
p9825
S'human'
p9826
sS'PartOfSpeech'
p9827
S'JJ'
p9828
sS'CharacterOffsetBegin'
p9829
S'2845'
p9830
stp9831
a(S'rights'
p9832
(dp9833
S'NamedEntityTag'
p9834
g83
sS'CharacterOffsetEnd'
p9835
S'2857'
p9836
sS'Lemma'
p9837
S'rights'
p9838
sS'PartOfSpeech'
p9839
S'NNS'
p9840
sS'CharacterOffsetBegin'
p9841
S'2851'
p9842
stp9843
a(S'treaty'
p9844
(dp9845
S'NamedEntityTag'
p9846
g83
sS'CharacterOffsetEnd'
p9847
S'2864'
p9848
sS'Lemma'
p9849
S'treaty'
p9850
sS'PartOfSpeech'
p9851
S'NN'
p9852
sS'CharacterOffsetBegin'
p9853
S'2858'
p9854
stp9855
a(S'China'
p9856
(dp9857
S'NamedEntityTag'
p9858
S'LOCATION'
p9859
sS'CharacterOffsetEnd'
p9860
S'2870'
p9861
sS'Lemma'
p9862
S'China'
p9863
sS'PartOfSpeech'
p9864
S'NNP'
p9865
sS'CharacterOffsetBegin'
p9866
S'2865'
p9867
stp9868
a(S'has'
p9869
(dp9870
S'NamedEntityTag'
p9871
g83
sS'CharacterOffsetEnd'
p9872
S'2874'
p9873
sS'Lemma'
p9874
S'have'
p9875
sS'PartOfSpeech'
p9876
S'VBZ'
p9877
sS'CharacterOffsetBegin'
p9878
S'2871'
p9879
stp9880
a(S'signed'
p9881
(dp9882
S'NamedEntityTag'
p9883
g83
sS'CharacterOffsetEnd'
p9884
S'2881'
p9885
sS'Lemma'
p9886
S'sign'
p9887
sS'PartOfSpeech'
p9888
S'VBN'
p9889
sS'CharacterOffsetBegin'
p9890
S'2875'
p9891
stp9892
a(g1713
(dp9893
S'NamedEntityTag'
p9894
g83
sS'CharacterOffsetEnd'
p9895
S'2882'
p9896
sS'Lemma'
p9897
g1713
sS'PartOfSpeech'
p9898
g1713
sS'CharacterOffsetBegin'
p9899
S'2881'
p9900
stp9901
asa(dp9902
g7
S'(ROOT (S (NP (NNP Zhu)) (VP (VBD told) (NP (NP (NNS reporters)) (SBAR (S (NP (EX there)) (VP (VBD was) (NP (RB absolutely) (ADVP (NP (DT no) (NN contradiction)) (IN at)) (NP (NP (DT all)) (PP (IN between) (NP (NNP Chinas) (NN support))) (PP (IN for) (NP (DT these) (NNS treaties)))) (CC and) (NP (NP (PRP$ its) (NNS arrests)) (PP (IN of) (NP (DT the) (CD two) (NNS dissidents)))))))))) (. .)))'
p9903
sg9
S'Zhu told reporters there was absolutely no contradiction at all between Chinas support for these treaties and its arrests of the two dissidents.'
p9904
sg11
(lp9905
(S'root'
p9906
S'ROOT'
p9907
S'told'
p9908
tp9909
a(S'nsubj'
p9910
S'told'
p9911
S'Zhu'
p9912
tp9913
a(S'dobj'
p9914
S'told'
p9915
S'reporters'
p9916
tp9917
a(S'expl'
p9918
S'was'
p9919
S'there'
p9920
tp9921
a(S'rcmod'
p9922
S'reporters'
p9923
S'was'
p9924
tp9925
a(S'advmod'
p9926
S'all'
p9927
S'absolutely'
p9928
tp9929
a(S'det'
p9930
S'contradiction'
p9931
S'no'
p9932
tp9933
a(S'npadvmod'
p9934
S'at'
p9935
S'contradiction'
p9936
tp9937
a(S'advmod'
p9938
S'all'
p9939
S'at'
p9940
tp9941
a(S'nsubj'
p9942
S'was'
p9943
S'all'
p9944
tp9945
a(S'nn'
p9946
S'support'
p9947
S'Chinas'
p9948
tp9949
a(S'prep_between'
p9950
S'all'
p9951
S'support'
p9952
tp9953
a(S'det'
p9954
S'treaties'
p9955
S'these'
p9956
tp9957
a(S'prep_for'
p9958
S'all'
p9959
S'treaties'
p9960
tp9961
a(S'poss'
p9962
S'arrests'
p9963
S'its'
p9964
tp9965
a(S'conj_and'
p9966
S'all'
p9967
S'arrests'
p9968
tp9969
a(S'det'
p9970
S'dissidents'
p9971
S'the'
p9972
tp9973
a(S'num'
p9974
S'dissidents'
p9975
S'two'
p9976
tp9977
a(S'prep_of'
p9978
S'arrests'
p9979
S'dissidents'
p9980
tp9981
asg49
(lp9982
(g9906
S'ROOT-0'
p9983
S'told-2'
p9984
tp9985
a(g9910
S'told-2'
p9986
S'Zhu-1'
p9987
tp9988
a(g9914
S'told-2'
p9989
S'reporters-3'
p9990
tp9991
a(g9918
S'was-5'
p9992
S'there-4'
p9993
tp9994
a(g9922
S'reporters-3'
p9995
S'was-5'
p9996
tp9997
a(g9926
S'all-10'
p9998
S'absolutely-6'
p9999
tp10000
a(g9930
S'contradiction-8'
p10001
S'no-7'
p10002
tp10003
a(g9934
S'at-9'
p10004
S'contradiction-8'
p10005
tp10006
a(g9938
S'all-10'
p10007
S'at-9'
p10008
tp10009
a(g9942
S'was-5'
p10010
S'all-10'
p10011
tp10012
a(g9946
S'support-13'
p10013
S'Chinas-12'
p10014
tp10015
a(g9950
S'all-10'
p10016
S'support-13'
p10017
tp10018
a(g9954
S'treaties-16'
p10019
S'these-15'
p10020
tp10021
a(g9958
S'all-10'
p10022
S'treaties-16'
p10023
tp10024
a(g9962
S'arrests-19'
p10025
S'its-18'
p10026
tp10027
a(g9966
S'all-10'
p10028
S'arrests-19'
p10029
tp10030
a(g9970
S'dissidents-23'
p10031
S'the-21'
p10032
tp10033
a(g9974
S'dissidents-23'
p10034
S'two-22'
p10035
tp10036
a(g9978
S'arrests-19'
p10037
S'dissidents-23'
p10038
tp10039
asg78
(lp10040
(S'Zhu'
p10041
(dp10042
S'NamedEntityTag'
p10043
S'PERSON'
p10044
sS'CharacterOffsetEnd'
p10045
S'2886'
p10046
sS'Lemma'
p10047
S'Zhu'
p10048
sS'PartOfSpeech'
p10049
S'NNP'
p10050
sS'CharacterOffsetBegin'
p10051
S'2883'
p10052
stp10053
a(S'told'
p10054
(dp10055
S'NamedEntityTag'
p10056
g83
sS'CharacterOffsetEnd'
p10057
S'2891'
p10058
sS'Lemma'
p10059
S'tell'
p10060
sS'PartOfSpeech'
p10061
S'VBD'
p10062
sS'CharacterOffsetBegin'
p10063
S'2887'
p10064
stp10065
a(S'reporters'
p10066
(dp10067
S'NamedEntityTag'
p10068
g83
sS'CharacterOffsetEnd'
p10069
S'2901'
p10070
sS'Lemma'
p10071
S'reporter'
p10072
sS'PartOfSpeech'
p10073
S'NNS'
p10074
sS'CharacterOffsetBegin'
p10075
S'2892'
p10076
stp10077
a(S'there'
p10078
(dp10079
S'NamedEntityTag'
p10080
g83
sS'CharacterOffsetEnd'
p10081
S'2907'
p10082
sS'Lemma'
p10083
S'there'
p10084
sS'PartOfSpeech'
p10085
S'EX'
p10086
sS'CharacterOffsetBegin'
p10087
S'2902'
p10088
stp10089
a(S'was'
p10090
(dp10091
S'NamedEntityTag'
p10092
g83
sS'CharacterOffsetEnd'
p10093
S'2911'
p10094
sS'Lemma'
p10095
S'be'
p10096
sS'PartOfSpeech'
p10097
S'VBD'
p10098
sS'CharacterOffsetBegin'
p10099
S'2908'
p10100
stp10101
a(S'absolutely'
p10102
(dp10103
S'NamedEntityTag'
p10104
g83
sS'CharacterOffsetEnd'
p10105
S'2922'
p10106
sS'Lemma'
p10107
S'absolutely'
p10108
sS'PartOfSpeech'
p10109
S'RB'
p10110
sS'CharacterOffsetBegin'
p10111
S'2912'
p10112
stp10113
a(S'no'
p10114
(dp10115
S'NamedEntityTag'
p10116
g83
sS'CharacterOffsetEnd'
p10117
S'2925'
p10118
sS'Lemma'
p10119
S'no'
p10120
sS'PartOfSpeech'
p10121
S'DT'
p10122
sS'CharacterOffsetBegin'
p10123
S'2923'
p10124
stp10125
a(S'contradiction'
p10126
(dp10127
S'NamedEntityTag'
p10128
g83
sS'CharacterOffsetEnd'
p10129
S'2939'
p10130
sS'Lemma'
p10131
S'contradiction'
p10132
sS'PartOfSpeech'
p10133
S'NN'
p10134
sS'CharacterOffsetBegin'
p10135
S'2926'
p10136
stp10137
a(S'at'
p10138
(dp10139
S'NamedEntityTag'
p10140
g83
sS'CharacterOffsetEnd'
p10141
S'2942'
p10142
sS'Lemma'
p10143
S'at'
p10144
sS'PartOfSpeech'
p10145
S'IN'
p10146
sS'CharacterOffsetBegin'
p10147
S'2940'
p10148
stp10149
a(S'all'
p10150
(dp10151
S'NamedEntityTag'
p10152
g83
sS'CharacterOffsetEnd'
p10153
S'2946'
p10154
sS'Lemma'
p10155
S'all'
p10156
sS'PartOfSpeech'
p10157
S'DT'
p10158
sS'CharacterOffsetBegin'
p10159
S'2943'
p10160
stp10161
a(S'between'
p10162
(dp10163
S'NamedEntityTag'
p10164
g83
sS'CharacterOffsetEnd'
p10165
S'2954'
p10166
sS'Lemma'
p10167
S'between'
p10168
sS'PartOfSpeech'
p10169
S'IN'
p10170
sS'CharacterOffsetBegin'
p10171
S'2947'
p10172
stp10173
a(S'Chinas'
p10174
(dp10175
S'NamedEntityTag'
p10176
g83
sS'CharacterOffsetEnd'
p10177
S'2961'
p10178
sS'Lemma'
p10179
S'Chinas'
p10180
sS'PartOfSpeech'
p10181
S'NNP'
p10182
sS'CharacterOffsetBegin'
p10183
S'2955'
p10184
stp10185
a(S'support'
p10186
(dp10187
S'NamedEntityTag'
p10188
g83
sS'CharacterOffsetEnd'
p10189
S'2969'
p10190
sS'Lemma'
p10191
S'support'
p10192
sS'PartOfSpeech'
p10193
S'NN'
p10194
sS'CharacterOffsetBegin'
p10195
S'2962'
p10196
stp10197
a(S'for'
p10198
(dp10199
S'NamedEntityTag'
p10200
g83
sS'CharacterOffsetEnd'
p10201
S'2973'
p10202
sS'Lemma'
p10203
S'for'
p10204
sS'PartOfSpeech'
p10205
S'IN'
p10206
sS'CharacterOffsetBegin'
p10207
S'2970'
p10208
stp10209
a(S'these'
p10210
(dp10211
S'NamedEntityTag'
p10212
g83
sS'CharacterOffsetEnd'
p10213
S'2979'
p10214
sS'Lemma'
p10215
S'these'
p10216
sS'PartOfSpeech'
p10217
S'DT'
p10218
sS'CharacterOffsetBegin'
p10219
S'2974'
p10220
stp10221
a(S'treaties'
p10222
(dp10223
S'NamedEntityTag'
p10224
g83
sS'CharacterOffsetEnd'
p10225
S'2988'
p10226
sS'Lemma'
p10227
S'treaty'
p10228
sS'PartOfSpeech'
p10229
S'NNS'
p10230
sS'CharacterOffsetBegin'
p10231
S'2980'
p10232
stp10233
a(S'and'
p10234
(dp10235
S'NamedEntityTag'
p10236
g83
sS'CharacterOffsetEnd'
p10237
S'2992'
p10238
sS'Lemma'
p10239
S'and'
p10240
sS'PartOfSpeech'
p10241
S'CC'
p10242
sS'CharacterOffsetBegin'
p10243
S'2989'
p10244
stp10245
a(S'its'
p10246
(dp10247
S'NamedEntityTag'
p10248
g83
sS'CharacterOffsetEnd'
p10249
S'2996'
p10250
sS'Lemma'
p10251
S'its'
p10252
sS'PartOfSpeech'
p10253
S'PRP$'
p10254
sS'CharacterOffsetBegin'
p10255
S'2993'
p10256
stp10257
a(S'arrests'
p10258
(dp10259
S'NamedEntityTag'
p10260
g83
sS'CharacterOffsetEnd'
p10261
S'3004'
p10262
sS'Lemma'
p10263
S'arrest'
p10264
sS'PartOfSpeech'
p10265
S'NNS'
p10266
sS'CharacterOffsetBegin'
p10267
S'2997'
p10268
stp10269
a(S'of'
p10270
(dp10271
S'NamedEntityTag'
p10272
g83
sS'CharacterOffsetEnd'
p10273
S'3007'
p10274
sS'Lemma'
p10275
S'of'
p10276
sS'PartOfSpeech'
p10277
S'IN'
p10278
sS'CharacterOffsetBegin'
p10279
S'3005'
p10280
stp10281
a(S'the'
p10282
(dp10283
S'NamedEntityTag'
p10284
g83
sS'CharacterOffsetEnd'
p10285
S'3011'
p10286
sS'Lemma'
p10287
S'the'
p10288
sS'PartOfSpeech'
p10289
S'DT'
p10290
sS'CharacterOffsetBegin'
p10291
S'3008'
p10292
stp10293
a(S'two'
p10294
(dp10295
S'NormalizedNamedEntityTag'
p10296
S'2.0'
p10297
sS'Lemma'
p10298
S'two'
p10299
sS'CharacterOffsetEnd'
p10300
S'3015'
p10301
sS'PartOfSpeech'
p10302
S'CD'
p10303
sS'CharacterOffsetBegin'
p10304
S'3012'
p10305
sS'NamedEntityTag'
p10306
S'NUMBER'
p10307
stp10308
a(S'dissidents'
p10309
(dp10310
S'NamedEntityTag'
p10311
g83
sS'CharacterOffsetEnd'
p10312
S'3026'
p10313
sS'Lemma'
p10314
S'dissident'
p10315
sS'PartOfSpeech'
p10316
S'NNS'
p10317
sS'CharacterOffsetBegin'
p10318
S'3016'
p10319
stp10320
a(g1713
(dp10321
S'NamedEntityTag'
p10322
g83
sS'CharacterOffsetEnd'
p10323
S'3027'
p10324
sS'Lemma'
p10325
g1713
sS'PartOfSpeech'
p10326
g1713
sS'CharacterOffsetBegin'
p10327
S'3026'
p10328
stp10329
asass.