(dp0
S'models'
p1
(lp2
(dp3
S'sentences'
p4
(lp5
(dp6
S'parsetree'
p7
S'(ROOT (S (NP (NNP Thai) (NNS police)) (VP (VBP detain) (NP (CD 300) (NNS beggars)) (S (VP (TO to) (VP (VB make) (S (NP (NNS streets)) (ADJP (JJR safer))) (PP (IN during) (NP (JJ Asian) (NNPS Games)))))))))'
p8
sS'text'
p9
S'Thai police detain 300 beggars to make streets safer during Asian Games'
p10
sS'dependencies'
p11
(lp12
(S'root'
p13
S'ROOT'
p14
S'detain'
p15
tp16
a(S'nn'
p17
S'police'
p18
S'Thai'
p19
tp20
a(S'nsubj'
p21
S'detain'
p22
S'police'
p23
tp24
a(S'num'
p25
S'beggars'
p26
S'300'
p27
tp28
a(S'dobj'
p29
S'detain'
p30
S'beggars'
p31
tp32
a(S'aux'
p33
S'make'
p34
S'to'
p35
tp36
a(S'xcomp'
p37
S'detain'
p38
S'make'
p39
tp40
a(S'nsubj'
p41
S'safer'
p42
S'streets'
p43
tp44
a(S'xcomp'
p45
S'make'
p46
S'safer'
p47
tp48
a(S'amod'
p49
S'Games'
p50
S'Asian'
p51
tp52
a(S'prep_during'
p53
S'make'
p54
S'Games'
p55
tp56
asS'indexeddependencies'
p57
(lp58
(g13
S'ROOT-0'
p59
S'detain-3'
p60
tp61
a(g17
S'police-2'
p62
S'Thai-1'
p63
tp64
a(g21
S'detain-3'
p65
S'police-2'
p66
tp67
a(g25
S'beggars-5'
p68
S'300-4'
p69
tp70
a(g29
S'detain-3'
p71
S'beggars-5'
p72
tp73
a(g33
S'make-7'
p74
S'to-6'
p75
tp76
a(g37
S'detain-3'
p77
S'make-7'
p78
tp79
a(g41
S'safer-9'
p80
S'streets-8'
p81
tp82
a(g45
S'make-7'
p83
S'safer-9'
p84
tp85
a(g49
S'Games-12'
p86
S'Asian-11'
p87
tp88
a(g53
S'make-7'
p89
S'Games-12'
p90
tp91
asS'words'
p92
(lp93
(S'Thai'
p94
(dp95
S'NamedEntityTag'
p96
S'MISC'
p97
sS'CharacterOffsetEnd'
p98
S'5'
p99
sS'Lemma'
p100
S'Thai'
p101
sS'PartOfSpeech'
p102
S'NNP'
p103
sS'CharacterOffsetBegin'
p104
S'1'
p105
stp106
a(S'police'
p107
(dp108
S'NamedEntityTag'
p109
S'O'
p110
sS'CharacterOffsetEnd'
p111
S'12'
p112
sS'Lemma'
p113
S'police'
p114
sS'PartOfSpeech'
p115
S'NNS'
p116
sS'CharacterOffsetBegin'
p117
S'6'
p118
stp119
a(S'detain'
p120
(dp121
S'NamedEntityTag'
p122
g110
sS'CharacterOffsetEnd'
p123
S'19'
p124
sS'Lemma'
p125
S'detain'
p126
sS'PartOfSpeech'
p127
S'VBP'
p128
sS'CharacterOffsetBegin'
p129
S'13'
p130
stp131
a(S'300'
p132
(dp133
S'NormalizedNamedEntityTag'
p134
S'300.0'
p135
sS'Lemma'
p136
S'300'
p137
sS'CharacterOffsetEnd'
p138
S'23'
p139
sS'PartOfSpeech'
p140
S'CD'
p141
sS'CharacterOffsetBegin'
p142
S'20'
p143
sS'NamedEntityTag'
p144
S'NUMBER'
p145
stp146
a(S'beggars'
p147
(dp148
S'NamedEntityTag'
p149
g110
sS'CharacterOffsetEnd'
p150
S'31'
p151
sS'Lemma'
p152
S'beggar'
p153
sS'PartOfSpeech'
p154
S'NNS'
p155
sS'CharacterOffsetBegin'
p156
S'24'
p157
stp158
a(S'to'
p159
(dp160
S'NamedEntityTag'
p161
g110
sS'CharacterOffsetEnd'
p162
S'34'
p163
sS'Lemma'
p164
S'to'
p165
sS'PartOfSpeech'
p166
S'TO'
p167
sS'CharacterOffsetBegin'
p168
S'32'
p169
stp170
a(S'make'
p171
(dp172
S'NamedEntityTag'
p173
g110
sS'CharacterOffsetEnd'
p174
S'39'
p175
sS'Lemma'
p176
S'make'
p177
sS'PartOfSpeech'
p178
S'VB'
p179
sS'CharacterOffsetBegin'
p180
S'35'
p181
stp182
a(S'streets'
p183
(dp184
S'NamedEntityTag'
p185
g110
sS'CharacterOffsetEnd'
p186
S'47'
p187
sS'Lemma'
p188
S'street'
p189
sS'PartOfSpeech'
p190
S'NNS'
p191
sS'CharacterOffsetBegin'
p192
S'40'
p193
stp194
a(S'safer'
p195
(dp196
S'NamedEntityTag'
p197
g110
sS'CharacterOffsetEnd'
p198
S'53'
p199
sS'Lemma'
p200
S'safer'
p201
sS'PartOfSpeech'
p202
S'JJR'
p203
sS'CharacterOffsetBegin'
p204
S'48'
p205
stp206
a(S'during'
p207
(dp208
S'NamedEntityTag'
p209
g110
sS'CharacterOffsetEnd'
p210
S'60'
p211
sS'Lemma'
p212
S'during'
p213
sS'PartOfSpeech'
p214
S'IN'
p215
sS'CharacterOffsetBegin'
p216
S'54'
p217
stp218
a(S'Asian'
p219
(dp220
S'NamedEntityTag'
p221
S'MISC'
p222
sS'CharacterOffsetEnd'
p223
S'66'
p224
sS'Lemma'
p225
S'asian'
p226
sS'PartOfSpeech'
p227
S'JJ'
p228
sS'CharacterOffsetBegin'
p229
S'61'
p230
stp231
a(S'Games'
p232
(dp233
S'NamedEntityTag'
p234
S'MISC'
p235
sS'CharacterOffsetEnd'
p236
S'72'
p237
sS'Lemma'
p238
S'Games'
p239
sS'PartOfSpeech'
p240
S'NNPS'
p241
sS'CharacterOffsetBegin'
p242
S'67'
p243
stp244
asasa(dp245
g4
(lp246
(dp247
g7
S'(ROOT (S (NP (NNP Thai) (NNS police)) (VP (VBP detain) (S (NP (NP (NNS beggars)) (PP (IN in) (NP (NN effort)))) (VP (TO to) (VP (VB make) (S (NP (NNS streets)) (ADJP (JJ safe) (PP (IN for) (NP (JJ Asian) (NNPS Games)))))))))))'
p248
sg9
S'Thai police detain beggars in effort to make streets safe for Asian Games'
p249
sg11
(lp250
(S'root'
p251
S'ROOT'
p252
S'detain'
p253
tp254
a(S'nn'
p255
S'police'
p256
S'Thai'
p257
tp258
a(S'nsubj'
p259
S'detain'
p260
S'police'
p261
tp262
a(S'nsubj'
p263
S'make'
p264
S'beggars'
p265
tp266
a(S'prep_in'
p267
S'beggars'
p268
S'effort'
p269
tp270
a(S'aux'
p271
S'make'
p272
S'to'
p273
tp274
a(S'xcomp'
p275
S'detain'
p276
S'make'
p277
tp278
a(S'nsubj'
p279
S'safe'
p280
S'streets'
p281
tp282
a(S'xcomp'
p283
S'make'
p284
S'safe'
p285
tp286
a(S'amod'
p287
S'Games'
p288
S'Asian'
p289
tp290
a(S'prep_for'
p291
S'safe'
p292
S'Games'
p293
tp294
asg57
(lp295
(g251
S'ROOT-0'
p296
S'detain-3'
p297
tp298
a(g255
S'police-2'
p299
S'Thai-1'
p300
tp301
a(g259
S'detain-3'
p302
S'police-2'
p303
tp304
a(g263
S'make-8'
p305
S'beggars-4'
p306
tp307
a(g267
S'beggars-4'
p308
S'effort-6'
p309
tp310
a(g271
S'make-8'
p311
S'to-7'
p312
tp313
a(g275
S'detain-3'
p314
S'make-8'
p315
tp316
a(g279
S'safe-10'
p317
S'streets-9'
p318
tp319
a(g283
S'make-8'
p320
S'safe-10'
p321
tp322
a(g287
S'Games-13'
p323
S'Asian-12'
p324
tp325
a(g291
S'safe-10'
p326
S'Games-13'
p327
tp328
asg92
(lp329
(S'Thai'
p330
(dp331
S'NamedEntityTag'
p332
S'MISC'
p333
sS'CharacterOffsetEnd'
p334
g99
sS'Lemma'
p335
S'Thai'
p336
sS'PartOfSpeech'
p337
S'NNP'
p338
sS'CharacterOffsetBegin'
p339
g105
stp340
a(S'police'
p341
(dp342
S'NamedEntityTag'
p343
g110
sS'CharacterOffsetEnd'
p344
S'12'
p345
sS'Lemma'
p346
S'police'
p347
sS'PartOfSpeech'
p348
S'NNS'
p349
sS'CharacterOffsetBegin'
p350
g118
stp351
a(S'detain'
p352
(dp353
S'NamedEntityTag'
p354
g110
sS'CharacterOffsetEnd'
p355
S'19'
p356
sS'Lemma'
p357
S'detain'
p358
sS'PartOfSpeech'
p359
S'VBP'
p360
sS'CharacterOffsetBegin'
p361
S'13'
p362
stp363
a(S'beggars'
p364
(dp365
S'NamedEntityTag'
p366
g110
sS'CharacterOffsetEnd'
p367
S'27'
p368
sS'Lemma'
p369
S'beggar'
p370
sS'PartOfSpeech'
p371
S'NNS'
p372
sS'CharacterOffsetBegin'
p373
S'20'
p374
stp375
a(S'in'
p376
(dp377
S'NamedEntityTag'
p378
g110
sS'CharacterOffsetEnd'
p379
S'30'
p380
sS'Lemma'
p381
S'in'
p382
sS'PartOfSpeech'
p383
S'IN'
p384
sS'CharacterOffsetBegin'
p385
S'28'
p386
stp387
a(S'effort'
p388
(dp389
S'NamedEntityTag'
p390
g110
sS'CharacterOffsetEnd'
p391
S'37'
p392
sS'Lemma'
p393
S'effort'
p394
sS'PartOfSpeech'
p395
S'NN'
p396
sS'CharacterOffsetBegin'
p397
S'31'
p398
stp399
a(S'to'
p400
(dp401
S'NamedEntityTag'
p402
g110
sS'CharacterOffsetEnd'
p403
S'40'
p404
sS'Lemma'
p405
S'to'
p406
sS'PartOfSpeech'
p407
S'TO'
p408
sS'CharacterOffsetBegin'
p409
S'38'
p410
stp411
a(S'make'
p412
(dp413
S'NamedEntityTag'
p414
g110
sS'CharacterOffsetEnd'
p415
S'45'
p416
sS'Lemma'
p417
S'make'
p418
sS'PartOfSpeech'
p419
S'VB'
p420
sS'CharacterOffsetBegin'
p421
S'41'
p422
stp423
a(S'streets'
p424
(dp425
S'NamedEntityTag'
p426
g110
sS'CharacterOffsetEnd'
p427
S'53'
p428
sS'Lemma'
p429
S'street'
p430
sS'PartOfSpeech'
p431
S'NNS'
p432
sS'CharacterOffsetBegin'
p433
S'46'
p434
stp435
a(S'safe'
p436
(dp437
S'NamedEntityTag'
p438
g110
sS'CharacterOffsetEnd'
p439
S'58'
p440
sS'Lemma'
p441
S'safe'
p442
sS'PartOfSpeech'
p443
S'JJ'
p444
sS'CharacterOffsetBegin'
p445
S'54'
p446
stp447
a(S'for'
p448
(dp449
S'NamedEntityTag'
p450
g110
sS'CharacterOffsetEnd'
p451
S'62'
p452
sS'Lemma'
p453
S'for'
p454
sS'PartOfSpeech'
p455
S'IN'
p456
sS'CharacterOffsetBegin'
p457
S'59'
p458
stp459
a(S'Asian'
p460
(dp461
S'NamedEntityTag'
p462
S'MISC'
p463
sS'CharacterOffsetEnd'
p464
S'68'
p465
sS'Lemma'
p466
S'asian'
p467
sS'PartOfSpeech'
p468
S'JJ'
p469
sS'CharacterOffsetBegin'
p470
S'63'
p471
stp472
a(S'Games'
p473
(dp474
S'NamedEntityTag'
p475
S'MISC'
p476
sS'CharacterOffsetEnd'
p477
S'74'
p478
sS'Lemma'
p479
S'Games'
p480
sS'PartOfSpeech'
p481
S'NNPS'
p482
sS'CharacterOffsetBegin'
p483
S'69'
p484
stp485
asasa(dp486
g4
(lp487
(dp488
g7
S'(ROOT (NP (NP (NNP Thai) (NNP Police)) (NP (NP (JJ clear) (NNS streets)) (PP (IN of) (NP (NP (NNS beggars)) (PP (IN in) (NP (NP (NN preparation)) (PP (IN for) (NP (JJ Asian) (NNPS Games))))))))))'
p489
sg9
S'Thai Police clear streets of beggars in preparation for Asian Games'
p490
sg11
(lp491
(S'root'
p492
S'ROOT'
p493
S'Police'
p494
tp495
a(S'nn'
p496
S'Police'
p497
S'Thai'
p498
tp499
a(S'amod'
p500
S'streets'
p501
S'clear'
p502
tp503
a(S'dep'
p504
S'Police'
p505
S'streets'
p506
tp507
a(S'prep_of'
p508
S'streets'
p509
S'beggars'
p510
tp511
a(S'prep_in'
p512
S'beggars'
p513
S'preparation'
p514
tp515
a(S'amod'
p516
S'Games'
p517
S'Asian'
p518
tp519
a(S'prep_for'
p520
S'preparation'
p521
S'Games'
p522
tp523
asg57
(lp524
(g492
S'ROOT-0'
p525
S'Police-2'
p526
tp527
a(g496
S'Police-2'
p528
S'Thai-1'
p529
tp530
a(g500
S'streets-4'
p531
S'clear-3'
p532
tp533
a(g504
S'Police-2'
p534
S'streets-4'
p535
tp536
a(g508
S'streets-4'
p537
S'beggars-6'
p538
tp539
a(g512
S'beggars-6'
p540
S'preparation-8'
p541
tp542
a(g516
S'Games-11'
p543
S'Asian-10'
p544
tp545
a(g520
S'preparation-8'
p546
S'Games-11'
p547
tp548
asg92
(lp549
(S'Thai'
p550
(dp551
S'NamedEntityTag'
p552
S'MISC'
p553
sS'CharacterOffsetEnd'
p554
g99
sS'Lemma'
p555
S'Thai'
p556
sS'PartOfSpeech'
p557
S'NNP'
p558
sS'CharacterOffsetBegin'
p559
g105
stp560
a(S'Police'
p561
(dp562
S'NamedEntityTag'
p563
g110
sS'CharacterOffsetEnd'
p564
S'12'
p565
sS'Lemma'
p566
S'Police'
p567
sS'PartOfSpeech'
p568
S'NNP'
p569
sS'CharacterOffsetBegin'
p570
g118
stp571
a(S'clear'
p572
(dp573
S'NamedEntityTag'
p574
g110
sS'CharacterOffsetEnd'
p575
S'18'
p576
sS'Lemma'
p577
S'clear'
p578
sS'PartOfSpeech'
p579
S'JJ'
p580
sS'CharacterOffsetBegin'
p581
S'13'
p582
stp583
a(S'streets'
p584
(dp585
S'NamedEntityTag'
p586
g110
sS'CharacterOffsetEnd'
p587
S'26'
p588
sS'Lemma'
p589
S'street'
p590
sS'PartOfSpeech'
p591
S'NNS'
p592
sS'CharacterOffsetBegin'
p593
S'19'
p594
stp595
a(S'of'
p596
(dp597
S'NamedEntityTag'
p598
g110
sS'CharacterOffsetEnd'
p599
S'29'
p600
sS'Lemma'
p601
S'of'
p602
sS'PartOfSpeech'
p603
S'IN'
p604
sS'CharacterOffsetBegin'
p605
S'27'
p606
stp607
a(S'beggars'
p608
(dp609
S'NamedEntityTag'
p610
g110
sS'CharacterOffsetEnd'
p611
S'37'
p612
sS'Lemma'
p613
S'beggar'
p614
sS'PartOfSpeech'
p615
S'NNS'
p616
sS'CharacterOffsetBegin'
p617
S'30'
p618
stp619
a(S'in'
p620
(dp621
S'NamedEntityTag'
p622
g110
sS'CharacterOffsetEnd'
p623
S'40'
p624
sS'Lemma'
p625
S'in'
p626
sS'PartOfSpeech'
p627
S'IN'
p628
sS'CharacterOffsetBegin'
p629
S'38'
p630
stp631
a(S'preparation'
p632
(dp633
S'NamedEntityTag'
p634
g110
sS'CharacterOffsetEnd'
p635
S'52'
p636
sS'Lemma'
p637
S'preparation'
p638
sS'PartOfSpeech'
p639
S'NN'
p640
sS'CharacterOffsetBegin'
p641
S'41'
p642
stp643
a(S'for'
p644
(dp645
S'NamedEntityTag'
p646
g110
sS'CharacterOffsetEnd'
p647
S'56'
p648
sS'Lemma'
p649
S'for'
p650
sS'PartOfSpeech'
p651
S'IN'
p652
sS'CharacterOffsetBegin'
p653
S'53'
p654
stp655
a(S'Asian'
p656
(dp657
S'NamedEntityTag'
p658
S'MISC'
p659
sS'CharacterOffsetEnd'
p660
S'62'
p661
sS'Lemma'
p662
S'asian'
p663
sS'PartOfSpeech'
p664
S'JJ'
p665
sS'CharacterOffsetBegin'
p666
S'57'
p667
stp668
a(S'Games'
p669
(dp670
S'NamedEntityTag'
p671
S'MISC'
p672
sS'CharacterOffsetEnd'
p673
S'68'
p674
sS'Lemma'
p675
S'Games'
p676
sS'PartOfSpeech'
p677
S'NNPS'
p678
sS'CharacterOffsetBegin'
p679
S'63'
p680
stp681
asasa(dp682
g4
(lp683
(dp684
g7
S'(ROOT (S (NP (NNP Thai) (NNS police)) (VP (VBP detain) (S (NP (NNS beggars)) (VP (TO to) (VP (VB keep) (NP (NNS streets)) (ADVP (JJ safe) (PP (IN for) (NP (JJ Asian) (NNPS Games)))) (NP-TMP (NNP Dec) (CD 6-20))))))))'
p685
sg9
S'Thai police detain beggars to keep streets safe for Asian Games Dec 6-20'
p686
sg11
(lp687
(S'root'
p688
S'ROOT'
p689
S'detain'
p690
tp691
a(S'nn'
p692
S'police'
p693
S'Thai'
p694
tp695
a(S'nsubj'
p696
S'detain'
p697
S'police'
p698
tp699
a(S'nsubj'
p700
S'keep'
p701
S'beggars'
p702
tp703
a(S'aux'
p704
S'keep'
p705
S'to'
p706
tp707
a(S'xcomp'
p708
S'detain'
p709
S'keep'
p710
tp711
a(S'dobj'
p712
S'keep'
p713
S'streets'
p714
tp715
a(S'advmod'
p716
S'keep'
p717
S'safe'
p718
tp719
a(S'amod'
p720
S'Games'
p721
S'Asian'
p722
tp723
a(S'prep_for'
p724
S'safe'
p725
S'Games'
p726
tp727
a(S'tmod'
p728
S'keep'
p729
S'Dec'
p730
tp731
a(S'num'
p732
S'Dec'
p733
S'6-20'
p734
tp735
asg57
(lp736
(g688
S'ROOT-0'
p737
S'detain-3'
p738
tp739
a(g692
S'police-2'
p740
S'Thai-1'
p741
tp742
a(g696
S'detain-3'
p743
S'police-2'
p744
tp745
a(g700
S'keep-6'
p746
S'beggars-4'
p747
tp748
a(g704
S'keep-6'
p749
S'to-5'
p750
tp751
a(g708
S'detain-3'
p752
S'keep-6'
p753
tp754
a(g712
S'keep-6'
p755
S'streets-7'
p756
tp757
a(g716
S'keep-6'
p758
S'safe-8'
p759
tp760
a(g720
S'Games-11'
p761
S'Asian-10'
p762
tp763
a(g724
S'safe-8'
p764
S'Games-11'
p765
tp766
a(g728
S'keep-6'
p767
S'Dec-12'
p768
tp769
a(g732
S'Dec-12'
p770
S'6-20-13'
p771
tp772
asg92
(lp773
(S'Thai'
p774
(dp775
S'NamedEntityTag'
p776
S'MISC'
p777
sS'CharacterOffsetEnd'
p778
g99
sS'Lemma'
p779
S'Thai'
p780
sS'PartOfSpeech'
p781
S'NNP'
p782
sS'CharacterOffsetBegin'
p783
g105
stp784
a(S'police'
p785
(dp786
S'NamedEntityTag'
p787
g110
sS'CharacterOffsetEnd'
p788
S'12'
p789
sS'Lemma'
p790
S'police'
p791
sS'PartOfSpeech'
p792
S'NNS'
p793
sS'CharacterOffsetBegin'
p794
g118
stp795
a(S'detain'
p796
(dp797
S'NamedEntityTag'
p798
g110
sS'CharacterOffsetEnd'
p799
S'19'
p800
sS'Lemma'
p801
S'detain'
p802
sS'PartOfSpeech'
p803
S'VBP'
p804
sS'CharacterOffsetBegin'
p805
S'13'
p806
stp807
a(S'beggars'
p808
(dp809
S'NamedEntityTag'
p810
g110
sS'CharacterOffsetEnd'
p811
S'27'
p812
sS'Lemma'
p813
S'beggar'
p814
sS'PartOfSpeech'
p815
S'NNS'
p816
sS'CharacterOffsetBegin'
p817
S'20'
p818
stp819
a(S'to'
p820
(dp821
S'NamedEntityTag'
p822
g110
sS'CharacterOffsetEnd'
p823
S'30'
p824
sS'Lemma'
p825
S'to'
p826
sS'PartOfSpeech'
p827
S'TO'
p828
sS'CharacterOffsetBegin'
p829
S'28'
p830
stp831
a(S'keep'
p832
(dp833
S'NamedEntityTag'
p834
g110
sS'CharacterOffsetEnd'
p835
S'35'
p836
sS'Lemma'
p837
S'keep'
p838
sS'PartOfSpeech'
p839
S'VB'
p840
sS'CharacterOffsetBegin'
p841
S'31'
p842
stp843
a(S'streets'
p844
(dp845
S'NamedEntityTag'
p846
g110
sS'CharacterOffsetEnd'
p847
S'43'
p848
sS'Lemma'
p849
S'street'
p850
sS'PartOfSpeech'
p851
S'NNS'
p852
sS'CharacterOffsetBegin'
p853
S'36'
p854
stp855
a(S'safe'
p856
(dp857
S'NamedEntityTag'
p858
g110
sS'CharacterOffsetEnd'
p859
S'48'
p860
sS'Lemma'
p861
S'safe'
p862
sS'PartOfSpeech'
p863
S'JJ'
p864
sS'CharacterOffsetBegin'
p865
S'44'
p866
stp867
a(S'for'
p868
(dp869
S'NamedEntityTag'
p870
g110
sS'CharacterOffsetEnd'
p871
S'52'
p872
sS'Lemma'
p873
S'for'
p874
sS'PartOfSpeech'
p875
S'IN'
p876
sS'CharacterOffsetBegin'
p877
S'49'
p878
stp879
a(S'Asian'
p880
(dp881
S'NamedEntityTag'
p882
S'MISC'
p883
sS'CharacterOffsetEnd'
p884
S'58'
p885
sS'Lemma'
p886
S'asian'
p887
sS'PartOfSpeech'
p888
S'JJ'
p889
sS'CharacterOffsetBegin'
p890
S'53'
p891
stp892
a(S'Games'
p893
(dp894
S'NamedEntityTag'
p895
S'MISC'
p896
sS'CharacterOffsetEnd'
p897
S'64'
p898
sS'Lemma'
p899
S'Games'
p900
sS'PartOfSpeech'
p901
S'NNPS'
p902
sS'CharacterOffsetBegin'
p903
S'59'
p904
stp905
a(S'Dec'
p906
(dp907
S'NormalizedNamedEntityTag'
p908
S'XXXX-12'
p909
sS'Timex'
p910
S'<TIMEX3 tid="t1" type="DATE" value="XXXX-12">Dec</TIMEX3>'
p911
sS'Lemma'
p912
S'Dec'
p913
sS'CharacterOffsetEnd'
p914
S'68'
p915
sS'PartOfSpeech'
p916
S'NNP'
p917
sS'CharacterOffsetBegin'
p918
S'65'
p919
sS'NamedEntityTag'
p920
S'DATE'
p921
stp922
a(S'6-20'
p923
(dp924
S'NormalizedNamedEntityTag'
p925
S'6.0'
p926
sS'Lemma'
p927
S'6-20'
p928
sS'CharacterOffsetEnd'
p929
S'73'
p930
sS'PartOfSpeech'
p931
S'CD'
p932
sS'CharacterOffsetBegin'
p933
S'69'
p934
sS'NamedEntityTag'
p935
S'NUMBER'
p936
stp937
asasasS'article'
p938
(dp939
S'coref'
p940
(lp941
(lp942
((S'Bangkok'
p943
I1
I4
I4
I5
tp944
(S'Bangkoks'
p945
I0
I-1
I19
I20
tp946
tp947
a((S'Bangkok'
p948
I2
I8
I18
I19
tp949
(S'Bangkoks'
p950
I0
I-1
I19
I20
tp951
tp952
a((S'Bangkok'
p953
I6
I-1
I19
I20
tp954
(S'Bangkoks'
p955
I0
I-1
I19
I20
tp956
tp957
aa(lp958
((S'Asian Games'
p959
I0
I1
I30
I32
tp960
(S'the Asian Games'
p961
I6
I0
I8
I11
tp962
tp963
a((S'The Asian Games'
p964
I7
I2
I0
I3
tp965
(S'the Asian Games'
p966
I6
I0
I8
I11
tp967
tp968
aa(lp969
((S'Friday'
p970
I2
I7
I7
I8
tp971
(S'Friday'
p972
I0
I8
I38
I39
tp973
tp974
aa(lp975
((S'deputy commissioner for the immigration police'
p976
I3
I5
I14
I20
tp977
(S'Chanvut Vajrabukka'
p978
I3
I2
I11
I13
tp979
tp980
aa(lp981
((S'They'
p982
I5
I0
I0
I1
tp983
(S'some beggars , however , who are under control of gangsters'
p984
I4
I3
I2
I13
tp985
tp986
aa(lp987
((S'Other groups targeted by police in advance of the Asian Games'
p988
I6
I1
I0
I11
tp989
(S'foreign criminal gangs believed to operate in Bangkok'
p990
I6
I4
I12
I20
tp991
tp992
a((S'foreign criminal gangs believed to operate in Bangkok and other major cities in Thailand'
p993
I6
I4
I12
I26
tp994
(S'foreign criminal gangs believed to operate in Bangkok'
p995
I6
I4
I12
I20
tp996
tp997
aasg4
(lp998
(dp999
g7
S'(ROOT (S (S (NP (NNP Thai) (NNS police)) (VP (VBP have) (VP (VBN detained) (NP (NP (QP (XS (JJR more) (IN than)) (CD 300)) (NNS beggars)) (, ,) (NP (JJS most))) (PP (IN from) (NP (VBG neighboring) (NNS countries))) (, ,) (PP (IN in) (NP (DT a) (NN campaign) (S (VP (TO to) (VP (VB make) (S (NP (NNP Bangkoks) (NNS streets)) (ADJP (ADJP (JJR safer)) (PP (IN for) (NP (NNS spectators) (CC and) (NNS athletes)))) (S (VP (VBG arriving) (PP (IN for) (NP (DT the) (JJ upcoming) (JJ Asian) (NNPS Games)))))))))))))) (, ,) (NP (DT a) (JJ senior) (NN police) (NN officer)) (VP (VBD said) (NP-TMP (NNP Friday))) (. .)))'
p1000
sg9
S'Thai police have detained more than 300 beggars, most from neighboring countries, in a campaign to make Bangkoks streets safer for spectators and athletes arriving for the upcoming Asian Games, a senior police officer said Friday.'
p1001
sg11
(lp1002
(S'root'
p1003
S'ROOT'
p1004
S'said'
p1005
tp1006
a(S'nn'
p1007
S'police'
p1008
S'Thai'
p1009
tp1010
a(S'nsubj'
p1011
S'detained'
p1012
S'police'
p1013
tp1014
a(S'aux'
p1015
S'detained'
p1016
S'have'
p1017
tp1018
a(S'ccomp'
p1019
S'said'
p1020
S'detained'
p1021
tp1022
a(S'mwe'
p1023
S'than'
p1024
S'more'
p1025
tp1026
a(S'quantmod'
p1027
S'300'
p1028
S'than'
p1029
tp1030
a(S'num'
p1031
S'beggars'
p1032
S'300'
p1033
tp1034
a(S'dobj'
p1035
S'detained'
p1036
S'beggars'
p1037
tp1038
a(S'appos'
p1039
S'beggars'
p1040
S'most'
p1041
tp1042
a(S'amod'
p1043
S'countries'
p1044
S'neighboring'
p1045
tp1046
a(S'prep_from'
p1047
S'detained'
p1048
S'countries'
p1049
tp1050
a(S'det'
p1051
S'campaign'
p1052
S'a'
p1053
tp1054
a(S'prep_in'
p1055
S'detained'
p1056
S'campaign'
p1057
tp1058
a(S'aux'
p1059
S'make'
p1060
S'to'
p1061
tp1062
a(S'infmod'
p1063
S'campaign'
p1064
S'make'
p1065
tp1066
a(S'nn'
p1067
S'streets'
p1068
S'Bangkoks'
p1069
tp1070
a(S'nsubj'
p1071
S'arriving'
p1072
S'streets'
p1073
tp1074
a(S'dep'
p1075
S'arriving'
p1076
S'safer'
p1077
tp1078
a(S'prep_for'
p1079
S'safer'
p1080
S'spectators'
p1081
tp1082
a(S'conj_and'
p1083
S'spectators'
p1084
S'athletes'
p1085
tp1086
a(S'xcomp'
p1087
S'make'
p1088
S'arriving'
p1089
tp1090
a(S'det'
p1091
S'Games'
p1092
S'the'
p1093
tp1094
a(S'amod'
p1095
S'Games'
p1096
S'upcoming'
p1097
tp1098
a(S'amod'
p1099
S'Games'
p1100
S'Asian'
p1101
tp1102
a(S'prep_for'
p1103
S'arriving'
p1104
S'Games'
p1105
tp1106
a(S'det'
p1107
S'officer'
p1108
g1053
tp1109
a(S'amod'
p1110
S'officer'
p1111
S'senior'
p1112
tp1113
a(S'nn'
p1114
S'officer'
p1115
S'police'
p1116
tp1117
a(S'nsubj'
p1118
S'said'
p1119
S'officer'
p1120
tp1121
a(S'tmod'
p1122
S'said'
p1123
S'Friday'
p1124
tp1125
asg57
(lp1126
(g1003
S'ROOT-0'
p1127
S'said-38'
p1128
tp1129
a(g1007
S'police-2'
p1130
S'Thai-1'
p1131
tp1132
a(g1011
S'detained-4'
p1133
S'police-2'
p1134
tp1135
a(g1015
S'detained-4'
p1136
S'have-3'
p1137
tp1138
a(g1019
S'said-38'
p1139
S'detained-4'
p1140
tp1141
a(g1023
S'than-6'
p1142
S'more-5'
p1143
tp1144
a(g1027
S'300-7'
p1145
S'than-6'
p1146
tp1147
a(g1031
S'beggars-8'
p1148
S'300-7'
p1149
tp1150
a(g1035
S'detained-4'
p1151
S'beggars-8'
p1152
tp1153
a(g1039
S'beggars-8'
p1154
S'most-10'
p1155
tp1156
a(g1043
S'countries-13'
p1157
S'neighboring-12'
p1158
tp1159
a(g1047
S'detained-4'
p1160
S'countries-13'
p1161
tp1162
a(g1051
S'campaign-17'
p1163
S'a-16'
p1164
tp1165
a(g1055
S'detained-4'
p1166
S'campaign-17'
p1167
tp1168
a(g1059
S'make-19'
p1169
S'to-18'
p1170
tp1171
a(g1063
S'campaign-17'
p1172
S'make-19'
p1173
tp1174
a(g1067
S'streets-21'
p1175
S'Bangkoks-20'
p1176
tp1177
a(g1071
S'arriving-27'
p1178
S'streets-21'
p1179
tp1180
a(g1075
S'arriving-27'
p1181
S'safer-22'
p1182
tp1183
a(g1079
S'safer-22'
p1184
S'spectators-24'
p1185
tp1186
a(g1083
S'spectators-24'
p1187
S'athletes-26'
p1188
tp1189
a(g1087
S'make-19'
p1190
S'arriving-27'
p1191
tp1192
a(g1091
S'Games-32'
p1193
S'the-29'
p1194
tp1195
a(g1095
S'Games-32'
p1196
S'upcoming-30'
p1197
tp1198
a(g1099
S'Games-32'
p1199
S'Asian-31'
p1200
tp1201
a(g1103
S'arriving-27'
p1202
S'Games-32'
p1203
tp1204
a(g1107
S'officer-37'
p1205
S'a-34'
p1206
tp1207
a(g1110
S'officer-37'
p1208
S'senior-35'
p1209
tp1210
a(g1114
S'officer-37'
p1211
S'police-36'
p1212
tp1213
a(g1118
S'said-38'
p1214
S'officer-37'
p1215
tp1216
a(g1122
S'said-38'
p1217
S'Friday-39'
p1218
tp1219
asg92
(lp1220
(S'Thai'
p1221
(dp1222
S'NamedEntityTag'
p1223
S'MISC'
p1224
sS'CharacterOffsetEnd'
p1225
S'4'
p1226
sS'Lemma'
p1227
S'Thai'
p1228
sS'PartOfSpeech'
p1229
S'NNP'
p1230
sS'CharacterOffsetBegin'
p1231
S'0'
p1232
stp1233
a(S'police'
p1234
(dp1235
S'NamedEntityTag'
p1236
g110
sS'CharacterOffsetEnd'
p1237
S'11'
p1238
sS'Lemma'
p1239
S'police'
p1240
sS'PartOfSpeech'
p1241
S'NNS'
p1242
sS'CharacterOffsetBegin'
p1243
g99
stp1244
a(S'have'
p1245
(dp1246
S'NamedEntityTag'
p1247
g110
sS'CharacterOffsetEnd'
p1248
S'16'
p1249
sS'Lemma'
p1250
S'have'
p1251
sS'PartOfSpeech'
p1252
S'VBP'
p1253
sS'CharacterOffsetBegin'
p1254
S'12'
p1255
stp1256
a(S'detained'
p1257
(dp1258
S'NamedEntityTag'
p1259
g110
sS'CharacterOffsetEnd'
p1260
S'25'
p1261
sS'Lemma'
p1262
S'detain'
p1263
sS'PartOfSpeech'
p1264
S'VBN'
p1265
sS'CharacterOffsetBegin'
p1266
S'17'
p1267
stp1268
a(S'more'
p1269
(dp1270
S'NamedEntityTag'
p1271
g110
sS'CharacterOffsetEnd'
p1272
S'30'
p1273
sS'Lemma'
p1274
S'more'
p1275
sS'PartOfSpeech'
p1276
S'JJR'
p1277
sS'CharacterOffsetBegin'
p1278
S'26'
p1279
stp1280
a(S'than'
p1281
(dp1282
S'NamedEntityTag'
p1283
g110
sS'CharacterOffsetEnd'
p1284
S'35'
p1285
sS'Lemma'
p1286
S'than'
p1287
sS'PartOfSpeech'
p1288
S'IN'
p1289
sS'CharacterOffsetBegin'
p1290
S'31'
p1291
stp1292
a(S'300'
p1293
(dp1294
S'NormalizedNamedEntityTag'
p1295
S'>300.0'
p1296
sS'Lemma'
p1297
S'300'
p1298
sS'CharacterOffsetEnd'
p1299
S'39'
p1300
sS'PartOfSpeech'
p1301
S'CD'
p1302
sS'CharacterOffsetBegin'
p1303
S'36'
p1304
sS'NamedEntityTag'
p1305
S'NUMBER'
p1306
stp1307
a(S'beggars'
p1308
(dp1309
S'NamedEntityTag'
p1310
g110
sS'CharacterOffsetEnd'
p1311
S'47'
p1312
sS'Lemma'
p1313
S'beggar'
p1314
sS'PartOfSpeech'
p1315
S'NNS'
p1316
sS'CharacterOffsetBegin'
p1317
S'40'
p1318
stp1319
a(S','
p1320
(dp1321
S'NamedEntityTag'
p1322
g110
sS'CharacterOffsetEnd'
p1323
S'48'
p1324
sS'Lemma'
p1325
g1320
sS'PartOfSpeech'
p1326
g1320
sS'CharacterOffsetBegin'
p1327
S'47'
p1328
stp1329
a(S'most'
p1330
(dp1331
S'NamedEntityTag'
p1332
g110
sS'CharacterOffsetEnd'
p1333
S'53'
p1334
sS'Lemma'
p1335
S'most'
p1336
sS'PartOfSpeech'
p1337
S'JJS'
p1338
sS'CharacterOffsetBegin'
p1339
S'49'
p1340
stp1341
a(S'from'
p1342
(dp1343
S'NamedEntityTag'
p1344
g110
sS'CharacterOffsetEnd'
p1345
S'58'
p1346
sS'Lemma'
p1347
S'from'
p1348
sS'PartOfSpeech'
p1349
S'IN'
p1350
sS'CharacterOffsetBegin'
p1351
S'54'
p1352
stp1353
a(S'neighboring'
p1354
(dp1355
S'NamedEntityTag'
p1356
g110
sS'CharacterOffsetEnd'
p1357
S'70'
p1358
sS'Lemma'
p1359
S'neighbor'
p1360
sS'PartOfSpeech'
p1361
S'VBG'
p1362
sS'CharacterOffsetBegin'
p1363
S'59'
p1364
stp1365
a(S'countries'
p1366
(dp1367
S'NamedEntityTag'
p1368
g110
sS'CharacterOffsetEnd'
p1369
S'80'
p1370
sS'Lemma'
p1371
S'country'
p1372
sS'PartOfSpeech'
p1373
S'NNS'
p1374
sS'CharacterOffsetBegin'
p1375
S'71'
p1376
stp1377
a(g1320
(dp1378
S'NamedEntityTag'
p1379
g110
sS'CharacterOffsetEnd'
p1380
S'81'
p1381
sS'Lemma'
p1382
g1320
sS'PartOfSpeech'
p1383
g1320
sS'CharacterOffsetBegin'
p1384
S'80'
p1385
stp1386
a(S'in'
p1387
(dp1388
S'NamedEntityTag'
p1389
g110
sS'CharacterOffsetEnd'
p1390
S'84'
p1391
sS'Lemma'
p1392
S'in'
p1393
sS'PartOfSpeech'
p1394
S'IN'
p1395
sS'CharacterOffsetBegin'
p1396
S'82'
p1397
stp1398
a(g1053
(dp1399
S'NamedEntityTag'
p1400
g110
sS'CharacterOffsetEnd'
p1401
S'86'
p1402
sS'Lemma'
p1403
g1053
sS'PartOfSpeech'
p1404
S'DT'
p1405
sS'CharacterOffsetBegin'
p1406
S'85'
p1407
stp1408
a(S'campaign'
p1409
(dp1410
S'NamedEntityTag'
p1411
g110
sS'CharacterOffsetEnd'
p1412
S'95'
p1413
sS'Lemma'
p1414
S'campaign'
p1415
sS'PartOfSpeech'
p1416
S'NN'
p1417
sS'CharacterOffsetBegin'
p1418
S'87'
p1419
stp1420
a(S'to'
p1421
(dp1422
S'NamedEntityTag'
p1423
g110
sS'CharacterOffsetEnd'
p1424
S'98'
p1425
sS'Lemma'
p1426
S'to'
p1427
sS'PartOfSpeech'
p1428
S'TO'
p1429
sS'CharacterOffsetBegin'
p1430
S'96'
p1431
stp1432
a(S'make'
p1433
(dp1434
S'NamedEntityTag'
p1435
g110
sS'CharacterOffsetEnd'
p1436
S'103'
p1437
sS'Lemma'
p1438
S'make'
p1439
sS'PartOfSpeech'
p1440
S'VB'
p1441
sS'CharacterOffsetBegin'
p1442
S'99'
p1443
stp1444
a(S'Bangkoks'
p1445
(dp1446
S'NamedEntityTag'
p1447
S'LOCATION'
p1448
sS'CharacterOffsetEnd'
p1449
S'112'
p1450
sS'Lemma'
p1451
S'Bangkoks'
p1452
sS'PartOfSpeech'
p1453
S'NNP'
p1454
sS'CharacterOffsetBegin'
p1455
S'104'
p1456
stp1457
a(S'streets'
p1458
(dp1459
S'NamedEntityTag'
p1460
g110
sS'CharacterOffsetEnd'
p1461
S'120'
p1462
sS'Lemma'
p1463
S'street'
p1464
sS'PartOfSpeech'
p1465
S'NNS'
p1466
sS'CharacterOffsetBegin'
p1467
S'113'
p1468
stp1469
a(S'safer'
p1470
(dp1471
S'NamedEntityTag'
p1472
g110
sS'CharacterOffsetEnd'
p1473
S'126'
p1474
sS'Lemma'
p1475
S'safer'
p1476
sS'PartOfSpeech'
p1477
S'JJR'
p1478
sS'CharacterOffsetBegin'
p1479
S'121'
p1480
stp1481
a(S'for'
p1482
(dp1483
S'NamedEntityTag'
p1484
g110
sS'CharacterOffsetEnd'
p1485
S'130'
p1486
sS'Lemma'
p1487
S'for'
p1488
sS'PartOfSpeech'
p1489
S'IN'
p1490
sS'CharacterOffsetBegin'
p1491
S'127'
p1492
stp1493
a(S'spectators'
p1494
(dp1495
S'NamedEntityTag'
p1496
g110
sS'CharacterOffsetEnd'
p1497
S'141'
p1498
sS'Lemma'
p1499
S'spectator'
p1500
sS'PartOfSpeech'
p1501
S'NNS'
p1502
sS'CharacterOffsetBegin'
p1503
S'131'
p1504
stp1505
a(S'and'
p1506
(dp1507
S'NamedEntityTag'
p1508
g110
sS'CharacterOffsetEnd'
p1509
S'145'
p1510
sS'Lemma'
p1511
S'and'
p1512
sS'PartOfSpeech'
p1513
S'CC'
p1514
sS'CharacterOffsetBegin'
p1515
S'142'
p1516
stp1517
a(S'athletes'
p1518
(dp1519
S'NamedEntityTag'
p1520
g110
sS'CharacterOffsetEnd'
p1521
S'154'
p1522
sS'Lemma'
p1523
S'athlete'
p1524
sS'PartOfSpeech'
p1525
S'NNS'
p1526
sS'CharacterOffsetBegin'
p1527
S'146'
p1528
stp1529
a(S'arriving'
p1530
(dp1531
S'NamedEntityTag'
p1532
g110
sS'CharacterOffsetEnd'
p1533
S'163'
p1534
sS'Lemma'
p1535
S'arrive'
p1536
sS'PartOfSpeech'
p1537
S'VBG'
p1538
sS'CharacterOffsetBegin'
p1539
S'155'
p1540
stp1541
a(S'for'
p1542
(dp1543
S'NamedEntityTag'
p1544
g110
sS'CharacterOffsetEnd'
p1545
S'167'
p1546
sS'Lemma'
p1547
S'for'
p1548
sS'PartOfSpeech'
p1549
S'IN'
p1550
sS'CharacterOffsetBegin'
p1551
S'164'
p1552
stp1553
a(S'the'
p1554
(dp1555
S'NamedEntityTag'
p1556
g110
sS'CharacterOffsetEnd'
p1557
S'171'
p1558
sS'Lemma'
p1559
S'the'
p1560
sS'PartOfSpeech'
p1561
S'DT'
p1562
sS'CharacterOffsetBegin'
p1563
S'168'
p1564
stp1565
a(S'upcoming'
p1566
(dp1567
S'NamedEntityTag'
p1568
g110
sS'CharacterOffsetEnd'
p1569
S'180'
p1570
sS'Lemma'
p1571
S'upcoming'
p1572
sS'PartOfSpeech'
p1573
S'JJ'
p1574
sS'CharacterOffsetBegin'
p1575
S'172'
p1576
stp1577
a(S'Asian'
p1578
(dp1579
S'NamedEntityTag'
p1580
S'MISC'
p1581
sS'CharacterOffsetEnd'
p1582
S'186'
p1583
sS'Lemma'
p1584
S'asian'
p1585
sS'PartOfSpeech'
p1586
S'JJ'
p1587
sS'CharacterOffsetBegin'
p1588
S'181'
p1589
stp1590
a(S'Games'
p1591
(dp1592
S'NamedEntityTag'
p1593
S'MISC'
p1594
sS'CharacterOffsetEnd'
p1595
S'192'
p1596
sS'Lemma'
p1597
S'Games'
p1598
sS'PartOfSpeech'
p1599
S'NNPS'
p1600
sS'CharacterOffsetBegin'
p1601
S'187'
p1602
stp1603
a(g1320
(dp1604
S'NamedEntityTag'
p1605
g110
sS'CharacterOffsetEnd'
p1606
S'193'
p1607
sS'Lemma'
p1608
g1320
sS'PartOfSpeech'
p1609
g1320
sS'CharacterOffsetBegin'
p1610
S'192'
p1611
stp1612
a(g1053
(dp1613
S'NamedEntityTag'
p1614
g110
sS'CharacterOffsetEnd'
p1615
S'195'
p1616
sS'Lemma'
p1617
g1053
sS'PartOfSpeech'
p1618
S'DT'
p1619
sS'CharacterOffsetBegin'
p1620
S'194'
p1621
stp1622
a(S'senior'
p1623
(dp1624
S'NamedEntityTag'
p1625
g110
sS'CharacterOffsetEnd'
p1626
S'202'
p1627
sS'Lemma'
p1628
S'senior'
p1629
sS'PartOfSpeech'
p1630
S'JJ'
p1631
sS'CharacterOffsetBegin'
p1632
S'196'
p1633
stp1634
a(S'police'
p1635
(dp1636
S'NamedEntityTag'
p1637
g110
sS'CharacterOffsetEnd'
p1638
S'209'
p1639
sS'Lemma'
p1640
S'police'
p1641
sS'PartOfSpeech'
p1642
S'NN'
p1643
sS'CharacterOffsetBegin'
p1644
S'203'
p1645
stp1646
a(S'officer'
p1647
(dp1648
S'NamedEntityTag'
p1649
g110
sS'CharacterOffsetEnd'
p1650
S'217'
p1651
sS'Lemma'
p1652
S'officer'
p1653
sS'PartOfSpeech'
p1654
S'NN'
p1655
sS'CharacterOffsetBegin'
p1656
S'210'
p1657
stp1658
a(S'said'
p1659
(dp1660
S'NamedEntityTag'
p1661
g110
sS'CharacterOffsetEnd'
p1662
S'222'
p1663
sS'Lemma'
p1664
S'say'
p1665
sS'PartOfSpeech'
p1666
S'VBD'
p1667
sS'CharacterOffsetBegin'
p1668
S'218'
p1669
stp1670
a(S'Friday'
p1671
(dp1672
S'NormalizedNamedEntityTag'
p1673
S'XXXX-WXX-5'
p1674
sS'Timex'
p1675
S'<TIMEX3 tid="t1" type="DATE" value="XXXX-WXX-5">Friday</TIMEX3>'
p1676
sS'Lemma'
p1677
S'Friday'
p1678
sS'CharacterOffsetEnd'
p1679
S'229'
p1680
sS'PartOfSpeech'
p1681
S'NNP'
p1682
sS'CharacterOffsetBegin'
p1683
S'223'
p1684
sS'NamedEntityTag'
p1685
S'DATE'
p1686
stp1687
a(S'.'
p1688
(dp1689
S'NamedEntityTag'
p1690
g110
sS'CharacterOffsetEnd'
p1691
S'230'
p1692
sS'Lemma'
p1693
g1688
sS'PartOfSpeech'
p1694
g1688
sS'CharacterOffsetBegin'
p1695
S'229'
p1696
stp1697
asa(dp1698
g7
S'(ROOT (S (NP (NNS Arrests)) (VP (VBD were) (VP (VBN made) (PP (IN throughout) (NP (NNP Bangkok))) (PP (IN during) (NP (NP (DT a) (JJ four-day) (NN crackdown)) (PP (IN on) (NP (NNS panhandlers))))))) (. .)))'
p1699
sg9
S'Arrests were made throughout Bangkok during a four-day crackdown on panhandlers.'
p1700
sg11
(lp1701
(S'root'
p1702
S'ROOT'
p1703
S'made'
p1704
tp1705
a(S'nsubjpass'
p1706
S'made'
p1707
S'Arrests'
p1708
tp1709
a(S'auxpass'
p1710
S'made'
p1711
S'were'
p1712
tp1713
a(S'prep_throughout'
p1714
S'made'
p1715
S'Bangkok'
p1716
tp1717
a(S'det'
p1718
S'crackdown'
p1719
g1053
tp1720
a(S'amod'
p1721
S'crackdown'
p1722
S'four-day'
p1723
tp1724
a(S'prep_during'
p1725
S'made'
p1726
S'crackdown'
p1727
tp1728
a(S'prep_on'
p1729
S'crackdown'
p1730
S'panhandlers'
p1731
tp1732
asg57
(lp1733
(g1702
S'ROOT-0'
p1734
S'made-3'
p1735
tp1736
a(g1706
S'made-3'
p1737
S'Arrests-1'
p1738
tp1739
a(g1710
S'made-3'
p1740
S'were-2'
p1741
tp1742
a(g1714
S'made-3'
p1743
S'Bangkok-5'
p1744
tp1745
a(g1718
S'crackdown-9'
p1746
S'a-7'
p1747
tp1748
a(g1721
S'crackdown-9'
p1749
S'four-day-8'
p1750
tp1751
a(g1725
S'made-3'
p1752
S'crackdown-9'
p1753
tp1754
a(g1729
S'crackdown-9'
p1755
S'panhandlers-11'
p1756
tp1757
asg92
(lp1758
(S'Arrests'
p1759
(dp1760
S'NamedEntityTag'
p1761
g110
sS'CharacterOffsetEnd'
p1762
S'238'
p1763
sS'Lemma'
p1764
S'arrest'
p1765
sS'PartOfSpeech'
p1766
S'NNS'
p1767
sS'CharacterOffsetBegin'
p1768
S'231'
p1769
stp1770
a(S'were'
p1771
(dp1772
S'NamedEntityTag'
p1773
g110
sS'CharacterOffsetEnd'
p1774
S'243'
p1775
sS'Lemma'
p1776
S'be'
p1777
sS'PartOfSpeech'
p1778
S'VBD'
p1779
sS'CharacterOffsetBegin'
p1780
S'239'
p1781
stp1782
a(S'made'
p1783
(dp1784
S'NamedEntityTag'
p1785
g110
sS'CharacterOffsetEnd'
p1786
S'248'
p1787
sS'Lemma'
p1788
S'make'
p1789
sS'PartOfSpeech'
p1790
S'VBN'
p1791
sS'CharacterOffsetBegin'
p1792
S'244'
p1793
stp1794
a(S'throughout'
p1795
(dp1796
S'NamedEntityTag'
p1797
g110
sS'CharacterOffsetEnd'
p1798
S'259'
p1799
sS'Lemma'
p1800
S'throughout'
p1801
sS'PartOfSpeech'
p1802
S'IN'
p1803
sS'CharacterOffsetBegin'
p1804
S'249'
p1805
stp1806
a(S'Bangkok'
p1807
(dp1808
S'NamedEntityTag'
p1809
S'LOCATION'
p1810
sS'CharacterOffsetEnd'
p1811
S'267'
p1812
sS'Lemma'
p1813
S'Bangkok'
p1814
sS'PartOfSpeech'
p1815
S'NNP'
p1816
sS'CharacterOffsetBegin'
p1817
S'260'
p1818
stp1819
a(S'during'
p1820
(dp1821
S'NamedEntityTag'
p1822
g110
sS'CharacterOffsetEnd'
p1823
S'274'
p1824
sS'Lemma'
p1825
S'during'
p1826
sS'PartOfSpeech'
p1827
S'IN'
p1828
sS'CharacterOffsetBegin'
p1829
S'268'
p1830
stp1831
a(g1053
(dp1832
S'NamedEntityTag'
p1833
g110
sS'CharacterOffsetEnd'
p1834
S'276'
p1835
sS'Lemma'
p1836
g1053
sS'PartOfSpeech'
p1837
S'DT'
p1838
sS'CharacterOffsetBegin'
p1839
S'275'
p1840
stp1841
a(S'four-day'
p1842
(dp1843
S'NormalizedNamedEntityTag'
p1844
S'P4D'
p1845
sS'Timex'
p1846
S'<TIMEX3 tid="t2" type="DURATION" value="P4D">four-day</TIMEX3>'
p1847
sS'Lemma'
p1848
S'four-day'
p1849
sS'CharacterOffsetEnd'
p1850
S'285'
p1851
sS'PartOfSpeech'
p1852
S'JJ'
p1853
sS'CharacterOffsetBegin'
p1854
S'277'
p1855
sS'NamedEntityTag'
p1856
S'DURATION'
p1857
stp1858
a(S'crackdown'
p1859
(dp1860
S'NamedEntityTag'
p1861
g110
sS'CharacterOffsetEnd'
p1862
S'295'
p1863
sS'Lemma'
p1864
S'crackdown'
p1865
sS'PartOfSpeech'
p1866
S'NN'
p1867
sS'CharacterOffsetBegin'
p1868
S'286'
p1869
stp1870
a(S'on'
p1871
(dp1872
S'NamedEntityTag'
p1873
g110
sS'CharacterOffsetEnd'
p1874
S'298'
p1875
sS'Lemma'
p1876
S'on'
p1877
sS'PartOfSpeech'
p1878
S'IN'
p1879
sS'CharacterOffsetBegin'
p1880
S'296'
p1881
stp1882
a(S'panhandlers'
p1883
(dp1884
S'NamedEntityTag'
p1885
g110
sS'CharacterOffsetEnd'
p1886
S'310'
p1887
sS'Lemma'
p1888
S'panhandler'
p1889
sS'PartOfSpeech'
p1890
S'NNS'
p1891
sS'CharacterOffsetBegin'
p1892
S'299'
p1893
stp1894
a(g1688
(dp1895
S'NamedEntityTag'
p1896
g110
sS'CharacterOffsetEnd'
p1897
S'311'
p1898
sS'Lemma'
p1899
g1688
sS'PartOfSpeech'
p1900
g1688
sS'CharacterOffsetBegin'
p1901
S'310'
p1902
stp1903
asa(dp1904
g7
S'(ROOT (S (PP (IN About) (NP (NP (CD 100)) (PP (IN of) (NP (DT those))))) (S (VP (VBN detained))) (VP (VBD were) (VP (VBN displayed) (NP-TMP (NNP Friday)) (PP (TO to) (NP (ADJP (JJ local) (CC and) (JJ foreign)) (NN press))) (PP (IN at) (NP (NP (DT a) (NN detention) (NN center)) (PP (IN in) (NP (NNP Bangkok))))))) (. .)))'
p1905
sg9
S'About 100 of those detained were displayed Friday to local and foreign press at a detention center in Bangkok.'
p1906
sg11
(lp1907
(S'root'
p1908
S'ROOT'
p1909
S'displayed'
p1910
tp1911
a(S'prep_about'
p1912
S'displayed'
p1913
S'100'
p1914
tp1915
a(S'prep_of'
p1916
S'100'
p1917
S'those'
p1918
tp1919
a(S'csubjpass'
p1920
S'displayed'
p1921
S'detained'
p1922
tp1923
a(S'auxpass'
p1924
S'displayed'
p1925
S'were'
p1926
tp1927
a(S'tmod'
p1928
S'displayed'
p1929
S'Friday'
p1930
tp1931
a(S'amod'
p1932
S'press'
p1933
S'local'
p1934
tp1935
a(S'conj_and'
p1936
S'local'
p1937
S'foreign'
p1938
tp1939
a(S'prep_to'
p1940
S'displayed'
p1941
S'press'
p1942
tp1943
a(S'det'
p1944
S'center'
p1945
g1053
tp1946
a(S'nn'
p1947
S'center'
p1948
S'detention'
p1949
tp1950
a(S'prep_at'
p1951
S'displayed'
p1952
S'center'
p1953
tp1954
a(S'prep_in'
p1955
S'center'
p1956
S'Bangkok'
p1957
tp1958
asg57
(lp1959
(g1908
S'ROOT-0'
p1960
S'displayed-7'
p1961
tp1962
a(g1912
S'displayed-7'
p1963
S'100-2'
p1964
tp1965
a(g1916
S'100-2'
p1966
S'those-4'
p1967
tp1968
a(g1920
S'displayed-7'
p1969
S'detained-5'
p1970
tp1971
a(g1924
S'displayed-7'
p1972
S'were-6'
p1973
tp1974
a(g1928
S'displayed-7'
p1975
S'Friday-8'
p1976
tp1977
a(g1932
S'press-13'
p1978
S'local-10'
p1979
tp1980
a(g1936
S'local-10'
p1981
S'foreign-12'
p1982
tp1983
a(g1940
S'displayed-7'
p1984
S'press-13'
p1985
tp1986
a(g1944
S'center-17'
p1987
S'a-15'
p1988
tp1989
a(g1947
S'center-17'
p1990
S'detention-16'
p1991
tp1992
a(g1951
S'displayed-7'
p1993
S'center-17'
p1994
tp1995
a(g1955
S'center-17'
p1996
S'Bangkok-19'
p1997
tp1998
asg92
(lp1999
(S'About'
p2000
(dp2001
S'NamedEntityTag'
p2002
g110
sS'CharacterOffsetEnd'
p2003
S'317'
p2004
sS'Lemma'
p2005
S'about'
p2006
sS'PartOfSpeech'
p2007
S'IN'
p2008
sS'CharacterOffsetBegin'
p2009
S'312'
p2010
stp2011
a(S'100'
p2012
(dp2013
S'NormalizedNamedEntityTag'
p2014
S'~100.0'
p2015
sS'Lemma'
p2016
S'100'
p2017
sS'CharacterOffsetEnd'
p2018
S'321'
p2019
sS'PartOfSpeech'
p2020
S'CD'
p2021
sS'CharacterOffsetBegin'
p2022
S'318'
p2023
sS'NamedEntityTag'
p2024
S'NUMBER'
p2025
stp2026
a(S'of'
p2027
(dp2028
S'NamedEntityTag'
p2029
g110
sS'CharacterOffsetEnd'
p2030
S'324'
p2031
sS'Lemma'
p2032
S'of'
p2033
sS'PartOfSpeech'
p2034
S'IN'
p2035
sS'CharacterOffsetBegin'
p2036
S'322'
p2037
stp2038
a(S'those'
p2039
(dp2040
S'NamedEntityTag'
p2041
g110
sS'CharacterOffsetEnd'
p2042
S'330'
p2043
sS'Lemma'
p2044
S'those'
p2045
sS'PartOfSpeech'
p2046
S'DT'
p2047
sS'CharacterOffsetBegin'
p2048
S'325'
p2049
stp2050
a(S'detained'
p2051
(dp2052
S'NamedEntityTag'
p2053
g110
sS'CharacterOffsetEnd'
p2054
S'339'
p2055
sS'Lemma'
p2056
S'detain'
p2057
sS'PartOfSpeech'
p2058
S'VBN'
p2059
sS'CharacterOffsetBegin'
p2060
S'331'
p2061
stp2062
a(S'were'
p2063
(dp2064
S'NamedEntityTag'
p2065
g110
sS'CharacterOffsetEnd'
p2066
S'344'
p2067
sS'Lemma'
p2068
S'be'
p2069
sS'PartOfSpeech'
p2070
S'VBD'
p2071
sS'CharacterOffsetBegin'
p2072
S'340'
p2073
stp2074
a(S'displayed'
p2075
(dp2076
S'NamedEntityTag'
p2077
g110
sS'CharacterOffsetEnd'
p2078
S'354'
p2079
sS'Lemma'
p2080
S'display'
p2081
sS'PartOfSpeech'
p2082
S'VBN'
p2083
sS'CharacterOffsetBegin'
p2084
S'345'
p2085
stp2086
a(S'Friday'
p2087
(dp2088
S'NormalizedNamedEntityTag'
p2089
S'XXXX-WXX-5'
p2090
sS'Timex'
p2091
S'<TIMEX3 tid="t1" type="DATE" value="XXXX-WXX-5">Friday</TIMEX3>'
p2092
sS'Lemma'
p2093
S'Friday'
p2094
sS'CharacterOffsetEnd'
p2095
S'361'
p2096
sS'PartOfSpeech'
p2097
S'NNP'
p2098
sS'CharacterOffsetBegin'
p2099
S'355'
p2100
sS'NamedEntityTag'
p2101
S'DATE'
p2102
stp2103
a(S'to'
p2104
(dp2105
S'NamedEntityTag'
p2106
g110
sS'CharacterOffsetEnd'
p2107
S'364'
p2108
sS'Lemma'
p2109
S'to'
p2110
sS'PartOfSpeech'
p2111
S'TO'
p2112
sS'CharacterOffsetBegin'
p2113
S'362'
p2114
stp2115
a(S'local'
p2116
(dp2117
S'NamedEntityTag'
p2118
g110
sS'CharacterOffsetEnd'
p2119
S'370'
p2120
sS'Lemma'
p2121
S'local'
p2122
sS'PartOfSpeech'
p2123
S'JJ'
p2124
sS'CharacterOffsetBegin'
p2125
S'365'
p2126
stp2127
a(S'and'
p2128
(dp2129
S'NamedEntityTag'
p2130
g110
sS'CharacterOffsetEnd'
p2131
S'374'
p2132
sS'Lemma'
p2133
S'and'
p2134
sS'PartOfSpeech'
p2135
S'CC'
p2136
sS'CharacterOffsetBegin'
p2137
S'371'
p2138
stp2139
a(S'foreign'
p2140
(dp2141
S'NamedEntityTag'
p2142
g110
sS'CharacterOffsetEnd'
p2143
S'382'
p2144
sS'Lemma'
p2145
S'foreign'
p2146
sS'PartOfSpeech'
p2147
S'JJ'
p2148
sS'CharacterOffsetBegin'
p2149
S'375'
p2150
stp2151
a(S'press'
p2152
(dp2153
S'NamedEntityTag'
p2154
g110
sS'CharacterOffsetEnd'
p2155
S'388'
p2156
sS'Lemma'
p2157
S'press'
p2158
sS'PartOfSpeech'
p2159
S'NN'
p2160
sS'CharacterOffsetBegin'
p2161
S'383'
p2162
stp2163
a(S'at'
p2164
(dp2165
S'NamedEntityTag'
p2166
g110
sS'CharacterOffsetEnd'
p2167
S'391'
p2168
sS'Lemma'
p2169
S'at'
p2170
sS'PartOfSpeech'
p2171
S'IN'
p2172
sS'CharacterOffsetBegin'
p2173
S'389'
p2174
stp2175
a(g1053
(dp2176
S'NamedEntityTag'
p2177
g110
sS'CharacterOffsetEnd'
p2178
S'393'
p2179
sS'Lemma'
p2180
g1053
sS'PartOfSpeech'
p2181
S'DT'
p2182
sS'CharacterOffsetBegin'
p2183
S'392'
p2184
stp2185
a(S'detention'
p2186
(dp2187
S'NamedEntityTag'
p2188
g110
sS'CharacterOffsetEnd'
p2189
S'403'
p2190
sS'Lemma'
p2191
S'detention'
p2192
sS'PartOfSpeech'
p2193
S'NN'
p2194
sS'CharacterOffsetBegin'
p2195
S'394'
p2196
stp2197
a(S'center'
p2198
(dp2199
S'NamedEntityTag'
p2200
g110
sS'CharacterOffsetEnd'
p2201
S'410'
p2202
sS'Lemma'
p2203
S'center'
p2204
sS'PartOfSpeech'
p2205
S'NN'
p2206
sS'CharacterOffsetBegin'
p2207
S'404'
p2208
stp2209
a(S'in'
p2210
(dp2211
S'NamedEntityTag'
p2212
g110
sS'CharacterOffsetEnd'
p2213
S'413'
p2214
sS'Lemma'
p2215
S'in'
p2216
sS'PartOfSpeech'
p2217
S'IN'
p2218
sS'CharacterOffsetBegin'
p2219
S'411'
p2220
stp2221
a(S'Bangkok'
p2222
(dp2223
S'NamedEntityTag'
p2224
S'LOCATION'
p2225
sS'CharacterOffsetEnd'
p2226
S'421'
p2227
sS'Lemma'
p2228
S'Bangkok'
p2229
sS'PartOfSpeech'
p2230
S'NNP'
p2231
sS'CharacterOffsetBegin'
p2232
S'414'
p2233
stp2234
a(g1688
(dp2235
S'NamedEntityTag'
p2236
g110
sS'CharacterOffsetEnd'
p2237
S'422'
p2238
sS'Lemma'
p2239
g1688
sS'PartOfSpeech'
p2240
g1688
sS'CharacterOffsetBegin'
p2241
S'421'
p2242
stp2243
asa(dp2244
g7
S'(ROOT (SINV (S (NP (JJS Most)) (VP (VBP come) (ADVP (RB here)) (PP (IN because) (PP (IN of) (NP (JJ economic) (NN hardship)))))) (, ,) (VP (VBD said)) (NP (NP (NNP Maj.) (NNP Gen.) (NNP Chanvut) (NNP Vajrabukka)) (, ,) (NP (NP (NN deputy) (NN commissioner)) (PP (IN for) (NP (DT the) (NN immigration) (NN police))))) (. .)))'
p2245
sg9
S'Most come here because of economic hardship, said Maj. Gen. Chanvut Vajrabukka, deputy commissioner for the immigration police.'
p2246
sg11
(lp2247
(S'root'
p2248
S'ROOT'
p2249
S'said'
p2250
tp2251
a(S'nsubj'
p2252
S'come'
p2253
S'Most'
p2254
tp2255
a(S'ccomp'
p2256
S'said'
p2257
S'come'
p2258
tp2259
a(S'advmod'
p2260
S'come'
p2261
S'here'
p2262
tp2263
a(S'prepc_because_of'
p2264
S'come'
p2265
S'of'
p2266
tp2267
a(S'amod'
p2268
S'hardship'
p2269
S'economic'
p2270
tp2271
a(S'pobj'
p2272
S'come'
p2273
S'hardship'
p2274
tp2275
a(S'nn'
p2276
S'Vajrabukka'
p2277
S'Maj.'
p2278
tp2279
a(S'nn'
p2280
S'Vajrabukka'
p2281
S'Gen.'
p2282
tp2283
a(S'nn'
p2284
S'Vajrabukka'
p2285
S'Chanvut'
p2286
tp2287
a(S'nsubj'
p2288
S'said'
p2289
S'Vajrabukka'
p2290
tp2291
a(S'nn'
p2292
S'commissioner'
p2293
S'deputy'
p2294
tp2295
a(S'appos'
p2296
S'Vajrabukka'
p2297
S'commissioner'
p2298
tp2299
a(S'det'
p2300
S'police'
p2301
S'the'
p2302
tp2303
a(S'nn'
p2304
S'police'
p2305
S'immigration'
p2306
tp2307
a(S'prep_for'
p2308
S'commissioner'
p2309
S'police'
p2310
tp2311
asg57
(lp2312
(g2248
S'ROOT-0'
p2313
S'said-9'
p2314
tp2315
a(g2252
S'come-2'
p2316
S'Most-1'
p2317
tp2318
a(g2256
S'said-9'
p2319
S'come-2'
p2320
tp2321
a(g2260
S'come-2'
p2322
S'here-3'
p2323
tp2324
a(g2264
S'come-2'
p2325
S'of-5'
p2326
tp2327
a(g2268
S'hardship-7'
p2328
S'economic-6'
p2329
tp2330
a(g2272
S'come-2'
p2331
S'hardship-7'
p2332
tp2333
a(g2276
S'Vajrabukka-13'
p2334
S'Maj.-10'
p2335
tp2336
a(g2280
S'Vajrabukka-13'
p2337
S'Gen.-11'
p2338
tp2339
a(g2284
S'Vajrabukka-13'
p2340
S'Chanvut-12'
p2341
tp2342
a(g2288
S'said-9'
p2343
S'Vajrabukka-13'
p2344
tp2345
a(g2292
S'commissioner-16'
p2346
S'deputy-15'
p2347
tp2348
a(g2296
S'Vajrabukka-13'
p2349
S'commissioner-16'
p2350
tp2351
a(g2300
S'police-20'
p2352
S'the-18'
p2353
tp2354
a(g2304
S'police-20'
p2355
S'immigration-19'
p2356
tp2357
a(g2308
S'commissioner-16'
p2358
S'police-20'
p2359
tp2360
asg92
(lp2361
(S'Most'
p2362
(dp2363
S'NamedEntityTag'
p2364
g110
sS'CharacterOffsetEnd'
p2365
S'427'
p2366
sS'Lemma'
p2367
S'most'
p2368
sS'PartOfSpeech'
p2369
S'JJS'
p2370
sS'CharacterOffsetBegin'
p2371
S'423'
p2372
stp2373
a(S'come'
p2374
(dp2375
S'NamedEntityTag'
p2376
g110
sS'CharacterOffsetEnd'
p2377
S'432'
p2378
sS'Lemma'
p2379
S'come'
p2380
sS'PartOfSpeech'
p2381
S'VBP'
p2382
sS'CharacterOffsetBegin'
p2383
S'428'
p2384
stp2385
a(S'here'
p2386
(dp2387
S'NamedEntityTag'
p2388
g110
sS'CharacterOffsetEnd'
p2389
S'437'
p2390
sS'Lemma'
p2391
S'here'
p2392
sS'PartOfSpeech'
p2393
S'RB'
p2394
sS'CharacterOffsetBegin'
p2395
S'433'
p2396
stp2397
a(S'because'
p2398
(dp2399
S'NamedEntityTag'
p2400
g110
sS'CharacterOffsetEnd'
p2401
S'445'
p2402
sS'Lemma'
p2403
S'because'
p2404
sS'PartOfSpeech'
p2405
S'IN'
p2406
sS'CharacterOffsetBegin'
p2407
S'438'
p2408
stp2409
a(S'of'
p2410
(dp2411
S'NamedEntityTag'
p2412
g110
sS'CharacterOffsetEnd'
p2413
S'448'
p2414
sS'Lemma'
p2415
S'of'
p2416
sS'PartOfSpeech'
p2417
S'IN'
p2418
sS'CharacterOffsetBegin'
p2419
S'446'
p2420
stp2421
a(S'economic'
p2422
(dp2423
S'NamedEntityTag'
p2424
g110
sS'CharacterOffsetEnd'
p2425
S'457'
p2426
sS'Lemma'
p2427
S'economic'
p2428
sS'PartOfSpeech'
p2429
S'JJ'
p2430
sS'CharacterOffsetBegin'
p2431
S'449'
p2432
stp2433
a(S'hardship'
p2434
(dp2435
S'NamedEntityTag'
p2436
g110
sS'CharacterOffsetEnd'
p2437
S'466'
p2438
sS'Lemma'
p2439
S'hardship'
p2440
sS'PartOfSpeech'
p2441
S'NN'
p2442
sS'CharacterOffsetBegin'
p2443
S'458'
p2444
stp2445
a(g1320
(dp2446
S'NamedEntityTag'
p2447
g110
sS'CharacterOffsetEnd'
p2448
S'467'
p2449
sS'Lemma'
p2450
g1320
sS'PartOfSpeech'
p2451
g1320
sS'CharacterOffsetBegin'
p2452
S'466'
p2453
stp2454
a(S'said'
p2455
(dp2456
S'NamedEntityTag'
p2457
g110
sS'CharacterOffsetEnd'
p2458
S'472'
p2459
sS'Lemma'
p2460
S'say'
p2461
sS'PartOfSpeech'
p2462
S'VBD'
p2463
sS'CharacterOffsetBegin'
p2464
S'468'
p2465
stp2466
a(S'Maj.'
p2467
(dp2468
S'NamedEntityTag'
p2469
g110
sS'CharacterOffsetEnd'
p2470
S'477'
p2471
sS'Lemma'
p2472
S'Maj.'
p2473
sS'PartOfSpeech'
p2474
S'NNP'
p2475
sS'CharacterOffsetBegin'
p2476
S'473'
p2477
stp2478
a(S'Gen.'
p2479
(dp2480
S'NamedEntityTag'
p2481
g110
sS'CharacterOffsetEnd'
p2482
S'482'
p2483
sS'Lemma'
p2484
S'Gen.'
p2485
sS'PartOfSpeech'
p2486
S'NNP'
p2487
sS'CharacterOffsetBegin'
p2488
S'478'
p2489
stp2490
a(S'Chanvut'
p2491
(dp2492
S'NamedEntityTag'
p2493
S'PERSON'
p2494
sS'CharacterOffsetEnd'
p2495
S'490'
p2496
sS'Lemma'
p2497
S'Chanvut'
p2498
sS'PartOfSpeech'
p2499
S'NNP'
p2500
sS'CharacterOffsetBegin'
p2501
S'483'
p2502
stp2503
a(S'Vajrabukka'
p2504
(dp2505
S'NamedEntityTag'
p2506
S'PERSON'
p2507
sS'CharacterOffsetEnd'
p2508
S'501'
p2509
sS'Lemma'
p2510
S'Vajrabukka'
p2511
sS'PartOfSpeech'
p2512
S'NNP'
p2513
sS'CharacterOffsetBegin'
p2514
S'491'
p2515
stp2516
a(g1320
(dp2517
S'NamedEntityTag'
p2518
g110
sS'CharacterOffsetEnd'
p2519
S'502'
p2520
sS'Lemma'
p2521
g1320
sS'PartOfSpeech'
p2522
g1320
sS'CharacterOffsetBegin'
p2523
S'501'
p2524
stp2525
a(S'deputy'
p2526
(dp2527
S'NamedEntityTag'
p2528
g110
sS'CharacterOffsetEnd'
p2529
S'509'
p2530
sS'Lemma'
p2531
S'deputy'
p2532
sS'PartOfSpeech'
p2533
S'NN'
p2534
sS'CharacterOffsetBegin'
p2535
S'503'
p2536
stp2537
a(S'commissioner'
p2538
(dp2539
S'NamedEntityTag'
p2540
g110
sS'CharacterOffsetEnd'
p2541
S'522'
p2542
sS'Lemma'
p2543
S'commissioner'
p2544
sS'PartOfSpeech'
p2545
S'NN'
p2546
sS'CharacterOffsetBegin'
p2547
S'510'
p2548
stp2549
a(S'for'
p2550
(dp2551
S'NamedEntityTag'
p2552
g110
sS'CharacterOffsetEnd'
p2553
S'526'
p2554
sS'Lemma'
p2555
S'for'
p2556
sS'PartOfSpeech'
p2557
S'IN'
p2558
sS'CharacterOffsetBegin'
p2559
S'523'
p2560
stp2561
a(S'the'
p2562
(dp2563
S'NamedEntityTag'
p2564
g110
sS'CharacterOffsetEnd'
p2565
S'530'
p2566
sS'Lemma'
p2567
S'the'
p2568
sS'PartOfSpeech'
p2569
S'DT'
p2570
sS'CharacterOffsetBegin'
p2571
S'527'
p2572
stp2573
a(S'immigration'
p2574
(dp2575
S'NamedEntityTag'
p2576
g110
sS'CharacterOffsetEnd'
p2577
S'542'
p2578
sS'Lemma'
p2579
S'immigration'
p2580
sS'PartOfSpeech'
p2581
S'NN'
p2582
sS'CharacterOffsetBegin'
p2583
S'531'
p2584
stp2585
a(S'police'
p2586
(dp2587
S'NamedEntityTag'
p2588
g110
sS'CharacterOffsetEnd'
p2589
S'549'
p2590
sS'Lemma'
p2591
S'police'
p2592
sS'PartOfSpeech'
p2593
S'NN'
p2594
sS'CharacterOffsetBegin'
p2595
S'543'
p2596
stp2597
a(g1688
(dp2598
S'NamedEntityTag'
p2599
g110
sS'CharacterOffsetEnd'
p2600
S'550'
p2601
sS'Lemma'
p2602
g1688
sS'PartOfSpeech'
p2603
g1688
sS'CharacterOffsetBegin'
p2604
S'549'
p2605
stp2606
asa(dp2607
g7
S'(ROOT (S (NP (EX There)) (VP (VBP are) (NP (DT some) (NNS beggars) (PRN (, ,) (ADVP (RB however)) (, ,)) (SBAR (WHNP (WP who)) (S (VP (VBP are) (PP (IN under) (NP (NP (NN control)) (PP (IN of) (NP (NNS gangsters)))))))))) (. .)))'
p2608
sg9
S'There are some beggars, however, who are under control of gangsters.'
p2609
sg11
(lp2610
(S'root'
p2611
S'ROOT'
p2612
S'are'
p2613
tp2614
a(S'expl'
p2615
S'are'
p2616
S'There'
p2617
tp2618
a(S'det'
p2619
S'beggars'
p2620
S'some'
p2621
tp2622
a(S'nsubj'
p2623
S'are'
p2624
S'beggars'
p2625
tp2626
a(S'dep'
p2627
S'beggars'
p2628
S'however'
p2629
tp2630
a(S'nsubj'
p2631
S'are'
p2632
S'who'
p2633
tp2634
a(S'ccomp'
p2635
S'beggars'
p2636
S'are'
p2637
tp2638
a(S'prep_under'
p2639
S'are'
p2640
S'control'
p2641
tp2642
a(S'prep_of'
p2643
S'control'
p2644
S'gangsters'
p2645
tp2646
asg57
(lp2647
(g2611
S'ROOT-0'
p2648
S'are-2'
p2649
tp2650
a(g2615
S'are-2'
p2651
S'There-1'
p2652
tp2653
a(g2619
S'beggars-4'
p2654
S'some-3'
p2655
tp2656
a(g2623
S'are-2'
p2657
S'beggars-4'
p2658
tp2659
a(g2627
S'beggars-4'
p2660
S'however-6'
p2661
tp2662
a(g2631
S'are-9'
p2663
S'who-8'
p2664
tp2665
a(g2635
S'beggars-4'
p2666
S'are-9'
p2667
tp2668
a(g2639
S'are-9'
p2669
S'control-11'
p2670
tp2671
a(g2643
S'control-11'
p2672
S'gangsters-13'
p2673
tp2674
asg92
(lp2675
(S'There'
p2676
(dp2677
S'NamedEntityTag'
p2678
g110
sS'CharacterOffsetEnd'
p2679
S'556'
p2680
sS'Lemma'
p2681
S'there'
p2682
sS'PartOfSpeech'
p2683
S'EX'
p2684
sS'CharacterOffsetBegin'
p2685
S'551'
p2686
stp2687
a(S'are'
p2688
(dp2689
S'NamedEntityTag'
p2690
g110
sS'CharacterOffsetEnd'
p2691
S'560'
p2692
sS'Lemma'
p2693
S'be'
p2694
sS'PartOfSpeech'
p2695
S'VBP'
p2696
sS'CharacterOffsetBegin'
p2697
S'557'
p2698
stp2699
a(S'some'
p2700
(dp2701
S'NamedEntityTag'
p2702
g110
sS'CharacterOffsetEnd'
p2703
S'565'
p2704
sS'Lemma'
p2705
S'some'
p2706
sS'PartOfSpeech'
p2707
S'DT'
p2708
sS'CharacterOffsetBegin'
p2709
S'561'
p2710
stp2711
a(S'beggars'
p2712
(dp2713
S'NamedEntityTag'
p2714
g110
sS'CharacterOffsetEnd'
p2715
S'573'
p2716
sS'Lemma'
p2717
S'beggar'
p2718
sS'PartOfSpeech'
p2719
S'NNS'
p2720
sS'CharacterOffsetBegin'
p2721
S'566'
p2722
stp2723
a(g1320
(dp2724
S'NamedEntityTag'
p2725
g110
sS'CharacterOffsetEnd'
p2726
S'574'
p2727
sS'Lemma'
p2728
g1320
sS'PartOfSpeech'
p2729
g1320
sS'CharacterOffsetBegin'
p2730
S'573'
p2731
stp2732
a(S'however'
p2733
(dp2734
S'NamedEntityTag'
p2735
g110
sS'CharacterOffsetEnd'
p2736
S'582'
p2737
sS'Lemma'
p2738
S'however'
p2739
sS'PartOfSpeech'
p2740
S'RB'
p2741
sS'CharacterOffsetBegin'
p2742
S'575'
p2743
stp2744
a(g1320
(dp2745
S'NamedEntityTag'
p2746
g110
sS'CharacterOffsetEnd'
p2747
S'583'
p2748
sS'Lemma'
p2749
g1320
sS'PartOfSpeech'
p2750
g1320
sS'CharacterOffsetBegin'
p2751
S'582'
p2752
stp2753
a(S'who'
p2754
(dp2755
S'NamedEntityTag'
p2756
g110
sS'CharacterOffsetEnd'
p2757
S'587'
p2758
sS'Lemma'
p2759
S'who'
p2760
sS'PartOfSpeech'
p2761
S'WP'
p2762
sS'CharacterOffsetBegin'
p2763
S'584'
p2764
stp2765
a(S'are'
p2766
(dp2767
S'NamedEntityTag'
p2768
g110
sS'CharacterOffsetEnd'
p2769
S'591'
p2770
sS'Lemma'
p2771
S'be'
p2772
sS'PartOfSpeech'
p2773
S'VBP'
p2774
sS'CharacterOffsetBegin'
p2775
S'588'
p2776
stp2777
a(S'under'
p2778
(dp2779
S'NamedEntityTag'
p2780
g110
sS'CharacterOffsetEnd'
p2781
S'597'
p2782
sS'Lemma'
p2783
S'under'
p2784
sS'PartOfSpeech'
p2785
S'IN'
p2786
sS'CharacterOffsetBegin'
p2787
S'592'
p2788
stp2789
a(S'control'
p2790
(dp2791
S'NamedEntityTag'
p2792
g110
sS'CharacterOffsetEnd'
p2793
S'605'
p2794
sS'Lemma'
p2795
S'control'
p2796
sS'PartOfSpeech'
p2797
S'NN'
p2798
sS'CharacterOffsetBegin'
p2799
S'598'
p2800
stp2801
a(S'of'
p2802
(dp2803
S'NamedEntityTag'
p2804
g110
sS'CharacterOffsetEnd'
p2805
S'608'
p2806
sS'Lemma'
p2807
S'of'
p2808
sS'PartOfSpeech'
p2809
S'IN'
p2810
sS'CharacterOffsetBegin'
p2811
S'606'
p2812
stp2813
a(S'gangsters'
p2814
(dp2815
S'NamedEntityTag'
p2816
g110
sS'CharacterOffsetEnd'
p2817
S'618'
p2818
sS'Lemma'
p2819
S'gangster'
p2820
sS'PartOfSpeech'
p2821
S'NNS'
p2822
sS'CharacterOffsetBegin'
p2823
S'609'
p2824
stp2825
a(g1688
(dp2826
S'NamedEntityTag'
p2827
g110
sS'CharacterOffsetEnd'
p2828
S'619'
p2829
sS'Lemma'
p2830
g1688
sS'PartOfSpeech'
p2831
g1688
sS'CharacterOffsetBegin'
p2832
S'618'
p2833
stp2834
asa(dp2835
g7
S'(ROOT (S (NP (PRP They)) (VP (MD could) (VP (VB cause) (NP (NN trouble)) (PP (IN for) (NP (NNS tourists) (CC and) (NNS athletes))))) (. .)))'
p2836
sg9
S'They could cause trouble for tourists and athletes.'
p2837
sg11
(lp2838
(S'root'
p2839
S'ROOT'
p2840
S'cause'
p2841
tp2842
a(S'nsubj'
p2843
S'cause'
p2844
S'They'
p2845
tp2846
a(S'aux'
p2847
S'cause'
p2848
S'could'
p2849
tp2850
a(S'dobj'
p2851
S'cause'
p2852
S'trouble'
p2853
tp2854
a(S'prep_for'
p2855
S'cause'
p2856
S'tourists'
p2857
tp2858
a(S'conj_and'
p2859
S'tourists'
p2860
S'athletes'
p2861
tp2862
asg57
(lp2863
(g2839
S'ROOT-0'
p2864
S'cause-3'
p2865
tp2866
a(g2843
S'cause-3'
p2867
S'They-1'
p2868
tp2869
a(g2847
S'cause-3'
p2870
S'could-2'
p2871
tp2872
a(g2851
S'cause-3'
p2873
S'trouble-4'
p2874
tp2875
a(g2855
S'cause-3'
p2876
S'tourists-6'
p2877
tp2878
a(g2859
S'tourists-6'
p2879
S'athletes-8'
p2880
tp2881
asg92
(lp2882
(S'They'
p2883
(dp2884
S'NamedEntityTag'
p2885
g110
sS'CharacterOffsetEnd'
p2886
S'624'
p2887
sS'Lemma'
p2888
S'they'
p2889
sS'PartOfSpeech'
p2890
S'PRP'
p2891
sS'CharacterOffsetBegin'
p2892
S'620'
p2893
stp2894
a(S'could'
p2895
(dp2896
S'NamedEntityTag'
p2897
g110
sS'CharacterOffsetEnd'
p2898
S'630'
p2899
sS'Lemma'
p2900
S'could'
p2901
sS'PartOfSpeech'
p2902
S'MD'
p2903
sS'CharacterOffsetBegin'
p2904
S'625'
p2905
stp2906
a(S'cause'
p2907
(dp2908
S'NamedEntityTag'
p2909
g110
sS'CharacterOffsetEnd'
p2910
S'636'
p2911
sS'Lemma'
p2912
S'cause'
p2913
sS'PartOfSpeech'
p2914
S'VB'
p2915
sS'CharacterOffsetBegin'
p2916
S'631'
p2917
stp2918
a(S'trouble'
p2919
(dp2920
S'NamedEntityTag'
p2921
g110
sS'CharacterOffsetEnd'
p2922
S'644'
p2923
sS'Lemma'
p2924
S'trouble'
p2925
sS'PartOfSpeech'
p2926
S'NN'
p2927
sS'CharacterOffsetBegin'
p2928
S'637'
p2929
stp2930
a(S'for'
p2931
(dp2932
S'NamedEntityTag'
p2933
g110
sS'CharacterOffsetEnd'
p2934
S'648'
p2935
sS'Lemma'
p2936
S'for'
p2937
sS'PartOfSpeech'
p2938
S'IN'
p2939
sS'CharacterOffsetBegin'
p2940
S'645'
p2941
stp2942
a(S'tourists'
p2943
(dp2944
S'NamedEntityTag'
p2945
g110
sS'CharacterOffsetEnd'
p2946
S'657'
p2947
sS'Lemma'
p2948
S'tourist'
p2949
sS'PartOfSpeech'
p2950
S'NNS'
p2951
sS'CharacterOffsetBegin'
p2952
S'649'
p2953
stp2954
a(S'and'
p2955
(dp2956
S'NamedEntityTag'
p2957
g110
sS'CharacterOffsetEnd'
p2958
S'661'
p2959
sS'Lemma'
p2960
S'and'
p2961
sS'PartOfSpeech'
p2962
S'CC'
p2963
sS'CharacterOffsetBegin'
p2964
S'658'
p2965
stp2966
a(S'athletes'
p2967
(dp2968
S'NamedEntityTag'
p2969
g110
sS'CharacterOffsetEnd'
p2970
S'670'
p2971
sS'Lemma'
p2972
S'athlete'
p2973
sS'PartOfSpeech'
p2974
S'NNS'
p2975
sS'CharacterOffsetBegin'
p2976
S'662'
p2977
stp2978
a(g1688
(dp2979
S'NamedEntityTag'
p2980
g110
sS'CharacterOffsetEnd'
p2981
S'671'
p2982
sS'Lemma'
p2983
g1688
sS'PartOfSpeech'
p2984
g1688
sS'CharacterOffsetBegin'
p2985
S'670'
p2986
stp2987
asa(dp2988
g7
S'(ROOT (S (NP (NP (JJ Other) (NNS groups)) (VP (VBN targeted) (PP (IN by) (NP (NN police))) (PP (IN in) (NP (NP (NN advance)) (PP (IN of) (NP (DT the) (JJ Asian) (NNPS Games))))))) (VP (VBP are) (NP (NP (NP (JJ foreign) (JJ criminal) (NNS gangs)) (VP (VBN believed) (S (VP (TO to) (VP (VB operate) (PP (IN in) (NP (NNP Bangkok)))))))) (CC and) (NP (NP (JJ other) (JJ major) (NNS cities)) (PP (IN in) (NP (NNP Thailand)))))) (. .)))'
p2989
sg9
S'Other groups targeted by police in advance of the Asian Games are foreign criminal gangs believed to operate in Bangkok and other major cities in Thailand.'
p2990
sg11
(lp2991
(S'root'
p2992
S'ROOT'
p2993
S'gangs'
p2994
tp2995
a(S'amod'
p2996
S'groups'
p2997
S'Other'
p2998
tp2999
a(S'nsubj'
p3000
S'gangs'
p3001
S'groups'
p3002
tp3003
a(S'partmod'
p3004
S'groups'
p3005
S'targeted'
p3006
tp3007
a(S'agent'
p3008
S'targeted'
p3009
S'police'
p3010
tp3011
a(S'prep_in'
p3012
S'targeted'
p3013
S'advance'
p3014
tp3015
a(S'det'
p3016
S'Games'
p3017
S'the'
p3018
tp3019
a(S'amod'
p3020
S'Games'
p3021
S'Asian'
p3022
tp3023
a(S'prep_of'
p3024
S'advance'
p3025
S'Games'
p3026
tp3027
a(S'cop'
p3028
S'gangs'
p3029
S'are'
p3030
tp3031
a(S'amod'
p3032
S'gangs'
p3033
S'foreign'
p3034
tp3035
a(S'amod'
p3036
S'gangs'
p3037
S'criminal'
p3038
tp3039
a(S'partmod'
p3040
S'gangs'
p3041
S'believed'
p3042
tp3043
a(S'aux'
p3044
S'operate'
p3045
S'to'
p3046
tp3047
a(S'xcomp'
p3048
S'believed'
p3049
S'operate'
p3050
tp3051
a(S'prep_in'
p3052
S'operate'
p3053
S'Bangkok'
p3054
tp3055
a(S'amod'
p3056
S'cities'
p3057
S'other'
p3058
tp3059
a(S'amod'
p3060
S'cities'
p3061
S'major'
p3062
tp3063
a(S'conj_and'
p3064
S'gangs'
p3065
S'cities'
p3066
tp3067
a(S'prep_in'
p3068
S'cities'
p3069
S'Thailand'
p3070
tp3071
asg57
(lp3072
(g2992
S'ROOT-0'
p3073
S'gangs-15'
p3074
tp3075
a(g2996
S'groups-2'
p3076
S'Other-1'
p3077
tp3078
a(g3000
S'gangs-15'
p3079
S'groups-2'
p3080
tp3081
a(g3004
S'groups-2'
p3082
S'targeted-3'
p3083
tp3084
a(g3008
S'targeted-3'
p3085
S'police-5'
p3086
tp3087
a(g3012
S'targeted-3'
p3088
S'advance-7'
p3089
tp3090
a(g3016
S'Games-11'
p3091
S'the-9'
p3092
tp3093
a(g3020
S'Games-11'
p3094
S'Asian-10'
p3095
tp3096
a(g3024
S'advance-7'
p3097
S'Games-11'
p3098
tp3099
a(g3028
S'gangs-15'
p3100
S'are-12'
p3101
tp3102
a(g3032
S'gangs-15'
p3103
S'foreign-13'
p3104
tp3105
a(g3036
S'gangs-15'
p3106
S'criminal-14'
p3107
tp3108
a(g3040
S'gangs-15'
p3109
S'believed-16'
p3110
tp3111
a(g3044
S'operate-18'
p3112
S'to-17'
p3113
tp3114
a(g3048
S'believed-16'
p3115
S'operate-18'
p3116
tp3117
a(g3052
S'operate-18'
p3118
S'Bangkok-20'
p3119
tp3120
a(g3056
S'cities-24'
p3121
S'other-22'
p3122
tp3123
a(g3060
S'cities-24'
p3124
S'major-23'
p3125
tp3126
a(g3064
S'gangs-15'
p3127
S'cities-24'
p3128
tp3129
a(g3068
S'cities-24'
p3130
S'Thailand-26'
p3131
tp3132
asg92
(lp3133
(S'Other'
p3134
(dp3135
S'NamedEntityTag'
p3136
g110
sS'CharacterOffsetEnd'
p3137
S'677'
p3138
sS'Lemma'
p3139
S'other'
p3140
sS'PartOfSpeech'
p3141
S'JJ'
p3142
sS'CharacterOffsetBegin'
p3143
S'672'
p3144
stp3145
a(S'groups'
p3146
(dp3147
S'NamedEntityTag'
p3148
g110
sS'CharacterOffsetEnd'
p3149
S'684'
p3150
sS'Lemma'
p3151
S'group'
p3152
sS'PartOfSpeech'
p3153
S'NNS'
p3154
sS'CharacterOffsetBegin'
p3155
S'678'
p3156
stp3157
a(S'targeted'
p3158
(dp3159
S'NamedEntityTag'
p3160
g110
sS'CharacterOffsetEnd'
p3161
S'693'
p3162
sS'Lemma'
p3163
S'target'
p3164
sS'PartOfSpeech'
p3165
S'VBN'
p3166
sS'CharacterOffsetBegin'
p3167
S'685'
p3168
stp3169
a(S'by'
p3170
(dp3171
S'NamedEntityTag'
p3172
g110
sS'CharacterOffsetEnd'
p3173
S'696'
p3174
sS'Lemma'
p3175
S'by'
p3176
sS'PartOfSpeech'
p3177
S'IN'
p3178
sS'CharacterOffsetBegin'
p3179
S'694'
p3180
stp3181
a(S'police'
p3182
(dp3183
S'NamedEntityTag'
p3184
g110
sS'CharacterOffsetEnd'
p3185
S'703'
p3186
sS'Lemma'
p3187
S'police'
p3188
sS'PartOfSpeech'
p3189
S'NN'
p3190
sS'CharacterOffsetBegin'
p3191
S'697'
p3192
stp3193
a(S'in'
p3194
(dp3195
S'NamedEntityTag'
p3196
g110
sS'CharacterOffsetEnd'
p3197
S'706'
p3198
sS'Lemma'
p3199
S'in'
p3200
sS'PartOfSpeech'
p3201
S'IN'
p3202
sS'CharacterOffsetBegin'
p3203
S'704'
p3204
stp3205
a(S'advance'
p3206
(dp3207
S'NamedEntityTag'
p3208
g110
sS'CharacterOffsetEnd'
p3209
S'714'
p3210
sS'Lemma'
p3211
S'advance'
p3212
sS'PartOfSpeech'
p3213
S'NN'
p3214
sS'CharacterOffsetBegin'
p3215
S'707'
p3216
stp3217
a(S'of'
p3218
(dp3219
S'NamedEntityTag'
p3220
g110
sS'CharacterOffsetEnd'
p3221
S'717'
p3222
sS'Lemma'
p3223
S'of'
p3224
sS'PartOfSpeech'
p3225
S'IN'
p3226
sS'CharacterOffsetBegin'
p3227
S'715'
p3228
stp3229
a(S'the'
p3230
(dp3231
S'NamedEntityTag'
p3232
g110
sS'CharacterOffsetEnd'
p3233
S'721'
p3234
sS'Lemma'
p3235
S'the'
p3236
sS'PartOfSpeech'
p3237
S'DT'
p3238
sS'CharacterOffsetBegin'
p3239
S'718'
p3240
stp3241
a(S'Asian'
p3242
(dp3243
S'NamedEntityTag'
p3244
S'MISC'
p3245
sS'CharacterOffsetEnd'
p3246
S'727'
p3247
sS'Lemma'
p3248
S'asian'
p3249
sS'PartOfSpeech'
p3250
S'JJ'
p3251
sS'CharacterOffsetBegin'
p3252
S'722'
p3253
stp3254
a(S'Games'
p3255
(dp3256
S'NamedEntityTag'
p3257
S'MISC'
p3258
sS'CharacterOffsetEnd'
p3259
S'733'
p3260
sS'Lemma'
p3261
S'Games'
p3262
sS'PartOfSpeech'
p3263
S'NNPS'
p3264
sS'CharacterOffsetBegin'
p3265
S'728'
p3266
stp3267
a(S'are'
p3268
(dp3269
S'NamedEntityTag'
p3270
g110
sS'CharacterOffsetEnd'
p3271
S'737'
p3272
sS'Lemma'
p3273
S'be'
p3274
sS'PartOfSpeech'
p3275
S'VBP'
p3276
sS'CharacterOffsetBegin'
p3277
S'734'
p3278
stp3279
a(S'foreign'
p3280
(dp3281
S'NamedEntityTag'
p3282
g110
sS'CharacterOffsetEnd'
p3283
S'745'
p3284
sS'Lemma'
p3285
S'foreign'
p3286
sS'PartOfSpeech'
p3287
S'JJ'
p3288
sS'CharacterOffsetBegin'
p3289
S'738'
p3290
stp3291
a(S'criminal'
p3292
(dp3293
S'NamedEntityTag'
p3294
g110
sS'CharacterOffsetEnd'
p3295
S'754'
p3296
sS'Lemma'
p3297
S'criminal'
p3298
sS'PartOfSpeech'
p3299
S'JJ'
p3300
sS'CharacterOffsetBegin'
p3301
S'746'
p3302
stp3303
a(S'gangs'
p3304
(dp3305
S'NamedEntityTag'
p3306
g110
sS'CharacterOffsetEnd'
p3307
S'760'
p3308
sS'Lemma'
p3309
S'gang'
p3310
sS'PartOfSpeech'
p3311
S'NNS'
p3312
sS'CharacterOffsetBegin'
p3313
S'755'
p3314
stp3315
a(S'believed'
p3316
(dp3317
S'NamedEntityTag'
p3318
g110
sS'CharacterOffsetEnd'
p3319
S'769'
p3320
sS'Lemma'
p3321
S'believe'
p3322
sS'PartOfSpeech'
p3323
S'VBN'
p3324
sS'CharacterOffsetBegin'
p3325
S'761'
p3326
stp3327
a(S'to'
p3328
(dp3329
S'NamedEntityTag'
p3330
g110
sS'CharacterOffsetEnd'
p3331
S'772'
p3332
sS'Lemma'
p3333
S'to'
p3334
sS'PartOfSpeech'
p3335
S'TO'
p3336
sS'CharacterOffsetBegin'
p3337
S'770'
p3338
stp3339
a(S'operate'
p3340
(dp3341
S'NamedEntityTag'
p3342
g110
sS'CharacterOffsetEnd'
p3343
S'780'
p3344
sS'Lemma'
p3345
S'operate'
p3346
sS'PartOfSpeech'
p3347
S'VB'
p3348
sS'CharacterOffsetBegin'
p3349
S'773'
p3350
stp3351
a(S'in'
p3352
(dp3353
S'NamedEntityTag'
p3354
g110
sS'CharacterOffsetEnd'
p3355
S'783'
p3356
sS'Lemma'
p3357
S'in'
p3358
sS'PartOfSpeech'
p3359
S'IN'
p3360
sS'CharacterOffsetBegin'
p3361
S'781'
p3362
stp3363
a(S'Bangkok'
p3364
(dp3365
S'NamedEntityTag'
p3366
S'LOCATION'
p3367
sS'CharacterOffsetEnd'
p3368
S'791'
p3369
sS'Lemma'
p3370
S'Bangkok'
p3371
sS'PartOfSpeech'
p3372
S'NNP'
p3373
sS'CharacterOffsetBegin'
p3374
S'784'
p3375
stp3376
a(S'and'
p3377
(dp3378
S'NamedEntityTag'
p3379
g110
sS'CharacterOffsetEnd'
p3380
S'795'
p3381
sS'Lemma'
p3382
S'and'
p3383
sS'PartOfSpeech'
p3384
S'CC'
p3385
sS'CharacterOffsetBegin'
p3386
S'792'
p3387
stp3388
a(S'other'
p3389
(dp3390
S'NamedEntityTag'
p3391
g110
sS'CharacterOffsetEnd'
p3392
S'801'
p3393
sS'Lemma'
p3394
S'other'
p3395
sS'PartOfSpeech'
p3396
S'JJ'
p3397
sS'CharacterOffsetBegin'
p3398
S'796'
p3399
stp3400
a(S'major'
p3401
(dp3402
S'NamedEntityTag'
p3403
g110
sS'CharacterOffsetEnd'
p3404
S'807'
p3405
sS'Lemma'
p3406
S'major'
p3407
sS'PartOfSpeech'
p3408
S'JJ'
p3409
sS'CharacterOffsetBegin'
p3410
S'802'
p3411
stp3412
a(S'cities'
p3413
(dp3414
S'NamedEntityTag'
p3415
g110
sS'CharacterOffsetEnd'
p3416
S'814'
p3417
sS'Lemma'
p3418
S'city'
p3419
sS'PartOfSpeech'
p3420
S'NNS'
p3421
sS'CharacterOffsetBegin'
p3422
S'808'
p3423
stp3424
a(S'in'
p3425
(dp3426
S'NamedEntityTag'
p3427
g110
sS'CharacterOffsetEnd'
p3428
S'817'
p3429
sS'Lemma'
p3430
S'in'
p3431
sS'PartOfSpeech'
p3432
S'IN'
p3433
sS'CharacterOffsetBegin'
p3434
S'815'
p3435
stp3436
a(S'Thailand'
p3437
(dp3438
S'NamedEntityTag'
p3439
S'LOCATION'
p3440
sS'CharacterOffsetEnd'
p3441
S'826'
p3442
sS'Lemma'
p3443
S'Thailand'
p3444
sS'PartOfSpeech'
p3445
S'NNP'
p3446
sS'CharacterOffsetBegin'
p3447
S'818'
p3448
stp3449
a(g1688
(dp3450
S'NamedEntityTag'
p3451
g110
sS'CharacterOffsetEnd'
p3452
S'827'
p3453
sS'Lemma'
p3454
g1688
sS'PartOfSpeech'
p3455
g1688
sS'CharacterOffsetBegin'
p3456
S'826'
p3457
stp3458
asa(dp3459
g7
S'(ROOT (S (NP (DT The) (JJ Asian) (NNPS Games)) (VP (MD will) (VP (VB be) (VP (VBN held) (PP (IN from) (NP (DT the) (NNP Dec) (CD 6-20)))))) (. .)))'
p3460
sg9
S'The Asian Games will be held from the Dec 6-20.'
p3461
sg11
(lp3462
(S'root'
p3463
S'ROOT'
p3464
S'held'
p3465
tp3466
a(S'det'
p3467
S'Games'
p3468
S'The'
p3469
tp3470
a(S'amod'
p3471
S'Games'
p3472
S'Asian'
p3473
tp3474
a(S'nsubjpass'
p3475
S'held'
p3476
S'Games'
p3477
tp3478
a(S'aux'
p3479
S'held'
p3480
S'will'
p3481
tp3482
a(S'auxpass'
p3483
S'held'
p3484
S'be'
p3485
tp3486
a(S'det'
p3487
S'Dec'
p3488
S'the'
p3489
tp3490
a(S'prep_from'
p3491
S'held'
p3492
S'Dec'
p3493
tp3494
a(S'num'
p3495
S'Dec'
p3496
S'6-20'
p3497
tp3498
asg57
(lp3499
(g3463
S'ROOT-0'
p3500
S'held-6'
p3501
tp3502
a(g3467
S'Games-3'
p3503
S'The-1'
p3504
tp3505
a(g3471
S'Games-3'
p3506
S'Asian-2'
p3507
tp3508
a(g3475
S'held-6'
p3509
S'Games-3'
p3510
tp3511
a(g3479
S'held-6'
p3512
S'will-4'
p3513
tp3514
a(g3483
S'held-6'
p3515
S'be-5'
p3516
tp3517
a(g3487
S'Dec-9'
p3518
S'the-8'
p3519
tp3520
a(g3491
S'held-6'
p3521
S'Dec-9'
p3522
tp3523
a(g3495
S'Dec-9'
p3524
S'6-20-10'
p3525
tp3526
asg92
(lp3527
(S'The'
p3528
(dp3529
S'NamedEntityTag'
p3530
g110
sS'CharacterOffsetEnd'
p3531
S'831'
p3532
sS'Lemma'
p3533
S'the'
p3534
sS'PartOfSpeech'
p3535
S'DT'
p3536
sS'CharacterOffsetBegin'
p3537
S'828'
p3538
stp3539
a(S'Asian'
p3540
(dp3541
S'NamedEntityTag'
p3542
S'MISC'
p3543
sS'CharacterOffsetEnd'
p3544
S'837'
p3545
sS'Lemma'
p3546
S'asian'
p3547
sS'PartOfSpeech'
p3548
S'JJ'
p3549
sS'CharacterOffsetBegin'
p3550
S'832'
p3551
stp3552
a(S'Games'
p3553
(dp3554
S'NamedEntityTag'
p3555
S'MISC'
p3556
sS'CharacterOffsetEnd'
p3557
S'843'
p3558
sS'Lemma'
p3559
S'Games'
p3560
sS'PartOfSpeech'
p3561
S'NNPS'
p3562
sS'CharacterOffsetBegin'
p3563
S'838'
p3564
stp3565
a(S'will'
p3566
(dp3567
S'NamedEntityTag'
p3568
g110
sS'CharacterOffsetEnd'
p3569
S'848'
p3570
sS'Lemma'
p3571
S'will'
p3572
sS'PartOfSpeech'
p3573
S'MD'
p3574
sS'CharacterOffsetBegin'
p3575
S'844'
p3576
stp3577
a(S'be'
p3578
(dp3579
S'NamedEntityTag'
p3580
g110
sS'CharacterOffsetEnd'
p3581
S'851'
p3582
sS'Lemma'
p3583
S'be'
p3584
sS'PartOfSpeech'
p3585
S'VB'
p3586
sS'CharacterOffsetBegin'
p3587
S'849'
p3588
stp3589
a(S'held'
p3590
(dp3591
S'NamedEntityTag'
p3592
g110
sS'CharacterOffsetEnd'
p3593
S'856'
p3594
sS'Lemma'
p3595
S'hold'
p3596
sS'PartOfSpeech'
p3597
S'VBN'
p3598
sS'CharacterOffsetBegin'
p3599
S'852'
p3600
stp3601
a(S'from'
p3602
(dp3603
S'NamedEntityTag'
p3604
g110
sS'CharacterOffsetEnd'
p3605
S'861'
p3606
sS'Lemma'
p3607
S'from'
p3608
sS'PartOfSpeech'
p3609
S'IN'
p3610
sS'CharacterOffsetBegin'
p3611
S'857'
p3612
stp3613
a(S'the'
p3614
(dp3615
S'NamedEntityTag'
p3616
g110
sS'CharacterOffsetEnd'
p3617
S'865'
p3618
sS'Lemma'
p3619
S'the'
p3620
sS'PartOfSpeech'
p3621
S'DT'
p3622
sS'CharacterOffsetBegin'
p3623
S'862'
p3624
stp3625
a(S'Dec'
p3626
(dp3627
S'NormalizedNamedEntityTag'
p3628
S'XXXX-12'
p3629
sS'Timex'
p3630
S'<TIMEX3 tid="t3" type="DATE" value="XXXX-12">Dec</TIMEX3>'
p3631
sS'Lemma'
p3632
S'Dec'
p3633
sS'CharacterOffsetEnd'
p3634
S'869'
p3635
sS'PartOfSpeech'
p3636
S'NNP'
p3637
sS'CharacterOffsetBegin'
p3638
S'866'
p3639
sS'NamedEntityTag'
p3640
S'DATE'
p3641
stp3642
a(S'6-20'
p3643
(dp3644
S'NormalizedNamedEntityTag'
p3645
S'6.0'
p3646
sS'Lemma'
p3647
S'6-20'
p3648
sS'CharacterOffsetEnd'
p3649
S'874'
p3650
sS'PartOfSpeech'
p3651
S'CD'
p3652
sS'CharacterOffsetBegin'
p3653
S'870'
p3654
sS'NamedEntityTag'
p3655
S'NUMBER'
p3656
stp3657
a(g1688
(dp3658
S'NamedEntityTag'
p3659
g110
sS'CharacterOffsetEnd'
p3660
S'875'
p3661
sS'Lemma'
p3662
g1688
sS'PartOfSpeech'
p3663
g1688
sS'CharacterOffsetBegin'
p3664
S'874'
p3665
stp3666
asass.