(dp0
S'models'
p1
(lp2
(dp3
S'sentences'
p4
(lp5
(dp6
S'parsetree'
p7
S'(ROOT (S (NP (NNP U.S.) (CC and) (NNP Russia)) (VP (VBP agree) (SBAR (S (NP (NP (DT a) (NN space) (NN station) (NN launch)) (PP (TO to) (NP (NNP MIR)))) (VP (VBZ is) (ADJP (JJ untimely)))))) (. .)))'
p8
sS'text'
p9
S'U.S. and Russia agree a space station launch to MIR is untimely.'
p10
sS'dependencies'
p11
(lp12
(S'root'
p13
S'ROOT'
p14
S'agree'
p15
tp16
a(S'nsubj'
p17
S'agree'
p18
S'U.S.'
p19
tp20
a(S'conj_and'
p21
S'U.S.'
p22
S'Russia'
p23
tp24
a(S'det'
p25
S'launch'
p26
S'a'
p27
tp28
a(S'nn'
p29
S'launch'
p30
S'space'
p31
tp32
a(S'nn'
p33
S'launch'
p34
S'station'
p35
tp36
a(S'nsubj'
p37
S'untimely'
p38
S'launch'
p39
tp40
a(S'prep_to'
p41
S'launch'
p42
S'MIR'
p43
tp44
a(S'cop'
p45
S'untimely'
p46
S'is'
p47
tp48
a(S'ccomp'
p49
S'agree'
p50
S'untimely'
p51
tp52
asS'indexeddependencies'
p53
(lp54
(g13
S'ROOT-0'
p55
S'agree-4'
p56
tp57
a(g17
S'agree-4'
p58
S'U.S.-1'
p59
tp60
a(g21
S'U.S.-1'
p61
S'Russia-3'
p62
tp63
a(g25
S'launch-8'
p64
S'a-5'
p65
tp66
a(g29
S'launch-8'
p67
S'space-6'
p68
tp69
a(g33
S'launch-8'
p70
S'station-7'
p71
tp72
a(g37
S'untimely-12'
p73
S'launch-8'
p74
tp75
a(g41
S'launch-8'
p76
S'MIR-10'
p77
tp78
a(g45
S'untimely-12'
p79
S'is-11'
p80
tp81
a(g49
S'agree-4'
p82
S'untimely-12'
p83
tp84
asS'words'
p85
(lp86
(S'U.S.'
p87
(dp88
S'NamedEntityTag'
p89
S'LOCATION'
p90
sS'CharacterOffsetEnd'
p91
S'5'
p92
sS'Lemma'
p93
S'U.S.'
p94
sS'PartOfSpeech'
p95
S'NNP'
p96
sS'CharacterOffsetBegin'
p97
S'1'
p98
stp99
a(S'and'
p100
(dp101
S'NamedEntityTag'
p102
S'O'
p103
sS'CharacterOffsetEnd'
p104
S'9'
p105
sS'Lemma'
p106
S'and'
p107
sS'PartOfSpeech'
p108
S'CC'
p109
sS'CharacterOffsetBegin'
p110
S'6'
p111
stp112
a(S'Russia'
p113
(dp114
S'NamedEntityTag'
p115
S'LOCATION'
p116
sS'CharacterOffsetEnd'
p117
S'16'
p118
sS'Lemma'
p119
S'Russia'
p120
sS'PartOfSpeech'
p121
S'NNP'
p122
sS'CharacterOffsetBegin'
p123
S'10'
p124
stp125
a(S'agree'
p126
(dp127
S'NamedEntityTag'
p128
g103
sS'CharacterOffsetEnd'
p129
S'22'
p130
sS'Lemma'
p131
S'agree'
p132
sS'PartOfSpeech'
p133
S'VBP'
p134
sS'CharacterOffsetBegin'
p135
S'17'
p136
stp137
a(g27
(dp138
S'NamedEntityTag'
p139
g103
sS'CharacterOffsetEnd'
p140
S'24'
p141
sS'Lemma'
p142
g27
sS'PartOfSpeech'
p143
S'DT'
p144
sS'CharacterOffsetBegin'
p145
S'23'
p146
stp147
a(S'space'
p148
(dp149
S'NamedEntityTag'
p150
g103
sS'CharacterOffsetEnd'
p151
S'30'
p152
sS'Lemma'
p153
S'space'
p154
sS'PartOfSpeech'
p155
S'NN'
p156
sS'CharacterOffsetBegin'
p157
S'25'
p158
stp159
a(S'station'
p160
(dp161
S'NamedEntityTag'
p162
g103
sS'CharacterOffsetEnd'
p163
S'38'
p164
sS'Lemma'
p165
S'station'
p166
sS'PartOfSpeech'
p167
S'NN'
p168
sS'CharacterOffsetBegin'
p169
S'31'
p170
stp171
a(S'launch'
p172
(dp173
S'NamedEntityTag'
p174
g103
sS'CharacterOffsetEnd'
p175
S'45'
p176
sS'Lemma'
p177
S'launch'
p178
sS'PartOfSpeech'
p179
S'NN'
p180
sS'CharacterOffsetBegin'
p181
S'39'
p182
stp183
a(S'to'
p184
(dp185
S'NamedEntityTag'
p186
g103
sS'CharacterOffsetEnd'
p187
S'48'
p188
sS'Lemma'
p189
S'to'
p190
sS'PartOfSpeech'
p191
S'TO'
p192
sS'CharacterOffsetBegin'
p193
S'46'
p194
stp195
a(S'MIR'
p196
(dp197
S'NamedEntityTag'
p198
S'MISC'
p199
sS'CharacterOffsetEnd'
p200
S'52'
p201
sS'Lemma'
p202
S'MIR'
p203
sS'PartOfSpeech'
p204
S'NNP'
p205
sS'CharacterOffsetBegin'
p206
S'49'
p207
stp208
a(S'is'
p209
(dp210
S'NamedEntityTag'
p211
g103
sS'CharacterOffsetEnd'
p212
S'55'
p213
sS'Lemma'
p214
S'be'
p215
sS'PartOfSpeech'
p216
S'VBZ'
p217
sS'CharacterOffsetBegin'
p218
S'53'
p219
stp220
a(S'untimely'
p221
(dp222
S'NamedEntityTag'
p223
g103
sS'CharacterOffsetEnd'
p224
S'64'
p225
sS'Lemma'
p226
S'untimely'
p227
sS'PartOfSpeech'
p228
S'JJ'
p229
sS'CharacterOffsetBegin'
p230
S'56'
p231
stp232
a(S'.'
p233
(dp234
S'NamedEntityTag'
p235
g103
sS'CharacterOffsetEnd'
p236
S'65'
p237
sS'Lemma'
p238
g233
sS'PartOfSpeech'
p239
g233
sS'CharacterOffsetBegin'
p240
S'64'
p241
stp242
asasa(dp243
g4
(lp244
(dp245
g7
S'(ROOT (S (NP (JJ Russian) (JJ economic) (NN collapse)) (VP (VBZ affects) (NP (NP (NNS plans)) (PP (IN for) (NP (JJ international) (NN space) (NN station)))))))'
p246
sg9
S'Russian economic collapse affects plans for international space station'
p247
sg11
(lp248
(S'root'
p249
S'ROOT'
p250
S'affects'
p251
tp252
a(S'amod'
p253
S'collapse'
p254
S'Russian'
p255
tp256
a(S'amod'
p257
S'collapse'
p258
S'economic'
p259
tp260
a(S'nsubj'
p261
S'affects'
p262
S'collapse'
p263
tp264
a(S'dobj'
p265
S'affects'
p266
S'plans'
p267
tp268
a(S'amod'
p269
S'station'
p270
S'international'
p271
tp272
a(S'nn'
p273
S'station'
p274
S'space'
p275
tp276
a(S'prep_for'
p277
S'plans'
p278
S'station'
p279
tp280
asg53
(lp281
(g249
S'ROOT-0'
p282
S'affects-4'
p283
tp284
a(g253
S'collapse-3'
p285
S'Russian-1'
p286
tp287
a(g257
S'collapse-3'
p288
S'economic-2'
p289
tp290
a(g261
S'affects-4'
p291
S'collapse-3'
p292
tp293
a(g265
S'affects-4'
p294
S'plans-5'
p295
tp296
a(g269
S'station-9'
p297
S'international-7'
p298
tp299
a(g273
S'station-9'
p300
S'space-8'
p301
tp302
a(g277
S'plans-5'
p303
S'station-9'
p304
tp305
asg85
(lp306
(S'Russian'
p307
(dp308
S'NamedEntityTag'
p309
S'MISC'
p310
sS'CharacterOffsetEnd'
p311
S'8'
p312
sS'Lemma'
p313
S'russian'
p314
sS'PartOfSpeech'
p315
S'JJ'
p316
sS'CharacterOffsetBegin'
p317
g98
stp318
a(S'economic'
p319
(dp320
S'NamedEntityTag'
p321
g103
sS'CharacterOffsetEnd'
p322
S'17'
p323
sS'Lemma'
p324
S'economic'
p325
sS'PartOfSpeech'
p326
S'JJ'
p327
sS'CharacterOffsetBegin'
p328
g105
stp329
a(S'collapse'
p330
(dp331
S'NamedEntityTag'
p332
g103
sS'CharacterOffsetEnd'
p333
S'26'
p334
sS'Lemma'
p335
S'collapse'
p336
sS'PartOfSpeech'
p337
S'NN'
p338
sS'CharacterOffsetBegin'
p339
S'18'
p340
stp341
a(S'affects'
p342
(dp343
S'NamedEntityTag'
p344
g103
sS'CharacterOffsetEnd'
p345
S'34'
p346
sS'Lemma'
p347
S'affect'
p348
sS'PartOfSpeech'
p349
S'VBZ'
p350
sS'CharacterOffsetBegin'
p351
S'27'
p352
stp353
a(S'plans'
p354
(dp355
S'NamedEntityTag'
p356
g103
sS'CharacterOffsetEnd'
p357
S'40'
p358
sS'Lemma'
p359
S'plan'
p360
sS'PartOfSpeech'
p361
S'NNS'
p362
sS'CharacterOffsetBegin'
p363
S'35'
p364
stp365
a(S'for'
p366
(dp367
S'NamedEntityTag'
p368
g103
sS'CharacterOffsetEnd'
p369
S'44'
p370
sS'Lemma'
p371
S'for'
p372
sS'PartOfSpeech'
p373
S'IN'
p374
sS'CharacterOffsetBegin'
p375
S'41'
p376
stp377
a(S'international'
p378
(dp379
S'NamedEntityTag'
p380
g103
sS'CharacterOffsetEnd'
p381
S'58'
p382
sS'Lemma'
p383
S'international'
p384
sS'PartOfSpeech'
p385
S'JJ'
p386
sS'CharacterOffsetBegin'
p387
S'45'
p388
stp389
a(S'space'
p390
(dp391
S'NamedEntityTag'
p392
g103
sS'CharacterOffsetEnd'
p393
S'64'
p394
sS'Lemma'
p395
S'space'
p396
sS'PartOfSpeech'
p397
S'NN'
p398
sS'CharacterOffsetBegin'
p399
S'59'
p400
stp401
a(S'station'
p402
(dp403
S'NamedEntityTag'
p404
g103
sS'CharacterOffsetEnd'
p405
S'72'
p406
sS'Lemma'
p407
S'station'
p408
sS'PartOfSpeech'
p409
S'NN'
p410
sS'CharacterOffsetBegin'
p411
S'65'
p412
stp413
asasa(dp414
g4
(lp415
(dp416
g7
S'(ROOT (S (NP (NP (NNP NASA)) (, ,) (NP (NNPS Russians))) (VP (VBP decide) (PP (IN against) (S (VP (VBG positioning) (NP (JJ 2nd) (NN station)) (PP (IN nearer) (NP (NNS Mir)))))))))'
p417
sg9
S'NASA, Russians decide against positioning 2nd station nearer Mir'
p418
sg11
(lp419
(S'root'
p420
S'ROOT'
p421
S'decide'
p422
tp423
a(S'nsubj'
p424
S'decide'
p425
S'NASA'
p426
tp427
a(S'appos'
p428
S'NASA'
p429
S'Russians'
p430
tp431
a(S'prepc_against'
p432
S'decide'
p433
S'positioning'
p434
tp435
a(S'amod'
p436
S'station'
p437
S'2nd'
p438
tp439
a(S'dobj'
p440
S'positioning'
p441
S'station'
p442
tp443
a(S'prep_nearer'
p444
S'positioning'
p445
S'Mir'
p446
tp447
asg53
(lp448
(g420
S'ROOT-0'
p449
S'decide-4'
p450
tp451
a(g424
S'decide-4'
p452
S'NASA-1'
p453
tp454
a(g428
S'NASA-1'
p455
S'Russians-3'
p456
tp457
a(g432
S'decide-4'
p458
S'positioning-6'
p459
tp460
a(g436
S'station-8'
p461
S'2nd-7'
p462
tp463
a(g440
S'positioning-6'
p464
S'station-8'
p465
tp466
a(g444
S'positioning-6'
p467
S'Mir-10'
p468
tp469
asg85
(lp470
(S'NASA'
p471
(dp472
S'NamedEntityTag'
p473
S'ORGANIZATION'
p474
sS'CharacterOffsetEnd'
p475
g92
sS'Lemma'
p476
S'NASA'
p477
sS'PartOfSpeech'
p478
S'NNP'
p479
sS'CharacterOffsetBegin'
p480
g98
stp481
a(S','
p482
(dp483
S'NamedEntityTag'
p484
g103
sS'CharacterOffsetEnd'
p485
g111
sS'Lemma'
p486
g482
sS'PartOfSpeech'
p487
g482
sS'CharacterOffsetBegin'
p488
g92
stp489
a(S'Russians'
p490
(dp491
S'NamedEntityTag'
p492
S'MISC'
p493
sS'CharacterOffsetEnd'
p494
S'15'
p495
sS'Lemma'
p496
S'Russians'
p497
sS'PartOfSpeech'
p498
S'NNPS'
p499
sS'CharacterOffsetBegin'
p500
S'7'
p501
stp502
a(S'decide'
p503
(dp504
S'NamedEntityTag'
p505
g103
sS'CharacterOffsetEnd'
p506
S'22'
p507
sS'Lemma'
p508
S'decide'
p509
sS'PartOfSpeech'
p510
S'VBP'
p511
sS'CharacterOffsetBegin'
p512
S'16'
p513
stp514
a(S'against'
p515
(dp516
S'NamedEntityTag'
p517
g103
sS'CharacterOffsetEnd'
p518
S'30'
p519
sS'Lemma'
p520
S'against'
p521
sS'PartOfSpeech'
p522
S'IN'
p523
sS'CharacterOffsetBegin'
p524
S'23'
p525
stp526
a(S'positioning'
p527
(dp528
S'NamedEntityTag'
p529
g103
sS'CharacterOffsetEnd'
p530
S'42'
p531
sS'Lemma'
p532
S'position'
p533
sS'PartOfSpeech'
p534
S'VBG'
p535
sS'CharacterOffsetBegin'
p536
S'31'
p537
stp538
a(S'2nd'
p539
(dp540
S'NormalizedNamedEntityTag'
p541
S'2.0'
p542
sS'Lemma'
p543
S'2nd'
p544
sS'CharacterOffsetEnd'
p545
S'46'
p546
sS'PartOfSpeech'
p547
S'JJ'
p548
sS'CharacterOffsetBegin'
p549
S'43'
p550
sS'NamedEntityTag'
p551
S'ORDINAL'
p552
stp553
a(S'station'
p554
(dp555
S'NamedEntityTag'
p556
g103
sS'CharacterOffsetEnd'
p557
S'54'
p558
sS'Lemma'
p559
S'station'
p560
sS'PartOfSpeech'
p561
S'NN'
p562
sS'CharacterOffsetBegin'
p563
S'47'
p564
stp565
a(S'nearer'
p566
(dp567
S'NamedEntityTag'
p568
g103
sS'CharacterOffsetEnd'
p569
S'61'
p570
sS'Lemma'
p571
S'nearer'
p572
sS'PartOfSpeech'
p573
S'IN'
p574
sS'CharacterOffsetBegin'
p575
S'55'
p576
stp577
a(S'Mir'
p578
(dp579
S'NamedEntityTag'
p580
g103
sS'CharacterOffsetEnd'
p581
S'65'
p582
sS'Lemma'
p583
S'mir'
p584
sS'PartOfSpeech'
p585
S'NNS'
p586
sS'CharacterOffsetBegin'
p587
S'62'
p588
stp589
asasa(dp590
g4
(lp591
(dp592
g7
S'(ROOT (S (NP (NP (NN Request) (S (VP (TO to) (VP (VB position) (NP (NP (NN space) (NN station)) (PP (IN near) (NP (NNP MIR)))) (ADVP (RB too) (RB late)))))) (: ;) (NP (NP (NNP NASA)) (, ,) (NP (NNPS Russians)))) (VP (VBP agree))))'
p593
sg9
S'Request to position space station near MIR too late; NASA, Russians agree'
p594
sg11
(lp595
(S'root'
p596
S'ROOT'
p597
S'agree'
p598
tp599
a(S'nsubj'
p600
S'agree'
p601
S'Request'
p602
tp603
a(S'aux'
p604
S'position'
p605
S'to'
p606
tp607
a(S'infmod'
p608
S'Request'
p609
S'position'
p610
tp611
a(S'nn'
p612
S'station'
p613
S'space'
p614
tp615
a(S'dobj'
p616
S'position'
p617
S'station'
p618
tp619
a(S'prep_near'
p620
S'station'
p621
S'MIR'
p622
tp623
a(S'advmod'
p624
S'late'
p625
S'too'
p626
tp627
a(S'advmod'
p628
S'position'
p629
S'late'
p630
tp631
a(S'dep'
p632
S'Request'
p633
S'NASA'
p634
tp635
a(S'appos'
p636
S'NASA'
p637
S'Russians'
p638
tp639
asg53
(lp640
(g596
S'ROOT-0'
p641
S'agree-14'
p642
tp643
a(g600
S'agree-14'
p644
S'Request-1'
p645
tp646
a(g604
S'position-3'
p647
S'to-2'
p648
tp649
a(g608
S'Request-1'
p650
S'position-3'
p651
tp652
a(g612
S'station-5'
p653
S'space-4'
p654
tp655
a(g616
S'position-3'
p656
S'station-5'
p657
tp658
a(g620
S'station-5'
p659
S'MIR-7'
p660
tp661
a(g624
S'late-9'
p662
S'too-8'
p663
tp664
a(g628
S'position-3'
p665
S'late-9'
p666
tp667
a(g632
S'Request-1'
p668
S'NASA-11'
p669
tp670
a(g636
S'NASA-11'
p671
S'Russians-13'
p672
tp673
asg85
(lp674
(S'Request'
p675
(dp676
S'NamedEntityTag'
p677
g103
sS'CharacterOffsetEnd'
p678
g312
sS'Lemma'
p679
S'request'
p680
sS'PartOfSpeech'
p681
S'NN'
p682
sS'CharacterOffsetBegin'
p683
g98
stp684
a(S'to'
p685
(dp686
S'NamedEntityTag'
p687
g103
sS'CharacterOffsetEnd'
p688
S'11'
p689
sS'Lemma'
p690
S'to'
p691
sS'PartOfSpeech'
p692
S'TO'
p693
sS'CharacterOffsetBegin'
p694
g105
stp695
a(S'position'
p696
(dp697
S'NamedEntityTag'
p698
g103
sS'CharacterOffsetEnd'
p699
S'20'
p700
sS'Lemma'
p701
S'position'
p702
sS'PartOfSpeech'
p703
S'VB'
p704
sS'CharacterOffsetBegin'
p705
S'12'
p706
stp707
a(S'space'
p708
(dp709
S'NamedEntityTag'
p710
g103
sS'CharacterOffsetEnd'
p711
S'26'
p712
sS'Lemma'
p713
S'space'
p714
sS'PartOfSpeech'
p715
S'NN'
p716
sS'CharacterOffsetBegin'
p717
S'21'
p718
stp719
a(S'station'
p720
(dp721
S'NamedEntityTag'
p722
g103
sS'CharacterOffsetEnd'
p723
S'34'
p724
sS'Lemma'
p725
S'station'
p726
sS'PartOfSpeech'
p727
S'NN'
p728
sS'CharacterOffsetBegin'
p729
S'27'
p730
stp731
a(S'near'
p732
(dp733
S'NamedEntityTag'
p734
g103
sS'CharacterOffsetEnd'
p735
S'39'
p736
sS'Lemma'
p737
S'near'
p738
sS'PartOfSpeech'
p739
S'IN'
p740
sS'CharacterOffsetBegin'
p741
S'35'
p742
stp743
a(S'MIR'
p744
(dp745
S'NamedEntityTag'
p746
g103
sS'CharacterOffsetEnd'
p747
S'43'
p748
sS'Lemma'
p749
S'MIR'
p750
sS'PartOfSpeech'
p751
S'NNP'
p752
sS'CharacterOffsetBegin'
p753
S'40'
p754
stp755
a(S'too'
p756
(dp757
S'NamedEntityTag'
p758
g103
sS'CharacterOffsetEnd'
p759
S'47'
p760
sS'Lemma'
p761
S'too'
p762
sS'PartOfSpeech'
p763
S'RB'
p764
sS'CharacterOffsetBegin'
p765
S'44'
p766
stp767
a(S'late'
p768
(dp769
S'NamedEntityTag'
p770
g103
sS'CharacterOffsetEnd'
p771
S'52'
p772
sS'Lemma'
p773
S'late'
p774
sS'PartOfSpeech'
p775
S'RB'
p776
sS'CharacterOffsetBegin'
p777
S'48'
p778
stp779
a(S';'
p780
(dp781
S'NamedEntityTag'
p782
g103
sS'CharacterOffsetEnd'
p783
S'53'
p784
sS'Lemma'
p785
g780
sS'PartOfSpeech'
p786
S':'
p787
sS'CharacterOffsetBegin'
p788
S'52'
p789
stp790
a(S'NASA'
p791
(dp792
S'NamedEntityTag'
p793
S'ORGANIZATION'
p794
sS'CharacterOffsetEnd'
p795
S'58'
p796
sS'Lemma'
p797
S'NASA'
p798
sS'PartOfSpeech'
p799
S'NNP'
p800
sS'CharacterOffsetBegin'
p801
S'54'
p802
stp803
a(g482
(dp804
S'NamedEntityTag'
p805
g103
sS'CharacterOffsetEnd'
p806
S'59'
p807
sS'Lemma'
p808
g482
sS'PartOfSpeech'
p809
g482
sS'CharacterOffsetBegin'
p810
S'58'
p811
stp812
a(S'Russians'
p813
(dp814
S'NamedEntityTag'
p815
S'MISC'
p816
sS'CharacterOffsetEnd'
p817
S'68'
p818
sS'Lemma'
p819
S'Russians'
p820
sS'PartOfSpeech'
p821
S'NNPS'
p822
sS'CharacterOffsetBegin'
p823
S'60'
p824
stp825
a(S'agree'
p826
(dp827
S'NamedEntityTag'
p828
g103
sS'CharacterOffsetEnd'
p829
S'74'
p830
sS'Lemma'
p831
S'agree'
p832
sS'PartOfSpeech'
p833
S'VBP'
p834
sS'CharacterOffsetBegin'
p835
S'69'
p836
stp837
asasasS'article'
p838
(dp839
S'coref'
p840
(lp841
(lp842
((S'NASA'
p843
I2
I0
I0
I1
tp844
(S'NASA'
p845
I0
I2
I2
I3
tp846
tp847
a((S'NASA'
p848
I13
I0
I0
I1
tp849
(S'NASA'
p850
I0
I2
I2
I3
tp851
tp852
a((S'it'
p853
I13
I3
I23
I24
tp854
(S'NASA'
p855
I0
I2
I2
I3
tp856
tp857
aa(lp858
((S'the request'
p859
I1
I0
I29
I31
tp860
(S'a last-minute Russian request'
p861
I0
I6
I13
I17
tp862
tp863
aa(lp864
((S'the international station'
p865
I11
I6
I14
I17
tp866
(S'an international space station'
p867
I0
I2
I19
I23
tp868
tp869
aa(lp870
((S'Mir'
p871
I0
I8
I28
I29
tp872
(S'The Mir'
p873
I12
I1
I0
I2
tp874
tp875
a((S'Mir'
p876
I9
I4
I34
I35
tp877
(S'The Mir'
p878
I12
I1
I0
I2
tp879
tp880
a((S'Mir , which the Russians have agreed to do next summer'
p881
I10
I6
I26
I37
tp882
(S'The Mir'
p883
I12
I1
I0
I2
tp884
tp885
a((S'Mir'
p886
I10
I6
I26
I27
tp887
(S'The Mir'
p888
I12
I1
I0
I2
tp889
tp890
a((S'Mir'
p891
I11
I2
I22
I23
tp892
(S'The Mir'
p893
I12
I1
I0
I2
tp894
tp895
a((S'he'
p896
I13
I7
I17
I18
tp897
(S'The Mir'
p898
I12
I1
I0
I2
tp899
tp900
aa(lp901
((S'Brinkley'
p902
I4
I5
I15
I16
tp903
(S'Randy Brinkley'
p904
I1
I1
I40
I42
tp905
tp906
a((S'he'
p907
I6
I2
I22
I23
tp908
(S'Randy Brinkley'
p909
I1
I1
I40
I42
tp910
tp911
a((S'Brinkley'
p912
I7
I5
I5
I6
tp913
(S'Randy Brinkley'
p914
I1
I1
I40
I42
tp915
tp916
a((S'Brinkley'
p917
I12
I6
I16
I17
tp918
(S'Randy Brinkley'
p919
I1
I1
I40
I42
tp920
tp921
aa(lp922
((S'it'
p923
I1
I3
I13
I14
tp924
(S'the new station'
p925
I1
I4
I2
I5
tp926
tp927
a((S'the new station'
p928
I2
I7
I25
I28
tp929
(S'the new station'
p930
I1
I4
I2
I5
tp931
tp932
a((S'the new station'
p933
I13
I1
I29
I32
tp934
(S'the new station'
p935
I1
I4
I2
I5
tp936
tp937
a((S'the new station'
p938
I14
I3
I11
I14
tp939
(S'the new station'
p940
I1
I4
I2
I5
tp941
tp942
aa(lp943
((S'their space program'
p944
I9
I0
I8
I11
tp945
(S'NASAs space station program manager'
p946
I1
I6
I43
I48
tp947
tp948
aa(lp949
((S'first'
p950
I15
I4
I24
I25
tp951
(S'first'
p952
I2
I2
I22
I23
tp953
tp954
aa(lp955
((S'It'
p956
I5
I0
I0
I1
tp957
(S'a news conference held at the Johnson Space Center in Houston'
p958
I4
I0
I18
I29
tp959
tp960
aa(lp961
((S'United States'
p962
I6
I0
I19
I21
tp963
(S'the United States'
p964
I6
I0
I18
I21
tp965
tp966
a((S'the United States'
p967
I11
I-1
I7
I10
tp968
(S'the United States'
p969
I6
I0
I18
I21
tp970
tp971
a((S'United States'
p972
I11
I-1
I8
I10
tp973
(S'the United States'
p974
I6
I0
I18
I21
tp975
tp976
a((S'The United States'
p977
I14
I2
I0
I3
tp978
(S'the United States'
p979
I6
I0
I18
I21
tp980
tp981
a((S'United States'
p982
I14
I2
I1
I3
tp983
(S'the United States'
p984
I6
I0
I18
I21
tp985
tp986
aa(lp987
((S'their'
p988
I9
I8
I8
I9
tp989
(S'the two partners'
p990
I6
I2
I10
I13
tp991
tp992
a((S'their'
p993
I9
I2
I12
I13
tp994
(S'the two partners'
p995
I6
I2
I10
I13
tp996
tp997
a((S'they'
p998
I9
I0
I20
I21
tp999
(S'the two partners'
p1000
I6
I2
I10
I13
tp1001
tp1002
aa(lp1003
((S'it'
p1004
I8
I4
I4
I5
tp1005
(S'The decision'
p1006
I6
I1
I0
I2
tp1007
tp1008
aa(lp1009
((S'the Russians'
p1010
I10
I0
I29
I31
tp1011
(S'The Russians'
p1012
I9
I1
I0
I2
tp1013
tp1014
a((S'The Russians'
p1015
I11
I1
I0
I2
tp1016
(S'The Russians'
p1017
I9
I1
I0
I2
tp1018
tp1019
a((S'Russia'
p1020
I11
I5
I25
I26
tp1021
(S'The Russians'
p1022
I9
I1
I0
I2
tp1023
tp1024
a((S'the Russians'
p1025
I14
I0
I19
I21
tp1026
(S'The Russians'
p1027
I9
I1
I0
I2
tp1028
tp1029
aa(lp1030
((S'part of plan to delay the decommissioning and destruction of Mir , which the Russians have agreed to do next summer'
p1031
I10
I6
I16
I37
tp1032
(S'the requested orbital change'
p1033
I10
I4
I11
I15
tp1034
tp1035
aa(lp1036
((S'its'
p1037
I11
I8
I28
I29
tp1038
(S'money spent on Mir'
p1039
I11
I-1
I19
I23
tp1040
tp1041
aa(lp1042
((S'the international space station'
p1043
I13
I5
I12
I16
tp1044
(S'the international space station for very critical resources'
p1045
I12
I7
I4
I12
tp1046
tp1047
aa(lp1048
((S'a U.S.-built connecting passageway that attaches to the first module'
p1049
I15
I7
I16
I26
tp1050
(S'the second station part'
p1051
I15
I4
I11
I15
tp1052
tp1053
aasg4
(lp1054
(dp1055
g7
S'(ROOT (S (S (NP (NP (NP (NNP WASHINGTON) (CD _)) (NP (NNP NASA))) (CC and) (NP (NP (DT the) (JJ Russian) (NN Space)) (NP (NNP Agency)))) (VP (VBP have) (VP (VBN agreed) (S (VP (TO to) (VP (VB set) (PRT (RP aside)) (NP (DT a) (JJ last-minute) (JJ Russian) (NN request)) (S (VP (TO to) (VP (VB launch) (NP (DT an) (JJ international) (NN space) (NN station)) (PP (IN into) (ADVP (NP (DT an) (NN orbit)) (RBR closer))) (PP (TO to) (NP (NNS Mir)))))))))))) (, ,) (NP (NNS officials)) (VP (VBD announced) (NP-TMP (NNP Friday))) (. .)))'
p1056
sg9
S'WASHINGTON _ NASA and the Russian Space Agency have agreed to set aside a last-minute Russian request to launch an international space station into an orbit closer to Mir, officials announced Friday.'
p1057
sg11
(lp1058
(S'root'
p1059
S'ROOT'
p1060
S'announced'
p1061
tp1062
a(S'nsubj'
p1063
S'agreed'
p1064
S'WASHINGTON'
p1065
tp1066
a(S'num'
p1067
S'WASHINGTON'
p1068
S'_'
p1069
tp1070
a(S'appos'
p1071
S'WASHINGTON'
p1072
S'NASA'
p1073
tp1074
a(S'det'
p1075
S'Space'
p1076
S'the'
p1077
tp1078
a(S'amod'
p1079
S'Space'
p1080
S'Russian'
p1081
tp1082
a(S'conj_and'
p1083
S'WASHINGTON'
p1084
S'Space'
p1085
tp1086
a(S'appos'
p1087
S'Space'
p1088
S'Agency'
p1089
tp1090
a(S'aux'
p1091
S'agreed'
p1092
S'have'
p1093
tp1094
a(S'ccomp'
p1095
S'announced'
p1096
S'agreed'
p1097
tp1098
a(S'aux'
p1099
S'set'
p1100
S'to'
p1101
tp1102
a(S'xcomp'
p1103
S'agreed'
p1104
S'set'
p1105
tp1106
a(S'prt'
p1107
S'set'
p1108
S'aside'
p1109
tp1110
a(S'det'
p1111
S'request'
p1112
g27
tp1113
a(S'amod'
p1114
S'request'
p1115
S'last-minute'
p1116
tp1117
a(S'amod'
p1118
S'request'
p1119
S'Russian'
p1120
tp1121
a(S'dobj'
p1122
S'set'
p1123
S'request'
p1124
tp1125
a(S'aux'
p1126
S'launch'
p1127
S'to'
p1128
tp1129
a(S'xcomp'
p1130
S'set'
p1131
S'launch'
p1132
tp1133
a(S'det'
p1134
S'station'
p1135
S'an'
p1136
tp1137
a(S'amod'
p1138
S'station'
p1139
S'international'
p1140
tp1141
a(S'nn'
p1142
S'station'
p1143
S'space'
p1144
tp1145
a(S'dobj'
p1146
S'launch'
p1147
S'station'
p1148
tp1149
a(S'det'
p1150
S'orbit'
p1151
S'an'
p1152
tp1153
a(S'npadvmod'
p1154
S'closer'
p1155
S'orbit'
p1156
tp1157
a(S'prepc_into'
p1158
S'launch'
p1159
S'closer'
p1160
tp1161
a(S'prep_to'
p1162
S'launch'
p1163
S'Mir'
p1164
tp1165
a(S'nsubj'
p1166
S'announced'
p1167
S'officials'
p1168
tp1169
a(S'tmod'
p1170
S'announced'
p1171
S'Friday'
p1172
tp1173
asg53
(lp1174
(g1059
S'ROOT-0'
p1175
S'announced-32'
p1176
tp1177
a(g1063
S'agreed-10'
p1178
S'WASHINGTON-1'
p1179
tp1180
a(g1067
S'WASHINGTON-1'
p1181
S'_-2'
p1182
tp1183
a(g1071
S'WASHINGTON-1'
p1184
S'NASA-3'
p1185
tp1186
a(g1075
S'Space-7'
p1187
S'the-5'
p1188
tp1189
a(g1079
S'Space-7'
p1190
S'Russian-6'
p1191
tp1192
a(g1083
S'WASHINGTON-1'
p1193
S'Space-7'
p1194
tp1195
a(g1087
S'Space-7'
p1196
S'Agency-8'
p1197
tp1198
a(g1091
S'agreed-10'
p1199
S'have-9'
p1200
tp1201
a(g1095
S'announced-32'
p1202
S'agreed-10'
p1203
tp1204
a(g1099
S'set-12'
p1205
S'to-11'
p1206
tp1207
a(g1103
S'agreed-10'
p1208
S'set-12'
p1209
tp1210
a(g1107
S'set-12'
p1211
S'aside-13'
p1212
tp1213
a(g1111
S'request-17'
p1214
S'a-14'
p1215
tp1216
a(g1114
S'request-17'
p1217
S'last-minute-15'
p1218
tp1219
a(g1118
S'request-17'
p1220
S'Russian-16'
p1221
tp1222
a(g1122
S'set-12'
p1223
S'request-17'
p1224
tp1225
a(g1126
S'launch-19'
p1226
S'to-18'
p1227
tp1228
a(g1130
S'set-12'
p1229
S'launch-19'
p1230
tp1231
a(g1134
S'station-23'
p1232
S'an-20'
p1233
tp1234
a(g1138
S'station-23'
p1235
S'international-21'
p1236
tp1237
a(g1142
S'station-23'
p1238
S'space-22'
p1239
tp1240
a(g1146
S'launch-19'
p1241
S'station-23'
p1242
tp1243
a(g1150
S'orbit-26'
p1244
S'an-25'
p1245
tp1246
a(g1154
S'closer-27'
p1247
S'orbit-26'
p1248
tp1249
a(g1158
S'launch-19'
p1250
S'closer-27'
p1251
tp1252
a(g1162
S'launch-19'
p1253
S'Mir-29'
p1254
tp1255
a(g1166
S'announced-32'
p1256
S'officials-31'
p1257
tp1258
a(g1170
S'announced-32'
p1259
S'Friday-33'
p1260
tp1261
asg85
(lp1262
(S'WASHINGTON'
p1263
(dp1264
S'NamedEntityTag'
p1265
S'LOCATION'
p1266
sS'CharacterOffsetEnd'
p1267
S'10'
p1268
sS'Lemma'
p1269
S'WASHINGTON'
p1270
sS'PartOfSpeech'
p1271
S'NNP'
p1272
sS'CharacterOffsetBegin'
p1273
S'0'
p1274
stp1275
a(g1069
(dp1276
S'NamedEntityTag'
p1277
S'NUMBER'
p1278
sS'CharacterOffsetEnd'
p1279
S'12'
p1280
sS'Lemma'
p1281
g1069
sS'PartOfSpeech'
p1282
S'CD'
p1283
sS'CharacterOffsetBegin'
p1284
S'11'
p1285
stp1286
a(S'NASA'
p1287
(dp1288
S'NamedEntityTag'
p1289
S'ORGANIZATION'
p1290
sS'CharacterOffsetEnd'
p1291
S'17'
p1292
sS'Lemma'
p1293
S'NASA'
p1294
sS'PartOfSpeech'
p1295
S'NNP'
p1296
sS'CharacterOffsetBegin'
p1297
S'13'
p1298
stp1299
a(S'and'
p1300
(dp1301
S'NamedEntityTag'
p1302
g103
sS'CharacterOffsetEnd'
p1303
S'21'
p1304
sS'Lemma'
p1305
S'and'
p1306
sS'PartOfSpeech'
p1307
S'CC'
p1308
sS'CharacterOffsetBegin'
p1309
S'18'
p1310
stp1311
a(S'the'
p1312
(dp1313
S'NamedEntityTag'
p1314
g103
sS'CharacterOffsetEnd'
p1315
S'25'
p1316
sS'Lemma'
p1317
S'the'
p1318
sS'PartOfSpeech'
p1319
S'DT'
p1320
sS'CharacterOffsetBegin'
p1321
S'22'
p1322
stp1323
a(S'Russian'
p1324
(dp1325
S'NamedEntityTag'
p1326
S'ORGANIZATION'
p1327
sS'CharacterOffsetEnd'
p1328
S'33'
p1329
sS'Lemma'
p1330
S'russian'
p1331
sS'PartOfSpeech'
p1332
S'JJ'
p1333
sS'CharacterOffsetBegin'
p1334
S'26'
p1335
stp1336
a(S'Space'
p1337
(dp1338
S'NamedEntityTag'
p1339
S'ORGANIZATION'
p1340
sS'CharacterOffsetEnd'
p1341
S'39'
p1342
sS'Lemma'
p1343
S'space'
p1344
sS'PartOfSpeech'
p1345
S'NN'
p1346
sS'CharacterOffsetBegin'
p1347
S'34'
p1348
stp1349
a(S'Agency'
p1350
(dp1351
S'NamedEntityTag'
p1352
S'ORGANIZATION'
p1353
sS'CharacterOffsetEnd'
p1354
S'46'
p1355
sS'Lemma'
p1356
S'Agency'
p1357
sS'PartOfSpeech'
p1358
S'NNP'
p1359
sS'CharacterOffsetBegin'
p1360
S'40'
p1361
stp1362
a(S'have'
p1363
(dp1364
S'NamedEntityTag'
p1365
g103
sS'CharacterOffsetEnd'
p1366
S'51'
p1367
sS'Lemma'
p1368
S'have'
p1369
sS'PartOfSpeech'
p1370
S'VBP'
p1371
sS'CharacterOffsetBegin'
p1372
S'47'
p1373
stp1374
a(S'agreed'
p1375
(dp1376
S'NamedEntityTag'
p1377
g103
sS'CharacterOffsetEnd'
p1378
S'58'
p1379
sS'Lemma'
p1380
S'agree'
p1381
sS'PartOfSpeech'
p1382
S'VBN'
p1383
sS'CharacterOffsetBegin'
p1384
S'52'
p1385
stp1386
a(S'to'
p1387
(dp1388
S'NamedEntityTag'
p1389
g103
sS'CharacterOffsetEnd'
p1390
S'61'
p1391
sS'Lemma'
p1392
S'to'
p1393
sS'PartOfSpeech'
p1394
S'TO'
p1395
sS'CharacterOffsetBegin'
p1396
S'59'
p1397
stp1398
a(S'set'
p1399
(dp1400
S'NamedEntityTag'
p1401
g103
sS'CharacterOffsetEnd'
p1402
S'65'
p1403
sS'Lemma'
p1404
S'set'
p1405
sS'PartOfSpeech'
p1406
S'VB'
p1407
sS'CharacterOffsetBegin'
p1408
S'62'
p1409
stp1410
a(S'aside'
p1411
(dp1412
S'NamedEntityTag'
p1413
g103
sS'CharacterOffsetEnd'
p1414
S'71'
p1415
sS'Lemma'
p1416
S'aside'
p1417
sS'PartOfSpeech'
p1418
S'RP'
p1419
sS'CharacterOffsetBegin'
p1420
S'66'
p1421
stp1422
a(g27
(dp1423
S'NamedEntityTag'
p1424
g103
sS'CharacterOffsetEnd'
p1425
S'73'
p1426
sS'Lemma'
p1427
g27
sS'PartOfSpeech'
p1428
S'DT'
p1429
sS'CharacterOffsetBegin'
p1430
S'72'
p1431
stp1432
a(S'last-minute'
p1433
(dp1434
S'NamedEntityTag'
p1435
g103
sS'CharacterOffsetEnd'
p1436
S'85'
p1437
sS'Lemma'
p1438
S'last-minute'
p1439
sS'PartOfSpeech'
p1440
S'JJ'
p1441
sS'CharacterOffsetBegin'
p1442
S'74'
p1443
stp1444
a(S'Russian'
p1445
(dp1446
S'NamedEntityTag'
p1447
S'MISC'
p1448
sS'CharacterOffsetEnd'
p1449
S'93'
p1450
sS'Lemma'
p1451
S'russian'
p1452
sS'PartOfSpeech'
p1453
S'JJ'
p1454
sS'CharacterOffsetBegin'
p1455
S'86'
p1456
stp1457
a(S'request'
p1458
(dp1459
S'NamedEntityTag'
p1460
g103
sS'CharacterOffsetEnd'
p1461
S'101'
p1462
sS'Lemma'
p1463
S'request'
p1464
sS'PartOfSpeech'
p1465
S'NN'
p1466
sS'CharacterOffsetBegin'
p1467
S'94'
p1468
stp1469
a(S'to'
p1470
(dp1471
S'NamedEntityTag'
p1472
g103
sS'CharacterOffsetEnd'
p1473
S'104'
p1474
sS'Lemma'
p1475
S'to'
p1476
sS'PartOfSpeech'
p1477
S'TO'
p1478
sS'CharacterOffsetBegin'
p1479
S'102'
p1480
stp1481
a(S'launch'
p1482
(dp1483
S'NamedEntityTag'
p1484
g103
sS'CharacterOffsetEnd'
p1485
S'111'
p1486
sS'Lemma'
p1487
S'launch'
p1488
sS'PartOfSpeech'
p1489
S'VB'
p1490
sS'CharacterOffsetBegin'
p1491
S'105'
p1492
stp1493
a(S'an'
p1494
(dp1495
S'NamedEntityTag'
p1496
g103
sS'CharacterOffsetEnd'
p1497
S'114'
p1498
sS'Lemma'
p1499
g27
sS'PartOfSpeech'
p1500
S'DT'
p1501
sS'CharacterOffsetBegin'
p1502
S'112'
p1503
stp1504
a(S'international'
p1505
(dp1506
S'NamedEntityTag'
p1507
g103
sS'CharacterOffsetEnd'
p1508
S'128'
p1509
sS'Lemma'
p1510
S'international'
p1511
sS'PartOfSpeech'
p1512
S'JJ'
p1513
sS'CharacterOffsetBegin'
p1514
S'115'
p1515
stp1516
a(S'space'
p1517
(dp1518
S'NamedEntityTag'
p1519
g103
sS'CharacterOffsetEnd'
p1520
S'134'
p1521
sS'Lemma'
p1522
S'space'
p1523
sS'PartOfSpeech'
p1524
S'NN'
p1525
sS'CharacterOffsetBegin'
p1526
S'129'
p1527
stp1528
a(S'station'
p1529
(dp1530
S'NamedEntityTag'
p1531
g103
sS'CharacterOffsetEnd'
p1532
S'142'
p1533
sS'Lemma'
p1534
S'station'
p1535
sS'PartOfSpeech'
p1536
S'NN'
p1537
sS'CharacterOffsetBegin'
p1538
S'135'
p1539
stp1540
a(S'into'
p1541
(dp1542
S'NamedEntityTag'
p1543
g103
sS'CharacterOffsetEnd'
p1544
S'147'
p1545
sS'Lemma'
p1546
S'into'
p1547
sS'PartOfSpeech'
p1548
S'IN'
p1549
sS'CharacterOffsetBegin'
p1550
S'143'
p1551
stp1552
a(S'an'
p1553
(dp1554
S'NamedEntityTag'
p1555
g103
sS'CharacterOffsetEnd'
p1556
S'150'
p1557
sS'Lemma'
p1558
g27
sS'PartOfSpeech'
p1559
S'DT'
p1560
sS'CharacterOffsetBegin'
p1561
S'148'
p1562
stp1563
a(S'orbit'
p1564
(dp1565
S'NamedEntityTag'
p1566
g103
sS'CharacterOffsetEnd'
p1567
S'156'
p1568
sS'Lemma'
p1569
S'orbit'
p1570
sS'PartOfSpeech'
p1571
S'NN'
p1572
sS'CharacterOffsetBegin'
p1573
S'151'
p1574
stp1575
a(S'closer'
p1576
(dp1577
S'NamedEntityTag'
p1578
g103
sS'CharacterOffsetEnd'
p1579
S'163'
p1580
sS'Lemma'
p1581
S'closer'
p1582
sS'PartOfSpeech'
p1583
S'RBR'
p1584
sS'CharacterOffsetBegin'
p1585
S'157'
p1586
stp1587
a(S'to'
p1588
(dp1589
S'NamedEntityTag'
p1590
g103
sS'CharacterOffsetEnd'
p1591
S'166'
p1592
sS'Lemma'
p1593
S'to'
p1594
sS'PartOfSpeech'
p1595
S'TO'
p1596
sS'CharacterOffsetBegin'
p1597
S'164'
p1598
stp1599
a(S'Mir'
p1600
(dp1601
S'NamedEntityTag'
p1602
g103
sS'CharacterOffsetEnd'
p1603
S'170'
p1604
sS'Lemma'
p1605
S'mir'
p1606
sS'PartOfSpeech'
p1607
S'NNS'
p1608
sS'CharacterOffsetBegin'
p1609
S'167'
p1610
stp1611
a(g482
(dp1612
S'NamedEntityTag'
p1613
g103
sS'CharacterOffsetEnd'
p1614
S'171'
p1615
sS'Lemma'
p1616
g482
sS'PartOfSpeech'
p1617
g482
sS'CharacterOffsetBegin'
p1618
S'170'
p1619
stp1620
a(S'officials'
p1621
(dp1622
S'NamedEntityTag'
p1623
g103
sS'CharacterOffsetEnd'
p1624
S'181'
p1625
sS'Lemma'
p1626
S'official'
p1627
sS'PartOfSpeech'
p1628
S'NNS'
p1629
sS'CharacterOffsetBegin'
p1630
S'172'
p1631
stp1632
a(S'announced'
p1633
(dp1634
S'NamedEntityTag'
p1635
g103
sS'CharacterOffsetEnd'
p1636
S'191'
p1637
sS'Lemma'
p1638
S'announce'
p1639
sS'PartOfSpeech'
p1640
S'VBD'
p1641
sS'CharacterOffsetBegin'
p1642
S'182'
p1643
stp1644
a(S'Friday'
p1645
(dp1646
S'NormalizedNamedEntityTag'
p1647
S'XXXX-WXX-5'
p1648
sS'Timex'
p1649
S'<TIMEX3 tid="t1" type="DATE" value="XXXX-WXX-5">Friday</TIMEX3>'
p1650
sS'Lemma'
p1651
S'Friday'
p1652
sS'CharacterOffsetEnd'
p1653
S'198'
p1654
sS'PartOfSpeech'
p1655
S'NNP'
p1656
sS'CharacterOffsetBegin'
p1657
S'192'
p1658
sS'NamedEntityTag'
p1659
S'DATE'
p1660
stp1661
a(g233
(dp1662
S'NamedEntityTag'
p1663
g103
sS'CharacterOffsetEnd'
p1664
S'199'
p1665
sS'Lemma'
p1666
g233
sS'PartOfSpeech'
p1667
g233
sS'CharacterOffsetBegin'
p1668
S'198'
p1669
stp1670
asa(dp1671
g7
S'(ROOT (SINV (S (SBAR (IN While) (S (S (VP (VBG putting) (NP (DT the) (JJ new) (NN station)) (ADVP (RBR closer)) (PP (TO to) (NP (NP (NNP Russias) (JJ 12-year-old) (NNS Mir)) (NP (NN station)))))) (VP (MD would) (VP (VB make) (S (NP (PRP it)) (ADJP (JJR easier) (S (VP (TO to) (VP (VB transfer) (NP (NN equipment) (CC and) (NNS supplies)) (PP (IN from) (NP (DT the) (JJ old) (NN outpost))) (PP (TO to) (NP (DT the) (JJ new) (CD one)))))))))))) (, ,) (NP (DT the) (NN request)) (VP (VBD came) (ADJP (RB too) (JJ late) (S (VP (TO to) (VP (VB be) (VP (VBN acted) (PP (IN on))))))))) (, ,) (VP (VBD said)) (NP (NP (NNP Randy) (NNP Brinkley)) (, ,) (NP (NP (NNP NASAs) (NN space) (NN station) (NN program)) (NP (NN manager)))) (. .)))'
p1672
sg9
S'While putting the new station closer to Russias 12-year-old Mir station would make it easier to transfer equipment and supplies from the old outpost to the new one, the request came too late to be acted on, said Randy Brinkley, NASAs space station program manager.'
p1673
sg11
(lp1674
(S'root'
p1675
S'ROOT'
p1676
S'said'
p1677
tp1678
a(S'mark'
p1679
S'make'
p1680
S'While'
p1681
tp1682
a(S'csubj'
p1683
S'make'
p1684
S'putting'
p1685
tp1686
a(S'det'
p1687
S'station'
p1688
S'the'
p1689
tp1690
a(S'amod'
p1691
S'station'
p1692
S'new'
p1693
tp1694
a(S'dobj'
p1695
S'putting'
p1696
S'station'
p1697
tp1698
a(S'advmod'
p1699
S'putting'
p1700
S'closer'
p1701
tp1702
a(S'nn'
p1703
S'Mir'
p1704
S'Russias'
p1705
tp1706
a(S'amod'
p1707
S'Mir'
p1708
S'12-year-old'
p1709
tp1710
a(S'prep_to'
p1711
S'putting'
p1712
S'Mir'
p1713
tp1714
a(S'dep'
p1715
S'Mir'
p1716
S'station'
p1717
tp1718
a(S'aux'
p1719
S'make'
p1720
S'would'
p1721
tp1722
a(S'advcl'
p1723
S'came'
p1724
S'make'
p1725
tp1726
a(S'nsubj'
p1727
S'easier'
p1728
S'it'
p1729
tp1730
a(S'xcomp'
p1731
S'make'
p1732
S'easier'
p1733
tp1734
a(S'aux'
p1735
S'transfer'
p1736
S'to'
p1737
tp1738
a(S'xcomp'
p1739
S'easier'
p1740
S'transfer'
p1741
tp1742
a(S'dobj'
p1743
S'transfer'
p1744
S'equipment'
p1745
tp1746
a(S'conj_and'
p1747
S'equipment'
p1748
S'supplies'
p1749
tp1750
a(S'det'
p1751
S'outpost'
p1752
S'the'
p1753
tp1754
a(S'amod'
p1755
S'outpost'
p1756
S'old'
p1757
tp1758
a(S'prep_from'
p1759
S'transfer'
p1760
S'outpost'
p1761
tp1762
a(S'det'
p1763
S'one'
p1764
S'the'
p1765
tp1766
a(S'amod'
p1767
S'one'
p1768
S'new'
p1769
tp1770
a(S'prep_to'
p1771
S'transfer'
p1772
S'one'
p1773
tp1774
a(S'det'
p1775
S'request'
p1776
S'the'
p1777
tp1778
a(S'nsubj'
p1779
S'came'
p1780
S'request'
p1781
tp1782
a(S'ccomp'
p1783
S'said'
p1784
S'came'
p1785
tp1786
a(S'advmod'
p1787
S'late'
p1788
S'too'
p1789
tp1790
a(S'acomp'
p1791
S'came'
p1792
S'late'
p1793
tp1794
a(S'aux'
p1795
S'acted'
p1796
S'to'
p1797
tp1798
a(S'auxpass'
p1799
S'acted'
p1800
S'be'
p1801
tp1802
a(S'xcomp'
p1803
S'late'
p1804
S'acted'
p1805
tp1806
a(S'prep'
p1807
S'acted'
p1808
S'on'
p1809
tp1810
a(S'nn'
p1811
S'Brinkley'
p1812
S'Randy'
p1813
tp1814
a(S'nsubj'
p1815
S'said'
p1816
S'Brinkley'
p1817
tp1818
a(S'nn'
p1819
S'program'
p1820
S'NASAs'
p1821
tp1822
a(S'nn'
p1823
S'program'
p1824
S'space'
p1825
tp1826
a(S'nn'
p1827
S'program'
p1828
S'station'
p1829
tp1830
a(S'appos'
p1831
S'Brinkley'
p1832
S'program'
p1833
tp1834
a(S'dep'
p1835
S'program'
p1836
S'manager'
p1837
tp1838
asg53
(lp1839
(g1675
S'ROOT-0'
p1840
S'said-40'
p1841
tp1842
a(g1679
S'make-13'
p1843
S'While-1'
p1844
tp1845
a(g1683
S'make-13'
p1846
S'putting-2'
p1847
tp1848
a(g1687
S'station-5'
p1849
S'the-3'
p1850
tp1851
a(g1691
S'station-5'
p1852
S'new-4'
p1853
tp1854
a(g1695
S'putting-2'
p1855
S'station-5'
p1856
tp1857
a(g1699
S'putting-2'
p1858
S'closer-6'
p1859
tp1860
a(g1703
S'Mir-10'
p1861
S'Russias-8'
p1862
tp1863
a(g1707
S'Mir-10'
p1864
S'12-year-old-9'
p1865
tp1866
a(g1711
S'putting-2'
p1867
S'Mir-10'
p1868
tp1869
a(g1715
S'Mir-10'
p1870
S'station-11'
p1871
tp1872
a(g1719
S'make-13'
p1873
S'would-12'
p1874
tp1875
a(g1723
S'came-32'
p1876
S'make-13'
p1877
tp1878
a(g1727
S'easier-15'
p1879
S'it-14'
p1880
tp1881
a(g1731
S'make-13'
p1882
S'easier-15'
p1883
tp1884
a(g1735
S'transfer-17'
p1885
S'to-16'
p1886
tp1887
a(g1739
S'easier-15'
p1888
S'transfer-17'
p1889
tp1890
a(g1743
S'transfer-17'
p1891
S'equipment-18'
p1892
tp1893
a(g1747
S'equipment-18'
p1894
S'supplies-20'
p1895
tp1896
a(g1751
S'outpost-24'
p1897
S'the-22'
p1898
tp1899
a(g1755
S'outpost-24'
p1900
S'old-23'
p1901
tp1902
a(g1759
S'transfer-17'
p1903
S'outpost-24'
p1904
tp1905
a(g1763
S'one-28'
p1906
S'the-26'
p1907
tp1908
a(g1767
S'one-28'
p1909
S'new-27'
p1910
tp1911
a(g1771
S'transfer-17'
p1912
S'one-28'
p1913
tp1914
a(g1775
S'request-31'
p1915
S'the-30'
p1916
tp1917
a(g1779
S'came-32'
p1918
S'request-31'
p1919
tp1920
a(g1783
S'said-40'
p1921
S'came-32'
p1922
tp1923
a(g1787
S'late-34'
p1924
S'too-33'
p1925
tp1926
a(g1791
S'came-32'
p1927
S'late-34'
p1928
tp1929
a(g1795
S'acted-37'
p1930
S'to-35'
p1931
tp1932
a(g1799
S'acted-37'
p1933
S'be-36'
p1934
tp1935
a(g1803
S'late-34'
p1936
S'acted-37'
p1937
tp1938
a(g1807
S'acted-37'
p1939
S'on-38'
p1940
tp1941
a(g1811
S'Brinkley-42'
p1942
S'Randy-41'
p1943
tp1944
a(g1815
S'said-40'
p1945
S'Brinkley-42'
p1946
tp1947
a(g1819
S'program-47'
p1948
S'NASAs-44'
p1949
tp1950
a(g1823
S'program-47'
p1951
S'space-45'
p1952
tp1953
a(g1827
S'program-47'
p1954
S'station-46'
p1955
tp1956
a(g1831
S'Brinkley-42'
p1957
S'program-47'
p1958
tp1959
a(g1835
S'program-47'
p1960
S'manager-48'
p1961
tp1962
asg85
(lp1963
(S'While'
p1964
(dp1965
S'NamedEntityTag'
p1966
g103
sS'CharacterOffsetEnd'
p1967
S'205'
p1968
sS'Lemma'
p1969
S'while'
p1970
sS'PartOfSpeech'
p1971
S'IN'
p1972
sS'CharacterOffsetBegin'
p1973
S'200'
p1974
stp1975
a(S'putting'
p1976
(dp1977
S'NamedEntityTag'
p1978
g103
sS'CharacterOffsetEnd'
p1979
S'213'
p1980
sS'Lemma'
p1981
S'put'
p1982
sS'PartOfSpeech'
p1983
S'VBG'
p1984
sS'CharacterOffsetBegin'
p1985
S'206'
p1986
stp1987
a(S'the'
p1988
(dp1989
S'NamedEntityTag'
p1990
g103
sS'CharacterOffsetEnd'
p1991
S'217'
p1992
sS'Lemma'
p1993
S'the'
p1994
sS'PartOfSpeech'
p1995
S'DT'
p1996
sS'CharacterOffsetBegin'
p1997
S'214'
p1998
stp1999
a(S'new'
p2000
(dp2001
S'NamedEntityTag'
p2002
g103
sS'CharacterOffsetEnd'
p2003
S'221'
p2004
sS'Lemma'
p2005
S'new'
p2006
sS'PartOfSpeech'
p2007
S'JJ'
p2008
sS'CharacterOffsetBegin'
p2009
S'218'
p2010
stp2011
a(S'station'
p2012
(dp2013
S'NamedEntityTag'
p2014
g103
sS'CharacterOffsetEnd'
p2015
S'229'
p2016
sS'Lemma'
p2017
S'station'
p2018
sS'PartOfSpeech'
p2019
S'NN'
p2020
sS'CharacterOffsetBegin'
p2021
S'222'
p2022
stp2023
a(S'closer'
p2024
(dp2025
S'NamedEntityTag'
p2026
g103
sS'CharacterOffsetEnd'
p2027
S'236'
p2028
sS'Lemma'
p2029
S'closer'
p2030
sS'PartOfSpeech'
p2031
S'RBR'
p2032
sS'CharacterOffsetBegin'
p2033
S'230'
p2034
stp2035
a(S'to'
p2036
(dp2037
S'NamedEntityTag'
p2038
g103
sS'CharacterOffsetEnd'
p2039
S'239'
p2040
sS'Lemma'
p2041
S'to'
p2042
sS'PartOfSpeech'
p2043
S'TO'
p2044
sS'CharacterOffsetBegin'
p2045
S'237'
p2046
stp2047
a(S'Russias'
p2048
(dp2049
S'NamedEntityTag'
p2050
g103
sS'CharacterOffsetEnd'
p2051
S'247'
p2052
sS'Lemma'
p2053
S'Russias'
p2054
sS'PartOfSpeech'
p2055
S'NNP'
p2056
sS'CharacterOffsetBegin'
p2057
S'240'
p2058
stp2059
a(S'12-year-old'
p2060
(dp2061
S'NormalizedNamedEntityTag'
p2062
S'P12Y'
p2063
sS'Timex'
p2064
S'<TIMEX3 tid="t2" type="DURATION" value="P12Y">12-year-old</TIMEX3>'
p2065
sS'Lemma'
p2066
S'12-year-old'
p2067
sS'CharacterOffsetEnd'
p2068
S'259'
p2069
sS'PartOfSpeech'
p2070
S'JJ'
p2071
sS'CharacterOffsetBegin'
p2072
S'248'
p2073
sS'NamedEntityTag'
p2074
S'DURATION'
p2075
stp2076
a(S'Mir'
p2077
(dp2078
S'NamedEntityTag'
p2079
S'MISC'
p2080
sS'CharacterOffsetEnd'
p2081
S'263'
p2082
sS'Lemma'
p2083
S'mir'
p2084
sS'PartOfSpeech'
p2085
S'NNS'
p2086
sS'CharacterOffsetBegin'
p2087
S'260'
p2088
stp2089
a(S'station'
p2090
(dp2091
S'NamedEntityTag'
p2092
g103
sS'CharacterOffsetEnd'
p2093
S'271'
p2094
sS'Lemma'
p2095
S'station'
p2096
sS'PartOfSpeech'
p2097
S'NN'
p2098
sS'CharacterOffsetBegin'
p2099
S'264'
p2100
stp2101
a(S'would'
p2102
(dp2103
S'NamedEntityTag'
p2104
g103
sS'CharacterOffsetEnd'
p2105
S'277'
p2106
sS'Lemma'
p2107
S'would'
p2108
sS'PartOfSpeech'
p2109
S'MD'
p2110
sS'CharacterOffsetBegin'
p2111
S'272'
p2112
stp2113
a(S'make'
p2114
(dp2115
S'NamedEntityTag'
p2116
g103
sS'CharacterOffsetEnd'
p2117
S'282'
p2118
sS'Lemma'
p2119
S'make'
p2120
sS'PartOfSpeech'
p2121
S'VB'
p2122
sS'CharacterOffsetBegin'
p2123
S'278'
p2124
stp2125
a(S'it'
p2126
(dp2127
S'NamedEntityTag'
p2128
g103
sS'CharacterOffsetEnd'
p2129
S'285'
p2130
sS'Lemma'
p2131
S'it'
p2132
sS'PartOfSpeech'
p2133
S'PRP'
p2134
sS'CharacterOffsetBegin'
p2135
S'283'
p2136
stp2137
a(S'easier'
p2138
(dp2139
S'NamedEntityTag'
p2140
g103
sS'CharacterOffsetEnd'
p2141
S'292'
p2142
sS'Lemma'
p2143
S'easier'
p2144
sS'PartOfSpeech'
p2145
S'JJR'
p2146
sS'CharacterOffsetBegin'
p2147
S'286'
p2148
stp2149
a(S'to'
p2150
(dp2151
S'NamedEntityTag'
p2152
g103
sS'CharacterOffsetEnd'
p2153
S'295'
p2154
sS'Lemma'
p2155
S'to'
p2156
sS'PartOfSpeech'
p2157
S'TO'
p2158
sS'CharacterOffsetBegin'
p2159
S'293'
p2160
stp2161
a(S'transfer'
p2162
(dp2163
S'NamedEntityTag'
p2164
g103
sS'CharacterOffsetEnd'
p2165
S'304'
p2166
sS'Lemma'
p2167
S'transfer'
p2168
sS'PartOfSpeech'
p2169
S'VB'
p2170
sS'CharacterOffsetBegin'
p2171
S'296'
p2172
stp2173
a(S'equipment'
p2174
(dp2175
S'NamedEntityTag'
p2176
g103
sS'CharacterOffsetEnd'
p2177
S'314'
p2178
sS'Lemma'
p2179
S'equipment'
p2180
sS'PartOfSpeech'
p2181
S'NN'
p2182
sS'CharacterOffsetBegin'
p2183
S'305'
p2184
stp2185
a(S'and'
p2186
(dp2187
S'NamedEntityTag'
p2188
g103
sS'CharacterOffsetEnd'
p2189
S'318'
p2190
sS'Lemma'
p2191
S'and'
p2192
sS'PartOfSpeech'
p2193
S'CC'
p2194
sS'CharacterOffsetBegin'
p2195
S'315'
p2196
stp2197
a(S'supplies'
p2198
(dp2199
S'NamedEntityTag'
p2200
g103
sS'CharacterOffsetEnd'
p2201
S'327'
p2202
sS'Lemma'
p2203
S'supplies'
p2204
sS'PartOfSpeech'
p2205
S'NNS'
p2206
sS'CharacterOffsetBegin'
p2207
S'319'
p2208
stp2209
a(S'from'
p2210
(dp2211
S'NamedEntityTag'
p2212
g103
sS'CharacterOffsetEnd'
p2213
S'332'
p2214
sS'Lemma'
p2215
S'from'
p2216
sS'PartOfSpeech'
p2217
S'IN'
p2218
sS'CharacterOffsetBegin'
p2219
S'328'
p2220
stp2221
a(S'the'
p2222
(dp2223
S'NamedEntityTag'
p2224
g103
sS'CharacterOffsetEnd'
p2225
S'336'
p2226
sS'Lemma'
p2227
S'the'
p2228
sS'PartOfSpeech'
p2229
S'DT'
p2230
sS'CharacterOffsetBegin'
p2231
S'333'
p2232
stp2233
a(S'old'
p2234
(dp2235
S'NamedEntityTag'
p2236
g103
sS'CharacterOffsetEnd'
p2237
S'340'
p2238
sS'Lemma'
p2239
S'old'
p2240
sS'PartOfSpeech'
p2241
S'JJ'
p2242
sS'CharacterOffsetBegin'
p2243
S'337'
p2244
stp2245
a(S'outpost'
p2246
(dp2247
S'NamedEntityTag'
p2248
g103
sS'CharacterOffsetEnd'
p2249
S'348'
p2250
sS'Lemma'
p2251
S'outpost'
p2252
sS'PartOfSpeech'
p2253
S'NN'
p2254
sS'CharacterOffsetBegin'
p2255
S'341'
p2256
stp2257
a(S'to'
p2258
(dp2259
S'NamedEntityTag'
p2260
g103
sS'CharacterOffsetEnd'
p2261
S'351'
p2262
sS'Lemma'
p2263
S'to'
p2264
sS'PartOfSpeech'
p2265
S'TO'
p2266
sS'CharacterOffsetBegin'
p2267
S'349'
p2268
stp2269
a(S'the'
p2270
(dp2271
S'NamedEntityTag'
p2272
g103
sS'CharacterOffsetEnd'
p2273
S'355'
p2274
sS'Lemma'
p2275
S'the'
p2276
sS'PartOfSpeech'
p2277
S'DT'
p2278
sS'CharacterOffsetBegin'
p2279
S'352'
p2280
stp2281
a(S'new'
p2282
(dp2283
S'NamedEntityTag'
p2284
g103
sS'CharacterOffsetEnd'
p2285
S'359'
p2286
sS'Lemma'
p2287
S'new'
p2288
sS'PartOfSpeech'
p2289
S'JJ'
p2290
sS'CharacterOffsetBegin'
p2291
S'356'
p2292
stp2293
a(S'one'
p2294
(dp2295
S'NormalizedNamedEntityTag'
p2296
S'1.0'
p2297
sS'Lemma'
p2298
S'one'
p2299
sS'CharacterOffsetEnd'
p2300
S'363'
p2301
sS'PartOfSpeech'
p2302
S'CD'
p2303
sS'CharacterOffsetBegin'
p2304
S'360'
p2305
sS'NamedEntityTag'
p2306
S'NUMBER'
p2307
stp2308
a(g482
(dp2309
S'NamedEntityTag'
p2310
g103
sS'CharacterOffsetEnd'
p2311
S'364'
p2312
sS'Lemma'
p2313
g482
sS'PartOfSpeech'
p2314
g482
sS'CharacterOffsetBegin'
p2315
S'363'
p2316
stp2317
a(S'the'
p2318
(dp2319
S'NamedEntityTag'
p2320
g103
sS'CharacterOffsetEnd'
p2321
S'368'
p2322
sS'Lemma'
p2323
S'the'
p2324
sS'PartOfSpeech'
p2325
S'DT'
p2326
sS'CharacterOffsetBegin'
p2327
S'365'
p2328
stp2329
a(S'request'
p2330
(dp2331
S'NamedEntityTag'
p2332
g103
sS'CharacterOffsetEnd'
p2333
S'376'
p2334
sS'Lemma'
p2335
S'request'
p2336
sS'PartOfSpeech'
p2337
S'NN'
p2338
sS'CharacterOffsetBegin'
p2339
S'369'
p2340
stp2341
a(S'came'
p2342
(dp2343
S'NamedEntityTag'
p2344
g103
sS'CharacterOffsetEnd'
p2345
S'381'
p2346
sS'Lemma'
p2347
S'come'
p2348
sS'PartOfSpeech'
p2349
S'VBD'
p2350
sS'CharacterOffsetBegin'
p2351
S'377'
p2352
stp2353
a(S'too'
p2354
(dp2355
S'NamedEntityTag'
p2356
g103
sS'CharacterOffsetEnd'
p2357
S'385'
p2358
sS'Lemma'
p2359
S'too'
p2360
sS'PartOfSpeech'
p2361
S'RB'
p2362
sS'CharacterOffsetBegin'
p2363
S'382'
p2364
stp2365
a(S'late'
p2366
(dp2367
S'NamedEntityTag'
p2368
g103
sS'CharacterOffsetEnd'
p2369
S'390'
p2370
sS'Lemma'
p2371
S'late'
p2372
sS'PartOfSpeech'
p2373
S'JJ'
p2374
sS'CharacterOffsetBegin'
p2375
S'386'
p2376
stp2377
a(S'to'
p2378
(dp2379
S'NamedEntityTag'
p2380
g103
sS'CharacterOffsetEnd'
p2381
S'393'
p2382
sS'Lemma'
p2383
S'to'
p2384
sS'PartOfSpeech'
p2385
S'TO'
p2386
sS'CharacterOffsetBegin'
p2387
S'391'
p2388
stp2389
a(S'be'
p2390
(dp2391
S'NamedEntityTag'
p2392
g103
sS'CharacterOffsetEnd'
p2393
S'396'
p2394
sS'Lemma'
p2395
S'be'
p2396
sS'PartOfSpeech'
p2397
S'VB'
p2398
sS'CharacterOffsetBegin'
p2399
S'394'
p2400
stp2401
a(S'acted'
p2402
(dp2403
S'NamedEntityTag'
p2404
g103
sS'CharacterOffsetEnd'
p2405
S'402'
p2406
sS'Lemma'
p2407
S'act'
p2408
sS'PartOfSpeech'
p2409
S'VBN'
p2410
sS'CharacterOffsetBegin'
p2411
S'397'
p2412
stp2413
a(S'on'
p2414
(dp2415
S'NamedEntityTag'
p2416
g103
sS'CharacterOffsetEnd'
p2417
S'405'
p2418
sS'Lemma'
p2419
S'on'
p2420
sS'PartOfSpeech'
p2421
S'IN'
p2422
sS'CharacterOffsetBegin'
p2423
S'403'
p2424
stp2425
a(g482
(dp2426
S'NamedEntityTag'
p2427
g103
sS'CharacterOffsetEnd'
p2428
S'406'
p2429
sS'Lemma'
p2430
g482
sS'PartOfSpeech'
p2431
g482
sS'CharacterOffsetBegin'
p2432
S'405'
p2433
stp2434
a(S'said'
p2435
(dp2436
S'NamedEntityTag'
p2437
g103
sS'CharacterOffsetEnd'
p2438
S'411'
p2439
sS'Lemma'
p2440
S'say'
p2441
sS'PartOfSpeech'
p2442
S'VBD'
p2443
sS'CharacterOffsetBegin'
p2444
S'407'
p2445
stp2446
a(S'Randy'
p2447
(dp2448
S'NamedEntityTag'
p2449
S'PERSON'
p2450
sS'CharacterOffsetEnd'
p2451
S'417'
p2452
sS'Lemma'
p2453
S'Randy'
p2454
sS'PartOfSpeech'
p2455
S'NNP'
p2456
sS'CharacterOffsetBegin'
p2457
S'412'
p2458
stp2459
a(S'Brinkley'
p2460
(dp2461
S'NamedEntityTag'
p2462
S'PERSON'
p2463
sS'CharacterOffsetEnd'
p2464
S'426'
p2465
sS'Lemma'
p2466
S'Brinkley'
p2467
sS'PartOfSpeech'
p2468
S'NNP'
p2469
sS'CharacterOffsetBegin'
p2470
S'418'
p2471
stp2472
a(g482
(dp2473
S'NamedEntityTag'
p2474
g103
sS'CharacterOffsetEnd'
p2475
S'427'
p2476
sS'Lemma'
p2477
g482
sS'PartOfSpeech'
p2478
g482
sS'CharacterOffsetBegin'
p2479
S'426'
p2480
stp2481
a(S'NASAs'
p2482
(dp2483
S'NamedEntityTag'
p2484
g103
sS'CharacterOffsetEnd'
p2485
S'433'
p2486
sS'Lemma'
p2487
S'NASAs'
p2488
sS'PartOfSpeech'
p2489
S'NNP'
p2490
sS'CharacterOffsetBegin'
p2491
S'428'
p2492
stp2493
a(S'space'
p2494
(dp2495
S'NamedEntityTag'
p2496
g103
sS'CharacterOffsetEnd'
p2497
S'439'
p2498
sS'Lemma'
p2499
S'space'
p2500
sS'PartOfSpeech'
p2501
S'NN'
p2502
sS'CharacterOffsetBegin'
p2503
S'434'
p2504
stp2505
a(S'station'
p2506
(dp2507
S'NamedEntityTag'
p2508
g103
sS'CharacterOffsetEnd'
p2509
S'447'
p2510
sS'Lemma'
p2511
S'station'
p2512
sS'PartOfSpeech'
p2513
S'NN'
p2514
sS'CharacterOffsetBegin'
p2515
S'440'
p2516
stp2517
a(S'program'
p2518
(dp2519
S'NamedEntityTag'
p2520
g103
sS'CharacterOffsetEnd'
p2521
S'455'
p2522
sS'Lemma'
p2523
S'program'
p2524
sS'PartOfSpeech'
p2525
S'NN'
p2526
sS'CharacterOffsetBegin'
p2527
S'448'
p2528
stp2529
a(S'manager'
p2530
(dp2531
S'NamedEntityTag'
p2532
g103
sS'CharacterOffsetEnd'
p2533
S'463'
p2534
sS'Lemma'
p2535
S'manager'
p2536
sS'PartOfSpeech'
p2537
S'NN'
p2538
sS'CharacterOffsetBegin'
p2539
S'456'
p2540
stp2541
a(g233
(dp2542
S'NamedEntityTag'
p2543
g103
sS'CharacterOffsetEnd'
p2544
S'464'
p2545
sS'Lemma'
p2546
g233
sS'PartOfSpeech'
p2547
g233
sS'CharacterOffsetBegin'
p2548
S'463'
p2549
stp2550
asa(dp2551
g7
S'(ROOT (S (NP (NNP NASA)) (VP (VBD was) (VP (VBN surprised) (NP-TMP (JJ last) (NN week)) (SBAR (WHADVP (WRB when)) (S (NP (NP (NNP Russias)) (NP (JJ prime) (NN station) (NN contractor))) (VP (VBD proposed) (NP (DT the) (JJ orbital) (NN position) (NN change)) (PP (NP (RB just) (CD two-and-a-half) (NNS weeks)) (IN before) (NP (NP (NN launch)) (PP (IN of) (NP (NP (DT the) (JJ first) (NN part)) (PP (IN of) (NP (DT the) (JJ new) (NN station)))))))))))) (. .)))'
p2552
sg9
S'NASA was surprised last week when Russias prime station contractor proposed the orbital position change just two-and-a-half weeks before launch of the first part of the new station.'
p2553
sg11
(lp2554
(S'root'
p2555
S'ROOT'
p2556
S'surprised'
p2557
tp2558
a(S'nsubjpass'
p2559
S'surprised'
p2560
S'NASA'
p2561
tp2562
a(S'auxpass'
p2563
S'surprised'
p2564
S'was'
p2565
tp2566
a(S'amod'
p2567
S'week'
p2568
S'last'
p2569
tp2570
a(S'tmod'
p2571
S'surprised'
p2572
S'week'
p2573
tp2574
a(S'advmod'
p2575
S'proposed'
p2576
S'when'
p2577
tp2578
a(S'nsubj'
p2579
S'proposed'
p2580
S'Russias'
p2581
tp2582
a(S'amod'
p2583
S'contractor'
p2584
S'prime'
p2585
tp2586
a(S'nn'
p2587
S'contractor'
p2588
S'station'
p2589
tp2590
a(S'dep'
p2591
S'Russias'
p2592
S'contractor'
p2593
tp2594
a(S'advcl'
p2595
S'surprised'
p2596
S'proposed'
p2597
tp2598
a(S'det'
p2599
S'change'
p2600
S'the'
p2601
tp2602
a(S'amod'
p2603
S'change'
p2604
S'orbital'
p2605
tp2606
a(S'nn'
p2607
S'change'
p2608
S'position'
p2609
tp2610
a(S'dobj'
p2611
S'proposed'
p2612
S'change'
p2613
tp2614
a(S'advmod'
p2615
S'weeks'
p2616
S'just'
p2617
tp2618
a(S'num'
p2619
S'weeks'
p2620
S'two-and-a-half'
p2621
tp2622
a(S'npadvmod'
p2623
S'proposed'
p2624
S'weeks'
p2625
tp2626
a(S'prep_before'
p2627
S'proposed'
p2628
S'launch'
p2629
tp2630
a(S'det'
p2631
S'part'
p2632
S'the'
p2633
tp2634
a(S'amod'
p2635
S'part'
p2636
S'first'
p2637
tp2638
a(S'prep_of'
p2639
S'launch'
p2640
S'part'
p2641
tp2642
a(S'det'
p2643
S'station'
p2644
S'the'
p2645
tp2646
a(S'amod'
p2647
S'station'
p2648
S'new'
p2649
tp2650
a(S'prep_of'
p2651
S'part'
p2652
S'station'
p2653
tp2654
asg53
(lp2655
(g2555
S'ROOT-0'
p2656
S'surprised-3'
p2657
tp2658
a(g2559
S'surprised-3'
p2659
S'NASA-1'
p2660
tp2661
a(g2563
S'surprised-3'
p2662
S'was-2'
p2663
tp2664
a(g2567
S'week-5'
p2665
S'last-4'
p2666
tp2667
a(g2571
S'surprised-3'
p2668
S'week-5'
p2669
tp2670
a(g2575
S'proposed-11'
p2671
S'when-6'
p2672
tp2673
a(g2579
S'proposed-11'
p2674
S'Russias-7'
p2675
tp2676
a(g2583
S'contractor-10'
p2677
S'prime-8'
p2678
tp2679
a(g2587
S'contractor-10'
p2680
S'station-9'
p2681
tp2682
a(g2591
S'Russias-7'
p2683
S'contractor-10'
p2684
tp2685
a(g2595
S'surprised-3'
p2686
S'proposed-11'
p2687
tp2688
a(g2599
S'change-15'
p2689
S'the-12'
p2690
tp2691
a(g2603
S'change-15'
p2692
S'orbital-13'
p2693
tp2694
a(g2607
S'change-15'
p2695
S'position-14'
p2696
tp2697
a(g2611
S'proposed-11'
p2698
S'change-15'
p2699
tp2700
a(g2615
S'weeks-18'
p2701
S'just-16'
p2702
tp2703
a(g2619
S'weeks-18'
p2704
S'two-and-a-half-17'
p2705
tp2706
a(g2623
S'proposed-11'
p2707
S'weeks-18'
p2708
tp2709
a(g2627
S'proposed-11'
p2710
S'launch-20'
p2711
tp2712
a(g2631
S'part-24'
p2713
S'the-22'
p2714
tp2715
a(g2635
S'part-24'
p2716
S'first-23'
p2717
tp2718
a(g2639
S'launch-20'
p2719
S'part-24'
p2720
tp2721
a(g2643
S'station-28'
p2722
S'the-26'
p2723
tp2724
a(g2647
S'station-28'
p2725
S'new-27'
p2726
tp2727
a(g2651
S'part-24'
p2728
S'station-28'
p2729
tp2730
asg85
(lp2731
(S'NASA'
p2732
(dp2733
S'NamedEntityTag'
p2734
S'ORGANIZATION'
p2735
sS'CharacterOffsetEnd'
p2736
S'469'
p2737
sS'Lemma'
p2738
S'NASA'
p2739
sS'PartOfSpeech'
p2740
S'NNP'
p2741
sS'CharacterOffsetBegin'
p2742
S'465'
p2743
stp2744
a(S'was'
p2745
(dp2746
S'NamedEntityTag'
p2747
g103
sS'CharacterOffsetEnd'
p2748
S'473'
p2749
sS'Lemma'
p2750
S'be'
p2751
sS'PartOfSpeech'
p2752
S'VBD'
p2753
sS'CharacterOffsetBegin'
p2754
S'470'
p2755
stp2756
a(S'surprised'
p2757
(dp2758
S'NamedEntityTag'
p2759
g103
sS'CharacterOffsetEnd'
p2760
S'483'
p2761
sS'Lemma'
p2762
S'surprise'
p2763
sS'PartOfSpeech'
p2764
S'VBN'
p2765
sS'CharacterOffsetBegin'
p2766
S'474'
p2767
stp2768
a(S'last'
p2769
(dp2770
S'NormalizedNamedEntityTag'
p2771
S'THIS'
p2772
sS'Timex'
p2773
S'<TIMEX3 alt_value="THIS P1W OFFSET P-1W" anchorTimeID="t4" temporalFunction="true" tid="t3" type="DATE" valueFromFunction="tf0">last week</TIMEX3>'
p2774
sS'Lemma'
p2775
S'last'
p2776
sS'CharacterOffsetEnd'
p2777
S'488'
p2778
sS'PartOfSpeech'
p2779
S'JJ'
p2780
sS'CharacterOffsetBegin'
p2781
S'484'
p2782
sS'NamedEntityTag'
p2783
S'DATE'
p2784
stp2785
a(S'week'
p2786
(dp2787
S'NormalizedNamedEntityTag'
p2788
S'THIS'
p2789
sS'Timex'
p2790
S'<TIMEX3 alt_value="THIS P1W OFFSET P-1W" anchorTimeID="t4" temporalFunction="true" tid="t3" type="DATE" valueFromFunction="tf0">last week</TIMEX3>'
p2791
sS'Lemma'
p2792
S'week'
p2793
sS'CharacterOffsetEnd'
p2794
S'493'
p2795
sS'PartOfSpeech'
p2796
S'NN'
p2797
sS'CharacterOffsetBegin'
p2798
S'489'
p2799
sS'NamedEntityTag'
p2800
S'DATE'
p2801
stp2802
a(S'when'
p2803
(dp2804
S'NamedEntityTag'
p2805
g103
sS'CharacterOffsetEnd'
p2806
S'498'
p2807
sS'Lemma'
p2808
S'when'
p2809
sS'PartOfSpeech'
p2810
S'WRB'
p2811
sS'CharacterOffsetBegin'
p2812
S'494'
p2813
stp2814
a(S'Russias'
p2815
(dp2816
S'NamedEntityTag'
p2817
S'MISC'
p2818
sS'CharacterOffsetEnd'
p2819
S'506'
p2820
sS'Lemma'
p2821
S'Russias'
p2822
sS'PartOfSpeech'
p2823
S'NNP'
p2824
sS'CharacterOffsetBegin'
p2825
S'499'
p2826
stp2827
a(S'prime'
p2828
(dp2829
S'NamedEntityTag'
p2830
g103
sS'CharacterOffsetEnd'
p2831
S'512'
p2832
sS'Lemma'
p2833
S'prime'
p2834
sS'PartOfSpeech'
p2835
S'JJ'
p2836
sS'CharacterOffsetBegin'
p2837
S'507'
p2838
stp2839
a(S'station'
p2840
(dp2841
S'NamedEntityTag'
p2842
g103
sS'CharacterOffsetEnd'
p2843
S'520'
p2844
sS'Lemma'
p2845
S'station'
p2846
sS'PartOfSpeech'
p2847
S'NN'
p2848
sS'CharacterOffsetBegin'
p2849
S'513'
p2850
stp2851
a(S'contractor'
p2852
(dp2853
S'NamedEntityTag'
p2854
g103
sS'CharacterOffsetEnd'
p2855
S'531'
p2856
sS'Lemma'
p2857
S'contractor'
p2858
sS'PartOfSpeech'
p2859
S'NN'
p2860
sS'CharacterOffsetBegin'
p2861
S'521'
p2862
stp2863
a(S'proposed'
p2864
(dp2865
S'NamedEntityTag'
p2866
g103
sS'CharacterOffsetEnd'
p2867
S'540'
p2868
sS'Lemma'
p2869
S'propose'
p2870
sS'PartOfSpeech'
p2871
S'VBD'
p2872
sS'CharacterOffsetBegin'
p2873
S'532'
p2874
stp2875
a(S'the'
p2876
(dp2877
S'NamedEntityTag'
p2878
g103
sS'CharacterOffsetEnd'
p2879
S'544'
p2880
sS'Lemma'
p2881
S'the'
p2882
sS'PartOfSpeech'
p2883
S'DT'
p2884
sS'CharacterOffsetBegin'
p2885
S'541'
p2886
stp2887
a(S'orbital'
p2888
(dp2889
S'NamedEntityTag'
p2890
g103
sS'CharacterOffsetEnd'
p2891
S'552'
p2892
sS'Lemma'
p2893
S'orbital'
p2894
sS'PartOfSpeech'
p2895
S'JJ'
p2896
sS'CharacterOffsetBegin'
p2897
S'545'
p2898
stp2899
a(S'position'
p2900
(dp2901
S'NamedEntityTag'
p2902
g103
sS'CharacterOffsetEnd'
p2903
S'561'
p2904
sS'Lemma'
p2905
S'position'
p2906
sS'PartOfSpeech'
p2907
S'NN'
p2908
sS'CharacterOffsetBegin'
p2909
S'553'
p2910
stp2911
a(S'change'
p2912
(dp2913
S'NamedEntityTag'
p2914
g103
sS'CharacterOffsetEnd'
p2915
S'568'
p2916
sS'Lemma'
p2917
S'change'
p2918
sS'PartOfSpeech'
p2919
S'NN'
p2920
sS'CharacterOffsetBegin'
p2921
S'562'
p2922
stp2923
a(S'just'
p2924
(dp2925
S'NamedEntityTag'
p2926
g103
sS'CharacterOffsetEnd'
p2927
S'573'
p2928
sS'Lemma'
p2929
S'just'
p2930
sS'PartOfSpeech'
p2931
S'RB'
p2932
sS'CharacterOffsetBegin'
p2933
S'569'
p2934
stp2935
a(S'two-and-a-half'
p2936
(dp2937
S'NormalizedNamedEntityTag'
p2938
S'2.0'
p2939
sS'Lemma'
p2940
S'two-and-a-half'
p2941
sS'CharacterOffsetEnd'
p2942
S'588'
p2943
sS'PartOfSpeech'
p2944
S'CD'
p2945
sS'CharacterOffsetBegin'
p2946
S'574'
p2947
sS'NamedEntityTag'
p2948
S'NUMBER'
p2949
stp2950
a(S'weeks'
p2951
(dp2952
S'NormalizedNamedEntityTag'
p2953
S'PXW'
p2954
sS'Timex'
p2955
S'<TIMEX3 tid="t5" type="DURATION" value="PXW">weeks</TIMEX3>'
p2956
sS'Lemma'
p2957
S'week'
p2958
sS'CharacterOffsetEnd'
p2959
S'594'
p2960
sS'PartOfSpeech'
p2961
S'NNS'
p2962
sS'CharacterOffsetBegin'
p2963
S'589'
p2964
sS'NamedEntityTag'
p2965
S'DURATION'
p2966
stp2967
a(S'before'
p2968
(dp2969
S'NamedEntityTag'
p2970
g103
sS'CharacterOffsetEnd'
p2971
S'601'
p2972
sS'Lemma'
p2973
S'before'
p2974
sS'PartOfSpeech'
p2975
S'IN'
p2976
sS'CharacterOffsetBegin'
p2977
S'595'
p2978
stp2979
a(S'launch'
p2980
(dp2981
S'NamedEntityTag'
p2982
g103
sS'CharacterOffsetEnd'
p2983
S'608'
p2984
sS'Lemma'
p2985
S'launch'
p2986
sS'PartOfSpeech'
p2987
S'NN'
p2988
sS'CharacterOffsetBegin'
p2989
S'602'
p2990
stp2991
a(S'of'
p2992
(dp2993
S'NamedEntityTag'
p2994
g103
sS'CharacterOffsetEnd'
p2995
S'611'
p2996
sS'Lemma'
p2997
S'of'
p2998
sS'PartOfSpeech'
p2999
S'IN'
p3000
sS'CharacterOffsetBegin'
p3001
S'609'
p3002
stp3003
a(S'the'
p3004
(dp3005
S'NamedEntityTag'
p3006
g103
sS'CharacterOffsetEnd'
p3007
S'615'
p3008
sS'Lemma'
p3009
S'the'
p3010
sS'PartOfSpeech'
p3011
S'DT'
p3012
sS'CharacterOffsetBegin'
p3013
S'612'
p3014
stp3015
a(S'first'
p3016
(dp3017
S'NormalizedNamedEntityTag'
p3018
S'1.0'
p3019
sS'Lemma'
p3020
S'first'
p3021
sS'CharacterOffsetEnd'
p3022
S'621'
p3023
sS'PartOfSpeech'
p3024
S'JJ'
p3025
sS'CharacterOffsetBegin'
p3026
S'616'
p3027
sS'NamedEntityTag'
p3028
S'ORDINAL'
p3029
stp3030
a(S'part'
p3031
(dp3032
S'NamedEntityTag'
p3033
g103
sS'CharacterOffsetEnd'
p3034
S'626'
p3035
sS'Lemma'
p3036
S'part'
p3037
sS'PartOfSpeech'
p3038
S'NN'
p3039
sS'CharacterOffsetBegin'
p3040
S'622'
p3041
stp3042
a(S'of'
p3043
(dp3044
S'NamedEntityTag'
p3045
g103
sS'CharacterOffsetEnd'
p3046
S'629'
p3047
sS'Lemma'
p3048
S'of'
p3049
sS'PartOfSpeech'
p3050
S'IN'
p3051
sS'CharacterOffsetBegin'
p3052
S'627'
p3053
stp3054
a(S'the'
p3055
(dp3056
S'NamedEntityTag'
p3057
g103
sS'CharacterOffsetEnd'
p3058
S'633'
p3059
sS'Lemma'
p3060
S'the'
p3061
sS'PartOfSpeech'
p3062
S'DT'
p3063
sS'CharacterOffsetBegin'
p3064
S'630'
p3065
stp3066
a(S'new'
p3067
(dp3068
S'NamedEntityTag'
p3069
g103
sS'CharacterOffsetEnd'
p3070
S'637'
p3071
sS'Lemma'
p3072
S'new'
p3073
sS'PartOfSpeech'
p3074
S'JJ'
p3075
sS'CharacterOffsetBegin'
p3076
S'634'
p3077
stp3078
a(S'station'
p3079
(dp3080
S'NamedEntityTag'
p3081
g103
sS'CharacterOffsetEnd'
p3082
S'645'
p3083
sS'Lemma'
p3084
S'station'
p3085
sS'PartOfSpeech'
p3086
S'NN'
p3087
sS'CharacterOffsetBegin'
p3088
S'638'
p3089
stp3090
a(g233
(dp3091
S'NamedEntityTag'
p3092
g103
sS'CharacterOffsetEnd'
p3093
S'646'
p3094
sS'Lemma'
p3095
g233
sS'PartOfSpeech'
p3096
g233
sS'CharacterOffsetBegin'
p3097
S'645'
p3098
stp3099
asa(dp3100
g7
S'(ROOT (S (S (VP (VBG Delaying) (NP (DT the) (NNP Nov) (CD 20) (NN flight)) (PP (IN by) (NP (CD 10) (NNS hours))) (S (VP (TO to) (VP (VB match) (SBAR (S (NP (DT the) (NNS orbits)) (VP (VP (MD would) (VP (VB have) (VP (VBN forced) (NP (JJ similar) (NNS shifts)) (PP (IN in) (NP (DT the) (JJ subsequent) (NN assembly) (NNS flights)))))) (, ,) (CC and) (VP (VBD resulted) (PP (IN in) (NP (ADJP (RB potentially) (JJ unfavorable)) (NN sun) (NNS angles))) (PP (IN on) (NP (DT the) (JJ solar-powered) (NN station)))))))))))) (, ,) (NP (NNS engineers)) (VP (VBD said)) (. .)))'
p3101
sg9
S'Delaying the Nov 20 flight by 10 hours to match the orbits would have forced similar shifts in the subsequent assembly flights, and resulted in potentially unfavorable sun angles on the solar-powered station, engineers said.'
p3102
sg11
(lp3103
(S'root'
p3104
S'ROOT'
p3105
S'said'
p3106
tp3107
a(S'partmod'
p3108
S'said'
p3109
S'Delaying'
p3110
tp3111
a(S'det'
p3112
S'flight'
p3113
S'the'
p3114
tp3115
a(S'nn'
p3116
S'flight'
p3117
S'Nov'
p3118
tp3119
a(S'num'
p3120
S'flight'
p3121
S'20'
p3122
tp3123
a(S'dobj'
p3124
S'Delaying'
p3125
S'flight'
p3126
tp3127
a(S'num'
p3128
S'hours'
p3129
S'10'
p3130
tp3131
a(S'agent'
p3132
S'Delaying'
p3133
S'hours'
p3134
tp3135
a(S'aux'
p3136
S'match'
p3137
S'to'
p3138
tp3139
a(S'xcomp'
p3140
S'Delaying'
p3141
S'match'
p3142
tp3143
a(S'det'
p3144
S'orbits'
p3145
S'the'
p3146
tp3147
a(S'nsubj'
p3148
S'forced'
p3149
S'orbits'
p3150
tp3151
a(S'aux'
p3152
S'forced'
p3153
S'would'
p3154
tp3155
a(S'aux'
p3156
S'forced'
p3157
S'have'
p3158
tp3159
a(S'ccomp'
p3160
S'match'
p3161
S'forced'
p3162
tp3163
a(S'amod'
p3164
S'shifts'
p3165
S'similar'
p3166
tp3167
a(S'dobj'
p3168
S'forced'
p3169
S'shifts'
p3170
tp3171
a(S'det'
p3172
S'flights'
p3173
S'the'
p3174
tp3175
a(S'amod'
p3176
S'flights'
p3177
S'subsequent'
p3178
tp3179
a(S'nn'
p3180
S'flights'
p3181
S'assembly'
p3182
tp3183
a(S'prep_in'
p3184
S'forced'
p3185
S'flights'
p3186
tp3187
a(S'conj_and'
p3188
S'forced'
p3189
S'resulted'
p3190
tp3191
a(S'advmod'
p3192
S'unfavorable'
p3193
S'potentially'
p3194
tp3195
a(S'amod'
p3196
S'angles'
p3197
S'unfavorable'
p3198
tp3199
a(S'nn'
p3200
S'angles'
p3201
S'sun'
p3202
tp3203
a(S'prep_in'
p3204
S'resulted'
p3205
S'angles'
p3206
tp3207
a(S'det'
p3208
S'station'
p3209
S'the'
p3210
tp3211
a(S'amod'
p3212
S'station'
p3213
S'solar-powered'
p3214
tp3215
a(S'prep_on'
p3216
S'resulted'
p3217
S'station'
p3218
tp3219
a(S'nsubj'
p3220
S'said'
p3221
S'engineers'
p3222
tp3223
asg53
(lp3224
(g3104
S'ROOT-0'
p3225
S'said-37'
p3226
tp3227
a(g3108
S'said-37'
p3228
S'Delaying-1'
p3229
tp3230
a(g3112
S'flight-5'
p3231
S'the-2'
p3232
tp3233
a(g3116
S'flight-5'
p3234
S'Nov-3'
p3235
tp3236
a(g3120
S'flight-5'
p3237
S'20-4'
p3238
tp3239
a(g3124
S'Delaying-1'
p3240
S'flight-5'
p3241
tp3242
a(g3128
S'hours-8'
p3243
S'10-7'
p3244
tp3245
a(g3132
S'Delaying-1'
p3246
S'hours-8'
p3247
tp3248
a(g3136
S'match-10'
p3249
S'to-9'
p3250
tp3251
a(g3140
S'Delaying-1'
p3252
S'match-10'
p3253
tp3254
a(g3144
S'orbits-12'
p3255
S'the-11'
p3256
tp3257
a(g3148
S'forced-15'
p3258
S'orbits-12'
p3259
tp3260
a(g3152
S'forced-15'
p3261
S'would-13'
p3262
tp3263
a(g3156
S'forced-15'
p3264
S'have-14'
p3265
tp3266
a(g3160
S'match-10'
p3267
S'forced-15'
p3268
tp3269
a(g3164
S'shifts-17'
p3270
S'similar-16'
p3271
tp3272
a(g3168
S'forced-15'
p3273
S'shifts-17'
p3274
tp3275
a(g3172
S'flights-22'
p3276
S'the-19'
p3277
tp3278
a(g3176
S'flights-22'
p3279
S'subsequent-20'
p3280
tp3281
a(g3180
S'flights-22'
p3282
S'assembly-21'
p3283
tp3284
a(g3184
S'forced-15'
p3285
S'flights-22'
p3286
tp3287
a(g3188
S'forced-15'
p3288
S'resulted-25'
p3289
tp3290
a(g3192
S'unfavorable-28'
p3291
S'potentially-27'
p3292
tp3293
a(g3196
S'angles-30'
p3294
S'unfavorable-28'
p3295
tp3296
a(g3200
S'angles-30'
p3297
S'sun-29'
p3298
tp3299
a(g3204
S'resulted-25'
p3300
S'angles-30'
p3301
tp3302
a(g3208
S'station-34'
p3303
S'the-32'
p3304
tp3305
a(g3212
S'station-34'
p3306
S'solar-powered-33'
p3307
tp3308
a(g3216
S'resulted-25'
p3309
S'station-34'
p3310
tp3311
a(g3220
S'said-37'
p3312
S'engineers-36'
p3313
tp3314
asg85
(lp3315
(S'Delaying'
p3316
(dp3317
S'NamedEntityTag'
p3318
g103
sS'CharacterOffsetEnd'
p3319
S'655'
p3320
sS'Lemma'
p3321
S'delay'
p3322
sS'PartOfSpeech'
p3323
S'VBG'
p3324
sS'CharacterOffsetBegin'
p3325
S'647'
p3326
stp3327
a(S'the'
p3328
(dp3329
S'NamedEntityTag'
p3330
g103
sS'CharacterOffsetEnd'
p3331
S'659'
p3332
sS'Lemma'
p3333
S'the'
p3334
sS'PartOfSpeech'
p3335
S'DT'
p3336
sS'CharacterOffsetBegin'
p3337
S'656'
p3338
stp3339
a(S'Nov'
p3340
(dp3341
S'NormalizedNamedEntityTag'
p3342
S'XXXX-11-20'
p3343
sS'Timex'
p3344
S'<TIMEX3 tid="t6" type="DATE" value="XXXX-11-20">Nov 20</TIMEX3>'
p3345
sS'Lemma'
p3346
S'Nov'
p3347
sS'CharacterOffsetEnd'
p3348
S'663'
p3349
sS'PartOfSpeech'
p3350
S'NNP'
p3351
sS'CharacterOffsetBegin'
p3352
S'660'
p3353
sS'NamedEntityTag'
p3354
S'DATE'
p3355
stp3356
a(S'20'
p3357
(dp3358
S'NormalizedNamedEntityTag'
p3359
S'XXXX-11-20'
p3360
sS'Timex'
p3361
S'<TIMEX3 tid="t6" type="DATE" value="XXXX-11-20">Nov 20</TIMEX3>'
p3362
sS'Lemma'
p3363
S'20'
p3364
sS'CharacterOffsetEnd'
p3365
S'666'
p3366
sS'PartOfSpeech'
p3367
S'CD'
p3368
sS'CharacterOffsetBegin'
p3369
S'664'
p3370
sS'NamedEntityTag'
p3371
S'DATE'
p3372
stp3373
a(S'flight'
p3374
(dp3375
S'NamedEntityTag'
p3376
g103
sS'CharacterOffsetEnd'
p3377
S'673'
p3378
sS'Lemma'
p3379
S'flight'
p3380
sS'PartOfSpeech'
p3381
S'NN'
p3382
sS'CharacterOffsetBegin'
p3383
S'667'
p3384
stp3385
a(S'by'
p3386
(dp3387
S'NamedEntityTag'
p3388
g103
sS'CharacterOffsetEnd'
p3389
S'676'
p3390
sS'Lemma'
p3391
S'by'
p3392
sS'PartOfSpeech'
p3393
S'IN'
p3394
sS'CharacterOffsetBegin'
p3395
S'674'
p3396
stp3397
a(S'10'
p3398
(dp3399
S'NormalizedNamedEntityTag'
p3400
S'PT10H'
p3401
sS'Timex'
p3402
S'<TIMEX3 tid="t7" type="DURATION" value="PT10H">10 hours</TIMEX3>'
p3403
sS'Lemma'
p3404
S'10'
p3405
sS'CharacterOffsetEnd'
p3406
S'679'
p3407
sS'PartOfSpeech'
p3408
S'CD'
p3409
sS'CharacterOffsetBegin'
p3410
S'677'
p3411
sS'NamedEntityTag'
p3412
S'DURATION'
p3413
stp3414
a(S'hours'
p3415
(dp3416
S'NormalizedNamedEntityTag'
p3417
S'PT10H'
p3418
sS'Timex'
p3419
S'<TIMEX3 tid="t7" type="DURATION" value="PT10H">10 hours</TIMEX3>'
p3420
sS'Lemma'
p3421
S'hour'
p3422
sS'CharacterOffsetEnd'
p3423
S'685'
p3424
sS'PartOfSpeech'
p3425
S'NNS'
p3426
sS'CharacterOffsetBegin'
p3427
S'680'
p3428
sS'NamedEntityTag'
p3429
S'DURATION'
p3430
stp3431
a(S'to'
p3432
(dp3433
S'NamedEntityTag'
p3434
g103
sS'CharacterOffsetEnd'
p3435
S'688'
p3436
sS'Lemma'
p3437
S'to'
p3438
sS'PartOfSpeech'
p3439
S'TO'
p3440
sS'CharacterOffsetBegin'
p3441
S'686'
p3442
stp3443
a(S'match'
p3444
(dp3445
S'NamedEntityTag'
p3446
g103
sS'CharacterOffsetEnd'
p3447
S'694'
p3448
sS'Lemma'
p3449
S'match'
p3450
sS'PartOfSpeech'
p3451
S'VB'
p3452
sS'CharacterOffsetBegin'
p3453
S'689'
p3454
stp3455
a(S'the'
p3456
(dp3457
S'NamedEntityTag'
p3458
g103
sS'CharacterOffsetEnd'
p3459
S'698'
p3460
sS'Lemma'
p3461
S'the'
p3462
sS'PartOfSpeech'
p3463
S'DT'
p3464
sS'CharacterOffsetBegin'
p3465
S'695'
p3466
stp3467
a(S'orbits'
p3468
(dp3469
S'NamedEntityTag'
p3470
g103
sS'CharacterOffsetEnd'
p3471
S'705'
p3472
sS'Lemma'
p3473
S'orbit'
p3474
sS'PartOfSpeech'
p3475
S'NNS'
p3476
sS'CharacterOffsetBegin'
p3477
S'699'
p3478
stp3479
a(S'would'
p3480
(dp3481
S'NamedEntityTag'
p3482
g103
sS'CharacterOffsetEnd'
p3483
S'711'
p3484
sS'Lemma'
p3485
S'would'
p3486
sS'PartOfSpeech'
p3487
S'MD'
p3488
sS'CharacterOffsetBegin'
p3489
S'706'
p3490
stp3491
a(S'have'
p3492
(dp3493
S'NamedEntityTag'
p3494
g103
sS'CharacterOffsetEnd'
p3495
S'716'
p3496
sS'Lemma'
p3497
S'have'
p3498
sS'PartOfSpeech'
p3499
S'VB'
p3500
sS'CharacterOffsetBegin'
p3501
S'712'
p3502
stp3503
a(S'forced'
p3504
(dp3505
S'NamedEntityTag'
p3506
g103
sS'CharacterOffsetEnd'
p3507
S'723'
p3508
sS'Lemma'
p3509
S'force'
p3510
sS'PartOfSpeech'
p3511
S'VBN'
p3512
sS'CharacterOffsetBegin'
p3513
S'717'
p3514
stp3515
a(S'similar'
p3516
(dp3517
S'NamedEntityTag'
p3518
g103
sS'CharacterOffsetEnd'
p3519
S'731'
p3520
sS'Lemma'
p3521
S'similar'
p3522
sS'PartOfSpeech'
p3523
S'JJ'
p3524
sS'CharacterOffsetBegin'
p3525
S'724'
p3526
stp3527
a(S'shifts'
p3528
(dp3529
S'NamedEntityTag'
p3530
g103
sS'CharacterOffsetEnd'
p3531
S'738'
p3532
sS'Lemma'
p3533
S'shift'
p3534
sS'PartOfSpeech'
p3535
S'NNS'
p3536
sS'CharacterOffsetBegin'
p3537
S'732'
p3538
stp3539
a(S'in'
p3540
(dp3541
S'NamedEntityTag'
p3542
g103
sS'CharacterOffsetEnd'
p3543
S'741'
p3544
sS'Lemma'
p3545
S'in'
p3546
sS'PartOfSpeech'
p3547
S'IN'
p3548
sS'CharacterOffsetBegin'
p3549
S'739'
p3550
stp3551
a(S'the'
p3552
(dp3553
S'NamedEntityTag'
p3554
g103
sS'CharacterOffsetEnd'
p3555
S'745'
p3556
sS'Lemma'
p3557
S'the'
p3558
sS'PartOfSpeech'
p3559
S'DT'
p3560
sS'CharacterOffsetBegin'
p3561
S'742'
p3562
stp3563
a(S'subsequent'
p3564
(dp3565
S'NamedEntityTag'
p3566
g103
sS'CharacterOffsetEnd'
p3567
S'756'
p3568
sS'Lemma'
p3569
S'subsequent'
p3570
sS'PartOfSpeech'
p3571
S'JJ'
p3572
sS'CharacterOffsetBegin'
p3573
S'746'
p3574
stp3575
a(S'assembly'
p3576
(dp3577
S'NamedEntityTag'
p3578
g103
sS'CharacterOffsetEnd'
p3579
S'765'
p3580
sS'Lemma'
p3581
S'assembly'
p3582
sS'PartOfSpeech'
p3583
S'NN'
p3584
sS'CharacterOffsetBegin'
p3585
S'757'
p3586
stp3587
a(S'flights'
p3588
(dp3589
S'NamedEntityTag'
p3590
g103
sS'CharacterOffsetEnd'
p3591
S'773'
p3592
sS'Lemma'
p3593
S'flight'
p3594
sS'PartOfSpeech'
p3595
S'NNS'
p3596
sS'CharacterOffsetBegin'
p3597
S'766'
p3598
stp3599
a(g482
(dp3600
S'NamedEntityTag'
p3601
g103
sS'CharacterOffsetEnd'
p3602
S'774'
p3603
sS'Lemma'
p3604
g482
sS'PartOfSpeech'
p3605
g482
sS'CharacterOffsetBegin'
p3606
S'773'
p3607
stp3608
a(S'and'
p3609
(dp3610
S'NamedEntityTag'
p3611
g103
sS'CharacterOffsetEnd'
p3612
S'778'
p3613
sS'Lemma'
p3614
S'and'
p3615
sS'PartOfSpeech'
p3616
S'CC'
p3617
sS'CharacterOffsetBegin'
p3618
S'775'
p3619
stp3620
a(S'resulted'
p3621
(dp3622
S'NamedEntityTag'
p3623
g103
sS'CharacterOffsetEnd'
p3624
S'787'
p3625
sS'Lemma'
p3626
S'result'
p3627
sS'PartOfSpeech'
p3628
S'VBD'
p3629
sS'CharacterOffsetBegin'
p3630
S'779'
p3631
stp3632
a(S'in'
p3633
(dp3634
S'NamedEntityTag'
p3635
g103
sS'CharacterOffsetEnd'
p3636
S'790'
p3637
sS'Lemma'
p3638
S'in'
p3639
sS'PartOfSpeech'
p3640
S'IN'
p3641
sS'CharacterOffsetBegin'
p3642
S'788'
p3643
stp3644
a(S'potentially'
p3645
(dp3646
S'NamedEntityTag'
p3647
g103
sS'CharacterOffsetEnd'
p3648
S'802'
p3649
sS'Lemma'
p3650
S'potentially'
p3651
sS'PartOfSpeech'
p3652
S'RB'
p3653
sS'CharacterOffsetBegin'
p3654
S'791'
p3655
stp3656
a(S'unfavorable'
p3657
(dp3658
S'NamedEntityTag'
p3659
g103
sS'CharacterOffsetEnd'
p3660
S'814'
p3661
sS'Lemma'
p3662
S'unfavorable'
p3663
sS'PartOfSpeech'
p3664
S'JJ'
p3665
sS'CharacterOffsetBegin'
p3666
S'803'
p3667
stp3668
a(S'sun'
p3669
(dp3670
S'NamedEntityTag'
p3671
g103
sS'CharacterOffsetEnd'
p3672
S'818'
p3673
sS'Lemma'
p3674
S'sun'
p3675
sS'PartOfSpeech'
p3676
S'NN'
p3677
sS'CharacterOffsetBegin'
p3678
S'815'
p3679
stp3680
a(S'angles'
p3681
(dp3682
S'NamedEntityTag'
p3683
g103
sS'CharacterOffsetEnd'
p3684
S'825'
p3685
sS'Lemma'
p3686
S'angle'
p3687
sS'PartOfSpeech'
p3688
S'NNS'
p3689
sS'CharacterOffsetBegin'
p3690
S'819'
p3691
stp3692
a(S'on'
p3693
(dp3694
S'NamedEntityTag'
p3695
g103
sS'CharacterOffsetEnd'
p3696
S'828'
p3697
sS'Lemma'
p3698
S'on'
p3699
sS'PartOfSpeech'
p3700
S'IN'
p3701
sS'CharacterOffsetBegin'
p3702
S'826'
p3703
stp3704
a(S'the'
p3705
(dp3706
S'NamedEntityTag'
p3707
g103
sS'CharacterOffsetEnd'
p3708
S'832'
p3709
sS'Lemma'
p3710
S'the'
p3711
sS'PartOfSpeech'
p3712
S'DT'
p3713
sS'CharacterOffsetBegin'
p3714
S'829'
p3715
stp3716
a(S'solar-powered'
p3717
(dp3718
S'NamedEntityTag'
p3719
g103
sS'CharacterOffsetEnd'
p3720
S'846'
p3721
sS'Lemma'
p3722
S'solar-powered'
p3723
sS'PartOfSpeech'
p3724
S'JJ'
p3725
sS'CharacterOffsetBegin'
p3726
S'833'
p3727
stp3728
a(S'station'
p3729
(dp3730
S'NamedEntityTag'
p3731
g103
sS'CharacterOffsetEnd'
p3732
S'854'
p3733
sS'Lemma'
p3734
S'station'
p3735
sS'PartOfSpeech'
p3736
S'NN'
p3737
sS'CharacterOffsetBegin'
p3738
S'847'
p3739
stp3740
a(g482
(dp3741
S'NamedEntityTag'
p3742
g103
sS'CharacterOffsetEnd'
p3743
S'855'
p3744
sS'Lemma'
p3745
g482
sS'PartOfSpeech'
p3746
g482
sS'CharacterOffsetBegin'
p3747
S'854'
p3748
stp3749
a(S'engineers'
p3750
(dp3751
S'NamedEntityTag'
p3752
g103
sS'CharacterOffsetEnd'
p3753
S'865'
p3754
sS'Lemma'
p3755
S'engineer'
p3756
sS'PartOfSpeech'
p3757
S'NNS'
p3758
sS'CharacterOffsetBegin'
p3759
S'856'
p3760
stp3761
a(S'said'
p3762
(dp3763
S'NamedEntityTag'
p3764
g103
sS'CharacterOffsetEnd'
p3765
S'870'
p3766
sS'Lemma'
p3767
S'say'
p3768
sS'PartOfSpeech'
p3769
S'VBD'
p3770
sS'CharacterOffsetBegin'
p3771
S'866'
p3772
stp3773
a(g233
(dp3774
S'NamedEntityTag'
p3775
g103
sS'CharacterOffsetEnd'
p3776
S'871'
p3777
sS'Lemma'
p3778
g233
sS'PartOfSpeech'
p3779
g233
sS'CharacterOffsetBegin'
p3780
S'870'
p3781
stp3782
asa(dp3783
g7
S'(ROOT (S (S (NP (PRP We)) (VP (VBP have) (ADVP (RB mutually)) (VP (VBN concluded) (SBAR (IN that) (S (NP (PRP it)) (VP (MD would) (RB not) (VP (VB be) (ADJP (JJ prudent) (S (VP (TO to) (VP (VB make) (NP (DT these) (NNS changes))))))))))))) (, ,) (NP (NNP Brinkley)) (VP (VBD said) (PP (IN during) (NP (NP (DT a) (NN news) (NN conference)) (VP (VBD held) (PP (IN at) (NP (DT the) (NNP Johnson) (NNP Space) (NNP Center))) (PP (IN in) (NP (NNP Houston))))))) (. .)))'
p3784
sg9
S'We have mutually concluded that it would not be prudent to make these changes, Brinkley said during a news conference held at the Johnson Space Center in Houston.'
p3785
sg11
(lp3786
(S'root'
p3787
S'ROOT'
p3788
S'said'
p3789
tp3790
a(S'nsubj'
p3791
S'concluded'
p3792
S'We'
p3793
tp3794
a(S'aux'
p3795
S'concluded'
p3796
S'have'
p3797
tp3798
a(S'advmod'
p3799
S'concluded'
p3800
S'mutually'
p3801
tp3802
a(S'ccomp'
p3803
S'said'
p3804
S'concluded'
p3805
tp3806
a(S'mark'
p3807
S'prudent'
p3808
S'that'
p3809
tp3810
a(S'nsubj'
p3811
S'prudent'
p3812
S'it'
p3813
tp3814
a(S'aux'
p3815
S'prudent'
p3816
S'would'
p3817
tp3818
a(S'neg'
p3819
S'prudent'
p3820
S'not'
p3821
tp3822
a(S'cop'
p3823
S'prudent'
p3824
S'be'
p3825
tp3826
a(S'ccomp'
p3827
S'concluded'
p3828
S'prudent'
p3829
tp3830
a(S'aux'
p3831
S'make'
p3832
S'to'
p3833
tp3834
a(S'xcomp'
p3835
S'prudent'
p3836
S'make'
p3837
tp3838
a(S'det'
p3839
S'changes'
p3840
S'these'
p3841
tp3842
a(S'dobj'
p3843
S'make'
p3844
S'changes'
p3845
tp3846
a(S'nsubj'
p3847
S'said'
p3848
S'Brinkley'
p3849
tp3850
a(S'det'
p3851
S'conference'
p3852
g27
tp3853
a(S'nn'
p3854
S'conference'
p3855
S'news'
p3856
tp3857
a(S'prep_during'
p3858
S'said'
p3859
S'conference'
p3860
tp3861
a(S'partmod'
p3862
S'conference'
p3863
S'held'
p3864
tp3865
a(S'det'
p3866
S'Center'
p3867
S'the'
p3868
tp3869
a(S'nn'
p3870
S'Center'
p3871
S'Johnson'
p3872
tp3873
a(S'nn'
p3874
S'Center'
p3875
S'Space'
p3876
tp3877
a(S'prep_at'
p3878
S'held'
p3879
S'Center'
p3880
tp3881
a(S'prep_in'
p3882
S'held'
p3883
S'Houston'
p3884
tp3885
asg53
(lp3886
(g3787
S'ROOT-0'
p3887
S'said-17'
p3888
tp3889
a(g3791
S'concluded-4'
p3890
S'We-1'
p3891
tp3892
a(g3795
S'concluded-4'
p3893
S'have-2'
p3894
tp3895
a(g3799
S'concluded-4'
p3896
S'mutually-3'
p3897
tp3898
a(g3803
S'said-17'
p3899
S'concluded-4'
p3900
tp3901
a(g3807
S'prudent-10'
p3902
S'that-5'
p3903
tp3904
a(g3811
S'prudent-10'
p3905
S'it-6'
p3906
tp3907
a(g3815
S'prudent-10'
p3908
S'would-7'
p3909
tp3910
a(g3819
S'prudent-10'
p3911
S'not-8'
p3912
tp3913
a(g3823
S'prudent-10'
p3914
S'be-9'
p3915
tp3916
a(g3827
S'concluded-4'
p3917
S'prudent-10'
p3918
tp3919
a(g3831
S'make-12'
p3920
S'to-11'
p3921
tp3922
a(g3835
S'prudent-10'
p3923
S'make-12'
p3924
tp3925
a(g3839
S'changes-14'
p3926
S'these-13'
p3927
tp3928
a(g3843
S'make-12'
p3929
S'changes-14'
p3930
tp3931
a(g3847
S'said-17'
p3932
S'Brinkley-16'
p3933
tp3934
a(g3851
S'conference-21'
p3935
S'a-19'
p3936
tp3937
a(g3854
S'conference-21'
p3938
S'news-20'
p3939
tp3940
a(g3858
S'said-17'
p3941
S'conference-21'
p3942
tp3943
a(g3862
S'conference-21'
p3944
S'held-22'
p3945
tp3946
a(g3866
S'Center-27'
p3947
S'the-24'
p3948
tp3949
a(g3870
S'Center-27'
p3950
S'Johnson-25'
p3951
tp3952
a(g3874
S'Center-27'
p3953
S'Space-26'
p3954
tp3955
a(g3878
S'held-22'
p3956
S'Center-27'
p3957
tp3958
a(g3882
S'held-22'
p3959
S'Houston-29'
p3960
tp3961
asg85
(lp3962
(S'We'
p3963
(dp3964
S'NamedEntityTag'
p3965
g103
sS'CharacterOffsetEnd'
p3966
S'874'
p3967
sS'Lemma'
p3968
S'we'
p3969
sS'PartOfSpeech'
p3970
S'PRP'
p3971
sS'CharacterOffsetBegin'
p3972
S'872'
p3973
stp3974
a(S'have'
p3975
(dp3976
S'NamedEntityTag'
p3977
g103
sS'CharacterOffsetEnd'
p3978
S'879'
p3979
sS'Lemma'
p3980
S'have'
p3981
sS'PartOfSpeech'
p3982
S'VBP'
p3983
sS'CharacterOffsetBegin'
p3984
S'875'
p3985
stp3986
a(S'mutually'
p3987
(dp3988
S'NamedEntityTag'
p3989
g103
sS'CharacterOffsetEnd'
p3990
S'888'
p3991
sS'Lemma'
p3992
S'mutually'
p3993
sS'PartOfSpeech'
p3994
S'RB'
p3995
sS'CharacterOffsetBegin'
p3996
S'880'
p3997
stp3998
a(S'concluded'
p3999
(dp4000
S'NamedEntityTag'
p4001
g103
sS'CharacterOffsetEnd'
p4002
S'898'
p4003
sS'Lemma'
p4004
S'conclude'
p4005
sS'PartOfSpeech'
p4006
S'VBN'
p4007
sS'CharacterOffsetBegin'
p4008
S'889'
p4009
stp4010
a(S'that'
p4011
(dp4012
S'NamedEntityTag'
p4013
g103
sS'CharacterOffsetEnd'
p4014
S'903'
p4015
sS'Lemma'
p4016
S'that'
p4017
sS'PartOfSpeech'
p4018
S'IN'
p4019
sS'CharacterOffsetBegin'
p4020
S'899'
p4021
stp4022
a(S'it'
p4023
(dp4024
S'NamedEntityTag'
p4025
g103
sS'CharacterOffsetEnd'
p4026
S'906'
p4027
sS'Lemma'
p4028
S'it'
p4029
sS'PartOfSpeech'
p4030
S'PRP'
p4031
sS'CharacterOffsetBegin'
p4032
S'904'
p4033
stp4034
a(S'would'
p4035
(dp4036
S'NamedEntityTag'
p4037
g103
sS'CharacterOffsetEnd'
p4038
S'912'
p4039
sS'Lemma'
p4040
S'would'
p4041
sS'PartOfSpeech'
p4042
S'MD'
p4043
sS'CharacterOffsetBegin'
p4044
S'907'
p4045
stp4046
a(S'not'
p4047
(dp4048
S'NamedEntityTag'
p4049
g103
sS'CharacterOffsetEnd'
p4050
S'916'
p4051
sS'Lemma'
p4052
S'not'
p4053
sS'PartOfSpeech'
p4054
S'RB'
p4055
sS'CharacterOffsetBegin'
p4056
S'913'
p4057
stp4058
a(S'be'
p4059
(dp4060
S'NamedEntityTag'
p4061
g103
sS'CharacterOffsetEnd'
p4062
S'919'
p4063
sS'Lemma'
p4064
S'be'
p4065
sS'PartOfSpeech'
p4066
S'VB'
p4067
sS'CharacterOffsetBegin'
p4068
S'917'
p4069
stp4070
a(S'prudent'
p4071
(dp4072
S'NamedEntityTag'
p4073
g103
sS'CharacterOffsetEnd'
p4074
S'927'
p4075
sS'Lemma'
p4076
S'prudent'
p4077
sS'PartOfSpeech'
p4078
S'JJ'
p4079
sS'CharacterOffsetBegin'
p4080
S'920'
p4081
stp4082
a(S'to'
p4083
(dp4084
S'NamedEntityTag'
p4085
g103
sS'CharacterOffsetEnd'
p4086
S'930'
p4087
sS'Lemma'
p4088
S'to'
p4089
sS'PartOfSpeech'
p4090
S'TO'
p4091
sS'CharacterOffsetBegin'
p4092
S'928'
p4093
stp4094
a(S'make'
p4095
(dp4096
S'NamedEntityTag'
p4097
g103
sS'CharacterOffsetEnd'
p4098
S'935'
p4099
sS'Lemma'
p4100
S'make'
p4101
sS'PartOfSpeech'
p4102
S'VB'
p4103
sS'CharacterOffsetBegin'
p4104
S'931'
p4105
stp4106
a(S'these'
p4107
(dp4108
S'NamedEntityTag'
p4109
g103
sS'CharacterOffsetEnd'
p4110
S'941'
p4111
sS'Lemma'
p4112
S'these'
p4113
sS'PartOfSpeech'
p4114
S'DT'
p4115
sS'CharacterOffsetBegin'
p4116
S'936'
p4117
stp4118
a(S'changes'
p4119
(dp4120
S'NamedEntityTag'
p4121
g103
sS'CharacterOffsetEnd'
p4122
S'949'
p4123
sS'Lemma'
p4124
S'change'
p4125
sS'PartOfSpeech'
p4126
S'NNS'
p4127
sS'CharacterOffsetBegin'
p4128
S'942'
p4129
stp4130
a(g482
(dp4131
S'NamedEntityTag'
p4132
g103
sS'CharacterOffsetEnd'
p4133
S'950'
p4134
sS'Lemma'
p4135
g482
sS'PartOfSpeech'
p4136
g482
sS'CharacterOffsetBegin'
p4137
S'949'
p4138
stp4139
a(S'Brinkley'
p4140
(dp4141
S'NamedEntityTag'
p4142
S'PERSON'
p4143
sS'CharacterOffsetEnd'
p4144
S'959'
p4145
sS'Lemma'
p4146
S'Brinkley'
p4147
sS'PartOfSpeech'
p4148
S'NNP'
p4149
sS'CharacterOffsetBegin'
p4150
S'951'
p4151
stp4152
a(S'said'
p4153
(dp4154
S'NamedEntityTag'
p4155
g103
sS'CharacterOffsetEnd'
p4156
S'964'
p4157
sS'Lemma'
p4158
S'say'
p4159
sS'PartOfSpeech'
p4160
S'VBD'
p4161
sS'CharacterOffsetBegin'
p4162
S'960'
p4163
stp4164
a(S'during'
p4165
(dp4166
S'NamedEntityTag'
p4167
g103
sS'CharacterOffsetEnd'
p4168
S'971'
p4169
sS'Lemma'
p4170
S'during'
p4171
sS'PartOfSpeech'
p4172
S'IN'
p4173
sS'CharacterOffsetBegin'
p4174
S'965'
p4175
stp4176
a(g27
(dp4177
S'NamedEntityTag'
p4178
g103
sS'CharacterOffsetEnd'
p4179
S'973'
p4180
sS'Lemma'
p4181
g27
sS'PartOfSpeech'
p4182
S'DT'
p4183
sS'CharacterOffsetBegin'
p4184
S'972'
p4185
stp4186
a(S'news'
p4187
(dp4188
S'NamedEntityTag'
p4189
g103
sS'CharacterOffsetEnd'
p4190
S'978'
p4191
sS'Lemma'
p4192
S'news'
p4193
sS'PartOfSpeech'
p4194
S'NN'
p4195
sS'CharacterOffsetBegin'
p4196
S'974'
p4197
stp4198
a(S'conference'
p4199
(dp4200
S'NamedEntityTag'
p4201
g103
sS'CharacterOffsetEnd'
p4202
S'989'
p4203
sS'Lemma'
p4204
S'conference'
p4205
sS'PartOfSpeech'
p4206
S'NN'
p4207
sS'CharacterOffsetBegin'
p4208
S'979'
p4209
stp4210
a(S'held'
p4211
(dp4212
S'NamedEntityTag'
p4213
g103
sS'CharacterOffsetEnd'
p4214
S'994'
p4215
sS'Lemma'
p4216
S'hold'
p4217
sS'PartOfSpeech'
p4218
S'VBD'
p4219
sS'CharacterOffsetBegin'
p4220
S'990'
p4221
stp4222
a(S'at'
p4223
(dp4224
S'NamedEntityTag'
p4225
g103
sS'CharacterOffsetEnd'
p4226
S'997'
p4227
sS'Lemma'
p4228
S'at'
p4229
sS'PartOfSpeech'
p4230
S'IN'
p4231
sS'CharacterOffsetBegin'
p4232
S'995'
p4233
stp4234
a(S'the'
p4235
(dp4236
S'NamedEntityTag'
p4237
g103
sS'CharacterOffsetEnd'
p4238
S'1001'
p4239
sS'Lemma'
p4240
S'the'
p4241
sS'PartOfSpeech'
p4242
S'DT'
p4243
sS'CharacterOffsetBegin'
p4244
S'998'
p4245
stp4246
a(S'Johnson'
p4247
(dp4248
S'NamedEntityTag'
p4249
S'ORGANIZATION'
p4250
sS'CharacterOffsetEnd'
p4251
S'1009'
p4252
sS'Lemma'
p4253
S'Johnson'
p4254
sS'PartOfSpeech'
p4255
S'NNP'
p4256
sS'CharacterOffsetBegin'
p4257
S'1002'
p4258
stp4259
a(S'Space'
p4260
(dp4261
S'NamedEntityTag'
p4262
S'ORGANIZATION'
p4263
sS'CharacterOffsetEnd'
p4264
S'1015'
p4265
sS'Lemma'
p4266
S'Space'
p4267
sS'PartOfSpeech'
p4268
S'NNP'
p4269
sS'CharacterOffsetBegin'
p4270
S'1010'
p4271
stp4272
a(S'Center'
p4273
(dp4274
S'NamedEntityTag'
p4275
S'ORGANIZATION'
p4276
sS'CharacterOffsetEnd'
p4277
S'1022'
p4278
sS'Lemma'
p4279
S'Center'
p4280
sS'PartOfSpeech'
p4281
S'NNP'
p4282
sS'CharacterOffsetBegin'
p4283
S'1016'
p4284
stp4285
a(S'in'
p4286
(dp4287
S'NamedEntityTag'
p4288
g103
sS'CharacterOffsetEnd'
p4289
S'1025'
p4290
sS'Lemma'
p4291
S'in'
p4292
sS'PartOfSpeech'
p4293
S'IN'
p4294
sS'CharacterOffsetBegin'
p4295
S'1023'
p4296
stp4297
a(S'Houston'
p4298
(dp4299
S'NamedEntityTag'
p4300
S'LOCATION'
p4301
sS'CharacterOffsetEnd'
p4302
S'1033'
p4303
sS'Lemma'
p4304
S'Houston'
p4305
sS'PartOfSpeech'
p4306
S'NNP'
p4307
sS'CharacterOffsetBegin'
p4308
S'1026'
p4309
stp4310
a(g233
(dp4311
S'NamedEntityTag'
p4312
g103
sS'CharacterOffsetEnd'
p4313
S'1034'
p4314
sS'Lemma'
p4315
g233
sS'PartOfSpeech'
p4316
g233
sS'CharacterOffsetBegin'
p4317
S'1033'
p4318
stp4319
asa(dp4320
g7
S'(ROOT (S (NP (PRP It)) (VP (VBD added) (NP (JJ technical) (NN complexity) (CC and) (NNS risks)) (PP (TO to) (NP (NP (DT the) (NN mission)) (SBAR (WHNP (WDT that)) (S (VP (VBD were) (RB not) (ADJP (JJ justified)))))))) (. .)))'
p4321
sg9
S'It added technical complexity and risks to the mission that were not justified.'
p4322
sg11
(lp4323
(S'root'
p4324
S'ROOT'
p4325
S'added'
p4326
tp4327
a(S'nsubj'
p4328
S'added'
p4329
S'It'
p4330
tp4331
a(S'amod'
p4332
S'complexity'
p4333
S'technical'
p4334
tp4335
a(S'dobj'
p4336
S'added'
p4337
S'complexity'
p4338
tp4339
a(S'conj_and'
p4340
S'complexity'
p4341
S'risks'
p4342
tp4343
a(S'det'
p4344
S'mission'
p4345
S'the'
p4346
tp4347
a(S'prep_to'
p4348
S'added'
p4349
S'mission'
p4350
tp4351
a(S'nsubj'
p4352
S'justified'
p4353
S'that'
p4354
tp4355
a(S'cop'
p4356
S'justified'
p4357
S'were'
p4358
tp4359
a(S'neg'
p4360
S'justified'
p4361
S'not'
p4362
tp4363
a(S'rcmod'
p4364
S'mission'
p4365
S'justified'
p4366
tp4367
asg53
(lp4368
(g4324
S'ROOT-0'
p4369
S'added-2'
p4370
tp4371
a(g4328
S'added-2'
p4372
S'It-1'
p4373
tp4374
a(g4332
S'complexity-4'
p4375
S'technical-3'
p4376
tp4377
a(g4336
S'added-2'
p4378
S'complexity-4'
p4379
tp4380
a(g4340
S'complexity-4'
p4381
S'risks-6'
p4382
tp4383
a(g4344
S'mission-9'
p4384
S'the-8'
p4385
tp4386
a(g4348
S'added-2'
p4387
S'mission-9'
p4388
tp4389
a(g4352
S'justified-13'
p4390
S'that-10'
p4391
tp4392
a(g4356
S'justified-13'
p4393
S'were-11'
p4394
tp4395
a(g4360
S'justified-13'
p4396
S'not-12'
p4397
tp4398
a(g4364
S'mission-9'
p4399
S'justified-13'
p4400
tp4401
asg85
(lp4402
(S'It'
p4403
(dp4404
S'NamedEntityTag'
p4405
g103
sS'CharacterOffsetEnd'
p4406
S'1037'
p4407
sS'Lemma'
p4408
S'it'
p4409
sS'PartOfSpeech'
p4410
S'PRP'
p4411
sS'CharacterOffsetBegin'
p4412
S'1035'
p4413
stp4414
a(S'added'
p4415
(dp4416
S'NamedEntityTag'
p4417
g103
sS'CharacterOffsetEnd'
p4418
S'1043'
p4419
sS'Lemma'
p4420
S'add'
p4421
sS'PartOfSpeech'
p4422
S'VBD'
p4423
sS'CharacterOffsetBegin'
p4424
S'1038'
p4425
stp4426
a(S'technical'
p4427
(dp4428
S'NamedEntityTag'
p4429
g103
sS'CharacterOffsetEnd'
p4430
S'1053'
p4431
sS'Lemma'
p4432
S'technical'
p4433
sS'PartOfSpeech'
p4434
S'JJ'
p4435
sS'CharacterOffsetBegin'
p4436
S'1044'
p4437
stp4438
a(S'complexity'
p4439
(dp4440
S'NamedEntityTag'
p4441
g103
sS'CharacterOffsetEnd'
p4442
S'1064'
p4443
sS'Lemma'
p4444
S'complexity'
p4445
sS'PartOfSpeech'
p4446
S'NN'
p4447
sS'CharacterOffsetBegin'
p4448
S'1054'
p4449
stp4450
a(S'and'
p4451
(dp4452
S'NamedEntityTag'
p4453
g103
sS'CharacterOffsetEnd'
p4454
S'1068'
p4455
sS'Lemma'
p4456
S'and'
p4457
sS'PartOfSpeech'
p4458
S'CC'
p4459
sS'CharacterOffsetBegin'
p4460
S'1065'
p4461
stp4462
a(S'risks'
p4463
(dp4464
S'NamedEntityTag'
p4465
g103
sS'CharacterOffsetEnd'
p4466
S'1074'
p4467
sS'Lemma'
p4468
S'risk'
p4469
sS'PartOfSpeech'
p4470
S'NNS'
p4471
sS'CharacterOffsetBegin'
p4472
S'1069'
p4473
stp4474
a(S'to'
p4475
(dp4476
S'NamedEntityTag'
p4477
g103
sS'CharacterOffsetEnd'
p4478
S'1077'
p4479
sS'Lemma'
p4480
S'to'
p4481
sS'PartOfSpeech'
p4482
S'TO'
p4483
sS'CharacterOffsetBegin'
p4484
S'1075'
p4485
stp4486
a(S'the'
p4487
(dp4488
S'NamedEntityTag'
p4489
g103
sS'CharacterOffsetEnd'
p4490
S'1081'
p4491
sS'Lemma'
p4492
S'the'
p4493
sS'PartOfSpeech'
p4494
S'DT'
p4495
sS'CharacterOffsetBegin'
p4496
S'1078'
p4497
stp4498
a(S'mission'
p4499
(dp4500
S'NamedEntityTag'
p4501
g103
sS'CharacterOffsetEnd'
p4502
S'1089'
p4503
sS'Lemma'
p4504
S'mission'
p4505
sS'PartOfSpeech'
p4506
S'NN'
p4507
sS'CharacterOffsetBegin'
p4508
S'1082'
p4509
stp4510
a(S'that'
p4511
(dp4512
S'NamedEntityTag'
p4513
g103
sS'CharacterOffsetEnd'
p4514
S'1094'
p4515
sS'Lemma'
p4516
S'that'
p4517
sS'PartOfSpeech'
p4518
S'WDT'
p4519
sS'CharacterOffsetBegin'
p4520
S'1090'
p4521
stp4522
a(S'were'
p4523
(dp4524
S'NamedEntityTag'
p4525
g103
sS'CharacterOffsetEnd'
p4526
S'1099'
p4527
sS'Lemma'
p4528
S'be'
p4529
sS'PartOfSpeech'
p4530
S'VBD'
p4531
sS'CharacterOffsetBegin'
p4532
S'1095'
p4533
stp4534
a(S'not'
p4535
(dp4536
S'NamedEntityTag'
p4537
g103
sS'CharacterOffsetEnd'
p4538
S'1103'
p4539
sS'Lemma'
p4540
S'not'
p4541
sS'PartOfSpeech'
p4542
S'RB'
p4543
sS'CharacterOffsetBegin'
p4544
S'1100'
p4545
stp4546
a(S'justified'
p4547
(dp4548
S'NamedEntityTag'
p4549
g103
sS'CharacterOffsetEnd'
p4550
S'1113'
p4551
sS'Lemma'
p4552
S'justified'
p4553
sS'PartOfSpeech'
p4554
S'JJ'
p4555
sS'CharacterOffsetBegin'
p4556
S'1104'
p4557
stp4558
a(g233
(dp4559
S'NamedEntityTag'
p4560
g103
sS'CharacterOffsetEnd'
p4561
S'1114'
p4562
sS'Lemma'
p4563
g233
sS'PartOfSpeech'
p4564
g233
sS'CharacterOffsetBegin'
p4565
S'1113'
p4566
stp4567
asa(dp4568
g7
S'(ROOT (S (S (NP (NP (DT The) (NN decision)) (, ,) (SBAR (WHNP (WDT which)) (S (VP (VBD followed) (NP (NP (ADJP (JJ frank) (CC and) (JJ candid)) (NNS discussions)) (PP (IN between) (NP (DT the) (CD two) (NNS partners))))))) (, ,)) (VP (VBD was) (RB not) (VP (VBN imposed) (PP (IN by) (NP (DT the) (NNP United) (NNPS States)))))) (, ,) (NP (PRP he)) (VP (VBD said)) (. .)))'
p4569
sg9
S'The decision, which followed frank and candid discussions between the two partners, was not imposed by the United States, he said.'
p4570
sg11
(lp4571
(S'root'
p4572
S'ROOT'
p4573
S'said'
p4574
tp4575
a(S'det'
p4576
S'decision'
p4577
S'The'
p4578
tp4579
a(S'nsubjpass'
p4580
S'imposed'
p4581
S'decision'
p4582
tp4583
a(S'nsubj'
p4584
S'followed'
p4585
S'which'
p4586
tp4587
a(S'rcmod'
p4588
S'decision'
p4589
S'followed'
p4590
tp4591
a(S'amod'
p4592
S'discussions'
p4593
S'frank'
p4594
tp4595
a(S'conj_and'
p4596
S'frank'
p4597
S'candid'
p4598
tp4599
a(S'dobj'
p4600
S'followed'
p4601
S'discussions'
p4602
tp4603
a(S'det'
p4604
S'partners'
p4605
S'the'
p4606
tp4607
a(S'num'
p4608
S'partners'
p4609
S'two'
p4610
tp4611
a(S'prep_between'
p4612
S'discussions'
p4613
S'partners'
p4614
tp4615
a(S'auxpass'
p4616
S'imposed'
p4617
S'was'
p4618
tp4619
a(S'neg'
p4620
S'imposed'
p4621
S'not'
p4622
tp4623
a(S'ccomp'
p4624
S'said'
p4625
S'imposed'
p4626
tp4627
a(S'det'
p4628
S'States'
p4629
S'the'
p4630
tp4631
a(S'nn'
p4632
S'States'
p4633
S'United'
p4634
tp4635
a(S'agent'
p4636
S'imposed'
p4637
S'States'
p4638
tp4639
a(S'nsubj'
p4640
S'said'
p4641
S'he'
p4642
tp4643
asg53
(lp4644
(g4572
S'ROOT-0'
p4645
S'said-24'
p4646
tp4647
a(g4576
S'decision-2'
p4648
S'The-1'
p4649
tp4650
a(g4580
S'imposed-17'
p4651
S'decision-2'
p4652
tp4653
a(g4584
S'followed-5'
p4654
S'which-4'
p4655
tp4656
a(g4588
S'decision-2'
p4657
S'followed-5'
p4658
tp4659
a(g4592
S'discussions-9'
p4660
S'frank-6'
p4661
tp4662
a(g4596
S'frank-6'
p4663
S'candid-8'
p4664
tp4665
a(g4600
S'followed-5'
p4666
S'discussions-9'
p4667
tp4668
a(g4604
S'partners-13'
p4669
S'the-11'
p4670
tp4671
a(g4608
S'partners-13'
p4672
S'two-12'
p4673
tp4674
a(g4612
S'discussions-9'
p4675
S'partners-13'
p4676
tp4677
a(g4616
S'imposed-17'
p4678
S'was-15'
p4679
tp4680
a(g4620
S'imposed-17'
p4681
S'not-16'
p4682
tp4683
a(g4624
S'said-24'
p4684
S'imposed-17'
p4685
tp4686
a(g4628
S'States-21'
p4687
S'the-19'
p4688
tp4689
a(g4632
S'States-21'
p4690
S'United-20'
p4691
tp4692
a(g4636
S'imposed-17'
p4693
S'States-21'
p4694
tp4695
a(g4640
S'said-24'
p4696
S'he-23'
p4697
tp4698
asg85
(lp4699
(S'The'
p4700
(dp4701
S'NamedEntityTag'
p4702
g103
sS'CharacterOffsetEnd'
p4703
S'1118'
p4704
sS'Lemma'
p4705
S'the'
p4706
sS'PartOfSpeech'
p4707
S'DT'
p4708
sS'CharacterOffsetBegin'
p4709
S'1115'
p4710
stp4711
a(S'decision'
p4712
(dp4713
S'NamedEntityTag'
p4714
g103
sS'CharacterOffsetEnd'
p4715
S'1127'
p4716
sS'Lemma'
p4717
S'decision'
p4718
sS'PartOfSpeech'
p4719
S'NN'
p4720
sS'CharacterOffsetBegin'
p4721
S'1119'
p4722
stp4723
a(g482
(dp4724
S'NamedEntityTag'
p4725
g103
sS'CharacterOffsetEnd'
p4726
S'1128'
p4727
sS'Lemma'
p4728
g482
sS'PartOfSpeech'
p4729
g482
sS'CharacterOffsetBegin'
p4730
S'1127'
p4731
stp4732
a(S'which'
p4733
(dp4734
S'NamedEntityTag'
p4735
g103
sS'CharacterOffsetEnd'
p4736
S'1134'
p4737
sS'Lemma'
p4738
S'which'
p4739
sS'PartOfSpeech'
p4740
S'WDT'
p4741
sS'CharacterOffsetBegin'
p4742
S'1129'
p4743
stp4744
a(S'followed'
p4745
(dp4746
S'NamedEntityTag'
p4747
g103
sS'CharacterOffsetEnd'
p4748
S'1143'
p4749
sS'Lemma'
p4750
S'follow'
p4751
sS'PartOfSpeech'
p4752
S'VBD'
p4753
sS'CharacterOffsetBegin'
p4754
S'1135'
p4755
stp4756
a(S'frank'
p4757
(dp4758
S'NamedEntityTag'
p4759
g103
sS'CharacterOffsetEnd'
p4760
S'1149'
p4761
sS'Lemma'
p4762
S'frank'
p4763
sS'PartOfSpeech'
p4764
S'JJ'
p4765
sS'CharacterOffsetBegin'
p4766
S'1144'
p4767
stp4768
a(S'and'
p4769
(dp4770
S'NamedEntityTag'
p4771
g103
sS'CharacterOffsetEnd'
p4772
S'1153'
p4773
sS'Lemma'
p4774
S'and'
p4775
sS'PartOfSpeech'
p4776
S'CC'
p4777
sS'CharacterOffsetBegin'
p4778
S'1150'
p4779
stp4780
a(S'candid'
p4781
(dp4782
S'NamedEntityTag'
p4783
g103
sS'CharacterOffsetEnd'
p4784
S'1160'
p4785
sS'Lemma'
p4786
S'candid'
p4787
sS'PartOfSpeech'
p4788
S'JJ'
p4789
sS'CharacterOffsetBegin'
p4790
S'1154'
p4791
stp4792
a(S'discussions'
p4793
(dp4794
S'NamedEntityTag'
p4795
g103
sS'CharacterOffsetEnd'
p4796
S'1172'
p4797
sS'Lemma'
p4798
S'discussion'
p4799
sS'PartOfSpeech'
p4800
S'NNS'
p4801
sS'CharacterOffsetBegin'
p4802
S'1161'
p4803
stp4804
a(S'between'
p4805
(dp4806
S'NamedEntityTag'
p4807
g103
sS'CharacterOffsetEnd'
p4808
S'1180'
p4809
sS'Lemma'
p4810
S'between'
p4811
sS'PartOfSpeech'
p4812
S'IN'
p4813
sS'CharacterOffsetBegin'
p4814
S'1173'
p4815
stp4816
a(S'the'
p4817
(dp4818
S'NamedEntityTag'
p4819
g103
sS'CharacterOffsetEnd'
p4820
S'1184'
p4821
sS'Lemma'
p4822
S'the'
p4823
sS'PartOfSpeech'
p4824
S'DT'
p4825
sS'CharacterOffsetBegin'
p4826
S'1181'
p4827
stp4828
a(S'two'
p4829
(dp4830
S'NormalizedNamedEntityTag'
p4831
S'2.0'
p4832
sS'Lemma'
p4833
S'two'
p4834
sS'CharacterOffsetEnd'
p4835
S'1188'
p4836
sS'PartOfSpeech'
p4837
S'CD'
p4838
sS'CharacterOffsetBegin'
p4839
S'1185'
p4840
sS'NamedEntityTag'
p4841
S'NUMBER'
p4842
stp4843
a(S'partners'
p4844
(dp4845
S'NamedEntityTag'
p4846
g103
sS'CharacterOffsetEnd'
p4847
S'1197'
p4848
sS'Lemma'
p4849
S'partner'
p4850
sS'PartOfSpeech'
p4851
S'NNS'
p4852
sS'CharacterOffsetBegin'
p4853
S'1189'
p4854
stp4855
a(g482
(dp4856
S'NamedEntityTag'
p4857
g103
sS'CharacterOffsetEnd'
p4858
S'1198'
p4859
sS'Lemma'
p4860
g482
sS'PartOfSpeech'
p4861
g482
sS'CharacterOffsetBegin'
p4862
S'1197'
p4863
stp4864
a(S'was'
p4865
(dp4866
S'NamedEntityTag'
p4867
g103
sS'CharacterOffsetEnd'
p4868
S'1202'
p4869
sS'Lemma'
p4870
S'be'
p4871
sS'PartOfSpeech'
p4872
S'VBD'
p4873
sS'CharacterOffsetBegin'
p4874
S'1199'
p4875
stp4876
a(S'not'
p4877
(dp4878
S'NamedEntityTag'
p4879
g103
sS'CharacterOffsetEnd'
p4880
S'1206'
p4881
sS'Lemma'
p4882
S'not'
p4883
sS'PartOfSpeech'
p4884
S'RB'
p4885
sS'CharacterOffsetBegin'
p4886
S'1203'
p4887
stp4888
a(S'imposed'
p4889
(dp4890
S'NamedEntityTag'
p4891
g103
sS'CharacterOffsetEnd'
p4892
S'1214'
p4893
sS'Lemma'
p4894
S'impose'
p4895
sS'PartOfSpeech'
p4896
S'VBN'
p4897
sS'CharacterOffsetBegin'
p4898
S'1207'
p4899
stp4900
a(S'by'
p4901
(dp4902
S'NamedEntityTag'
p4903
g103
sS'CharacterOffsetEnd'
p4904
S'1217'
p4905
sS'Lemma'
p4906
S'by'
p4907
sS'PartOfSpeech'
p4908
S'IN'
p4909
sS'CharacterOffsetBegin'
p4910
S'1215'
p4911
stp4912
a(S'the'
p4913
(dp4914
S'NamedEntityTag'
p4915
g103
sS'CharacterOffsetEnd'
p4916
S'1221'
p4917
sS'Lemma'
p4918
S'the'
p4919
sS'PartOfSpeech'
p4920
S'DT'
p4921
sS'CharacterOffsetBegin'
p4922
S'1218'
p4923
stp4924
a(S'United'
p4925
(dp4926
S'NamedEntityTag'
p4927
S'LOCATION'
p4928
sS'CharacterOffsetEnd'
p4929
S'1228'
p4930
sS'Lemma'
p4931
S'United'
p4932
sS'PartOfSpeech'
p4933
S'NNP'
p4934
sS'CharacterOffsetBegin'
p4935
S'1222'
p4936
stp4937
a(S'States'
p4938
(dp4939
S'NamedEntityTag'
p4940
S'LOCATION'
p4941
sS'CharacterOffsetEnd'
p4942
S'1235'
p4943
sS'Lemma'
p4944
S'States'
p4945
sS'PartOfSpeech'
p4946
S'NNPS'
p4947
sS'CharacterOffsetBegin'
p4948
S'1229'
p4949
stp4950
a(g482
(dp4951
S'NamedEntityTag'
p4952
g103
sS'CharacterOffsetEnd'
p4953
S'1236'
p4954
sS'Lemma'
p4955
g482
sS'PartOfSpeech'
p4956
g482
sS'CharacterOffsetBegin'
p4957
S'1235'
p4958
stp4959
a(S'he'
p4960
(dp4961
S'NamedEntityTag'
p4962
g103
sS'CharacterOffsetEnd'
p4963
S'1239'
p4964
sS'Lemma'
p4965
S'he'
p4966
sS'PartOfSpeech'
p4967
S'PRP'
p4968
sS'CharacterOffsetBegin'
p4969
S'1237'
p4970
stp4971
a(S'said'
p4972
(dp4973
S'NamedEntityTag'
p4974
g103
sS'CharacterOffsetEnd'
p4975
S'1244'
p4976
sS'Lemma'
p4977
S'say'
p4978
sS'PartOfSpeech'
p4979
S'VBD'
p4980
sS'CharacterOffsetBegin'
p4981
S'1240'
p4982
stp4983
a(g233
(dp4984
S'NamedEntityTag'
p4985
g103
sS'CharacterOffsetEnd'
p4986
S'1245'
p4987
sS'Lemma'
p4988
g233
sS'PartOfSpeech'
p4989
g233
sS'CharacterOffsetBegin'
p4990
S'1244'
p4991
stp4992
asa(dp4993
g7
S'(ROOT (S (S (NP (DT The) (NNS conclusions)) (VP (VBD were) (ADJP (JJ mutual)))) (, ,) (NP (NNP Brinkley)) (VP (VBD said)) (. .)))'
p4994
sg9
S'The conclusions were mutual, Brinkley said.'
p4995
sg11
(lp4996
(S'root'
p4997
S'ROOT'
p4998
S'said'
p4999
tp5000
a(S'det'
p5001
S'conclusions'
p5002
S'The'
p5003
tp5004
a(S'nsubj'
p5005
S'mutual'
p5006
S'conclusions'
p5007
tp5008
a(S'cop'
p5009
S'mutual'
p5010
S'were'
p5011
tp5012
a(S'ccomp'
p5013
S'said'
p5014
S'mutual'
p5015
tp5016
a(S'nsubj'
p5017
S'said'
p5018
S'Brinkley'
p5019
tp5020
asg53
(lp5021
(g4997
S'ROOT-0'
p5022
S'said-7'
p5023
tp5024
a(g5001
S'conclusions-2'
p5025
S'The-1'
p5026
tp5027
a(g5005
S'mutual-4'
p5028
S'conclusions-2'
p5029
tp5030
a(g5009
S'mutual-4'
p5031
S'were-3'
p5032
tp5033
a(g5013
S'said-7'
p5034
S'mutual-4'
p5035
tp5036
a(g5017
S'said-7'
p5037
S'Brinkley-6'
p5038
tp5039
asg85
(lp5040
(S'The'
p5041
(dp5042
S'NamedEntityTag'
p5043
g103
sS'CharacterOffsetEnd'
p5044
S'1249'
p5045
sS'Lemma'
p5046
S'the'
p5047
sS'PartOfSpeech'
p5048
S'DT'
p5049
sS'CharacterOffsetBegin'
p5050
S'1246'
p5051
stp5052
a(S'conclusions'
p5053
(dp5054
S'NamedEntityTag'
p5055
g103
sS'CharacterOffsetEnd'
p5056
S'1261'
p5057
sS'Lemma'
p5058
S'conclusion'
p5059
sS'PartOfSpeech'
p5060
S'NNS'
p5061
sS'CharacterOffsetBegin'
p5062
S'1250'
p5063
stp5064
a(S'were'
p5065
(dp5066
S'NamedEntityTag'
p5067
g103
sS'CharacterOffsetEnd'
p5068
S'1266'
p5069
sS'Lemma'
p5070
S'be'
p5071
sS'PartOfSpeech'
p5072
S'VBD'
p5073
sS'CharacterOffsetBegin'
p5074
S'1262'
p5075
stp5076
a(S'mutual'
p5077
(dp5078
S'NamedEntityTag'
p5079
g103
sS'CharacterOffsetEnd'
p5080
S'1273'
p5081
sS'Lemma'
p5082
S'mutual'
p5083
sS'PartOfSpeech'
p5084
S'JJ'
p5085
sS'CharacterOffsetBegin'
p5086
S'1267'
p5087
stp5088
a(g482
(dp5089
S'NamedEntityTag'
p5090
g103
sS'CharacterOffsetEnd'
p5091
S'1274'
p5092
sS'Lemma'
p5093
g482
sS'PartOfSpeech'
p5094
g482
sS'CharacterOffsetBegin'
p5095
S'1273'
p5096
stp5097
a(S'Brinkley'
p5098
(dp5099
S'NamedEntityTag'
p5100
S'PERSON'
p5101
sS'CharacterOffsetEnd'
p5102
S'1283'
p5103
sS'Lemma'
p5104
S'Brinkley'
p5105
sS'PartOfSpeech'
p5106
S'NNP'
p5107
sS'CharacterOffsetBegin'
p5108
S'1275'
p5109
stp5110
a(S'said'
p5111
(dp5112
S'NamedEntityTag'
p5113
g103
sS'CharacterOffsetEnd'
p5114
S'1288'
p5115
sS'Lemma'
p5116
S'say'
p5117
sS'PartOfSpeech'
p5118
S'VBD'
p5119
sS'CharacterOffsetBegin'
p5120
S'1284'
p5121
stp5122
a(g233
(dp5123
S'NamedEntityTag'
p5124
g103
sS'CharacterOffsetEnd'
p5125
S'1289'
p5126
sS'Lemma'
p5127
g233
sS'PartOfSpeech'
p5128
g233
sS'CharacterOffsetBegin'
p5129
S'1288'
p5130
stp5131
asa(dp5132
g7
S'(ROOT (S (NP (DT Both) (NNS sides)) (VP (VBD concluded) (SBAR (IN that) (S (NP (PRP it)) (VP (VBD did) (RB not) (VP (VB make) (NP (NN sense))))))) (. .)))'
p5133
sg9
S'Both sides concluded that it did not make sense.'
p5134
sg11
(lp5135
(S'root'
p5136
S'ROOT'
p5137
S'concluded'
p5138
tp5139
a(S'det'
p5140
S'sides'
p5141
S'Both'
p5142
tp5143
a(S'nsubj'
p5144
S'concluded'
p5145
S'sides'
p5146
tp5147
a(S'mark'
p5148
S'make'
p5149
S'that'
p5150
tp5151
a(S'nsubj'
p5152
S'make'
p5153
S'it'
p5154
tp5155
a(S'aux'
p5156
S'make'
p5157
S'did'
p5158
tp5159
a(S'neg'
p5160
S'make'
p5161
S'not'
p5162
tp5163
a(S'ccomp'
p5164
S'concluded'
p5165
S'make'
p5166
tp5167
a(S'dobj'
p5168
S'make'
p5169
S'sense'
p5170
tp5171
asg53
(lp5172
(g5136
S'ROOT-0'
p5173
S'concluded-3'
p5174
tp5175
a(g5140
S'sides-2'
p5176
S'Both-1'
p5177
tp5178
a(g5144
S'concluded-3'
p5179
S'sides-2'
p5180
tp5181
a(g5148
S'make-8'
p5182
S'that-4'
p5183
tp5184
a(g5152
S'make-8'
p5185
S'it-5'
p5186
tp5187
a(g5156
S'make-8'
p5188
S'did-6'
p5189
tp5190
a(g5160
S'make-8'
p5191
S'not-7'
p5192
tp5193
a(g5164
S'concluded-3'
p5194
S'make-8'
p5195
tp5196
a(g5168
S'make-8'
p5197
S'sense-9'
p5198
tp5199
asg85
(lp5200
(S'Both'
p5201
(dp5202
S'NamedEntityTag'
p5203
g103
sS'CharacterOffsetEnd'
p5204
S'1294'
p5205
sS'Lemma'
p5206
S'both'
p5207
sS'PartOfSpeech'
p5208
S'DT'
p5209
sS'CharacterOffsetBegin'
p5210
S'1290'
p5211
stp5212
a(S'sides'
p5213
(dp5214
S'NamedEntityTag'
p5215
g103
sS'CharacterOffsetEnd'
p5216
S'1300'
p5217
sS'Lemma'
p5218
S'side'
p5219
sS'PartOfSpeech'
p5220
S'NNS'
p5221
sS'CharacterOffsetBegin'
p5222
S'1295'
p5223
stp5224
a(S'concluded'
p5225
(dp5226
S'NamedEntityTag'
p5227
g103
sS'CharacterOffsetEnd'
p5228
S'1310'
p5229
sS'Lemma'
p5230
S'conclude'
p5231
sS'PartOfSpeech'
p5232
S'VBD'
p5233
sS'CharacterOffsetBegin'
p5234
S'1301'
p5235
stp5236
a(S'that'
p5237
(dp5238
S'NamedEntityTag'
p5239
g103
sS'CharacterOffsetEnd'
p5240
S'1315'
p5241
sS'Lemma'
p5242
S'that'
p5243
sS'PartOfSpeech'
p5244
S'IN'
p5245
sS'CharacterOffsetBegin'
p5246
S'1311'
p5247
stp5248
a(S'it'
p5249
(dp5250
S'NamedEntityTag'
p5251
g103
sS'CharacterOffsetEnd'
p5252
S'1318'
p5253
sS'Lemma'
p5254
S'it'
p5255
sS'PartOfSpeech'
p5256
S'PRP'
p5257
sS'CharacterOffsetBegin'
p5258
S'1316'
p5259
stp5260
a(S'did'
p5261
(dp5262
S'NamedEntityTag'
p5263
g103
sS'CharacterOffsetEnd'
p5264
S'1322'
p5265
sS'Lemma'
p5266
S'do'
p5267
sS'PartOfSpeech'
p5268
S'VBD'
p5269
sS'CharacterOffsetBegin'
p5270
S'1319'
p5271
stp5272
a(S'not'
p5273
(dp5274
S'NamedEntityTag'
p5275
g103
sS'CharacterOffsetEnd'
p5276
S'1326'
p5277
sS'Lemma'
p5278
S'not'
p5279
sS'PartOfSpeech'
p5280
S'RB'
p5281
sS'CharacterOffsetBegin'
p5282
S'1323'
p5283
stp5284
a(S'make'
p5285
(dp5286
S'NamedEntityTag'
p5287
g103
sS'CharacterOffsetEnd'
p5288
S'1331'
p5289
sS'Lemma'
p5290
S'make'
p5291
sS'PartOfSpeech'
p5292
S'VB'
p5293
sS'CharacterOffsetBegin'
p5294
S'1327'
p5295
stp5296
a(S'sense'
p5297
(dp5298
S'NamedEntityTag'
p5299
g103
sS'CharacterOffsetEnd'
p5300
S'1337'
p5301
sS'Lemma'
p5302
S'sense'
p5303
sS'PartOfSpeech'
p5304
S'NN'
p5305
sS'CharacterOffsetBegin'
p5306
S'1332'
p5307
stp5308
a(g233
(dp5309
S'NamedEntityTag'
p5310
g103
sS'CharacterOffsetEnd'
p5311
S'1338'
p5312
sS'Lemma'
p5313
g233
sS'PartOfSpeech'
p5314
g233
sS'CharacterOffsetBegin'
p5315
S'1337'
p5316
stp5317
asa(dp5318
g7
S'(ROOT (S (NP (DT The) (NNPS Russians)) (, ,) (S (VP (VBG struggling) (S (VP (TO to) (VP (VB find) (NP (NP (NN money)) (PP (IN for) (NP (PRP$ their) (NN space) (NN program)))) (PP (IN with) (NP (NP (PRP$ their) (NN nation)) (PP (IN in) (NP (JJ economic) (NN collapse)))))))))) (, ,) (VP (VBD had) (VP (VBN said) (SBAR (S (NP (PRP they)) (VP (VBD wanted) (S (VP (TO to) (VP (VB transfer) (NP (NP (NNS thousands)) (PP (IN of) (NP (NP (NNS pounds)) (PP (IN of) (NP (NP (NP (JJR newer) (NN equipment)) (CC and) (NP (JJ scientific) (NNS instruments))) (PP (IN from) (NP (NNS Mir)))))))) (PP (IN as) (NP (DT an) (NN economy) (NN move))))))))))) (. .)))'
p5319
sg9
S'The Russians, struggling to find money for their space program with their nation in economic collapse, had said they wanted to transfer thousands of pounds of newer equipment and scientific instruments from Mir as an economy move.'
p5320
sg11
(lp5321
(S'root'
p5322
S'ROOT'
p5323
S'said'
p5324
tp5325
a(S'det'
p5326
S'Russians'
p5327
S'The'
p5328
tp5329
a(S'nsubj'
p5330
S'said'
p5331
S'Russians'
p5332
tp5333
a(S'partmod'
p5334
S'said'
p5335
S'struggling'
p5336
tp5337
a(S'aux'
p5338
S'find'
p5339
S'to'
p5340
tp5341
a(S'xcomp'
p5342
S'struggling'
p5343
S'find'
p5344
tp5345
a(S'dobj'
p5346
S'find'
p5347
S'money'
p5348
tp5349
a(S'poss'
p5350
S'program'
p5351
S'their'
p5352
tp5353
a(S'nn'
p5354
S'program'
p5355
S'space'
p5356
tp5357
a(S'prep_for'
p5358
S'money'
p5359
S'program'
p5360
tp5361
a(S'poss'
p5362
S'nation'
p5363
S'their'
p5364
tp5365
a(S'prep_with'
p5366
S'find'
p5367
S'nation'
p5368
tp5369
a(S'amod'
p5370
S'collapse'
p5371
S'economic'
p5372
tp5373
a(S'prep_in'
p5374
S'nation'
p5375
S'collapse'
p5376
tp5377
a(S'aux'
p5378
S'said'
p5379
S'had'
p5380
tp5381
a(S'nsubj'
p5382
S'wanted'
p5383
S'they'
p5384
tp5385
a(S'ccomp'
p5386
S'said'
p5387
S'wanted'
p5388
tp5389
a(S'aux'
p5390
S'transfer'
p5391
S'to'
p5392
tp5393
a(S'xcomp'
p5394
S'wanted'
p5395
S'transfer'
p5396
tp5397
a(S'dobj'
p5398
S'transfer'
p5399
S'thousands'
p5400
tp5401
a(S'prep_of'
p5402
S'thousands'
p5403
S'pounds'
p5404
tp5405
a(S'amod'
p5406
S'equipment'
p5407
S'newer'
p5408
tp5409
a(S'prep_of'
p5410
S'pounds'
p5411
S'equipment'
p5412
tp5413
a(S'amod'
p5414
S'instruments'
p5415
S'scientific'
p5416
tp5417
a(S'conj_and'
p5418
S'equipment'
p5419
S'instruments'
p5420
tp5421
a(S'prep_from'
p5422
S'equipment'
p5423
S'Mir'
p5424
tp5425
a(S'det'
p5426
S'move'
p5427
S'an'
p5428
tp5429
a(S'nn'
p5430
S'move'
p5431
S'economy'
p5432
tp5433
a(S'prep_as'
p5434
S'transfer'
p5435
S'move'
p5436
tp5437
asg53
(lp5438
(g5322
S'ROOT-0'
p5439
S'said-20'
p5440
tp5441
a(g5326
S'Russians-2'
p5442
S'The-1'
p5443
tp5444
a(g5330
S'said-20'
p5445
S'Russians-2'
p5446
tp5447
a(g5334
S'said-20'
p5448
S'struggling-4'
p5449
tp5450
a(g5338
S'find-6'
p5451
S'to-5'
p5452
tp5453
a(g5342
S'struggling-4'
p5454
S'find-6'
p5455
tp5456
a(g5346
S'find-6'
p5457
S'money-7'
p5458
tp5459
a(g5350
S'program-11'
p5460
S'their-9'
p5461
tp5462
a(g5354
S'program-11'
p5463
S'space-10'
p5464
tp5465
a(g5358
S'money-7'
p5466
S'program-11'
p5467
tp5468
a(g5362
S'nation-14'
p5469
S'their-13'
p5470
tp5471
a(g5366
S'find-6'
p5472
S'nation-14'
p5473
tp5474
a(g5370
S'collapse-17'
p5475
S'economic-16'
p5476
tp5477
a(g5374
S'nation-14'
p5478
S'collapse-17'
p5479
tp5480
a(g5378
S'said-20'
p5481
S'had-19'
p5482
tp5483
a(g5382
S'wanted-22'
p5484
S'they-21'
p5485
tp5486
a(g5386
S'said-20'
p5487
S'wanted-22'
p5488
tp5489
a(g5390
S'transfer-24'
p5490
S'to-23'
p5491
tp5492
a(g5394
S'wanted-22'
p5493
S'transfer-24'
p5494
tp5495
a(g5398
S'transfer-24'
p5496
S'thousands-25'
p5497
tp5498
a(g5402
S'thousands-25'
p5499
S'pounds-27'
p5500
tp5501
a(g5406
S'equipment-30'
p5502
S'newer-29'
p5503
tp5504
a(g5410
S'pounds-27'
p5505
S'equipment-30'
p5506
tp5507
a(g5414
S'instruments-33'
p5508
S'scientific-32'
p5509
tp5510
a(g5418
S'equipment-30'
p5511
S'instruments-33'
p5512
tp5513
a(g5422
S'equipment-30'
p5514
S'Mir-35'
p5515
tp5516
a(g5426
S'move-39'
p5517
S'an-37'
p5518
tp5519
a(g5430
S'move-39'
p5520
S'economy-38'
p5521
tp5522
a(g5434
S'transfer-24'
p5523
S'move-39'
p5524
tp5525
asg85
(lp5526
(S'The'
p5527
(dp5528
S'NamedEntityTag'
p5529
g103
sS'CharacterOffsetEnd'
p5530
S'1342'
p5531
sS'Lemma'
p5532
S'the'
p5533
sS'PartOfSpeech'
p5534
S'DT'
p5535
sS'CharacterOffsetBegin'
p5536
S'1339'
p5537
stp5538
a(S'Russians'
p5539
(dp5540
S'NamedEntityTag'
p5541
S'MISC'
p5542
sS'CharacterOffsetEnd'
p5543
S'1351'
p5544
sS'Lemma'
p5545
S'Russians'
p5546
sS'PartOfSpeech'
p5547
S'NNPS'
p5548
sS'CharacterOffsetBegin'
p5549
S'1343'
p5550
stp5551
a(g482
(dp5552
S'NamedEntityTag'
p5553
g103
sS'CharacterOffsetEnd'
p5554
S'1352'
p5555
sS'Lemma'
p5556
g482
sS'PartOfSpeech'
p5557
g482
sS'CharacterOffsetBegin'
p5558
S'1351'
p5559
stp5560
a(S'struggling'
p5561
(dp5562
S'NamedEntityTag'
p5563
g103
sS'CharacterOffsetEnd'
p5564
S'1363'
p5565
sS'Lemma'
p5566
S'struggle'
p5567
sS'PartOfSpeech'
p5568
S'VBG'
p5569
sS'CharacterOffsetBegin'
p5570
S'1353'
p5571
stp5572
a(S'to'
p5573
(dp5574
S'NamedEntityTag'
p5575
g103
sS'CharacterOffsetEnd'
p5576
S'1366'
p5577
sS'Lemma'
p5578
S'to'
p5579
sS'PartOfSpeech'
p5580
S'TO'
p5581
sS'CharacterOffsetBegin'
p5582
S'1364'
p5583
stp5584
a(S'find'
p5585
(dp5586
S'NamedEntityTag'
p5587
g103
sS'CharacterOffsetEnd'
p5588
S'1371'
p5589
sS'Lemma'
p5590
S'find'
p5591
sS'PartOfSpeech'
p5592
S'VB'
p5593
sS'CharacterOffsetBegin'
p5594
S'1367'
p5595
stp5596
a(S'money'
p5597
(dp5598
S'NamedEntityTag'
p5599
g103
sS'CharacterOffsetEnd'
p5600
S'1377'
p5601
sS'Lemma'
p5602
S'money'
p5603
sS'PartOfSpeech'
p5604
S'NN'
p5605
sS'CharacterOffsetBegin'
p5606
S'1372'
p5607
stp5608
a(S'for'
p5609
(dp5610
S'NamedEntityTag'
p5611
g103
sS'CharacterOffsetEnd'
p5612
S'1381'
p5613
sS'Lemma'
p5614
S'for'
p5615
sS'PartOfSpeech'
p5616
S'IN'
p5617
sS'CharacterOffsetBegin'
p5618
S'1378'
p5619
stp5620
a(S'their'
p5621
(dp5622
S'NamedEntityTag'
p5623
g103
sS'CharacterOffsetEnd'
p5624
S'1387'
p5625
sS'Lemma'
p5626
S'they'
p5627
sS'PartOfSpeech'
p5628
S'PRP$'
p5629
sS'CharacterOffsetBegin'
p5630
S'1382'
p5631
stp5632
a(S'space'
p5633
(dp5634
S'NamedEntityTag'
p5635
g103
sS'CharacterOffsetEnd'
p5636
S'1393'
p5637
sS'Lemma'
p5638
S'space'
p5639
sS'PartOfSpeech'
p5640
S'NN'
p5641
sS'CharacterOffsetBegin'
p5642
S'1388'
p5643
stp5644
a(S'program'
p5645
(dp5646
S'NamedEntityTag'
p5647
g103
sS'CharacterOffsetEnd'
p5648
S'1401'
p5649
sS'Lemma'
p5650
S'program'
p5651
sS'PartOfSpeech'
p5652
S'NN'
p5653
sS'CharacterOffsetBegin'
p5654
S'1394'
p5655
stp5656
a(S'with'
p5657
(dp5658
S'NamedEntityTag'
p5659
g103
sS'CharacterOffsetEnd'
p5660
S'1406'
p5661
sS'Lemma'
p5662
S'with'
p5663
sS'PartOfSpeech'
p5664
S'IN'
p5665
sS'CharacterOffsetBegin'
p5666
S'1402'
p5667
stp5668
a(S'their'
p5669
(dp5670
S'NamedEntityTag'
p5671
g103
sS'CharacterOffsetEnd'
p5672
S'1412'
p5673
sS'Lemma'
p5674
S'they'
p5675
sS'PartOfSpeech'
p5676
S'PRP$'
p5677
sS'CharacterOffsetBegin'
p5678
S'1407'
p5679
stp5680
a(S'nation'
p5681
(dp5682
S'NamedEntityTag'
p5683
g103
sS'CharacterOffsetEnd'
p5684
S'1419'
p5685
sS'Lemma'
p5686
S'nation'
p5687
sS'PartOfSpeech'
p5688
S'NN'
p5689
sS'CharacterOffsetBegin'
p5690
S'1413'
p5691
stp5692
a(S'in'
p5693
(dp5694
S'NamedEntityTag'
p5695
g103
sS'CharacterOffsetEnd'
p5696
S'1422'
p5697
sS'Lemma'
p5698
S'in'
p5699
sS'PartOfSpeech'
p5700
S'IN'
p5701
sS'CharacterOffsetBegin'
p5702
S'1420'
p5703
stp5704
a(S'economic'
p5705
(dp5706
S'NamedEntityTag'
p5707
g103
sS'CharacterOffsetEnd'
p5708
S'1431'
p5709
sS'Lemma'
p5710
S'economic'
p5711
sS'PartOfSpeech'
p5712
S'JJ'
p5713
sS'CharacterOffsetBegin'
p5714
S'1423'
p5715
stp5716
a(S'collapse'
p5717
(dp5718
S'NamedEntityTag'
p5719
g103
sS'CharacterOffsetEnd'
p5720
S'1440'
p5721
sS'Lemma'
p5722
S'collapse'
p5723
sS'PartOfSpeech'
p5724
S'NN'
p5725
sS'CharacterOffsetBegin'
p5726
S'1432'
p5727
stp5728
a(g482
(dp5729
S'NamedEntityTag'
p5730
g103
sS'CharacterOffsetEnd'
p5731
S'1441'
p5732
sS'Lemma'
p5733
g482
sS'PartOfSpeech'
p5734
g482
sS'CharacterOffsetBegin'
p5735
S'1440'
p5736
stp5737
a(S'had'
p5738
(dp5739
S'NamedEntityTag'
p5740
g103
sS'CharacterOffsetEnd'
p5741
S'1445'
p5742
sS'Lemma'
p5743
S'have'
p5744
sS'PartOfSpeech'
p5745
S'VBD'
p5746
sS'CharacterOffsetBegin'
p5747
S'1442'
p5748
stp5749
a(S'said'
p5750
(dp5751
S'NamedEntityTag'
p5752
g103
sS'CharacterOffsetEnd'
p5753
S'1450'
p5754
sS'Lemma'
p5755
S'say'
p5756
sS'PartOfSpeech'
p5757
S'VBN'
p5758
sS'CharacterOffsetBegin'
p5759
S'1446'
p5760
stp5761
a(S'they'
p5762
(dp5763
S'NamedEntityTag'
p5764
g103
sS'CharacterOffsetEnd'
p5765
S'1455'
p5766
sS'Lemma'
p5767
S'they'
p5768
sS'PartOfSpeech'
p5769
S'PRP'
p5770
sS'CharacterOffsetBegin'
p5771
S'1451'
p5772
stp5773
a(S'wanted'
p5774
(dp5775
S'NamedEntityTag'
p5776
g103
sS'CharacterOffsetEnd'
p5777
S'1462'
p5778
sS'Lemma'
p5779
S'want'
p5780
sS'PartOfSpeech'
p5781
S'VBD'
p5782
sS'CharacterOffsetBegin'
p5783
S'1456'
p5784
stp5785
a(S'to'
p5786
(dp5787
S'NamedEntityTag'
p5788
g103
sS'CharacterOffsetEnd'
p5789
S'1465'
p5790
sS'Lemma'
p5791
S'to'
p5792
sS'PartOfSpeech'
p5793
S'TO'
p5794
sS'CharacterOffsetBegin'
p5795
S'1463'
p5796
stp5797
a(S'transfer'
p5798
(dp5799
S'NamedEntityTag'
p5800
g103
sS'CharacterOffsetEnd'
p5801
S'1474'
p5802
sS'Lemma'
p5803
S'transfer'
p5804
sS'PartOfSpeech'
p5805
S'VB'
p5806
sS'CharacterOffsetBegin'
p5807
S'1466'
p5808
stp5809
a(S'thousands'
p5810
(dp5811
S'NamedEntityTag'
p5812
g103
sS'CharacterOffsetEnd'
p5813
S'1484'
p5814
sS'Lemma'
p5815
S'thousand'
p5816
sS'PartOfSpeech'
p5817
S'NNS'
p5818
sS'CharacterOffsetBegin'
p5819
S'1475'
p5820
stp5821
a(S'of'
p5822
(dp5823
S'NamedEntityTag'
p5824
g103
sS'CharacterOffsetEnd'
p5825
S'1487'
p5826
sS'Lemma'
p5827
S'of'
p5828
sS'PartOfSpeech'
p5829
S'IN'
p5830
sS'CharacterOffsetBegin'
p5831
S'1485'
p5832
stp5833
a(S'pounds'
p5834
(dp5835
S'NamedEntityTag'
p5836
g103
sS'CharacterOffsetEnd'
p5837
S'1494'
p5838
sS'Lemma'
p5839
S'pound'
p5840
sS'PartOfSpeech'
p5841
S'NNS'
p5842
sS'CharacterOffsetBegin'
p5843
S'1488'
p5844
stp5845
a(S'of'
p5846
(dp5847
S'NamedEntityTag'
p5848
g103
sS'CharacterOffsetEnd'
p5849
S'1497'
p5850
sS'Lemma'
p5851
S'of'
p5852
sS'PartOfSpeech'
p5853
S'IN'
p5854
sS'CharacterOffsetBegin'
p5855
S'1495'
p5856
stp5857
a(S'newer'
p5858
(dp5859
S'NamedEntityTag'
p5860
g103
sS'CharacterOffsetEnd'
p5861
S'1503'
p5862
sS'Lemma'
p5863
S'newer'
p5864
sS'PartOfSpeech'
p5865
S'JJR'
p5866
sS'CharacterOffsetBegin'
p5867
S'1498'
p5868
stp5869
a(S'equipment'
p5870
(dp5871
S'NamedEntityTag'
p5872
g103
sS'CharacterOffsetEnd'
p5873
S'1513'
p5874
sS'Lemma'
p5875
S'equipment'
p5876
sS'PartOfSpeech'
p5877
S'NN'
p5878
sS'CharacterOffsetBegin'
p5879
S'1504'
p5880
stp5881
a(S'and'
p5882
(dp5883
S'NamedEntityTag'
p5884
g103
sS'CharacterOffsetEnd'
p5885
S'1517'
p5886
sS'Lemma'
p5887
S'and'
p5888
sS'PartOfSpeech'
p5889
S'CC'
p5890
sS'CharacterOffsetBegin'
p5891
S'1514'
p5892
stp5893
a(S'scientific'
p5894
(dp5895
S'NamedEntityTag'
p5896
g103
sS'CharacterOffsetEnd'
p5897
S'1528'
p5898
sS'Lemma'
p5899
S'scientific'
p5900
sS'PartOfSpeech'
p5901
S'JJ'
p5902
sS'CharacterOffsetBegin'
p5903
S'1518'
p5904
stp5905
a(S'instruments'
p5906
(dp5907
S'NamedEntityTag'
p5908
g103
sS'CharacterOffsetEnd'
p5909
S'1540'
p5910
sS'Lemma'
p5911
S'instrument'
p5912
sS'PartOfSpeech'
p5913
S'NNS'
p5914
sS'CharacterOffsetBegin'
p5915
S'1529'
p5916
stp5917
a(S'from'
p5918
(dp5919
S'NamedEntityTag'
p5920
g103
sS'CharacterOffsetEnd'
p5921
S'1545'
p5922
sS'Lemma'
p5923
S'from'
p5924
sS'PartOfSpeech'
p5925
S'IN'
p5926
sS'CharacterOffsetBegin'
p5927
S'1541'
p5928
stp5929
a(S'Mir'
p5930
(dp5931
S'NamedEntityTag'
p5932
g103
sS'CharacterOffsetEnd'
p5933
S'1549'
p5934
sS'Lemma'
p5935
S'mir'
p5936
sS'PartOfSpeech'
p5937
S'NNS'
p5938
sS'CharacterOffsetBegin'
p5939
S'1546'
p5940
stp5941
a(S'as'
p5942
(dp5943
S'NamedEntityTag'
p5944
g103
sS'CharacterOffsetEnd'
p5945
S'1552'
p5946
sS'Lemma'
p5947
S'as'
p5948
sS'PartOfSpeech'
p5949
S'IN'
p5950
sS'CharacterOffsetBegin'
p5951
S'1550'
p5952
stp5953
a(S'an'
p5954
(dp5955
S'NamedEntityTag'
p5956
g103
sS'CharacterOffsetEnd'
p5957
S'1555'
p5958
sS'Lemma'
p5959
g27
sS'PartOfSpeech'
p5960
S'DT'
p5961
sS'CharacterOffsetBegin'
p5962
S'1553'
p5963
stp5964
a(S'economy'
p5965
(dp5966
S'NamedEntityTag'
p5967
g103
sS'CharacterOffsetEnd'
p5968
S'1563'
p5969
sS'Lemma'
p5970
S'economy'
p5971
sS'PartOfSpeech'
p5972
S'NN'
p5973
sS'CharacterOffsetBegin'
p5974
S'1556'
p5975
stp5976
a(S'move'
p5977
(dp5978
S'NamedEntityTag'
p5979
g103
sS'CharacterOffsetEnd'
p5980
S'1568'
p5981
sS'Lemma'
p5982
S'move'
p5983
sS'PartOfSpeech'
p5984
S'NN'
p5985
sS'CharacterOffsetBegin'
p5986
S'1564'
p5987
stp5988
a(g233
(dp5989
S'NamedEntityTag'
p5990
g103
sS'CharacterOffsetEnd'
p5991
S'1569'
p5992
sS'Lemma'
p5993
g233
sS'PartOfSpeech'
p5994
g233
sS'CharacterOffsetBegin'
p5995
S'1568'
p5996
stp5997
asa(dp5998
g7
S'(ROOT (S (ADVP (RB However)) (, ,) (NP (DT some) (NNS critics)) (VP (VBD questioned) (NP (DT the) (NNPS Russians) (NNS motives)) (, ,) (S (VP (VBG wondering) (SBAR (IN if) (S (NP (DT the) (VBN requested) (JJ orbital) (NN change)) (VP (VBD was) (NP (NP (NN part)) (PP (IN of) (NP (NN plan))) (S (VP (TO to) (VP (VB delay) (NP (NP (DT the) (NN decommissioning) (CC and) (NN destruction)) (PP (IN of) (NP (NP (NNS Mir)) (, ,) (SBAR (WHNP (WDT which)) (S (NP (DT the) (NNPS Russians)) (VP (VBP have) (VP (VBN agreed) (S (VP (TO to) (VP (VB do) (NP-TMP (JJ next) (NN summer)))))))))))))))))))))) (. .)))'
p5999
sg9
S'However, some critics questioned the Russians motives, wondering if the requested orbital change was part of plan to delay the decommissioning and destruction of Mir, which the Russians have agreed to do next summer.'
p6000
sg11
(lp6001
(S'root'
p6002
S'ROOT'
p6003
S'questioned'
p6004
tp6005
a(S'advmod'
p6006
S'questioned'
p6007
S'However'
p6008
tp6009
a(S'det'
p6010
S'critics'
p6011
S'some'
p6012
tp6013
a(S'nsubj'
p6014
S'questioned'
p6015
S'critics'
p6016
tp6017
a(S'det'
p6018
S'motives'
p6019
S'the'
p6020
tp6021
a(S'nn'
p6022
S'motives'
p6023
S'Russians'
p6024
tp6025
a(S'dobj'
p6026
S'questioned'
p6027
S'motives'
p6028
tp6029
a(S'partmod'
p6030
S'questioned'
p6031
S'wondering'
p6032
tp6033
a(S'mark'
p6034
S'part'
p6035
S'if'
p6036
tp6037
a(S'det'
p6038
S'change'
p6039
S'the'
p6040
tp6041
a(S'amod'
p6042
S'change'
p6043
S'requested'
p6044
tp6045
a(S'amod'
p6046
S'change'
p6047
S'orbital'
p6048
tp6049
a(S'nsubj'
p6050
S'part'
p6051
S'change'
p6052
tp6053
a(S'cop'
p6054
S'part'
p6055
S'was'
p6056
tp6057
a(S'advcl'
p6058
S'wondering'
p6059
S'part'
p6060
tp6061
a(S'prep_of'
p6062
S'part'
p6063
S'plan'
p6064
tp6065
a(S'aux'
p6066
S'delay'
p6067
S'to'
p6068
tp6069
a(S'infmod'
p6070
S'part'
p6071
S'delay'
p6072
tp6073
a(S'det'
p6074
S'decommissioning'
p6075
S'the'
p6076
tp6077
a(S'dobj'
p6078
S'delay'
p6079
S'decommissioning'
p6080
tp6081
a(S'conj_and'
p6082
S'decommissioning'
p6083
S'destruction'
p6084
tp6085
a(S'prep_of'
p6086
S'decommissioning'
p6087
S'Mir'
p6088
tp6089
a(S'dobj'
p6090
S'agreed'
p6091
S'which'
p6092
tp6093
a(S'det'
p6094
S'Russians'
p6095
S'the'
p6096
tp6097
a(S'nsubj'
p6098
S'agreed'
p6099
S'Russians'
p6100
tp6101
a(S'aux'
p6102
S'agreed'
p6103
S'have'
p6104
tp6105
a(S'rcmod'
p6106
S'Mir'
p6107
S'agreed'
p6108
tp6109
a(S'aux'
p6110
S'do'
p6111
S'to'
p6112
tp6113
a(S'xcomp'
p6114
S'agreed'
p6115
S'do'
p6116
tp6117
a(S'amod'
p6118
S'summer'
p6119
S'next'
p6120
tp6121
a(S'tmod'
p6122
S'do'
p6123
S'summer'
p6124
tp6125
asg53
(lp6126
(g6002
S'ROOT-0'
p6127
S'questioned-5'
p6128
tp6129
a(g6006
S'questioned-5'
p6130
S'However-1'
p6131
tp6132
a(g6010
S'critics-4'
p6133
S'some-3'
p6134
tp6135
a(g6014
S'questioned-5'
p6136
S'critics-4'
p6137
tp6138
a(g6018
S'motives-8'
p6139
S'the-6'
p6140
tp6141
a(g6022
S'motives-8'
p6142
S'Russians-7'
p6143
tp6144
a(g6026
S'questioned-5'
p6145
S'motives-8'
p6146
tp6147
a(g6030
S'questioned-5'
p6148
S'wondering-10'
p6149
tp6150
a(g6034
S'part-17'
p6151
S'if-11'
p6152
tp6153
a(g6038
S'change-15'
p6154
S'the-12'
p6155
tp6156
a(g6042
S'change-15'
p6157
S'requested-13'
p6158
tp6159
a(g6046
S'change-15'
p6160
S'orbital-14'
p6161
tp6162
a(g6050
S'part-17'
p6163
S'change-15'
p6164
tp6165
a(g6054
S'part-17'
p6166
S'was-16'
p6167
tp6168
a(g6058
S'wondering-10'
p6169
S'part-17'
p6170
tp6171
a(g6062
S'part-17'
p6172
S'plan-19'
p6173
tp6174
a(g6066
S'delay-21'
p6175
S'to-20'
p6176
tp6177
a(g6070
S'part-17'
p6178
S'delay-21'
p6179
tp6180
a(g6074
S'decommissioning-23'
p6181
S'the-22'
p6182
tp6183
a(g6078
S'delay-21'
p6184
S'decommissioning-23'
p6185
tp6186
a(g6082
S'decommissioning-23'
p6187
S'destruction-25'
p6188
tp6189
a(g6086
S'decommissioning-23'
p6190
S'Mir-27'
p6191
tp6192
a(g6090
S'agreed-33'
p6193
S'which-29'
p6194
tp6195
a(g6094
S'Russians-31'
p6196
S'the-30'
p6197
tp6198
a(g6098
S'agreed-33'
p6199
S'Russians-31'
p6200
tp6201
a(g6102
S'agreed-33'
p6202
S'have-32'
p6203
tp6204
a(g6106
S'Mir-27'
p6205
S'agreed-33'
p6206
tp6207
a(g6110
S'do-35'
p6208
S'to-34'
p6209
tp6210
a(g6114
S'agreed-33'
p6211
S'do-35'
p6212
tp6213
a(g6118
S'summer-37'
p6214
S'next-36'
p6215
tp6216
a(g6122
S'do-35'
p6217
S'summer-37'
p6218
tp6219
asg85
(lp6220
(S'However'
p6221
(dp6222
S'NamedEntityTag'
p6223
g103
sS'CharacterOffsetEnd'
p6224
S'1577'
p6225
sS'Lemma'
p6226
S'however'
p6227
sS'PartOfSpeech'
p6228
S'RB'
p6229
sS'CharacterOffsetBegin'
p6230
S'1570'
p6231
stp6232
a(g482
(dp6233
S'NamedEntityTag'
p6234
g103
sS'CharacterOffsetEnd'
p6235
S'1578'
p6236
sS'Lemma'
p6237
g482
sS'PartOfSpeech'
p6238
g482
sS'CharacterOffsetBegin'
p6239
S'1577'
p6240
stp6241
a(S'some'
p6242
(dp6243
S'NamedEntityTag'
p6244
g103
sS'CharacterOffsetEnd'
p6245
S'1583'
p6246
sS'Lemma'
p6247
S'some'
p6248
sS'PartOfSpeech'
p6249
S'DT'
p6250
sS'CharacterOffsetBegin'
p6251
S'1579'
p6252
stp6253
a(S'critics'
p6254
(dp6255
S'NamedEntityTag'
p6256
g103
sS'CharacterOffsetEnd'
p6257
S'1591'
p6258
sS'Lemma'
p6259
S'critic'
p6260
sS'PartOfSpeech'
p6261
S'NNS'
p6262
sS'CharacterOffsetBegin'
p6263
S'1584'
p6264
stp6265
a(S'questioned'
p6266
(dp6267
S'NamedEntityTag'
p6268
g103
sS'CharacterOffsetEnd'
p6269
S'1602'
p6270
sS'Lemma'
p6271
S'question'
p6272
sS'PartOfSpeech'
p6273
S'VBD'
p6274
sS'CharacterOffsetBegin'
p6275
S'1592'
p6276
stp6277
a(S'the'
p6278
(dp6279
S'NamedEntityTag'
p6280
g103
sS'CharacterOffsetEnd'
p6281
S'1606'
p6282
sS'Lemma'
p6283
S'the'
p6284
sS'PartOfSpeech'
p6285
S'DT'
p6286
sS'CharacterOffsetBegin'
p6287
S'1603'
p6288
stp6289
a(S'Russians'
p6290
(dp6291
S'NamedEntityTag'
p6292
S'MISC'
p6293
sS'CharacterOffsetEnd'
p6294
S'1615'
p6295
sS'Lemma'
p6296
S'Russians'
p6297
sS'PartOfSpeech'
p6298
S'NNPS'
p6299
sS'CharacterOffsetBegin'
p6300
S'1607'
p6301
stp6302
a(S'motives'
p6303
(dp6304
S'NamedEntityTag'
p6305
g103
sS'CharacterOffsetEnd'
p6306
S'1623'
p6307
sS'Lemma'
p6308
S'motive'
p6309
sS'PartOfSpeech'
p6310
S'NNS'
p6311
sS'CharacterOffsetBegin'
p6312
S'1616'
p6313
stp6314
a(g482
(dp6315
S'NamedEntityTag'
p6316
g103
sS'CharacterOffsetEnd'
p6317
S'1624'
p6318
sS'Lemma'
p6319
g482
sS'PartOfSpeech'
p6320
g482
sS'CharacterOffsetBegin'
p6321
S'1623'
p6322
stp6323
a(S'wondering'
p6324
(dp6325
S'NamedEntityTag'
p6326
g103
sS'CharacterOffsetEnd'
p6327
S'1634'
p6328
sS'Lemma'
p6329
S'wonder'
p6330
sS'PartOfSpeech'
p6331
S'VBG'
p6332
sS'CharacterOffsetBegin'
p6333
S'1625'
p6334
stp6335
a(S'if'
p6336
(dp6337
S'NamedEntityTag'
p6338
g103
sS'CharacterOffsetEnd'
p6339
S'1637'
p6340
sS'Lemma'
p6341
S'if'
p6342
sS'PartOfSpeech'
p6343
S'IN'
p6344
sS'CharacterOffsetBegin'
p6345
S'1635'
p6346
stp6347
a(S'the'
p6348
(dp6349
S'NamedEntityTag'
p6350
g103
sS'CharacterOffsetEnd'
p6351
S'1641'
p6352
sS'Lemma'
p6353
S'the'
p6354
sS'PartOfSpeech'
p6355
S'DT'
p6356
sS'CharacterOffsetBegin'
p6357
S'1638'
p6358
stp6359
a(S'requested'
p6360
(dp6361
S'NamedEntityTag'
p6362
g103
sS'CharacterOffsetEnd'
p6363
S'1651'
p6364
sS'Lemma'
p6365
S'request'
p6366
sS'PartOfSpeech'
p6367
S'VBN'
p6368
sS'CharacterOffsetBegin'
p6369
S'1642'
p6370
stp6371
a(S'orbital'
p6372
(dp6373
S'NamedEntityTag'
p6374
g103
sS'CharacterOffsetEnd'
p6375
S'1659'
p6376
sS'Lemma'
p6377
S'orbital'
p6378
sS'PartOfSpeech'
p6379
S'JJ'
p6380
sS'CharacterOffsetBegin'
p6381
S'1652'
p6382
stp6383
a(S'change'
p6384
(dp6385
S'NamedEntityTag'
p6386
g103
sS'CharacterOffsetEnd'
p6387
S'1666'
p6388
sS'Lemma'
p6389
S'change'
p6390
sS'PartOfSpeech'
p6391
S'NN'
p6392
sS'CharacterOffsetBegin'
p6393
S'1660'
p6394
stp6395
a(S'was'
p6396
(dp6397
S'NamedEntityTag'
p6398
g103
sS'CharacterOffsetEnd'
p6399
S'1670'
p6400
sS'Lemma'
p6401
S'be'
p6402
sS'PartOfSpeech'
p6403
S'VBD'
p6404
sS'CharacterOffsetBegin'
p6405
S'1667'
p6406
stp6407
a(S'part'
p6408
(dp6409
S'NamedEntityTag'
p6410
g103
sS'CharacterOffsetEnd'
p6411
S'1675'
p6412
sS'Lemma'
p6413
S'part'
p6414
sS'PartOfSpeech'
p6415
S'NN'
p6416
sS'CharacterOffsetBegin'
p6417
S'1671'
p6418
stp6419
a(S'of'
p6420
(dp6421
S'NamedEntityTag'
p6422
g103
sS'CharacterOffsetEnd'
p6423
S'1678'
p6424
sS'Lemma'
p6425
S'of'
p6426
sS'PartOfSpeech'
p6427
S'IN'
p6428
sS'CharacterOffsetBegin'
p6429
S'1676'
p6430
stp6431
a(S'plan'
p6432
(dp6433
S'NamedEntityTag'
p6434
g103
sS'CharacterOffsetEnd'
p6435
S'1683'
p6436
sS'Lemma'
p6437
S'plan'
p6438
sS'PartOfSpeech'
p6439
S'NN'
p6440
sS'CharacterOffsetBegin'
p6441
S'1679'
p6442
stp6443
a(S'to'
p6444
(dp6445
S'NamedEntityTag'
p6446
g103
sS'CharacterOffsetEnd'
p6447
S'1686'
p6448
sS'Lemma'
p6449
S'to'
p6450
sS'PartOfSpeech'
p6451
S'TO'
p6452
sS'CharacterOffsetBegin'
p6453
S'1684'
p6454
stp6455
a(S'delay'
p6456
(dp6457
S'NamedEntityTag'
p6458
g103
sS'CharacterOffsetEnd'
p6459
S'1692'
p6460
sS'Lemma'
p6461
S'delay'
p6462
sS'PartOfSpeech'
p6463
S'VB'
p6464
sS'CharacterOffsetBegin'
p6465
S'1687'
p6466
stp6467
a(S'the'
p6468
(dp6469
S'NamedEntityTag'
p6470
g103
sS'CharacterOffsetEnd'
p6471
S'1696'
p6472
sS'Lemma'
p6473
S'the'
p6474
sS'PartOfSpeech'
p6475
S'DT'
p6476
sS'CharacterOffsetBegin'
p6477
S'1693'
p6478
stp6479
a(S'decommissioning'
p6480
(dp6481
S'NamedEntityTag'
p6482
g103
sS'CharacterOffsetEnd'
p6483
S'1712'
p6484
sS'Lemma'
p6485
S'decommissioning'
p6486
sS'PartOfSpeech'
p6487
S'NN'
p6488
sS'CharacterOffsetBegin'
p6489
S'1697'
p6490
stp6491
a(S'and'
p6492
(dp6493
S'NamedEntityTag'
p6494
g103
sS'CharacterOffsetEnd'
p6495
S'1716'
p6496
sS'Lemma'
p6497
S'and'
p6498
sS'PartOfSpeech'
p6499
S'CC'
p6500
sS'CharacterOffsetBegin'
p6501
S'1713'
p6502
stp6503
a(S'destruction'
p6504
(dp6505
S'NamedEntityTag'
p6506
g103
sS'CharacterOffsetEnd'
p6507
S'1728'
p6508
sS'Lemma'
p6509
S'destruction'
p6510
sS'PartOfSpeech'
p6511
S'NN'
p6512
sS'CharacterOffsetBegin'
p6513
S'1717'
p6514
stp6515
a(S'of'
p6516
(dp6517
S'NamedEntityTag'
p6518
g103
sS'CharacterOffsetEnd'
p6519
S'1731'
p6520
sS'Lemma'
p6521
S'of'
p6522
sS'PartOfSpeech'
p6523
S'IN'
p6524
sS'CharacterOffsetBegin'
p6525
S'1729'
p6526
stp6527
a(S'Mir'
p6528
(dp6529
S'NamedEntityTag'
p6530
g103
sS'CharacterOffsetEnd'
p6531
S'1735'
p6532
sS'Lemma'
p6533
S'mir'
p6534
sS'PartOfSpeech'
p6535
S'NNS'
p6536
sS'CharacterOffsetBegin'
p6537
S'1732'
p6538
stp6539
a(g482
(dp6540
S'NamedEntityTag'
p6541
g103
sS'CharacterOffsetEnd'
p6542
S'1736'
p6543
sS'Lemma'
p6544
g482
sS'PartOfSpeech'
p6545
g482
sS'CharacterOffsetBegin'
p6546
S'1735'
p6547
stp6548
a(S'which'
p6549
(dp6550
S'NamedEntityTag'
p6551
g103
sS'CharacterOffsetEnd'
p6552
S'1742'
p6553
sS'Lemma'
p6554
S'which'
p6555
sS'PartOfSpeech'
p6556
S'WDT'
p6557
sS'CharacterOffsetBegin'
p6558
S'1737'
p6559
stp6560
a(S'the'
p6561
(dp6562
S'NamedEntityTag'
p6563
g103
sS'CharacterOffsetEnd'
p6564
S'1746'
p6565
sS'Lemma'
p6566
S'the'
p6567
sS'PartOfSpeech'
p6568
S'DT'
p6569
sS'CharacterOffsetBegin'
p6570
S'1743'
p6571
stp6572
a(S'Russians'
p6573
(dp6574
S'NamedEntityTag'
p6575
S'MISC'
p6576
sS'CharacterOffsetEnd'
p6577
S'1755'
p6578
sS'Lemma'
p6579
S'Russians'
p6580
sS'PartOfSpeech'
p6581
S'NNPS'
p6582
sS'CharacterOffsetBegin'
p6583
S'1747'
p6584
stp6585
a(S'have'
p6586
(dp6587
S'NamedEntityTag'
p6588
g103
sS'CharacterOffsetEnd'
p6589
S'1760'
p6590
sS'Lemma'
p6591
S'have'
p6592
sS'PartOfSpeech'
p6593
S'VBP'
p6594
sS'CharacterOffsetBegin'
p6595
S'1756'
p6596
stp6597
a(S'agreed'
p6598
(dp6599
S'NamedEntityTag'
p6600
g103
sS'CharacterOffsetEnd'
p6601
S'1767'
p6602
sS'Lemma'
p6603
S'agree'
p6604
sS'PartOfSpeech'
p6605
S'VBN'
p6606
sS'CharacterOffsetBegin'
p6607
S'1761'
p6608
stp6609
a(S'to'
p6610
(dp6611
S'NamedEntityTag'
p6612
g103
sS'CharacterOffsetEnd'
p6613
S'1770'
p6614
sS'Lemma'
p6615
S'to'
p6616
sS'PartOfSpeech'
p6617
S'TO'
p6618
sS'CharacterOffsetBegin'
p6619
S'1768'
p6620
stp6621
a(S'do'
p6622
(dp6623
S'NamedEntityTag'
p6624
g103
sS'CharacterOffsetEnd'
p6625
S'1773'
p6626
sS'Lemma'
p6627
S'do'
p6628
sS'PartOfSpeech'
p6629
S'VB'
p6630
sS'CharacterOffsetBegin'
p6631
S'1771'
p6632
stp6633
a(S'next'
p6634
(dp6635
S'NormalizedNamedEntityTag'
p6636
S'XXXX-SU'
p6637
sS'Timex'
p6638
S'<TIMEX3 alt_value="XXXX-SU OFFSET P1Y" anchorTimeID="t9" temporalFunction="true" tid="t8" type="DATE" valueFromFunction="tf1">next summer</TIMEX3>'
p6639
sS'Lemma'
p6640
S'next'
p6641
sS'CharacterOffsetEnd'
p6642
S'1778'
p6643
sS'PartOfSpeech'
p6644
S'JJ'
p6645
sS'CharacterOffsetBegin'
p6646
S'1774'
p6647
sS'NamedEntityTag'
p6648
S'DATE'
p6649
stp6650
a(S'summer'
p6651
(dp6652
S'NormalizedNamedEntityTag'
p6653
S'XXXX-SU'
p6654
sS'Timex'
p6655
S'<TIMEX3 alt_value="XXXX-SU OFFSET P1Y" anchorTimeID="t9" temporalFunction="true" tid="t8" type="DATE" valueFromFunction="tf1">next summer</TIMEX3>'
p6656
sS'Lemma'
p6657
S'summer'
p6658
sS'CharacterOffsetEnd'
p6659
S'1785'
p6660
sS'PartOfSpeech'
p6661
S'NN'
p6662
sS'CharacterOffsetBegin'
p6663
S'1779'
p6664
sS'NamedEntityTag'
p6665
S'DATE'
p6666
stp6667
a(g233
(dp6668
S'NamedEntityTag'
p6669
g103
sS'CharacterOffsetEnd'
p6670
S'1786'
p6671
sS'Lemma'
p6672
g233
sS'PartOfSpeech'
p6673
g233
sS'CharacterOffsetBegin'
p6674
S'1785'
p6675
stp6676
asa(dp6677
g7
S'(ROOT (S (NP (DT The) (NNPS Russians)) (VP (VBP have) (NP (RB so) (JJ little) (NN money)) (SBAR (IN that) (S (NP (NP (DT the) (NNP United) (NNPS States)) (CC and) (NP (NP (JJ other) (NNS partners)) (PP (IN in) (NP (DT the) (JJ international) (NN station))))) (VP (VBP fear) (SBAR (IN that) (S (NP (NP (NN money)) (VP (VBN spent) (PP (IN on) (NP (NNS Mir))))) (VP (MD will) (VP (VB prevent) (NP (NNP Russia)) (PP (IN from) (S (VP (VBG meeting) (NP (PRP$ its) (NNS obligations)) (PP (IN with) (NP (DT the) (JJ new) (NN project)))))))))))))) (. .)))'
p6678
sg9
S'The Russians have so little money that the United States and other partners in the international station fear that money spent on Mir will prevent Russia from meeting its obligations with the new project.'
p6679
sg11
(lp6680
(S'root'
p6681
S'ROOT'
p6682
S'have'
p6683
tp6684
a(S'det'
p6685
S'Russians'
p6686
S'The'
p6687
tp6688
a(S'nsubj'
p6689
S'have'
p6690
S'Russians'
p6691
tp6692
a(S'advmod'
p6693
S'money'
p6694
S'so'
p6695
tp6696
a(S'amod'
p6697
S'money'
p6698
S'little'
p6699
tp6700
a(S'dobj'
p6701
S'have'
p6702
S'money'
p6703
tp6704
a(S'mark'
p6705
S'fear'
p6706
S'that'
p6707
tp6708
a(S'det'
p6709
S'States'
p6710
S'the'
p6711
tp6712
a(S'nn'
p6713
S'States'
p6714
S'United'
p6715
tp6716
a(S'nsubj'
p6717
S'fear'
p6718
S'States'
p6719
tp6720
a(S'amod'
p6721
S'partners'
p6722
S'other'
p6723
tp6724
a(S'conj_and'
p6725
S'States'
p6726
S'partners'
p6727
tp6728
a(S'det'
p6729
S'station'
p6730
S'the'
p6731
tp6732
a(S'amod'
p6733
S'station'
p6734
S'international'
p6735
tp6736
a(S'prep_in'
p6737
S'partners'
p6738
S'station'
p6739
tp6740
a(S'ccomp'
p6741
S'have'
p6742
S'fear'
p6743
tp6744
a(S'mark'
p6745
S'prevent'
p6746
S'that'
p6747
tp6748
a(S'nsubj'
p6749
S'prevent'
p6750
S'money'
p6751
tp6752
a(S'partmod'
p6753
S'money'
p6754
S'spent'
p6755
tp6756
a(S'prep_on'
p6757
S'spent'
p6758
S'Mir'
p6759
tp6760
a(S'aux'
p6761
S'prevent'
p6762
S'will'
p6763
tp6764
a(S'ccomp'
p6765
S'fear'
p6766
S'prevent'
p6767
tp6768
a(S'dobj'
p6769
S'prevent'
p6770
S'Russia'
p6771
tp6772
a(S'prepc_from'
p6773
S'prevent'
p6774
S'meeting'
p6775
tp6776
a(S'poss'
p6777
S'obligations'
p6778
S'its'
p6779
tp6780
a(S'dobj'
p6781
S'meeting'
p6782
S'obligations'
p6783
tp6784
a(S'det'
p6785
S'project'
p6786
S'the'
p6787
tp6788
a(S'amod'
p6789
S'project'
p6790
S'new'
p6791
tp6792
a(S'prep_with'
p6793
S'meeting'
p6794
S'project'
p6795
tp6796
asg53
(lp6797
(g6681
S'ROOT-0'
p6798
S'have-3'
p6799
tp6800
a(g6685
S'Russians-2'
p6801
S'The-1'
p6802
tp6803
a(g6689
S'have-3'
p6804
S'Russians-2'
p6805
tp6806
a(g6693
S'money-6'
p6807
S'so-4'
p6808
tp6809
a(g6697
S'money-6'
p6810
S'little-5'
p6811
tp6812
a(g6701
S'have-3'
p6813
S'money-6'
p6814
tp6815
a(g6705
S'fear-18'
p6816
S'that-7'
p6817
tp6818
a(g6709
S'States-10'
p6819
S'the-8'
p6820
tp6821
a(g6713
S'States-10'
p6822
S'United-9'
p6823
tp6824
a(g6717
S'fear-18'
p6825
S'States-10'
p6826
tp6827
a(g6721
S'partners-13'
p6828
S'other-12'
p6829
tp6830
a(g6725
S'States-10'
p6831
S'partners-13'
p6832
tp6833
a(g6729
S'station-17'
p6834
S'the-15'
p6835
tp6836
a(g6733
S'station-17'
p6837
S'international-16'
p6838
tp6839
a(g6737
S'partners-13'
p6840
S'station-17'
p6841
tp6842
a(g6741
S'have-3'
p6843
S'fear-18'
p6844
tp6845
a(g6745
S'prevent-25'
p6846
S'that-19'
p6847
tp6848
a(g6749
S'prevent-25'
p6849
S'money-20'
p6850
tp6851
a(g6753
S'money-20'
p6852
S'spent-21'
p6853
tp6854
a(g6757
S'spent-21'
p6855
S'Mir-23'
p6856
tp6857
a(g6761
S'prevent-25'
p6858
S'will-24'
p6859
tp6860
a(g6765
S'fear-18'
p6861
S'prevent-25'
p6862
tp6863
a(g6769
S'prevent-25'
p6864
S'Russia-26'
p6865
tp6866
a(g6773
S'prevent-25'
p6867
S'meeting-28'
p6868
tp6869
a(g6777
S'obligations-30'
p6870
S'its-29'
p6871
tp6872
a(g6781
S'meeting-28'
p6873
S'obligations-30'
p6874
tp6875
a(g6785
S'project-34'
p6876
S'the-32'
p6877
tp6878
a(g6789
S'project-34'
p6879
S'new-33'
p6880
tp6881
a(g6793
S'meeting-28'
p6882
S'project-34'
p6883
tp6884
asg85
(lp6885
(S'The'
p6886
(dp6887
S'NamedEntityTag'
p6888
g103
sS'CharacterOffsetEnd'
p6889
S'1790'
p6890
sS'Lemma'
p6891
S'the'
p6892
sS'PartOfSpeech'
p6893
S'DT'
p6894
sS'CharacterOffsetBegin'
p6895
S'1787'
p6896
stp6897
a(S'Russians'
p6898
(dp6899
S'NamedEntityTag'
p6900
S'MISC'
p6901
sS'CharacterOffsetEnd'
p6902
S'1799'
p6903
sS'Lemma'
p6904
S'Russians'
p6905
sS'PartOfSpeech'
p6906
S'NNPS'
p6907
sS'CharacterOffsetBegin'
p6908
S'1791'
p6909
stp6910
a(S'have'
p6911
(dp6912
S'NamedEntityTag'
p6913
g103
sS'CharacterOffsetEnd'
p6914
S'1804'
p6915
sS'Lemma'
p6916
S'have'
p6917
sS'PartOfSpeech'
p6918
S'VBP'
p6919
sS'CharacterOffsetBegin'
p6920
S'1800'
p6921
stp6922
a(S'so'
p6923
(dp6924
S'NamedEntityTag'
p6925
g103
sS'CharacterOffsetEnd'
p6926
S'1807'
p6927
sS'Lemma'
p6928
S'so'
p6929
sS'PartOfSpeech'
p6930
S'RB'
p6931
sS'CharacterOffsetBegin'
p6932
S'1805'
p6933
stp6934
a(S'little'
p6935
(dp6936
S'NamedEntityTag'
p6937
g103
sS'CharacterOffsetEnd'
p6938
S'1814'
p6939
sS'Lemma'
p6940
S'little'
p6941
sS'PartOfSpeech'
p6942
S'JJ'
p6943
sS'CharacterOffsetBegin'
p6944
S'1808'
p6945
stp6946
a(S'money'
p6947
(dp6948
S'NamedEntityTag'
p6949
g103
sS'CharacterOffsetEnd'
p6950
S'1820'
p6951
sS'Lemma'
p6952
S'money'
p6953
sS'PartOfSpeech'
p6954
S'NN'
p6955
sS'CharacterOffsetBegin'
p6956
S'1815'
p6957
stp6958
a(S'that'
p6959
(dp6960
S'NamedEntityTag'
p6961
g103
sS'CharacterOffsetEnd'
p6962
S'1825'
p6963
sS'Lemma'
p6964
S'that'
p6965
sS'PartOfSpeech'
p6966
S'IN'
p6967
sS'CharacterOffsetBegin'
p6968
S'1821'
p6969
stp6970
a(S'the'
p6971
(dp6972
S'NamedEntityTag'
p6973
g103
sS'CharacterOffsetEnd'
p6974
S'1829'
p6975
sS'Lemma'
p6976
S'the'
p6977
sS'PartOfSpeech'
p6978
S'DT'
p6979
sS'CharacterOffsetBegin'
p6980
S'1826'
p6981
stp6982
a(S'United'
p6983
(dp6984
S'NamedEntityTag'
p6985
S'LOCATION'
p6986
sS'CharacterOffsetEnd'
p6987
S'1836'
p6988
sS'Lemma'
p6989
S'United'
p6990
sS'PartOfSpeech'
p6991
S'NNP'
p6992
sS'CharacterOffsetBegin'
p6993
S'1830'
p6994
stp6995
a(S'States'
p6996
(dp6997
S'NamedEntityTag'
p6998
S'LOCATION'
p6999
sS'CharacterOffsetEnd'
p7000
S'1843'
p7001
sS'Lemma'
p7002
S'States'
p7003
sS'PartOfSpeech'
p7004
S'NNPS'
p7005
sS'CharacterOffsetBegin'
p7006
S'1837'
p7007
stp7008
a(S'and'
p7009
(dp7010
S'NamedEntityTag'
p7011
g103
sS'CharacterOffsetEnd'
p7012
S'1847'
p7013
sS'Lemma'
p7014
S'and'
p7015
sS'PartOfSpeech'
p7016
S'CC'
p7017
sS'CharacterOffsetBegin'
p7018
S'1844'
p7019
stp7020
a(S'other'
p7021
(dp7022
S'NamedEntityTag'
p7023
g103
sS'CharacterOffsetEnd'
p7024
S'1853'
p7025
sS'Lemma'
p7026
S'other'
p7027
sS'PartOfSpeech'
p7028
S'JJ'
p7029
sS'CharacterOffsetBegin'
p7030
S'1848'
p7031
stp7032
a(S'partners'
p7033
(dp7034
S'NamedEntityTag'
p7035
g103
sS'CharacterOffsetEnd'
p7036
S'1862'
p7037
sS'Lemma'
p7038
S'partner'
p7039
sS'PartOfSpeech'
p7040
S'NNS'
p7041
sS'CharacterOffsetBegin'
p7042
S'1854'
p7043
stp7044
a(S'in'
p7045
(dp7046
S'NamedEntityTag'
p7047
g103
sS'CharacterOffsetEnd'
p7048
S'1865'
p7049
sS'Lemma'
p7050
S'in'
p7051
sS'PartOfSpeech'
p7052
S'IN'
p7053
sS'CharacterOffsetBegin'
p7054
S'1863'
p7055
stp7056
a(S'the'
p7057
(dp7058
S'NamedEntityTag'
p7059
g103
sS'CharacterOffsetEnd'
p7060
S'1869'
p7061
sS'Lemma'
p7062
S'the'
p7063
sS'PartOfSpeech'
p7064
S'DT'
p7065
sS'CharacterOffsetBegin'
p7066
S'1866'
p7067
stp7068
a(S'international'
p7069
(dp7070
S'NamedEntityTag'
p7071
g103
sS'CharacterOffsetEnd'
p7072
S'1883'
p7073
sS'Lemma'
p7074
S'international'
p7075
sS'PartOfSpeech'
p7076
S'JJ'
p7077
sS'CharacterOffsetBegin'
p7078
S'1870'
p7079
stp7080
a(S'station'
p7081
(dp7082
S'NamedEntityTag'
p7083
g103
sS'CharacterOffsetEnd'
p7084
S'1891'
p7085
sS'Lemma'
p7086
S'station'
p7087
sS'PartOfSpeech'
p7088
S'NN'
p7089
sS'CharacterOffsetBegin'
p7090
S'1884'
p7091
stp7092
a(S'fear'
p7093
(dp7094
S'NamedEntityTag'
p7095
g103
sS'CharacterOffsetEnd'
p7096
S'1896'
p7097
sS'Lemma'
p7098
S'fear'
p7099
sS'PartOfSpeech'
p7100
S'VBP'
p7101
sS'CharacterOffsetBegin'
p7102
S'1892'
p7103
stp7104
a(S'that'
p7105
(dp7106
S'NamedEntityTag'
p7107
g103
sS'CharacterOffsetEnd'
p7108
S'1901'
p7109
sS'Lemma'
p7110
S'that'
p7111
sS'PartOfSpeech'
p7112
S'IN'
p7113
sS'CharacterOffsetBegin'
p7114
S'1897'
p7115
stp7116
a(S'money'
p7117
(dp7118
S'NamedEntityTag'
p7119
g103
sS'CharacterOffsetEnd'
p7120
S'1907'
p7121
sS'Lemma'
p7122
S'money'
p7123
sS'PartOfSpeech'
p7124
S'NN'
p7125
sS'CharacterOffsetBegin'
p7126
S'1902'
p7127
stp7128
a(S'spent'
p7129
(dp7130
S'NamedEntityTag'
p7131
g103
sS'CharacterOffsetEnd'
p7132
S'1913'
p7133
sS'Lemma'
p7134
S'spend'
p7135
sS'PartOfSpeech'
p7136
S'VBN'
p7137
sS'CharacterOffsetBegin'
p7138
S'1908'
p7139
stp7140
a(S'on'
p7141
(dp7142
S'NamedEntityTag'
p7143
g103
sS'CharacterOffsetEnd'
p7144
S'1916'
p7145
sS'Lemma'
p7146
S'on'
p7147
sS'PartOfSpeech'
p7148
S'IN'
p7149
sS'CharacterOffsetBegin'
p7150
S'1914'
p7151
stp7152
a(S'Mir'
p7153
(dp7154
S'NamedEntityTag'
p7155
S'MISC'
p7156
sS'CharacterOffsetEnd'
p7157
S'1920'
p7158
sS'Lemma'
p7159
S'mir'
p7160
sS'PartOfSpeech'
p7161
S'NNS'
p7162
sS'CharacterOffsetBegin'
p7163
S'1917'
p7164
stp7165
a(S'will'
p7166
(dp7167
S'NamedEntityTag'
p7168
g103
sS'CharacterOffsetEnd'
p7169
S'1925'
p7170
sS'Lemma'
p7171
S'will'
p7172
sS'PartOfSpeech'
p7173
S'MD'
p7174
sS'CharacterOffsetBegin'
p7175
S'1921'
p7176
stp7177
a(S'prevent'
p7178
(dp7179
S'NamedEntityTag'
p7180
g103
sS'CharacterOffsetEnd'
p7181
S'1933'
p7182
sS'Lemma'
p7183
S'prevent'
p7184
sS'PartOfSpeech'
p7185
S'VB'
p7186
sS'CharacterOffsetBegin'
p7187
S'1926'
p7188
stp7189
a(S'Russia'
p7190
(dp7191
S'NamedEntityTag'
p7192
S'LOCATION'
p7193
sS'CharacterOffsetEnd'
p7194
S'1940'
p7195
sS'Lemma'
p7196
S'Russia'
p7197
sS'PartOfSpeech'
p7198
S'NNP'
p7199
sS'CharacterOffsetBegin'
p7200
S'1934'
p7201
stp7202
a(S'from'
p7203
(dp7204
S'NamedEntityTag'
p7205
g103
sS'CharacterOffsetEnd'
p7206
S'1945'
p7207
sS'Lemma'
p7208
S'from'
p7209
sS'PartOfSpeech'
p7210
S'IN'
p7211
sS'CharacterOffsetBegin'
p7212
S'1941'
p7213
stp7214
a(S'meeting'
p7215
(dp7216
S'NamedEntityTag'
p7217
g103
sS'CharacterOffsetEnd'
p7218
S'1953'
p7219
sS'Lemma'
p7220
S'meet'
p7221
sS'PartOfSpeech'
p7222
S'VBG'
p7223
sS'CharacterOffsetBegin'
p7224
S'1946'
p7225
stp7226
a(S'its'
p7227
(dp7228
S'NamedEntityTag'
p7229
g103
sS'CharacterOffsetEnd'
p7230
S'1957'
p7231
sS'Lemma'
p7232
S'its'
p7233
sS'PartOfSpeech'
p7234
S'PRP$'
p7235
sS'CharacterOffsetBegin'
p7236
S'1954'
p7237
stp7238
a(S'obligations'
p7239
(dp7240
S'NamedEntityTag'
p7241
g103
sS'CharacterOffsetEnd'
p7242
S'1969'
p7243
sS'Lemma'
p7244
S'obligation'
p7245
sS'PartOfSpeech'
p7246
S'NNS'
p7247
sS'CharacterOffsetBegin'
p7248
S'1958'
p7249
stp7250
a(S'with'
p7251
(dp7252
S'NamedEntityTag'
p7253
g103
sS'CharacterOffsetEnd'
p7254
S'1974'
p7255
sS'Lemma'
p7256
S'with'
p7257
sS'PartOfSpeech'
p7258
S'IN'
p7259
sS'CharacterOffsetBegin'
p7260
S'1970'
p7261
stp7262
a(S'the'
p7263
(dp7264
S'NamedEntityTag'
p7265
g103
sS'CharacterOffsetEnd'
p7266
S'1978'
p7267
sS'Lemma'
p7268
S'the'
p7269
sS'PartOfSpeech'
p7270
S'DT'
p7271
sS'CharacterOffsetBegin'
p7272
S'1975'
p7273
stp7274
a(S'new'
p7275
(dp7276
S'NamedEntityTag'
p7277
g103
sS'CharacterOffsetEnd'
p7278
S'1982'
p7279
sS'Lemma'
p7280
S'new'
p7281
sS'PartOfSpeech'
p7282
S'JJ'
p7283
sS'CharacterOffsetBegin'
p7284
S'1979'
p7285
stp7286
a(S'project'
p7287
(dp7288
S'NamedEntityTag'
p7289
g103
sS'CharacterOffsetEnd'
p7290
S'1990'
p7291
sS'Lemma'
p7292
S'project'
p7293
sS'PartOfSpeech'
p7294
S'NN'
p7295
sS'CharacterOffsetBegin'
p7296
S'1983'
p7297
stp7298
a(g233
(dp7299
S'NamedEntityTag'
p7300
g103
sS'CharacterOffsetEnd'
p7301
S'1991'
p7302
sS'Lemma'
p7303
g233
sS'PartOfSpeech'
p7304
g233
sS'CharacterOffsetBegin'
p7305
S'1990'
p7306
stp7307
asa(dp7308
g7
S'(ROOT (S (S (NP (DT The) (NNS Mir)) (VP (VBZ competes) (PP (IN with) (NP (NP (DT the) (JJ international) (NN space) (NN station)) (PP (IN for) (NP (ADJP (RB very) (JJ critical)) (NNS resources))))))) (CC and) (S (PP (IN for) (NP (NN funding))) (, ,) (NP (NNP Brinkley)) (VP (VBD said))) (. .)))'
p7309
sg9
S'The Mir competes with the international space station for very critical resources and for funding, Brinkley said.'
p7310
sg11
(lp7311
(S'root'
p7312
S'ROOT'
p7313
S'competes'
p7314
tp7315
a(S'det'
p7316
S'Mir'
p7317
S'The'
p7318
tp7319
a(S'nsubj'
p7320
S'competes'
p7321
S'Mir'
p7322
tp7323
a(S'det'
p7324
S'station'
p7325
S'the'
p7326
tp7327
a(S'amod'
p7328
S'station'
p7329
S'international'
p7330
tp7331
a(S'nn'
p7332
S'station'
p7333
S'space'
p7334
tp7335
a(S'prep_with'
p7336
S'competes'
p7337
S'station'
p7338
tp7339
a(S'advmod'
p7340
S'critical'
p7341
S'very'
p7342
tp7343
a(S'amod'
p7344
S'resources'
p7345
S'critical'
p7346
tp7347
a(S'prep_for'
p7348
S'station'
p7349
S'resources'
p7350
tp7351
a(S'prep_for'
p7352
S'said'
p7353
S'funding'
p7354
tp7355
a(S'nsubj'
p7356
S'said'
p7357
S'Brinkley'
p7358
tp7359
a(S'conj_and'
p7360
S'competes'
p7361
S'said'
p7362
tp7363
asg53
(lp7364
(g7312
S'ROOT-0'
p7365
S'competes-3'
p7366
tp7367
a(g7316
S'Mir-2'
p7368
S'The-1'
p7369
tp7370
a(g7320
S'competes-3'
p7371
S'Mir-2'
p7372
tp7373
a(g7324
S'station-8'
p7374
S'the-5'
p7375
tp7376
a(g7328
S'station-8'
p7377
S'international-6'
p7378
tp7379
a(g7332
S'station-8'
p7380
S'space-7'
p7381
tp7382
a(g7336
S'competes-3'
p7383
S'station-8'
p7384
tp7385
a(g7340
S'critical-11'
p7386
S'very-10'
p7387
tp7388
a(g7344
S'resources-12'
p7389
S'critical-11'
p7390
tp7391
a(g7348
S'station-8'
p7392
S'resources-12'
p7393
tp7394
a(g7352
S'said-18'
p7395
S'funding-15'
p7396
tp7397
a(g7356
S'said-18'
p7398
S'Brinkley-17'
p7399
tp7400
a(g7360
S'competes-3'
p7401
S'said-18'
p7402
tp7403
asg85
(lp7404
(S'The'
p7405
(dp7406
S'NamedEntityTag'
p7407
g103
sS'CharacterOffsetEnd'
p7408
S'1995'
p7409
sS'Lemma'
p7410
S'the'
p7411
sS'PartOfSpeech'
p7412
S'DT'
p7413
sS'CharacterOffsetBegin'
p7414
S'1992'
p7415
stp7416
a(S'Mir'
p7417
(dp7418
S'NamedEntityTag'
p7419
S'MISC'
p7420
sS'CharacterOffsetEnd'
p7421
S'1999'
p7422
sS'Lemma'
p7423
S'mir'
p7424
sS'PartOfSpeech'
p7425
S'NNS'
p7426
sS'CharacterOffsetBegin'
p7427
S'1996'
p7428
stp7429
a(S'competes'
p7430
(dp7431
S'NamedEntityTag'
p7432
g103
sS'CharacterOffsetEnd'
p7433
S'2008'
p7434
sS'Lemma'
p7435
S'compete'
p7436
sS'PartOfSpeech'
p7437
S'VBZ'
p7438
sS'CharacterOffsetBegin'
p7439
S'2000'
p7440
stp7441
a(S'with'
p7442
(dp7443
S'NamedEntityTag'
p7444
g103
sS'CharacterOffsetEnd'
p7445
S'2013'
p7446
sS'Lemma'
p7447
S'with'
p7448
sS'PartOfSpeech'
p7449
S'IN'
p7450
sS'CharacterOffsetBegin'
p7451
S'2009'
p7452
stp7453
a(S'the'
p7454
(dp7455
S'NamedEntityTag'
p7456
g103
sS'CharacterOffsetEnd'
p7457
S'2017'
p7458
sS'Lemma'
p7459
S'the'
p7460
sS'PartOfSpeech'
p7461
S'DT'
p7462
sS'CharacterOffsetBegin'
p7463
S'2014'
p7464
stp7465
a(S'international'
p7466
(dp7467
S'NamedEntityTag'
p7468
g103
sS'CharacterOffsetEnd'
p7469
S'2031'
p7470
sS'Lemma'
p7471
S'international'
p7472
sS'PartOfSpeech'
p7473
S'JJ'
p7474
sS'CharacterOffsetBegin'
p7475
S'2018'
p7476
stp7477
a(S'space'
p7478
(dp7479
S'NamedEntityTag'
p7480
g103
sS'CharacterOffsetEnd'
p7481
S'2037'
p7482
sS'Lemma'
p7483
S'space'
p7484
sS'PartOfSpeech'
p7485
S'NN'
p7486
sS'CharacterOffsetBegin'
p7487
S'2032'
p7488
stp7489
a(S'station'
p7490
(dp7491
S'NamedEntityTag'
p7492
g103
sS'CharacterOffsetEnd'
p7493
S'2045'
p7494
sS'Lemma'
p7495
S'station'
p7496
sS'PartOfSpeech'
p7497
S'NN'
p7498
sS'CharacterOffsetBegin'
p7499
S'2038'
p7500
stp7501
a(S'for'
p7502
(dp7503
S'NamedEntityTag'
p7504
g103
sS'CharacterOffsetEnd'
p7505
S'2049'
p7506
sS'Lemma'
p7507
S'for'
p7508
sS'PartOfSpeech'
p7509
S'IN'
p7510
sS'CharacterOffsetBegin'
p7511
S'2046'
p7512
stp7513
a(S'very'
p7514
(dp7515
S'NamedEntityTag'
p7516
g103
sS'CharacterOffsetEnd'
p7517
S'2054'
p7518
sS'Lemma'
p7519
S'very'
p7520
sS'PartOfSpeech'
p7521
S'RB'
p7522
sS'CharacterOffsetBegin'
p7523
S'2050'
p7524
stp7525
a(S'critical'
p7526
(dp7527
S'NamedEntityTag'
p7528
g103
sS'CharacterOffsetEnd'
p7529
S'2063'
p7530
sS'Lemma'
p7531
S'critical'
p7532
sS'PartOfSpeech'
p7533
S'JJ'
p7534
sS'CharacterOffsetBegin'
p7535
S'2055'
p7536
stp7537
a(S'resources'
p7538
(dp7539
S'NamedEntityTag'
p7540
g103
sS'CharacterOffsetEnd'
p7541
S'2073'
p7542
sS'Lemma'
p7543
S'resource'
p7544
sS'PartOfSpeech'
p7545
S'NNS'
p7546
sS'CharacterOffsetBegin'
p7547
S'2064'
p7548
stp7549
a(S'and'
p7550
(dp7551
S'NamedEntityTag'
p7552
g103
sS'CharacterOffsetEnd'
p7553
S'2077'
p7554
sS'Lemma'
p7555
S'and'
p7556
sS'PartOfSpeech'
p7557
S'CC'
p7558
sS'CharacterOffsetBegin'
p7559
S'2074'
p7560
stp7561
a(S'for'
p7562
(dp7563
S'NamedEntityTag'
p7564
g103
sS'CharacterOffsetEnd'
p7565
S'2081'
p7566
sS'Lemma'
p7567
S'for'
p7568
sS'PartOfSpeech'
p7569
S'IN'
p7570
sS'CharacterOffsetBegin'
p7571
S'2078'
p7572
stp7573
a(S'funding'
p7574
(dp7575
S'NamedEntityTag'
p7576
g103
sS'CharacterOffsetEnd'
p7577
S'2089'
p7578
sS'Lemma'
p7579
S'funding'
p7580
sS'PartOfSpeech'
p7581
S'NN'
p7582
sS'CharacterOffsetBegin'
p7583
S'2082'
p7584
stp7585
a(g482
(dp7586
S'NamedEntityTag'
p7587
g103
sS'CharacterOffsetEnd'
p7588
S'2090'
p7589
sS'Lemma'
p7590
g482
sS'PartOfSpeech'
p7591
g482
sS'CharacterOffsetBegin'
p7592
S'2089'
p7593
stp7594
a(S'Brinkley'
p7595
(dp7596
S'NamedEntityTag'
p7597
S'PERSON'
p7598
sS'CharacterOffsetEnd'
p7599
S'2099'
p7600
sS'Lemma'
p7601
S'Brinkley'
p7602
sS'PartOfSpeech'
p7603
S'NNP'
p7604
sS'CharacterOffsetBegin'
p7605
S'2091'
p7606
stp7607
a(S'said'
p7608
(dp7609
S'NamedEntityTag'
p7610
g103
sS'CharacterOffsetEnd'
p7611
S'2104'
p7612
sS'Lemma'
p7613
S'say'
p7614
sS'PartOfSpeech'
p7615
S'VBD'
p7616
sS'CharacterOffsetBegin'
p7617
S'2100'
p7618
stp7619
a(g233
(dp7620
S'NamedEntityTag'
p7621
g103
sS'CharacterOffsetEnd'
p7622
S'2105'
p7623
sS'Lemma'
p7624
g233
sS'PartOfSpeech'
p7625
g233
sS'CharacterOffsetBegin'
p7626
S'2104'
p7627
stp7628
asa(dp7629
g7
S'(ROOT (S (S (NP (NNP NASA)) (VP (MD will) (VP (VB consider) (NP (NNS ideas)) (PP (IN for) (S (VP (VBG salvaging) (S (NP (NNP Mirs) (NN research) (NN equipment)) (VP (TO to) (VP (VB use) (PP (IN on) (NP (DT the) (JJ international) (NN space) (NN station)))))))))))) (, ,) (NP (PRP he)) (VP (VBD said) (, ,) (CC but) (ADVP (RB only)) (SBAR (IN if) (S (NP (PRP it)) (VP (VBZ does) (RB not) (VP (VB interfere) (PP (IN with) (S (VP (VBG assembling) (NP (DT the) (JJ new) (NN station)))))))))) (. .)))'
p7630
sg9
S'NASA will consider ideas for salvaging Mirs research equipment to use on the international space station, he said, but only if it does not interfere with assembling the new station.'
p7631
sg11
(lp7632
(S'root'
p7633
S'ROOT'
p7634
S'said'
p7635
tp7636
a(S'nsubj'
p7637
S'consider'
p7638
S'NASA'
p7639
tp7640
a(S'aux'
p7641
S'consider'
p7642
S'will'
p7643
tp7644
a(S'ccomp'
p7645
S'said'
p7646
S'consider'
p7647
tp7648
a(S'dobj'
p7649
S'consider'
p7650
S'ideas'
p7651
tp7652
a(S'prepc_for'
p7653
S'consider'
p7654
S'salvaging'
p7655
tp7656
a(S'nn'
p7657
S'equipment'
p7658
S'Mirs'
p7659
tp7660
a(S'nn'
p7661
S'equipment'
p7662
S'research'
p7663
tp7664
a(S'nsubj'
p7665
S'use'
p7666
S'equipment'
p7667
tp7668
a(S'aux'
p7669
S'use'
p7670
S'to'
p7671
tp7672
a(S'xcomp'
p7673
S'salvaging'
p7674
S'use'
p7675
tp7676
a(S'det'
p7677
S'station'
p7678
S'the'
p7679
tp7680
a(S'amod'
p7681
S'station'
p7682
S'international'
p7683
tp7684
a(S'nn'
p7685
S'station'
p7686
S'space'
p7687
tp7688
a(S'prep_on'
p7689
S'use'
p7690
S'station'
p7691
tp7692
a(S'nsubj'
p7693
S'said'
p7694
S'he'
p7695
tp7696
a(S'cc'
p7697
S'said'
p7698
S'but'
p7699
tp7700
a(S'advmod'
p7701
S'said'
p7702
S'only'
p7703
tp7704
a(S'mark'
p7705
S'interfere'
p7706
S'if'
p7707
tp7708
a(S'nsubj'
p7709
S'interfere'
p7710
S'it'
p7711
tp7712
a(S'aux'
p7713
S'interfere'
p7714
S'does'
p7715
tp7716
a(S'neg'
p7717
S'interfere'
p7718
S'not'
p7719
tp7720
a(S'advcl'
p7721
S'said'
p7722
S'interfere'
p7723
tp7724
a(S'prepc_with'
p7725
S'interfere'
p7726
S'assembling'
p7727
tp7728
a(S'det'
p7729
S'station'
p7730
S'the'
p7731
tp7732
a(S'amod'
p7733
S'station'
p7734
S'new'
p7735
tp7736
a(S'dobj'
p7737
S'assembling'
p7738
S'station'
p7739
tp7740
asg53
(lp7741
(g7633
S'ROOT-0'
p7742
S'said-19'
p7743
tp7744
a(g7637
S'consider-3'
p7745
S'NASA-1'
p7746
tp7747
a(g7641
S'consider-3'
p7748
S'will-2'
p7749
tp7750
a(g7645
S'said-19'
p7751
S'consider-3'
p7752
tp7753
a(g7649
S'consider-3'
p7754
S'ideas-4'
p7755
tp7756
a(g7653
S'consider-3'
p7757
S'salvaging-6'
p7758
tp7759
a(g7657
S'equipment-9'
p7760
S'Mirs-7'
p7761
tp7762
a(g7661
S'equipment-9'
p7763
S'research-8'
p7764
tp7765
a(g7665
S'use-11'
p7766
S'equipment-9'
p7767
tp7768
a(g7669
S'use-11'
p7769
S'to-10'
p7770
tp7771
a(g7673
S'salvaging-6'
p7772
S'use-11'
p7773
tp7774
a(g7677
S'station-16'
p7775
S'the-13'
p7776
tp7777
a(g7681
S'station-16'
p7778
S'international-14'
p7779
tp7780
a(g7685
S'station-16'
p7781
S'space-15'
p7782
tp7783
a(g7689
S'use-11'
p7784
S'station-16'
p7785
tp7786
a(g7693
S'said-19'
p7787
S'he-18'
p7788
tp7789
a(g7697
S'said-19'
p7790
S'but-21'
p7791
tp7792
a(g7701
S'said-19'
p7793
S'only-22'
p7794
tp7795
a(g7705
S'interfere-27'
p7796
S'if-23'
p7797
tp7798
a(g7709
S'interfere-27'
p7799
S'it-24'
p7800
tp7801
a(g7713
S'interfere-27'
p7802
S'does-25'
p7803
tp7804
a(g7717
S'interfere-27'
p7805
S'not-26'
p7806
tp7807
a(g7721
S'said-19'
p7808
S'interfere-27'
p7809
tp7810
a(g7725
S'interfere-27'
p7811
S'assembling-29'
p7812
tp7813
a(g7729
S'station-32'
p7814
S'the-30'
p7815
tp7816
a(g7733
S'station-32'
p7817
S'new-31'
p7818
tp7819
a(g7737
S'assembling-29'
p7820
S'station-32'
p7821
tp7822
asg85
(lp7823
(S'NASA'
p7824
(dp7825
S'NamedEntityTag'
p7826
S'ORGANIZATION'
p7827
sS'CharacterOffsetEnd'
p7828
S'2110'
p7829
sS'Lemma'
p7830
S'NASA'
p7831
sS'PartOfSpeech'
p7832
S'NNP'
p7833
sS'CharacterOffsetBegin'
p7834
S'2106'
p7835
stp7836
a(S'will'
p7837
(dp7838
S'NamedEntityTag'
p7839
g103
sS'CharacterOffsetEnd'
p7840
S'2115'
p7841
sS'Lemma'
p7842
S'will'
p7843
sS'PartOfSpeech'
p7844
S'MD'
p7845
sS'CharacterOffsetBegin'
p7846
S'2111'
p7847
stp7848
a(S'consider'
p7849
(dp7850
S'NamedEntityTag'
p7851
g103
sS'CharacterOffsetEnd'
p7852
S'2124'
p7853
sS'Lemma'
p7854
S'consider'
p7855
sS'PartOfSpeech'
p7856
S'VB'
p7857
sS'CharacterOffsetBegin'
p7858
S'2116'
p7859
stp7860
a(S'ideas'
p7861
(dp7862
S'NamedEntityTag'
p7863
g103
sS'CharacterOffsetEnd'
p7864
S'2130'
p7865
sS'Lemma'
p7866
S'idea'
p7867
sS'PartOfSpeech'
p7868
S'NNS'
p7869
sS'CharacterOffsetBegin'
p7870
S'2125'
p7871
stp7872
a(S'for'
p7873
(dp7874
S'NamedEntityTag'
p7875
g103
sS'CharacterOffsetEnd'
p7876
S'2134'
p7877
sS'Lemma'
p7878
S'for'
p7879
sS'PartOfSpeech'
p7880
S'IN'
p7881
sS'CharacterOffsetBegin'
p7882
S'2131'
p7883
stp7884
a(S'salvaging'
p7885
(dp7886
S'NamedEntityTag'
p7887
g103
sS'CharacterOffsetEnd'
p7888
S'2144'
p7889
sS'Lemma'
p7890
S'salvage'
p7891
sS'PartOfSpeech'
p7892
S'VBG'
p7893
sS'CharacterOffsetBegin'
p7894
S'2135'
p7895
stp7896
a(S'Mirs'
p7897
(dp7898
S'NamedEntityTag'
p7899
S'ORGANIZATION'
p7900
sS'CharacterOffsetEnd'
p7901
S'2149'
p7902
sS'Lemma'
p7903
S'Mirs'
p7904
sS'PartOfSpeech'
p7905
S'NNP'
p7906
sS'CharacterOffsetBegin'
p7907
S'2145'
p7908
stp7909
a(S'research'
p7910
(dp7911
S'NamedEntityTag'
p7912
g103
sS'CharacterOffsetEnd'
p7913
S'2158'
p7914
sS'Lemma'
p7915
S'research'
p7916
sS'PartOfSpeech'
p7917
S'NN'
p7918
sS'CharacterOffsetBegin'
p7919
S'2150'
p7920
stp7921
a(S'equipment'
p7922
(dp7923
S'NamedEntityTag'
p7924
g103
sS'CharacterOffsetEnd'
p7925
S'2168'
p7926
sS'Lemma'
p7927
S'equipment'
p7928
sS'PartOfSpeech'
p7929
S'NN'
p7930
sS'CharacterOffsetBegin'
p7931
S'2159'
p7932
stp7933
a(S'to'
p7934
(dp7935
S'NamedEntityTag'
p7936
g103
sS'CharacterOffsetEnd'
p7937
S'2171'
p7938
sS'Lemma'
p7939
S'to'
p7940
sS'PartOfSpeech'
p7941
S'TO'
p7942
sS'CharacterOffsetBegin'
p7943
S'2169'
p7944
stp7945
a(S'use'
p7946
(dp7947
S'NamedEntityTag'
p7948
g103
sS'CharacterOffsetEnd'
p7949
S'2175'
p7950
sS'Lemma'
p7951
S'use'
p7952
sS'PartOfSpeech'
p7953
S'VB'
p7954
sS'CharacterOffsetBegin'
p7955
S'2172'
p7956
stp7957
a(S'on'
p7958
(dp7959
S'NamedEntityTag'
p7960
g103
sS'CharacterOffsetEnd'
p7961
S'2178'
p7962
sS'Lemma'
p7963
S'on'
p7964
sS'PartOfSpeech'
p7965
S'IN'
p7966
sS'CharacterOffsetBegin'
p7967
S'2176'
p7968
stp7969
a(S'the'
p7970
(dp7971
S'NamedEntityTag'
p7972
g103
sS'CharacterOffsetEnd'
p7973
S'2182'
p7974
sS'Lemma'
p7975
S'the'
p7976
sS'PartOfSpeech'
p7977
S'DT'
p7978
sS'CharacterOffsetBegin'
p7979
S'2179'
p7980
stp7981
a(S'international'
p7982
(dp7983
S'NamedEntityTag'
p7984
g103
sS'CharacterOffsetEnd'
p7985
S'2196'
p7986
sS'Lemma'
p7987
S'international'
p7988
sS'PartOfSpeech'
p7989
S'JJ'
p7990
sS'CharacterOffsetBegin'
p7991
S'2183'
p7992
stp7993
a(S'space'
p7994
(dp7995
S'NamedEntityTag'
p7996
g103
sS'CharacterOffsetEnd'
p7997
S'2202'
p7998
sS'Lemma'
p7999
S'space'
p8000
sS'PartOfSpeech'
p8001
S'NN'
p8002
sS'CharacterOffsetBegin'
p8003
S'2197'
p8004
stp8005
a(S'station'
p8006
(dp8007
S'NamedEntityTag'
p8008
g103
sS'CharacterOffsetEnd'
p8009
S'2210'
p8010
sS'Lemma'
p8011
S'station'
p8012
sS'PartOfSpeech'
p8013
S'NN'
p8014
sS'CharacterOffsetBegin'
p8015
S'2203'
p8016
stp8017
a(g482
(dp8018
S'NamedEntityTag'
p8019
g103
sS'CharacterOffsetEnd'
p8020
S'2211'
p8021
sS'Lemma'
p8022
g482
sS'PartOfSpeech'
p8023
g482
sS'CharacterOffsetBegin'
p8024
S'2210'
p8025
stp8026
a(S'he'
p8027
(dp8028
S'NamedEntityTag'
p8029
g103
sS'CharacterOffsetEnd'
p8030
S'2214'
p8031
sS'Lemma'
p8032
S'he'
p8033
sS'PartOfSpeech'
p8034
S'PRP'
p8035
sS'CharacterOffsetBegin'
p8036
S'2212'
p8037
stp8038
a(S'said'
p8039
(dp8040
S'NamedEntityTag'
p8041
g103
sS'CharacterOffsetEnd'
p8042
S'2219'
p8043
sS'Lemma'
p8044
S'say'
p8045
sS'PartOfSpeech'
p8046
S'VBD'
p8047
sS'CharacterOffsetBegin'
p8048
S'2215'
p8049
stp8050
a(g482
(dp8051
S'NamedEntityTag'
p8052
g103
sS'CharacterOffsetEnd'
p8053
S'2220'
p8054
sS'Lemma'
p8055
g482
sS'PartOfSpeech'
p8056
g482
sS'CharacterOffsetBegin'
p8057
S'2219'
p8058
stp8059
a(S'but'
p8060
(dp8061
S'NamedEntityTag'
p8062
g103
sS'CharacterOffsetEnd'
p8063
S'2224'
p8064
sS'Lemma'
p8065
S'but'
p8066
sS'PartOfSpeech'
p8067
S'CC'
p8068
sS'CharacterOffsetBegin'
p8069
S'2221'
p8070
stp8071
a(S'only'
p8072
(dp8073
S'NamedEntityTag'
p8074
g103
sS'CharacterOffsetEnd'
p8075
S'2229'
p8076
sS'Lemma'
p8077
S'only'
p8078
sS'PartOfSpeech'
p8079
S'RB'
p8080
sS'CharacterOffsetBegin'
p8081
S'2225'
p8082
stp8083
a(S'if'
p8084
(dp8085
S'NamedEntityTag'
p8086
g103
sS'CharacterOffsetEnd'
p8087
S'2232'
p8088
sS'Lemma'
p8089
S'if'
p8090
sS'PartOfSpeech'
p8091
S'IN'
p8092
sS'CharacterOffsetBegin'
p8093
S'2230'
p8094
stp8095
a(S'it'
p8096
(dp8097
S'NamedEntityTag'
p8098
g103
sS'CharacterOffsetEnd'
p8099
S'2235'
p8100
sS'Lemma'
p8101
S'it'
p8102
sS'PartOfSpeech'
p8103
S'PRP'
p8104
sS'CharacterOffsetBegin'
p8105
S'2233'
p8106
stp8107
a(S'does'
p8108
(dp8109
S'NamedEntityTag'
p8110
g103
sS'CharacterOffsetEnd'
p8111
S'2240'
p8112
sS'Lemma'
p8113
S'do'
p8114
sS'PartOfSpeech'
p8115
S'VBZ'
p8116
sS'CharacterOffsetBegin'
p8117
S'2236'
p8118
stp8119
a(S'not'
p8120
(dp8121
S'NamedEntityTag'
p8122
g103
sS'CharacterOffsetEnd'
p8123
S'2244'
p8124
sS'Lemma'
p8125
S'not'
p8126
sS'PartOfSpeech'
p8127
S'RB'
p8128
sS'CharacterOffsetBegin'
p8129
S'2241'
p8130
stp8131
a(S'interfere'
p8132
(dp8133
S'NamedEntityTag'
p8134
g103
sS'CharacterOffsetEnd'
p8135
S'2254'
p8136
sS'Lemma'
p8137
S'interfere'
p8138
sS'PartOfSpeech'
p8139
S'VB'
p8140
sS'CharacterOffsetBegin'
p8141
S'2245'
p8142
stp8143
a(S'with'
p8144
(dp8145
S'NamedEntityTag'
p8146
g103
sS'CharacterOffsetEnd'
p8147
S'2259'
p8148
sS'Lemma'
p8149
S'with'
p8150
sS'PartOfSpeech'
p8151
S'IN'
p8152
sS'CharacterOffsetBegin'
p8153
S'2255'
p8154
stp8155
a(S'assembling'
p8156
(dp8157
S'NamedEntityTag'
p8158
g103
sS'CharacterOffsetEnd'
p8159
S'2270'
p8160
sS'Lemma'
p8161
S'assemble'
p8162
sS'PartOfSpeech'
p8163
S'VBG'
p8164
sS'CharacterOffsetBegin'
p8165
S'2260'
p8166
stp8167
a(S'the'
p8168
(dp8169
S'NamedEntityTag'
p8170
g103
sS'CharacterOffsetEnd'
p8171
S'2274'
p8172
sS'Lemma'
p8173
S'the'
p8174
sS'PartOfSpeech'
p8175
S'DT'
p8176
sS'CharacterOffsetBegin'
p8177
S'2271'
p8178
stp8179
a(S'new'
p8180
(dp8181
S'NamedEntityTag'
p8182
g103
sS'CharacterOffsetEnd'
p8183
S'2278'
p8184
sS'Lemma'
p8185
S'new'
p8186
sS'PartOfSpeech'
p8187
S'JJ'
p8188
sS'CharacterOffsetBegin'
p8189
S'2275'
p8190
stp8191
a(S'station'
p8192
(dp8193
S'NamedEntityTag'
p8194
g103
sS'CharacterOffsetEnd'
p8195
S'2286'
p8196
sS'Lemma'
p8197
S'station'
p8198
sS'PartOfSpeech'
p8199
S'NN'
p8200
sS'CharacterOffsetBegin'
p8201
S'2279'
p8202
stp8203
a(g233
(dp8204
S'NamedEntityTag'
p8205
g103
sS'CharacterOffsetEnd'
p8206
S'2287'
p8207
sS'Lemma'
p8208
g233
sS'PartOfSpeech'
p8209
g233
sS'CharacterOffsetBegin'
p8210
S'2286'
p8211
stp8212
asa(dp8213
g7
S'(ROOT (S (NP (NP (DT The) (NNP United) (NNPS States)) (CC and) (NP (CD 15) (JJ other) (NNS nations))) (VP (VBP plan) (S (VP (TO to) (VP (VB begin) (S (VP (VBG building) (NP (DT the) (JJ new) (NN station)) (PP (IN in) (NP (NN orbit))))) (NP-TMP (JJ next) (NN week)) (SBAR (WHADVP (WRB when)) (S (NP (DT the) (NNPS Russians)) (VP (VBP launch) (NP (NP (DT a) (NN module)) (SBAR (WHNP (WDT that)) (S (VP (MD will) (VP (VB supply) (NP (NN power) (CC and) (NN propulsion)) (PP (IN during) (NP (NP (DT the) (JJ early) (NNS stages)) (PP (IN of) (NP (DT the) (JJ five-year) (NN construction) (NN period))))))))))))))))) (. .)))'
p8214
sg9
S'The United States and 15 other nations plan to begin building the new station in orbit next week when the Russians launch a module that will supply power and propulsion during the early stages of the five-year construction period.'
p8215
sg11
(lp8216
(S'root'
p8217
S'ROOT'
p8218
S'plan'
p8219
tp8220
a(S'det'
p8221
S'States'
p8222
S'The'
p8223
tp8224
a(S'nn'
p8225
S'States'
p8226
S'United'
p8227
tp8228
a(S'nsubj'
p8229
S'plan'
p8230
S'States'
p8231
tp8232
a(S'num'
p8233
S'nations'
p8234
S'15'
p8235
tp8236
a(S'amod'
p8237
S'nations'
p8238
S'other'
p8239
tp8240
a(S'conj_and'
p8241
S'States'
p8242
S'nations'
p8243
tp8244
a(S'aux'
p8245
S'begin'
p8246
S'to'
p8247
tp8248
a(S'xcomp'
p8249
S'plan'
p8250
S'begin'
p8251
tp8252
a(S'xcomp'
p8253
S'begin'
p8254
S'building'
p8255
tp8256
a(S'det'
p8257
S'station'
p8258
S'the'
p8259
tp8260
a(S'amod'
p8261
S'station'
p8262
S'new'
p8263
tp8264
a(S'dobj'
p8265
S'building'
p8266
S'station'
p8267
tp8268
a(S'prep_in'
p8269
S'building'
p8270
S'orbit'
p8271
tp8272
a(S'amod'
p8273
S'week'
p8274
S'next'
p8275
tp8276
a(S'tmod'
p8277
S'begin'
p8278
S'week'
p8279
tp8280
a(S'advmod'
p8281
S'launch'
p8282
S'when'
p8283
tp8284
a(S'det'
p8285
S'Russians'
p8286
S'the'
p8287
tp8288
a(S'nsubj'
p8289
S'launch'
p8290
S'Russians'
p8291
tp8292
a(S'advcl'
p8293
S'begin'
p8294
S'launch'
p8295
tp8296
a(S'det'
p8297
S'module'
p8298
g27
tp8299
a(S'dobj'
p8300
S'launch'
p8301
S'module'
p8302
tp8303
a(S'nsubj'
p8304
S'supply'
p8305
S'that'
p8306
tp8307
a(S'aux'
p8308
S'supply'
p8309
S'will'
p8310
tp8311
a(S'rcmod'
p8312
S'module'
p8313
S'supply'
p8314
tp8315
a(S'dobj'
p8316
S'supply'
p8317
S'power'
p8318
tp8319
a(S'conj_and'
p8320
S'power'
p8321
S'propulsion'
p8322
tp8323
a(S'det'
p8324
S'stages'
p8325
S'the'
p8326
tp8327
a(S'amod'
p8328
S'stages'
p8329
S'early'
p8330
tp8331
a(S'prep_during'
p8332
S'supply'
p8333
S'stages'
p8334
tp8335
a(S'det'
p8336
S'period'
p8337
S'the'
p8338
tp8339
a(S'amod'
p8340
S'period'
p8341
S'five-year'
p8342
tp8343
a(S'nn'
p8344
S'period'
p8345
S'construction'
p8346
tp8347
a(S'prep_of'
p8348
S'stages'
p8349
S'period'
p8350
tp8351
asg53
(lp8352
(g8217
S'ROOT-0'
p8353
S'plan-8'
p8354
tp8355
a(g8221
S'States-3'
p8356
S'The-1'
p8357
tp8358
a(g8225
S'States-3'
p8359
S'United-2'
p8360
tp8361
a(g8229
S'plan-8'
p8362
S'States-3'
p8363
tp8364
a(g8233
S'nations-7'
p8365
S'15-5'
p8366
tp8367
a(g8237
S'nations-7'
p8368
S'other-6'
p8369
tp8370
a(g8241
S'States-3'
p8371
S'nations-7'
p8372
tp8373
a(g8245
S'begin-10'
p8374
S'to-9'
p8375
tp8376
a(g8249
S'plan-8'
p8377
S'begin-10'
p8378
tp8379
a(g8253
S'begin-10'
p8380
S'building-11'
p8381
tp8382
a(g8257
S'station-14'
p8383
S'the-12'
p8384
tp8385
a(g8261
S'station-14'
p8386
S'new-13'
p8387
tp8388
a(g8265
S'building-11'
p8389
S'station-14'
p8390
tp8391
a(g8269
S'building-11'
p8392
S'orbit-16'
p8393
tp8394
a(g8273
S'week-18'
p8395
S'next-17'
p8396
tp8397
a(g8277
S'begin-10'
p8398
S'week-18'
p8399
tp8400
a(g8281
S'launch-22'
p8401
S'when-19'
p8402
tp8403
a(g8285
S'Russians-21'
p8404
S'the-20'
p8405
tp8406
a(g8289
S'launch-22'
p8407
S'Russians-21'
p8408
tp8409
a(g8293
S'begin-10'
p8410
S'launch-22'
p8411
tp8412
a(g8297
S'module-24'
p8413
S'a-23'
p8414
tp8415
a(g8300
S'launch-22'
p8416
S'module-24'
p8417
tp8418
a(g8304
S'supply-27'
p8419
S'that-25'
p8420
tp8421
a(g8308
S'supply-27'
p8422
S'will-26'
p8423
tp8424
a(g8312
S'module-24'
p8425
S'supply-27'
p8426
tp8427
a(g8316
S'supply-27'
p8428
S'power-28'
p8429
tp8430
a(g8320
S'power-28'
p8431
S'propulsion-30'
p8432
tp8433
a(g8324
S'stages-34'
p8434
S'the-32'
p8435
tp8436
a(g8328
S'stages-34'
p8437
S'early-33'
p8438
tp8439
a(g8332
S'supply-27'
p8440
S'stages-34'
p8441
tp8442
a(g8336
S'period-39'
p8443
S'the-36'
p8444
tp8445
a(g8340
S'period-39'
p8446
S'five-year-37'
p8447
tp8448
a(g8344
S'period-39'
p8449
S'construction-38'
p8450
tp8451
a(g8348
S'stages-34'
p8452
S'period-39'
p8453
tp8454
asg85
(lp8455
(S'The'
p8456
(dp8457
S'NamedEntityTag'
p8458
g103
sS'CharacterOffsetEnd'
p8459
S'2291'
p8460
sS'Lemma'
p8461
S'the'
p8462
sS'PartOfSpeech'
p8463
S'DT'
p8464
sS'CharacterOffsetBegin'
p8465
S'2288'
p8466
stp8467
a(S'United'
p8468
(dp8469
S'NamedEntityTag'
p8470
S'LOCATION'
p8471
sS'CharacterOffsetEnd'
p8472
S'2298'
p8473
sS'Lemma'
p8474
S'United'
p8475
sS'PartOfSpeech'
p8476
S'NNP'
p8477
sS'CharacterOffsetBegin'
p8478
S'2292'
p8479
stp8480
a(S'States'
p8481
(dp8482
S'NamedEntityTag'
p8483
S'LOCATION'
p8484
sS'CharacterOffsetEnd'
p8485
S'2305'
p8486
sS'Lemma'
p8487
S'States'
p8488
sS'PartOfSpeech'
p8489
S'NNPS'
p8490
sS'CharacterOffsetBegin'
p8491
S'2299'
p8492
stp8493
a(S'and'
p8494
(dp8495
S'NamedEntityTag'
p8496
g103
sS'CharacterOffsetEnd'
p8497
S'2309'
p8498
sS'Lemma'
p8499
S'and'
p8500
sS'PartOfSpeech'
p8501
S'CC'
p8502
sS'CharacterOffsetBegin'
p8503
S'2306'
p8504
stp8505
a(S'15'
p8506
(dp8507
S''
p8508
S'15.0'
p8509
sS'NormalizedNamedEntityTag'
p8510
S'>'
p8511
sS'Lemma'
p8512
S'15'
p8513
sS'CharacterOffsetEnd'
p8514
S'2312'
p8515
sS'PartOfSpeech'
p8516
S'CD'
p8517
sS'CharacterOffsetBegin'
p8518
S'2310'
p8519
sS'NamedEntityTag'
p8520
S'NUMBER'
p8521
stp8522
a(S'other'
p8523
(dp8524
S'NamedEntityTag'
p8525
g103
sS'CharacterOffsetEnd'
p8526
S'2318'
p8527
sS'Lemma'
p8528
S'other'
p8529
sS'PartOfSpeech'
p8530
S'JJ'
p8531
sS'CharacterOffsetBegin'
p8532
S'2313'
p8533
stp8534
a(S'nations'
p8535
(dp8536
S'NamedEntityTag'
p8537
g103
sS'CharacterOffsetEnd'
p8538
S'2326'
p8539
sS'Lemma'
p8540
S'nation'
p8541
sS'PartOfSpeech'
p8542
S'NNS'
p8543
sS'CharacterOffsetBegin'
p8544
S'2319'
p8545
stp8546
a(S'plan'
p8547
(dp8548
S'NamedEntityTag'
p8549
g103
sS'CharacterOffsetEnd'
p8550
S'2331'
p8551
sS'Lemma'
p8552
S'plan'
p8553
sS'PartOfSpeech'
p8554
S'VBP'
p8555
sS'CharacterOffsetBegin'
p8556
S'2327'
p8557
stp8558
a(S'to'
p8559
(dp8560
S'NamedEntityTag'
p8561
g103
sS'CharacterOffsetEnd'
p8562
S'2334'
p8563
sS'Lemma'
p8564
S'to'
p8565
sS'PartOfSpeech'
p8566
S'TO'
p8567
sS'CharacterOffsetBegin'
p8568
S'2332'
p8569
stp8570
a(S'begin'
p8571
(dp8572
S'NamedEntityTag'
p8573
g103
sS'CharacterOffsetEnd'
p8574
S'2340'
p8575
sS'Lemma'
p8576
S'begin'
p8577
sS'PartOfSpeech'
p8578
S'VB'
p8579
sS'CharacterOffsetBegin'
p8580
S'2335'
p8581
stp8582
a(S'building'
p8583
(dp8584
S'NamedEntityTag'
p8585
g103
sS'CharacterOffsetEnd'
p8586
S'2349'
p8587
sS'Lemma'
p8588
S'build'
p8589
sS'PartOfSpeech'
p8590
S'VBG'
p8591
sS'CharacterOffsetBegin'
p8592
S'2341'
p8593
stp8594
a(S'the'
p8595
(dp8596
S'NamedEntityTag'
p8597
g103
sS'CharacterOffsetEnd'
p8598
S'2353'
p8599
sS'Lemma'
p8600
S'the'
p8601
sS'PartOfSpeech'
p8602
S'DT'
p8603
sS'CharacterOffsetBegin'
p8604
S'2350'
p8605
stp8606
a(S'new'
p8607
(dp8608
S'NamedEntityTag'
p8609
g103
sS'CharacterOffsetEnd'
p8610
S'2357'
p8611
sS'Lemma'
p8612
S'new'
p8613
sS'PartOfSpeech'
p8614
S'JJ'
p8615
sS'CharacterOffsetBegin'
p8616
S'2354'
p8617
stp8618
a(S'station'
p8619
(dp8620
S'NamedEntityTag'
p8621
g103
sS'CharacterOffsetEnd'
p8622
S'2365'
p8623
sS'Lemma'
p8624
S'station'
p8625
sS'PartOfSpeech'
p8626
S'NN'
p8627
sS'CharacterOffsetBegin'
p8628
S'2358'
p8629
stp8630
a(S'in'
p8631
(dp8632
S'NamedEntityTag'
p8633
g103
sS'CharacterOffsetEnd'
p8634
S'2368'
p8635
sS'Lemma'
p8636
S'in'
p8637
sS'PartOfSpeech'
p8638
S'IN'
p8639
sS'CharacterOffsetBegin'
p8640
S'2366'
p8641
stp8642
a(S'orbit'
p8643
(dp8644
S'NamedEntityTag'
p8645
g103
sS'CharacterOffsetEnd'
p8646
S'2374'
p8647
sS'Lemma'
p8648
S'orbit'
p8649
sS'PartOfSpeech'
p8650
S'NN'
p8651
sS'CharacterOffsetBegin'
p8652
S'2369'
p8653
stp8654
a(S'next'
p8655
(dp8656
S'NormalizedNamedEntityTag'
p8657
S'THIS'
p8658
sS'Timex'
p8659
S'<TIMEX3 alt_value="THIS P1W OFFSET P1W" anchorTimeID="t11" temporalFunction="true" tid="t10" type="DATE" valueFromFunction="tf2">next week</TIMEX3>'
p8660
sS'Lemma'
p8661
S'next'
p8662
sS'CharacterOffsetEnd'
p8663
S'2379'
p8664
sS'PartOfSpeech'
p8665
S'JJ'
p8666
sS'CharacterOffsetBegin'
p8667
S'2375'
p8668
sS'NamedEntityTag'
p8669
S'DATE'
p8670
stp8671
a(S'week'
p8672
(dp8673
S'NormalizedNamedEntityTag'
p8674
S'THIS'
p8675
sS'Timex'
p8676
S'<TIMEX3 alt_value="THIS P1W OFFSET P1W" anchorTimeID="t11" temporalFunction="true" tid="t10" type="DATE" valueFromFunction="tf2">next week</TIMEX3>'
p8677
sS'Lemma'
p8678
S'week'
p8679
sS'CharacterOffsetEnd'
p8680
S'2384'
p8681
sS'PartOfSpeech'
p8682
S'NN'
p8683
sS'CharacterOffsetBegin'
p8684
S'2380'
p8685
sS'NamedEntityTag'
p8686
S'DATE'
p8687
stp8688
a(S'when'
p8689
(dp8690
S'NamedEntityTag'
p8691
g103
sS'CharacterOffsetEnd'
p8692
S'2389'
p8693
sS'Lemma'
p8694
S'when'
p8695
sS'PartOfSpeech'
p8696
S'WRB'
p8697
sS'CharacterOffsetBegin'
p8698
S'2385'
p8699
stp8700
a(S'the'
p8701
(dp8702
S'NamedEntityTag'
p8703
g103
sS'CharacterOffsetEnd'
p8704
S'2393'
p8705
sS'Lemma'
p8706
S'the'
p8707
sS'PartOfSpeech'
p8708
S'DT'
p8709
sS'CharacterOffsetBegin'
p8710
S'2390'
p8711
stp8712
a(S'Russians'
p8713
(dp8714
S'NamedEntityTag'
p8715
S'MISC'
p8716
sS'CharacterOffsetEnd'
p8717
S'2402'
p8718
sS'Lemma'
p8719
S'Russians'
p8720
sS'PartOfSpeech'
p8721
S'NNPS'
p8722
sS'CharacterOffsetBegin'
p8723
S'2394'
p8724
stp8725
a(S'launch'
p8726
(dp8727
S'NamedEntityTag'
p8728
g103
sS'CharacterOffsetEnd'
p8729
S'2409'
p8730
sS'Lemma'
p8731
S'launch'
p8732
sS'PartOfSpeech'
p8733
S'VBP'
p8734
sS'CharacterOffsetBegin'
p8735
S'2403'
p8736
stp8737
a(g27
(dp8738
S'NamedEntityTag'
p8739
g103
sS'CharacterOffsetEnd'
p8740
S'2411'
p8741
sS'Lemma'
p8742
g27
sS'PartOfSpeech'
p8743
S'DT'
p8744
sS'CharacterOffsetBegin'
p8745
S'2410'
p8746
stp8747
a(S'module'
p8748
(dp8749
S'NamedEntityTag'
p8750
g103
sS'CharacterOffsetEnd'
p8751
S'2418'
p8752
sS'Lemma'
p8753
S'module'
p8754
sS'PartOfSpeech'
p8755
S'NN'
p8756
sS'CharacterOffsetBegin'
p8757
S'2412'
p8758
stp8759
a(S'that'
p8760
(dp8761
S'NamedEntityTag'
p8762
g103
sS'CharacterOffsetEnd'
p8763
S'2423'
p8764
sS'Lemma'
p8765
S'that'
p8766
sS'PartOfSpeech'
p8767
S'WDT'
p8768
sS'CharacterOffsetBegin'
p8769
S'2419'
p8770
stp8771
a(S'will'
p8772
(dp8773
S'NamedEntityTag'
p8774
g103
sS'CharacterOffsetEnd'
p8775
S'2428'
p8776
sS'Lemma'
p8777
S'will'
p8778
sS'PartOfSpeech'
p8779
S'MD'
p8780
sS'CharacterOffsetBegin'
p8781
S'2424'
p8782
stp8783
a(S'supply'
p8784
(dp8785
S'NamedEntityTag'
p8786
g103
sS'CharacterOffsetEnd'
p8787
S'2435'
p8788
sS'Lemma'
p8789
S'supply'
p8790
sS'PartOfSpeech'
p8791
S'VB'
p8792
sS'CharacterOffsetBegin'
p8793
S'2429'
p8794
stp8795
a(S'power'
p8796
(dp8797
S'NamedEntityTag'
p8798
g103
sS'CharacterOffsetEnd'
p8799
S'2441'
p8800
sS'Lemma'
p8801
S'power'
p8802
sS'PartOfSpeech'
p8803
S'NN'
p8804
sS'CharacterOffsetBegin'
p8805
S'2436'
p8806
stp8807
a(S'and'
p8808
(dp8809
S'NamedEntityTag'
p8810
g103
sS'CharacterOffsetEnd'
p8811
S'2445'
p8812
sS'Lemma'
p8813
S'and'
p8814
sS'PartOfSpeech'
p8815
S'CC'
p8816
sS'CharacterOffsetBegin'
p8817
S'2442'
p8818
stp8819
a(S'propulsion'
p8820
(dp8821
S'NamedEntityTag'
p8822
g103
sS'CharacterOffsetEnd'
p8823
S'2456'
p8824
sS'Lemma'
p8825
S'propulsion'
p8826
sS'PartOfSpeech'
p8827
S'NN'
p8828
sS'CharacterOffsetBegin'
p8829
S'2446'
p8830
stp8831
a(S'during'
p8832
(dp8833
S'NamedEntityTag'
p8834
g103
sS'CharacterOffsetEnd'
p8835
S'2463'
p8836
sS'Lemma'
p8837
S'during'
p8838
sS'PartOfSpeech'
p8839
S'IN'
p8840
sS'CharacterOffsetBegin'
p8841
S'2457'
p8842
stp8843
a(S'the'
p8844
(dp8845
S'NamedEntityTag'
p8846
g103
sS'CharacterOffsetEnd'
p8847
S'2467'
p8848
sS'Lemma'
p8849
S'the'
p8850
sS'PartOfSpeech'
p8851
S'DT'
p8852
sS'CharacterOffsetBegin'
p8853
S'2464'
p8854
stp8855
a(S'early'
p8856
(dp8857
S'NamedEntityTag'
p8858
g103
sS'CharacterOffsetEnd'
p8859
S'2473'
p8860
sS'Lemma'
p8861
S'early'
p8862
sS'PartOfSpeech'
p8863
S'JJ'
p8864
sS'CharacterOffsetBegin'
p8865
S'2468'
p8866
stp8867
a(S'stages'
p8868
(dp8869
S'NamedEntityTag'
p8870
g103
sS'CharacterOffsetEnd'
p8871
S'2480'
p8872
sS'Lemma'
p8873
S'stage'
p8874
sS'PartOfSpeech'
p8875
S'NNS'
p8876
sS'CharacterOffsetBegin'
p8877
S'2474'
p8878
stp8879
a(S'of'
p8880
(dp8881
S'NamedEntityTag'
p8882
g103
sS'CharacterOffsetEnd'
p8883
S'2483'
p8884
sS'Lemma'
p8885
S'of'
p8886
sS'PartOfSpeech'
p8887
S'IN'
p8888
sS'CharacterOffsetBegin'
p8889
S'2481'
p8890
stp8891
a(S'the'
p8892
(dp8893
S'NamedEntityTag'
p8894
g103
sS'CharacterOffsetEnd'
p8895
S'2487'
p8896
sS'Lemma'
p8897
S'the'
p8898
sS'PartOfSpeech'
p8899
S'DT'
p8900
sS'CharacterOffsetBegin'
p8901
S'2484'
p8902
stp8903
a(S'five-year'
p8904
(dp8905
S'NormalizedNamedEntityTag'
p8906
S'P5Y'
p8907
sS'Timex'
p8908
S'<TIMEX3 tid="t12" type="DURATION" value="P5Y">five-year</TIMEX3>'
p8909
sS'Lemma'
p8910
S'five-year'
p8911
sS'CharacterOffsetEnd'
p8912
S'2497'
p8913
sS'PartOfSpeech'
p8914
S'JJ'
p8915
sS'CharacterOffsetBegin'
p8916
S'2488'
p8917
sS'NamedEntityTag'
p8918
S'DURATION'
p8919
stp8920
a(S'construction'
p8921
(dp8922
S'NamedEntityTag'
p8923
g103
sS'CharacterOffsetEnd'
p8924
S'2510'
p8925
sS'Lemma'
p8926
S'construction'
p8927
sS'PartOfSpeech'
p8928
S'NN'
p8929
sS'CharacterOffsetBegin'
p8930
S'2498'
p8931
stp8932
a(S'period'
p8933
(dp8934
S'NamedEntityTag'
p8935
g103
sS'CharacterOffsetEnd'
p8936
S'2517'
p8937
sS'Lemma'
p8938
S'period'
p8939
sS'PartOfSpeech'
p8940
S'NN'
p8941
sS'CharacterOffsetBegin'
p8942
S'2511'
p8943
stp8944
a(g233
(dp8945
S'NamedEntityTag'
p8946
g103
sS'CharacterOffsetEnd'
p8947
S'2518'
p8948
sS'Lemma'
p8949
g233
sS'PartOfSpeech'
p8950
g233
sS'CharacterOffsetBegin'
p8951
S'2517'
p8952
stp8953
asa(dp8954
g7
S'(ROOT (S (NP (DT The) (NN space) (NN shuttle) (NNP Endeavor)) (VP (VBZ is) (S (VP (TO to) (VP (VB follow) (PP (IN on) (NP (NP (NNP Dec) (CD 3)) (PP (IN with) (NP (NP (DT the) (JJ second) (NN station) (NN part)) (, ,) (NP (NP (DT a) (JJ U.S.-built)) (VP (VBG connecting) (NP (NP (NN passageway)) (SBAR (WHNP (WDT that)) (S (VP (VBZ attaches) (PP (TO to) (NP (DT the) (JJ first) (NN module))))))))))))))))) (. .)))'
p8955
sg9
S'The space shuttle Endeavor is to follow on Dec 3 with the second station part, a U.S.-built connecting passageway that attaches to the first module.'
p8956
sg11
(lp8957
(S'root'
p8958
S'ROOT'
p8959
S'is'
p8960
tp8961
a(S'det'
p8962
S'Endeavor'
p8963
S'The'
p8964
tp8965
a(S'nn'
p8966
S'Endeavor'
p8967
S'space'
p8968
tp8969
a(S'nn'
p8970
S'Endeavor'
p8971
S'shuttle'
p8972
tp8973
a(S'nsubj'
p8974
S'is'
p8975
S'Endeavor'
p8976
tp8977
a(S'aux'
p8978
S'follow'
p8979
S'to'
p8980
tp8981
a(S'xcomp'
p8982
S'is'
p8983
S'follow'
p8984
tp8985
a(S'prep_on'
p8986
S'follow'
p8987
S'Dec'
p8988
tp8989
a(S'num'
p8990
S'Dec'
p8991
S'3'
p8992
tp8993
a(S'det'
p8994
S'part'
p8995
S'the'
p8996
tp8997
a(S'amod'
p8998
S'part'
p8999
S'second'
p9000
tp9001
a(S'nn'
p9002
S'part'
p9003
S'station'
p9004
tp9005
a(S'prep_with'
p9006
S'Dec'
p9007
S'part'
p9008
tp9009
a(S'det'
p9010
S'U.S.-built'
p9011
g27
tp9012
a(S'appos'
p9013
S'part'
p9014
S'U.S.-built'
p9015
tp9016
a(S'partmod'
p9017
S'U.S.-built'
p9018
S'connecting'
p9019
tp9020
a(S'dobj'
p9021
S'connecting'
p9022
S'passageway'
p9023
tp9024
a(S'nsubj'
p9025
S'attaches'
p9026
S'that'
p9027
tp9028
a(S'rcmod'
p9029
S'passageway'
p9030
S'attaches'
p9031
tp9032
a(S'det'
p9033
S'module'
p9034
S'the'
p9035
tp9036
a(S'amod'
p9037
S'module'
p9038
S'first'
p9039
tp9040
a(S'prep_to'
p9041
S'attaches'
p9042
S'module'
p9043
tp9044
asg53
(lp9045
(g8958
S'ROOT-0'
p9046
S'is-5'
p9047
tp9048
a(g8962
S'Endeavor-4'
p9049
S'The-1'
p9050
tp9051
a(g8966
S'Endeavor-4'
p9052
S'space-2'
p9053
tp9054
a(g8970
S'Endeavor-4'
p9055
S'shuttle-3'
p9056
tp9057
a(g8974
S'is-5'
p9058
S'Endeavor-4'
p9059
tp9060
a(g8978
S'follow-7'
p9061
S'to-6'
p9062
tp9063
a(g8982
S'is-5'
p9064
S'follow-7'
p9065
tp9066
a(g8986
S'follow-7'
p9067
S'Dec-9'
p9068
tp9069
a(g8990
S'Dec-9'
p9070
S'3-10'
p9071
tp9072
a(g8994
S'part-15'
p9073
S'the-12'
p9074
tp9075
a(g8998
S'part-15'
p9076
S'second-13'
p9077
tp9078
a(g9002
S'part-15'
p9079
S'station-14'
p9080
tp9081
a(g9006
S'Dec-9'
p9082
S'part-15'
p9083
tp9084
a(g9010
S'U.S.-built-18'
p9085
S'a-17'
p9086
tp9087
a(g9013
S'part-15'
p9088
S'U.S.-built-18'
p9089
tp9090
a(g9017
S'U.S.-built-18'
p9091
S'connecting-19'
p9092
tp9093
a(g9021
S'connecting-19'
p9094
S'passageway-20'
p9095
tp9096
a(g9025
S'attaches-22'
p9097
S'that-21'
p9098
tp9099
a(g9029
S'passageway-20'
p9100
S'attaches-22'
p9101
tp9102
a(g9033
S'module-26'
p9103
S'the-24'
p9104
tp9105
a(g9037
S'module-26'
p9106
S'first-25'
p9107
tp9108
a(g9041
S'attaches-22'
p9109
S'module-26'
p9110
tp9111
asg85
(lp9112
(S'The'
p9113
(dp9114
S'NamedEntityTag'
p9115
g103
sS'CharacterOffsetEnd'
p9116
S'2522'
p9117
sS'Lemma'
p9118
S'the'
p9119
sS'PartOfSpeech'
p9120
S'DT'
p9121
sS'CharacterOffsetBegin'
p9122
S'2519'
p9123
stp9124
a(S'space'
p9125
(dp9126
S'NamedEntityTag'
p9127
g103
sS'CharacterOffsetEnd'
p9128
S'2528'
p9129
sS'Lemma'
p9130
S'space'
p9131
sS'PartOfSpeech'
p9132
S'NN'
p9133
sS'CharacterOffsetBegin'
p9134
S'2523'
p9135
stp9136
a(S'shuttle'
p9137
(dp9138
S'NamedEntityTag'
p9139
g103
sS'CharacterOffsetEnd'
p9140
S'2536'
p9141
sS'Lemma'
p9142
S'shuttle'
p9143
sS'PartOfSpeech'
p9144
S'NN'
p9145
sS'CharacterOffsetBegin'
p9146
S'2529'
p9147
stp9148
a(S'Endeavor'
p9149
(dp9150
S'NamedEntityTag'
p9151
S'MISC'
p9152
sS'CharacterOffsetEnd'
p9153
S'2545'
p9154
sS'Lemma'
p9155
S'Endeavor'
p9156
sS'PartOfSpeech'
p9157
S'NNP'
p9158
sS'CharacterOffsetBegin'
p9159
S'2537'
p9160
stp9161
a(S'is'
p9162
(dp9163
S'NamedEntityTag'
p9164
g103
sS'CharacterOffsetEnd'
p9165
S'2548'
p9166
sS'Lemma'
p9167
S'be'
p9168
sS'PartOfSpeech'
p9169
S'VBZ'
p9170
sS'CharacterOffsetBegin'
p9171
S'2546'
p9172
stp9173
a(S'to'
p9174
(dp9175
S'NamedEntityTag'
p9176
g103
sS'CharacterOffsetEnd'
p9177
S'2551'
p9178
sS'Lemma'
p9179
S'to'
p9180
sS'PartOfSpeech'
p9181
S'TO'
p9182
sS'CharacterOffsetBegin'
p9183
S'2549'
p9184
stp9185
a(S'follow'
p9186
(dp9187
S'NamedEntityTag'
p9188
g103
sS'CharacterOffsetEnd'
p9189
S'2558'
p9190
sS'Lemma'
p9191
S'follow'
p9192
sS'PartOfSpeech'
p9193
S'VB'
p9194
sS'CharacterOffsetBegin'
p9195
S'2552'
p9196
stp9197
a(S'on'
p9198
(dp9199
S'NamedEntityTag'
p9200
g103
sS'CharacterOffsetEnd'
p9201
S'2561'
p9202
sS'Lemma'
p9203
S'on'
p9204
sS'PartOfSpeech'
p9205
S'IN'
p9206
sS'CharacterOffsetBegin'
p9207
S'2559'
p9208
stp9209
a(S'Dec'
p9210
(dp9211
S'NormalizedNamedEntityTag'
p9212
S'XXXX-12-03'
p9213
sS'Timex'
p9214
S'<TIMEX3 tid="t13" type="DATE" value="XXXX-12-03">Dec 3</TIMEX3>'
p9215
sS'Lemma'
p9216
S'Dec'
p9217
sS'CharacterOffsetEnd'
p9218
S'2565'
p9219
sS'PartOfSpeech'
p9220
S'NNP'
p9221
sS'CharacterOffsetBegin'
p9222
S'2562'
p9223
sS'NamedEntityTag'
p9224
S'DATE'
p9225
stp9226
a(g8992
(dp9227
S'NormalizedNamedEntityTag'
p9228
S'XXXX-12-03'
p9229
sS'Timex'
p9230
S'<TIMEX3 tid="t13" type="DATE" value="XXXX-12-03">Dec 3</TIMEX3>'
p9231
sS'Lemma'
p9232
g8992
sS'CharacterOffsetEnd'
p9233
S'2567'
p9234
sS'PartOfSpeech'
p9235
S'CD'
p9236
sS'CharacterOffsetBegin'
p9237
S'2566'
p9238
sS'NamedEntityTag'
p9239
S'DATE'
p9240
stp9241
a(S'with'
p9242
(dp9243
S'NamedEntityTag'
p9244
g103
sS'CharacterOffsetEnd'
p9245
S'2572'
p9246
sS'Lemma'
p9247
S'with'
p9248
sS'PartOfSpeech'
p9249
S'IN'
p9250
sS'CharacterOffsetBegin'
p9251
S'2568'
p9252
stp9253
a(S'the'
p9254
(dp9255
S'NamedEntityTag'
p9256
g103
sS'CharacterOffsetEnd'
p9257
S'2576'
p9258
sS'Lemma'
p9259
S'the'
p9260
sS'PartOfSpeech'
p9261
S'DT'
p9262
sS'CharacterOffsetBegin'
p9263
S'2573'
p9264
stp9265
a(S'second'
p9266
(dp9267
S'NormalizedNamedEntityTag'
p9268
S'2.0'
p9269
sS'Lemma'
p9270
S'second'
p9271
sS'CharacterOffsetEnd'
p9272
S'2583'
p9273
sS'PartOfSpeech'
p9274
S'JJ'
p9275
sS'CharacterOffsetBegin'
p9276
S'2577'
p9277
sS'NamedEntityTag'
p9278
S'ORDINAL'
p9279
stp9280
a(S'station'
p9281
(dp9282
S'NamedEntityTag'
p9283
g103
sS'CharacterOffsetEnd'
p9284
S'2591'
p9285
sS'Lemma'
p9286
S'station'
p9287
sS'PartOfSpeech'
p9288
S'NN'
p9289
sS'CharacterOffsetBegin'
p9290
S'2584'
p9291
stp9292
a(S'part'
p9293
(dp9294
S'NamedEntityTag'
p9295
g103
sS'CharacterOffsetEnd'
p9296
S'2596'
p9297
sS'Lemma'
p9298
S'part'
p9299
sS'PartOfSpeech'
p9300
S'NN'
p9301
sS'CharacterOffsetBegin'
p9302
S'2592'
p9303
stp9304
a(g482
(dp9305
S'NamedEntityTag'
p9306
g103
sS'CharacterOffsetEnd'
p9307
S'2597'
p9308
sS'Lemma'
p9309
g482
sS'PartOfSpeech'
p9310
g482
sS'CharacterOffsetBegin'
p9311
S'2596'
p9312
stp9313
a(g27
(dp9314
S'NamedEntityTag'
p9315
g103
sS'CharacterOffsetEnd'
p9316
S'2599'
p9317
sS'Lemma'
p9318
g27
sS'PartOfSpeech'
p9319
S'DT'
p9320
sS'CharacterOffsetBegin'
p9321
S'2598'
p9322
stp9323
a(S'U.S.-built'
p9324
(dp9325
S'NamedEntityTag'
p9326
g103
sS'CharacterOffsetEnd'
p9327
S'2610'
p9328
sS'Lemma'
p9329
S'u.s.-built'
p9330
sS'PartOfSpeech'
p9331
S'JJ'
p9332
sS'CharacterOffsetBegin'
p9333
S'2600'
p9334
stp9335
a(S'connecting'
p9336
(dp9337
S'NamedEntityTag'
p9338
g103
sS'CharacterOffsetEnd'
p9339
S'2621'
p9340
sS'Lemma'
p9341
S'connect'
p9342
sS'PartOfSpeech'
p9343
S'VBG'
p9344
sS'CharacterOffsetBegin'
p9345
S'2611'
p9346
stp9347
a(S'passageway'
p9348
(dp9349
S'NamedEntityTag'
p9350
g103
sS'CharacterOffsetEnd'
p9351
S'2632'
p9352
sS'Lemma'
p9353
S'passageway'
p9354
sS'PartOfSpeech'
p9355
S'NN'
p9356
sS'CharacterOffsetBegin'
p9357
S'2622'
p9358
stp9359
a(S'that'
p9360
(dp9361
S'NamedEntityTag'
p9362
g103
sS'CharacterOffsetEnd'
p9363
S'2637'
p9364
sS'Lemma'
p9365
S'that'
p9366
sS'PartOfSpeech'
p9367
S'WDT'
p9368
sS'CharacterOffsetBegin'
p9369
S'2633'
p9370
stp9371
a(S'attaches'
p9372
(dp9373
S'NamedEntityTag'
p9374
g103
sS'CharacterOffsetEnd'
p9375
S'2646'
p9376
sS'Lemma'
p9377
S'attach'
p9378
sS'PartOfSpeech'
p9379
S'VBZ'
p9380
sS'CharacterOffsetBegin'
p9381
S'2638'
p9382
stp9383
a(S'to'
p9384
(dp9385
S'NamedEntityTag'
p9386
g103
sS'CharacterOffsetEnd'
p9387
S'2649'
p9388
sS'Lemma'
p9389
S'to'
p9390
sS'PartOfSpeech'
p9391
S'TO'
p9392
sS'CharacterOffsetBegin'
p9393
S'2647'
p9394
stp9395
a(S'the'
p9396
(dp9397
S'NamedEntityTag'
p9398
g103
sS'CharacterOffsetEnd'
p9399
S'2653'
p9400
sS'Lemma'
p9401
S'the'
p9402
sS'PartOfSpeech'
p9403
S'DT'
p9404
sS'CharacterOffsetBegin'
p9405
S'2650'
p9406
stp9407
a(S'first'
p9408
(dp9409
S'NormalizedNamedEntityTag'
p9410
S'1.0'
p9411
sS'Lemma'
p9412
S'first'
p9413
sS'CharacterOffsetEnd'
p9414
S'2659'
p9415
sS'PartOfSpeech'
p9416
S'JJ'
p9417
sS'CharacterOffsetBegin'
p9418
S'2654'
p9419
sS'NamedEntityTag'
p9420
S'ORDINAL'
p9421
stp9422
a(S'module'
p9423
(dp9424
S'NamedEntityTag'
p9425
g103
sS'CharacterOffsetEnd'
p9426
S'2666'
p9427
sS'Lemma'
p9428
S'module'
p9429
sS'PartOfSpeech'
p9430
S'NN'
p9431
sS'CharacterOffsetBegin'
p9432
S'2660'
p9433
stp9434
a(g233
(dp9435
S'NamedEntityTag'
p9436
g103
sS'CharacterOffsetEnd'
p9437
S'2667'
p9438
sS'Lemma'
p9439
g233
sS'PartOfSpeech'
p9440
g233
sS'CharacterOffsetBegin'
p9441
S'2666'
p9442
stp9443
asass.