(dp0
S'models'
p1
(lp2
(dp3
S'sentences'
p4
(lp5
(dp6
S'parsetree'
p7
S'(ROOT (NP (NP (NNS Astronauts)) (NP (NP (DT all)) (ADVP (IN aboard) (PP (IN for) (NP (NN liftoff)))) (PP (IN on) (NP (NN space) (NN construction) (NN flight)))) (. .)))'
p8
sS'text'
p9
S'Astronauts all aboard for liftoff on space construction flight.'
p10
sS'dependencies'
p11
(lp12
(S'root'
p13
S'ROOT'
p14
S'Astronauts'
p15
tp16
a(S'dep'
p17
S'Astronauts'
p18
S'all'
p19
tp20
a(S'advmod'
p21
S'all'
p22
S'aboard'
p23
tp24
a(S'prep_for'
p25
S'aboard'
p26
S'liftoff'
p27
tp28
a(S'nn'
p29
S'flight'
p30
S'space'
p31
tp32
a(S'nn'
p33
S'flight'
p34
S'construction'
p35
tp36
a(S'prep_on'
p37
S'all'
p38
S'flight'
p39
tp40
asS'indexeddependencies'
p41
(lp42
(g13
S'ROOT-0'
p43
S'Astronauts-1'
p44
tp45
a(g17
S'Astronauts-1'
p46
S'all-2'
p47
tp48
a(g21
S'all-2'
p49
S'aboard-3'
p50
tp51
a(g25
S'aboard-3'
p52
S'liftoff-5'
p53
tp54
a(g29
S'flight-9'
p55
S'space-7'
p56
tp57
a(g33
S'flight-9'
p58
S'construction-8'
p59
tp60
a(g37
S'all-2'
p61
S'flight-9'
p62
tp63
asS'words'
p64
(lp65
(S'Astronauts'
p66
(dp67
S'NamedEntityTag'
p68
S'O'
p69
sS'CharacterOffsetEnd'
p70
S'11'
p71
sS'Lemma'
p72
S'astronaut'
p73
sS'PartOfSpeech'
p74
S'NNS'
p75
sS'CharacterOffsetBegin'
p76
S'1'
p77
stp78
a(S'all'
p79
(dp80
S'NamedEntityTag'
p81
g69
sS'CharacterOffsetEnd'
p82
S'15'
p83
sS'Lemma'
p84
S'all'
p85
sS'PartOfSpeech'
p86
S'DT'
p87
sS'CharacterOffsetBegin'
p88
S'12'
p89
stp90
a(S'aboard'
p91
(dp92
S'NamedEntityTag'
p93
g69
sS'CharacterOffsetEnd'
p94
S'22'
p95
sS'Lemma'
p96
S'aboard'
p97
sS'PartOfSpeech'
p98
S'IN'
p99
sS'CharacterOffsetBegin'
p100
S'16'
p101
stp102
a(S'for'
p103
(dp104
S'NamedEntityTag'
p105
g69
sS'CharacterOffsetEnd'
p106
S'26'
p107
sS'Lemma'
p108
S'for'
p109
sS'PartOfSpeech'
p110
S'IN'
p111
sS'CharacterOffsetBegin'
p112
S'23'
p113
stp114
a(S'liftoff'
p115
(dp116
S'NamedEntityTag'
p117
g69
sS'CharacterOffsetEnd'
p118
S'34'
p119
sS'Lemma'
p120
S'liftoff'
p121
sS'PartOfSpeech'
p122
S'NN'
p123
sS'CharacterOffsetBegin'
p124
S'27'
p125
stp126
a(S'on'
p127
(dp128
S'NamedEntityTag'
p129
g69
sS'CharacterOffsetEnd'
p130
S'37'
p131
sS'Lemma'
p132
S'on'
p133
sS'PartOfSpeech'
p134
S'IN'
p135
sS'CharacterOffsetBegin'
p136
S'35'
p137
stp138
a(S'space'
p139
(dp140
S'NamedEntityTag'
p141
g69
sS'CharacterOffsetEnd'
p142
S'43'
p143
sS'Lemma'
p144
S'space'
p145
sS'PartOfSpeech'
p146
S'NN'
p147
sS'CharacterOffsetBegin'
p148
S'38'
p149
stp150
a(S'construction'
p151
(dp152
S'NamedEntityTag'
p153
g69
sS'CharacterOffsetEnd'
p154
S'56'
p155
sS'Lemma'
p156
S'construction'
p157
sS'PartOfSpeech'
p158
S'NN'
p159
sS'CharacterOffsetBegin'
p160
S'44'
p161
stp162
a(S'flight'
p163
(dp164
S'NamedEntityTag'
p165
g69
sS'CharacterOffsetEnd'
p166
S'63'
p167
sS'Lemma'
p168
S'flight'
p169
sS'PartOfSpeech'
p170
S'NN'
p171
sS'CharacterOffsetBegin'
p172
S'57'
p173
stp174
a(S'.'
p175
(dp176
S'NamedEntityTag'
p177
g69
sS'CharacterOffsetEnd'
p178
S'64'
p179
sS'Lemma'
p180
g175
sS'PartOfSpeech'
p181
g175
sS'CharacterOffsetBegin'
p182
S'63'
p183
stp184
asasa(dp185
g4
(lp186
(dp187
g7
S'(ROOT (S (NP (JJ 2nd) (NN launch)) (ADJP (JJ successful) (PP (IN after) (NP (NN pressure) (NN problem)))) (. .)))'
p188
sg9
S'2nd launch successful after pressure problem.'
p189
sg11
(lp190
(S'root'
p191
S'ROOT'
p192
S'successful'
p193
tp194
a(S'amod'
p195
S'launch'
p196
S'2nd'
p197
tp198
a(S'dep'
p199
S'successful'
p200
S'launch'
p201
tp202
a(S'nn'
p203
S'problem'
p204
S'pressure'
p205
tp206
a(S'prep_after'
p207
S'successful'
p208
S'problem'
p209
tp210
asg41
(lp211
(g191
S'ROOT-0'
p212
S'successful-3'
p213
tp214
a(g195
S'launch-2'
p215
S'2nd-1'
p216
tp217
a(g199
S'successful-3'
p218
S'launch-2'
p219
tp220
a(g203
S'problem-6'
p221
S'pressure-5'
p222
tp223
a(g207
S'successful-3'
p224
S'problem-6'
p225
tp226
asg64
(lp227
(S'2nd'
p228
(dp229
S'NormalizedNamedEntityTag'
p230
S'2.0'
p231
sS'Lemma'
p232
S'2nd'
p233
sS'CharacterOffsetEnd'
p234
S'4'
p235
sS'PartOfSpeech'
p236
S'JJ'
p237
sS'CharacterOffsetBegin'
p238
g77
sS'NamedEntityTag'
p239
S'ORDINAL'
p240
stp241
a(S'launch'
p242
(dp243
S'NamedEntityTag'
p244
g69
sS'CharacterOffsetEnd'
p245
S'11'
p246
sS'Lemma'
p247
S'launch'
p248
sS'PartOfSpeech'
p249
S'NN'
p250
sS'CharacterOffsetBegin'
p251
S'5'
p252
stp253
a(S'successful'
p254
(dp255
S'NamedEntityTag'
p256
g69
sS'CharacterOffsetEnd'
p257
S'22'
p258
sS'Lemma'
p259
S'successful'
p260
sS'PartOfSpeech'
p261
S'JJ'
p262
sS'CharacterOffsetBegin'
p263
S'12'
p264
stp265
a(S'after'
p266
(dp267
S'NamedEntityTag'
p268
g69
sS'CharacterOffsetEnd'
p269
S'28'
p270
sS'Lemma'
p271
S'after'
p272
sS'PartOfSpeech'
p273
S'IN'
p274
sS'CharacterOffsetBegin'
p275
S'23'
p276
stp277
a(S'pressure'
p278
(dp279
S'NamedEntityTag'
p280
g69
sS'CharacterOffsetEnd'
p281
S'37'
p282
sS'Lemma'
p283
S'pressure'
p284
sS'PartOfSpeech'
p285
S'NN'
p286
sS'CharacterOffsetBegin'
p287
S'29'
p288
stp289
a(S'problem'
p290
(dp291
S'NamedEntityTag'
p292
g69
sS'CharacterOffsetEnd'
p293
S'45'
p294
sS'Lemma'
p295
S'problem'
p296
sS'PartOfSpeech'
p297
S'NN'
p298
sS'CharacterOffsetBegin'
p299
S'38'
p300
stp301
a(g175
(dp302
S'NamedEntityTag'
p303
g69
sS'CharacterOffsetEnd'
p304
S'46'
p305
sS'Lemma'
p306
g175
sS'PartOfSpeech'
p307
g175
sS'CharacterOffsetBegin'
p308
S'45'
p309
stp310
asa(dp311
g7
S'(ROOT (NP (NP (CD 16) (NNS countries)) (VP (VBG cooperating)) (. .)))'
p312
sg9
S'16 countries cooperating.'
p313
sg11
(lp314
(S'root'
p315
S'ROOT'
p316
S'countries'
p317
tp318
a(S'num'
p319
S'countries'
p320
S'16'
p321
tp322
a(S'partmod'
p323
S'countries'
p324
S'cooperating'
p325
tp326
asg41
(lp327
(g315
S'ROOT-0'
p328
S'countries-2'
p329
tp330
a(g319
S'countries-2'
p331
S'16-1'
p332
tp333
a(g323
S'countries-2'
p334
S'cooperating-3'
p335
tp336
asg64
(lp337
(S'16'
p338
(dp339
S'NormalizedNamedEntityTag'
p340
S'16.0'
p341
sS'Lemma'
p342
S'16'
p343
sS'CharacterOffsetEnd'
p344
S'49'
p345
sS'PartOfSpeech'
p346
S'CD'
p347
sS'CharacterOffsetBegin'
p348
S'47'
p349
sS'NamedEntityTag'
p350
S'NUMBER'
p351
stp352
a(S'countries'
p353
(dp354
S'NamedEntityTag'
p355
g69
sS'CharacterOffsetEnd'
p356
S'59'
p357
sS'Lemma'
p358
S'country'
p359
sS'PartOfSpeech'
p360
S'NNS'
p361
sS'CharacterOffsetBegin'
p362
S'50'
p363
stp364
a(S'cooperating'
p365
(dp366
S'NamedEntityTag'
p367
g69
sS'CharacterOffsetEnd'
p368
S'71'
p369
sS'Lemma'
p370
S'cooperate'
p371
sS'PartOfSpeech'
p372
S'VBG'
p373
sS'CharacterOffsetBegin'
p374
S'60'
p375
stp376
a(g175
(dp377
S'NamedEntityTag'
p378
g69
sS'CharacterOffsetEnd'
p379
S'72'
p380
sS'Lemma'
p381
g175
sS'PartOfSpeech'
p382
g175
sS'CharacterOffsetBegin'
p383
S'71'
p384
stp385
asasa(dp386
g4
(lp387
(dp388
g7
S'(ROOT (FRAG (NP (NP (NNP Endeavour) (NNS astronauts)) (ADJP (JJ ready)) (PP (IN for) (NP (JJ second) (NN try)))) (PP (IN at) (NP (NN launch))) (PP (IN for) (NP (NN space) (NN station)))))'
p389
sg9
S'Endeavour astronauts ready for second try at launch for space station'
p390
sg11
(lp391
(S'root'
p392
S'ROOT'
p393
S'astronauts'
p394
tp395
a(S'nn'
p396
S'astronauts'
p397
S'Endeavour'
p398
tp399
a(S'amod'
p400
S'astronauts'
p401
S'ready'
p402
tp403
a(S'amod'
p404
S'try'
p405
S'second'
p406
tp407
a(S'prep_for'
p408
S'astronauts'
p409
S'try'
p410
tp411
a(S'prep_at'
p412
S'astronauts'
p413
S'launch'
p414
tp415
a(S'nn'
p416
S'station'
p417
S'space'
p418
tp419
a(S'prep_for'
p420
S'astronauts'
p421
S'station'
p422
tp423
asg41
(lp424
(g392
S'ROOT-0'
p425
S'astronauts-2'
p426
tp427
a(g396
S'astronauts-2'
p428
S'Endeavour-1'
p429
tp430
a(g400
S'astronauts-2'
p431
S'ready-3'
p432
tp433
a(g404
S'try-6'
p434
S'second-5'
p435
tp436
a(g408
S'astronauts-2'
p437
S'try-6'
p438
tp439
a(g412
S'astronauts-2'
p440
S'launch-8'
p441
tp442
a(g416
S'station-11'
p443
S'space-10'
p444
tp445
a(g420
S'astronauts-2'
p446
S'station-11'
p447
tp448
asg64
(lp449
(S'Endeavour'
p450
(dp451
S'NamedEntityTag'
p452
g69
sS'CharacterOffsetEnd'
p453
S'10'
p454
sS'Lemma'
p455
S'Endeavour'
p456
sS'PartOfSpeech'
p457
S'NNP'
p458
sS'CharacterOffsetBegin'
p459
g77
stp460
a(S'astronauts'
p461
(dp462
S'NamedEntityTag'
p463
g69
sS'CharacterOffsetEnd'
p464
S'21'
p465
sS'Lemma'
p466
S'astronaut'
p467
sS'PartOfSpeech'
p468
S'NNS'
p469
sS'CharacterOffsetBegin'
p470
S'11'
p471
stp472
a(S'ready'
p473
(dp474
S'NamedEntityTag'
p475
g69
sS'CharacterOffsetEnd'
p476
S'27'
p477
sS'Lemma'
p478
S'ready'
p479
sS'PartOfSpeech'
p480
S'JJ'
p481
sS'CharacterOffsetBegin'
p482
S'22'
p483
stp484
a(S'for'
p485
(dp486
S'NamedEntityTag'
p487
g69
sS'CharacterOffsetEnd'
p488
S'31'
p489
sS'Lemma'
p490
S'for'
p491
sS'PartOfSpeech'
p492
S'IN'
p493
sS'CharacterOffsetBegin'
p494
S'28'
p495
stp496
a(S'second'
p497
(dp498
S'NormalizedNamedEntityTag'
p499
S'2.0'
p500
sS'Lemma'
p501
S'second'
p502
sS'CharacterOffsetEnd'
p503
S'38'
p504
sS'PartOfSpeech'
p505
S'JJ'
p506
sS'CharacterOffsetBegin'
p507
S'32'
p508
sS'NamedEntityTag'
p509
S'ORDINAL'
p510
stp511
a(S'try'
p512
(dp513
S'NamedEntityTag'
p514
g69
sS'CharacterOffsetEnd'
p515
S'42'
p516
sS'Lemma'
p517
S'try'
p518
sS'PartOfSpeech'
p519
S'NN'
p520
sS'CharacterOffsetBegin'
p521
S'39'
p522
stp523
a(S'at'
p524
(dp525
S'NamedEntityTag'
p526
g69
sS'CharacterOffsetEnd'
p527
S'45'
p528
sS'Lemma'
p529
S'at'
p530
sS'PartOfSpeech'
p531
S'IN'
p532
sS'CharacterOffsetBegin'
p533
S'43'
p534
stp535
a(S'launch'
p536
(dp537
S'NamedEntityTag'
p538
g69
sS'CharacterOffsetEnd'
p539
S'52'
p540
sS'Lemma'
p541
S'launch'
p542
sS'PartOfSpeech'
p543
S'NN'
p544
sS'CharacterOffsetBegin'
p545
S'46'
p546
stp547
a(S'for'
p548
(dp549
S'NamedEntityTag'
p550
g69
sS'CharacterOffsetEnd'
p551
S'56'
p552
sS'Lemma'
p553
S'for'
p554
sS'PartOfSpeech'
p555
S'IN'
p556
sS'CharacterOffsetBegin'
p557
S'53'
p558
stp559
a(S'space'
p560
(dp561
S'NamedEntityTag'
p562
g69
sS'CharacterOffsetEnd'
p563
S'62'
p564
sS'Lemma'
p565
S'space'
p566
sS'PartOfSpeech'
p567
S'NN'
p568
sS'CharacterOffsetBegin'
p569
S'57'
p570
stp571
a(S'station'
p572
(dp573
S'NamedEntityTag'
p574
g69
sS'CharacterOffsetEnd'
p575
S'70'
p576
sS'Lemma'
p577
S'station'
p578
sS'PartOfSpeech'
p579
S'NN'
p580
sS'CharacterOffsetBegin'
p581
S'63'
p582
stp583
asasa(dp584
g4
(lp585
(dp586
g7
S'(ROOT (FRAG (NP (JJ Second) (NN attempt)) (S (VP (TO to) (VP (VB launch) (NP (NNP Endeavour)) (SBAR (IN after) (S (NP (JJ hydraulic) (NN pressure) (NN unit)) (VP (VBD ruled) (ADJP (JJ OK))))))))))'
p587
sg9
S'Second attempt to launch Endeavour after hydraulic pressure unit ruled OK'
p588
sg11
(lp589
(S'root'
p590
S'ROOT'
p591
S'attempt'
p592
tp593
a(S'amod'
p594
S'attempt'
p595
S'Second'
p596
tp597
a(S'aux'
p598
S'launch'
p599
S'to'
p600
tp601
a(S'dep'
p602
S'attempt'
p603
S'launch'
p604
tp605
a(S'dobj'
p606
S'launch'
p607
S'Endeavour'
p608
tp609
a(S'mark'
p610
S'ruled'
p611
S'after'
p612
tp613
a(S'amod'
p614
S'unit'
p615
S'hydraulic'
p616
tp617
a(S'nn'
p618
S'unit'
p619
S'pressure'
p620
tp621
a(S'nsubj'
p622
S'ruled'
p623
S'unit'
p624
tp625
a(S'advcl'
p626
S'launch'
p627
S'ruled'
p628
tp629
a(S'acomp'
p630
S'ruled'
p631
S'OK'
p632
tp633
asg41
(lp634
(g590
S'ROOT-0'
p635
S'attempt-2'
p636
tp637
a(g594
S'attempt-2'
p638
S'Second-1'
p639
tp640
a(g598
S'launch-4'
p641
S'to-3'
p642
tp643
a(g602
S'attempt-2'
p644
S'launch-4'
p645
tp646
a(g606
S'launch-4'
p647
S'Endeavour-5'
p648
tp649
a(g610
S'ruled-10'
p650
S'after-6'
p651
tp652
a(g614
S'unit-9'
p653
S'hydraulic-7'
p654
tp655
a(g618
S'unit-9'
p656
S'pressure-8'
p657
tp658
a(g622
S'ruled-10'
p659
S'unit-9'
p660
tp661
a(g626
S'launch-4'
p662
S'ruled-10'
p663
tp664
a(g630
S'ruled-10'
p665
S'OK-11'
p666
tp667
asg64
(lp668
(S'Second'
p669
(dp670
S'NormalizedNamedEntityTag'
p671
S'2.0'
p672
sS'Lemma'
p673
S'second'
p674
sS'CharacterOffsetEnd'
p675
S'7'
p676
sS'PartOfSpeech'
p677
S'JJ'
p678
sS'CharacterOffsetBegin'
p679
g77
sS'NamedEntityTag'
p680
S'ORDINAL'
p681
stp682
a(S'attempt'
p683
(dp684
S'NamedEntityTag'
p685
g69
sS'CharacterOffsetEnd'
p686
S'15'
p687
sS'Lemma'
p688
S'attempt'
p689
sS'PartOfSpeech'
p690
S'NN'
p691
sS'CharacterOffsetBegin'
p692
S'8'
p693
stp694
a(S'to'
p695
(dp696
S'NamedEntityTag'
p697
g69
sS'CharacterOffsetEnd'
p698
S'18'
p699
sS'Lemma'
p700
S'to'
p701
sS'PartOfSpeech'
p702
S'TO'
p703
sS'CharacterOffsetBegin'
p704
S'16'
p705
stp706
a(S'launch'
p707
(dp708
S'NamedEntityTag'
p709
g69
sS'CharacterOffsetEnd'
p710
S'25'
p711
sS'Lemma'
p712
S'launch'
p713
sS'PartOfSpeech'
p714
S'VB'
p715
sS'CharacterOffsetBegin'
p716
S'19'
p717
stp718
a(S'Endeavour'
p719
(dp720
S'NamedEntityTag'
p721
S'MISC'
p722
sS'CharacterOffsetEnd'
p723
S'35'
p724
sS'Lemma'
p725
S'Endeavour'
p726
sS'PartOfSpeech'
p727
S'NNP'
p728
sS'CharacterOffsetBegin'
p729
S'26'
p730
stp731
a(S'after'
p732
(dp733
S'NamedEntityTag'
p734
g69
sS'CharacterOffsetEnd'
p735
S'41'
p736
sS'Lemma'
p737
S'after'
p738
sS'PartOfSpeech'
p739
S'IN'
p740
sS'CharacterOffsetBegin'
p741
S'36'
p742
stp743
a(S'hydraulic'
p744
(dp745
S'NamedEntityTag'
p746
g69
sS'CharacterOffsetEnd'
p747
S'51'
p748
sS'Lemma'
p749
S'hydraulic'
p750
sS'PartOfSpeech'
p751
S'JJ'
p752
sS'CharacterOffsetBegin'
p753
S'42'
p754
stp755
a(S'pressure'
p756
(dp757
S'NamedEntityTag'
p758
g69
sS'CharacterOffsetEnd'
p759
S'60'
p760
sS'Lemma'
p761
S'pressure'
p762
sS'PartOfSpeech'
p763
S'NN'
p764
sS'CharacterOffsetBegin'
p765
S'52'
p766
stp767
a(S'unit'
p768
(dp769
S'NamedEntityTag'
p770
g69
sS'CharacterOffsetEnd'
p771
S'65'
p772
sS'Lemma'
p773
S'unit'
p774
sS'PartOfSpeech'
p775
S'NN'
p776
sS'CharacterOffsetBegin'
p777
S'61'
p778
stp779
a(S'ruled'
p780
(dp781
S'NamedEntityTag'
p782
g69
sS'CharacterOffsetEnd'
p783
S'71'
p784
sS'Lemma'
p785
S'rule'
p786
sS'PartOfSpeech'
p787
S'VBD'
p788
sS'CharacterOffsetBegin'
p789
S'66'
p790
stp791
a(S'OK'
p792
(dp793
S'NamedEntityTag'
p794
g69
sS'CharacterOffsetEnd'
p795
S'74'
p796
sS'Lemma'
p797
S'ok'
p798
sS'PartOfSpeech'
p799
S'JJ'
p800
sS'CharacterOffsetBegin'
p801
S'72'
p802
stp803
asasasS'article'
p804
(dp805
S'coref'
p806
(lp807
(lp808
((S'first'
p809
I5
I-1
I19
I20
tp810
(S'first'
p811
I0
I-1
I19
I20
tp812
tp813
aa(lp814
((S'Cabana'
p815
I13
I0
I0
I1
tp816
(S'Robert Cabana'
p817
I1
I8
I7
I9
tp818
tp819
a((S'his'
p820
I13
I3
I3
I4
tp821
(S'Robert Cabana'
p822
I1
I8
I7
I9
tp823
tp824
aa(lp825
((S'it'
p826
I4
I3
I13
I14
tp827
(S'NASA'
p828
I4
I1
I1
I2
tp829
tp830
a((S'NASA'
p831
I5
I0
I0
I1
tp832
(S'NASA'
p833
I4
I1
I1
I2
tp834
tp835
a((S'NASA'
p836
I16
I0
I0
I1
tp837
(S'NASA'
p838
I4
I1
I1
I2
tp839
tp840
a((S'it'
p841
I16
I1
I21
I22
tp842
(S'NASA'
p843
I4
I1
I1
I2
tp844
tp845
aa(lp846
((S'The master alarm'
p847
I7
I2
I0
I3
tp848
(S'the master alarm in Endeavours cockpit'
p849
I4
I6
I4
I10
tp850
tp851
a((S'the alarm'
p852
I15
I-1
I8
I10
tp853
(S'the master alarm in Endeavours cockpit'
p854
I4
I6
I4
I10
tp855
tp856
a((S'the alarm'
p857
I22
I2
I1
I3
tp858
(S'the master alarm in Endeavours cockpit'
p859
I4
I6
I4
I10
tp860
tp861
a((S'it'
p862
I22
I5
I5
I6
tp863
(S'the master alarm in Endeavours cockpit'
p864
I4
I6
I4
I10
tp865
tp866
aa(lp867
((S'Thursday'
p868
I4
I6
I26
I27
tp869
(S'early Thursday'
p870
I7
I7
I16
I18
tp871
tp872
aa(lp873
((S'minutes'
p874
I23
I8
I18
I19
tp875
(S'five minutes'
p876
I5
I4
I3
I5
tp877
tp878
aa(lp879
((S'the day'
p880
I16
I4
I3
I5
tp881
(S'each day'
p882
I5
I8
I7
I9
tp883
tp884
aa(lp885
((S'Aboard Endeavour'
p886
I19
I0
I0
I2
tp887
(S'Endeavour in order'
p888
I5
I1
I11
I14
tp889
tp890
a((S'Endeavour'
p891
I24
I-1
I19
I20
tp892
(S'Endeavour in order'
p893
I5
I1
I11
I14
tp894
tp895
a((S'its'
p896
I24
I1
I21
I22
tp897
(S'Endeavour in order'
p898
I5
I1
I11
I14
tp899
tp900
aa(lp901
((S'Russia'
p902
I17
I3
I13
I14
tp903
(S'the Russians'
p904
I5
I4
I33
I35
tp905
tp906
aa(lp907
((S'the shuttle'
p908
I7
I1
I10
I12
tp909
(S'The shuttle'
p910
I6
I1
I0
I2
tp911
tp912
a((S'the shuttle'
p913
I12
I7
I6
I8
tp914
(S'The shuttle'
p915
I6
I1
I0
I2
tp916
tp917
aa(lp918
((S'two'
p919
I12
I0
I10
I11
tp920
(S'two'
p921
I8
I4
I34
I35
tp922
tp923
a((S'two'
p924
I21
I2
I2
I3
tp925
(S'two'
p926
I8
I4
I34
I35
tp927
tp928
a((S'two'
p929
I21
I5
I15
I16
tp930
(S'two'
p931
I8
I4
I34
I35
tp932
tp933
aa(lp934
((S'The problem'
p935
I14
I1
I0
I2
tp936
(S'the problem'
p937
I8
I6
I5
I7
tp938
tp939
a((S'the problem'
p940
I16
I7
I6
I8
tp941
(S'the problem'
p942
I8
I6
I5
I7
tp943
tp944
aa(lp945
((S'a second or two'
p946
I8
I2
I31
I35
tp947
(S'a second or two'
p948
I11
I4
I21
I25
tp949
tp950
aa(lp951
((S'Sure'
p952
I9
I0
I0
I1
tp953
(S'its frustrating'
p954
I9
I3
I2
I4
tp955
tp956
a((S'its'
p957
I9
I2
I2
I3
tp958
(S'its frustrating'
p959
I9
I3
I2
I4
tp960
tp961
aa(lp962
((S'We'
p963
I11
I0
I0
I1
tp964
(S'we'
p965
I10
I1
I1
I2
tp966
tp967
a((S'We'
p968
I13
I2
I12
I13
tp969
(S'we'
p970
I10
I1
I1
I2
tp971
tp972
aa(lp973
((S'things'
p974
I11
I2
I2
I3
tp975
(S'things'
p976
I10
I3
I3
I4
tp977
tp978
aa(lp979
((S'their'
p980
I12
I3
I13
I14
tp981
(S'The six astronauts'
p982
I12
I2
I0
I3
tp983
tp984
a((S'The astronauts'
p985
I20
I1
I0
I2
tp986
(S'The six astronauts'
p987
I12
I2
I0
I3
tp988
tp989
aa(lp990
((S'it'
p991
I20
I7
I17
I18
tp992
(S'the Russian space station piece'
p993
I20
I4
I10
I15
tp994
tp995
aa(lp996
((S'Unity'
p997
I20
I-1
I19
I20
tp998
(S'Unity'
p999
I19
I8
I8
I9
tp1000
tp1001
aa(lp1002
((S'Albright , who was expected back for Fridays attempt'
p1003
I25
I4
I14
I23
tp1004
(S'Madeleine Albright'
p1005
I24
I4
I3
I5
tp1006
tp1007
a((S'Albright'
p1008
I25
I4
I14
I15
tp1009
(S'Madeleine Albright'
p1010
I24
I4
I3
I5
tp1011
tp1012
aa(lp1013
((S'the weather'
p1014
I22
I0
I9
I11
tp1015
(S'the only problem'
p1016
I22
I5
I13
I16
tp1017
tp1018
aa(lp1019
((S'This'
p1020
I26
I0
I0
I1
tp1021
(S'a good investment'
p1022
I26
I4
I2
I5
tp1023
tp1024
aasg4
(lp1025
(dp1026
g7
S'(ROOT (S (PP (IN For) (NP (NP (DT the) (JJ second) (NN day)) (PP (IN in) (NP (DT a) (NN row))))) (, ,) (NP (NNS astronauts)) (VP (VBD boarded) (NP (NN space) (NN shuttle) (NNP Endeavour) (IN on) (NNP Friday)) (PP (IN for) (NP (NN liftoff))) (PP (IN on) (NP (NP (NNS NASAs)) (NP (JJ first) (NN space) (NN station) (NN construction) (NN flight))))) (. .)))'
p1027
sg9
S'For the second day in a row, astronauts boarded space shuttle Endeavour on Friday for liftoff on NASAs first space station construction flight.'
p1028
sg11
(lp1029
(S'root'
p1030
S'ROOT'
p1031
S'boarded'
p1032
tp1033
a(S'det'
p1034
S'day'
p1035
S'the'
p1036
tp1037
a(S'amod'
p1038
S'day'
p1039
S'second'
p1040
tp1041
a(S'prep_for'
p1042
S'boarded'
p1043
S'day'
p1044
tp1045
a(S'det'
p1046
S'row'
p1047
S'a'
p1048
tp1049
a(S'prep_in'
p1050
S'day'
p1051
S'row'
p1052
tp1053
a(S'nsubj'
p1054
S'boarded'
p1055
S'astronauts'
p1056
tp1057
a(S'nn'
p1058
S'Friday'
p1059
S'space'
p1060
tp1061
a(S'nn'
p1062
S'Friday'
p1063
S'shuttle'
p1064
tp1065
a(S'nn'
p1066
S'Friday'
p1067
S'Endeavour'
p1068
tp1069
a(S'amod'
p1070
S'Friday'
p1071
S'on'
p1072
tp1073
a(S'tmod'
p1074
S'boarded'
p1075
S'Friday'
p1076
tp1077
a(S'prep_for'
p1078
S'boarded'
p1079
S'liftoff'
p1080
tp1081
a(S'prep_on'
p1082
S'boarded'
p1083
S'NASAs'
p1084
tp1085
a(S'amod'
p1086
S'flight'
p1087
S'first'
p1088
tp1089
a(S'nn'
p1090
S'flight'
p1091
S'space'
p1092
tp1093
a(S'nn'
p1094
S'flight'
p1095
S'station'
p1096
tp1097
a(S'nn'
p1098
S'flight'
p1099
S'construction'
p1100
tp1101
a(S'dep'
p1102
S'NASAs'
p1103
S'flight'
p1104
tp1105
asg41
(lp1106
(g1030
S'ROOT-0'
p1107
S'boarded-10'
p1108
tp1109
a(g1034
S'day-4'
p1110
S'the-2'
p1111
tp1112
a(g1038
S'day-4'
p1113
S'second-3'
p1114
tp1115
a(g1042
S'boarded-10'
p1116
S'day-4'
p1117
tp1118
a(g1046
S'row-7'
p1119
S'a-6'
p1120
tp1121
a(g1050
S'day-4'
p1122
S'row-7'
p1123
tp1124
a(g1054
S'boarded-10'
p1125
S'astronauts-9'
p1126
tp1127
a(g1058
S'Friday-15'
p1128
S'space-11'
p1129
tp1130
a(g1062
S'Friday-15'
p1131
S'shuttle-12'
p1132
tp1133
a(g1066
S'Friday-15'
p1134
S'Endeavour-13'
p1135
tp1136
a(g1070
S'Friday-15'
p1137
S'on-14'
p1138
tp1139
a(g1074
S'boarded-10'
p1140
S'Friday-15'
p1141
tp1142
a(g1078
S'boarded-10'
p1143
S'liftoff-17'
p1144
tp1145
a(g1082
S'boarded-10'
p1146
S'NASAs-19'
p1147
tp1148
a(g1086
S'flight-24'
p1149
S'first-20'
p1150
tp1151
a(g1090
S'flight-24'
p1152
S'space-21'
p1153
tp1154
a(g1094
S'flight-24'
p1155
S'station-22'
p1156
tp1157
a(g1098
S'flight-24'
p1158
S'construction-23'
p1159
tp1160
a(g1102
S'NASAs-19'
p1161
S'flight-24'
p1162
tp1163
asg64
(lp1164
(S'For'
p1165
(dp1166
S'NamedEntityTag'
p1167
g69
sS'CharacterOffsetEnd'
p1168
S'3'
p1169
sS'Lemma'
p1170
S'for'
p1171
sS'PartOfSpeech'
p1172
S'IN'
p1173
sS'CharacterOffsetBegin'
p1174
S'0'
p1175
stp1176
a(S'the'
p1177
(dp1178
S'NormalizedNamedEntityTag'
p1179
S'P2D'
p1180
sS'Timex'
p1181
S'<TIMEX3 beginPoint="t1" endPoint="t0" tid="t2" type="DURATION" value="P2D">the second day in a row</TIMEX3>'
p1182
sS'Lemma'
p1183
S'the'
p1184
sS'CharacterOffsetEnd'
p1185
g676
sS'PartOfSpeech'
p1186
S'DT'
p1187
sS'CharacterOffsetBegin'
p1188
g235
sS'NamedEntityTag'
p1189
S'DURATION'
p1190
stp1191
a(S'second'
p1192
(dp1193
S'NormalizedNamedEntityTag'
p1194
S'P2D'
p1195
sS'Timex'
p1196
S'<TIMEX3 beginPoint="t1" endPoint="t0" tid="t2" type="DURATION" value="P2D">the second day in a row</TIMEX3>'
p1197
sS'Lemma'
p1198
S'second'
p1199
sS'CharacterOffsetEnd'
p1200
S'14'
p1201
sS'PartOfSpeech'
p1202
S'JJ'
p1203
sS'CharacterOffsetBegin'
p1204
g693
sS'NamedEntityTag'
p1205
S'DURATION'
p1206
stp1207
a(S'day'
p1208
(dp1209
S'NormalizedNamedEntityTag'
p1210
S'P2D'
p1211
sS'Timex'
p1212
S'<TIMEX3 beginPoint="t1" endPoint="t0" tid="t2" type="DURATION" value="P2D">the second day in a row</TIMEX3>'
p1213
sS'Lemma'
p1214
S'day'
p1215
sS'CharacterOffsetEnd'
p1216
S'18'
p1217
sS'PartOfSpeech'
p1218
S'NN'
p1219
sS'CharacterOffsetBegin'
p1220
S'15'
p1221
sS'NamedEntityTag'
p1222
S'DURATION'
p1223
stp1224
a(S'in'
p1225
(dp1226
S'NormalizedNamedEntityTag'
p1227
S'P2D'
p1228
sS'Timex'
p1229
S'<TIMEX3 beginPoint="t1" endPoint="t0" tid="t2" type="DURATION" value="P2D">the second day in a row</TIMEX3>'
p1230
sS'Lemma'
p1231
S'in'
p1232
sS'CharacterOffsetEnd'
p1233
S'21'
p1234
sS'PartOfSpeech'
p1235
S'IN'
p1236
sS'CharacterOffsetBegin'
p1237
S'19'
p1238
sS'NamedEntityTag'
p1239
S'DURATION'
p1240
stp1241
a(g1048
(dp1242
S'NormalizedNamedEntityTag'
p1243
S'P2D'
p1244
sS'Timex'
p1245
S'<TIMEX3 beginPoint="t1" endPoint="t0" tid="t2" type="DURATION" value="P2D">the second day in a row</TIMEX3>'
p1246
sS'Lemma'
p1247
g1048
sS'CharacterOffsetEnd'
p1248
S'23'
p1249
sS'PartOfSpeech'
p1250
S'DT'
p1251
sS'CharacterOffsetBegin'
p1252
S'22'
p1253
sS'NamedEntityTag'
p1254
S'DURATION'
p1255
stp1256
a(S'row'
p1257
(dp1258
S'NormalizedNamedEntityTag'
p1259
S'P2D'
p1260
sS'Timex'
p1261
S'<TIMEX3 beginPoint="t1" endPoint="t0" tid="t2" type="DURATION" value="P2D">the second day in a row</TIMEX3>'
p1262
sS'Lemma'
p1263
S'row'
p1264
sS'CharacterOffsetEnd'
p1265
S'27'
p1266
sS'PartOfSpeech'
p1267
S'NN'
p1268
sS'CharacterOffsetBegin'
p1269
S'24'
p1270
sS'NamedEntityTag'
p1271
S'DURATION'
p1272
stp1273
a(S','
p1274
(dp1275
S'NamedEntityTag'
p1276
g69
sS'CharacterOffsetEnd'
p1277
S'28'
p1278
sS'Lemma'
p1279
g1274
sS'PartOfSpeech'
p1280
g1274
sS'CharacterOffsetBegin'
p1281
S'27'
p1282
stp1283
a(S'astronauts'
p1284
(dp1285
S'NamedEntityTag'
p1286
g69
sS'CharacterOffsetEnd'
p1287
S'39'
p1288
sS'Lemma'
p1289
S'astronaut'
p1290
sS'PartOfSpeech'
p1291
S'NNS'
p1292
sS'CharacterOffsetBegin'
p1293
S'29'
p1294
stp1295
a(S'boarded'
p1296
(dp1297
S'NamedEntityTag'
p1298
g69
sS'CharacterOffsetEnd'
p1299
S'47'
p1300
sS'Lemma'
p1301
S'board'
p1302
sS'PartOfSpeech'
p1303
S'VBD'
p1304
sS'CharacterOffsetBegin'
p1305
S'40'
p1306
stp1307
a(S'space'
p1308
(dp1309
S'NamedEntityTag'
p1310
g69
sS'CharacterOffsetEnd'
p1311
S'53'
p1312
sS'Lemma'
p1313
S'space'
p1314
sS'PartOfSpeech'
p1315
S'NN'
p1316
sS'CharacterOffsetBegin'
p1317
S'48'
p1318
stp1319
a(S'shuttle'
p1320
(dp1321
S'NamedEntityTag'
p1322
g69
sS'CharacterOffsetEnd'
p1323
S'61'
p1324
sS'Lemma'
p1325
S'shuttle'
p1326
sS'PartOfSpeech'
p1327
S'NN'
p1328
sS'CharacterOffsetBegin'
p1329
S'54'
p1330
stp1331
a(S'Endeavour'
p1332
(dp1333
S'NamedEntityTag'
p1334
g69
sS'CharacterOffsetEnd'
p1335
S'71'
p1336
sS'Lemma'
p1337
S'Endeavour'
p1338
sS'PartOfSpeech'
p1339
S'NNP'
p1340
sS'CharacterOffsetBegin'
p1341
S'62'
p1342
stp1343
a(S'on'
p1344
(dp1345
S'NamedEntityTag'
p1346
g69
sS'CharacterOffsetEnd'
p1347
S'74'
p1348
sS'Lemma'
p1349
S'on'
p1350
sS'PartOfSpeech'
p1351
S'IN'
p1352
sS'CharacterOffsetBegin'
p1353
S'72'
p1354
stp1355
a(S'Friday'
p1356
(dp1357
S'NormalizedNamedEntityTag'
p1358
S'XXXX-WXX-5'
p1359
sS'Timex'
p1360
S'<TIMEX3 tid="t3" type="DATE" value="XXXX-WXX-5">Friday</TIMEX3>'
p1361
sS'Lemma'
p1362
S'Friday'
p1363
sS'CharacterOffsetEnd'
p1364
S'81'
p1365
sS'PartOfSpeech'
p1366
S'NNP'
p1367
sS'CharacterOffsetBegin'
p1368
S'75'
p1369
sS'NamedEntityTag'
p1370
S'DATE'
p1371
stp1372
a(S'for'
p1373
(dp1374
S'NamedEntityTag'
p1375
g69
sS'CharacterOffsetEnd'
p1376
S'85'
p1377
sS'Lemma'
p1378
S'for'
p1379
sS'PartOfSpeech'
p1380
S'IN'
p1381
sS'CharacterOffsetBegin'
p1382
S'82'
p1383
stp1384
a(S'liftoff'
p1385
(dp1386
S'NamedEntityTag'
p1387
g69
sS'CharacterOffsetEnd'
p1388
S'93'
p1389
sS'Lemma'
p1390
S'liftoff'
p1391
sS'PartOfSpeech'
p1392
S'NN'
p1393
sS'CharacterOffsetBegin'
p1394
S'86'
p1395
stp1396
a(S'on'
p1397
(dp1398
S'NamedEntityTag'
p1399
g69
sS'CharacterOffsetEnd'
p1400
S'96'
p1401
sS'Lemma'
p1402
S'on'
p1403
sS'PartOfSpeech'
p1404
S'IN'
p1405
sS'CharacterOffsetBegin'
p1406
S'94'
p1407
stp1408
a(S'NASAs'
p1409
(dp1410
S'NamedEntityTag'
p1411
g69
sS'CharacterOffsetEnd'
p1412
S'102'
p1413
sS'Lemma'
p1414
S'nasa'
p1415
sS'PartOfSpeech'
p1416
S'NNS'
p1417
sS'CharacterOffsetBegin'
p1418
S'97'
p1419
stp1420
a(S'first'
p1421
(dp1422
S'NormalizedNamedEntityTag'
p1423
S'1.0'
p1424
sS'Lemma'
p1425
S'first'
p1426
sS'CharacterOffsetEnd'
p1427
S'108'
p1428
sS'PartOfSpeech'
p1429
S'JJ'
p1430
sS'CharacterOffsetBegin'
p1431
S'103'
p1432
sS'NamedEntityTag'
p1433
S'ORDINAL'
p1434
stp1435
a(S'space'
p1436
(dp1437
S'NamedEntityTag'
p1438
g69
sS'CharacterOffsetEnd'
p1439
S'114'
p1440
sS'Lemma'
p1441
S'space'
p1442
sS'PartOfSpeech'
p1443
S'NN'
p1444
sS'CharacterOffsetBegin'
p1445
S'109'
p1446
stp1447
a(S'station'
p1448
(dp1449
S'NamedEntityTag'
p1450
g69
sS'CharacterOffsetEnd'
p1451
S'122'
p1452
sS'Lemma'
p1453
S'station'
p1454
sS'PartOfSpeech'
p1455
S'NN'
p1456
sS'CharacterOffsetBegin'
p1457
S'115'
p1458
stp1459
a(S'construction'
p1460
(dp1461
S'NamedEntityTag'
p1462
g69
sS'CharacterOffsetEnd'
p1463
S'135'
p1464
sS'Lemma'
p1465
S'construction'
p1466
sS'PartOfSpeech'
p1467
S'NN'
p1468
sS'CharacterOffsetBegin'
p1469
S'123'
p1470
stp1471
a(S'flight'
p1472
(dp1473
S'NamedEntityTag'
p1474
g69
sS'CharacterOffsetEnd'
p1475
S'142'
p1476
sS'Lemma'
p1477
S'flight'
p1478
sS'PartOfSpeech'
p1479
S'NN'
p1480
sS'CharacterOffsetBegin'
p1481
S'136'
p1482
stp1483
a(g175
(dp1484
S'NamedEntityTag'
p1485
g69
sS'CharacterOffsetEnd'
p1486
S'143'
p1487
sS'Lemma'
p1488
g175
sS'PartOfSpeech'
p1489
g175
sS'CharacterOffsetBegin'
p1490
S'142'
p1491
stp1492
asa(dp1493
g7
S'(ROOT (SINV (S (VP (VBZ Lets) (VP (VB go) (VP (VB do) (NP (DT this)))))) (, ,) (VP (VBD said) (NP (NN commander))) (NP (NNP Robert) (NNP Cabana)) (. .)))'
p1494
sg9
S'Lets go do this, said commander Robert Cabana.'
p1495
sg11
(lp1496
(S'root'
p1497
S'ROOT'
p1498
S'said'
p1499
tp1500
a(S'ccomp'
p1501
S'said'
p1502
S'Lets'
p1503
tp1504
a(S'dep'
p1505
S'Lets'
p1506
S'go'
p1507
tp1508
a(S'xcomp'
p1509
S'go'
p1510
S'do'
p1511
tp1512
a(S'dobj'
p1513
S'do'
p1514
S'this'
p1515
tp1516
a(S'dobj'
p1517
S'said'
p1518
S'commander'
p1519
tp1520
a(S'nn'
p1521
S'Cabana'
p1522
S'Robert'
p1523
tp1524
a(S'nsubj'
p1525
S'said'
p1526
S'Cabana'
p1527
tp1528
asg41
(lp1529
(g1497
S'ROOT-0'
p1530
S'said-6'
p1531
tp1532
a(g1501
S'said-6'
p1533
S'Lets-1'
p1534
tp1535
a(g1505
S'Lets-1'
p1536
S'go-2'
p1537
tp1538
a(g1509
S'go-2'
p1539
S'do-3'
p1540
tp1541
a(g1513
S'do-3'
p1542
S'this-4'
p1543
tp1544
a(g1517
S'said-6'
p1545
S'commander-7'
p1546
tp1547
a(g1521
S'Cabana-9'
p1548
S'Robert-8'
p1549
tp1550
a(g1525
S'said-6'
p1551
S'Cabana-9'
p1552
tp1553
asg64
(lp1554
(S'Lets'
p1555
(dp1556
S'NamedEntityTag'
p1557
g69
sS'CharacterOffsetEnd'
p1558
S'148'
p1559
sS'Lemma'
p1560
S'let'
p1561
sS'PartOfSpeech'
p1562
S'VBZ'
p1563
sS'CharacterOffsetBegin'
p1564
S'144'
p1565
stp1566
a(S'go'
p1567
(dp1568
S'NamedEntityTag'
p1569
g69
sS'CharacterOffsetEnd'
p1570
S'151'
p1571
sS'Lemma'
p1572
S'go'
p1573
sS'PartOfSpeech'
p1574
S'VB'
p1575
sS'CharacterOffsetBegin'
p1576
S'149'
p1577
stp1578
a(S'do'
p1579
(dp1580
S'NamedEntityTag'
p1581
g69
sS'CharacterOffsetEnd'
p1582
S'154'
p1583
sS'Lemma'
p1584
S'do'
p1585
sS'PartOfSpeech'
p1586
S'VB'
p1587
sS'CharacterOffsetBegin'
p1588
S'152'
p1589
stp1590
a(S'this'
p1591
(dp1592
S'NamedEntityTag'
p1593
g69
sS'CharacterOffsetEnd'
p1594
S'159'
p1595
sS'Lemma'
p1596
S'this'
p1597
sS'PartOfSpeech'
p1598
S'DT'
p1599
sS'CharacterOffsetBegin'
p1600
S'155'
p1601
stp1602
a(g1274
(dp1603
S'NamedEntityTag'
p1604
g69
sS'CharacterOffsetEnd'
p1605
S'160'
p1606
sS'Lemma'
p1607
g1274
sS'PartOfSpeech'
p1608
g1274
sS'CharacterOffsetBegin'
p1609
S'159'
p1610
stp1611
a(S'said'
p1612
(dp1613
S'NamedEntityTag'
p1614
g69
sS'CharacterOffsetEnd'
p1615
S'165'
p1616
sS'Lemma'
p1617
S'say'
p1618
sS'PartOfSpeech'
p1619
S'VBD'
p1620
sS'CharacterOffsetBegin'
p1621
S'161'
p1622
stp1623
a(S'commander'
p1624
(dp1625
S'NamedEntityTag'
p1626
g69
sS'CharacterOffsetEnd'
p1627
S'175'
p1628
sS'Lemma'
p1629
S'commander'
p1630
sS'PartOfSpeech'
p1631
S'NN'
p1632
sS'CharacterOffsetBegin'
p1633
S'166'
p1634
stp1635
a(S'Robert'
p1636
(dp1637
S'NamedEntityTag'
p1638
S'PERSON'
p1639
sS'CharacterOffsetEnd'
p1640
S'182'
p1641
sS'Lemma'
p1642
S'Robert'
p1643
sS'PartOfSpeech'
p1644
S'NNP'
p1645
sS'CharacterOffsetBegin'
p1646
S'176'
p1647
stp1648
a(S'Cabana'
p1649
(dp1650
S'NamedEntityTag'
p1651
S'PERSON'
p1652
sS'CharacterOffsetEnd'
p1653
S'189'
p1654
sS'Lemma'
p1655
S'Cabana'
p1656
sS'PartOfSpeech'
p1657
S'NNP'
p1658
sS'CharacterOffsetBegin'
p1659
S'183'
p1660
stp1661
a(g175
(dp1662
S'NamedEntityTag'
p1663
g69
sS'CharacterOffsetEnd'
p1664
S'190'
p1665
sS'Lemma'
p1666
g175
sS'PartOfSpeech'
p1667
g175
sS'CharacterOffsetBegin'
p1668
S'189'
p1669
stp1670
asa(dp1671
g7
S'(ROOT (SINV (FRAG (INTJ (UH Amen))) (, ,) (VP (VBD replied)) (NP (DT a) (NN launch) (NN controller)) (. .)))'
p1672
sg9
S'Amen, replied a launch controller.'
p1673
sg11
(lp1674
(S'root'
p1675
S'ROOT'
p1676
S'replied'
p1677
tp1678
a(S'dep'
p1679
S'replied'
p1680
S'Amen'
p1681
tp1682
a(S'det'
p1683
S'controller'
p1684
g1048
tp1685
a(S'nn'
p1686
S'controller'
p1687
S'launch'
p1688
tp1689
a(S'nsubj'
p1690
S'replied'
p1691
S'controller'
p1692
tp1693
asg41
(lp1694
(g1675
S'ROOT-0'
p1695
S'replied-3'
p1696
tp1697
a(g1679
S'replied-3'
p1698
S'Amen-1'
p1699
tp1700
a(g1683
S'controller-6'
p1701
S'a-4'
p1702
tp1703
a(g1686
S'controller-6'
p1704
S'launch-5'
p1705
tp1706
a(g1690
S'replied-3'
p1707
S'controller-6'
p1708
tp1709
asg64
(lp1710
(S'Amen'
p1711
(dp1712
S'NamedEntityTag'
p1713
g69
sS'CharacterOffsetEnd'
p1714
S'195'
p1715
sS'Lemma'
p1716
S'amen'
p1717
sS'PartOfSpeech'
p1718
S'UH'
p1719
sS'CharacterOffsetBegin'
p1720
S'191'
p1721
stp1722
a(g1274
(dp1723
S'NamedEntityTag'
p1724
g69
sS'CharacterOffsetEnd'
p1725
S'196'
p1726
sS'Lemma'
p1727
g1274
sS'PartOfSpeech'
p1728
g1274
sS'CharacterOffsetBegin'
p1729
S'195'
p1730
stp1731
a(S'replied'
p1732
(dp1733
S'NamedEntityTag'
p1734
g69
sS'CharacterOffsetEnd'
p1735
S'204'
p1736
sS'Lemma'
p1737
S'reply'
p1738
sS'PartOfSpeech'
p1739
S'VBD'
p1740
sS'CharacterOffsetBegin'
p1741
S'197'
p1742
stp1743
a(g1048
(dp1744
S'NamedEntityTag'
p1745
g69
sS'CharacterOffsetEnd'
p1746
S'206'
p1747
sS'Lemma'
p1748
g1048
sS'PartOfSpeech'
p1749
S'DT'
p1750
sS'CharacterOffsetBegin'
p1751
S'205'
p1752
stp1753
a(S'launch'
p1754
(dp1755
S'NamedEntityTag'
p1756
g69
sS'CharacterOffsetEnd'
p1757
S'213'
p1758
sS'Lemma'
p1759
S'launch'
p1760
sS'PartOfSpeech'
p1761
S'NN'
p1762
sS'CharacterOffsetBegin'
p1763
S'207'
p1764
stp1765
a(S'controller'
p1766
(dp1767
S'NamedEntityTag'
p1768
g69
sS'CharacterOffsetEnd'
p1769
S'224'
p1770
sS'Lemma'
p1771
S'controller'
p1772
sS'PartOfSpeech'
p1773
S'NN'
p1774
sS'CharacterOffsetBegin'
p1775
S'214'
p1776
stp1777
a(g175
(dp1778
S'NamedEntityTag'
p1779
g69
sS'CharacterOffsetEnd'
p1780
S'225'
p1781
sS'Lemma'
p1782
g175
sS'PartOfSpeech'
p1783
g175
sS'CharacterOffsetBegin'
p1784
S'224'
p1785
stp1786
asa(dp1787
g7
S'(ROOT (S (NP (NP (NN Rain)) (CC and) (NP (JJ cloudy) (NNS skies))) (VP (VBD were) (ADVP (RB once) (RB again)) (NP (DT a) (NN threat))) (. .)))'
p1788
sg9
S'Rain and cloudy skies were once again a threat.'
p1789
sg11
(lp1790
(S'root'
p1791
S'ROOT'
p1792
S'threat'
p1793
tp1794
a(S'nsubj'
p1795
S'threat'
p1796
S'Rain'
p1797
tp1798
a(S'amod'
p1799
S'skies'
p1800
S'cloudy'
p1801
tp1802
a(S'conj_and'
p1803
S'Rain'
p1804
S'skies'
p1805
tp1806
a(S'cop'
p1807
S'threat'
p1808
S'were'
p1809
tp1810
a(S'advmod'
p1811
S'again'
p1812
S'once'
p1813
tp1814
a(S'advmod'
p1815
S'threat'
p1816
S'again'
p1817
tp1818
a(S'det'
p1819
S'threat'
p1820
g1048
tp1821
asg41
(lp1822
(g1791
S'ROOT-0'
p1823
S'threat-9'
p1824
tp1825
a(g1795
S'threat-9'
p1826
S'Rain-1'
p1827
tp1828
a(g1799
S'skies-4'
p1829
S'cloudy-3'
p1830
tp1831
a(g1803
S'Rain-1'
p1832
S'skies-4'
p1833
tp1834
a(g1807
S'threat-9'
p1835
S'were-5'
p1836
tp1837
a(g1811
S'again-7'
p1838
S'once-6'
p1839
tp1840
a(g1815
S'threat-9'
p1841
S'again-7'
p1842
tp1843
a(g1819
S'threat-9'
p1844
S'a-8'
p1845
tp1846
asg64
(lp1847
(S'Rain'
p1848
(dp1849
S'NamedEntityTag'
p1850
g69
sS'CharacterOffsetEnd'
p1851
S'230'
p1852
sS'Lemma'
p1853
S'rain'
p1854
sS'PartOfSpeech'
p1855
S'NN'
p1856
sS'CharacterOffsetBegin'
p1857
S'226'
p1858
stp1859
a(S'and'
p1860
(dp1861
S'NamedEntityTag'
p1862
g69
sS'CharacterOffsetEnd'
p1863
S'234'
p1864
sS'Lemma'
p1865
S'and'
p1866
sS'PartOfSpeech'
p1867
S'CC'
p1868
sS'CharacterOffsetBegin'
p1869
S'231'
p1870
stp1871
a(S'cloudy'
p1872
(dp1873
S'NamedEntityTag'
p1874
g69
sS'CharacterOffsetEnd'
p1875
S'241'
p1876
sS'Lemma'
p1877
S'cloudy'
p1878
sS'PartOfSpeech'
p1879
S'JJ'
p1880
sS'CharacterOffsetBegin'
p1881
S'235'
p1882
stp1883
a(S'skies'
p1884
(dp1885
S'NamedEntityTag'
p1886
g69
sS'CharacterOffsetEnd'
p1887
S'247'
p1888
sS'Lemma'
p1889
S'sky'
p1890
sS'PartOfSpeech'
p1891
S'NNS'
p1892
sS'CharacterOffsetBegin'
p1893
S'242'
p1894
stp1895
a(S'were'
p1896
(dp1897
S'NamedEntityTag'
p1898
g69
sS'CharacterOffsetEnd'
p1899
S'252'
p1900
sS'Lemma'
p1901
S'be'
p1902
sS'PartOfSpeech'
p1903
S'VBD'
p1904
sS'CharacterOffsetBegin'
p1905
S'248'
p1906
stp1907
a(S'once'
p1908
(dp1909
S'NormalizedNamedEntityTag'
p1910
S'PAST_REF'
p1911
sS'Timex'
p1912
S'<TIMEX3 tid="t4" type="DATE" value="PAST_REF">once</TIMEX3>'
p1913
sS'Lemma'
p1914
S'once'
p1915
sS'CharacterOffsetEnd'
p1916
S'257'
p1917
sS'PartOfSpeech'
p1918
S'RB'
p1919
sS'CharacterOffsetBegin'
p1920
S'253'
p1921
sS'NamedEntityTag'
p1922
S'DATE'
p1923
stp1924
a(S'again'
p1925
(dp1926
S'NamedEntityTag'
p1927
g69
sS'CharacterOffsetEnd'
p1928
S'263'
p1929
sS'Lemma'
p1930
S'again'
p1931
sS'PartOfSpeech'
p1932
S'RB'
p1933
sS'CharacterOffsetBegin'
p1934
S'258'
p1935
stp1936
a(g1048
(dp1937
S'NamedEntityTag'
p1938
g69
sS'CharacterOffsetEnd'
p1939
S'265'
p1940
sS'Lemma'
p1941
g1048
sS'PartOfSpeech'
p1942
S'DT'
p1943
sS'CharacterOffsetBegin'
p1944
S'264'
p1945
stp1946
a(S'threat'
p1947
(dp1948
S'NamedEntityTag'
p1949
g69
sS'CharacterOffsetEnd'
p1950
S'272'
p1951
sS'Lemma'
p1952
S'threat'
p1953
sS'PartOfSpeech'
p1954
S'NN'
p1955
sS'CharacterOffsetBegin'
p1956
S'266'
p1957
stp1958
a(g175
(dp1959
S'NamedEntityTag'
p1960
g69
sS'CharacterOffsetEnd'
p1961
S'273'
p1962
sS'Lemma'
p1963
g175
sS'PartOfSpeech'
p1964
g175
sS'CharacterOffsetBegin'
p1965
S'272'
p1966
stp1967
asa(dp1968
g7
S'(ROOT (S (S (CC But) (NP (NNP NASA)) (VP (VBD was) (ADJP (JJ confident) (SBAR (S (NP (NP (DT the) (NN master) (NN alarm)) (PP (IN in) (NP (NNP Endeavours) (NN cockpit)))) (VP (MD would) (VP (VB behave)))))))) (: ;) (S (NP (PRP it)) (VP (VBD went) (PRT (RP off)) (PP (IN with) (NP (NP (NP (RB just) (CD 4)) (-LRB- -LCB-) (NP (NNS minutes) (S (VP (TO to) (VP (VB go) (PP (IN in) (NP (DT the) (NN countdown))) (NP-TMP (NNP Thursday)))))) (, ,)) (VP (VBG forcing) (NP (DT a) (NN delay))))))) (. .)))'
p1969
sg9
S'But NASA was confident the master alarm in Endeavours cockpit would behave; it went off with just 4{ minutes to go in the countdown Thursday, forcing a delay.'
p1970
sg11
(lp1971
(S'root'
p1972
S'ROOT'
p1973
S'confident'
p1974
tp1975
a(S'cc'
p1976
S'confident'
p1977
S'But'
p1978
tp1979
a(S'nsubj'
p1980
S'confident'
p1981
S'NASA'
p1982
tp1983
a(S'cop'
p1984
S'confident'
p1985
S'was'
p1986
tp1987
a(S'det'
p1988
S'alarm'
p1989
S'the'
p1990
tp1991
a(S'nn'
p1992
S'alarm'
p1993
S'master'
p1994
tp1995
a(S'nsubj'
p1996
S'behave'
p1997
S'alarm'
p1998
tp1999
a(S'nn'
p2000
S'cockpit'
p2001
S'Endeavours'
p2002
tp2003
a(S'prep_in'
p2004
S'alarm'
p2005
S'cockpit'
p2006
tp2007
a(S'aux'
p2008
S'behave'
p2009
S'would'
p2010
tp2011
a(S'ccomp'
p2012
S'confident'
p2013
S'behave'
p2014
tp2015
a(S'nsubj'
p2016
S'went'
p2017
S'it'
p2018
tp2019
a(S'parataxis'
p2020
S'confident'
p2021
S'went'
p2022
tp2023
a(S'prt'
p2024
S'went'
p2025
S'off'
p2026
tp2027
a(S'advmod'
p2028
g235
S'just'
p2029
tp2030
a(S'prep_with'
p2031
S'went'
p2032
g235
tp2033
a(S'dep'
p2034
g235
S'minutes'
p2035
tp2036
a(S'aux'
p2037
S'go'
p2038
S'to'
p2039
tp2040
a(S'infmod'
p2041
S'minutes'
p2042
S'go'
p2043
tp2044
a(S'det'
p2045
S'countdown'
p2046
S'the'
p2047
tp2048
a(S'prep_in'
p2049
S'go'
p2050
S'countdown'
p2051
tp2052
a(S'tmod'
p2053
S'go'
p2054
S'Thursday'
p2055
tp2056
a(S'partmod'
p2057
g235
S'forcing'
p2058
tp2059
a(S'det'
p2060
S'delay'
p2061
g1048
tp2062
a(S'dobj'
p2063
S'forcing'
p2064
S'delay'
p2065
tp2066
asg41
(lp2067
(g1972
S'ROOT-0'
p2068
S'confident-4'
p2069
tp2070
a(g1976
S'confident-4'
p2071
S'But-1'
p2072
tp2073
a(g1980
S'confident-4'
p2074
S'NASA-2'
p2075
tp2076
a(g1984
S'confident-4'
p2077
S'was-3'
p2078
tp2079
a(g1988
S'alarm-7'
p2080
S'the-5'
p2081
tp2082
a(g1992
S'alarm-7'
p2083
S'master-6'
p2084
tp2085
a(g1996
S'behave-12'
p2086
S'alarm-7'
p2087
tp2088
a(g2000
S'cockpit-10'
p2089
S'Endeavours-9'
p2090
tp2091
a(g2004
S'alarm-7'
p2092
S'cockpit-10'
p2093
tp2094
a(g2008
S'behave-12'
p2095
S'would-11'
p2096
tp2097
a(g2012
S'confident-4'
p2098
S'behave-12'
p2099
tp2100
a(g2016
S'went-15'
p2101
S'it-14'
p2102
tp2103
a(g2020
S'confident-4'
p2104
S'went-15'
p2105
tp2106
a(g2024
S'went-15'
p2107
S'off-16'
p2108
tp2109
a(g2028
S'4-19'
p2110
S'just-18'
p2111
tp2112
a(g2031
S'went-15'
p2113
S'4-19'
p2114
tp2115
a(g2034
S'4-19'
p2116
S'minutes-21'
p2117
tp2118
a(g2037
S'go-23'
p2119
S'to-22'
p2120
tp2121
a(g2041
S'minutes-21'
p2122
S'go-23'
p2123
tp2124
a(g2045
S'countdown-26'
p2125
S'the-25'
p2126
tp2127
a(g2049
S'go-23'
p2128
S'countdown-26'
p2129
tp2130
a(g2053
S'go-23'
p2131
S'Thursday-27'
p2132
tp2133
a(g2057
S'4-19'
p2134
S'forcing-29'
p2135
tp2136
a(g2060
S'delay-31'
p2137
S'a-30'
p2138
tp2139
a(g2063
S'forcing-29'
p2140
S'delay-31'
p2141
tp2142
asg64
(lp2143
(S'But'
p2144
(dp2145
S'NamedEntityTag'
p2146
g69
sS'CharacterOffsetEnd'
p2147
S'277'
p2148
sS'Lemma'
p2149
S'but'
p2150
sS'PartOfSpeech'
p2151
S'CC'
p2152
sS'CharacterOffsetBegin'
p2153
S'274'
p2154
stp2155
a(S'NASA'
p2156
(dp2157
S'NamedEntityTag'
p2158
S'ORGANIZATION'
p2159
sS'CharacterOffsetEnd'
p2160
S'282'
p2161
sS'Lemma'
p2162
S'NASA'
p2163
sS'PartOfSpeech'
p2164
S'NNP'
p2165
sS'CharacterOffsetBegin'
p2166
S'278'
p2167
stp2168
a(S'was'
p2169
(dp2170
S'NamedEntityTag'
p2171
g69
sS'CharacterOffsetEnd'
p2172
S'286'
p2173
sS'Lemma'
p2174
S'be'
p2175
sS'PartOfSpeech'
p2176
S'VBD'
p2177
sS'CharacterOffsetBegin'
p2178
S'283'
p2179
stp2180
a(S'confident'
p2181
(dp2182
S'NamedEntityTag'
p2183
g69
sS'CharacterOffsetEnd'
p2184
S'296'
p2185
sS'Lemma'
p2186
S'confident'
p2187
sS'PartOfSpeech'
p2188
S'JJ'
p2189
sS'CharacterOffsetBegin'
p2190
S'287'
p2191
stp2192
a(S'the'
p2193
(dp2194
S'NamedEntityTag'
p2195
g69
sS'CharacterOffsetEnd'
p2196
S'300'
p2197
sS'Lemma'
p2198
S'the'
p2199
sS'PartOfSpeech'
p2200
S'DT'
p2201
sS'CharacterOffsetBegin'
p2202
S'297'
p2203
stp2204
a(S'master'
p2205
(dp2206
S'NamedEntityTag'
p2207
g69
sS'CharacterOffsetEnd'
p2208
S'307'
p2209
sS'Lemma'
p2210
S'master'
p2211
sS'PartOfSpeech'
p2212
S'NN'
p2213
sS'CharacterOffsetBegin'
p2214
S'301'
p2215
stp2216
a(S'alarm'
p2217
(dp2218
S'NamedEntityTag'
p2219
g69
sS'CharacterOffsetEnd'
p2220
S'313'
p2221
sS'Lemma'
p2222
S'alarm'
p2223
sS'PartOfSpeech'
p2224
S'NN'
p2225
sS'CharacterOffsetBegin'
p2226
S'308'
p2227
stp2228
a(S'in'
p2229
(dp2230
S'NamedEntityTag'
p2231
g69
sS'CharacterOffsetEnd'
p2232
S'316'
p2233
sS'Lemma'
p2234
S'in'
p2235
sS'PartOfSpeech'
p2236
S'IN'
p2237
sS'CharacterOffsetBegin'
p2238
S'314'
p2239
stp2240
a(S'Endeavours'
p2241
(dp2242
S'NamedEntityTag'
p2243
S'LOCATION'
p2244
sS'CharacterOffsetEnd'
p2245
S'327'
p2246
sS'Lemma'
p2247
S'Endeavours'
p2248
sS'PartOfSpeech'
p2249
S'NNP'
p2250
sS'CharacterOffsetBegin'
p2251
S'317'
p2252
stp2253
a(S'cockpit'
p2254
(dp2255
S'NamedEntityTag'
p2256
g69
sS'CharacterOffsetEnd'
p2257
S'335'
p2258
sS'Lemma'
p2259
S'cockpit'
p2260
sS'PartOfSpeech'
p2261
S'NN'
p2262
sS'CharacterOffsetBegin'
p2263
S'328'
p2264
stp2265
a(S'would'
p2266
(dp2267
S'NamedEntityTag'
p2268
g69
sS'CharacterOffsetEnd'
p2269
S'341'
p2270
sS'Lemma'
p2271
S'would'
p2272
sS'PartOfSpeech'
p2273
S'MD'
p2274
sS'CharacterOffsetBegin'
p2275
S'336'
p2276
stp2277
a(S'behave'
p2278
(dp2279
S'NamedEntityTag'
p2280
g69
sS'CharacterOffsetEnd'
p2281
S'348'
p2282
sS'Lemma'
p2283
S'behave'
p2284
sS'PartOfSpeech'
p2285
S'VB'
p2286
sS'CharacterOffsetBegin'
p2287
S'342'
p2288
stp2289
a(S';'
p2290
(dp2291
S'NamedEntityTag'
p2292
g69
sS'CharacterOffsetEnd'
p2293
S'349'
p2294
sS'Lemma'
p2295
g2290
sS'PartOfSpeech'
p2296
S':'
p2297
sS'CharacterOffsetBegin'
p2298
S'348'
p2299
stp2300
a(S'it'
p2301
(dp2302
S'NamedEntityTag'
p2303
g69
sS'CharacterOffsetEnd'
p2304
S'352'
p2305
sS'Lemma'
p2306
S'it'
p2307
sS'PartOfSpeech'
p2308
S'PRP'
p2309
sS'CharacterOffsetBegin'
p2310
S'350'
p2311
stp2312
a(S'went'
p2313
(dp2314
S'NamedEntityTag'
p2315
g69
sS'CharacterOffsetEnd'
p2316
S'357'
p2317
sS'Lemma'
p2318
S'go'
p2319
sS'PartOfSpeech'
p2320
S'VBD'
p2321
sS'CharacterOffsetBegin'
p2322
S'353'
p2323
stp2324
a(S'off'
p2325
(dp2326
S'NamedEntityTag'
p2327
g69
sS'CharacterOffsetEnd'
p2328
S'361'
p2329
sS'Lemma'
p2330
S'off'
p2331
sS'PartOfSpeech'
p2332
S'RP'
p2333
sS'CharacterOffsetBegin'
p2334
S'358'
p2335
stp2336
a(S'with'
p2337
(dp2338
S'NamedEntityTag'
p2339
g69
sS'CharacterOffsetEnd'
p2340
S'366'
p2341
sS'Lemma'
p2342
S'with'
p2343
sS'PartOfSpeech'
p2344
S'IN'
p2345
sS'CharacterOffsetBegin'
p2346
S'362'
p2347
stp2348
a(S'just'
p2349
(dp2350
S'NamedEntityTag'
p2351
g69
sS'CharacterOffsetEnd'
p2352
S'371'
p2353
sS'Lemma'
p2354
S'just'
p2355
sS'PartOfSpeech'
p2356
S'RB'
p2357
sS'CharacterOffsetBegin'
p2358
S'367'
p2359
stp2360
a(g235
(dp2361
S'NormalizedNamedEntityTag'
p2362
S'4.0'
p2363
sS'Lemma'
p2364
g235
sS'CharacterOffsetEnd'
p2365
S'373'
p2366
sS'PartOfSpeech'
p2367
S'CD'
p2368
sS'CharacterOffsetBegin'
p2369
S'372'
p2370
sS'NamedEntityTag'
p2371
S'NUMBER'
p2372
stp2373
a(S'-LCB-'
p2374
(dp2375
S'NamedEntityTag'
p2376
g69
sS'CharacterOffsetEnd'
p2377
S'374'
p2378
sS'Lemma'
p2379
S'-lcb-'
p2380
sS'PartOfSpeech'
p2381
S'-LRB-'
p2382
sS'CharacterOffsetBegin'
p2383
S'373'
p2384
stp2385
a(S'minutes'
p2386
(dp2387
S'NormalizedNamedEntityTag'
p2388
S'PTXM'
p2389
sS'Timex'
p2390
S'<TIMEX3 tid="t5" type="DURATION" value="PTXM">minutes</TIMEX3>'
p2391
sS'Lemma'
p2392
S'minute'
p2393
sS'CharacterOffsetEnd'
p2394
S'382'
p2395
sS'PartOfSpeech'
p2396
S'NNS'
p2397
sS'CharacterOffsetBegin'
p2398
S'375'
p2399
sS'NamedEntityTag'
p2400
S'DURATION'
p2401
stp2402
a(S'to'
p2403
(dp2404
S'NamedEntityTag'
p2405
g69
sS'CharacterOffsetEnd'
p2406
S'385'
p2407
sS'Lemma'
p2408
S'to'
p2409
sS'PartOfSpeech'
p2410
S'TO'
p2411
sS'CharacterOffsetBegin'
p2412
S'383'
p2413
stp2414
a(S'go'
p2415
(dp2416
S'NamedEntityTag'
p2417
g69
sS'CharacterOffsetEnd'
p2418
S'388'
p2419
sS'Lemma'
p2420
S'go'
p2421
sS'PartOfSpeech'
p2422
S'VB'
p2423
sS'CharacterOffsetBegin'
p2424
S'386'
p2425
stp2426
a(S'in'
p2427
(dp2428
S'NamedEntityTag'
p2429
g69
sS'CharacterOffsetEnd'
p2430
S'391'
p2431
sS'Lemma'
p2432
S'in'
p2433
sS'PartOfSpeech'
p2434
S'IN'
p2435
sS'CharacterOffsetBegin'
p2436
S'389'
p2437
stp2438
a(S'the'
p2439
(dp2440
S'NamedEntityTag'
p2441
g69
sS'CharacterOffsetEnd'
p2442
S'395'
p2443
sS'Lemma'
p2444
S'the'
p2445
sS'PartOfSpeech'
p2446
S'DT'
p2447
sS'CharacterOffsetBegin'
p2448
S'392'
p2449
stp2450
a(S'countdown'
p2451
(dp2452
S'NamedEntityTag'
p2453
g69
sS'CharacterOffsetEnd'
p2454
S'405'
p2455
sS'Lemma'
p2456
S'countdown'
p2457
sS'PartOfSpeech'
p2458
S'NN'
p2459
sS'CharacterOffsetBegin'
p2460
S'396'
p2461
stp2462
a(S'Thursday'
p2463
(dp2464
S'NormalizedNamedEntityTag'
p2465
S'XXXX-WXX-4'
p2466
sS'Timex'
p2467
S'<TIMEX3 tid="t6" type="DATE" value="XXXX-WXX-4">Thursday</TIMEX3>'
p2468
sS'Lemma'
p2469
S'Thursday'
p2470
sS'CharacterOffsetEnd'
p2471
S'414'
p2472
sS'PartOfSpeech'
p2473
S'NNP'
p2474
sS'CharacterOffsetBegin'
p2475
S'406'
p2476
sS'NamedEntityTag'
p2477
S'DATE'
p2478
stp2479
a(g1274
(dp2480
S'NamedEntityTag'
p2481
g69
sS'CharacterOffsetEnd'
p2482
S'415'
p2483
sS'Lemma'
p2484
g1274
sS'PartOfSpeech'
p2485
g1274
sS'CharacterOffsetBegin'
p2486
S'414'
p2487
stp2488
a(S'forcing'
p2489
(dp2490
S'NamedEntityTag'
p2491
g69
sS'CharacterOffsetEnd'
p2492
S'423'
p2493
sS'Lemma'
p2494
S'force'
p2495
sS'PartOfSpeech'
p2496
S'VBG'
p2497
sS'CharacterOffsetBegin'
p2498
S'416'
p2499
stp2500
a(g1048
(dp2501
S'NamedEntityTag'
p2502
g69
sS'CharacterOffsetEnd'
p2503
S'425'
p2504
sS'Lemma'
p2505
g1048
sS'PartOfSpeech'
p2506
S'DT'
p2507
sS'CharacterOffsetBegin'
p2508
S'424'
p2509
stp2510
a(S'delay'
p2511
(dp2512
S'NamedEntityTag'
p2513
g69
sS'CharacterOffsetEnd'
p2514
S'431'
p2515
sS'Lemma'
p2516
S'delay'
p2517
sS'PartOfSpeech'
p2518
S'NN'
p2519
sS'CharacterOffsetBegin'
p2520
S'426'
p2521
stp2522
a(g175
(dp2523
S'NamedEntityTag'
p2524
g69
sS'CharacterOffsetEnd'
p2525
S'432'
p2526
sS'Lemma'
p2527
g175
sS'PartOfSpeech'
p2528
g175
sS'CharacterOffsetBegin'
p2529
S'431'
p2530
stp2531
asa(dp2532
g7
S'(ROOT (S (NP (NNP NASA)) (VP (VBZ has) (ADVP (RB only) (NP (NP (CD five) (NNS minutes)) (CC or) (NP (NP (JJR less)) (NP (DT each) (NN day))))) (S (VP (TO to) (VP (VB launch) (NP (NP (NNP Endeavour)) (PP (IN in) (NP (NN order)))) (S (VP (TO to) (VP (VB meet) (PRT (RP up)) (PP (IN with) (NP (NP (DT the) (JJ first) (NN space) (NN station) (NN part)) (, ,) (SBAR (WHNP (WDT which)) (S (VP (VBD was) (VP (VBN put) (PP (IN in) (NP (NN orbit))) (PP (ADVP (NP (CD two) (NNS weeks)) (RB ago)) (IN by) (NP (DT the) (NNPS Russians)))))))))))))))) (. .)))'
p2533
sg9
S'NASA has only five minutes or less each day to launch Endeavour in order to meet up with the first space station part, which was put in orbit two weeks ago by the Russians.'
p2534
sg11
(lp2535
(S'root'
p2536
S'ROOT'
p2537
S'has'
p2538
tp2539
a(S'nsubj'
p2540
S'has'
p2541
S'NASA'
p2542
tp2543
a(S'advmod'
p2544
S'has'
p2545
S'only'
p2546
tp2547
a(S'num'
p2548
S'minutes'
p2549
S'five'
p2550
tp2551
a(S'pobj'
p2552
S'only'
p2553
S'minutes'
p2554
tp2555
a(S'conj_or'
p2556
S'minutes'
p2557
S'less'
p2558
tp2559
a(S'det'
p2560
S'day'
p2561
S'each'
p2562
tp2563
a(S'dep'
p2564
S'less'
p2565
S'day'
p2566
tp2567
a(S'aux'
p2568
S'launch'
p2569
S'to'
p2570
tp2571
a(S'xcomp'
p2572
S'has'
p2573
S'launch'
p2574
tp2575
a(S'dobj'
p2576
S'launch'
p2577
S'Endeavour'
p2578
tp2579
a(S'prep_in'
p2580
S'Endeavour'
p2581
S'order'
p2582
tp2583
a(S'aux'
p2584
S'meet'
p2585
S'to'
p2586
tp2587
a(S'xcomp'
p2588
S'launch'
p2589
S'meet'
p2590
tp2591
a(S'prt'
p2592
S'meet'
p2593
S'up'
p2594
tp2595
a(S'det'
p2596
S'part'
p2597
S'the'
p2598
tp2599
a(S'amod'
p2600
S'part'
p2601
S'first'
p2602
tp2603
a(S'nn'
p2604
S'part'
p2605
S'space'
p2606
tp2607
a(S'nn'
p2608
S'part'
p2609
S'station'
p2610
tp2611
a(S'prep_with'
p2612
S'meet'
p2613
S'part'
p2614
tp2615
a(S'nsubjpass'
p2616
S'put'
p2617
S'which'
p2618
tp2619
a(S'auxpass'
p2620
S'put'
p2621
S'was'
p2622
tp2623
a(S'rcmod'
p2624
S'part'
p2625
S'put'
p2626
tp2627
a(S'prep_in'
p2628
S'put'
p2629
S'orbit'
p2630
tp2631
a(S'num'
p2632
S'weeks'
p2633
S'two'
p2634
tp2635
a(S'npadvmod'
p2636
S'ago'
p2637
S'weeks'
p2638
tp2639
a(S'advmod'
p2640
S'put'
p2641
S'ago'
p2642
tp2643
a(S'det'
p2644
S'Russians'
p2645
S'the'
p2646
tp2647
a(S'agent'
p2648
S'put'
p2649
S'Russians'
p2650
tp2651
asg41
(lp2652
(g2536
S'ROOT-0'
p2653
S'has-2'
p2654
tp2655
a(g2540
S'has-2'
p2656
S'NASA-1'
p2657
tp2658
a(g2544
S'has-2'
p2659
S'only-3'
p2660
tp2661
a(g2548
S'minutes-5'
p2662
S'five-4'
p2663
tp2664
a(g2552
S'only-3'
p2665
S'minutes-5'
p2666
tp2667
a(g2556
S'minutes-5'
p2668
S'less-7'
p2669
tp2670
a(g2560
S'day-9'
p2671
S'each-8'
p2672
tp2673
a(g2564
S'less-7'
p2674
S'day-9'
p2675
tp2676
a(g2568
S'launch-11'
p2677
S'to-10'
p2678
tp2679
a(g2572
S'has-2'
p2680
S'launch-11'
p2681
tp2682
a(g2576
S'launch-11'
p2683
S'Endeavour-12'
p2684
tp2685
a(g2580
S'Endeavour-12'
p2686
S'order-14'
p2687
tp2688
a(g2584
S'meet-16'
p2689
S'to-15'
p2690
tp2691
a(g2588
S'launch-11'
p2692
S'meet-16'
p2693
tp2694
a(g2592
S'meet-16'
p2695
S'up-17'
p2696
tp2697
a(g2596
S'part-23'
p2698
S'the-19'
p2699
tp2700
a(g2600
S'part-23'
p2701
S'first-20'
p2702
tp2703
a(g2604
S'part-23'
p2704
S'space-21'
p2705
tp2706
a(g2608
S'part-23'
p2707
S'station-22'
p2708
tp2709
a(g2612
S'meet-16'
p2710
S'part-23'
p2711
tp2712
a(g2616
S'put-27'
p2713
S'which-25'
p2714
tp2715
a(g2620
S'put-27'
p2716
S'was-26'
p2717
tp2718
a(g2624
S'part-23'
p2719
S'put-27'
p2720
tp2721
a(g2628
S'put-27'
p2722
S'orbit-29'
p2723
tp2724
a(g2632
S'weeks-31'
p2725
S'two-30'
p2726
tp2727
a(g2636
S'ago-32'
p2728
S'weeks-31'
p2729
tp2730
a(g2640
S'put-27'
p2731
S'ago-32'
p2732
tp2733
a(g2644
S'Russians-35'
p2734
S'the-34'
p2735
tp2736
a(g2648
S'put-27'
p2737
S'Russians-35'
p2738
tp2739
asg64
(lp2740
(S'NASA'
p2741
(dp2742
S'NamedEntityTag'
p2743
S'ORGANIZATION'
p2744
sS'CharacterOffsetEnd'
p2745
S'437'
p2746
sS'Lemma'
p2747
S'NASA'
p2748
sS'PartOfSpeech'
p2749
S'NNP'
p2750
sS'CharacterOffsetBegin'
p2751
S'433'
p2752
stp2753
a(S'has'
p2754
(dp2755
S'NamedEntityTag'
p2756
g69
sS'CharacterOffsetEnd'
p2757
S'441'
p2758
sS'Lemma'
p2759
S'have'
p2760
sS'PartOfSpeech'
p2761
S'VBZ'
p2762
sS'CharacterOffsetBegin'
p2763
S'438'
p2764
stp2765
a(S'only'
p2766
(dp2767
S'NamedEntityTag'
p2768
g69
sS'CharacterOffsetEnd'
p2769
S'446'
p2770
sS'Lemma'
p2771
S'only'
p2772
sS'PartOfSpeech'
p2773
S'RB'
p2774
sS'CharacterOffsetBegin'
p2775
S'442'
p2776
stp2777
a(S'five'
p2778
(dp2779
S'NormalizedNamedEntityTag'
p2780
S'PT5M'
p2781
sS'Timex'
p2782
S'<TIMEX3 tid="t7" type="DURATION" value="PT5M">five minutes</TIMEX3>'
p2783
sS'Lemma'
p2784
S'five'
p2785
sS'CharacterOffsetEnd'
p2786
S'451'
p2787
sS'PartOfSpeech'
p2788
S'CD'
p2789
sS'CharacterOffsetBegin'
p2790
S'447'
p2791
sS'NamedEntityTag'
p2792
S'DURATION'
p2793
stp2794
a(S'minutes'
p2795
(dp2796
S'NormalizedNamedEntityTag'
p2797
S'PT5M'
p2798
sS'Timex'
p2799
S'<TIMEX3 tid="t7" type="DURATION" value="PT5M">five minutes</TIMEX3>'
p2800
sS'Lemma'
p2801
S'minute'
p2802
sS'CharacterOffsetEnd'
p2803
S'459'
p2804
sS'PartOfSpeech'
p2805
S'NNS'
p2806
sS'CharacterOffsetBegin'
p2807
S'452'
p2808
sS'NamedEntityTag'
p2809
S'DURATION'
p2810
stp2811
a(S'or'
p2812
(dp2813
S'NamedEntityTag'
p2814
g69
sS'CharacterOffsetEnd'
p2815
S'462'
p2816
sS'Lemma'
p2817
S'or'
p2818
sS'PartOfSpeech'
p2819
S'CC'
p2820
sS'CharacterOffsetBegin'
p2821
S'460'
p2822
stp2823
a(S'less'
p2824
(dp2825
S'NamedEntityTag'
p2826
g69
sS'CharacterOffsetEnd'
p2827
S'467'
p2828
sS'Lemma'
p2829
S'less'
p2830
sS'PartOfSpeech'
p2831
S'JJR'
p2832
sS'CharacterOffsetBegin'
p2833
S'463'
p2834
stp2835
a(S'each'
p2836
(dp2837
S'Timex'
p2838
S'<TIMEX3 periodicity="P1D" quant="each" tid="t8" type="SET" value="P1D">each day</TIMEX3>'
p2839
sS'Lemma'
p2840
S'each'
p2841
sS'CharacterOffsetEnd'
p2842
S'472'
p2843
sS'PartOfSpeech'
p2844
S'DT'
p2845
sS'CharacterOffsetBegin'
p2846
S'468'
p2847
sS'NamedEntityTag'
p2848
S'SET'
p2849
stp2850
a(S'day'
p2851
(dp2852
S'Timex'
p2853
S'<TIMEX3 periodicity="P1D" quant="each" tid="t8" type="SET" value="P1D">each day</TIMEX3>'
p2854
sS'Lemma'
p2855
S'day'
p2856
sS'CharacterOffsetEnd'
p2857
S'476'
p2858
sS'PartOfSpeech'
p2859
S'NN'
p2860
sS'CharacterOffsetBegin'
p2861
S'473'
p2862
sS'NamedEntityTag'
p2863
S'SET'
p2864
stp2865
a(S'to'
p2866
(dp2867
S'NamedEntityTag'
p2868
g69
sS'CharacterOffsetEnd'
p2869
S'479'
p2870
sS'Lemma'
p2871
S'to'
p2872
sS'PartOfSpeech'
p2873
S'TO'
p2874
sS'CharacterOffsetBegin'
p2875
S'477'
p2876
stp2877
a(S'launch'
p2878
(dp2879
S'NamedEntityTag'
p2880
g69
sS'CharacterOffsetEnd'
p2881
S'486'
p2882
sS'Lemma'
p2883
S'launch'
p2884
sS'PartOfSpeech'
p2885
S'VB'
p2886
sS'CharacterOffsetBegin'
p2887
S'480'
p2888
stp2889
a(S'Endeavour'
p2890
(dp2891
S'NamedEntityTag'
p2892
S'MISC'
p2893
sS'CharacterOffsetEnd'
p2894
S'496'
p2895
sS'Lemma'
p2896
S'Endeavour'
p2897
sS'PartOfSpeech'
p2898
S'NNP'
p2899
sS'CharacterOffsetBegin'
p2900
S'487'
p2901
stp2902
a(S'in'
p2903
(dp2904
S'NamedEntityTag'
p2905
g69
sS'CharacterOffsetEnd'
p2906
S'499'
p2907
sS'Lemma'
p2908
S'in'
p2909
sS'PartOfSpeech'
p2910
S'IN'
p2911
sS'CharacterOffsetBegin'
p2912
S'497'
p2913
stp2914
a(S'order'
p2915
(dp2916
S'NamedEntityTag'
p2917
g69
sS'CharacterOffsetEnd'
p2918
S'505'
p2919
sS'Lemma'
p2920
S'order'
p2921
sS'PartOfSpeech'
p2922
S'NN'
p2923
sS'CharacterOffsetBegin'
p2924
S'500'
p2925
stp2926
a(S'to'
p2927
(dp2928
S'NamedEntityTag'
p2929
g69
sS'CharacterOffsetEnd'
p2930
S'508'
p2931
sS'Lemma'
p2932
S'to'
p2933
sS'PartOfSpeech'
p2934
S'TO'
p2935
sS'CharacterOffsetBegin'
p2936
S'506'
p2937
stp2938
a(S'meet'
p2939
(dp2940
S'NamedEntityTag'
p2941
g69
sS'CharacterOffsetEnd'
p2942
S'513'
p2943
sS'Lemma'
p2944
S'meet'
p2945
sS'PartOfSpeech'
p2946
S'VB'
p2947
sS'CharacterOffsetBegin'
p2948
S'509'
p2949
stp2950
a(S'up'
p2951
(dp2952
S'NamedEntityTag'
p2953
g69
sS'CharacterOffsetEnd'
p2954
S'516'
p2955
sS'Lemma'
p2956
S'up'
p2957
sS'PartOfSpeech'
p2958
S'RP'
p2959
sS'CharacterOffsetBegin'
p2960
S'514'
p2961
stp2962
a(S'with'
p2963
(dp2964
S'NamedEntityTag'
p2965
g69
sS'CharacterOffsetEnd'
p2966
S'521'
p2967
sS'Lemma'
p2968
S'with'
p2969
sS'PartOfSpeech'
p2970
S'IN'
p2971
sS'CharacterOffsetBegin'
p2972
S'517'
p2973
stp2974
a(S'the'
p2975
(dp2976
S'NamedEntityTag'
p2977
g69
sS'CharacterOffsetEnd'
p2978
S'525'
p2979
sS'Lemma'
p2980
S'the'
p2981
sS'PartOfSpeech'
p2982
S'DT'
p2983
sS'CharacterOffsetBegin'
p2984
S'522'
p2985
stp2986
a(S'first'
p2987
(dp2988
S'NormalizedNamedEntityTag'
p2989
S'1.0'
p2990
sS'Lemma'
p2991
S'first'
p2992
sS'CharacterOffsetEnd'
p2993
S'531'
p2994
sS'PartOfSpeech'
p2995
S'JJ'
p2996
sS'CharacterOffsetBegin'
p2997
S'526'
p2998
sS'NamedEntityTag'
p2999
S'ORDINAL'
p3000
stp3001
a(S'space'
p3002
(dp3003
S'NamedEntityTag'
p3004
g69
sS'CharacterOffsetEnd'
p3005
S'537'
p3006
sS'Lemma'
p3007
S'space'
p3008
sS'PartOfSpeech'
p3009
S'NN'
p3010
sS'CharacterOffsetBegin'
p3011
S'532'
p3012
stp3013
a(S'station'
p3014
(dp3015
S'NamedEntityTag'
p3016
g69
sS'CharacterOffsetEnd'
p3017
S'545'
p3018
sS'Lemma'
p3019
S'station'
p3020
sS'PartOfSpeech'
p3021
S'NN'
p3022
sS'CharacterOffsetBegin'
p3023
S'538'
p3024
stp3025
a(S'part'
p3026
(dp3027
S'NamedEntityTag'
p3028
g69
sS'CharacterOffsetEnd'
p3029
S'550'
p3030
sS'Lemma'
p3031
S'part'
p3032
sS'PartOfSpeech'
p3033
S'NN'
p3034
sS'CharacterOffsetBegin'
p3035
S'546'
p3036
stp3037
a(g1274
(dp3038
S'NamedEntityTag'
p3039
g69
sS'CharacterOffsetEnd'
p3040
S'551'
p3041
sS'Lemma'
p3042
g1274
sS'PartOfSpeech'
p3043
g1274
sS'CharacterOffsetBegin'
p3044
S'550'
p3045
stp3046
a(S'which'
p3047
(dp3048
S'NamedEntityTag'
p3049
g69
sS'CharacterOffsetEnd'
p3050
S'557'
p3051
sS'Lemma'
p3052
S'which'
p3053
sS'PartOfSpeech'
p3054
S'WDT'
p3055
sS'CharacterOffsetBegin'
p3056
S'552'
p3057
stp3058
a(S'was'
p3059
(dp3060
S'NamedEntityTag'
p3061
g69
sS'CharacterOffsetEnd'
p3062
S'561'
p3063
sS'Lemma'
p3064
S'be'
p3065
sS'PartOfSpeech'
p3066
S'VBD'
p3067
sS'CharacterOffsetBegin'
p3068
S'558'
p3069
stp3070
a(S'put'
p3071
(dp3072
S'NamedEntityTag'
p3073
g69
sS'CharacterOffsetEnd'
p3074
S'565'
p3075
sS'Lemma'
p3076
S'put'
p3077
sS'PartOfSpeech'
p3078
S'VBN'
p3079
sS'CharacterOffsetBegin'
p3080
S'562'
p3081
stp3082
a(S'in'
p3083
(dp3084
S'NamedEntityTag'
p3085
g69
sS'CharacterOffsetEnd'
p3086
S'568'
p3087
sS'Lemma'
p3088
S'in'
p3089
sS'PartOfSpeech'
p3090
S'IN'
p3091
sS'CharacterOffsetBegin'
p3092
S'566'
p3093
stp3094
a(S'orbit'
p3095
(dp3096
S'NamedEntityTag'
p3097
g69
sS'CharacterOffsetEnd'
p3098
S'574'
p3099
sS'Lemma'
p3100
S'orbit'
p3101
sS'PartOfSpeech'
p3102
S'NN'
p3103
sS'CharacterOffsetBegin'
p3104
S'569'
p3105
stp3106
a(S'two'
p3107
(dp3108
S'NormalizedNamedEntityTag'
p3109
S'OFFSET'
p3110
sS'Timex'
p3111
S'<TIMEX3 alt_value="OFFSET P-2W" anchorTimeID="t0" temporalFunction="true" tid="t9" type="DATE" valueFromFunction="tf0">two weeks ago</TIMEX3>'
p3112
sS'Lemma'
p3113
S'two'
p3114
sS'CharacterOffsetEnd'
p3115
S'578'
p3116
sS'PartOfSpeech'
p3117
S'CD'
p3118
sS'CharacterOffsetBegin'
p3119
S'575'
p3120
sS'NamedEntityTag'
p3121
S'DATE'
p3122
stp3123
a(S'weeks'
p3124
(dp3125
S'NormalizedNamedEntityTag'
p3126
S'OFFSET'
p3127
sS'Timex'
p3128
S'<TIMEX3 alt_value="OFFSET P-2W" anchorTimeID="t0" temporalFunction="true" tid="t9" type="DATE" valueFromFunction="tf0">two weeks ago</TIMEX3>'
p3129
sS'Lemma'
p3130
S'week'
p3131
sS'CharacterOffsetEnd'
p3132
S'584'
p3133
sS'PartOfSpeech'
p3134
S'NNS'
p3135
sS'CharacterOffsetBegin'
p3136
S'579'
p3137
sS'NamedEntityTag'
p3138
S'DATE'
p3139
stp3140
a(S'ago'
p3141
(dp3142
S'NormalizedNamedEntityTag'
p3143
S'OFFSET'
p3144
sS'Timex'
p3145
S'<TIMEX3 alt_value="OFFSET P-2W" anchorTimeID="t0" temporalFunction="true" tid="t9" type="DATE" valueFromFunction="tf0">two weeks ago</TIMEX3>'
p3146
sS'Lemma'
p3147
S'ago'
p3148
sS'CharacterOffsetEnd'
p3149
S'588'
p3150
sS'PartOfSpeech'
p3151
S'RB'
p3152
sS'CharacterOffsetBegin'
p3153
S'585'
p3154
sS'NamedEntityTag'
p3155
S'DATE'
p3156
stp3157
a(S'by'
p3158
(dp3159
S'NamedEntityTag'
p3160
g69
sS'CharacterOffsetEnd'
p3161
S'591'
p3162
sS'Lemma'
p3163
S'by'
p3164
sS'PartOfSpeech'
p3165
S'IN'
p3166
sS'CharacterOffsetBegin'
p3167
S'589'
p3168
stp3169
a(S'the'
p3170
(dp3171
S'NamedEntityTag'
p3172
g69
sS'CharacterOffsetEnd'
p3173
S'595'
p3174
sS'Lemma'
p3175
S'the'
p3176
sS'PartOfSpeech'
p3177
S'DT'
p3178
sS'CharacterOffsetBegin'
p3179
S'592'
p3180
stp3181
a(S'Russians'
p3182
(dp3183
S'NamedEntityTag'
p3184
S'MISC'
p3185
sS'CharacterOffsetEnd'
p3186
S'604'
p3187
sS'Lemma'
p3188
S'Russians'
p3189
sS'PartOfSpeech'
p3190
S'NNPS'
p3191
sS'CharacterOffsetBegin'
p3192
S'596'
p3193
stp3194
a(g175
(dp3195
S'NamedEntityTag'
p3196
g69
sS'CharacterOffsetEnd'
p3197
S'605'
p3198
sS'Lemma'
p3199
g175
sS'PartOfSpeech'
p3200
g175
sS'CharacterOffsetBegin'
p3201
S'604'
p3202
stp3203
asa(dp3204
g7
S'(ROOT (S (NP (DT The) (NN shuttle)) (VP (VBZ contains) (NP (DT the) (JJ second) (NN station) (NN component))) (. .)))'
p3205
sg9
S'The shuttle contains the second station component.'
p3206
sg11
(lp3207
(S'root'
p3208
S'ROOT'
p3209
S'contains'
p3210
tp3211
a(S'det'
p3212
S'shuttle'
p3213
S'The'
p3214
tp3215
a(S'nsubj'
p3216
S'contains'
p3217
S'shuttle'
p3218
tp3219
a(S'det'
p3220
S'component'
p3221
S'the'
p3222
tp3223
a(S'amod'
p3224
S'component'
p3225
S'second'
p3226
tp3227
a(S'nn'
p3228
S'component'
p3229
S'station'
p3230
tp3231
a(S'dobj'
p3232
S'contains'
p3233
S'component'
p3234
tp3235
asg41
(lp3236
(g3208
S'ROOT-0'
p3237
S'contains-3'
p3238
tp3239
a(g3212
S'shuttle-2'
p3240
S'The-1'
p3241
tp3242
a(g3216
S'contains-3'
p3243
S'shuttle-2'
p3244
tp3245
a(g3220
S'component-7'
p3246
S'the-4'
p3247
tp3248
a(g3224
S'component-7'
p3249
S'second-5'
p3250
tp3251
a(g3228
S'component-7'
p3252
S'station-6'
p3253
tp3254
a(g3232
S'contains-3'
p3255
S'component-7'
p3256
tp3257
asg64
(lp3258
(S'The'
p3259
(dp3260
S'NamedEntityTag'
p3261
g69
sS'CharacterOffsetEnd'
p3262
S'609'
p3263
sS'Lemma'
p3264
S'the'
p3265
sS'PartOfSpeech'
p3266
S'DT'
p3267
sS'CharacterOffsetBegin'
p3268
S'606'
p3269
stp3270
a(S'shuttle'
p3271
(dp3272
S'NamedEntityTag'
p3273
g69
sS'CharacterOffsetEnd'
p3274
S'617'
p3275
sS'Lemma'
p3276
S'shuttle'
p3277
sS'PartOfSpeech'
p3278
S'NN'
p3279
sS'CharacterOffsetBegin'
p3280
S'610'
p3281
stp3282
a(S'contains'
p3283
(dp3284
S'NamedEntityTag'
p3285
g69
sS'CharacterOffsetEnd'
p3286
S'626'
p3287
sS'Lemma'
p3288
S'contain'
p3289
sS'PartOfSpeech'
p3290
S'VBZ'
p3291
sS'CharacterOffsetBegin'
p3292
S'618'
p3293
stp3294
a(S'the'
p3295
(dp3296
S'NamedEntityTag'
p3297
g69
sS'CharacterOffsetEnd'
p3298
S'630'
p3299
sS'Lemma'
p3300
S'the'
p3301
sS'PartOfSpeech'
p3302
S'DT'
p3303
sS'CharacterOffsetBegin'
p3304
S'627'
p3305
stp3306
a(S'second'
p3307
(dp3308
S'NormalizedNamedEntityTag'
p3309
S'2.0'
p3310
sS'Lemma'
p3311
S'second'
p3312
sS'CharacterOffsetEnd'
p3313
S'637'
p3314
sS'PartOfSpeech'
p3315
S'JJ'
p3316
sS'CharacterOffsetBegin'
p3317
S'631'
p3318
sS'NamedEntityTag'
p3319
S'ORDINAL'
p3320
stp3321
a(S'station'
p3322
(dp3323
S'NamedEntityTag'
p3324
g69
sS'CharacterOffsetEnd'
p3325
S'645'
p3326
sS'Lemma'
p3327
S'station'
p3328
sS'PartOfSpeech'
p3329
S'NN'
p3330
sS'CharacterOffsetBegin'
p3331
S'638'
p3332
stp3333
a(S'component'
p3334
(dp3335
S'NamedEntityTag'
p3336
g69
sS'CharacterOffsetEnd'
p3337
S'655'
p3338
sS'Lemma'
p3339
S'component'
p3340
sS'PartOfSpeech'
p3341
S'NN'
p3342
sS'CharacterOffsetBegin'
p3343
S'646'
p3344
stp3345
a(g175
(dp3346
S'NamedEntityTag'
p3347
g69
sS'CharacterOffsetEnd'
p3348
S'656'
p3349
sS'Lemma'
p3350
g175
sS'PartOfSpeech'
p3351
g175
sS'CharacterOffsetBegin'
p3352
S'655'
p3353
stp3354
asa(dp3355
g7
S'(ROOT (S (S (NP (DT The) (NN master) (NN alarm)) (VP (VBD blared))) (CC and) (S (NP (JJ red) (NNS lights)) (VP (VBD flashed) (SBAR (RB just) (IN before) (S (NP (DT the) (NN shuttle)) (VP (VBD was) (S (VP (TO to) (VP (VB lift) (PRT (RP off))))) (NP-TMP (JJ early) (NNP Thursday))))))) (. .)))'
p3356
sg9
S'The master alarm blared and red lights flashed just before the shuttle was to lift off early Thursday.'
p3357
sg11
(lp3358
(S'root'
p3359
S'ROOT'
p3360
S'blared'
p3361
tp3362
a(S'det'
p3363
S'alarm'
p3364
S'The'
p3365
tp3366
a(S'nn'
p3367
S'alarm'
p3368
S'master'
p3369
tp3370
a(S'nsubj'
p3371
S'blared'
p3372
S'alarm'
p3373
tp3374
a(S'amod'
p3375
S'lights'
p3376
S'red'
p3377
tp3378
a(S'nsubj'
p3379
S'flashed'
p3380
S'lights'
p3381
tp3382
a(S'conj_and'
p3383
S'blared'
p3384
S'flashed'
p3385
tp3386
a(S'advmod'
p3387
S'was'
p3388
S'just'
p3389
tp3390
a(S'mark'
p3391
S'was'
p3392
S'before'
p3393
tp3394
a(S'det'
p3395
S'shuttle'
p3396
S'the'
p3397
tp3398
a(S'nsubj'
p3399
S'was'
p3400
S'shuttle'
p3401
tp3402
a(S'advcl'
p3403
S'flashed'
p3404
S'was'
p3405
tp3406
a(S'aux'
p3407
S'lift'
p3408
S'to'
p3409
tp3410
a(S'xcomp'
p3411
S'was'
p3412
S'lift'
p3413
tp3414
a(S'prt'
p3415
S'lift'
p3416
S'off'
p3417
tp3418
a(S'amod'
p3419
S'Thursday'
p3420
S'early'
p3421
tp3422
a(S'tmod'
p3423
S'was'
p3424
S'Thursday'
p3425
tp3426
asg41
(lp3427
(g3359
S'ROOT-0'
p3428
S'blared-4'
p3429
tp3430
a(g3363
S'alarm-3'
p3431
S'The-1'
p3432
tp3433
a(g3367
S'alarm-3'
p3434
S'master-2'
p3435
tp3436
a(g3371
S'blared-4'
p3437
S'alarm-3'
p3438
tp3439
a(g3375
S'lights-7'
p3440
S'red-6'
p3441
tp3442
a(g3379
S'flashed-8'
p3443
S'lights-7'
p3444
tp3445
a(g3383
S'blared-4'
p3446
S'flashed-8'
p3447
tp3448
a(g3387
S'was-13'
p3449
S'just-9'
p3450
tp3451
a(g3391
S'was-13'
p3452
S'before-10'
p3453
tp3454
a(g3395
S'shuttle-12'
p3455
S'the-11'
p3456
tp3457
a(g3399
S'was-13'
p3458
S'shuttle-12'
p3459
tp3460
a(g3403
S'flashed-8'
p3461
S'was-13'
p3462
tp3463
a(g3407
S'lift-15'
p3464
S'to-14'
p3465
tp3466
a(g3411
S'was-13'
p3467
S'lift-15'
p3468
tp3469
a(g3415
S'lift-15'
p3470
S'off-16'
p3471
tp3472
a(g3419
S'Thursday-18'
p3473
S'early-17'
p3474
tp3475
a(g3423
S'was-13'
p3476
S'Thursday-18'
p3477
tp3478
asg64
(lp3479
(S'The'
p3480
(dp3481
S'NamedEntityTag'
p3482
g69
sS'CharacterOffsetEnd'
p3483
S'660'
p3484
sS'Lemma'
p3485
S'the'
p3486
sS'PartOfSpeech'
p3487
S'DT'
p3488
sS'CharacterOffsetBegin'
p3489
S'657'
p3490
stp3491
a(S'master'
p3492
(dp3493
S'NamedEntityTag'
p3494
g69
sS'CharacterOffsetEnd'
p3495
S'667'
p3496
sS'Lemma'
p3497
S'master'
p3498
sS'PartOfSpeech'
p3499
S'NN'
p3500
sS'CharacterOffsetBegin'
p3501
S'661'
p3502
stp3503
a(S'alarm'
p3504
(dp3505
S'NamedEntityTag'
p3506
g69
sS'CharacterOffsetEnd'
p3507
S'673'
p3508
sS'Lemma'
p3509
S'alarm'
p3510
sS'PartOfSpeech'
p3511
S'NN'
p3512
sS'CharacterOffsetBegin'
p3513
S'668'
p3514
stp3515
a(S'blared'
p3516
(dp3517
S'NamedEntityTag'
p3518
g69
sS'CharacterOffsetEnd'
p3519
S'680'
p3520
sS'Lemma'
p3521
S'blare'
p3522
sS'PartOfSpeech'
p3523
S'VBD'
p3524
sS'CharacterOffsetBegin'
p3525
S'674'
p3526
stp3527
a(S'and'
p3528
(dp3529
S'NamedEntityTag'
p3530
g69
sS'CharacterOffsetEnd'
p3531
S'684'
p3532
sS'Lemma'
p3533
S'and'
p3534
sS'PartOfSpeech'
p3535
S'CC'
p3536
sS'CharacterOffsetBegin'
p3537
S'681'
p3538
stp3539
a(S'red'
p3540
(dp3541
S'NamedEntityTag'
p3542
g69
sS'CharacterOffsetEnd'
p3543
S'688'
p3544
sS'Lemma'
p3545
S'red'
p3546
sS'PartOfSpeech'
p3547
S'JJ'
p3548
sS'CharacterOffsetBegin'
p3549
S'685'
p3550
stp3551
a(S'lights'
p3552
(dp3553
S'NamedEntityTag'
p3554
g69
sS'CharacterOffsetEnd'
p3555
S'695'
p3556
sS'Lemma'
p3557
S'light'
p3558
sS'PartOfSpeech'
p3559
S'NNS'
p3560
sS'CharacterOffsetBegin'
p3561
S'689'
p3562
stp3563
a(S'flashed'
p3564
(dp3565
S'NamedEntityTag'
p3566
g69
sS'CharacterOffsetEnd'
p3567
S'703'
p3568
sS'Lemma'
p3569
S'flash'
p3570
sS'PartOfSpeech'
p3571
S'VBD'
p3572
sS'CharacterOffsetBegin'
p3573
S'696'
p3574
stp3575
a(S'just'
p3576
(dp3577
S'NamedEntityTag'
p3578
g69
sS'CharacterOffsetEnd'
p3579
S'708'
p3580
sS'Lemma'
p3581
S'just'
p3582
sS'PartOfSpeech'
p3583
S'RB'
p3584
sS'CharacterOffsetBegin'
p3585
S'704'
p3586
stp3587
a(S'before'
p3588
(dp3589
S'NamedEntityTag'
p3590
g69
sS'CharacterOffsetEnd'
p3591
S'715'
p3592
sS'Lemma'
p3593
S'before'
p3594
sS'PartOfSpeech'
p3595
S'IN'
p3596
sS'CharacterOffsetBegin'
p3597
S'709'
p3598
stp3599
a(S'the'
p3600
(dp3601
S'NamedEntityTag'
p3602
g69
sS'CharacterOffsetEnd'
p3603
S'719'
p3604
sS'Lemma'
p3605
S'the'
p3606
sS'PartOfSpeech'
p3607
S'DT'
p3608
sS'CharacterOffsetBegin'
p3609
S'716'
p3610
stp3611
a(S'shuttle'
p3612
(dp3613
S'NamedEntityTag'
p3614
g69
sS'CharacterOffsetEnd'
p3615
S'727'
p3616
sS'Lemma'
p3617
S'shuttle'
p3618
sS'PartOfSpeech'
p3619
S'NN'
p3620
sS'CharacterOffsetBegin'
p3621
S'720'
p3622
stp3623
a(S'was'
p3624
(dp3625
S'NamedEntityTag'
p3626
g69
sS'CharacterOffsetEnd'
p3627
S'731'
p3628
sS'Lemma'
p3629
S'be'
p3630
sS'PartOfSpeech'
p3631
S'VBD'
p3632
sS'CharacterOffsetBegin'
p3633
S'728'
p3634
stp3635
a(S'to'
p3636
(dp3637
S'NamedEntityTag'
p3638
g69
sS'CharacterOffsetEnd'
p3639
S'734'
p3640
sS'Lemma'
p3641
S'to'
p3642
sS'PartOfSpeech'
p3643
S'TO'
p3644
sS'CharacterOffsetBegin'
p3645
S'732'
p3646
stp3647
a(S'lift'
p3648
(dp3649
S'NamedEntityTag'
p3650
g69
sS'CharacterOffsetEnd'
p3651
S'739'
p3652
sS'Lemma'
p3653
S'lift'
p3654
sS'PartOfSpeech'
p3655
S'VB'
p3656
sS'CharacterOffsetBegin'
p3657
S'735'
p3658
stp3659
a(S'off'
p3660
(dp3661
S'NamedEntityTag'
p3662
g69
sS'CharacterOffsetEnd'
p3663
S'743'
p3664
sS'Lemma'
p3665
S'off'
p3666
sS'PartOfSpeech'
p3667
S'RP'
p3668
sS'CharacterOffsetBegin'
p3669
S'740'
p3670
stp3671
a(S'early'
p3672
(dp3673
S'NormalizedNamedEntityTag'
p3674
S'XXXX-WXX-4'
p3675
sS'Timex'
p3676
S'<TIMEX3 mod="EARLY" tid="t10" type="DATE" value="XXXX-WXX-4">early Thursday</TIMEX3>'
p3677
sS'Lemma'
p3678
S'early'
p3679
sS'CharacterOffsetEnd'
p3680
S'749'
p3681
sS'PartOfSpeech'
p3682
S'JJ'
p3683
sS'CharacterOffsetBegin'
p3684
S'744'
p3685
sS'NamedEntityTag'
p3686
S'DATE'
p3687
stp3688
a(S'Thursday'
p3689
(dp3690
S'NormalizedNamedEntityTag'
p3691
S'XXXX-WXX-4'
p3692
sS'Timex'
p3693
S'<TIMEX3 mod="EARLY" tid="t10" type="DATE" value="XXXX-WXX-4">early Thursday</TIMEX3>'
p3694
sS'Lemma'
p3695
S'Thursday'
p3696
sS'CharacterOffsetEnd'
p3697
S'758'
p3698
sS'PartOfSpeech'
p3699
S'NNP'
p3700
sS'CharacterOffsetBegin'
p3701
S'750'
p3702
sS'NamedEntityTag'
p3703
S'DATE'
p3704
stp3705
a(g175
(dp3706
S'NamedEntityTag'
p3707
g69
sS'CharacterOffsetEnd'
p3708
S'759'
p3709
sS'Lemma'
p3710
g175
sS'PartOfSpeech'
p3711
g175
sS'CharacterOffsetBegin'
p3712
S'758'
p3713
stp3714
asa(dp3715
g7
S'(ROOT (S (S (PP (IN By) (NP (DT the) (NN time))) (NP (NNS controllers)) (VP (VP (VBD traced) (NP (DT the) (NN problem)) (PP (TO to) (NP (NP (DT a) (JJ momentary) (NN drop)) (PP (IN in) (NP (JJ hydraulic) (NN pressure)))))) (CC and) (VP (VBD decided) (S (VP (TO to) (VP (VB press) (ADVP (RB ahead)))))))) (, ,) (NP (PRP it)) (VP (VBD was) (ADJP (RB too) (JJ late)) (SBAR (IN _) (S (NP (PRP they)) (VP (VBD had) (VP (VBN missed) (NP (DT the) (NN cutoff)) (PP (IN by) (NP (NP (DT a) (JJ second)) (CC or) (NP (CD two))))))))) (. .)))'
p3716
sg9
S'By the time controllers traced the problem to a momentary drop in hydraulic pressure and decided to press ahead, it was too late _ they had missed the cutoff by a second or two.'
p3717
sg11
(lp3718
(S'root'
p3719
S'ROOT'
p3720
S'late'
p3721
tp3722
a(S'det'
p3723
S'time'
p3724
S'the'
p3725
tp3726
a(S'prep_by'
p3727
S'traced'
p3728
S'time'
p3729
tp3730
a(S'nsubj'
p3731
S'traced'
p3732
S'controllers'
p3733
tp3734
a(S'ccomp'
p3735
S'late'
p3736
S'traced'
p3737
tp3738
a(S'det'
p3739
S'problem'
p3740
S'the'
p3741
tp3742
a(S'dobj'
p3743
S'traced'
p3744
S'problem'
p3745
tp3746
a(S'det'
p3747
S'drop'
p3748
g1048
tp3749
a(S'amod'
p3750
S'drop'
p3751
S'momentary'
p3752
tp3753
a(S'prep_to'
p3754
S'traced'
p3755
S'drop'
p3756
tp3757
a(S'amod'
p3758
S'pressure'
p3759
S'hydraulic'
p3760
tp3761
a(S'prep_in'
p3762
S'drop'
p3763
S'pressure'
p3764
tp3765
a(S'conj_and'
p3766
S'traced'
p3767
S'decided'
p3768
tp3769
a(S'aux'
p3770
S'press'
p3771
S'to'
p3772
tp3773
a(S'xcomp'
p3774
S'decided'
p3775
S'press'
p3776
tp3777
a(S'advmod'
p3778
S'press'
p3779
S'ahead'
p3780
tp3781
a(S'nsubj'
p3782
S'late'
p3783
S'it'
p3784
tp3785
a(S'cop'
p3786
S'late'
p3787
S'was'
p3788
tp3789
a(S'advmod'
p3790
S'late'
p3791
S'too'
p3792
tp3793
a(S'mark'
p3794
S'missed'
p3795
S'_'
p3796
tp3797
a(S'nsubj'
p3798
S'missed'
p3799
S'they'
p3800
tp3801
a(S'aux'
p3802
S'missed'
p3803
S'had'
p3804
tp3805
a(S'advcl'
p3806
S'late'
p3807
S'missed'
p3808
tp3809
a(S'det'
p3810
S'cutoff'
p3811
S'the'
p3812
tp3813
a(S'dobj'
p3814
S'missed'
p3815
S'cutoff'
p3816
tp3817
a(S'det'
p3818
S'second'
p3819
g1048
tp3820
a(S'prep_by'
p3821
S'missed'
p3822
S'second'
p3823
tp3824
a(S'conj_or'
p3825
S'second'
p3826
S'two'
p3827
tp3828
asg41
(lp3829
(g3719
S'ROOT-0'
p3830
S'late-24'
p3831
tp3832
a(g3723
S'time-3'
p3833
S'the-2'
p3834
tp3835
a(g3727
S'traced-5'
p3836
S'time-3'
p3837
tp3838
a(g3731
S'traced-5'
p3839
S'controllers-4'
p3840
tp3841
a(g3735
S'late-24'
p3842
S'traced-5'
p3843
tp3844
a(g3739
S'problem-7'
p3845
S'the-6'
p3846
tp3847
a(g3743
S'traced-5'
p3848
S'problem-7'
p3849
tp3850
a(g3747
S'drop-11'
p3851
S'a-9'
p3852
tp3853
a(g3750
S'drop-11'
p3854
S'momentary-10'
p3855
tp3856
a(g3754
S'traced-5'
p3857
S'drop-11'
p3858
tp3859
a(g3758
S'pressure-14'
p3860
S'hydraulic-13'
p3861
tp3862
a(g3762
S'drop-11'
p3863
S'pressure-14'
p3864
tp3865
a(g3766
S'traced-5'
p3866
S'decided-16'
p3867
tp3868
a(g3770
S'press-18'
p3869
S'to-17'
p3870
tp3871
a(g3774
S'decided-16'
p3872
S'press-18'
p3873
tp3874
a(g3778
S'press-18'
p3875
S'ahead-19'
p3876
tp3877
a(g3782
S'late-24'
p3878
S'it-21'
p3879
tp3880
a(g3786
S'late-24'
p3881
S'was-22'
p3882
tp3883
a(g3790
S'late-24'
p3884
S'too-23'
p3885
tp3886
a(g3794
S'missed-28'
p3887
S'_-25'
p3888
tp3889
a(g3798
S'missed-28'
p3890
S'they-26'
p3891
tp3892
a(g3802
S'missed-28'
p3893
S'had-27'
p3894
tp3895
a(g3806
S'late-24'
p3896
S'missed-28'
p3897
tp3898
a(g3810
S'cutoff-30'
p3899
S'the-29'
p3900
tp3901
a(g3814
S'missed-28'
p3902
S'cutoff-30'
p3903
tp3904
a(g3818
S'second-33'
p3905
S'a-32'
p3906
tp3907
a(g3821
S'missed-28'
p3908
S'second-33'
p3909
tp3910
a(g3825
S'second-33'
p3911
S'two-35'
p3912
tp3913
asg64
(lp3914
(S'By'
p3915
(dp3916
S'NamedEntityTag'
p3917
g69
sS'CharacterOffsetEnd'
p3918
S'762'
p3919
sS'Lemma'
p3920
S'by'
p3921
sS'PartOfSpeech'
p3922
S'IN'
p3923
sS'CharacterOffsetBegin'
p3924
S'760'
p3925
stp3926
a(S'the'
p3927
(dp3928
S'NamedEntityTag'
p3929
g69
sS'CharacterOffsetEnd'
p3930
S'766'
p3931
sS'Lemma'
p3932
S'the'
p3933
sS'PartOfSpeech'
p3934
S'DT'
p3935
sS'CharacterOffsetBegin'
p3936
S'763'
p3937
stp3938
a(S'time'
p3939
(dp3940
S'NamedEntityTag'
p3941
g69
sS'CharacterOffsetEnd'
p3942
S'771'
p3943
sS'Lemma'
p3944
S'time'
p3945
sS'PartOfSpeech'
p3946
S'NN'
p3947
sS'CharacterOffsetBegin'
p3948
S'767'
p3949
stp3950
a(S'controllers'
p3951
(dp3952
S'NamedEntityTag'
p3953
g69
sS'CharacterOffsetEnd'
p3954
S'783'
p3955
sS'Lemma'
p3956
S'controller'
p3957
sS'PartOfSpeech'
p3958
S'NNS'
p3959
sS'CharacterOffsetBegin'
p3960
S'772'
p3961
stp3962
a(S'traced'
p3963
(dp3964
S'NamedEntityTag'
p3965
g69
sS'CharacterOffsetEnd'
p3966
S'790'
p3967
sS'Lemma'
p3968
S'trace'
p3969
sS'PartOfSpeech'
p3970
S'VBD'
p3971
sS'CharacterOffsetBegin'
p3972
S'784'
p3973
stp3974
a(S'the'
p3975
(dp3976
S'NamedEntityTag'
p3977
g69
sS'CharacterOffsetEnd'
p3978
S'794'
p3979
sS'Lemma'
p3980
S'the'
p3981
sS'PartOfSpeech'
p3982
S'DT'
p3983
sS'CharacterOffsetBegin'
p3984
S'791'
p3985
stp3986
a(S'problem'
p3987
(dp3988
S'NamedEntityTag'
p3989
g69
sS'CharacterOffsetEnd'
p3990
S'802'
p3991
sS'Lemma'
p3992
S'problem'
p3993
sS'PartOfSpeech'
p3994
S'NN'
p3995
sS'CharacterOffsetBegin'
p3996
S'795'
p3997
stp3998
a(S'to'
p3999
(dp4000
S'NamedEntityTag'
p4001
g69
sS'CharacterOffsetEnd'
p4002
S'805'
p4003
sS'Lemma'
p4004
S'to'
p4005
sS'PartOfSpeech'
p4006
S'TO'
p4007
sS'CharacterOffsetBegin'
p4008
S'803'
p4009
stp4010
a(g1048
(dp4011
S'NamedEntityTag'
p4012
g69
sS'CharacterOffsetEnd'
p4013
S'807'
p4014
sS'Lemma'
p4015
g1048
sS'PartOfSpeech'
p4016
S'DT'
p4017
sS'CharacterOffsetBegin'
p4018
S'806'
p4019
stp4020
a(S'momentary'
p4021
(dp4022
S'NamedEntityTag'
p4023
g69
sS'CharacterOffsetEnd'
p4024
S'817'
p4025
sS'Lemma'
p4026
S'momentary'
p4027
sS'PartOfSpeech'
p4028
S'JJ'
p4029
sS'CharacterOffsetBegin'
p4030
S'808'
p4031
stp4032
a(S'drop'
p4033
(dp4034
S'NamedEntityTag'
p4035
g69
sS'CharacterOffsetEnd'
p4036
S'822'
p4037
sS'Lemma'
p4038
S'drop'
p4039
sS'PartOfSpeech'
p4040
S'NN'
p4041
sS'CharacterOffsetBegin'
p4042
S'818'
p4043
stp4044
a(S'in'
p4045
(dp4046
S'NamedEntityTag'
p4047
g69
sS'CharacterOffsetEnd'
p4048
S'825'
p4049
sS'Lemma'
p4050
S'in'
p4051
sS'PartOfSpeech'
p4052
S'IN'
p4053
sS'CharacterOffsetBegin'
p4054
S'823'
p4055
stp4056
a(S'hydraulic'
p4057
(dp4058
S'NamedEntityTag'
p4059
g69
sS'CharacterOffsetEnd'
p4060
S'835'
p4061
sS'Lemma'
p4062
S'hydraulic'
p4063
sS'PartOfSpeech'
p4064
S'JJ'
p4065
sS'CharacterOffsetBegin'
p4066
S'826'
p4067
stp4068
a(S'pressure'
p4069
(dp4070
S'NamedEntityTag'
p4071
g69
sS'CharacterOffsetEnd'
p4072
S'844'
p4073
sS'Lemma'
p4074
S'pressure'
p4075
sS'PartOfSpeech'
p4076
S'NN'
p4077
sS'CharacterOffsetBegin'
p4078
S'836'
p4079
stp4080
a(S'and'
p4081
(dp4082
S'NamedEntityTag'
p4083
g69
sS'CharacterOffsetEnd'
p4084
S'848'
p4085
sS'Lemma'
p4086
S'and'
p4087
sS'PartOfSpeech'
p4088
S'CC'
p4089
sS'CharacterOffsetBegin'
p4090
S'845'
p4091
stp4092
a(S'decided'
p4093
(dp4094
S'NamedEntityTag'
p4095
g69
sS'CharacterOffsetEnd'
p4096
S'856'
p4097
sS'Lemma'
p4098
S'decide'
p4099
sS'PartOfSpeech'
p4100
S'VBD'
p4101
sS'CharacterOffsetBegin'
p4102
S'849'
p4103
stp4104
a(S'to'
p4105
(dp4106
S'NamedEntityTag'
p4107
g69
sS'CharacterOffsetEnd'
p4108
S'859'
p4109
sS'Lemma'
p4110
S'to'
p4111
sS'PartOfSpeech'
p4112
S'TO'
p4113
sS'CharacterOffsetBegin'
p4114
S'857'
p4115
stp4116
a(S'press'
p4117
(dp4118
S'NamedEntityTag'
p4119
g69
sS'CharacterOffsetEnd'
p4120
S'865'
p4121
sS'Lemma'
p4122
S'press'
p4123
sS'PartOfSpeech'
p4124
S'VB'
p4125
sS'CharacterOffsetBegin'
p4126
S'860'
p4127
stp4128
a(S'ahead'
p4129
(dp4130
S'NamedEntityTag'
p4131
g69
sS'CharacterOffsetEnd'
p4132
S'871'
p4133
sS'Lemma'
p4134
S'ahead'
p4135
sS'PartOfSpeech'
p4136
S'RB'
p4137
sS'CharacterOffsetBegin'
p4138
S'866'
p4139
stp4140
a(g1274
(dp4141
S'NamedEntityTag'
p4142
g69
sS'CharacterOffsetEnd'
p4143
S'872'
p4144
sS'Lemma'
p4145
g1274
sS'PartOfSpeech'
p4146
g1274
sS'CharacterOffsetBegin'
p4147
S'871'
p4148
stp4149
a(S'it'
p4150
(dp4151
S'NamedEntityTag'
p4152
g69
sS'CharacterOffsetEnd'
p4153
S'875'
p4154
sS'Lemma'
p4155
S'it'
p4156
sS'PartOfSpeech'
p4157
S'PRP'
p4158
sS'CharacterOffsetBegin'
p4159
S'873'
p4160
stp4161
a(S'was'
p4162
(dp4163
S'NamedEntityTag'
p4164
g69
sS'CharacterOffsetEnd'
p4165
S'879'
p4166
sS'Lemma'
p4167
S'be'
p4168
sS'PartOfSpeech'
p4169
S'VBD'
p4170
sS'CharacterOffsetBegin'
p4171
S'876'
p4172
stp4173
a(S'too'
p4174
(dp4175
S'NamedEntityTag'
p4176
g69
sS'CharacterOffsetEnd'
p4177
S'883'
p4178
sS'Lemma'
p4179
S'too'
p4180
sS'PartOfSpeech'
p4181
S'RB'
p4182
sS'CharacterOffsetBegin'
p4183
S'880'
p4184
stp4185
a(S'late'
p4186
(dp4187
S'NamedEntityTag'
p4188
g69
sS'CharacterOffsetEnd'
p4189
S'888'
p4190
sS'Lemma'
p4191
S'late'
p4192
sS'PartOfSpeech'
p4193
S'JJ'
p4194
sS'CharacterOffsetBegin'
p4195
S'884'
p4196
stp4197
a(g3796
(dp4198
S'NamedEntityTag'
p4199
g69
sS'CharacterOffsetEnd'
p4200
S'890'
p4201
sS'Lemma'
p4202
g3796
sS'PartOfSpeech'
p4203
S'IN'
p4204
sS'CharacterOffsetBegin'
p4205
S'889'
p4206
stp4207
a(S'they'
p4208
(dp4209
S'NamedEntityTag'
p4210
g69
sS'CharacterOffsetEnd'
p4211
S'895'
p4212
sS'Lemma'
p4213
S'they'
p4214
sS'PartOfSpeech'
p4215
S'PRP'
p4216
sS'CharacterOffsetBegin'
p4217
S'891'
p4218
stp4219
a(S'had'
p4220
(dp4221
S'NamedEntityTag'
p4222
g69
sS'CharacterOffsetEnd'
p4223
S'899'
p4224
sS'Lemma'
p4225
S'have'
p4226
sS'PartOfSpeech'
p4227
S'VBD'
p4228
sS'CharacterOffsetBegin'
p4229
S'896'
p4230
stp4231
a(S'missed'
p4232
(dp4233
S'NamedEntityTag'
p4234
g69
sS'CharacterOffsetEnd'
p4235
S'906'
p4236
sS'Lemma'
p4237
S'miss'
p4238
sS'PartOfSpeech'
p4239
S'VBN'
p4240
sS'CharacterOffsetBegin'
p4241
S'900'
p4242
stp4243
a(S'the'
p4244
(dp4245
S'NamedEntityTag'
p4246
g69
sS'CharacterOffsetEnd'
p4247
S'910'
p4248
sS'Lemma'
p4249
S'the'
p4250
sS'PartOfSpeech'
p4251
S'DT'
p4252
sS'CharacterOffsetBegin'
p4253
S'907'
p4254
stp4255
a(S'cutoff'
p4256
(dp4257
S'NamedEntityTag'
p4258
g69
sS'CharacterOffsetEnd'
p4259
S'917'
p4260
sS'Lemma'
p4261
S'cutoff'
p4262
sS'PartOfSpeech'
p4263
S'NN'
p4264
sS'CharacterOffsetBegin'
p4265
S'911'
p4266
stp4267
a(S'by'
p4268
(dp4269
S'NamedEntityTag'
p4270
g69
sS'CharacterOffsetEnd'
p4271
S'920'
p4272
sS'Lemma'
p4273
S'by'
p4274
sS'PartOfSpeech'
p4275
S'IN'
p4276
sS'CharacterOffsetBegin'
p4277
S'918'
p4278
stp4279
a(g1048
(dp4280
S'NormalizedNamedEntityTag'
p4281
S'PT1S'
p4282
sS'Timex'
p4283
S'<TIMEX3 tid="t11" type="DURATION" value="PT1S">a second</TIMEX3>'
p4284
sS'Lemma'
p4285
g1048
sS'CharacterOffsetEnd'
p4286
S'922'
p4287
sS'PartOfSpeech'
p4288
S'DT'
p4289
sS'CharacterOffsetBegin'
p4290
S'921'
p4291
sS'NamedEntityTag'
p4292
S'DURATION'
p4293
stp4294
a(S'second'
p4295
(dp4296
S'NormalizedNamedEntityTag'
p4297
S'PT1S'
p4298
sS'Timex'
p4299
S'<TIMEX3 tid="t11" type="DURATION" value="PT1S">a second</TIMEX3>'
p4300
sS'Lemma'
p4301
S'second'
p4302
sS'CharacterOffsetEnd'
p4303
S'929'
p4304
sS'PartOfSpeech'
p4305
S'JJ'
p4306
sS'CharacterOffsetBegin'
p4307
S'923'
p4308
sS'NamedEntityTag'
p4309
S'DURATION'
p4310
stp4311
a(S'or'
p4312
(dp4313
S'NamedEntityTag'
p4314
g69
sS'CharacterOffsetEnd'
p4315
S'932'
p4316
sS'Lemma'
p4317
S'or'
p4318
sS'PartOfSpeech'
p4319
S'CC'
p4320
sS'CharacterOffsetBegin'
p4321
S'930'
p4322
stp4323
a(S'two'
p4324
(dp4325
S'NormalizedNamedEntityTag'
p4326
S'2.0'
p4327
sS'Lemma'
p4328
S'two'
p4329
sS'CharacterOffsetEnd'
p4330
S'936'
p4331
sS'PartOfSpeech'
p4332
S'CD'
p4333
sS'CharacterOffsetBegin'
p4334
S'933'
p4335
sS'NamedEntityTag'
p4336
S'NUMBER'
p4337
stp4338
a(g175
(dp4339
S'NamedEntityTag'
p4340
g69
sS'CharacterOffsetEnd'
p4341
S'937'
p4342
sS'Lemma'
p4343
g175
sS'PartOfSpeech'
p4344
g175
sS'CharacterOffsetBegin'
p4345
S'936'
p4346
stp4347
asa(dp4348
g7
S'(ROOT (S (NP (NP (JJ Sure)) (, ,) (NP (PRP$ its) (JJ frustrating)) (, ,)) (VP (VBD said) (NP (NP (NNP Bill) (NNP Readdy)) (, ,) (NP (NN shuttle) (NN program) (NN director)) (CC and) (NP (DT a) (NN veteran) (NN shuttle) (NN commander)))) (. .)))'
p4349
sg9
S'Sure, its frustrating, said Bill Readdy, shuttle program director and a veteran shuttle commander.'
p4350
sg11
(lp4351
(S'root'
p4352
S'ROOT'
p4353
S'said'
p4354
tp4355
a(S'nsubj'
p4356
S'said'
p4357
S'Sure'
p4358
tp4359
a(S'poss'
p4360
S'frustrating'
p4361
S'its'
p4362
tp4363
a(S'appos'
p4364
S'Sure'
p4365
S'frustrating'
p4366
tp4367
a(S'nn'
p4368
S'Readdy'
p4369
S'Bill'
p4370
tp4371
a(S'dobj'
p4372
S'said'
p4373
S'Readdy'
p4374
tp4375
a(S'nn'
p4376
S'director'
p4377
S'shuttle'
p4378
tp4379
a(S'nn'
p4380
S'director'
p4381
S'program'
p4382
tp4383
a(S'conj_and'
p4384
S'Readdy'
p4385
S'director'
p4386
tp4387
a(S'det'
p4388
S'commander'
p4389
g1048
tp4390
a(S'nn'
p4391
S'commander'
p4392
S'veteran'
p4393
tp4394
a(S'nn'
p4395
S'commander'
p4396
S'shuttle'
p4397
tp4398
a(S'conj_and'
p4399
S'Readdy'
p4400
S'commander'
p4401
tp4402
asg41
(lp4403
(g4352
S'ROOT-0'
p4404
S'said-6'
p4405
tp4406
a(g4356
S'said-6'
p4407
S'Sure-1'
p4408
tp4409
a(g4360
S'frustrating-4'
p4410
S'its-3'
p4411
tp4412
a(g4364
S'Sure-1'
p4413
S'frustrating-4'
p4414
tp4415
a(g4368
S'Readdy-8'
p4416
S'Bill-7'
p4417
tp4418
a(g4372
S'said-6'
p4419
S'Readdy-8'
p4420
tp4421
a(g4376
S'director-12'
p4422
S'shuttle-10'
p4423
tp4424
a(g4380
S'director-12'
p4425
S'program-11'
p4426
tp4427
a(g4384
S'Readdy-8'
p4428
S'director-12'
p4429
tp4430
a(g4388
S'commander-17'
p4431
S'a-14'
p4432
tp4433
a(g4391
S'commander-17'
p4434
S'veteran-15'
p4435
tp4436
a(g4395
S'commander-17'
p4437
S'shuttle-16'
p4438
tp4439
a(g4399
S'Readdy-8'
p4440
S'commander-17'
p4441
tp4442
asg64
(lp4443
(S'Sure'
p4444
(dp4445
S'NamedEntityTag'
p4446
g69
sS'CharacterOffsetEnd'
p4447
S'942'
p4448
sS'Lemma'
p4449
S'sure'
p4450
sS'PartOfSpeech'
p4451
S'JJ'
p4452
sS'CharacterOffsetBegin'
p4453
S'938'
p4454
stp4455
a(g1274
(dp4456
S'NamedEntityTag'
p4457
g69
sS'CharacterOffsetEnd'
p4458
S'943'
p4459
sS'Lemma'
p4460
g1274
sS'PartOfSpeech'
p4461
g1274
sS'CharacterOffsetBegin'
p4462
S'942'
p4463
stp4464
a(S'its'
p4465
(dp4466
S'NamedEntityTag'
p4467
g69
sS'CharacterOffsetEnd'
p4468
S'947'
p4469
sS'Lemma'
p4470
S'its'
p4471
sS'PartOfSpeech'
p4472
S'PRP$'
p4473
sS'CharacterOffsetBegin'
p4474
S'944'
p4475
stp4476
a(S'frustrating'
p4477
(dp4478
S'NamedEntityTag'
p4479
g69
sS'CharacterOffsetEnd'
p4480
S'959'
p4481
sS'Lemma'
p4482
S'frustrating'
p4483
sS'PartOfSpeech'
p4484
S'JJ'
p4485
sS'CharacterOffsetBegin'
p4486
S'948'
p4487
stp4488
a(g1274
(dp4489
S'NamedEntityTag'
p4490
g69
sS'CharacterOffsetEnd'
p4491
S'960'
p4492
sS'Lemma'
p4493
g1274
sS'PartOfSpeech'
p4494
g1274
sS'CharacterOffsetBegin'
p4495
S'959'
p4496
stp4497
a(S'said'
p4498
(dp4499
S'NamedEntityTag'
p4500
g69
sS'CharacterOffsetEnd'
p4501
S'965'
p4502
sS'Lemma'
p4503
S'say'
p4504
sS'PartOfSpeech'
p4505
S'VBD'
p4506
sS'CharacterOffsetBegin'
p4507
S'961'
p4508
stp4509
a(S'Bill'
p4510
(dp4511
S'NamedEntityTag'
p4512
S'PERSON'
p4513
sS'CharacterOffsetEnd'
p4514
S'970'
p4515
sS'Lemma'
p4516
S'Bill'
p4517
sS'PartOfSpeech'
p4518
S'NNP'
p4519
sS'CharacterOffsetBegin'
p4520
S'966'
p4521
stp4522
a(S'Readdy'
p4523
(dp4524
S'NamedEntityTag'
p4525
S'PERSON'
p4526
sS'CharacterOffsetEnd'
p4527
S'977'
p4528
sS'Lemma'
p4529
S'Readdy'
p4530
sS'PartOfSpeech'
p4531
S'NNP'
p4532
sS'CharacterOffsetBegin'
p4533
S'971'
p4534
stp4535
a(g1274
(dp4536
S'NamedEntityTag'
p4537
g69
sS'CharacterOffsetEnd'
p4538
S'978'
p4539
sS'Lemma'
p4540
g1274
sS'PartOfSpeech'
p4541
g1274
sS'CharacterOffsetBegin'
p4542
S'977'
p4543
stp4544
a(S'shuttle'
p4545
(dp4546
S'NamedEntityTag'
p4547
g69
sS'CharacterOffsetEnd'
p4548
S'986'
p4549
sS'Lemma'
p4550
S'shuttle'
p4551
sS'PartOfSpeech'
p4552
S'NN'
p4553
sS'CharacterOffsetBegin'
p4554
S'979'
p4555
stp4556
a(S'program'
p4557
(dp4558
S'NamedEntityTag'
p4559
g69
sS'CharacterOffsetEnd'
p4560
S'994'
p4561
sS'Lemma'
p4562
S'program'
p4563
sS'PartOfSpeech'
p4564
S'NN'
p4565
sS'CharacterOffsetBegin'
p4566
S'987'
p4567
stp4568
a(S'director'
p4569
(dp4570
S'NamedEntityTag'
p4571
g69
sS'CharacterOffsetEnd'
p4572
S'1003'
p4573
sS'Lemma'
p4574
S'director'
p4575
sS'PartOfSpeech'
p4576
S'NN'
p4577
sS'CharacterOffsetBegin'
p4578
S'995'
p4579
stp4580
a(S'and'
p4581
(dp4582
S'NamedEntityTag'
p4583
g69
sS'CharacterOffsetEnd'
p4584
S'1007'
p4585
sS'Lemma'
p4586
S'and'
p4587
sS'PartOfSpeech'
p4588
S'CC'
p4589
sS'CharacterOffsetBegin'
p4590
S'1004'
p4591
stp4592
a(g1048
(dp4593
S'NamedEntityTag'
p4594
g69
sS'CharacterOffsetEnd'
p4595
S'1009'
p4596
sS'Lemma'
p4597
g1048
sS'PartOfSpeech'
p4598
S'DT'
p4599
sS'CharacterOffsetBegin'
p4600
S'1008'
p4601
stp4602
a(S'veteran'
p4603
(dp4604
S'NamedEntityTag'
p4605
g69
sS'CharacterOffsetEnd'
p4606
S'1017'
p4607
sS'Lemma'
p4608
S'veteran'
p4609
sS'PartOfSpeech'
p4610
S'NN'
p4611
sS'CharacterOffsetBegin'
p4612
S'1010'
p4613
stp4614
a(S'shuttle'
p4615
(dp4616
S'NamedEntityTag'
p4617
g69
sS'CharacterOffsetEnd'
p4618
S'1025'
p4619
sS'Lemma'
p4620
S'shuttle'
p4621
sS'PartOfSpeech'
p4622
S'NN'
p4623
sS'CharacterOffsetBegin'
p4624
S'1018'
p4625
stp4626
a(S'commander'
p4627
(dp4628
S'NamedEntityTag'
p4629
g69
sS'CharacterOffsetEnd'
p4630
S'1035'
p4631
sS'Lemma'
p4632
S'commander'
p4633
sS'PartOfSpeech'
p4634
S'NN'
p4635
sS'CharacterOffsetBegin'
p4636
S'1026'
p4637
stp4638
a(g175
(dp4639
S'NamedEntityTag'
p4640
g69
sS'CharacterOffsetEnd'
p4641
S'1036'
p4642
sS'Lemma'
p4643
g175
sS'PartOfSpeech'
p4644
g175
sS'CharacterOffsetBegin'
p4645
S'1035'
p4646
stp4647
asa(dp4648
g7
S'(ROOT (S (CC But) (NP (PRP we)) (VP (VBP do) (NP (NNS things)) (ADVP (RB right))) (. .)))'
p4649
sg9
S'But we do things right.'
p4650
sg11
(lp4651
(S'root'
p4652
S'ROOT'
p4653
S'do'
p4654
tp4655
a(S'cc'
p4656
S'do'
p4657
S'But'
p4658
tp4659
a(S'nsubj'
p4660
S'do'
p4661
S'we'
p4662
tp4663
a(S'dobj'
p4664
S'do'
p4665
S'things'
p4666
tp4667
a(S'advmod'
p4668
S'do'
p4669
S'right'
p4670
tp4671
asg41
(lp4672
(g4652
S'ROOT-0'
p4673
S'do-3'
p4674
tp4675
a(g4656
S'do-3'
p4676
S'But-1'
p4677
tp4678
a(g4660
S'do-3'
p4679
S'we-2'
p4680
tp4681
a(g4664
S'do-3'
p4682
S'things-4'
p4683
tp4684
a(g4668
S'do-3'
p4685
S'right-5'
p4686
tp4687
asg64
(lp4688
(S'But'
p4689
(dp4690
S'NamedEntityTag'
p4691
g69
sS'CharacterOffsetEnd'
p4692
S'1040'
p4693
sS'Lemma'
p4694
S'but'
p4695
sS'PartOfSpeech'
p4696
S'CC'
p4697
sS'CharacterOffsetBegin'
p4698
S'1037'
p4699
stp4700
a(S'we'
p4701
(dp4702
S'NamedEntityTag'
p4703
g69
sS'CharacterOffsetEnd'
p4704
S'1043'
p4705
sS'Lemma'
p4706
S'we'
p4707
sS'PartOfSpeech'
p4708
S'PRP'
p4709
sS'CharacterOffsetBegin'
p4710
S'1041'
p4711
stp4712
a(S'do'
p4713
(dp4714
S'NamedEntityTag'
p4715
g69
sS'CharacterOffsetEnd'
p4716
S'1046'
p4717
sS'Lemma'
p4718
S'do'
p4719
sS'PartOfSpeech'
p4720
S'VBP'
p4721
sS'CharacterOffsetBegin'
p4722
S'1044'
p4723
stp4724
a(S'things'
p4725
(dp4726
S'NamedEntityTag'
p4727
g69
sS'CharacterOffsetEnd'
p4728
S'1053'
p4729
sS'Lemma'
p4730
S'thing'
p4731
sS'PartOfSpeech'
p4732
S'NNS'
p4733
sS'CharacterOffsetBegin'
p4734
S'1047'
p4735
stp4736
a(S'right'
p4737
(dp4738
S'NamedEntityTag'
p4739
g69
sS'CharacterOffsetEnd'
p4740
S'1059'
p4741
sS'Lemma'
p4742
S'right'
p4743
sS'PartOfSpeech'
p4744
S'RB'
p4745
sS'CharacterOffsetBegin'
p4746
S'1054'
p4747
stp4748
a(g175
(dp4749
S'NamedEntityTag'
p4750
g69
sS'CharacterOffsetEnd'
p4751
S'1060'
p4752
sS'Lemma'
p4753
g175
sS'PartOfSpeech'
p4754
g175
sS'CharacterOffsetBegin'
p4755
S'1059'
p4756
stp4757
asa(dp4758
g7
S'(ROOT (S (NP (PRP We)) (VP (VP (VBP do) (NP (NNS things)) (PP (IN by) (NP (DT the) (NN book)))) (, ,) (CC and) (VP (VBD were) (RB not) (VP (VBG going) (S (VP (TO to) (VP (VB cut) (NP (DT any) (NNS corners)) (SBAR (RB even) (IN if) (S (NP (PRP it)) (VP (VBZ means) (S (VP (ADVP (RB just)) (VBG shaving) (NP (DT a) (JJ second) (QP (CC or) (CD two)))))))))))))) (. .)))'
p4759
sg9
S'We do things by the book, and were not going to cut any corners even if it means just shaving a second or two.'
p4760
sg11
(lp4761
(S'root'
p4762
S'ROOT'
p4763
S'do'
p4764
tp4765
a(S'nsubj'
p4766
S'do'
p4767
S'We'
p4768
tp4769
a(S'dobj'
p4770
S'do'
p4771
S'things'
p4772
tp4773
a(S'det'
p4774
S'book'
p4775
S'the'
p4776
tp4777
a(S'prep_by'
p4778
S'do'
p4779
S'book'
p4780
tp4781
a(S'aux'
p4782
S'going'
p4783
S'were'
p4784
tp4785
a(S'neg'
p4786
S'going'
p4787
S'not'
p4788
tp4789
a(S'conj_and'
p4790
S'do'
p4791
S'going'
p4792
tp4793
a(S'aux'
p4794
S'cut'
p4795
S'to'
p4796
tp4797
a(S'xcomp'
p4798
S'going'
p4799
S'cut'
p4800
tp4801
a(S'det'
p4802
S'corners'
p4803
S'any'
p4804
tp4805
a(S'dobj'
p4806
S'cut'
p4807
S'corners'
p4808
tp4809
a(S'advmod'
p4810
S'means'
p4811
S'even'
p4812
tp4813
a(S'mark'
p4814
S'means'
p4815
S'if'
p4816
tp4817
a(S'nsubj'
p4818
S'means'
p4819
S'it'
p4820
tp4821
a(S'advcl'
p4822
S'cut'
p4823
S'means'
p4824
tp4825
a(S'advmod'
p4826
S'shaving'
p4827
S'just'
p4828
tp4829
a(S'ccomp'
p4830
S'means'
p4831
S'shaving'
p4832
tp4833
a(S'det'
p4834
S'two'
p4835
g1048
tp4836
a(S'amod'
p4837
S'two'
p4838
S'second'
p4839
tp4840
a(S'cc'
p4841
S'two'
p4842
S'or'
p4843
tp4844
a(S'dobj'
p4845
S'shaving'
p4846
S'two'
p4847
tp4848
asg41
(lp4849
(g4762
S'ROOT-0'
p4850
S'do-2'
p4851
tp4852
a(g4766
S'do-2'
p4853
S'We-1'
p4854
tp4855
a(g4770
S'do-2'
p4856
S'things-3'
p4857
tp4858
a(g4774
S'book-6'
p4859
S'the-5'
p4860
tp4861
a(g4778
S'do-2'
p4862
S'book-6'
p4863
tp4864
a(g4782
S'going-11'
p4865
S'were-9'
p4866
tp4867
a(g4786
S'going-11'
p4868
S'not-10'
p4869
tp4870
a(g4790
S'do-2'
p4871
S'going-11'
p4872
tp4873
a(g4794
S'cut-13'
p4874
S'to-12'
p4875
tp4876
a(g4798
S'going-11'
p4877
S'cut-13'
p4878
tp4879
a(g4802
S'corners-15'
p4880
S'any-14'
p4881
tp4882
a(g4806
S'cut-13'
p4883
S'corners-15'
p4884
tp4885
a(g4810
S'means-19'
p4886
S'even-16'
p4887
tp4888
a(g4814
S'means-19'
p4889
S'if-17'
p4890
tp4891
a(g4818
S'means-19'
p4892
S'it-18'
p4893
tp4894
a(g4822
S'cut-13'
p4895
S'means-19'
p4896
tp4897
a(g4826
S'shaving-21'
p4898
S'just-20'
p4899
tp4900
a(g4830
S'means-19'
p4901
S'shaving-21'
p4902
tp4903
a(g4834
S'two-25'
p4904
S'a-22'
p4905
tp4906
a(g4837
S'two-25'
p4907
S'second-23'
p4908
tp4909
a(g4841
S'two-25'
p4910
S'or-24'
p4911
tp4912
a(g4845
S'shaving-21'
p4913
S'two-25'
p4914
tp4915
asg64
(lp4916
(S'We'
p4917
(dp4918
S'NamedEntityTag'
p4919
g69
sS'CharacterOffsetEnd'
p4920
S'1063'
p4921
sS'Lemma'
p4922
S'we'
p4923
sS'PartOfSpeech'
p4924
S'PRP'
p4925
sS'CharacterOffsetBegin'
p4926
S'1061'
p4927
stp4928
a(S'do'
p4929
(dp4930
S'NamedEntityTag'
p4931
g69
sS'CharacterOffsetEnd'
p4932
S'1066'
p4933
sS'Lemma'
p4934
S'do'
p4935
sS'PartOfSpeech'
p4936
S'VBP'
p4937
sS'CharacterOffsetBegin'
p4938
S'1064'
p4939
stp4940
a(S'things'
p4941
(dp4942
S'NamedEntityTag'
p4943
g69
sS'CharacterOffsetEnd'
p4944
S'1073'
p4945
sS'Lemma'
p4946
S'thing'
p4947
sS'PartOfSpeech'
p4948
S'NNS'
p4949
sS'CharacterOffsetBegin'
p4950
S'1067'
p4951
stp4952
a(S'by'
p4953
(dp4954
S'NamedEntityTag'
p4955
g69
sS'CharacterOffsetEnd'
p4956
S'1076'
p4957
sS'Lemma'
p4958
S'by'
p4959
sS'PartOfSpeech'
p4960
S'IN'
p4961
sS'CharacterOffsetBegin'
p4962
S'1074'
p4963
stp4964
a(S'the'
p4965
(dp4966
S'NamedEntityTag'
p4967
g69
sS'CharacterOffsetEnd'
p4968
S'1080'
p4969
sS'Lemma'
p4970
S'the'
p4971
sS'PartOfSpeech'
p4972
S'DT'
p4973
sS'CharacterOffsetBegin'
p4974
S'1077'
p4975
stp4976
a(S'book'
p4977
(dp4978
S'NamedEntityTag'
p4979
g69
sS'CharacterOffsetEnd'
p4980
S'1085'
p4981
sS'Lemma'
p4982
S'book'
p4983
sS'PartOfSpeech'
p4984
S'NN'
p4985
sS'CharacterOffsetBegin'
p4986
S'1081'
p4987
stp4988
a(g1274
(dp4989
S'NamedEntityTag'
p4990
g69
sS'CharacterOffsetEnd'
p4991
S'1086'
p4992
sS'Lemma'
p4993
g1274
sS'PartOfSpeech'
p4994
g1274
sS'CharacterOffsetBegin'
p4995
S'1085'
p4996
stp4997
a(S'and'
p4998
(dp4999
S'NamedEntityTag'
p5000
g69
sS'CharacterOffsetEnd'
p5001
S'1090'
p5002
sS'Lemma'
p5003
S'and'
p5004
sS'PartOfSpeech'
p5005
S'CC'
p5006
sS'CharacterOffsetBegin'
p5007
S'1087'
p5008
stp5009
a(S'were'
p5010
(dp5011
S'NamedEntityTag'
p5012
g69
sS'CharacterOffsetEnd'
p5013
S'1095'
p5014
sS'Lemma'
p5015
S'be'
p5016
sS'PartOfSpeech'
p5017
S'VBD'
p5018
sS'CharacterOffsetBegin'
p5019
S'1091'
p5020
stp5021
a(S'not'
p5022
(dp5023
S'NamedEntityTag'
p5024
g69
sS'CharacterOffsetEnd'
p5025
S'1099'
p5026
sS'Lemma'
p5027
S'not'
p5028
sS'PartOfSpeech'
p5029
S'RB'
p5030
sS'CharacterOffsetBegin'
p5031
S'1096'
p5032
stp5033
a(S'going'
p5034
(dp5035
S'NamedEntityTag'
p5036
g69
sS'CharacterOffsetEnd'
p5037
S'1105'
p5038
sS'Lemma'
p5039
S'go'
p5040
sS'PartOfSpeech'
p5041
S'VBG'
p5042
sS'CharacterOffsetBegin'
p5043
S'1100'
p5044
stp5045
a(S'to'
p5046
(dp5047
S'NamedEntityTag'
p5048
g69
sS'CharacterOffsetEnd'
p5049
S'1108'
p5050
sS'Lemma'
p5051
S'to'
p5052
sS'PartOfSpeech'
p5053
S'TO'
p5054
sS'CharacterOffsetBegin'
p5055
S'1106'
p5056
stp5057
a(S'cut'
p5058
(dp5059
S'NamedEntityTag'
p5060
g69
sS'CharacterOffsetEnd'
p5061
S'1112'
p5062
sS'Lemma'
p5063
S'cut'
p5064
sS'PartOfSpeech'
p5065
S'VB'
p5066
sS'CharacterOffsetBegin'
p5067
S'1109'
p5068
stp5069
a(S'any'
p5070
(dp5071
S'NamedEntityTag'
p5072
g69
sS'CharacterOffsetEnd'
p5073
S'1116'
p5074
sS'Lemma'
p5075
S'any'
p5076
sS'PartOfSpeech'
p5077
S'DT'
p5078
sS'CharacterOffsetBegin'
p5079
S'1113'
p5080
stp5081
a(S'corners'
p5082
(dp5083
S'NamedEntityTag'
p5084
g69
sS'CharacterOffsetEnd'
p5085
S'1124'
p5086
sS'Lemma'
p5087
S'corner'
p5088
sS'PartOfSpeech'
p5089
S'NNS'
p5090
sS'CharacterOffsetBegin'
p5091
S'1117'
p5092
stp5093
a(S'even'
p5094
(dp5095
S'NamedEntityTag'
p5096
g69
sS'CharacterOffsetEnd'
p5097
S'1129'
p5098
sS'Lemma'
p5099
S'even'
p5100
sS'PartOfSpeech'
p5101
S'RB'
p5102
sS'CharacterOffsetBegin'
p5103
S'1125'
p5104
stp5105
a(S'if'
p5106
(dp5107
S'NamedEntityTag'
p5108
g69
sS'CharacterOffsetEnd'
p5109
S'1132'
p5110
sS'Lemma'
p5111
S'if'
p5112
sS'PartOfSpeech'
p5113
S'IN'
p5114
sS'CharacterOffsetBegin'
p5115
S'1130'
p5116
stp5117
a(S'it'
p5118
(dp5119
S'NamedEntityTag'
p5120
g69
sS'CharacterOffsetEnd'
p5121
S'1135'
p5122
sS'Lemma'
p5123
S'it'
p5124
sS'PartOfSpeech'
p5125
S'PRP'
p5126
sS'CharacterOffsetBegin'
p5127
S'1133'
p5128
stp5129
a(S'means'
p5130
(dp5131
S'NamedEntityTag'
p5132
g69
sS'CharacterOffsetEnd'
p5133
S'1141'
p5134
sS'Lemma'
p5135
S'mean'
p5136
sS'PartOfSpeech'
p5137
S'VBZ'
p5138
sS'CharacterOffsetBegin'
p5139
S'1136'
p5140
stp5141
a(S'just'
p5142
(dp5143
S'NamedEntityTag'
p5144
g69
sS'CharacterOffsetEnd'
p5145
S'1146'
p5146
sS'Lemma'
p5147
S'just'
p5148
sS'PartOfSpeech'
p5149
S'RB'
p5150
sS'CharacterOffsetBegin'
p5151
S'1142'
p5152
stp5153
a(S'shaving'
p5154
(dp5155
S'NamedEntityTag'
p5156
g69
sS'CharacterOffsetEnd'
p5157
S'1154'
p5158
sS'Lemma'
p5159
S'shave'
p5160
sS'PartOfSpeech'
p5161
S'VBG'
p5162
sS'CharacterOffsetBegin'
p5163
S'1147'
p5164
stp5165
a(g1048
(dp5166
S'NormalizedNamedEntityTag'
p5167
S'PT1S'
p5168
sS'Timex'
p5169
S'<TIMEX3 tid="t11" type="DURATION" value="PT1S">a second</TIMEX3>'
p5170
sS'Lemma'
p5171
g1048
sS'CharacterOffsetEnd'
p5172
S'1156'
p5173
sS'PartOfSpeech'
p5174
S'DT'
p5175
sS'CharacterOffsetBegin'
p5176
S'1155'
p5177
sS'NamedEntityTag'
p5178
S'DURATION'
p5179
stp5180
a(S'second'
p5181
(dp5182
S'NormalizedNamedEntityTag'
p5183
S'PT1S'
p5184
sS'Timex'
p5185
S'<TIMEX3 tid="t11" type="DURATION" value="PT1S">a second</TIMEX3>'
p5186
sS'Lemma'
p5187
S'second'
p5188
sS'CharacterOffsetEnd'
p5189
S'1163'
p5190
sS'PartOfSpeech'
p5191
S'JJ'
p5192
sS'CharacterOffsetBegin'
p5193
S'1157'
p5194
sS'NamedEntityTag'
p5195
S'DURATION'
p5196
stp5197
a(S'or'
p5198
(dp5199
S'NamedEntityTag'
p5200
g69
sS'CharacterOffsetEnd'
p5201
S'1166'
p5202
sS'Lemma'
p5203
S'or'
p5204
sS'PartOfSpeech'
p5205
S'CC'
p5206
sS'CharacterOffsetBegin'
p5207
S'1164'
p5208
stp5209
a(S'two'
p5210
(dp5211
S'NormalizedNamedEntityTag'
p5212
S'2.0'
p5213
sS'Lemma'
p5214
S'two'
p5215
sS'CharacterOffsetEnd'
p5216
S'1170'
p5217
sS'PartOfSpeech'
p5218
S'CD'
p5219
sS'CharacterOffsetBegin'
p5220
S'1167'
p5221
sS'NamedEntityTag'
p5222
S'NUMBER'
p5223
stp5224
a(g175
(dp5225
S'NamedEntityTag'
p5226
g69
sS'CharacterOffsetEnd'
p5227
S'1171'
p5228
sS'Lemma'
p5229
g175
sS'PartOfSpeech'
p5230
g175
sS'CharacterOffsetBegin'
p5231
S'1170'
p5232
stp5233
asa(dp5234
g7
S'(ROOT (S (S (NP (DT The) (CD six) (NNS astronauts)) (VP (VBD crawled) (PRT (IN out)) (PP (IN of) (NP (DT the) (NN shuttle))))) (, ,) (CC and) (S (NP (CD two)) (VP (VBD threw) (PRT (RP up)) (NP (PRP$ their) (NNS hands)))) (. .)))'
p5235
sg9
S'The six astronauts crawled out of the shuttle, and two threw up their hands.'
p5236
sg11
(lp5237
(S'root'
p5238
S'ROOT'
p5239
S'crawled'
p5240
tp5241
a(S'det'
p5242
S'astronauts'
p5243
S'The'
p5244
tp5245
a(S'num'
p5246
S'astronauts'
p5247
S'six'
p5248
tp5249
a(S'nsubj'
p5250
S'crawled'
p5251
S'astronauts'
p5252
tp5253
a(S'det'
p5254
S'shuttle'
p5255
S'the'
p5256
tp5257
a(S'prep_out_of'
p5258
S'crawled'
p5259
S'shuttle'
p5260
tp5261
a(S'nsubj'
p5262
S'threw'
p5263
S'two'
p5264
tp5265
a(S'conj_and'
p5266
S'crawled'
p5267
S'threw'
p5268
tp5269
a(S'prt'
p5270
S'threw'
p5271
S'up'
p5272
tp5273
a(S'poss'
p5274
S'hands'
p5275
S'their'
p5276
tp5277
a(S'dobj'
p5278
S'threw'
p5279
S'hands'
p5280
tp5281
asg41
(lp5282
(g5238
S'ROOT-0'
p5283
S'crawled-4'
p5284
tp5285
a(g5242
S'astronauts-3'
p5286
S'The-1'
p5287
tp5288
a(g5246
S'astronauts-3'
p5289
S'six-2'
p5290
tp5291
a(g5250
S'crawled-4'
p5292
S'astronauts-3'
p5293
tp5294
a(g5254
S'shuttle-8'
p5295
S'the-7'
p5296
tp5297
a(g5258
S'crawled-4'
p5298
S'shuttle-8'
p5299
tp5300
a(g5262
S'threw-12'
p5301
S'two-11'
p5302
tp5303
a(g5266
S'crawled-4'
p5304
S'threw-12'
p5305
tp5306
a(g5270
S'threw-12'
p5307
S'up-13'
p5308
tp5309
a(g5274
S'hands-15'
p5310
S'their-14'
p5311
tp5312
a(g5278
S'threw-12'
p5313
S'hands-15'
p5314
tp5315
asg64
(lp5316
(S'The'
p5317
(dp5318
S'NamedEntityTag'
p5319
g69
sS'CharacterOffsetEnd'
p5320
S'1175'
p5321
sS'Lemma'
p5322
S'the'
p5323
sS'PartOfSpeech'
p5324
S'DT'
p5325
sS'CharacterOffsetBegin'
p5326
S'1172'
p5327
stp5328
a(S'six'
p5329
(dp5330
S'NormalizedNamedEntityTag'
p5331
S'6.0'
p5332
sS'Lemma'
p5333
S'six'
p5334
sS'CharacterOffsetEnd'
p5335
S'1179'
p5336
sS'PartOfSpeech'
p5337
S'CD'
p5338
sS'CharacterOffsetBegin'
p5339
S'1176'
p5340
sS'NamedEntityTag'
p5341
S'NUMBER'
p5342
stp5343
a(S'astronauts'
p5344
(dp5345
S'NamedEntityTag'
p5346
g69
sS'CharacterOffsetEnd'
p5347
S'1190'
p5348
sS'Lemma'
p5349
S'astronaut'
p5350
sS'PartOfSpeech'
p5351
S'NNS'
p5352
sS'CharacterOffsetBegin'
p5353
S'1180'
p5354
stp5355
a(S'crawled'
p5356
(dp5357
S'NamedEntityTag'
p5358
g69
sS'CharacterOffsetEnd'
p5359
S'1198'
p5360
sS'Lemma'
p5361
S'crawl'
p5362
sS'PartOfSpeech'
p5363
S'VBD'
p5364
sS'CharacterOffsetBegin'
p5365
S'1191'
p5366
stp5367
a(S'out'
p5368
(dp5369
S'NamedEntityTag'
p5370
g69
sS'CharacterOffsetEnd'
p5371
S'1202'
p5372
sS'Lemma'
p5373
S'out'
p5374
sS'PartOfSpeech'
p5375
S'IN'
p5376
sS'CharacterOffsetBegin'
p5377
S'1199'
p5378
stp5379
a(S'of'
p5380
(dp5381
S'NamedEntityTag'
p5382
g69
sS'CharacterOffsetEnd'
p5383
S'1205'
p5384
sS'Lemma'
p5385
S'of'
p5386
sS'PartOfSpeech'
p5387
S'IN'
p5388
sS'CharacterOffsetBegin'
p5389
S'1203'
p5390
stp5391
a(S'the'
p5392
(dp5393
S'NamedEntityTag'
p5394
g69
sS'CharacterOffsetEnd'
p5395
S'1209'
p5396
sS'Lemma'
p5397
S'the'
p5398
sS'PartOfSpeech'
p5399
S'DT'
p5400
sS'CharacterOffsetBegin'
p5401
S'1206'
p5402
stp5403
a(S'shuttle'
p5404
(dp5405
S'NamedEntityTag'
p5406
g69
sS'CharacterOffsetEnd'
p5407
S'1217'
p5408
sS'Lemma'
p5409
S'shuttle'
p5410
sS'PartOfSpeech'
p5411
S'NN'
p5412
sS'CharacterOffsetBegin'
p5413
S'1210'
p5414
stp5415
a(g1274
(dp5416
S'NamedEntityTag'
p5417
g69
sS'CharacterOffsetEnd'
p5418
S'1218'
p5419
sS'Lemma'
p5420
g1274
sS'PartOfSpeech'
p5421
g1274
sS'CharacterOffsetBegin'
p5422
S'1217'
p5423
stp5424
a(S'and'
p5425
(dp5426
S'NamedEntityTag'
p5427
g69
sS'CharacterOffsetEnd'
p5428
S'1222'
p5429
sS'Lemma'
p5430
S'and'
p5431
sS'PartOfSpeech'
p5432
S'CC'
p5433
sS'CharacterOffsetBegin'
p5434
S'1219'
p5435
stp5436
a(S'two'
p5437
(dp5438
S'NormalizedNamedEntityTag'
p5439
S'2.0'
p5440
sS'Lemma'
p5441
S'two'
p5442
sS'CharacterOffsetEnd'
p5443
S'1226'
p5444
sS'PartOfSpeech'
p5445
S'CD'
p5446
sS'CharacterOffsetBegin'
p5447
S'1223'
p5448
sS'NamedEntityTag'
p5449
S'NUMBER'
p5450
stp5451
a(S'threw'
p5452
(dp5453
S'NamedEntityTag'
p5454
g69
sS'CharacterOffsetEnd'
p5455
S'1232'
p5456
sS'Lemma'
p5457
S'throw'
p5458
sS'PartOfSpeech'
p5459
S'VBD'
p5460
sS'CharacterOffsetBegin'
p5461
S'1227'
p5462
stp5463
a(S'up'
p5464
(dp5465
S'NamedEntityTag'
p5466
g69
sS'CharacterOffsetEnd'
p5467
S'1235'
p5468
sS'Lemma'
p5469
S'up'
p5470
sS'PartOfSpeech'
p5471
S'RP'
p5472
sS'CharacterOffsetBegin'
p5473
S'1233'
p5474
stp5475
a(S'their'
p5476
(dp5477
S'NamedEntityTag'
p5478
g69
sS'CharacterOffsetEnd'
p5479
S'1241'
p5480
sS'Lemma'
p5481
S'they'
p5482
sS'PartOfSpeech'
p5483
S'PRP$'
p5484
sS'CharacterOffsetBegin'
p5485
S'1236'
p5486
stp5487
a(S'hands'
p5488
(dp5489
S'NamedEntityTag'
p5490
g69
sS'CharacterOffsetEnd'
p5491
S'1247'
p5492
sS'Lemma'
p5493
S'hand'
p5494
sS'PartOfSpeech'
p5495
S'NNS'
p5496
sS'CharacterOffsetBegin'
p5497
S'1242'
p5498
stp5499
a(g175
(dp5500
S'NamedEntityTag'
p5501
g69
sS'CharacterOffsetEnd'
p5502
S'1248'
p5503
sS'Lemma'
p5504
g175
sS'PartOfSpeech'
p5505
g175
sS'CharacterOffsetBegin'
p5506
S'1247'
p5507
stp5508
asa(dp5509
g7
S'(ROOT (S (S (NP (NNP Cabana)) (VP (VBD held) (PRT (RP up)) (NP (NP (PRP$ his) (NN thumb)) (CC and) (NP (NN index) (NN finger))) (ADVP (NP (DT a) (NN half-inch)) (RB apart)))) (: :) (S (NP (PRP We)) (VP (VBD were) (NP (DT that) (NN close)))) (. .)))'
p5510
sg9
S'Cabana held up his thumb and index finger a half-inch apart: We were that close.'
p5511
sg11
(lp5512
(S'root'
p5513
S'ROOT'
p5514
S'held'
p5515
tp5516
a(S'nsubj'
p5517
S'held'
p5518
S'Cabana'
p5519
tp5520
a(S'prt'
p5521
S'held'
p5522
S'up'
p5523
tp5524
a(S'poss'
p5525
S'thumb'
p5526
S'his'
p5527
tp5528
a(S'dobj'
p5529
S'held'
p5530
S'thumb'
p5531
tp5532
a(S'nn'
p5533
S'finger'
p5534
S'index'
p5535
tp5536
a(S'conj_and'
p5537
S'thumb'
p5538
S'finger'
p5539
tp5540
a(S'det'
p5541
S'half-inch'
p5542
g1048
tp5543
a(S'npadvmod'
p5544
S'apart'
p5545
S'half-inch'
p5546
tp5547
a(S'advmod'
p5548
S'held'
p5549
S'apart'
p5550
tp5551
a(S'nsubj'
p5552
S'close'
p5553
S'We'
p5554
tp5555
a(S'cop'
p5556
S'close'
p5557
S'were'
p5558
tp5559
a(S'det'
p5560
S'close'
p5561
S'that'
p5562
tp5563
a(S'parataxis'
p5564
S'held'
p5565
S'close'
p5566
tp5567
asg41
(lp5568
(g5513
S'ROOT-0'
p5569
S'held-2'
p5570
tp5571
a(g5517
S'held-2'
p5572
S'Cabana-1'
p5573
tp5574
a(g5521
S'held-2'
p5575
S'up-3'
p5576
tp5577
a(g5525
S'thumb-5'
p5578
S'his-4'
p5579
tp5580
a(g5529
S'held-2'
p5581
S'thumb-5'
p5582
tp5583
a(g5533
S'finger-8'
p5584
S'index-7'
p5585
tp5586
a(g5537
S'thumb-5'
p5587
S'finger-8'
p5588
tp5589
a(g5541
S'half-inch-10'
p5590
S'a-9'
p5591
tp5592
a(g5544
S'apart-11'
p5593
S'half-inch-10'
p5594
tp5595
a(g5548
S'held-2'
p5596
S'apart-11'
p5597
tp5598
a(g5552
S'close-16'
p5599
S'We-13'
p5600
tp5601
a(g5556
S'close-16'
p5602
S'were-14'
p5603
tp5604
a(g5560
S'close-16'
p5605
S'that-15'
p5606
tp5607
a(g5564
S'held-2'
p5608
S'close-16'
p5609
tp5610
asg64
(lp5611
(S'Cabana'
p5612
(dp5613
S'NamedEntityTag'
p5614
S'PERSON'
p5615
sS'CharacterOffsetEnd'
p5616
S'1255'
p5617
sS'Lemma'
p5618
S'Cabana'
p5619
sS'PartOfSpeech'
p5620
S'NNP'
p5621
sS'CharacterOffsetBegin'
p5622
S'1249'
p5623
stp5624
a(S'held'
p5625
(dp5626
S'NamedEntityTag'
p5627
g69
sS'CharacterOffsetEnd'
p5628
S'1260'
p5629
sS'Lemma'
p5630
S'hold'
p5631
sS'PartOfSpeech'
p5632
S'VBD'
p5633
sS'CharacterOffsetBegin'
p5634
S'1256'
p5635
stp5636
a(S'up'
p5637
(dp5638
S'NamedEntityTag'
p5639
g69
sS'CharacterOffsetEnd'
p5640
S'1263'
p5641
sS'Lemma'
p5642
S'up'
p5643
sS'PartOfSpeech'
p5644
S'RP'
p5645
sS'CharacterOffsetBegin'
p5646
S'1261'
p5647
stp5648
a(S'his'
p5649
(dp5650
S'NamedEntityTag'
p5651
g69
sS'CharacterOffsetEnd'
p5652
S'1267'
p5653
sS'Lemma'
p5654
S'he'
p5655
sS'PartOfSpeech'
p5656
S'PRP$'
p5657
sS'CharacterOffsetBegin'
p5658
S'1264'
p5659
stp5660
a(S'thumb'
p5661
(dp5662
S'NamedEntityTag'
p5663
g69
sS'CharacterOffsetEnd'
p5664
S'1273'
p5665
sS'Lemma'
p5666
S'thumb'
p5667
sS'PartOfSpeech'
p5668
S'NN'
p5669
sS'CharacterOffsetBegin'
p5670
S'1268'
p5671
stp5672
a(S'and'
p5673
(dp5674
S'NamedEntityTag'
p5675
g69
sS'CharacterOffsetEnd'
p5676
S'1277'
p5677
sS'Lemma'
p5678
S'and'
p5679
sS'PartOfSpeech'
p5680
S'CC'
p5681
sS'CharacterOffsetBegin'
p5682
S'1274'
p5683
stp5684
a(S'index'
p5685
(dp5686
S'NamedEntityTag'
p5687
g69
sS'CharacterOffsetEnd'
p5688
S'1283'
p5689
sS'Lemma'
p5690
S'index'
p5691
sS'PartOfSpeech'
p5692
S'NN'
p5693
sS'CharacterOffsetBegin'
p5694
S'1278'
p5695
stp5696
a(S'finger'
p5697
(dp5698
S'NamedEntityTag'
p5699
g69
sS'CharacterOffsetEnd'
p5700
S'1290'
p5701
sS'Lemma'
p5702
S'finger'
p5703
sS'PartOfSpeech'
p5704
S'NN'
p5705
sS'CharacterOffsetBegin'
p5706
S'1284'
p5707
stp5708
a(g1048
(dp5709
S'NamedEntityTag'
p5710
g69
sS'CharacterOffsetEnd'
p5711
S'1292'
p5712
sS'Lemma'
p5713
g1048
sS'PartOfSpeech'
p5714
S'DT'
p5715
sS'CharacterOffsetBegin'
p5716
S'1291'
p5717
stp5718
a(S'half-inch'
p5719
(dp5720
S'NamedEntityTag'
p5721
g69
sS'CharacterOffsetEnd'
p5722
S'1302'
p5723
sS'Lemma'
p5724
S'half-inch'
p5725
sS'PartOfSpeech'
p5726
S'NN'
p5727
sS'CharacterOffsetBegin'
p5728
S'1293'
p5729
stp5730
a(S'apart'
p5731
(dp5732
S'NamedEntityTag'
p5733
g69
sS'CharacterOffsetEnd'
p5734
S'1308'
p5735
sS'Lemma'
p5736
S'apart'
p5737
sS'PartOfSpeech'
p5738
S'RB'
p5739
sS'CharacterOffsetBegin'
p5740
S'1303'
p5741
stp5742
a(g2297
(dp5743
S'NamedEntityTag'
p5744
g69
sS'CharacterOffsetEnd'
p5745
S'1309'
p5746
sS'Lemma'
p5747
g2297
sS'PartOfSpeech'
p5748
g2297
sS'CharacterOffsetBegin'
p5749
S'1308'
p5750
stp5751
a(S'We'
p5752
(dp5753
S'NamedEntityTag'
p5754
g69
sS'CharacterOffsetEnd'
p5755
S'1312'
p5756
sS'Lemma'
p5757
S'we'
p5758
sS'PartOfSpeech'
p5759
S'PRP'
p5760
sS'CharacterOffsetBegin'
p5761
S'1310'
p5762
stp5763
a(S'were'
p5764
(dp5765
S'NamedEntityTag'
p5766
g69
sS'CharacterOffsetEnd'
p5767
S'1317'
p5768
sS'Lemma'
p5769
S'be'
p5770
sS'PartOfSpeech'
p5771
S'VBD'
p5772
sS'CharacterOffsetBegin'
p5773
S'1313'
p5774
stp5775
a(S'that'
p5776
(dp5777
S'NamedEntityTag'
p5778
g69
sS'CharacterOffsetEnd'
p5779
S'1322'
p5780
sS'Lemma'
p5781
S'that'
p5782
sS'PartOfSpeech'
p5783
S'DT'
p5784
sS'CharacterOffsetBegin'
p5785
S'1318'
p5786
stp5787
a(S'close'
p5788
(dp5789
S'NamedEntityTag'
p5790
g69
sS'CharacterOffsetEnd'
p5791
S'1328'
p5792
sS'Lemma'
p5793
S'close'
p5794
sS'PartOfSpeech'
p5795
S'NN'
p5796
sS'CharacterOffsetBegin'
p5797
S'1323'
p5798
stp5799
a(g175
(dp5800
S'NamedEntityTag'
p5801
g69
sS'CharacterOffsetEnd'
p5802
S'1329'
p5803
sS'Lemma'
p5804
g175
sS'PartOfSpeech'
p5805
g175
sS'CharacterOffsetBegin'
p5806
S'1328'
p5807
stp5808
asa(dp5809
g7
S'(ROOT (S (NP (DT The) (NN problem)) (VP (VBD was) (VP (VBN confined) (PP (TO to) (NP (NP (CD one)) (PP (IN of) (NP (NP (NNPS Endeavours)) (NP (CD three) (JJ hydraulic) (NN pressure) (NNS units)))))))) (. .)))'
p5810
sg9
S'The problem was confined to one of Endeavours three hydraulic pressure units.'
p5811
sg11
(lp5812
(S'root'
p5813
S'ROOT'
p5814
S'confined'
p5815
tp5816
a(S'det'
p5817
S'problem'
p5818
S'The'
p5819
tp5820
a(S'nsubjpass'
p5821
S'confined'
p5822
S'problem'
p5823
tp5824
a(S'auxpass'
p5825
S'confined'
p5826
S'was'
p5827
tp5828
a(S'prep_to'
p5829
S'confined'
p5830
S'one'
p5831
tp5832
a(S'prep_of'
p5833
S'one'
p5834
S'Endeavours'
p5835
tp5836
a(S'num'
p5837
S'units'
p5838
S'three'
p5839
tp5840
a(S'amod'
p5841
S'units'
p5842
S'hydraulic'
p5843
tp5844
a(S'nn'
p5845
S'units'
p5846
S'pressure'
p5847
tp5848
a(S'dep'
p5849
S'Endeavours'
p5850
S'units'
p5851
tp5852
asg41
(lp5853
(g5813
S'ROOT-0'
p5854
S'confined-4'
p5855
tp5856
a(g5817
S'problem-2'
p5857
S'The-1'
p5858
tp5859
a(g5821
S'confined-4'
p5860
S'problem-2'
p5861
tp5862
a(g5825
S'confined-4'
p5863
S'was-3'
p5864
tp5865
a(g5829
S'confined-4'
p5866
S'one-6'
p5867
tp5868
a(g5833
S'one-6'
p5869
S'Endeavours-8'
p5870
tp5871
a(g5837
S'units-12'
p5872
S'three-9'
p5873
tp5874
a(g5841
S'units-12'
p5875
S'hydraulic-10'
p5876
tp5877
a(g5845
S'units-12'
p5878
S'pressure-11'
p5879
tp5880
a(g5849
S'Endeavours-8'
p5881
S'units-12'
p5882
tp5883
asg64
(lp5884
(S'The'
p5885
(dp5886
S'NamedEntityTag'
p5887
g69
sS'CharacterOffsetEnd'
p5888
S'1333'
p5889
sS'Lemma'
p5890
S'the'
p5891
sS'PartOfSpeech'
p5892
S'DT'
p5893
sS'CharacterOffsetBegin'
p5894
S'1330'
p5895
stp5896
a(S'problem'
p5897
(dp5898
S'NamedEntityTag'
p5899
g69
sS'CharacterOffsetEnd'
p5900
S'1341'
p5901
sS'Lemma'
p5902
S'problem'
p5903
sS'PartOfSpeech'
p5904
S'NN'
p5905
sS'CharacterOffsetBegin'
p5906
S'1334'
p5907
stp5908
a(S'was'
p5909
(dp5910
S'NamedEntityTag'
p5911
g69
sS'CharacterOffsetEnd'
p5912
S'1345'
p5913
sS'Lemma'
p5914
S'be'
p5915
sS'PartOfSpeech'
p5916
S'VBD'
p5917
sS'CharacterOffsetBegin'
p5918
S'1342'
p5919
stp5920
a(S'confined'
p5921
(dp5922
S'NamedEntityTag'
p5923
g69
sS'CharacterOffsetEnd'
p5924
S'1354'
p5925
sS'Lemma'
p5926
S'confine'
p5927
sS'PartOfSpeech'
p5928
S'VBN'
p5929
sS'CharacterOffsetBegin'
p5930
S'1346'
p5931
stp5932
a(S'to'
p5933
(dp5934
S'NamedEntityTag'
p5935
g69
sS'CharacterOffsetEnd'
p5936
S'1357'
p5937
sS'Lemma'
p5938
S'to'
p5939
sS'PartOfSpeech'
p5940
S'TO'
p5941
sS'CharacterOffsetBegin'
p5942
S'1355'
p5943
stp5944
a(S'one'
p5945
(dp5946
S'NormalizedNamedEntityTag'
p5947
S'1.0'
p5948
sS'Lemma'
p5949
S'one'
p5950
sS'CharacterOffsetEnd'
p5951
S'1361'
p5952
sS'PartOfSpeech'
p5953
S'CD'
p5954
sS'CharacterOffsetBegin'
p5955
S'1358'
p5956
sS'NamedEntityTag'
p5957
S'NUMBER'
p5958
stp5959
a(S'of'
p5960
(dp5961
S'NamedEntityTag'
p5962
g69
sS'CharacterOffsetEnd'
p5963
S'1364'
p5964
sS'Lemma'
p5965
S'of'
p5966
sS'PartOfSpeech'
p5967
S'IN'
p5968
sS'CharacterOffsetBegin'
p5969
S'1362'
p5970
stp5971
a(S'Endeavours'
p5972
(dp5973
S'NamedEntityTag'
p5974
g69
sS'CharacterOffsetEnd'
p5975
S'1375'
p5976
sS'Lemma'
p5977
S'Endeavours'
p5978
sS'PartOfSpeech'
p5979
S'NNPS'
p5980
sS'CharacterOffsetBegin'
p5981
S'1365'
p5982
stp5983
a(S'three'
p5984
(dp5985
S'NormalizedNamedEntityTag'
p5986
S'3.0'
p5987
sS'Lemma'
p5988
S'three'
p5989
sS'CharacterOffsetEnd'
p5990
S'1381'
p5991
sS'PartOfSpeech'
p5992
S'CD'
p5993
sS'CharacterOffsetBegin'
p5994
S'1376'
p5995
sS'NamedEntityTag'
p5996
S'NUMBER'
p5997
stp5998
a(S'hydraulic'
p5999
(dp6000
S'NamedEntityTag'
p6001
g69
sS'CharacterOffsetEnd'
p6002
S'1391'
p6003
sS'Lemma'
p6004
S'hydraulic'
p6005
sS'PartOfSpeech'
p6006
S'JJ'
p6007
sS'CharacterOffsetBegin'
p6008
S'1382'
p6009
stp6010
a(S'pressure'
p6011
(dp6012
S'NamedEntityTag'
p6013
g69
sS'CharacterOffsetEnd'
p6014
S'1400'
p6015
sS'Lemma'
p6016
S'pressure'
p6017
sS'PartOfSpeech'
p6018
S'NN'
p6019
sS'CharacterOffsetBegin'
p6020
S'1392'
p6021
stp6022
a(S'units'
p6023
(dp6024
S'NamedEntityTag'
p6025
g69
sS'CharacterOffsetEnd'
p6026
S'1406'
p6027
sS'Lemma'
p6028
S'unit'
p6029
sS'PartOfSpeech'
p6030
S'NNS'
p6031
sS'CharacterOffsetBegin'
p6032
S'1401'
p6033
stp6034
a(g175
(dp6035
S'NamedEntityTag'
p6036
g69
sS'CharacterOffsetEnd'
p6037
S'1407'
p6038
sS'Lemma'
p6039
g175
sS'PartOfSpeech'
p6040
g175
sS'CharacterOffsetBegin'
p6041
S'1406'
p6042
stp6043
asa(dp6044
g7
S'(ROOT (S (NP (DT The) (NN pressure)) (VP (VBD dropped) (ADVP (RB just) (RB long) (RB enough)) (S (VP (TO to) (VP (VB trigger) (NP (DT the) (NN alarm))))) (, ,) (SBAR (ADVP (RB evidently)) (IN because) (S (PP (IN of) (NP (DT a) (JJ sensitive) (NN switch))) (, ,) (ADVP (RB then)) (VP (VBD returned) (PP (TO to) (ADJP (JJ normal))))))) (. .)))'
p6045
sg9
S'The pressure dropped just long enough to trigger the alarm, evidently because of a sensitive switch, then returned to normal.'
p6046
sg11
(lp6047
(S'root'
p6048
S'ROOT'
p6049
S'dropped'
p6050
tp6051
a(S'det'
p6052
S'pressure'
p6053
S'The'
p6054
tp6055
a(S'nsubj'
p6056
S'dropped'
p6057
S'pressure'
p6058
tp6059
a(S'advmod'
p6060
S'enough'
p6061
S'just'
p6062
tp6063
a(S'advmod'
p6064
S'enough'
p6065
S'long'
p6066
tp6067
a(S'advmod'
p6068
S'dropped'
p6069
S'enough'
p6070
tp6071
a(S'aux'
p6072
S'trigger'
p6073
S'to'
p6074
tp6075
a(S'xcomp'
p6076
S'dropped'
p6077
S'trigger'
p6078
tp6079
a(S'det'
p6080
S'alarm'
p6081
S'the'
p6082
tp6083
a(S'dobj'
p6084
S'trigger'
p6085
S'alarm'
p6086
tp6087
a(S'advmod'
p6088
S'returned'
p6089
S'evidently'
p6090
tp6091
a(S'mark'
p6092
S'returned'
p6093
S'because'
p6094
tp6095
a(S'det'
p6096
S'switch'
p6097
g1048
tp6098
a(S'amod'
p6099
S'switch'
p6100
S'sensitive'
p6101
tp6102
a(S'prep_of'
p6103
S'returned'
p6104
S'switch'
p6105
tp6106
a(S'advmod'
p6107
S'returned'
p6108
S'then'
p6109
tp6110
a(S'advcl'
p6111
S'dropped'
p6112
S'returned'
p6113
tp6114
a(S'prep_to'
p6115
S'returned'
p6116
S'normal'
p6117
tp6118
asg41
(lp6119
(g6048
S'ROOT-0'
p6120
S'dropped-3'
p6121
tp6122
a(g6052
S'pressure-2'
p6123
S'The-1'
p6124
tp6125
a(g6056
S'dropped-3'
p6126
S'pressure-2'
p6127
tp6128
a(g6060
S'enough-6'
p6129
S'just-4'
p6130
tp6131
a(g6064
S'enough-6'
p6132
S'long-5'
p6133
tp6134
a(g6068
S'dropped-3'
p6135
S'enough-6'
p6136
tp6137
a(g6072
S'trigger-8'
p6138
S'to-7'
p6139
tp6140
a(g6076
S'dropped-3'
p6141
S'trigger-8'
p6142
tp6143
a(g6080
S'alarm-10'
p6144
S'the-9'
p6145
tp6146
a(g6084
S'trigger-8'
p6147
S'alarm-10'
p6148
tp6149
a(g6088
S'returned-20'
p6150
S'evidently-12'
p6151
tp6152
a(g6092
S'returned-20'
p6153
S'because-13'
p6154
tp6155
a(g6096
S'switch-17'
p6156
S'a-15'
p6157
tp6158
a(g6099
S'switch-17'
p6159
S'sensitive-16'
p6160
tp6161
a(g6103
S'returned-20'
p6162
S'switch-17'
p6163
tp6164
a(g6107
S'returned-20'
p6165
S'then-19'
p6166
tp6167
a(g6111
S'dropped-3'
p6168
S'returned-20'
p6169
tp6170
a(g6115
S'returned-20'
p6171
S'normal-22'
p6172
tp6173
asg64
(lp6174
(S'The'
p6175
(dp6176
S'NamedEntityTag'
p6177
g69
sS'CharacterOffsetEnd'
p6178
S'1411'
p6179
sS'Lemma'
p6180
S'the'
p6181
sS'PartOfSpeech'
p6182
S'DT'
p6183
sS'CharacterOffsetBegin'
p6184
S'1408'
p6185
stp6186
a(S'pressure'
p6187
(dp6188
S'NamedEntityTag'
p6189
g69
sS'CharacterOffsetEnd'
p6190
S'1420'
p6191
sS'Lemma'
p6192
S'pressure'
p6193
sS'PartOfSpeech'
p6194
S'NN'
p6195
sS'CharacterOffsetBegin'
p6196
S'1412'
p6197
stp6198
a(S'dropped'
p6199
(dp6200
S'NamedEntityTag'
p6201
g69
sS'CharacterOffsetEnd'
p6202
S'1428'
p6203
sS'Lemma'
p6204
S'drop'
p6205
sS'PartOfSpeech'
p6206
S'VBD'
p6207
sS'CharacterOffsetBegin'
p6208
S'1421'
p6209
stp6210
a(S'just'
p6211
(dp6212
S'NamedEntityTag'
p6213
g69
sS'CharacterOffsetEnd'
p6214
S'1433'
p6215
sS'Lemma'
p6216
S'just'
p6217
sS'PartOfSpeech'
p6218
S'RB'
p6219
sS'CharacterOffsetBegin'
p6220
S'1429'
p6221
stp6222
a(S'long'
p6223
(dp6224
S'NamedEntityTag'
p6225
g69
sS'CharacterOffsetEnd'
p6226
S'1438'
p6227
sS'Lemma'
p6228
S'long'
p6229
sS'PartOfSpeech'
p6230
S'RB'
p6231
sS'CharacterOffsetBegin'
p6232
S'1434'
p6233
stp6234
a(S'enough'
p6235
(dp6236
S'NamedEntityTag'
p6237
g69
sS'CharacterOffsetEnd'
p6238
S'1445'
p6239
sS'Lemma'
p6240
S'enough'
p6241
sS'PartOfSpeech'
p6242
S'RB'
p6243
sS'CharacterOffsetBegin'
p6244
S'1439'
p6245
stp6246
a(S'to'
p6247
(dp6248
S'NamedEntityTag'
p6249
g69
sS'CharacterOffsetEnd'
p6250
S'1448'
p6251
sS'Lemma'
p6252
S'to'
p6253
sS'PartOfSpeech'
p6254
S'TO'
p6255
sS'CharacterOffsetBegin'
p6256
S'1446'
p6257
stp6258
a(S'trigger'
p6259
(dp6260
S'NamedEntityTag'
p6261
g69
sS'CharacterOffsetEnd'
p6262
S'1456'
p6263
sS'Lemma'
p6264
S'trigger'
p6265
sS'PartOfSpeech'
p6266
S'VB'
p6267
sS'CharacterOffsetBegin'
p6268
S'1449'
p6269
stp6270
a(S'the'
p6271
(dp6272
S'NamedEntityTag'
p6273
g69
sS'CharacterOffsetEnd'
p6274
S'1460'
p6275
sS'Lemma'
p6276
S'the'
p6277
sS'PartOfSpeech'
p6278
S'DT'
p6279
sS'CharacterOffsetBegin'
p6280
S'1457'
p6281
stp6282
a(S'alarm'
p6283
(dp6284
S'NamedEntityTag'
p6285
g69
sS'CharacterOffsetEnd'
p6286
S'1466'
p6287
sS'Lemma'
p6288
S'alarm'
p6289
sS'PartOfSpeech'
p6290
S'NN'
p6291
sS'CharacterOffsetBegin'
p6292
S'1461'
p6293
stp6294
a(g1274
(dp6295
S'NamedEntityTag'
p6296
g69
sS'CharacterOffsetEnd'
p6297
S'1467'
p6298
sS'Lemma'
p6299
g1274
sS'PartOfSpeech'
p6300
g1274
sS'CharacterOffsetBegin'
p6301
S'1466'
p6302
stp6303
a(S'evidently'
p6304
(dp6305
S'NamedEntityTag'
p6306
g69
sS'CharacterOffsetEnd'
p6307
S'1477'
p6308
sS'Lemma'
p6309
S'evidently'
p6310
sS'PartOfSpeech'
p6311
S'RB'
p6312
sS'CharacterOffsetBegin'
p6313
S'1468'
p6314
stp6315
a(S'because'
p6316
(dp6317
S'NamedEntityTag'
p6318
g69
sS'CharacterOffsetEnd'
p6319
S'1485'
p6320
sS'Lemma'
p6321
S'because'
p6322
sS'PartOfSpeech'
p6323
S'IN'
p6324
sS'CharacterOffsetBegin'
p6325
S'1478'
p6326
stp6327
a(S'of'
p6328
(dp6329
S'NamedEntityTag'
p6330
g69
sS'CharacterOffsetEnd'
p6331
S'1488'
p6332
sS'Lemma'
p6333
S'of'
p6334
sS'PartOfSpeech'
p6335
S'IN'
p6336
sS'CharacterOffsetBegin'
p6337
S'1486'
p6338
stp6339
a(g1048
(dp6340
S'NamedEntityTag'
p6341
g69
sS'CharacterOffsetEnd'
p6342
S'1490'
p6343
sS'Lemma'
p6344
g1048
sS'PartOfSpeech'
p6345
S'DT'
p6346
sS'CharacterOffsetBegin'
p6347
S'1489'
p6348
stp6349
a(S'sensitive'
p6350
(dp6351
S'NamedEntityTag'
p6352
g69
sS'CharacterOffsetEnd'
p6353
S'1500'
p6354
sS'Lemma'
p6355
S'sensitive'
p6356
sS'PartOfSpeech'
p6357
S'JJ'
p6358
sS'CharacterOffsetBegin'
p6359
S'1491'
p6360
stp6361
a(S'switch'
p6362
(dp6363
S'NamedEntityTag'
p6364
g69
sS'CharacterOffsetEnd'
p6365
S'1507'
p6366
sS'Lemma'
p6367
S'switch'
p6368
sS'PartOfSpeech'
p6369
S'NN'
p6370
sS'CharacterOffsetBegin'
p6371
S'1501'
p6372
stp6373
a(g1274
(dp6374
S'NamedEntityTag'
p6375
g69
sS'CharacterOffsetEnd'
p6376
S'1508'
p6377
sS'Lemma'
p6378
g1274
sS'PartOfSpeech'
p6379
g1274
sS'CharacterOffsetBegin'
p6380
S'1507'
p6381
stp6382
a(S'then'
p6383
(dp6384
S'NamedEntityTag'
p6385
g69
sS'CharacterOffsetEnd'
p6386
S'1513'
p6387
sS'Lemma'
p6388
S'then'
p6389
sS'PartOfSpeech'
p6390
S'RB'
p6391
sS'CharacterOffsetBegin'
p6392
S'1509'
p6393
stp6394
a(S'returned'
p6395
(dp6396
S'NamedEntityTag'
p6397
g69
sS'CharacterOffsetEnd'
p6398
S'1522'
p6399
sS'Lemma'
p6400
S'return'
p6401
sS'PartOfSpeech'
p6402
S'VBD'
p6403
sS'CharacterOffsetBegin'
p6404
S'1514'
p6405
stp6406
a(S'to'
p6407
(dp6408
S'NamedEntityTag'
p6409
g69
sS'CharacterOffsetEnd'
p6410
S'1525'
p6411
sS'Lemma'
p6412
S'to'
p6413
sS'PartOfSpeech'
p6414
S'TO'
p6415
sS'CharacterOffsetBegin'
p6416
S'1523'
p6417
stp6418
a(S'normal'
p6419
(dp6420
S'NamedEntityTag'
p6421
g69
sS'CharacterOffsetEnd'
p6422
S'1532'
p6423
sS'Lemma'
p6424
S'normal'
p6425
sS'PartOfSpeech'
p6426
S'JJ'
p6427
sS'CharacterOffsetBegin'
p6428
S'1526'
p6429
stp6430
a(g175
(dp6431
S'NamedEntityTag'
p6432
g69
sS'CharacterOffsetEnd'
p6433
S'1533'
p6434
sS'Lemma'
p6435
g175
sS'PartOfSpeech'
p6436
g175
sS'CharacterOffsetBegin'
p6437
S'1532'
p6438
stp6439
asa(dp6440
g7
S'(ROOT (S (NP (NNP NASA) (NNS engineers)) (VP (VP (VBD spent) (NP (DT the) (NN day)) (S (VP (VBG examining) (NP (DT the) (NN problem))))) (, ,) (CC but) (VP (VBD found) (ADJP (NN nothing) (JJ wrong)) (PP (IN with) (NP (NP (DT any)) (PP (IN of) (NP (DT the) (NNS systems)))))) (CC and) (VP (VBD were) (ADJP (JJ confident) (SBAR (S (NP (PRP it)) (VP (MD would) (RB not) (VP (VB reoccur)))))))) (. .)))'
p6441
sg9
S'NASA engineers spent the day examining the problem, but found nothing wrong with any of the systems and were confident it would not reoccur.'
p6442
sg11
(lp6443
(S'root'
p6444
S'ROOT'
p6445
S'spent'
p6446
tp6447
a(S'nn'
p6448
S'engineers'
p6449
S'NASA'
p6450
tp6451
a(S'nsubj'
p6452
S'spent'
p6453
S'engineers'
p6454
tp6455
a(S'det'
p6456
S'day'
p6457
S'the'
p6458
tp6459
a(S'tmod'
p6460
S'spent'
p6461
S'day'
p6462
tp6463
a(S'xcomp'
p6464
S'spent'
p6465
S'examining'
p6466
tp6467
a(S'det'
p6468
S'problem'
p6469
S'the'
p6470
tp6471
a(S'dobj'
p6472
S'examining'
p6473
S'problem'
p6474
tp6475
a(S'conj_but'
p6476
S'spent'
p6477
S'found'
p6478
tp6479
a(S'npadvmod'
p6480
S'wrong'
p6481
S'nothing'
p6482
tp6483
a(S'acomp'
p6484
S'found'
p6485
S'wrong'
p6486
tp6487
a(S'prep_with'
p6488
S'found'
p6489
S'any'
p6490
tp6491
a(S'det'
p6492
S'systems'
p6493
S'the'
p6494
tp6495
a(S'prep_of'
p6496
S'any'
p6497
S'systems'
p6498
tp6499
a(S'cop'
p6500
S'confident'
p6501
S'were'
p6502
tp6503
a(S'conj_and'
p6504
S'spent'
p6505
S'confident'
p6506
tp6507
a(S'nsubj'
p6508
S'reoccur'
p6509
S'it'
p6510
tp6511
a(S'aux'
p6512
S'reoccur'
p6513
S'would'
p6514
tp6515
a(S'neg'
p6516
S'reoccur'
p6517
S'not'
p6518
tp6519
a(S'ccomp'
p6520
S'confident'
p6521
S'reoccur'
p6522
tp6523
asg41
(lp6524
(g6444
S'ROOT-0'
p6525
S'spent-3'
p6526
tp6527
a(g6448
S'engineers-2'
p6528
S'NASA-1'
p6529
tp6530
a(g6452
S'spent-3'
p6531
S'engineers-2'
p6532
tp6533
a(g6456
S'day-5'
p6534
S'the-4'
p6535
tp6536
a(g6460
S'spent-3'
p6537
S'day-5'
p6538
tp6539
a(g6464
S'spent-3'
p6540
S'examining-6'
p6541
tp6542
a(g6468
S'problem-8'
p6543
S'the-7'
p6544
tp6545
a(g6472
S'examining-6'
p6546
S'problem-8'
p6547
tp6548
a(g6476
S'spent-3'
p6549
S'found-11'
p6550
tp6551
a(g6480
S'wrong-13'
p6552
S'nothing-12'
p6553
tp6554
a(g6484
S'found-11'
p6555
S'wrong-13'
p6556
tp6557
a(g6488
S'found-11'
p6558
S'any-15'
p6559
tp6560
a(g6492
S'systems-18'
p6561
S'the-17'
p6562
tp6563
a(g6496
S'any-15'
p6564
S'systems-18'
p6565
tp6566
a(g6500
S'confident-21'
p6567
S'were-20'
p6568
tp6569
a(g6504
S'spent-3'
p6570
S'confident-21'
p6571
tp6572
a(g6508
S'reoccur-25'
p6573
S'it-22'
p6574
tp6575
a(g6512
S'reoccur-25'
p6576
S'would-23'
p6577
tp6578
a(g6516
S'reoccur-25'
p6579
S'not-24'
p6580
tp6581
a(g6520
S'confident-21'
p6582
S'reoccur-25'
p6583
tp6584
asg64
(lp6585
(S'NASA'
p6586
(dp6587
S'NamedEntityTag'
p6588
S'ORGANIZATION'
p6589
sS'CharacterOffsetEnd'
p6590
S'1538'
p6591
sS'Lemma'
p6592
S'NASA'
p6593
sS'PartOfSpeech'
p6594
S'NNP'
p6595
sS'CharacterOffsetBegin'
p6596
S'1534'
p6597
stp6598
a(S'engineers'
p6599
(dp6600
S'NamedEntityTag'
p6601
g69
sS'CharacterOffsetEnd'
p6602
S'1548'
p6603
sS'Lemma'
p6604
S'engineer'
p6605
sS'PartOfSpeech'
p6606
S'NNS'
p6607
sS'CharacterOffsetBegin'
p6608
S'1539'
p6609
stp6610
a(S'spent'
p6611
(dp6612
S'NamedEntityTag'
p6613
g69
sS'CharacterOffsetEnd'
p6614
S'1554'
p6615
sS'Lemma'
p6616
S'spend'
p6617
sS'PartOfSpeech'
p6618
S'VBD'
p6619
sS'CharacterOffsetBegin'
p6620
S'1549'
p6621
stp6622
a(S'the'
p6623
(dp6624
S'NormalizedNamedEntityTag'
p6625
S'THIS'
p6626
sS'Timex'
p6627
S'<TIMEX3 alt_value="THIS P1D" anchorTimeID="t0" temporalFunction="true" tid="t12" type="DATE" valueFromFunction="tf1">the day</TIMEX3>'
p6628
sS'Lemma'
p6629
S'the'
p6630
sS'CharacterOffsetEnd'
p6631
S'1558'
p6632
sS'PartOfSpeech'
p6633
S'DT'
p6634
sS'CharacterOffsetBegin'
p6635
S'1555'
p6636
sS'NamedEntityTag'
p6637
S'DATE'
p6638
stp6639
a(S'day'
p6640
(dp6641
S'NormalizedNamedEntityTag'
p6642
S'THIS'
p6643
sS'Timex'
p6644
S'<TIMEX3 alt_value="THIS P1D" anchorTimeID="t0" temporalFunction="true" tid="t12" type="DATE" valueFromFunction="tf1">the day</TIMEX3>'
p6645
sS'Lemma'
p6646
S'day'
p6647
sS'CharacterOffsetEnd'
p6648
S'1562'
p6649
sS'PartOfSpeech'
p6650
S'NN'
p6651
sS'CharacterOffsetBegin'
p6652
S'1559'
p6653
sS'NamedEntityTag'
p6654
S'DATE'
p6655
stp6656
a(S'examining'
p6657
(dp6658
S'NamedEntityTag'
p6659
g69
sS'CharacterOffsetEnd'
p6660
S'1572'
p6661
sS'Lemma'
p6662
S'examine'
p6663
sS'PartOfSpeech'
p6664
S'VBG'
p6665
sS'CharacterOffsetBegin'
p6666
S'1563'
p6667
stp6668
a(S'the'
p6669
(dp6670
S'NamedEntityTag'
p6671
g69
sS'CharacterOffsetEnd'
p6672
S'1576'
p6673
sS'Lemma'
p6674
S'the'
p6675
sS'PartOfSpeech'
p6676
S'DT'
p6677
sS'CharacterOffsetBegin'
p6678
S'1573'
p6679
stp6680
a(S'problem'
p6681
(dp6682
S'NamedEntityTag'
p6683
g69
sS'CharacterOffsetEnd'
p6684
S'1584'
p6685
sS'Lemma'
p6686
S'problem'
p6687
sS'PartOfSpeech'
p6688
S'NN'
p6689
sS'CharacterOffsetBegin'
p6690
S'1577'
p6691
stp6692
a(g1274
(dp6693
S'NamedEntityTag'
p6694
g69
sS'CharacterOffsetEnd'
p6695
S'1585'
p6696
sS'Lemma'
p6697
g1274
sS'PartOfSpeech'
p6698
g1274
sS'CharacterOffsetBegin'
p6699
S'1584'
p6700
stp6701
a(S'but'
p6702
(dp6703
S'NamedEntityTag'
p6704
g69
sS'CharacterOffsetEnd'
p6705
S'1589'
p6706
sS'Lemma'
p6707
S'but'
p6708
sS'PartOfSpeech'
p6709
S'CC'
p6710
sS'CharacterOffsetBegin'
p6711
S'1586'
p6712
stp6713
a(S'found'
p6714
(dp6715
S'NamedEntityTag'
p6716
g69
sS'CharacterOffsetEnd'
p6717
S'1595'
p6718
sS'Lemma'
p6719
S'find'
p6720
sS'PartOfSpeech'
p6721
S'VBD'
p6722
sS'CharacterOffsetBegin'
p6723
S'1590'
p6724
stp6725
a(S'nothing'
p6726
(dp6727
S'NamedEntityTag'
p6728
g69
sS'CharacterOffsetEnd'
p6729
S'1603'
p6730
sS'Lemma'
p6731
S'nothing'
p6732
sS'PartOfSpeech'
p6733
S'NN'
p6734
sS'CharacterOffsetBegin'
p6735
S'1596'
p6736
stp6737
a(S'wrong'
p6738
(dp6739
S'NamedEntityTag'
p6740
g69
sS'CharacterOffsetEnd'
p6741
S'1609'
p6742
sS'Lemma'
p6743
S'wrong'
p6744
sS'PartOfSpeech'
p6745
S'JJ'
p6746
sS'CharacterOffsetBegin'
p6747
S'1604'
p6748
stp6749
a(S'with'
p6750
(dp6751
S'NamedEntityTag'
p6752
g69
sS'CharacterOffsetEnd'
p6753
S'1614'
p6754
sS'Lemma'
p6755
S'with'
p6756
sS'PartOfSpeech'
p6757
S'IN'
p6758
sS'CharacterOffsetBegin'
p6759
S'1610'
p6760
stp6761
a(S'any'
p6762
(dp6763
S'NamedEntityTag'
p6764
g69
sS'CharacterOffsetEnd'
p6765
S'1618'
p6766
sS'Lemma'
p6767
S'any'
p6768
sS'PartOfSpeech'
p6769
S'DT'
p6770
sS'CharacterOffsetBegin'
p6771
S'1615'
p6772
stp6773
a(S'of'
p6774
(dp6775
S'NamedEntityTag'
p6776
g69
sS'CharacterOffsetEnd'
p6777
S'1621'
p6778
sS'Lemma'
p6779
S'of'
p6780
sS'PartOfSpeech'
p6781
S'IN'
p6782
sS'CharacterOffsetBegin'
p6783
S'1619'
p6784
stp6785
a(S'the'
p6786
(dp6787
S'NamedEntityTag'
p6788
g69
sS'CharacterOffsetEnd'
p6789
S'1625'
p6790
sS'Lemma'
p6791
S'the'
p6792
sS'PartOfSpeech'
p6793
S'DT'
p6794
sS'CharacterOffsetBegin'
p6795
S'1622'
p6796
stp6797
a(S'systems'
p6798
(dp6799
S'NamedEntityTag'
p6800
g69
sS'CharacterOffsetEnd'
p6801
S'1633'
p6802
sS'Lemma'
p6803
S'system'
p6804
sS'PartOfSpeech'
p6805
S'NNS'
p6806
sS'CharacterOffsetBegin'
p6807
S'1626'
p6808
stp6809
a(S'and'
p6810
(dp6811
S'NamedEntityTag'
p6812
g69
sS'CharacterOffsetEnd'
p6813
S'1637'
p6814
sS'Lemma'
p6815
S'and'
p6816
sS'PartOfSpeech'
p6817
S'CC'
p6818
sS'CharacterOffsetBegin'
p6819
S'1634'
p6820
stp6821
a(S'were'
p6822
(dp6823
S'NamedEntityTag'
p6824
g69
sS'CharacterOffsetEnd'
p6825
S'1642'
p6826
sS'Lemma'
p6827
S'be'
p6828
sS'PartOfSpeech'
p6829
S'VBD'
p6830
sS'CharacterOffsetBegin'
p6831
S'1638'
p6832
stp6833
a(S'confident'
p6834
(dp6835
S'NamedEntityTag'
p6836
g69
sS'CharacterOffsetEnd'
p6837
S'1652'
p6838
sS'Lemma'
p6839
S'confident'
p6840
sS'PartOfSpeech'
p6841
S'JJ'
p6842
sS'CharacterOffsetBegin'
p6843
S'1643'
p6844
stp6845
a(S'it'
p6846
(dp6847
S'NamedEntityTag'
p6848
g69
sS'CharacterOffsetEnd'
p6849
S'1655'
p6850
sS'Lemma'
p6851
S'it'
p6852
sS'PartOfSpeech'
p6853
S'PRP'
p6854
sS'CharacterOffsetBegin'
p6855
S'1653'
p6856
stp6857
a(S'would'
p6858
(dp6859
S'NamedEntityTag'
p6860
g69
sS'CharacterOffsetEnd'
p6861
S'1661'
p6862
sS'Lemma'
p6863
S'would'
p6864
sS'PartOfSpeech'
p6865
S'MD'
p6866
sS'CharacterOffsetBegin'
p6867
S'1656'
p6868
stp6869
a(S'not'
p6870
(dp6871
S'NamedEntityTag'
p6872
g69
sS'CharacterOffsetEnd'
p6873
S'1665'
p6874
sS'Lemma'
p6875
S'not'
p6876
sS'PartOfSpeech'
p6877
S'RB'
p6878
sS'CharacterOffsetBegin'
p6879
S'1662'
p6880
stp6881
a(S'reoccur'
p6882
(dp6883
S'NamedEntityTag'
p6884
g69
sS'CharacterOffsetEnd'
p6885
S'1673'
p6886
sS'Lemma'
p6887
S'reoccur'
p6888
sS'PartOfSpeech'
p6889
S'VB'
p6890
sS'CharacterOffsetBegin'
p6891
S'1666'
p6892
stp6893
a(g175
(dp6894
S'NamedEntityTag'
p6895
g69
sS'CharacterOffsetEnd'
p6896
S'1674'
p6897
sS'Lemma'
p6898
g175
sS'PartOfSpeech'
p6899
g175
sS'CharacterOffsetBegin'
p6900
S'1673'
p6901
stp6902
asa(dp6903
g7
S'(ROOT (S (NP (NNP Endeavours) (NN flight)) (VP (VBZ is) (ADVP (RB already)) (PP (ADVP (NP (DT a) (NN year)) (RB late)) (IN because) (IN of) (NP (NP (DT a) (NN cash) (NN crunch)) (PP (IN in) (NP (NNP Russia))))) (, ,) (NP (NP (CD one)) (PP (IN of) (NP (NP (NNS NASAs) (NNS partners)) (PP (IN in) (S (VP (VBG building) (NP (DT the) (JJ international) (NN space) (NN station))))))))) (. .)))'
p6904
sg9
S'Endeavours flight is already a year late because of a cash crunch in Russia, one of NASAs partners in building the international space station.'
p6905
sg11
(lp6906
(S'root'
p6907
S'ROOT'
p6908
S'one'
p6909
tp6910
a(S'nn'
p6911
S'flight'
p6912
S'Endeavours'
p6913
tp6914
a(S'nsubj'
p6915
S'one'
p6916
S'flight'
p6917
tp6918
a(S'cop'
p6919
S'one'
p6920
S'is'
p6921
tp6922
a(S'advmod'
p6923
S'one'
p6924
S'already'
p6925
tp6926
a(S'det'
p6927
S'year'
p6928
g1048
tp6929
a(S'npadvmod'
p6930
S'late'
p6931
S'year'
p6932
tp6933
a(S'advmod'
p6934
S'one'
p6935
S'late'
p6936
tp6937
a(S'det'
p6938
S'crunch'
p6939
g1048
tp6940
a(S'nn'
p6941
S'crunch'
p6942
S'cash'
p6943
tp6944
a(S'prep_because_of'
p6945
S'one'
p6946
S'crunch'
p6947
tp6948
a(S'prep_in'
p6949
S'crunch'
p6950
S'Russia'
p6951
tp6952
a(S'nn'
p6953
S'partners'
p6954
S'NASAs'
p6955
tp6956
a(S'prep_of'
p6957
S'one'
p6958
S'partners'
p6959
tp6960
a(S'prepc_in'
p6961
S'partners'
p6962
S'building'
p6963
tp6964
a(S'det'
p6965
S'station'
p6966
S'the'
p6967
tp6968
a(S'amod'
p6969
S'station'
p6970
S'international'
p6971
tp6972
a(S'nn'
p6973
S'station'
p6974
S'space'
p6975
tp6976
a(S'dobj'
p6977
S'building'
p6978
S'station'
p6979
tp6980
asg41
(lp6981
(g6907
S'ROOT-0'
p6982
S'one-16'
p6983
tp6984
a(g6911
S'flight-2'
p6985
S'Endeavours-1'
p6986
tp6987
a(g6915
S'one-16'
p6988
S'flight-2'
p6989
tp6990
a(g6919
S'one-16'
p6991
S'is-3'
p6992
tp6993
a(g6923
S'one-16'
p6994
S'already-4'
p6995
tp6996
a(g6927
S'year-6'
p6997
S'a-5'
p6998
tp6999
a(g6930
S'late-7'
p7000
S'year-6'
p7001
tp7002
a(g6934
S'one-16'
p7003
S'late-7'
p7004
tp7005
a(g6938
S'crunch-12'
p7006
S'a-10'
p7007
tp7008
a(g6941
S'crunch-12'
p7009
S'cash-11'
p7010
tp7011
a(g6945
S'one-16'
p7012
S'crunch-12'
p7013
tp7014
a(g6949
S'crunch-12'
p7015
S'Russia-14'
p7016
tp7017
a(g6953
S'partners-19'
p7018
S'NASAs-18'
p7019
tp7020
a(g6957
S'one-16'
p7021
S'partners-19'
p7022
tp7023
a(g6961
S'partners-19'
p7024
S'building-21'
p7025
tp7026
a(g6965
S'station-25'
p7027
S'the-22'
p7028
tp7029
a(g6969
S'station-25'
p7030
S'international-23'
p7031
tp7032
a(g6973
S'station-25'
p7033
S'space-24'
p7034
tp7035
a(g6977
S'building-21'
p7036
S'station-25'
p7037
tp7038
asg64
(lp7039
(S'Endeavours'
p7040
(dp7041
S'NamedEntityTag'
p7042
g69
sS'CharacterOffsetEnd'
p7043
S'1685'
p7044
sS'Lemma'
p7045
S'Endeavours'
p7046
sS'PartOfSpeech'
p7047
S'NNP'
p7048
sS'CharacterOffsetBegin'
p7049
S'1675'
p7050
stp7051
a(S'flight'
p7052
(dp7053
S'NamedEntityTag'
p7054
g69
sS'CharacterOffsetEnd'
p7055
S'1692'
p7056
sS'Lemma'
p7057
S'flight'
p7058
sS'PartOfSpeech'
p7059
S'NN'
p7060
sS'CharacterOffsetBegin'
p7061
S'1686'
p7062
stp7063
a(S'is'
p7064
(dp7065
S'NamedEntityTag'
p7066
g69
sS'CharacterOffsetEnd'
p7067
S'1695'
p7068
sS'Lemma'
p7069
S'be'
p7070
sS'PartOfSpeech'
p7071
S'VBZ'
p7072
sS'CharacterOffsetBegin'
p7073
S'1693'
p7074
stp7075
a(S'already'
p7076
(dp7077
S'NamedEntityTag'
p7078
g69
sS'CharacterOffsetEnd'
p7079
S'1703'
p7080
sS'Lemma'
p7081
S'already'
p7082
sS'PartOfSpeech'
p7083
S'RB'
p7084
sS'CharacterOffsetBegin'
p7085
S'1696'
p7086
stp7087
a(g1048
(dp7088
S'NormalizedNamedEntityTag'
p7089
S'P1Y'
p7090
sS'Timex'
p7091
S'<TIMEX3 tid="t13" type="DURATION" value="P1Y">a year</TIMEX3>'
p7092
sS'Lemma'
p7093
g1048
sS'CharacterOffsetEnd'
p7094
S'1705'
p7095
sS'PartOfSpeech'
p7096
S'DT'
p7097
sS'CharacterOffsetBegin'
p7098
S'1704'
p7099
sS'NamedEntityTag'
p7100
S'DURATION'
p7101
stp7102
a(S'year'
p7103
(dp7104
S'NormalizedNamedEntityTag'
p7105
S'P1Y'
p7106
sS'Timex'
p7107
S'<TIMEX3 tid="t13" type="DURATION" value="P1Y">a year</TIMEX3>'
p7108
sS'Lemma'
p7109
S'year'
p7110
sS'CharacterOffsetEnd'
p7111
S'1710'
p7112
sS'PartOfSpeech'
p7113
S'NN'
p7114
sS'CharacterOffsetBegin'
p7115
S'1706'
p7116
sS'NamedEntityTag'
p7117
S'DURATION'
p7118
stp7119
a(S'late'
p7120
(dp7121
S'NamedEntityTag'
p7122
g69
sS'CharacterOffsetEnd'
p7123
S'1715'
p7124
sS'Lemma'
p7125
S'late'
p7126
sS'PartOfSpeech'
p7127
S'RB'
p7128
sS'CharacterOffsetBegin'
p7129
S'1711'
p7130
stp7131
a(S'because'
p7132
(dp7133
S'NamedEntityTag'
p7134
g69
sS'CharacterOffsetEnd'
p7135
S'1723'
p7136
sS'Lemma'
p7137
S'because'
p7138
sS'PartOfSpeech'
p7139
S'IN'
p7140
sS'CharacterOffsetBegin'
p7141
S'1716'
p7142
stp7143
a(S'of'
p7144
(dp7145
S'NamedEntityTag'
p7146
g69
sS'CharacterOffsetEnd'
p7147
S'1726'
p7148
sS'Lemma'
p7149
S'of'
p7150
sS'PartOfSpeech'
p7151
S'IN'
p7152
sS'CharacterOffsetBegin'
p7153
S'1724'
p7154
stp7155
a(g1048
(dp7156
S'NamedEntityTag'
p7157
g69
sS'CharacterOffsetEnd'
p7158
S'1728'
p7159
sS'Lemma'
p7160
g1048
sS'PartOfSpeech'
p7161
S'DT'
p7162
sS'CharacterOffsetBegin'
p7163
S'1727'
p7164
stp7165
a(S'cash'
p7166
(dp7167
S'NamedEntityTag'
p7168
g69
sS'CharacterOffsetEnd'
p7169
S'1733'
p7170
sS'Lemma'
p7171
S'cash'
p7172
sS'PartOfSpeech'
p7173
S'NN'
p7174
sS'CharacterOffsetBegin'
p7175
S'1729'
p7176
stp7177
a(S'crunch'
p7178
(dp7179
S'NamedEntityTag'
p7180
g69
sS'CharacterOffsetEnd'
p7181
S'1740'
p7182
sS'Lemma'
p7183
S'crunch'
p7184
sS'PartOfSpeech'
p7185
S'NN'
p7186
sS'CharacterOffsetBegin'
p7187
S'1734'
p7188
stp7189
a(S'in'
p7190
(dp7191
S'NamedEntityTag'
p7192
g69
sS'CharacterOffsetEnd'
p7193
S'1743'
p7194
sS'Lemma'
p7195
S'in'
p7196
sS'PartOfSpeech'
p7197
S'IN'
p7198
sS'CharacterOffsetBegin'
p7199
S'1741'
p7200
stp7201
a(S'Russia'
p7202
(dp7203
S'NamedEntityTag'
p7204
S'LOCATION'
p7205
sS'CharacterOffsetEnd'
p7206
S'1750'
p7207
sS'Lemma'
p7208
S'Russia'
p7209
sS'PartOfSpeech'
p7210
S'NNP'
p7211
sS'CharacterOffsetBegin'
p7212
S'1744'
p7213
stp7214
a(g1274
(dp7215
S'NamedEntityTag'
p7216
g69
sS'CharacterOffsetEnd'
p7217
S'1751'
p7218
sS'Lemma'
p7219
g1274
sS'PartOfSpeech'
p7220
g1274
sS'CharacterOffsetBegin'
p7221
S'1750'
p7222
stp7223
a(S'one'
p7224
(dp7225
S'NormalizedNamedEntityTag'
p7226
S'1.0'
p7227
sS'Lemma'
p7228
S'one'
p7229
sS'CharacterOffsetEnd'
p7230
S'1755'
p7231
sS'PartOfSpeech'
p7232
S'CD'
p7233
sS'CharacterOffsetBegin'
p7234
S'1752'
p7235
sS'NamedEntityTag'
p7236
S'NUMBER'
p7237
stp7238
a(S'of'
p7239
(dp7240
S'NamedEntityTag'
p7241
g69
sS'CharacterOffsetEnd'
p7242
S'1758'
p7243
sS'Lemma'
p7244
S'of'
p7245
sS'PartOfSpeech'
p7246
S'IN'
p7247
sS'CharacterOffsetBegin'
p7248
S'1756'
p7249
stp7250
a(S'NASAs'
p7251
(dp7252
S'NamedEntityTag'
p7253
S'MISC'
p7254
sS'CharacterOffsetEnd'
p7255
S'1764'
p7256
sS'Lemma'
p7257
S'nasa'
p7258
sS'PartOfSpeech'
p7259
S'NNS'
p7260
sS'CharacterOffsetBegin'
p7261
S'1759'
p7262
stp7263
a(S'partners'
p7264
(dp7265
S'NamedEntityTag'
p7266
g69
sS'CharacterOffsetEnd'
p7267
S'1773'
p7268
sS'Lemma'
p7269
S'partner'
p7270
sS'PartOfSpeech'
p7271
S'NNS'
p7272
sS'CharacterOffsetBegin'
p7273
S'1765'
p7274
stp7275
a(S'in'
p7276
(dp7277
S'NamedEntityTag'
p7278
g69
sS'CharacterOffsetEnd'
p7279
S'1776'
p7280
sS'Lemma'
p7281
S'in'
p7282
sS'PartOfSpeech'
p7283
S'IN'
p7284
sS'CharacterOffsetBegin'
p7285
S'1774'
p7286
stp7287
a(S'building'
p7288
(dp7289
S'NamedEntityTag'
p7290
g69
sS'CharacterOffsetEnd'
p7291
S'1785'
p7292
sS'Lemma'
p7293
S'build'
p7294
sS'PartOfSpeech'
p7295
S'VBG'
p7296
sS'CharacterOffsetBegin'
p7297
S'1777'
p7298
stp7299
a(S'the'
p7300
(dp7301
S'NamedEntityTag'
p7302
g69
sS'CharacterOffsetEnd'
p7303
S'1789'
p7304
sS'Lemma'
p7305
S'the'
p7306
sS'PartOfSpeech'
p7307
S'DT'
p7308
sS'CharacterOffsetBegin'
p7309
S'1786'
p7310
stp7311
a(S'international'
p7312
(dp7313
S'NamedEntityTag'
p7314
g69
sS'CharacterOffsetEnd'
p7315
S'1803'
p7316
sS'Lemma'
p7317
S'international'
p7318
sS'PartOfSpeech'
p7319
S'JJ'
p7320
sS'CharacterOffsetBegin'
p7321
S'1790'
p7322
stp7323
a(S'space'
p7324
(dp7325
S'NamedEntityTag'
p7326
g69
sS'CharacterOffsetEnd'
p7327
S'1809'
p7328
sS'Lemma'
p7329
S'space'
p7330
sS'PartOfSpeech'
p7331
S'NN'
p7332
sS'CharacterOffsetBegin'
p7333
S'1804'
p7334
stp7335
a(S'station'
p7336
(dp7337
S'NamedEntityTag'
p7338
g69
sS'CharacterOffsetEnd'
p7339
S'1817'
p7340
sS'Lemma'
p7341
S'station'
p7342
sS'PartOfSpeech'
p7343
S'NN'
p7344
sS'CharacterOffsetBegin'
p7345
S'1810'
p7346
stp7347
a(g175
(dp7348
S'NamedEntityTag'
p7349
g69
sS'CharacterOffsetEnd'
p7350
S'1818'
p7351
sS'Lemma'
p7352
g175
sS'PartOfSpeech'
p7353
g175
sS'CharacterOffsetBegin'
p7354
S'1817'
p7355
stp7356
asa(dp7357
g7
S'(ROOT (NP (NP (DT The) (JJ one-day) (NN delay) (NN cost)) (NP (NP (NNP NASA)) (PP (PP (IN about) (NP ($ $) (CD 600,000))) (, ,) (RB mostly) (PP (IN in) (NP (NP (NN fuel) (CC and) (NN overtime)) (NN pay))))) (. .)))'
p7358
sg9
S'The one-day delay cost NASA about $600,000, mostly in fuel and overtime pay.'
p7359
sg11
(lp7360
(S'root'
p7361
S'ROOT'
p7362
S'cost'
p7363
tp7364
a(S'det'
p7365
S'cost'
p7366
S'The'
p7367
tp7368
a(S'amod'
p7369
S'cost'
p7370
S'one-day'
p7371
tp7372
a(S'nn'
p7373
S'cost'
p7374
S'delay'
p7375
tp7376
a(S'dep'
p7377
S'cost'
p7378
S'NASA'
p7379
tp7380
a(S'prep_about'
p7381
S'NASA'
p7382
S'$'
p7383
tp7384
a(S'num'
p7385
g7383
S'600,000'
p7386
tp7387
a(S'dep'
p7388
S'NASA'
p7389
S'mostly'
p7390
tp7391
a(S'nn'
p7392
S'pay'
p7393
S'fuel'
p7394
tp7395
a(S'conj_and'
p7396
S'fuel'
p7397
S'overtime'
p7398
tp7399
a(S'prep_in'
p7400
S'NASA'
p7401
S'pay'
p7402
tp7403
asg41
(lp7404
(g7361
S'ROOT-0'
p7405
S'cost-4'
p7406
tp7407
a(g7365
S'cost-4'
p7408
S'The-1'
p7409
tp7410
a(g7369
S'cost-4'
p7411
S'one-day-2'
p7412
tp7413
a(g7373
S'cost-4'
p7414
S'delay-3'
p7415
tp7416
a(g7377
S'cost-4'
p7417
S'NASA-5'
p7418
tp7419
a(g7381
S'NASA-5'
p7420
S'$-7'
p7421
tp7422
a(g7385
S'$-7'
p7423
S'600,000-8'
p7424
tp7425
a(g7388
S'NASA-5'
p7426
S'mostly-10'
p7427
tp7428
a(g7392
S'pay-15'
p7429
S'fuel-12'
p7430
tp7431
a(g7396
S'fuel-12'
p7432
S'overtime-14'
p7433
tp7434
a(g7400
S'NASA-5'
p7435
S'pay-15'
p7436
tp7437
asg64
(lp7438
(S'The'
p7439
(dp7440
S'NamedEntityTag'
p7441
g69
sS'CharacterOffsetEnd'
p7442
S'1822'
p7443
sS'Lemma'
p7444
S'the'
p7445
sS'PartOfSpeech'
p7446
S'DT'
p7447
sS'CharacterOffsetBegin'
p7448
S'1819'
p7449
stp7450
a(S'one-day'
p7451
(dp7452
S'NormalizedNamedEntityTag'
p7453
S'P1D'
p7454
sS'Timex'
p7455
S'<TIMEX3 tid="t14" type="DURATION" value="P1D">one-day</TIMEX3>'
p7456
sS'Lemma'
p7457
S'one-day'
p7458
sS'CharacterOffsetEnd'
p7459
S'1830'
p7460
sS'PartOfSpeech'
p7461
S'JJ'
p7462
sS'CharacterOffsetBegin'
p7463
S'1823'
p7464
sS'NamedEntityTag'
p7465
S'DURATION'
p7466
stp7467
a(S'delay'
p7468
(dp7469
S'NamedEntityTag'
p7470
g69
sS'CharacterOffsetEnd'
p7471
S'1836'
p7472
sS'Lemma'
p7473
S'delay'
p7474
sS'PartOfSpeech'
p7475
S'NN'
p7476
sS'CharacterOffsetBegin'
p7477
S'1831'
p7478
stp7479
a(S'cost'
p7480
(dp7481
S'NamedEntityTag'
p7482
g69
sS'CharacterOffsetEnd'
p7483
S'1841'
p7484
sS'Lemma'
p7485
S'cost'
p7486
sS'PartOfSpeech'
p7487
S'NN'
p7488
sS'CharacterOffsetBegin'
p7489
S'1837'
p7490
stp7491
a(S'NASA'
p7492
(dp7493
S'NamedEntityTag'
p7494
S'ORGANIZATION'
p7495
sS'CharacterOffsetEnd'
p7496
S'1846'
p7497
sS'Lemma'
p7498
S'NASA'
p7499
sS'PartOfSpeech'
p7500
S'NNP'
p7501
sS'CharacterOffsetBegin'
p7502
S'1842'
p7503
stp7504
a(S'about'
p7505
(dp7506
S'NamedEntityTag'
p7507
g69
sS'CharacterOffsetEnd'
p7508
S'1852'
p7509
sS'Lemma'
p7510
S'about'
p7511
sS'PartOfSpeech'
p7512
S'IN'
p7513
sS'CharacterOffsetBegin'
p7514
S'1847'
p7515
stp7516
a(g7383
(dp7517
S'NormalizedNamedEntityTag'
p7518
S'~$600000.0'
p7519
sS'Lemma'
p7520
g7383
sS'CharacterOffsetEnd'
p7521
S'1854'
p7522
sS'PartOfSpeech'
p7523
g7383
sS'CharacterOffsetBegin'
p7524
S'1853'
p7525
sS'NamedEntityTag'
p7526
S'MONEY'
p7527
stp7528
a(S'600,000'
p7529
(dp7530
S'NormalizedNamedEntityTag'
p7531
S'~$600000.0'
p7532
sS'Lemma'
p7533
S'600,000'
p7534
sS'CharacterOffsetEnd'
p7535
S'1861'
p7536
sS'PartOfSpeech'
p7537
S'CD'
p7538
sS'CharacterOffsetBegin'
p7539
S'1854'
p7540
sS'NamedEntityTag'
p7541
S'MONEY'
p7542
stp7543
a(g1274
(dp7544
S'NamedEntityTag'
p7545
g69
sS'CharacterOffsetEnd'
p7546
S'1862'
p7547
sS'Lemma'
p7548
g1274
sS'PartOfSpeech'
p7549
g1274
sS'CharacterOffsetBegin'
p7550
S'1861'
p7551
stp7552
a(S'mostly'
p7553
(dp7554
S'NamedEntityTag'
p7555
g69
sS'CharacterOffsetEnd'
p7556
S'1869'
p7557
sS'Lemma'
p7558
S'mostly'
p7559
sS'PartOfSpeech'
p7560
S'RB'
p7561
sS'CharacterOffsetBegin'
p7562
S'1863'
p7563
stp7564
a(S'in'
p7565
(dp7566
S'NamedEntityTag'
p7567
g69
sS'CharacterOffsetEnd'
p7568
S'1872'
p7569
sS'Lemma'
p7570
S'in'
p7571
sS'PartOfSpeech'
p7572
S'IN'
p7573
sS'CharacterOffsetBegin'
p7574
S'1870'
p7575
stp7576
a(S'fuel'
p7577
(dp7578
S'NamedEntityTag'
p7579
g69
sS'CharacterOffsetEnd'
p7580
S'1877'
p7581
sS'Lemma'
p7582
S'fuel'
p7583
sS'PartOfSpeech'
p7584
S'NN'
p7585
sS'CharacterOffsetBegin'
p7586
S'1873'
p7587
stp7588
a(S'and'
p7589
(dp7590
S'NamedEntityTag'
p7591
g69
sS'CharacterOffsetEnd'
p7592
S'1881'
p7593
sS'Lemma'
p7594
S'and'
p7595
sS'PartOfSpeech'
p7596
S'CC'
p7597
sS'CharacterOffsetBegin'
p7598
S'1878'
p7599
stp7600
a(S'overtime'
p7601
(dp7602
S'NamedEntityTag'
p7603
g69
sS'CharacterOffsetEnd'
p7604
S'1890'
p7605
sS'Lemma'
p7606
S'overtime'
p7607
sS'PartOfSpeech'
p7608
S'NN'
p7609
sS'CharacterOffsetBegin'
p7610
S'1882'
p7611
stp7612
a(S'pay'
p7613
(dp7614
S'NamedEntityTag'
p7615
g69
sS'CharacterOffsetEnd'
p7616
S'1894'
p7617
sS'Lemma'
p7618
S'pay'
p7619
sS'PartOfSpeech'
p7620
S'NN'
p7621
sS'CharacterOffsetBegin'
p7622
S'1891'
p7623
stp7624
a(g175
(dp7625
S'NamedEntityTag'
p7626
g69
sS'CharacterOffsetEnd'
p7627
S'1895'
p7628
sS'Lemma'
p7629
g175
sS'PartOfSpeech'
p7630
g175
sS'CharacterOffsetBegin'
p7631
S'1894'
p7632
stp7633
asa(dp7634
g7
S'(ROOT (SINV (PP (IN Aboard) (NP (NNP Endeavour))) (VP (VBZ is)) (NP (NP (DT an) (JJ American-made)) (VP (VBG connecting) (NP (NP (NN passageway)) (VP (VBN named) (NP (NNP Unity)))))) (. .)))'
p7635
sg9
S'Aboard Endeavour is an American-made connecting passageway named Unity.'
p7636
sg11
(lp7637
(S'root'
p7638
S'ROOT'
p7639
S'is'
p7640
tp7641
a(S'prep_aboard'
p7642
S'is'
p7643
S'Endeavour'
p7644
tp7645
a(S'det'
p7646
S'American-made'
p7647
S'an'
p7648
tp7649
a(S'nsubj'
p7650
S'is'
p7651
S'American-made'
p7652
tp7653
a(S'partmod'
p7654
S'American-made'
p7655
S'connecting'
p7656
tp7657
a(S'dobj'
p7658
S'connecting'
p7659
S'passageway'
p7660
tp7661
a(S'partmod'
p7662
S'passageway'
p7663
S'named'
p7664
tp7665
a(S'dobj'
p7666
S'named'
p7667
S'Unity'
p7668
tp7669
asg41
(lp7670
(g7638
S'ROOT-0'
p7671
S'is-3'
p7672
tp7673
a(g7642
S'is-3'
p7674
S'Endeavour-2'
p7675
tp7676
a(g7646
S'American-made-5'
p7677
S'an-4'
p7678
tp7679
a(g7650
S'is-3'
p7680
S'American-made-5'
p7681
tp7682
a(g7654
S'American-made-5'
p7683
S'connecting-6'
p7684
tp7685
a(g7658
S'connecting-6'
p7686
S'passageway-7'
p7687
tp7688
a(g7662
S'passageway-7'
p7689
S'named-8'
p7690
tp7691
a(g7666
S'named-8'
p7692
S'Unity-9'
p7693
tp7694
asg64
(lp7695
(S'Aboard'
p7696
(dp7697
S'NamedEntityTag'
p7698
S'MISC'
p7699
sS'CharacterOffsetEnd'
p7700
S'1902'
p7701
sS'Lemma'
p7702
S'aboard'
p7703
sS'PartOfSpeech'
p7704
S'IN'
p7705
sS'CharacterOffsetBegin'
p7706
S'1896'
p7707
stp7708
a(S'Endeavour'
p7709
(dp7710
S'NamedEntityTag'
p7711
S'MISC'
p7712
sS'CharacterOffsetEnd'
p7713
S'1912'
p7714
sS'Lemma'
p7715
S'Endeavour'
p7716
sS'PartOfSpeech'
p7717
S'NNP'
p7718
sS'CharacterOffsetBegin'
p7719
S'1903'
p7720
stp7721
a(S'is'
p7722
(dp7723
S'NamedEntityTag'
p7724
g69
sS'CharacterOffsetEnd'
p7725
S'1915'
p7726
sS'Lemma'
p7727
S'be'
p7728
sS'PartOfSpeech'
p7729
S'VBZ'
p7730
sS'CharacterOffsetBegin'
p7731
S'1913'
p7732
stp7733
a(S'an'
p7734
(dp7735
S'NamedEntityTag'
p7736
g69
sS'CharacterOffsetEnd'
p7737
S'1918'
p7738
sS'Lemma'
p7739
g1048
sS'PartOfSpeech'
p7740
S'DT'
p7741
sS'CharacterOffsetBegin'
p7742
S'1916'
p7743
stp7744
a(S'American-made'
p7745
(dp7746
S'NamedEntityTag'
p7747
S'MISC'
p7748
sS'CharacterOffsetEnd'
p7749
S'1932'
p7750
sS'Lemma'
p7751
S'american-made'
p7752
sS'PartOfSpeech'
p7753
S'JJ'
p7754
sS'CharacterOffsetBegin'
p7755
S'1919'
p7756
stp7757
a(S'connecting'
p7758
(dp7759
S'NamedEntityTag'
p7760
g69
sS'CharacterOffsetEnd'
p7761
S'1943'
p7762
sS'Lemma'
p7763
S'connect'
p7764
sS'PartOfSpeech'
p7765
S'VBG'
p7766
sS'CharacterOffsetBegin'
p7767
S'1933'
p7768
stp7769
a(S'passageway'
p7770
(dp7771
S'NamedEntityTag'
p7772
g69
sS'CharacterOffsetEnd'
p7773
S'1954'
p7774
sS'Lemma'
p7775
S'passageway'
p7776
sS'PartOfSpeech'
p7777
S'NN'
p7778
sS'CharacterOffsetBegin'
p7779
S'1944'
p7780
stp7781
a(S'named'
p7782
(dp7783
S'NamedEntityTag'
p7784
g69
sS'CharacterOffsetEnd'
p7785
S'1960'
p7786
sS'Lemma'
p7787
S'name'
p7788
sS'PartOfSpeech'
p7789
S'VBN'
p7790
sS'CharacterOffsetBegin'
p7791
S'1955'
p7792
stp7793
a(S'Unity'
p7794
(dp7795
S'NamedEntityTag'
p7796
g69
sS'CharacterOffsetEnd'
p7797
S'1966'
p7798
sS'Lemma'
p7799
S'Unity'
p7800
sS'PartOfSpeech'
p7801
S'NNP'
p7802
sS'CharacterOffsetBegin'
p7803
S'1961'
p7804
stp7805
a(g175
(dp7806
S'NamedEntityTag'
p7807
g69
sS'CharacterOffsetEnd'
p7808
S'1967'
p7809
sS'Lemma'
p7810
g175
sS'PartOfSpeech'
p7811
g175
sS'CharacterOffsetBegin'
p7812
S'1966'
p7813
stp7814
asa(dp7815
g7
S'(ROOT (S (NP (DT The) (NNS astronauts)) (VP (MD will) (VP (VB use) (NP (DT the) (NN shuttle) (NN robot) (NN arm)) (S (VP (TO to) (VP (VP (VB capture) (NP (DT the) (JJ Russian) (NN space) (NN station) (NN piece))) (CC and) (VP (VB attach) (NP (PRP it)) (PP (TO to) (NP (NNP Unity))))))))) (. .)))'
p7816
sg9
S'The astronauts will use the shuttle robot arm to capture the Russian space station piece and attach it to Unity.'
p7817
sg11
(lp7818
(S'root'
p7819
S'ROOT'
p7820
S'use'
p7821
tp7822
a(S'det'
p7823
S'astronauts'
p7824
S'The'
p7825
tp7826
a(S'nsubj'
p7827
S'use'
p7828
S'astronauts'
p7829
tp7830
a(S'aux'
p7831
S'use'
p7832
S'will'
p7833
tp7834
a(S'det'
p7835
S'arm'
p7836
S'the'
p7837
tp7838
a(S'nn'
p7839
S'arm'
p7840
S'shuttle'
p7841
tp7842
a(S'nn'
p7843
S'arm'
p7844
S'robot'
p7845
tp7846
a(S'dobj'
p7847
S'use'
p7848
S'arm'
p7849
tp7850
a(S'aux'
p7851
S'capture'
p7852
S'to'
p7853
tp7854
a(S'xcomp'
p7855
S'use'
p7856
S'capture'
p7857
tp7858
a(S'det'
p7859
S'piece'
p7860
S'the'
p7861
tp7862
a(S'amod'
p7863
S'piece'
p7864
S'Russian'
p7865
tp7866
a(S'nn'
p7867
S'piece'
p7868
S'space'
p7869
tp7870
a(S'nn'
p7871
S'piece'
p7872
S'station'
p7873
tp7874
a(S'dobj'
p7875
S'capture'
p7876
S'piece'
p7877
tp7878
a(S'conj_and'
p7879
S'capture'
p7880
S'attach'
p7881
tp7882
a(S'dobj'
p7883
S'attach'
p7884
S'it'
p7885
tp7886
a(S'prep_to'
p7887
S'attach'
p7888
S'Unity'
p7889
tp7890
asg41
(lp7891
(g7819
S'ROOT-0'
p7892
S'use-4'
p7893
tp7894
a(g7823
S'astronauts-2'
p7895
S'The-1'
p7896
tp7897
a(g7827
S'use-4'
p7898
S'astronauts-2'
p7899
tp7900
a(g7831
S'use-4'
p7901
S'will-3'
p7902
tp7903
a(g7835
S'arm-8'
p7904
S'the-5'
p7905
tp7906
a(g7839
S'arm-8'
p7907
S'shuttle-6'
p7908
tp7909
a(g7843
S'arm-8'
p7910
S'robot-7'
p7911
tp7912
a(g7847
S'use-4'
p7913
S'arm-8'
p7914
tp7915
a(g7851
S'capture-10'
p7916
S'to-9'
p7917
tp7918
a(g7855
S'use-4'
p7919
S'capture-10'
p7920
tp7921
a(g7859
S'piece-15'
p7922
S'the-11'
p7923
tp7924
a(g7863
S'piece-15'
p7925
S'Russian-12'
p7926
tp7927
a(g7867
S'piece-15'
p7928
S'space-13'
p7929
tp7930
a(g7871
S'piece-15'
p7931
S'station-14'
p7932
tp7933
a(g7875
S'capture-10'
p7934
S'piece-15'
p7935
tp7936
a(g7879
S'capture-10'
p7937
S'attach-17'
p7938
tp7939
a(g7883
S'attach-17'
p7940
S'it-18'
p7941
tp7942
a(g7887
S'attach-17'
p7943
S'Unity-20'
p7944
tp7945
asg64
(lp7946
(S'The'
p7947
(dp7948
S'NamedEntityTag'
p7949
g69
sS'CharacterOffsetEnd'
p7950
S'1971'
p7951
sS'Lemma'
p7952
S'the'
p7953
sS'PartOfSpeech'
p7954
S'DT'
p7955
sS'CharacterOffsetBegin'
p7956
S'1968'
p7957
stp7958
a(S'astronauts'
p7959
(dp7960
S'NamedEntityTag'
p7961
g69
sS'CharacterOffsetEnd'
p7962
S'1982'
p7963
sS'Lemma'
p7964
S'astronaut'
p7965
sS'PartOfSpeech'
p7966
S'NNS'
p7967
sS'CharacterOffsetBegin'
p7968
S'1972'
p7969
stp7970
a(S'will'
p7971
(dp7972
S'NamedEntityTag'
p7973
g69
sS'CharacterOffsetEnd'
p7974
S'1987'
p7975
sS'Lemma'
p7976
S'will'
p7977
sS'PartOfSpeech'
p7978
S'MD'
p7979
sS'CharacterOffsetBegin'
p7980
S'1983'
p7981
stp7982
a(S'use'
p7983
(dp7984
S'NamedEntityTag'
p7985
g69
sS'CharacterOffsetEnd'
p7986
S'1991'
p7987
sS'Lemma'
p7988
S'use'
p7989
sS'PartOfSpeech'
p7990
S'VB'
p7991
sS'CharacterOffsetBegin'
p7992
S'1988'
p7993
stp7994
a(S'the'
p7995
(dp7996
S'NamedEntityTag'
p7997
g69
sS'CharacterOffsetEnd'
p7998
S'1995'
p7999
sS'Lemma'
p8000
S'the'
p8001
sS'PartOfSpeech'
p8002
S'DT'
p8003
sS'CharacterOffsetBegin'
p8004
S'1992'
p8005
stp8006
a(S'shuttle'
p8007
(dp8008
S'NamedEntityTag'
p8009
g69
sS'CharacterOffsetEnd'
p8010
S'2003'
p8011
sS'Lemma'
p8012
S'shuttle'
p8013
sS'PartOfSpeech'
p8014
S'NN'
p8015
sS'CharacterOffsetBegin'
p8016
S'1996'
p8017
stp8018
a(S'robot'
p8019
(dp8020
S'NamedEntityTag'
p8021
g69
sS'CharacterOffsetEnd'
p8022
S'2009'
p8023
sS'Lemma'
p8024
S'robot'
p8025
sS'PartOfSpeech'
p8026
S'NN'
p8027
sS'CharacterOffsetBegin'
p8028
S'2004'
p8029
stp8030
a(S'arm'
p8031
(dp8032
S'NamedEntityTag'
p8033
g69
sS'CharacterOffsetEnd'
p8034
S'2013'
p8035
sS'Lemma'
p8036
S'arm'
p8037
sS'PartOfSpeech'
p8038
S'NN'
p8039
sS'CharacterOffsetBegin'
p8040
S'2010'
p8041
stp8042
a(S'to'
p8043
(dp8044
S'NamedEntityTag'
p8045
g69
sS'CharacterOffsetEnd'
p8046
S'2016'
p8047
sS'Lemma'
p8048
S'to'
p8049
sS'PartOfSpeech'
p8050
S'TO'
p8051
sS'CharacterOffsetBegin'
p8052
S'2014'
p8053
stp8054
a(S'capture'
p8055
(dp8056
S'NamedEntityTag'
p8057
g69
sS'CharacterOffsetEnd'
p8058
S'2024'
p8059
sS'Lemma'
p8060
S'capture'
p8061
sS'PartOfSpeech'
p8062
S'VB'
p8063
sS'CharacterOffsetBegin'
p8064
S'2017'
p8065
stp8066
a(S'the'
p8067
(dp8068
S'NamedEntityTag'
p8069
g69
sS'CharacterOffsetEnd'
p8070
S'2028'
p8071
sS'Lemma'
p8072
S'the'
p8073
sS'PartOfSpeech'
p8074
S'DT'
p8075
sS'CharacterOffsetBegin'
p8076
S'2025'
p8077
stp8078
a(S'Russian'
p8079
(dp8080
S'NamedEntityTag'
p8081
S'MISC'
p8082
sS'CharacterOffsetEnd'
p8083
S'2036'
p8084
sS'Lemma'
p8085
S'russian'
p8086
sS'PartOfSpeech'
p8087
S'JJ'
p8088
sS'CharacterOffsetBegin'
p8089
S'2029'
p8090
stp8091
a(S'space'
p8092
(dp8093
S'NamedEntityTag'
p8094
g69
sS'CharacterOffsetEnd'
p8095
S'2042'
p8096
sS'Lemma'
p8097
S'space'
p8098
sS'PartOfSpeech'
p8099
S'NN'
p8100
sS'CharacterOffsetBegin'
p8101
S'2037'
p8102
stp8103
a(S'station'
p8104
(dp8105
S'NamedEntityTag'
p8106
g69
sS'CharacterOffsetEnd'
p8107
S'2050'
p8108
sS'Lemma'
p8109
S'station'
p8110
sS'PartOfSpeech'
p8111
S'NN'
p8112
sS'CharacterOffsetBegin'
p8113
S'2043'
p8114
stp8115
a(S'piece'
p8116
(dp8117
S'NamedEntityTag'
p8118
g69
sS'CharacterOffsetEnd'
p8119
S'2056'
p8120
sS'Lemma'
p8121
S'piece'
p8122
sS'PartOfSpeech'
p8123
S'NN'
p8124
sS'CharacterOffsetBegin'
p8125
S'2051'
p8126
stp8127
a(S'and'
p8128
(dp8129
S'NamedEntityTag'
p8130
g69
sS'CharacterOffsetEnd'
p8131
S'2060'
p8132
sS'Lemma'
p8133
S'and'
p8134
sS'PartOfSpeech'
p8135
S'CC'
p8136
sS'CharacterOffsetBegin'
p8137
S'2057'
p8138
stp8139
a(S'attach'
p8140
(dp8141
S'NamedEntityTag'
p8142
g69
sS'CharacterOffsetEnd'
p8143
S'2067'
p8144
sS'Lemma'
p8145
S'attach'
p8146
sS'PartOfSpeech'
p8147
S'VB'
p8148
sS'CharacterOffsetBegin'
p8149
S'2061'
p8150
stp8151
a(S'it'
p8152
(dp8153
S'NamedEntityTag'
p8154
g69
sS'CharacterOffsetEnd'
p8155
S'2070'
p8156
sS'Lemma'
p8157
S'it'
p8158
sS'PartOfSpeech'
p8159
S'PRP'
p8160
sS'CharacterOffsetBegin'
p8161
S'2068'
p8162
stp8163
a(S'to'
p8164
(dp8165
S'NamedEntityTag'
p8166
g69
sS'CharacterOffsetEnd'
p8167
S'2073'
p8168
sS'Lemma'
p8169
S'to'
p8170
sS'PartOfSpeech'
p8171
S'TO'
p8172
sS'CharacterOffsetBegin'
p8173
S'2071'
p8174
stp8175
a(S'Unity'
p8176
(dp8177
S'NamedEntityTag'
p8178
g69
sS'CharacterOffsetEnd'
p8179
S'2079'
p8180
sS'Lemma'
p8181
S'Unity'
p8182
sS'PartOfSpeech'
p8183
S'NNP'
p8184
sS'CharacterOffsetBegin'
p8185
S'2074'
p8186
stp8187
a(g175
(dp8188
S'NamedEntityTag'
p8189
g69
sS'CharacterOffsetEnd'
p8190
S'2080'
p8191
sS'Lemma'
p8192
g175
sS'PartOfSpeech'
p8193
g175
sS'CharacterOffsetBegin'
p8194
S'2079'
p8195
stp8196
asa(dp8197
g7
S'(ROOT (S (ADVP (RB Then)) (, ,) (NP (CD two) (NNS spacewalkers)) (VP (MD will) (VP (VP (NP (NN hook)) (PP (IN up) (NP (NP (PDT all) (DT the) (JJ electrical) (NNS connections)) (CC and) (NP (NP (NNS cables)) (PP (IN between) (NP (DT the) (CD two) (NNS cylinders)))) (, ,)))) (CC and) (VP (VB attach) (NP (NNS handrails) (CC and) (NNS tools)) (PP (IN for) (NP (NN future) (NNS crews)))))) (. .)))'
p8198
sg9
S'Then, two spacewalkers will hook up all the electrical connections and cables between the two cylinders, and attach handrails and tools for future crews.'
p8199
sg11
(lp8200
(S'root'
p8201
S'ROOT'
p8202
S'hook'
p8203
tp8204
a(S'advmod'
p8205
S'hook'
p8206
S'Then'
p8207
tp8208
a(S'num'
p8209
S'spacewalkers'
p8210
S'two'
p8211
tp8212
a(S'nsubj'
p8213
S'hook'
p8214
S'spacewalkers'
p8215
tp8216
a(S'aux'
p8217
S'hook'
p8218
S'will'
p8219
tp8220
a(S'predet'
p8221
S'connections'
p8222
S'all'
p8223
tp8224
a(S'det'
p8225
S'connections'
p8226
S'the'
p8227
tp8228
a(S'amod'
p8229
S'connections'
p8230
S'electrical'
p8231
tp8232
a(S'prep_up'
p8233
S'hook'
p8234
S'connections'
p8235
tp8236
a(S'conj_and'
p8237
S'connections'
p8238
S'cables'
p8239
tp8240
a(S'det'
p8241
S'cylinders'
p8242
S'the'
p8243
tp8244
a(S'num'
p8245
S'cylinders'
p8246
S'two'
p8247
tp8248
a(S'prep_between'
p8249
S'cables'
p8250
S'cylinders'
p8251
tp8252
a(S'conj_and'
p8253
S'hook'
p8254
S'attach'
p8255
tp8256
a(S'dobj'
p8257
S'attach'
p8258
S'handrails'
p8259
tp8260
a(S'conj_and'
p8261
S'handrails'
p8262
S'tools'
p8263
tp8264
a(S'nn'
p8265
S'crews'
p8266
S'future'
p8267
tp8268
a(S'prep_for'
p8269
S'attach'
p8270
S'crews'
p8271
tp8272
asg41
(lp8273
(g8201
S'ROOT-0'
p8274
S'hook-6'
p8275
tp8276
a(g8205
S'hook-6'
p8277
S'Then-1'
p8278
tp8279
a(g8209
S'spacewalkers-4'
p8280
S'two-3'
p8281
tp8282
a(g8213
S'hook-6'
p8283
S'spacewalkers-4'
p8284
tp8285
a(g8217
S'hook-6'
p8286
S'will-5'
p8287
tp8288
a(g8221
S'connections-11'
p8289
S'all-8'
p8290
tp8291
a(g8225
S'connections-11'
p8292
S'the-9'
p8293
tp8294
a(g8229
S'connections-11'
p8295
S'electrical-10'
p8296
tp8297
a(g8233
S'hook-6'
p8298
S'connections-11'
p8299
tp8300
a(g8237
S'connections-11'
p8301
S'cables-13'
p8302
tp8303
a(g8241
S'cylinders-17'
p8304
S'the-15'
p8305
tp8306
a(g8245
S'cylinders-17'
p8307
S'two-16'
p8308
tp8309
a(g8249
S'cables-13'
p8310
S'cylinders-17'
p8311
tp8312
a(g8253
S'hook-6'
p8313
S'attach-20'
p8314
tp8315
a(g8257
S'attach-20'
p8316
S'handrails-21'
p8317
tp8318
a(g8261
S'handrails-21'
p8319
S'tools-23'
p8320
tp8321
a(g8265
S'crews-26'
p8322
S'future-25'
p8323
tp8324
a(g8269
S'attach-20'
p8325
S'crews-26'
p8326
tp8327
asg64
(lp8328
(S'Then'
p8329
(dp8330
S'NamedEntityTag'
p8331
g69
sS'CharacterOffsetEnd'
p8332
S'2085'
p8333
sS'Lemma'
p8334
S'then'
p8335
sS'PartOfSpeech'
p8336
S'RB'
p8337
sS'CharacterOffsetBegin'
p8338
S'2081'
p8339
stp8340
a(g1274
(dp8341
S'NamedEntityTag'
p8342
g69
sS'CharacterOffsetEnd'
p8343
S'2086'
p8344
sS'Lemma'
p8345
g1274
sS'PartOfSpeech'
p8346
g1274
sS'CharacterOffsetBegin'
p8347
S'2085'
p8348
stp8349
a(S'two'
p8350
(dp8351
S'NormalizedNamedEntityTag'
p8352
S'2.0'
p8353
sS'Lemma'
p8354
S'two'
p8355
sS'CharacterOffsetEnd'
p8356
S'2090'
p8357
sS'PartOfSpeech'
p8358
S'CD'
p8359
sS'CharacterOffsetBegin'
p8360
S'2087'
p8361
sS'NamedEntityTag'
p8362
S'NUMBER'
p8363
stp8364
a(S'spacewalkers'
p8365
(dp8366
S'NamedEntityTag'
p8367
g69
sS'CharacterOffsetEnd'
p8368
S'2103'
p8369
sS'Lemma'
p8370
S'spacewalker'
p8371
sS'PartOfSpeech'
p8372
S'NNS'
p8373
sS'CharacterOffsetBegin'
p8374
S'2091'
p8375
stp8376
a(S'will'
p8377
(dp8378
S'NamedEntityTag'
p8379
g69
sS'CharacterOffsetEnd'
p8380
S'2108'
p8381
sS'Lemma'
p8382
S'will'
p8383
sS'PartOfSpeech'
p8384
S'MD'
p8385
sS'CharacterOffsetBegin'
p8386
S'2104'
p8387
stp8388
a(S'hook'
p8389
(dp8390
S'NamedEntityTag'
p8391
g69
sS'CharacterOffsetEnd'
p8392
S'2113'
p8393
sS'Lemma'
p8394
S'hook'
p8395
sS'PartOfSpeech'
p8396
S'NN'
p8397
sS'CharacterOffsetBegin'
p8398
S'2109'
p8399
stp8400
a(S'up'
p8401
(dp8402
S'NamedEntityTag'
p8403
g69
sS'CharacterOffsetEnd'
p8404
S'2116'
p8405
sS'Lemma'
p8406
S'up'
p8407
sS'PartOfSpeech'
p8408
S'IN'
p8409
sS'CharacterOffsetBegin'
p8410
S'2114'
p8411
stp8412
a(S'all'
p8413
(dp8414
S'NamedEntityTag'
p8415
g69
sS'CharacterOffsetEnd'
p8416
S'2120'
p8417
sS'Lemma'
p8418
S'all'
p8419
sS'PartOfSpeech'
p8420
S'PDT'
p8421
sS'CharacterOffsetBegin'
p8422
S'2117'
p8423
stp8424
a(S'the'
p8425
(dp8426
S'NamedEntityTag'
p8427
g69
sS'CharacterOffsetEnd'
p8428
S'2124'
p8429
sS'Lemma'
p8430
S'the'
p8431
sS'PartOfSpeech'
p8432
S'DT'
p8433
sS'CharacterOffsetBegin'
p8434
S'2121'
p8435
stp8436
a(S'electrical'
p8437
(dp8438
S'NamedEntityTag'
p8439
g69
sS'CharacterOffsetEnd'
p8440
S'2135'
p8441
sS'Lemma'
p8442
S'electrical'
p8443
sS'PartOfSpeech'
p8444
S'JJ'
p8445
sS'CharacterOffsetBegin'
p8446
S'2125'
p8447
stp8448
a(S'connections'
p8449
(dp8450
S'NamedEntityTag'
p8451
g69
sS'CharacterOffsetEnd'
p8452
S'2147'
p8453
sS'Lemma'
p8454
S'connection'
p8455
sS'PartOfSpeech'
p8456
S'NNS'
p8457
sS'CharacterOffsetBegin'
p8458
S'2136'
p8459
stp8460
a(S'and'
p8461
(dp8462
S'NamedEntityTag'
p8463
g69
sS'CharacterOffsetEnd'
p8464
S'2151'
p8465
sS'Lemma'
p8466
S'and'
p8467
sS'PartOfSpeech'
p8468
S'CC'
p8469
sS'CharacterOffsetBegin'
p8470
S'2148'
p8471
stp8472
a(S'cables'
p8473
(dp8474
S'NamedEntityTag'
p8475
g69
sS'CharacterOffsetEnd'
p8476
S'2158'
p8477
sS'Lemma'
p8478
S'cable'
p8479
sS'PartOfSpeech'
p8480
S'NNS'
p8481
sS'CharacterOffsetBegin'
p8482
S'2152'
p8483
stp8484
a(S'between'
p8485
(dp8486
S'NamedEntityTag'
p8487
g69
sS'CharacterOffsetEnd'
p8488
S'2166'
p8489
sS'Lemma'
p8490
S'between'
p8491
sS'PartOfSpeech'
p8492
S'IN'
p8493
sS'CharacterOffsetBegin'
p8494
S'2159'
p8495
stp8496
a(S'the'
p8497
(dp8498
S'NamedEntityTag'
p8499
g69
sS'CharacterOffsetEnd'
p8500
S'2170'
p8501
sS'Lemma'
p8502
S'the'
p8503
sS'PartOfSpeech'
p8504
S'DT'
p8505
sS'CharacterOffsetBegin'
p8506
S'2167'
p8507
stp8508
a(S'two'
p8509
(dp8510
S'NormalizedNamedEntityTag'
p8511
S'2.0'
p8512
sS'Lemma'
p8513
S'two'
p8514
sS'CharacterOffsetEnd'
p8515
S'2174'
p8516
sS'PartOfSpeech'
p8517
S'CD'
p8518
sS'CharacterOffsetBegin'
p8519
S'2171'
p8520
sS'NamedEntityTag'
p8521
S'NUMBER'
p8522
stp8523
a(S'cylinders'
p8524
(dp8525
S'NamedEntityTag'
p8526
g69
sS'CharacterOffsetEnd'
p8527
S'2184'
p8528
sS'Lemma'
p8529
S'cylinder'
p8530
sS'PartOfSpeech'
p8531
S'NNS'
p8532
sS'CharacterOffsetBegin'
p8533
S'2175'
p8534
stp8535
a(g1274
(dp8536
S'NamedEntityTag'
p8537
g69
sS'CharacterOffsetEnd'
p8538
S'2185'
p8539
sS'Lemma'
p8540
g1274
sS'PartOfSpeech'
p8541
g1274
sS'CharacterOffsetBegin'
p8542
S'2184'
p8543
stp8544
a(S'and'
p8545
(dp8546
S'NamedEntityTag'
p8547
g69
sS'CharacterOffsetEnd'
p8548
S'2189'
p8549
sS'Lemma'
p8550
S'and'
p8551
sS'PartOfSpeech'
p8552
S'CC'
p8553
sS'CharacterOffsetBegin'
p8554
S'2186'
p8555
stp8556
a(S'attach'
p8557
(dp8558
S'NamedEntityTag'
p8559
g69
sS'CharacterOffsetEnd'
p8560
S'2196'
p8561
sS'Lemma'
p8562
S'attach'
p8563
sS'PartOfSpeech'
p8564
S'VB'
p8565
sS'CharacterOffsetBegin'
p8566
S'2190'
p8567
stp8568
a(S'handrails'
p8569
(dp8570
S'NamedEntityTag'
p8571
g69
sS'CharacterOffsetEnd'
p8572
S'2206'
p8573
sS'Lemma'
p8574
S'handrail'
p8575
sS'PartOfSpeech'
p8576
S'NNS'
p8577
sS'CharacterOffsetBegin'
p8578
S'2197'
p8579
stp8580
a(S'and'
p8581
(dp8582
S'NamedEntityTag'
p8583
g69
sS'CharacterOffsetEnd'
p8584
S'2210'
p8585
sS'Lemma'
p8586
S'and'
p8587
sS'PartOfSpeech'
p8588
S'CC'
p8589
sS'CharacterOffsetBegin'
p8590
S'2207'
p8591
stp8592
a(S'tools'
p8593
(dp8594
S'NamedEntityTag'
p8595
g69
sS'CharacterOffsetEnd'
p8596
S'2216'
p8597
sS'Lemma'
p8598
S'tool'
p8599
sS'PartOfSpeech'
p8600
S'NNS'
p8601
sS'CharacterOffsetBegin'
p8602
S'2211'
p8603
stp8604
a(S'for'
p8605
(dp8606
S'NamedEntityTag'
p8607
g69
sS'CharacterOffsetEnd'
p8608
S'2220'
p8609
sS'Lemma'
p8610
S'for'
p8611
sS'PartOfSpeech'
p8612
S'IN'
p8613
sS'CharacterOffsetBegin'
p8614
S'2217'
p8615
stp8616
a(S'future'
p8617
(dp8618
S'NormalizedNamedEntityTag'
p8619
S'FUTURE_REF'
p8620
sS'Timex'
p8621
S'<TIMEX3 tid="t15" type="DATE" value="FUTURE_REF">future</TIMEX3>'
p8622
sS'Lemma'
p8623
S'future'
p8624
sS'CharacterOffsetEnd'
p8625
S'2227'
p8626
sS'PartOfSpeech'
p8627
S'NN'
p8628
sS'CharacterOffsetBegin'
p8629
S'2221'
p8630
sS'NamedEntityTag'
p8631
S'DATE'
p8632
stp8633
a(S'crews'
p8634
(dp8635
S'NamedEntityTag'
p8636
g69
sS'CharacterOffsetEnd'
p8637
S'2233'
p8638
sS'Lemma'
p8639
S'crew'
p8640
sS'PartOfSpeech'
p8641
S'NNS'
p8642
sS'CharacterOffsetBegin'
p8643
S'2228'
p8644
stp8645
a(g175
(dp8646
S'NamedEntityTag'
p8647
g69
sS'CharacterOffsetEnd'
p8648
S'2234'
p8649
sS'Lemma'
p8650
g175
sS'PartOfSpeech'
p8651
g175
sS'CharacterOffsetBegin'
p8652
S'2233'
p8653
stp8654
asa(dp8655
g7
S'(ROOT (S (SBAR (IN Until) (S (NP (DT the) (NN alarm)) (VP (VBD sounded)))) (, ,) (NP (PRP it)) (VP (VBD looked) (SBAR (IN as) (IN though) (S (NP (DT the) (NN weather)) (VP (MD would) (VP (VB be) (NP (DT the) (JJ only) (NN problem))))))) (. .)))'
p8656
sg9
S'Until the alarm sounded, it looked as though the weather would be the only problem.'
p8657
sg11
(lp8658
(S'root'
p8659
S'ROOT'
p8660
S'looked'
p8661
tp8662
a(S'mark'
p8663
S'sounded'
p8664
S'Until'
p8665
tp8666
a(S'det'
p8667
S'alarm'
p8668
S'the'
p8669
tp8670
a(S'nsubj'
p8671
S'sounded'
p8672
S'alarm'
p8673
tp8674
a(S'advcl'
p8675
S'looked'
p8676
S'sounded'
p8677
tp8678
a(S'nsubj'
p8679
S'looked'
p8680
S'it'
p8681
tp8682
a(S'mark'
p8683
S'problem'
p8684
S'as'
p8685
tp8686
a(S'mark'
p8687
S'problem'
p8688
S'though'
p8689
tp8690
a(S'det'
p8691
S'weather'
p8692
S'the'
p8693
tp8694
a(S'nsubj'
p8695
S'problem'
p8696
S'weather'
p8697
tp8698
a(S'aux'
p8699
S'problem'
p8700
S'would'
p8701
tp8702
a(S'cop'
p8703
S'problem'
p8704
S'be'
p8705
tp8706
a(S'det'
p8707
S'problem'
p8708
S'the'
p8709
tp8710
a(S'amod'
p8711
S'problem'
p8712
S'only'
p8713
tp8714
a(S'advcl'
p8715
S'looked'
p8716
S'problem'
p8717
tp8718
asg41
(lp8719
(g8659
S'ROOT-0'
p8720
S'looked-7'
p8721
tp8722
a(g8663
S'sounded-4'
p8723
S'Until-1'
p8724
tp8725
a(g8667
S'alarm-3'
p8726
S'the-2'
p8727
tp8728
a(g8671
S'sounded-4'
p8729
S'alarm-3'
p8730
tp8731
a(g8675
S'looked-7'
p8732
S'sounded-4'
p8733
tp8734
a(g8679
S'looked-7'
p8735
S'it-6'
p8736
tp8737
a(g8683
S'problem-16'
p8738
S'as-8'
p8739
tp8740
a(g8687
S'problem-16'
p8741
S'though-9'
p8742
tp8743
a(g8691
S'weather-11'
p8744
S'the-10'
p8745
tp8746
a(g8695
S'problem-16'
p8747
S'weather-11'
p8748
tp8749
a(g8699
S'problem-16'
p8750
S'would-12'
p8751
tp8752
a(g8703
S'problem-16'
p8753
S'be-13'
p8754
tp8755
a(g8707
S'problem-16'
p8756
S'the-14'
p8757
tp8758
a(g8711
S'problem-16'
p8759
S'only-15'
p8760
tp8761
a(g8715
S'looked-7'
p8762
S'problem-16'
p8763
tp8764
asg64
(lp8765
(S'Until'
p8766
(dp8767
S'NamedEntityTag'
p8768
g69
sS'CharacterOffsetEnd'
p8769
S'2240'
p8770
sS'Lemma'
p8771
S'until'
p8772
sS'PartOfSpeech'
p8773
S'IN'
p8774
sS'CharacterOffsetBegin'
p8775
S'2235'
p8776
stp8777
a(S'the'
p8778
(dp8779
S'NamedEntityTag'
p8780
g69
sS'CharacterOffsetEnd'
p8781
S'2244'
p8782
sS'Lemma'
p8783
S'the'
p8784
sS'PartOfSpeech'
p8785
S'DT'
p8786
sS'CharacterOffsetBegin'
p8787
S'2241'
p8788
stp8789
a(S'alarm'
p8790
(dp8791
S'NamedEntityTag'
p8792
g69
sS'CharacterOffsetEnd'
p8793
S'2250'
p8794
sS'Lemma'
p8795
S'alarm'
p8796
sS'PartOfSpeech'
p8797
S'NN'
p8798
sS'CharacterOffsetBegin'
p8799
S'2245'
p8800
stp8801
a(S'sounded'
p8802
(dp8803
S'NamedEntityTag'
p8804
g69
sS'CharacterOffsetEnd'
p8805
S'2258'
p8806
sS'Lemma'
p8807
S'sound'
p8808
sS'PartOfSpeech'
p8809
S'VBD'
p8810
sS'CharacterOffsetBegin'
p8811
S'2251'
p8812
stp8813
a(g1274
(dp8814
S'NamedEntityTag'
p8815
g69
sS'CharacterOffsetEnd'
p8816
S'2259'
p8817
sS'Lemma'
p8818
g1274
sS'PartOfSpeech'
p8819
g1274
sS'CharacterOffsetBegin'
p8820
S'2258'
p8821
stp8822
a(S'it'
p8823
(dp8824
S'NamedEntityTag'
p8825
g69
sS'CharacterOffsetEnd'
p8826
S'2262'
p8827
sS'Lemma'
p8828
S'it'
p8829
sS'PartOfSpeech'
p8830
S'PRP'
p8831
sS'CharacterOffsetBegin'
p8832
S'2260'
p8833
stp8834
a(S'looked'
p8835
(dp8836
S'NamedEntityTag'
p8837
g69
sS'CharacterOffsetEnd'
p8838
S'2269'
p8839
sS'Lemma'
p8840
S'look'
p8841
sS'PartOfSpeech'
p8842
S'VBD'
p8843
sS'CharacterOffsetBegin'
p8844
S'2263'
p8845
stp8846
a(S'as'
p8847
(dp8848
S'NamedEntityTag'
p8849
g69
sS'CharacterOffsetEnd'
p8850
S'2272'
p8851
sS'Lemma'
p8852
S'as'
p8853
sS'PartOfSpeech'
p8854
S'IN'
p8855
sS'CharacterOffsetBegin'
p8856
S'2270'
p8857
stp8858
a(S'though'
p8859
(dp8860
S'NamedEntityTag'
p8861
g69
sS'CharacterOffsetEnd'
p8862
S'2279'
p8863
sS'Lemma'
p8864
S'though'
p8865
sS'PartOfSpeech'
p8866
S'IN'
p8867
sS'CharacterOffsetBegin'
p8868
S'2273'
p8869
stp8870
a(S'the'
p8871
(dp8872
S'NamedEntityTag'
p8873
g69
sS'CharacterOffsetEnd'
p8874
S'2283'
p8875
sS'Lemma'
p8876
S'the'
p8877
sS'PartOfSpeech'
p8878
S'DT'
p8879
sS'CharacterOffsetBegin'
p8880
S'2280'
p8881
stp8882
a(S'weather'
p8883
(dp8884
S'NamedEntityTag'
p8885
g69
sS'CharacterOffsetEnd'
p8886
S'2291'
p8887
sS'Lemma'
p8888
S'weather'
p8889
sS'PartOfSpeech'
p8890
S'NN'
p8891
sS'CharacterOffsetBegin'
p8892
S'2284'
p8893
stp8894
a(S'would'
p8895
(dp8896
S'NamedEntityTag'
p8897
g69
sS'CharacterOffsetEnd'
p8898
S'2297'
p8899
sS'Lemma'
p8900
S'would'
p8901
sS'PartOfSpeech'
p8902
S'MD'
p8903
sS'CharacterOffsetBegin'
p8904
S'2292'
p8905
stp8906
a(S'be'
p8907
(dp8908
S'NamedEntityTag'
p8909
g69
sS'CharacterOffsetEnd'
p8910
S'2300'
p8911
sS'Lemma'
p8912
S'be'
p8913
sS'PartOfSpeech'
p8914
S'VB'
p8915
sS'CharacterOffsetBegin'
p8916
S'2298'
p8917
stp8918
a(S'the'
p8919
(dp8920
S'NamedEntityTag'
p8921
g69
sS'CharacterOffsetEnd'
p8922
S'2304'
p8923
sS'Lemma'
p8924
S'the'
p8925
sS'PartOfSpeech'
p8926
S'DT'
p8927
sS'CharacterOffsetBegin'
p8928
S'2301'
p8929
stp8930
a(S'only'
p8931
(dp8932
S'NamedEntityTag'
p8933
g69
sS'CharacterOffsetEnd'
p8934
S'2309'
p8935
sS'Lemma'
p8936
S'only'
p8937
sS'PartOfSpeech'
p8938
S'JJ'
p8939
sS'CharacterOffsetBegin'
p8940
S'2305'
p8941
stp8942
a(S'problem'
p8943
(dp8944
S'NamedEntityTag'
p8945
g69
sS'CharacterOffsetEnd'
p8946
S'2317'
p8947
sS'Lemma'
p8948
S'problem'
p8949
sS'PartOfSpeech'
p8950
S'NN'
p8951
sS'CharacterOffsetBegin'
p8952
S'2310'
p8953
stp8954
a(g175
(dp8955
S'NamedEntityTag'
p8956
g69
sS'CharacterOffsetEnd'
p8957
S'2318'
p8958
sS'Lemma'
p8959
g175
sS'PartOfSpeech'
p8960
g175
sS'CharacterOffsetBegin'
p8961
S'2317'
p8962
stp8963
asa(dp8964
g7
S'(ROOT (S (NP (NN Rain) (CC and) (NNS clouds)) (VP (VP (VBD moved) (PP (PP (IN in) (PP (IN from) (NP (DT the) (NNP Atlantic) (CD 1)))) (-LRB- -LCB-) (PP (NP (NNS hours)) (IN before) (NP (NN liftoff))) (, ,))) (CC but) (VP (VBD drifted) (PRT (RP away)) (PP (IN with) (NP (NNS minutes))) (S (VP (TO to) (VP (VB spare)))))) (. .)))'
p8965
sg9
S'Rain and clouds moved in from the Atlantic 1{ hours before liftoff, but drifted away with minutes to spare.'
p8966
sg11
(lp8967
(S'root'
p8968
S'ROOT'
p8969
S'moved'
p8970
tp8971
a(S'nsubj'
p8972
S'moved'
p8973
S'Rain'
p8974
tp8975
a(S'conj_and'
p8976
S'Rain'
p8977
S'clouds'
p8978
tp8979
a(S'prep'
p8980
S'moved'
p8981
S'in'
p8982
tp8983
a(S'pcomp'
p8984
S'in'
p8985
S'from'
p8986
tp8987
a(S'det'
p8988
S'Atlantic'
p8989
S'the'
p8990
tp8991
a(S'pobj'
p8992
S'from'
p8993
S'Atlantic'
p8994
tp8995
a(S'num'
p8996
S'Atlantic'
p8997
g77
tp8998
a(S'npadvmod'
p8999
S'in'
p9000
S'hours'
p9001
tp9002
a(S'prep_before'
p9003
S'in'
p9004
S'liftoff'
p9005
tp9006
a(S'conj_but'
p9007
S'moved'
p9008
S'drifted'
p9009
tp9010
a(S'prt'
p9011
S'drifted'
p9012
S'away'
p9013
tp9014
a(S'prep_with'
p9015
S'drifted'
p9016
S'minutes'
p9017
tp9018
a(S'aux'
p9019
S'spare'
p9020
S'to'
p9021
tp9022
a(S'xcomp'
p9023
S'drifted'
p9024
S'spare'
p9025
tp9026
asg41
(lp9027
(g8968
S'ROOT-0'
p9028
S'moved-4'
p9029
tp9030
a(g8972
S'moved-4'
p9031
S'Rain-1'
p9032
tp9033
a(g8976
S'Rain-1'
p9034
S'clouds-3'
p9035
tp9036
a(g8980
S'moved-4'
p9037
S'in-5'
p9038
tp9039
a(g8984
S'in-5'
p9040
S'from-6'
p9041
tp9042
a(g8988
S'Atlantic-8'
p9043
S'the-7'
p9044
tp9045
a(g8992
S'from-6'
p9046
S'Atlantic-8'
p9047
tp9048
a(g8996
S'Atlantic-8'
p9049
S'1-9'
p9050
tp9051
a(g8999
S'in-5'
p9052
S'hours-11'
p9053
tp9054
a(g9003
S'in-5'
p9055
S'liftoff-13'
p9056
tp9057
a(g9007
S'moved-4'
p9058
S'drifted-16'
p9059
tp9060
a(g9011
S'drifted-16'
p9061
S'away-17'
p9062
tp9063
a(g9015
S'drifted-16'
p9064
S'minutes-19'
p9065
tp9066
a(g9019
S'spare-21'
p9067
S'to-20'
p9068
tp9069
a(g9023
S'drifted-16'
p9070
S'spare-21'
p9071
tp9072
asg64
(lp9073
(S'Rain'
p9074
(dp9075
S'NamedEntityTag'
p9076
g69
sS'CharacterOffsetEnd'
p9077
S'2323'
p9078
sS'Lemma'
p9079
S'rain'
p9080
sS'PartOfSpeech'
p9081
S'NN'
p9082
sS'CharacterOffsetBegin'
p9083
S'2319'
p9084
stp9085
a(S'and'
p9086
(dp9087
S'NamedEntityTag'
p9088
g69
sS'CharacterOffsetEnd'
p9089
S'2327'
p9090
sS'Lemma'
p9091
S'and'
p9092
sS'PartOfSpeech'
p9093
S'CC'
p9094
sS'CharacterOffsetBegin'
p9095
S'2324'
p9096
stp9097
a(S'clouds'
p9098
(dp9099
S'NamedEntityTag'
p9100
g69
sS'CharacterOffsetEnd'
p9101
S'2334'
p9102
sS'Lemma'
p9103
S'cloud'
p9104
sS'PartOfSpeech'
p9105
S'NNS'
p9106
sS'CharacterOffsetBegin'
p9107
S'2328'
p9108
stp9109
a(S'moved'
p9110
(dp9111
S'NamedEntityTag'
p9112
g69
sS'CharacterOffsetEnd'
p9113
S'2340'
p9114
sS'Lemma'
p9115
S'move'
p9116
sS'PartOfSpeech'
p9117
S'VBD'
p9118
sS'CharacterOffsetBegin'
p9119
S'2335'
p9120
stp9121
a(S'in'
p9122
(dp9123
S'NamedEntityTag'
p9124
g69
sS'CharacterOffsetEnd'
p9125
S'2343'
p9126
sS'Lemma'
p9127
S'in'
p9128
sS'PartOfSpeech'
p9129
S'IN'
p9130
sS'CharacterOffsetBegin'
p9131
S'2341'
p9132
stp9133
a(S'from'
p9134
(dp9135
S'NamedEntityTag'
p9136
g69
sS'CharacterOffsetEnd'
p9137
S'2348'
p9138
sS'Lemma'
p9139
S'from'
p9140
sS'PartOfSpeech'
p9141
S'IN'
p9142
sS'CharacterOffsetBegin'
p9143
S'2344'
p9144
stp9145
a(S'the'
p9146
(dp9147
S'NamedEntityTag'
p9148
g69
sS'CharacterOffsetEnd'
p9149
S'2352'
p9150
sS'Lemma'
p9151
S'the'
p9152
sS'PartOfSpeech'
p9153
S'DT'
p9154
sS'CharacterOffsetBegin'
p9155
S'2349'
p9156
stp9157
a(S'Atlantic'
p9158
(dp9159
S'NamedEntityTag'
p9160
S'LOCATION'
p9161
sS'CharacterOffsetEnd'
p9162
S'2361'
p9163
sS'Lemma'
p9164
S'Atlantic'
p9165
sS'PartOfSpeech'
p9166
S'NNP'
p9167
sS'CharacterOffsetBegin'
p9168
S'2353'
p9169
stp9170
a(g77
(dp9171
S'NormalizedNamedEntityTag'
p9172
S'1.0'
p9173
sS'Lemma'
p9174
g77
sS'CharacterOffsetEnd'
p9175
S'2363'
p9176
sS'PartOfSpeech'
p9177
S'CD'
p9178
sS'CharacterOffsetBegin'
p9179
S'2362'
p9180
sS'NamedEntityTag'
p9181
S'NUMBER'
p9182
stp9183
a(S'-LCB-'
p9184
(dp9185
S'NamedEntityTag'
p9186
g69
sS'CharacterOffsetEnd'
p9187
S'2364'
p9188
sS'Lemma'
p9189
S'-lcb-'
p9190
sS'PartOfSpeech'
p9191
S'-LRB-'
p9192
sS'CharacterOffsetBegin'
p9193
S'2363'
p9194
stp9195
a(S'hours'
p9196
(dp9197
S'NormalizedNamedEntityTag'
p9198
S'PTXH'
p9199
sS'Timex'
p9200
S'<TIMEX3 tid="t16" type="DURATION" value="PTXH">hours</TIMEX3>'
p9201
sS'Lemma'
p9202
S'hour'
p9203
sS'CharacterOffsetEnd'
p9204
S'2370'
p9205
sS'PartOfSpeech'
p9206
S'NNS'
p9207
sS'CharacterOffsetBegin'
p9208
S'2365'
p9209
sS'NamedEntityTag'
p9210
S'DURATION'
p9211
stp9212
a(S'before'
p9213
(dp9214
S'NamedEntityTag'
p9215
g69
sS'CharacterOffsetEnd'
p9216
S'2377'
p9217
sS'Lemma'
p9218
S'before'
p9219
sS'PartOfSpeech'
p9220
S'IN'
p9221
sS'CharacterOffsetBegin'
p9222
S'2371'
p9223
stp9224
a(S'liftoff'
p9225
(dp9226
S'NamedEntityTag'
p9227
g69
sS'CharacterOffsetEnd'
p9228
S'2385'
p9229
sS'Lemma'
p9230
S'liftoff'
p9231
sS'PartOfSpeech'
p9232
S'NN'
p9233
sS'CharacterOffsetBegin'
p9234
S'2378'
p9235
stp9236
a(g1274
(dp9237
S'NamedEntityTag'
p9238
g69
sS'CharacterOffsetEnd'
p9239
S'2386'
p9240
sS'Lemma'
p9241
g1274
sS'PartOfSpeech'
p9242
g1274
sS'CharacterOffsetBegin'
p9243
S'2385'
p9244
stp9245
a(S'but'
p9246
(dp9247
S'NamedEntityTag'
p9248
g69
sS'CharacterOffsetEnd'
p9249
S'2390'
p9250
sS'Lemma'
p9251
S'but'
p9252
sS'PartOfSpeech'
p9253
S'CC'
p9254
sS'CharacterOffsetBegin'
p9255
S'2387'
p9256
stp9257
a(S'drifted'
p9258
(dp9259
S'NamedEntityTag'
p9260
g69
sS'CharacterOffsetEnd'
p9261
S'2398'
p9262
sS'Lemma'
p9263
S'drift'
p9264
sS'PartOfSpeech'
p9265
S'VBD'
p9266
sS'CharacterOffsetBegin'
p9267
S'2391'
p9268
stp9269
a(S'away'
p9270
(dp9271
S'NamedEntityTag'
p9272
g69
sS'CharacterOffsetEnd'
p9273
S'2403'
p9274
sS'Lemma'
p9275
S'away'
p9276
sS'PartOfSpeech'
p9277
S'RP'
p9278
sS'CharacterOffsetBegin'
p9279
S'2399'
p9280
stp9281
a(S'with'
p9282
(dp9283
S'NamedEntityTag'
p9284
g69
sS'CharacterOffsetEnd'
p9285
S'2408'
p9286
sS'Lemma'
p9287
S'with'
p9288
sS'PartOfSpeech'
p9289
S'IN'
p9290
sS'CharacterOffsetBegin'
p9291
S'2404'
p9292
stp9293
a(S'minutes'
p9294
(dp9295
S'NormalizedNamedEntityTag'
p9296
S'PTXM'
p9297
sS'Timex'
p9298
S'<TIMEX3 tid="t17" type="DURATION" value="PTXM">minutes</TIMEX3>'
p9299
sS'Lemma'
p9300
S'minute'
p9301
sS'CharacterOffsetEnd'
p9302
S'2416'
p9303
sS'PartOfSpeech'
p9304
S'NNS'
p9305
sS'CharacterOffsetBegin'
p9306
S'2409'
p9307
sS'NamedEntityTag'
p9308
S'DURATION'
p9309
stp9310
a(S'to'
p9311
(dp9312
S'NamedEntityTag'
p9313
g69
sS'CharacterOffsetEnd'
p9314
S'2419'
p9315
sS'Lemma'
p9316
S'to'
p9317
sS'PartOfSpeech'
p9318
S'TO'
p9319
sS'CharacterOffsetBegin'
p9320
S'2417'
p9321
stp9322
a(S'spare'
p9323
(dp9324
S'NamedEntityTag'
p9325
g69
sS'CharacterOffsetEnd'
p9326
S'2425'
p9327
sS'Lemma'
p9328
S'spare'
p9329
sS'PartOfSpeech'
p9330
S'VB'
p9331
sS'CharacterOffsetBegin'
p9332
S'2420'
p9333
stp9334
a(g175
(dp9335
S'NamedEntityTag'
p9336
g69
sS'CharacterOffsetEnd'
p9337
S'2426'
p9338
sS'Lemma'
p9339
g175
sS'PartOfSpeech'
p9340
g175
sS'CharacterOffsetBegin'
p9341
S'2425'
p9342
stp9343
asa(dp9344
g7
S'(ROOT (S (NP (NP (NNP Secretary)) (PP (IN of) (NP (NP (NNP State) (NNP Madeleine) (NNP Albright)) (CC and) (NP (NP (JJ other) (NNS dignitaries)) (PP (IN from) (PP (IN around) (NP (DT the) (NN world)))))))) (VP (VBD had) (VP (VBN gathered) (PP (IN in) (NP (DT the) (NN drizzle))) (S (VP (TO to) (VP (VB see) (NP (NP (NNP Endeavour)) (CC and) (NP (PRP$ its) (NN crew))) (PRT (RP off))))))) (. .)))'
p9345
sg9
S'Secretary of State Madeleine Albright and other dignitaries from around the world had gathered in the drizzle to see Endeavour and its crew off.'
p9346
sg11
(lp9347
(S'root'
p9348
S'ROOT'
p9349
S'gathered'
p9350
tp9351
a(S'nsubj'
p9352
S'gathered'
p9353
S'Secretary'
p9354
tp9355
a(S'nn'
p9356
S'Albright'
p9357
S'State'
p9358
tp9359
a(S'nn'
p9360
S'Albright'
p9361
S'Madeleine'
p9362
tp9363
a(S'prep_of'
p9364
S'Secretary'
p9365
S'Albright'
p9366
tp9367
a(S'amod'
p9368
S'dignitaries'
p9369
S'other'
p9370
tp9371
a(S'conj_and'
p9372
S'Albright'
p9373
S'dignitaries'
p9374
tp9375
a(S'prep'
p9376
S'dignitaries'
p9377
S'from'
p9378
tp9379
a(S'pcomp'
p9380
S'from'
p9381
S'around'
p9382
tp9383
a(S'det'
p9384
S'world'
p9385
S'the'
p9386
tp9387
a(S'pobj'
p9388
S'around'
p9389
S'world'
p9390
tp9391
a(S'aux'
p9392
S'gathered'
p9393
S'had'
p9394
tp9395
a(S'det'
p9396
S'drizzle'
p9397
S'the'
p9398
tp9399
a(S'prep_in'
p9400
S'gathered'
p9401
S'drizzle'
p9402
tp9403
a(S'aux'
p9404
S'see'
p9405
S'to'
p9406
tp9407
a(S'xcomp'
p9408
S'gathered'
p9409
S'see'
p9410
tp9411
a(S'dobj'
p9412
S'see'
p9413
S'Endeavour'
p9414
tp9415
a(S'poss'
p9416
S'crew'
p9417
S'its'
p9418
tp9419
a(S'conj_and'
p9420
S'Endeavour'
p9421
S'crew'
p9422
tp9423
a(S'prt'
p9424
S'see'
p9425
S'off'
p9426
tp9427
asg41
(lp9428
(g9348
S'ROOT-0'
p9429
S'gathered-14'
p9430
tp9431
a(g9352
S'gathered-14'
p9432
S'Secretary-1'
p9433
tp9434
a(g9356
S'Albright-5'
p9435
S'State-3'
p9436
tp9437
a(g9360
S'Albright-5'
p9438
S'Madeleine-4'
p9439
tp9440
a(g9364
S'Secretary-1'
p9441
S'Albright-5'
p9442
tp9443
a(g9368
S'dignitaries-8'
p9444
S'other-7'
p9445
tp9446
a(g9372
S'Albright-5'
p9447
S'dignitaries-8'
p9448
tp9449
a(g9376
S'dignitaries-8'
p9450
S'from-9'
p9451
tp9452
a(g9380
S'from-9'
p9453
S'around-10'
p9454
tp9455
a(g9384
S'world-12'
p9456
S'the-11'
p9457
tp9458
a(g9388
S'around-10'
p9459
S'world-12'
p9460
tp9461
a(g9392
S'gathered-14'
p9462
S'had-13'
p9463
tp9464
a(g9396
S'drizzle-17'
p9465
S'the-16'
p9466
tp9467
a(g9400
S'gathered-14'
p9468
S'drizzle-17'
p9469
tp9470
a(g9404
S'see-19'
p9471
S'to-18'
p9472
tp9473
a(g9408
S'gathered-14'
p9474
S'see-19'
p9475
tp9476
a(g9412
S'see-19'
p9477
S'Endeavour-20'
p9478
tp9479
a(g9416
S'crew-23'
p9480
S'its-22'
p9481
tp9482
a(g9420
S'Endeavour-20'
p9483
S'crew-23'
p9484
tp9485
a(g9424
S'see-19'
p9486
S'off-24'
p9487
tp9488
asg64
(lp9489
(S'Secretary'
p9490
(dp9491
S'NamedEntityTag'
p9492
g69
sS'CharacterOffsetEnd'
p9493
S'2436'
p9494
sS'Lemma'
p9495
S'Secretary'
p9496
sS'PartOfSpeech'
p9497
S'NNP'
p9498
sS'CharacterOffsetBegin'
p9499
S'2427'
p9500
stp9501
a(S'of'
p9502
(dp9503
S'NamedEntityTag'
p9504
g69
sS'CharacterOffsetEnd'
p9505
S'2439'
p9506
sS'Lemma'
p9507
S'of'
p9508
sS'PartOfSpeech'
p9509
S'IN'
p9510
sS'CharacterOffsetBegin'
p9511
S'2437'
p9512
stp9513
a(S'State'
p9514
(dp9515
S'NamedEntityTag'
p9516
g69
sS'CharacterOffsetEnd'
p9517
S'2445'
p9518
sS'Lemma'
p9519
S'State'
p9520
sS'PartOfSpeech'
p9521
S'NNP'
p9522
sS'CharacterOffsetBegin'
p9523
S'2440'
p9524
stp9525
a(S'Madeleine'
p9526
(dp9527
S'NamedEntityTag'
p9528
S'PERSON'
p9529
sS'CharacterOffsetEnd'
p9530
S'2455'
p9531
sS'Lemma'
p9532
S'Madeleine'
p9533
sS'PartOfSpeech'
p9534
S'NNP'
p9535
sS'CharacterOffsetBegin'
p9536
S'2446'
p9537
stp9538
a(S'Albright'
p9539
(dp9540
S'NamedEntityTag'
p9541
S'PERSON'
p9542
sS'CharacterOffsetEnd'
p9543
S'2464'
p9544
sS'Lemma'
p9545
S'Albright'
p9546
sS'PartOfSpeech'
p9547
S'NNP'
p9548
sS'CharacterOffsetBegin'
p9549
S'2456'
p9550
stp9551
a(S'and'
p9552
(dp9553
S'NamedEntityTag'
p9554
g69
sS'CharacterOffsetEnd'
p9555
S'2468'
p9556
sS'Lemma'
p9557
S'and'
p9558
sS'PartOfSpeech'
p9559
S'CC'
p9560
sS'CharacterOffsetBegin'
p9561
S'2465'
p9562
stp9563
a(S'other'
p9564
(dp9565
S'NamedEntityTag'
p9566
g69
sS'CharacterOffsetEnd'
p9567
S'2474'
p9568
sS'Lemma'
p9569
S'other'
p9570
sS'PartOfSpeech'
p9571
S'JJ'
p9572
sS'CharacterOffsetBegin'
p9573
S'2469'
p9574
stp9575
a(S'dignitaries'
p9576
(dp9577
S'NamedEntityTag'
p9578
g69
sS'CharacterOffsetEnd'
p9579
S'2486'
p9580
sS'Lemma'
p9581
S'dignitary'
p9582
sS'PartOfSpeech'
p9583
S'NNS'
p9584
sS'CharacterOffsetBegin'
p9585
S'2475'
p9586
stp9587
a(S'from'
p9588
(dp9589
S'NamedEntityTag'
p9590
g69
sS'CharacterOffsetEnd'
p9591
S'2491'
p9592
sS'Lemma'
p9593
S'from'
p9594
sS'PartOfSpeech'
p9595
S'IN'
p9596
sS'CharacterOffsetBegin'
p9597
S'2487'
p9598
stp9599
a(S'around'
p9600
(dp9601
S'NamedEntityTag'
p9602
g69
sS'CharacterOffsetEnd'
p9603
S'2498'
p9604
sS'Lemma'
p9605
S'around'
p9606
sS'PartOfSpeech'
p9607
S'IN'
p9608
sS'CharacterOffsetBegin'
p9609
S'2492'
p9610
stp9611
a(S'the'
p9612
(dp9613
S'NamedEntityTag'
p9614
g69
sS'CharacterOffsetEnd'
p9615
S'2502'
p9616
sS'Lemma'
p9617
S'the'
p9618
sS'PartOfSpeech'
p9619
S'DT'
p9620
sS'CharacterOffsetBegin'
p9621
S'2499'
p9622
stp9623
a(S'world'
p9624
(dp9625
S'NamedEntityTag'
p9626
g69
sS'CharacterOffsetEnd'
p9627
S'2508'
p9628
sS'Lemma'
p9629
S'world'
p9630
sS'PartOfSpeech'
p9631
S'NN'
p9632
sS'CharacterOffsetBegin'
p9633
S'2503'
p9634
stp9635
a(S'had'
p9636
(dp9637
S'NamedEntityTag'
p9638
g69
sS'CharacterOffsetEnd'
p9639
S'2512'
p9640
sS'Lemma'
p9641
S'have'
p9642
sS'PartOfSpeech'
p9643
S'VBD'
p9644
sS'CharacterOffsetBegin'
p9645
S'2509'
p9646
stp9647
a(S'gathered'
p9648
(dp9649
S'NamedEntityTag'
p9650
g69
sS'CharacterOffsetEnd'
p9651
S'2521'
p9652
sS'Lemma'
p9653
S'gather'
p9654
sS'PartOfSpeech'
p9655
S'VBN'
p9656
sS'CharacterOffsetBegin'
p9657
S'2513'
p9658
stp9659
a(S'in'
p9660
(dp9661
S'NamedEntityTag'
p9662
g69
sS'CharacterOffsetEnd'
p9663
S'2524'
p9664
sS'Lemma'
p9665
S'in'
p9666
sS'PartOfSpeech'
p9667
S'IN'
p9668
sS'CharacterOffsetBegin'
p9669
S'2522'
p9670
stp9671
a(S'the'
p9672
(dp9673
S'NamedEntityTag'
p9674
g69
sS'CharacterOffsetEnd'
p9675
S'2528'
p9676
sS'Lemma'
p9677
S'the'
p9678
sS'PartOfSpeech'
p9679
S'DT'
p9680
sS'CharacterOffsetBegin'
p9681
S'2525'
p9682
stp9683
a(S'drizzle'
p9684
(dp9685
S'NamedEntityTag'
p9686
g69
sS'CharacterOffsetEnd'
p9687
S'2536'
p9688
sS'Lemma'
p9689
S'drizzle'
p9690
sS'PartOfSpeech'
p9691
S'NN'
p9692
sS'CharacterOffsetBegin'
p9693
S'2529'
p9694
stp9695
a(S'to'
p9696
(dp9697
S'NamedEntityTag'
p9698
g69
sS'CharacterOffsetEnd'
p9699
S'2539'
p9700
sS'Lemma'
p9701
S'to'
p9702
sS'PartOfSpeech'
p9703
S'TO'
p9704
sS'CharacterOffsetBegin'
p9705
S'2537'
p9706
stp9707
a(S'see'
p9708
(dp9709
S'NamedEntityTag'
p9710
g69
sS'CharacterOffsetEnd'
p9711
S'2543'
p9712
sS'Lemma'
p9713
S'see'
p9714
sS'PartOfSpeech'
p9715
S'VB'
p9716
sS'CharacterOffsetBegin'
p9717
S'2540'
p9718
stp9719
a(S'Endeavour'
p9720
(dp9721
S'NamedEntityTag'
p9722
S'MISC'
p9723
sS'CharacterOffsetEnd'
p9724
S'2553'
p9725
sS'Lemma'
p9726
S'Endeavour'
p9727
sS'PartOfSpeech'
p9728
S'NNP'
p9729
sS'CharacterOffsetBegin'
p9730
S'2544'
p9731
stp9732
a(S'and'
p9733
(dp9734
S'NamedEntityTag'
p9735
g69
sS'CharacterOffsetEnd'
p9736
S'2557'
p9737
sS'Lemma'
p9738
S'and'
p9739
sS'PartOfSpeech'
p9740
S'CC'
p9741
sS'CharacterOffsetBegin'
p9742
S'2554'
p9743
stp9744
a(S'its'
p9745
(dp9746
S'NamedEntityTag'
p9747
g69
sS'CharacterOffsetEnd'
p9748
S'2561'
p9749
sS'Lemma'
p9750
S'its'
p9751
sS'PartOfSpeech'
p9752
S'PRP$'
p9753
sS'CharacterOffsetBegin'
p9754
S'2558'
p9755
stp9756
a(S'crew'
p9757
(dp9758
S'NamedEntityTag'
p9759
g69
sS'CharacterOffsetEnd'
p9760
S'2566'
p9761
sS'Lemma'
p9762
S'crew'
p9763
sS'PartOfSpeech'
p9764
S'NN'
p9765
sS'CharacterOffsetBegin'
p9766
S'2562'
p9767
stp9768
a(S'off'
p9769
(dp9770
S'NamedEntityTag'
p9771
g69
sS'CharacterOffsetEnd'
p9772
S'2570'
p9773
sS'Lemma'
p9774
S'off'
p9775
sS'PartOfSpeech'
p9776
S'RP'
p9777
sS'CharacterOffsetBegin'
p9778
S'2567'
p9779
stp9780
a(g175
(dp9781
S'NamedEntityTag'
p9782
g69
sS'CharacterOffsetEnd'
p9783
S'2571'
p9784
sS'Lemma'
p9785
g175
sS'PartOfSpeech'
p9786
g175
sS'CharacterOffsetBegin'
p9787
S'2570'
p9788
stp9789
asa(dp9790
g7
S'(ROOT (SINV (S (ADVP (RB Here)) (NP (PRP we)) (VP (VBP have) (NP (NP (CD 16) (NNS countries)) (VP (VBG cooperating) (PP (IN on) (NP (DT a) (NN venture))) (PP (TO to) (NP (DT the) (NN future))))))) (, ,) (VP (VBD said)) (NP (NP (NNP Albright)) (, ,) (SBAR (WHNP (WP who)) (S (VP (VBD was) (VP (VBN expected) (ADVP (RB back)) (PP (IN for) (NP (NNP Fridays) (NN attempt)))))))) (. .)))'
p9791
sg9
S'Here we have 16 countries cooperating on a venture to the future, said Albright, who was expected back for Fridays attempt.'
p9792
sg11
(lp9793
(S'root'
p9794
S'ROOT'
p9795
S'said'
p9796
tp9797
a(S'advmod'
p9798
S'have'
p9799
S'Here'
p9800
tp9801
a(S'nsubj'
p9802
S'have'
p9803
S'we'
p9804
tp9805
a(S'ccomp'
p9806
S'said'
p9807
S'have'
p9808
tp9809
a(S'num'
p9810
S'countries'
p9811
S'16'
p9812
tp9813
a(S'dobj'
p9814
S'have'
p9815
S'countries'
p9816
tp9817
a(S'partmod'
p9818
S'countries'
p9819
S'cooperating'
p9820
tp9821
a(S'det'
p9822
S'venture'
p9823
g1048
tp9824
a(S'prep_on'
p9825
S'cooperating'
p9826
S'venture'
p9827
tp9828
a(S'det'
p9829
S'future'
p9830
S'the'
p9831
tp9832
a(S'prep_to'
p9833
S'cooperating'
p9834
S'future'
p9835
tp9836
a(S'nsubj'
p9837
S'said'
p9838
S'Albright'
p9839
tp9840
a(S'nsubjpass'
p9841
S'expected'
p9842
S'who'
p9843
tp9844
a(S'auxpass'
p9845
S'expected'
p9846
S'was'
p9847
tp9848
a(S'rcmod'
p9849
S'Albright'
p9850
S'expected'
p9851
tp9852
a(S'advmod'
p9853
S'expected'
p9854
S'back'
p9855
tp9856
a(S'nn'
p9857
S'attempt'
p9858
S'Fridays'
p9859
tp9860
a(S'prep_for'
p9861
S'expected'
p9862
S'attempt'
p9863
tp9864
asg41
(lp9865
(g9794
S'ROOT-0'
p9866
S'said-14'
p9867
tp9868
a(g9798
S'have-3'
p9869
S'Here-1'
p9870
tp9871
a(g9802
S'have-3'
p9872
S'we-2'
p9873
tp9874
a(g9806
S'said-14'
p9875
S'have-3'
p9876
tp9877
a(g9810
S'countries-5'
p9878
S'16-4'
p9879
tp9880
a(g9814
S'have-3'
p9881
S'countries-5'
p9882
tp9883
a(g9818
S'countries-5'
p9884
S'cooperating-6'
p9885
tp9886
a(g9822
S'venture-9'
p9887
S'a-8'
p9888
tp9889
a(g9825
S'cooperating-6'
p9890
S'venture-9'
p9891
tp9892
a(g9829
S'future-12'
p9893
S'the-11'
p9894
tp9895
a(g9833
S'cooperating-6'
p9896
S'future-12'
p9897
tp9898
a(g9837
S'said-14'
p9899
S'Albright-15'
p9900
tp9901
a(g9841
S'expected-19'
p9902
S'who-17'
p9903
tp9904
a(g9845
S'expected-19'
p9905
S'was-18'
p9906
tp9907
a(g9849
S'Albright-15'
p9908
S'expected-19'
p9909
tp9910
a(g9853
S'expected-19'
p9911
S'back-20'
p9912
tp9913
a(g9857
S'attempt-23'
p9914
S'Fridays-22'
p9915
tp9916
a(g9861
S'expected-19'
p9917
S'attempt-23'
p9918
tp9919
asg64
(lp9920
(S'Here'
p9921
(dp9922
S'NamedEntityTag'
p9923
g69
sS'CharacterOffsetEnd'
p9924
S'2576'
p9925
sS'Lemma'
p9926
S'here'
p9927
sS'PartOfSpeech'
p9928
S'RB'
p9929
sS'CharacterOffsetBegin'
p9930
S'2572'
p9931
stp9932
a(S'we'
p9933
(dp9934
S'NamedEntityTag'
p9935
g69
sS'CharacterOffsetEnd'
p9936
S'2579'
p9937
sS'Lemma'
p9938
S'we'
p9939
sS'PartOfSpeech'
p9940
S'PRP'
p9941
sS'CharacterOffsetBegin'
p9942
S'2577'
p9943
stp9944
a(S'have'
p9945
(dp9946
S'NamedEntityTag'
p9947
g69
sS'CharacterOffsetEnd'
p9948
S'2584'
p9949
sS'Lemma'
p9950
S'have'
p9951
sS'PartOfSpeech'
p9952
S'VBP'
p9953
sS'CharacterOffsetBegin'
p9954
S'2580'
p9955
stp9956
a(S'16'
p9957
(dp9958
S'NormalizedNamedEntityTag'
p9959
S'16.0'
p9960
sS'Lemma'
p9961
S'16'
p9962
sS'CharacterOffsetEnd'
p9963
S'2587'
p9964
sS'PartOfSpeech'
p9965
S'CD'
p9966
sS'CharacterOffsetBegin'
p9967
S'2585'
p9968
sS'NamedEntityTag'
p9969
S'NUMBER'
p9970
stp9971
a(S'countries'
p9972
(dp9973
S'NamedEntityTag'
p9974
g69
sS'CharacterOffsetEnd'
p9975
S'2597'
p9976
sS'Lemma'
p9977
S'country'
p9978
sS'PartOfSpeech'
p9979
S'NNS'
p9980
sS'CharacterOffsetBegin'
p9981
S'2588'
p9982
stp9983
a(S'cooperating'
p9984
(dp9985
S'NamedEntityTag'
p9986
g69
sS'CharacterOffsetEnd'
p9987
S'2609'
p9988
sS'Lemma'
p9989
S'cooperate'
p9990
sS'PartOfSpeech'
p9991
S'VBG'
p9992
sS'CharacterOffsetBegin'
p9993
S'2598'
p9994
stp9995
a(S'on'
p9996
(dp9997
S'NamedEntityTag'
p9998
g69
sS'CharacterOffsetEnd'
p9999
S'2612'
p10000
sS'Lemma'
p10001
S'on'
p10002
sS'PartOfSpeech'
p10003
S'IN'
p10004
sS'CharacterOffsetBegin'
p10005
S'2610'
p10006
stp10007
a(g1048
(dp10008
S'NamedEntityTag'
p10009
g69
sS'CharacterOffsetEnd'
p10010
S'2614'
p10011
sS'Lemma'
p10012
g1048
sS'PartOfSpeech'
p10013
S'DT'
p10014
sS'CharacterOffsetBegin'
p10015
S'2613'
p10016
stp10017
a(S'venture'
p10018
(dp10019
S'NamedEntityTag'
p10020
g69
sS'CharacterOffsetEnd'
p10021
S'2622'
p10022
sS'Lemma'
p10023
S'venture'
p10024
sS'PartOfSpeech'
p10025
S'NN'
p10026
sS'CharacterOffsetBegin'
p10027
S'2615'
p10028
stp10029
a(S'to'
p10030
(dp10031
S'NamedEntityTag'
p10032
g69
sS'CharacterOffsetEnd'
p10033
S'2625'
p10034
sS'Lemma'
p10035
S'to'
p10036
sS'PartOfSpeech'
p10037
S'TO'
p10038
sS'CharacterOffsetBegin'
p10039
S'2623'
p10040
stp10041
a(S'the'
p10042
(dp10043
S'NormalizedNamedEntityTag'
p10044
S'FUTURE_REF'
p10045
sS'Timex'
p10046
S'<TIMEX3 tid="t18" type="DATE" value="FUTURE_REF">the future</TIMEX3>'
p10047
sS'Lemma'
p10048
S'the'
p10049
sS'CharacterOffsetEnd'
p10050
S'2629'
p10051
sS'PartOfSpeech'
p10052
S'DT'
p10053
sS'CharacterOffsetBegin'
p10054
S'2626'
p10055
sS'NamedEntityTag'
p10056
S'DATE'
p10057
stp10058
a(S'future'
p10059
(dp10060
S'NormalizedNamedEntityTag'
p10061
S'FUTURE_REF'
p10062
sS'Timex'
p10063
S'<TIMEX3 tid="t18" type="DATE" value="FUTURE_REF">the future</TIMEX3>'
p10064
sS'Lemma'
p10065
S'future'
p10066
sS'CharacterOffsetEnd'
p10067
S'2636'
p10068
sS'PartOfSpeech'
p10069
S'NN'
p10070
sS'CharacterOffsetBegin'
p10071
S'2630'
p10072
sS'NamedEntityTag'
p10073
S'DATE'
p10074
stp10075
a(g1274
(dp10076
S'NamedEntityTag'
p10077
g69
sS'CharacterOffsetEnd'
p10078
S'2637'
p10079
sS'Lemma'
p10080
g1274
sS'PartOfSpeech'
p10081
g1274
sS'CharacterOffsetBegin'
p10082
S'2636'
p10083
stp10084
a(S'said'
p10085
(dp10086
S'NamedEntityTag'
p10087
g69
sS'CharacterOffsetEnd'
p10088
S'2642'
p10089
sS'Lemma'
p10090
S'say'
p10091
sS'PartOfSpeech'
p10092
S'VBD'
p10093
sS'CharacterOffsetBegin'
p10094
S'2638'
p10095
stp10096
a(S'Albright'
p10097
(dp10098
S'NamedEntityTag'
p10099
S'PERSON'
p10100
sS'CharacterOffsetEnd'
p10101
S'2651'
p10102
sS'Lemma'
p10103
S'Albright'
p10104
sS'PartOfSpeech'
p10105
S'NNP'
p10106
sS'CharacterOffsetBegin'
p10107
S'2643'
p10108
stp10109
a(g1274
(dp10110
S'NamedEntityTag'
p10111
g69
sS'CharacterOffsetEnd'
p10112
S'2652'
p10113
sS'Lemma'
p10114
g1274
sS'PartOfSpeech'
p10115
g1274
sS'CharacterOffsetBegin'
p10116
S'2651'
p10117
stp10118
a(S'who'
p10119
(dp10120
S'NamedEntityTag'
p10121
g69
sS'CharacterOffsetEnd'
p10122
S'2656'
p10123
sS'Lemma'
p10124
S'who'
p10125
sS'PartOfSpeech'
p10126
S'WP'
p10127
sS'CharacterOffsetBegin'
p10128
S'2653'
p10129
stp10130
a(S'was'
p10131
(dp10132
S'NamedEntityTag'
p10133
g69
sS'CharacterOffsetEnd'
p10134
S'2660'
p10135
sS'Lemma'
p10136
S'be'
p10137
sS'PartOfSpeech'
p10138
S'VBD'
p10139
sS'CharacterOffsetBegin'
p10140
S'2657'
p10141
stp10142
a(S'expected'
p10143
(dp10144
S'NamedEntityTag'
p10145
g69
sS'CharacterOffsetEnd'
p10146
S'2669'
p10147
sS'Lemma'
p10148
S'expect'
p10149
sS'PartOfSpeech'
p10150
S'VBN'
p10151
sS'CharacterOffsetBegin'
p10152
S'2661'
p10153
stp10154
a(S'back'
p10155
(dp10156
S'NamedEntityTag'
p10157
g69
sS'CharacterOffsetEnd'
p10158
S'2674'
p10159
sS'Lemma'
p10160
S'back'
p10161
sS'PartOfSpeech'
p10162
S'RB'
p10163
sS'CharacterOffsetBegin'
p10164
S'2670'
p10165
stp10166
a(S'for'
p10167
(dp10168
S'NamedEntityTag'
p10169
g69
sS'CharacterOffsetEnd'
p10170
S'2678'
p10171
sS'Lemma'
p10172
S'for'
p10173
sS'PartOfSpeech'
p10174
S'IN'
p10175
sS'CharacterOffsetBegin'
p10176
S'2675'
p10177
stp10178
a(S'Fridays'
p10179
(dp10180
S'NormalizedNamedEntityTag'
p10181
S'XXXX-WXX-5'
p10182
sS'Timex'
p10183
S'<TIMEX3 tid="t3" type="DATE" value="XXXX-WXX-5">Fridays</TIMEX3>'
p10184
sS'Lemma'
p10185
S'Fridays'
p10186
sS'CharacterOffsetEnd'
p10187
S'2686'
p10188
sS'PartOfSpeech'
p10189
S'NNP'
p10190
sS'CharacterOffsetBegin'
p10191
S'2679'
p10192
sS'NamedEntityTag'
p10193
S'DATE'
p10194
stp10195
a(S'attempt'
p10196
(dp10197
S'NamedEntityTag'
p10198
g69
sS'CharacterOffsetEnd'
p10199
S'2694'
p10200
sS'Lemma'
p10201
S'attempt'
p10202
sS'PartOfSpeech'
p10203
S'NN'
p10204
sS'CharacterOffsetBegin'
p10205
S'2687'
p10206
stp10207
a(g175
(dp10208
S'NamedEntityTag'
p10209
g69
sS'CharacterOffsetEnd'
p10210
S'2695'
p10211
sS'Lemma'
p10212
g175
sS'PartOfSpeech'
p10213
g175
sS'CharacterOffsetBegin'
p10214
S'2694'
p10215
stp10216
asa(dp10217
g7
S'(ROOT (S (NP (DT This)) (VP (VBZ is) (NP (DT a) (JJ good) (NN investment))) (. .)))'
p10218
sg9
S'This is a good investment.'
p10219
sg11
(lp10220
(S'root'
p10221
S'ROOT'
p10222
S'investment'
p10223
tp10224
a(S'nsubj'
p10225
S'investment'
p10226
S'This'
p10227
tp10228
a(S'cop'
p10229
S'investment'
p10230
S'is'
p10231
tp10232
a(S'det'
p10233
S'investment'
p10234
g1048
tp10235
a(S'amod'
p10236
S'investment'
p10237
S'good'
p10238
tp10239
asg41
(lp10240
(g10221
S'ROOT-0'
p10241
S'investment-5'
p10242
tp10243
a(g10225
S'investment-5'
p10244
S'This-1'
p10245
tp10246
a(g10229
S'investment-5'
p10247
S'is-2'
p10248
tp10249
a(g10233
S'investment-5'
p10250
S'a-3'
p10251
tp10252
a(g10236
S'investment-5'
p10253
S'good-4'
p10254
tp10255
asg64
(lp10256
(S'This'
p10257
(dp10258
S'NamedEntityTag'
p10259
g69
sS'CharacterOffsetEnd'
p10260
S'2700'
p10261
sS'Lemma'
p10262
S'this'
p10263
sS'PartOfSpeech'
p10264
S'DT'
p10265
sS'CharacterOffsetBegin'
p10266
S'2696'
p10267
stp10268
a(S'is'
p10269
(dp10270
S'NamedEntityTag'
p10271
g69
sS'CharacterOffsetEnd'
p10272
S'2703'
p10273
sS'Lemma'
p10274
S'be'
p10275
sS'PartOfSpeech'
p10276
S'VBZ'
p10277
sS'CharacterOffsetBegin'
p10278
S'2701'
p10279
stp10280
a(g1048
(dp10281
S'NamedEntityTag'
p10282
g69
sS'CharacterOffsetEnd'
p10283
S'2705'
p10284
sS'Lemma'
p10285
g1048
sS'PartOfSpeech'
p10286
S'DT'
p10287
sS'CharacterOffsetBegin'
p10288
S'2704'
p10289
stp10290
a(S'good'
p10291
(dp10292
S'NamedEntityTag'
p10293
g69
sS'CharacterOffsetEnd'
p10294
S'2710'
p10295
sS'Lemma'
p10296
S'good'
p10297
sS'PartOfSpeech'
p10298
S'JJ'
p10299
sS'CharacterOffsetBegin'
p10300
S'2706'
p10301
stp10302
a(S'investment'
p10303
(dp10304
S'NamedEntityTag'
p10305
g69
sS'CharacterOffsetEnd'
p10306
S'2721'
p10307
sS'Lemma'
p10308
S'investment'
p10309
sS'PartOfSpeech'
p10310
S'NN'
p10311
sS'CharacterOffsetBegin'
p10312
S'2711'
p10313
stp10314
a(g175
(dp10315
S'NamedEntityTag'
p10316
g69
sS'CharacterOffsetEnd'
p10317
S'2722'
p10318
sS'Lemma'
p10319
g175
sS'PartOfSpeech'
p10320
g175
sS'CharacterOffsetBegin'
p10321
S'2721'
p10322
stp10323
asass.