(dp0
S'models'
p1
(lp2
(dp3
S'sentences'
p4
(lp5
(dp6
S'parsetree'
p7
S'(ROOT (S (NP (NNP East) (NNP Timor)) (VP (NN advocate) (SBAR (S (NP (NNP Nobelist) (NNP Ramos-Horta)) (VP (VBD stranded) (PP (IN at) (NP (NNP Taiwan) (NN airport)))))))))'
p8
sS'text'
p9
S'East Timor advocate Nobelist Ramos-Horta stranded at Taiwan airport'
p10
sS'dependencies'
p11
(lp12
(S'root'
p13
S'ROOT'
p14
S'advocate'
p15
tp16
a(S'nn'
p17
S'Timor'
p18
S'East'
p19
tp20
a(S'nsubj'
p21
S'advocate'
p22
S'Timor'
p23
tp24
a(S'nn'
p25
S'Ramos-Horta'
p26
S'Nobelist'
p27
tp28
a(S'nsubj'
p29
S'stranded'
p30
S'Ramos-Horta'
p31
tp32
a(S'ccomp'
p33
S'advocate'
p34
S'stranded'
p35
tp36
a(S'nn'
p37
S'airport'
p38
S'Taiwan'
p39
tp40
a(S'prep_at'
p41
S'stranded'
p42
S'airport'
p43
tp44
asS'indexeddependencies'
p45
(lp46
(g13
S'ROOT-0'
p47
S'advocate-3'
p48
tp49
a(g17
S'Timor-2'
p50
S'East-1'
p51
tp52
a(g21
S'advocate-3'
p53
S'Timor-2'
p54
tp55
a(g25
S'Ramos-Horta-5'
p56
S'Nobelist-4'
p57
tp58
a(g29
S'stranded-6'
p59
S'Ramos-Horta-5'
p60
tp61
a(g33
S'advocate-3'
p62
S'stranded-6'
p63
tp64
a(g37
S'airport-9'
p65
S'Taiwan-8'
p66
tp67
a(g41
S'stranded-6'
p68
S'airport-9'
p69
tp70
asS'words'
p71
(lp72
(S'East'
p73
(dp74
S'NamedEntityTag'
p75
S'LOCATION'
p76
sS'CharacterOffsetEnd'
p77
S'5'
p78
sS'Lemma'
p79
S'East'
p80
sS'PartOfSpeech'
p81
S'NNP'
p82
sS'CharacterOffsetBegin'
p83
S'1'
p84
stp85
a(S'Timor'
p86
(dp87
S'NamedEntityTag'
p88
S'LOCATION'
p89
sS'CharacterOffsetEnd'
p90
S'11'
p91
sS'Lemma'
p92
S'Timor'
p93
sS'PartOfSpeech'
p94
S'NNP'
p95
sS'CharacterOffsetBegin'
p96
S'6'
p97
stp98
a(S'advocate'
p99
(dp100
S'NamedEntityTag'
p101
S'O'
p102
sS'CharacterOffsetEnd'
p103
S'20'
p104
sS'Lemma'
p105
S'advocate'
p106
sS'PartOfSpeech'
p107
S'NN'
p108
sS'CharacterOffsetBegin'
p109
S'12'
p110
stp111
a(S'Nobelist'
p112
(dp113
S'NamedEntityTag'
p114
g102
sS'CharacterOffsetEnd'
p115
S'29'
p116
sS'Lemma'
p117
S'Nobelist'
p118
sS'PartOfSpeech'
p119
S'NNP'
p120
sS'CharacterOffsetBegin'
p121
S'21'
p122
stp123
a(S'Ramos-Horta'
p124
(dp125
S'NamedEntityTag'
p126
S'PERSON'
p127
sS'CharacterOffsetEnd'
p128
S'41'
p129
sS'Lemma'
p130
S'Ramos-Horta'
p131
sS'PartOfSpeech'
p132
S'NNP'
p133
sS'CharacterOffsetBegin'
p134
S'30'
p135
stp136
a(S'stranded'
p137
(dp138
S'NamedEntityTag'
p139
g102
sS'CharacterOffsetEnd'
p140
S'50'
p141
sS'Lemma'
p142
S'strand'
p143
sS'PartOfSpeech'
p144
S'VBD'
p145
sS'CharacterOffsetBegin'
p146
S'42'
p147
stp148
a(S'at'
p149
(dp150
S'NamedEntityTag'
p151
g102
sS'CharacterOffsetEnd'
p152
S'53'
p153
sS'Lemma'
p154
S'at'
p155
sS'PartOfSpeech'
p156
S'IN'
p157
sS'CharacterOffsetBegin'
p158
S'51'
p159
stp160
a(S'Taiwan'
p161
(dp162
S'NamedEntityTag'
p163
S'LOCATION'
p164
sS'CharacterOffsetEnd'
p165
S'60'
p166
sS'Lemma'
p167
S'Taiwan'
p168
sS'PartOfSpeech'
p169
S'NNP'
p170
sS'CharacterOffsetBegin'
p171
S'54'
p172
stp173
a(S'airport'
p174
(dp175
S'NamedEntityTag'
p176
g102
sS'CharacterOffsetEnd'
p177
S'68'
p178
sS'Lemma'
p179
S'airport'
p180
sS'PartOfSpeech'
p181
S'NN'
p182
sS'CharacterOffsetBegin'
p183
S'61'
p184
stp185
asasa(dp186
g4
(lp187
(dp188
g7
S'(ROOT (S (NP (NNP Taiwan)) (VP (VBZ impedes) (S (NP (NNP East) (NNP Timor) (NN supporter)) (VP (TO to) (VP (VB mollify) (NP (NP (NNP Indonesia)) (: ;) (NP (NP (NNS claims)) (NP (NNP SNAFU)))))))) (. .)))'
p189
sg9
S'Taiwan impedes East Timor supporter to mollify Indonesia; claims SNAFU.'
p190
sg11
(lp191
(S'root'
p192
S'ROOT'
p193
S'impedes'
p194
tp195
a(S'nsubj'
p196
S'impedes'
p197
S'Taiwan'
p198
tp199
a(S'nn'
p200
S'supporter'
p201
S'East'
p202
tp203
a(S'nn'
p204
S'supporter'
p205
S'Timor'
p206
tp207
a(S'nsubj'
p208
S'mollify'
p209
S'supporter'
p210
tp211
a(S'aux'
p212
S'mollify'
p213
S'to'
p214
tp215
a(S'xcomp'
p216
S'impedes'
p217
S'mollify'
p218
tp219
a(S'dobj'
p220
S'mollify'
p221
S'Indonesia'
p222
tp223
a(S'dep'
p224
S'Indonesia'
p225
S'claims'
p226
tp227
a(S'appos'
p228
S'claims'
p229
S'SNAFU'
p230
tp231
asg45
(lp232
(g192
S'ROOT-0'
p233
S'impedes-2'
p234
tp235
a(g196
S'impedes-2'
p236
S'Taiwan-1'
p237
tp238
a(g200
S'supporter-5'
p239
S'East-3'
p240
tp241
a(g204
S'supporter-5'
p242
S'Timor-4'
p243
tp244
a(g208
S'mollify-7'
p245
S'supporter-5'
p246
tp247
a(g212
S'mollify-7'
p248
S'to-6'
p249
tp250
a(g216
S'impedes-2'
p251
S'mollify-7'
p252
tp253
a(g220
S'mollify-7'
p254
S'Indonesia-8'
p255
tp256
a(g224
S'Indonesia-8'
p257
S'claims-10'
p258
tp259
a(g228
S'claims-10'
p260
S'SNAFU-11'
p261
tp262
asg71
(lp263
(S'Taiwan'
p264
(dp265
S'NamedEntityTag'
p266
S'LOCATION'
p267
sS'CharacterOffsetEnd'
p268
S'7'
p269
sS'Lemma'
p270
S'Taiwan'
p271
sS'PartOfSpeech'
p272
S'NNP'
p273
sS'CharacterOffsetBegin'
p274
g84
stp275
a(S'impedes'
p276
(dp277
S'NamedEntityTag'
p278
g102
sS'CharacterOffsetEnd'
p279
S'15'
p280
sS'Lemma'
p281
S'impede'
p282
sS'PartOfSpeech'
p283
S'VBZ'
p284
sS'CharacterOffsetBegin'
p285
S'8'
p286
stp287
a(S'East'
p288
(dp289
S'NamedEntityTag'
p290
S'LOCATION'
p291
sS'CharacterOffsetEnd'
p292
S'20'
p293
sS'Lemma'
p294
S'East'
p295
sS'PartOfSpeech'
p296
S'NNP'
p297
sS'CharacterOffsetBegin'
p298
S'16'
p299
stp300
a(S'Timor'
p301
(dp302
S'NamedEntityTag'
p303
S'LOCATION'
p304
sS'CharacterOffsetEnd'
p305
S'26'
p306
sS'Lemma'
p307
S'Timor'
p308
sS'PartOfSpeech'
p309
S'NNP'
p310
sS'CharacterOffsetBegin'
p311
S'21'
p312
stp313
a(S'supporter'
p314
(dp315
S'NamedEntityTag'
p316
g102
sS'CharacterOffsetEnd'
p317
S'36'
p318
sS'Lemma'
p319
S'supporter'
p320
sS'PartOfSpeech'
p321
S'NN'
p322
sS'CharacterOffsetBegin'
p323
S'27'
p324
stp325
a(S'to'
p326
(dp327
S'NamedEntityTag'
p328
g102
sS'CharacterOffsetEnd'
p329
S'39'
p330
sS'Lemma'
p331
S'to'
p332
sS'PartOfSpeech'
p333
S'TO'
p334
sS'CharacterOffsetBegin'
p335
S'37'
p336
stp337
a(S'mollify'
p338
(dp339
S'NamedEntityTag'
p340
g102
sS'CharacterOffsetEnd'
p341
S'47'
p342
sS'Lemma'
p343
S'mollify'
p344
sS'PartOfSpeech'
p345
S'VB'
p346
sS'CharacterOffsetBegin'
p347
S'40'
p348
stp349
a(S'Indonesia'
p350
(dp351
S'NamedEntityTag'
p352
S'LOCATION'
p353
sS'CharacterOffsetEnd'
p354
S'57'
p355
sS'Lemma'
p356
S'Indonesia'
p357
sS'PartOfSpeech'
p358
S'NNP'
p359
sS'CharacterOffsetBegin'
p360
S'48'
p361
stp362
a(S';'
p363
(dp364
S'NamedEntityTag'
p365
g102
sS'CharacterOffsetEnd'
p366
S'58'
p367
sS'Lemma'
p368
g363
sS'PartOfSpeech'
p369
S':'
p370
sS'CharacterOffsetBegin'
p371
S'57'
p372
stp373
a(S'claims'
p374
(dp375
S'NamedEntityTag'
p376
g102
sS'CharacterOffsetEnd'
p377
S'65'
p378
sS'Lemma'
p379
S'claim'
p380
sS'PartOfSpeech'
p381
S'NNS'
p382
sS'CharacterOffsetBegin'
p383
S'59'
p384
stp385
a(S'SNAFU'
p386
(dp387
S'NamedEntityTag'
p388
g102
sS'CharacterOffsetEnd'
p389
S'71'
p390
sS'Lemma'
p391
S'SNAFU'
p392
sS'PartOfSpeech'
p393
S'NNP'
p394
sS'CharacterOffsetBegin'
p395
S'66'
p396
stp397
a(S'.'
p398
(dp399
S'NamedEntityTag'
p400
g102
sS'CharacterOffsetEnd'
p401
S'72'
p402
sS'Lemma'
p403
g398
sS'PartOfSpeech'
p404
g398
sS'CharacterOffsetBegin'
p405
S'71'
p406
stp407
asasa(dp408
g4
(lp409
(dp410
g7
S"(ROOT (S (NP (NNP Taiwan)) (VP (VBZ says) (SBAR (S (NP (NN negligence) (, ,) (RB not) (NN policy) (, ,)) (VP (VBD caused) (SBAR (S (NP (NP (NNP E.) (NNP Timor) (NNP Nobelist)) (POS 's)) (VP (VBN barred) (NP (NN entry)))))))))))"
p411
sg9
S"Taiwan says negligence, not policy, caused E. Timor Nobelist's barred entry"
p412
sg11
(lp413
(S'root'
p414
S'ROOT'
p415
S'says'
p416
tp417
a(S'nsubj'
p418
S'says'
p419
S'Taiwan'
p420
tp421
a(S'nn'
p422
S'policy'
p423
S'negligence'
p424
tp425
a(S'neg'
p426
S'policy'
p427
S'not'
p428
tp429
a(S'nsubj'
p430
S'caused'
p431
S'policy'
p432
tp433
a(S'ccomp'
p434
S'says'
p435
S'caused'
p436
tp437
a(S'nn'
p438
S'Nobelist'
p439
S'E.'
p440
tp441
a(S'nn'
p442
S'Nobelist'
p443
S'Timor'
p444
tp445
a(S'nsubj'
p446
S'barred'
p447
S'Nobelist'
p448
tp449
a(S'possessive'
p450
S'Nobelist'
p451
S"'s"
p452
tp453
a(S'ccomp'
p454
S'caused'
p455
S'barred'
p456
tp457
a(S'dobj'
p458
S'barred'
p459
S'entry'
p460
tp461
asg45
(lp462
(g414
S'ROOT-0'
p463
S'says-2'
p464
tp465
a(g418
S'says-2'
p466
S'Taiwan-1'
p467
tp468
a(g422
S'policy-6'
p469
S'negligence-3'
p470
tp471
a(g426
S'policy-6'
p472
S'not-5'
p473
tp474
a(g430
S'caused-8'
p475
S'policy-6'
p476
tp477
a(g434
S'says-2'
p478
S'caused-8'
p479
tp480
a(g438
S'Nobelist-11'
p481
S'E.-9'
p482
tp483
a(g442
S'Nobelist-11'
p484
S'Timor-10'
p485
tp486
a(g446
S'barred-13'
p487
S'Nobelist-11'
p488
tp489
a(g450
S'Nobelist-11'
p490
S"'s-12"
p491
tp492
a(g454
S'caused-8'
p493
S'barred-13'
p494
tp495
a(g458
S'barred-13'
p496
S'entry-14'
p497
tp498
asg71
(lp499
(S'Taiwan'
p500
(dp501
S'NamedEntityTag'
p502
S'LOCATION'
p503
sS'CharacterOffsetEnd'
p504
g269
sS'Lemma'
p505
S'Taiwan'
p506
sS'PartOfSpeech'
p507
S'NNP'
p508
sS'CharacterOffsetBegin'
p509
g84
stp510
a(S'says'
p511
(dp512
S'NamedEntityTag'
p513
g102
sS'CharacterOffsetEnd'
p514
S'12'
p515
sS'Lemma'
p516
S'say'
p517
sS'PartOfSpeech'
p518
S'VBZ'
p519
sS'CharacterOffsetBegin'
p520
g286
stp521
a(S'negligence'
p522
(dp523
S'NamedEntityTag'
p524
g102
sS'CharacterOffsetEnd'
p525
S'23'
p526
sS'Lemma'
p527
S'negligence'
p528
sS'PartOfSpeech'
p529
S'NN'
p530
sS'CharacterOffsetBegin'
p531
S'13'
p532
stp533
a(S','
p534
(dp535
S'NamedEntityTag'
p536
g102
sS'CharacterOffsetEnd'
p537
S'24'
p538
sS'Lemma'
p539
g534
sS'PartOfSpeech'
p540
g534
sS'CharacterOffsetBegin'
p541
S'23'
p542
stp543
a(S'not'
p544
(dp545
S'NamedEntityTag'
p546
g102
sS'CharacterOffsetEnd'
p547
S'28'
p548
sS'Lemma'
p549
S'not'
p550
sS'PartOfSpeech'
p551
S'RB'
p552
sS'CharacterOffsetBegin'
p553
S'25'
p554
stp555
a(S'policy'
p556
(dp557
S'NamedEntityTag'
p558
g102
sS'CharacterOffsetEnd'
p559
S'35'
p560
sS'Lemma'
p561
S'policy'
p562
sS'PartOfSpeech'
p563
S'NN'
p564
sS'CharacterOffsetBegin'
p565
S'29'
p566
stp567
a(g534
(dp568
S'NamedEntityTag'
p569
g102
sS'CharacterOffsetEnd'
p570
S'36'
p571
sS'Lemma'
p572
g534
sS'PartOfSpeech'
p573
g534
sS'CharacterOffsetBegin'
p574
S'35'
p575
stp576
a(S'caused'
p577
(dp578
S'NamedEntityTag'
p579
g102
sS'CharacterOffsetEnd'
p580
S'43'
p581
sS'Lemma'
p582
S'cause'
p583
sS'PartOfSpeech'
p584
S'VBD'
p585
sS'CharacterOffsetBegin'
p586
S'37'
p587
stp588
a(S'E.'
p589
(dp590
S'NamedEntityTag'
p591
g102
sS'CharacterOffsetEnd'
p592
S'46'
p593
sS'Lemma'
p594
S'E.'
p595
sS'PartOfSpeech'
p596
S'NNP'
p597
sS'CharacterOffsetBegin'
p598
S'44'
p599
stp600
a(S'Timor'
p601
(dp602
S'NamedEntityTag'
p603
g102
sS'CharacterOffsetEnd'
p604
S'52'
p605
sS'Lemma'
p606
S'Timor'
p607
sS'PartOfSpeech'
p608
S'NNP'
p609
sS'CharacterOffsetBegin'
p610
S'47'
p611
stp612
a(S'Nobelist'
p613
(dp614
S'NamedEntityTag'
p615
g102
sS'CharacterOffsetEnd'
p616
S'61'
p617
sS'Lemma'
p618
S'Nobelist'
p619
sS'PartOfSpeech'
p620
S'NNP'
p621
sS'CharacterOffsetBegin'
p622
S'53'
p623
stp624
a(S"'s"
p625
(dp626
S'NamedEntityTag'
p627
g102
sS'CharacterOffsetEnd'
p628
S'63'
p629
sS'Lemma'
p630
S"'s"
p631
sS'PartOfSpeech'
p632
S'POS'
p633
sS'CharacterOffsetBegin'
p634
S'61'
p635
stp636
a(S'barred'
p637
(dp638
S'NamedEntityTag'
p639
g102
sS'CharacterOffsetEnd'
p640
S'70'
p641
sS'Lemma'
p642
S'bar'
p643
sS'PartOfSpeech'
p644
S'VBN'
p645
sS'CharacterOffsetBegin'
p646
S'64'
p647
stp648
a(S'entry'
p649
(dp650
S'NamedEntityTag'
p651
g102
sS'CharacterOffsetEnd'
p652
S'76'
p653
sS'Lemma'
p654
S'entry'
p655
sS'PartOfSpeech'
p656
S'NN'
p657
sS'CharacterOffsetBegin'
p658
S'71'
p659
stp660
asasa(dp661
S'coref'
p662
(lp663
(lp664
((S'Nobel laureate'
p665
I0
I1
I0
I2
tp666
(S'East Timor advocate , barred by Taiwan officials'
p667
I0
I5
I3
I11
tp668
tp669
a((S'East Timor advocate'
p670
I0
I5
I3
I6
tp671
(S'East Timor advocate , barred by Taiwan officials'
p672
I0
I5
I3
I11
tp673
tp674
aasg4
(lp675
(dp676
g7
S'(ROOT (FRAG (NP (NP (NNP Nobel) (NN laureate)) (, ,) (NP (NP (NNP East) (NNP Timor) (NN advocate)) (, ,) (VP (VBN barred) (PP (IN by) (NP (NNP Taiwan) (NNS officials))))))))'
p677
sg9
S'Nobel laureate, East Timor advocate, barred by Taiwan officials'
p678
sg11
(lp679
(S'root'
p680
S'ROOT'
p681
S'laureate'
p682
tp683
a(S'nn'
p684
S'laureate'
p685
S'Nobel'
p686
tp687
a(S'nn'
p688
S'advocate'
p689
S'East'
p690
tp691
a(S'nn'
p692
S'advocate'
p693
S'Timor'
p694
tp695
a(S'appos'
p696
S'laureate'
p697
S'advocate'
p698
tp699
a(S'partmod'
p700
S'advocate'
p701
S'barred'
p702
tp703
a(S'nn'
p704
S'officials'
p705
S'Taiwan'
p706
tp707
a(S'agent'
p708
S'barred'
p709
S'officials'
p710
tp711
asg45
(lp712
(g680
S'ROOT-0'
p713
S'laureate-2'
p714
tp715
a(g684
S'laureate-2'
p716
S'Nobel-1'
p717
tp718
a(g688
S'advocate-6'
p719
S'East-4'
p720
tp721
a(g692
S'advocate-6'
p722
S'Timor-5'
p723
tp724
a(g696
S'laureate-2'
p725
S'advocate-6'
p726
tp727
a(g700
S'advocate-6'
p728
S'barred-8'
p729
tp730
a(g704
S'officials-11'
p731
S'Taiwan-10'
p732
tp733
a(g708
S'barred-8'
p734
S'officials-11'
p735
tp736
asg71
(lp737
(S'Nobel'
p738
(dp739
S'NamedEntityTag'
p740
g102
sS'CharacterOffsetEnd'
p741
g97
sS'Lemma'
p742
S'Nobel'
p743
sS'PartOfSpeech'
p744
S'NNP'
p745
sS'CharacterOffsetBegin'
p746
g84
stp747
a(S'laureate'
p748
(dp749
S'NamedEntityTag'
p750
g102
sS'CharacterOffsetEnd'
p751
S'15'
p752
sS'Lemma'
p753
S'laureate'
p754
sS'PartOfSpeech'
p755
S'NN'
p756
sS'CharacterOffsetBegin'
p757
g269
stp758
a(g534
(dp759
S'NamedEntityTag'
p760
g102
sS'CharacterOffsetEnd'
p761
S'16'
p762
sS'Lemma'
p763
g534
sS'PartOfSpeech'
p764
g534
sS'CharacterOffsetBegin'
p765
S'15'
p766
stp767
a(S'East'
p768
(dp769
S'NamedEntityTag'
p770
S'LOCATION'
p771
sS'CharacterOffsetEnd'
p772
S'21'
p773
sS'Lemma'
p774
S'East'
p775
sS'PartOfSpeech'
p776
S'NNP'
p777
sS'CharacterOffsetBegin'
p778
S'17'
p779
stp780
a(S'Timor'
p781
(dp782
S'NamedEntityTag'
p783
S'LOCATION'
p784
sS'CharacterOffsetEnd'
p785
S'27'
p786
sS'Lemma'
p787
S'Timor'
p788
sS'PartOfSpeech'
p789
S'NNP'
p790
sS'CharacterOffsetBegin'
p791
S'22'
p792
stp793
a(S'advocate'
p794
(dp795
S'NamedEntityTag'
p796
g102
sS'CharacterOffsetEnd'
p797
S'36'
p798
sS'Lemma'
p799
S'advocate'
p800
sS'PartOfSpeech'
p801
S'NN'
p802
sS'CharacterOffsetBegin'
p803
S'28'
p804
stp805
a(g534
(dp806
S'NamedEntityTag'
p807
g102
sS'CharacterOffsetEnd'
p808
S'37'
p809
sS'Lemma'
p810
g534
sS'PartOfSpeech'
p811
g534
sS'CharacterOffsetBegin'
p812
S'36'
p813
stp814
a(S'barred'
p815
(dp816
S'NamedEntityTag'
p817
g102
sS'CharacterOffsetEnd'
p818
S'44'
p819
sS'Lemma'
p820
S'bar'
p821
sS'PartOfSpeech'
p822
S'VBN'
p823
sS'CharacterOffsetBegin'
p824
S'38'
p825
stp826
a(S'by'
p827
(dp828
S'NamedEntityTag'
p829
g102
sS'CharacterOffsetEnd'
p830
S'47'
p831
sS'Lemma'
p832
S'by'
p833
sS'PartOfSpeech'
p834
S'IN'
p835
sS'CharacterOffsetBegin'
p836
S'45'
p837
stp838
a(S'Taiwan'
p839
(dp840
S'NamedEntityTag'
p841
S'LOCATION'
p842
sS'CharacterOffsetEnd'
p843
S'54'
p844
sS'Lemma'
p845
S'Taiwan'
p846
sS'PartOfSpeech'
p847
S'NNP'
p848
sS'CharacterOffsetBegin'
p849
S'48'
p850
stp851
a(S'officials'
p852
(dp853
S'NamedEntityTag'
p854
g102
sS'CharacterOffsetEnd'
p855
S'64'
p856
sS'Lemma'
p857
S'official'
p858
sS'PartOfSpeech'
p859
S'NNS'
p860
sS'CharacterOffsetBegin'
p861
S'55'
p862
stp863
asasasS'article'
p864
(dp865
g662
(lp866
(lp867
((S'the Foreign Ministry'
p868
I3
I4
I12
I15
tp869
(S'Taiwans Foreign Ministry on Thursday'
p870
I0
I2
I0
I5
tp871
tp872
a((S'the Foreign Ministry'
p873
I8
I4
I2
I5
tp874
(S'Taiwans Foreign Ministry on Thursday'
p875
I0
I2
I0
I5
tp876
tp877
aa(lp878
((S'Thursday'
p879
I15
I0
I10
I11
tp880
(S'Thursday'
p881
I0
I4
I4
I5
tp882
tp883
aa(lp884
((S'Ramos-Horta'
p885
I2
I0
I0
I1
tp886
(S'Nobel Peace Prize winner Josi Ramos-Horta'
p887
I0
I8
I13
I19
tp888
tp889
a((S'an advocate of independence for Indonesian-controlled East Timor'
p890
I2
I3
I2
I10
tp891
(S'Nobel Peace Prize winner Josi Ramos-Horta'
p892
I0
I8
I13
I19
tp893
tp894
a((S'him'
p895
I2
I8
I18
I19
tp896
(S'Nobel Peace Prize winner Josi Ramos-Horta'
p897
I0
I8
I13
I19
tp898
tp899
a((S'he'
p900
I3
I2
I22
I23
tp901
(S'Nobel Peace Prize winner Josi Ramos-Horta'
p902
I0
I8
I13
I19
tp903
tp904
a((S'he'
p905
I3
I2
I32
I33
tp906
(S'Nobel Peace Prize winner Josi Ramos-Horta'
p907
I0
I8
I13
I19
tp908
tp909
a((S'Ramos-Horta'
p910
I6
I0
I0
I1
tp911
(S'Nobel Peace Prize winner Josi Ramos-Horta'
p912
I0
I8
I13
I19
tp913
tp914
a((S'him'
p915
I7
I5
I5
I6
tp916
(S'Nobel Peace Prize winner Josi Ramos-Horta'
p917
I0
I8
I13
I19
tp918
tp919
a((S'he'
p920
I7
I-1
I9
I10
tp921
(S'Nobel Peace Prize winner Josi Ramos-Horta'
p922
I0
I8
I13
I19
tp923
tp924
a((S'Ramos-Horta'
p925
I8
I8
I8
I9
tp926
(S'Nobel Peace Prize winner Josi Ramos-Horta'
p927
I0
I8
I13
I19
tp928
tp929
a((S'He'
p930
I9
I0
I0
I1
tp931
(S'Nobel Peace Prize winner Josi Ramos-Horta'
p932
I0
I8
I13
I19
tp933
tp934
a((S'Ramos-Horta'
p935
I10
I3
I3
I4
tp936
(S'Nobel Peace Prize winner Josi Ramos-Horta'
p937
I0
I8
I13
I19
tp938
tp939
a((S'Ramos-Horta'
p940
I11
I0
I0
I1
tp941
(S'Nobel Peace Prize winner Josi Ramos-Horta'
p942
I0
I8
I13
I19
tp943
tp944
a((S'him'
p945
I11
I1
I11
I12
tp946
(S'Nobel Peace Prize winner Josi Ramos-Horta'
p947
I0
I8
I13
I19
tp948
tp949
a((S'Ramos-Horta'
p950
I12
I6
I6
I7
tp951
(S'Nobel Peace Prize winner Josi Ramos-Horta'
p952
I0
I8
I13
I19
tp953
tp954
a((S'he'
p955
I12
I2
I12
I13
tp956
(S'Nobel Peace Prize winner Josi Ramos-Horta'
p957
I0
I8
I13
I19
tp958
tp959
a((S'Ramos-Horta'
p960
I15
I0
I0
I1
tp961
(S'Nobel Peace Prize winner Josi Ramos-Horta'
p962
I0
I8
I13
I19
tp963
tp964
a((S'he'
p965
I18
I6
I16
I17
tp966
(S'Nobel Peace Prize winner Josi Ramos-Horta'
p967
I0
I8
I13
I19
tp968
tp969
aa(lp970
((S'This incident'
p971
I4
I1
I0
I2
tp972
(S'the incident Wednesday'
p973
I1
I4
I3
I6
tp974
tp975
a((S'it'
p976
I4
I-1
I9
I10
tp977
(S'the incident Wednesday'
p978
I1
I4
I3
I6
tp979
tp980
a((S'Its a fact , Wu'
p981
I5
I1
I1
I6
tp982
(S'the incident Wednesday'
p983
I1
I4
I3
I6
tp984
tp985
a((S'Its a fact'
p986
I5
I1
I1
I4
tp987
(S'the incident Wednesday'
p988
I1
I4
I3
I6
tp989
tp990
a((S'the incident'
p991
I15
I6
I5
I7
tp992
(S'the incident Wednesday'
p993
I1
I4
I3
I6
tp994
tp995
aa(lp996
((S'Wednesday'
p997
I3
I6
I36
I37
tp998
(S'Wednesday'
p999
I1
I5
I5
I6
tp1000
tp1001
aa(lp1002
((S'night'
p1003
I3
I7
I37
I38
tp1004
(S'night'
p1005
I1
I6
I6
I7
tp1006
tp1007
aa(lp1008
((S'East Timor'
p1009
I20
I0
I9
I11
tp1010
(S'East Timor'
p1011
I2
I-1
I8
I10
tp1012
tp1013
aa(lp1014
((S'Taiwan'
p1015
I8
I0
I10
I11
tp1016
(S'Taiwan'
p1017
I2
I4
I14
I15
tp1018
tp1019
a((S'Taiwan'
p1020
I14
I6
I6
I7
tp1021
(S'Taiwan'
p1022
I2
I4
I14
I15
tp1023
tp1024
aa(lp1025
((S'newspapers'
p1026
I11
I2
I22
I23
tp1027
(S'newspapers'
p1028
I2
I2
I12
I13
tp1029
tp1030
aa(lp1031
((S'Indonesia'
p1032
I2
I2
I22
I23
tp1033
(S'Indonesian-controlled East Timor'
p1034
I2
I-1
I7
I10
tp1035
tp1036
a((S'Indonesia'
p1037
I19
I0
I0
I1
tp1038
(S'Indonesian-controlled East Timor'
p1039
I2
I-1
I7
I10
tp1040
tp1041
a((S'it'
p1042
I19
I8
I8
I9
tp1043
(S'Indonesian-controlled East Timor'
p1044
I2
I-1
I7
I10
tp1045
tp1046
aa(lp1047
((S'a news conference'
p1048
I5
I-1
I7
I10
tp1049
(S'a news conference'
p1050
I3
I6
I44
I47
tp1051
tp1052
a((S'a news conference'
p1053
I14
I5
I23
I26
tp1054
(S'a news conference'
p1055
I3
I6
I44
I47
tp1056
tp1057
aa(lp1058
((S'Wu'
p1059
I5
I5
I5
I6
tp1060
(S'ministry spokesman Roy Wu'
p1061
I3
I2
I39
I43
tp1062
tp1063
aa(lp1064
((S'DPP'
p1065
I14
I8
I18
I19
tp1066
(S'Democratic Progressive Party'
p1067
I12
I4
I2
I5
tp1068
tp1069
aa(lp1070
((S'Chen'
p1071
I13
I0
I0
I1
tp1072
(S'Chen Shui-bians'
p1073
I12
I0
I19
I21
tp1074
tp1075
aa(lp1076
((S'it'
p1077
I16
I0
I10
I11
tp1078
(S'a big problem'
p1079
I16
I7
I5
I8
tp1080
tp1081
aa(lp1082
((S'I'
p1083
I17
I0
I0
I1
tp1084
(g1083
I16
I0
I0
I1
tp1085
tp1086
a((S'me'
p1087
I18
I6
I6
I7
tp1088
(g1083
I16
I0
I0
I1
tp1089
tp1090
aa(lp1091
((S'countries like Iraq , Iran'
p1092
I18
I0
I10
I15
tp1093
(S'The only countries that dont allow me in'
p1094
I18
I2
I0
I8
tp1095
tp1096
aasg4
(lp1097
(dp1098
g7
S'(ROOT (S (NP (NP (NNP Taiwans) (NNP Foreign) (NNP Ministry)) (PP (IN on) (NP (NNP Thursday)))) (VP (VBD blamed) (NP (JJ administrative) (NN negligence)) (PP (IN for) (NP (NP (DT an) (NN incident)) (SBAR (WHPP (IN in) (WHNP (WDT which))) (S (NP (NNP Nobel) (NNP Peace) (NNP Prize) (NN winner) (NNP Josi) (NNP Ramos-Horta)) (VP (VBD was) (VP (VBN left) (S (VP (VBN stranded) (PP (IN at) (NP (NP (DT the) (NN airport)) (PP (IN for) (NP (NNS hours))))) (PP (IN after) (S (VP (VBG being) (VP (VBD refused) (NP (NN entry))))))))))))))) (. .)))'
p1099
sg9
S'Taiwans Foreign Ministry on Thursday blamed administrative negligence for an incident in which Nobel Peace Prize winner Josi Ramos-Horta was left stranded at the airport for hours after being refused entry.'
p1100
sg11
(lp1101
(S'root'
p1102
S'ROOT'
p1103
S'blamed'
p1104
tp1105
a(S'nn'
p1106
S'Ministry'
p1107
S'Taiwans'
p1108
tp1109
a(S'nn'
p1110
S'Ministry'
p1111
S'Foreign'
p1112
tp1113
a(S'nsubj'
p1114
S'blamed'
p1115
S'Ministry'
p1116
tp1117
a(S'prep_on'
p1118
S'Ministry'
p1119
S'Thursday'
p1120
tp1121
a(S'amod'
p1122
S'negligence'
p1123
S'administrative'
p1124
tp1125
a(S'dobj'
p1126
S'blamed'
p1127
S'negligence'
p1128
tp1129
a(S'det'
p1130
S'incident'
p1131
S'an'
p1132
tp1133
a(S'prep_for'
p1134
S'blamed'
p1135
S'incident'
p1136
tp1137
a(S'prep_in'
p1138
S'left'
p1139
S'which'
p1140
tp1141
a(S'nn'
p1142
S'Ramos-Horta'
p1143
S'Nobel'
p1144
tp1145
a(S'nn'
p1146
S'Ramos-Horta'
p1147
S'Peace'
p1148
tp1149
a(S'nn'
p1150
S'Ramos-Horta'
p1151
S'Prize'
p1152
tp1153
a(S'nn'
p1154
S'Ramos-Horta'
p1155
S'winner'
p1156
tp1157
a(S'nn'
p1158
S'Ramos-Horta'
p1159
S'Josi'
p1160
tp1161
a(S'nsubjpass'
p1162
S'left'
p1163
S'Ramos-Horta'
p1164
tp1165
a(S'auxpass'
p1166
S'left'
p1167
S'was'
p1168
tp1169
a(S'rcmod'
p1170
S'incident'
p1171
S'left'
p1172
tp1173
a(S'dep'
p1174
S'left'
p1175
S'stranded'
p1176
tp1177
a(S'det'
p1178
S'airport'
p1179
S'the'
p1180
tp1181
a(S'prep_at'
p1182
S'stranded'
p1183
S'airport'
p1184
tp1185
a(S'prep_for'
p1186
S'airport'
p1187
S'hours'
p1188
tp1189
a(S'auxpass'
p1190
S'refused'
p1191
S'being'
p1192
tp1193
a(S'prepc_after'
p1194
S'stranded'
p1195
S'refused'
p1196
tp1197
a(S'dobj'
p1198
S'refused'
p1199
S'entry'
p1200
tp1201
asg45
(lp1202
(g1102
S'ROOT-0'
p1203
S'blamed-6'
p1204
tp1205
a(g1106
S'Ministry-3'
p1206
S'Taiwans-1'
p1207
tp1208
a(g1110
S'Ministry-3'
p1209
S'Foreign-2'
p1210
tp1211
a(g1114
S'blamed-6'
p1212
S'Ministry-3'
p1213
tp1214
a(g1118
S'Ministry-3'
p1215
S'Thursday-5'
p1216
tp1217
a(g1122
S'negligence-8'
p1218
S'administrative-7'
p1219
tp1220
a(g1126
S'blamed-6'
p1221
S'negligence-8'
p1222
tp1223
a(g1130
S'incident-11'
p1224
S'an-10'
p1225
tp1226
a(g1134
S'blamed-6'
p1227
S'incident-11'
p1228
tp1229
a(g1138
S'left-21'
p1230
S'which-13'
p1231
tp1232
a(g1142
S'Ramos-Horta-19'
p1233
S'Nobel-14'
p1234
tp1235
a(g1146
S'Ramos-Horta-19'
p1236
S'Peace-15'
p1237
tp1238
a(g1150
S'Ramos-Horta-19'
p1239
S'Prize-16'
p1240
tp1241
a(g1154
S'Ramos-Horta-19'
p1242
S'winner-17'
p1243
tp1244
a(g1158
S'Ramos-Horta-19'
p1245
S'Josi-18'
p1246
tp1247
a(g1162
S'left-21'
p1248
S'Ramos-Horta-19'
p1249
tp1250
a(g1166
S'left-21'
p1251
S'was-20'
p1252
tp1253
a(g1170
S'incident-11'
p1254
S'left-21'
p1255
tp1256
a(g1174
S'left-21'
p1257
S'stranded-22'
p1258
tp1259
a(g1178
S'airport-25'
p1260
S'the-24'
p1261
tp1262
a(g1182
S'stranded-22'
p1263
S'airport-25'
p1264
tp1265
a(g1186
S'airport-25'
p1266
S'hours-27'
p1267
tp1268
a(g1190
S'refused-30'
p1269
S'being-29'
p1270
tp1271
a(g1194
S'stranded-22'
p1272
S'refused-30'
p1273
tp1274
a(g1198
S'refused-30'
p1275
S'entry-31'
p1276
tp1277
asg71
(lp1278
(S'Taiwans'
p1279
(dp1280
S'NamedEntityTag'
p1281
S'ORGANIZATION'
p1282
sS'CharacterOffsetEnd'
p1283
g269
sS'Lemma'
p1284
S'Taiwans'
p1285
sS'PartOfSpeech'
p1286
S'NNP'
p1287
sS'CharacterOffsetBegin'
p1288
S'0'
p1289
stp1290
a(S'Foreign'
p1291
(dp1292
S'NamedEntityTag'
p1293
S'ORGANIZATION'
p1294
sS'CharacterOffsetEnd'
p1295
S'15'
p1296
sS'Lemma'
p1297
S'Foreign'
p1298
sS'PartOfSpeech'
p1299
S'NNP'
p1300
sS'CharacterOffsetBegin'
p1301
g286
stp1302
a(S'Ministry'
p1303
(dp1304
S'NamedEntityTag'
p1305
S'ORGANIZATION'
p1306
sS'CharacterOffsetEnd'
p1307
S'24'
p1308
sS'Lemma'
p1309
S'Ministry'
p1310
sS'PartOfSpeech'
p1311
S'NNP'
p1312
sS'CharacterOffsetBegin'
p1313
S'16'
p1314
stp1315
a(S'on'
p1316
(dp1317
S'NamedEntityTag'
p1318
g102
sS'CharacterOffsetEnd'
p1319
S'27'
p1320
sS'Lemma'
p1321
S'on'
p1322
sS'PartOfSpeech'
p1323
S'IN'
p1324
sS'CharacterOffsetBegin'
p1325
S'25'
p1326
stp1327
a(S'Thursday'
p1328
(dp1329
S'NormalizedNamedEntityTag'
p1330
S'XXXX-WXX-4'
p1331
sS'Timex'
p1332
S'<TIMEX3 tid="t1" type="DATE" value="XXXX-WXX-4">Thursday</TIMEX3>'
p1333
sS'Lemma'
p1334
S'Thursday'
p1335
sS'CharacterOffsetEnd'
p1336
S'36'
p1337
sS'PartOfSpeech'
p1338
S'NNP'
p1339
sS'CharacterOffsetBegin'
p1340
S'28'
p1341
sS'NamedEntityTag'
p1342
S'DATE'
p1343
stp1344
a(S'blamed'
p1345
(dp1346
S'NamedEntityTag'
p1347
g102
sS'CharacterOffsetEnd'
p1348
S'43'
p1349
sS'Lemma'
p1350
S'blame'
p1351
sS'PartOfSpeech'
p1352
S'VBD'
p1353
sS'CharacterOffsetBegin'
p1354
S'37'
p1355
stp1356
a(S'administrative'
p1357
(dp1358
S'NamedEntityTag'
p1359
g102
sS'CharacterOffsetEnd'
p1360
S'58'
p1361
sS'Lemma'
p1362
S'administrative'
p1363
sS'PartOfSpeech'
p1364
S'JJ'
p1365
sS'CharacterOffsetBegin'
p1366
S'44'
p1367
stp1368
a(S'negligence'
p1369
(dp1370
S'NamedEntityTag'
p1371
g102
sS'CharacterOffsetEnd'
p1372
S'69'
p1373
sS'Lemma'
p1374
S'negligence'
p1375
sS'PartOfSpeech'
p1376
S'NN'
p1377
sS'CharacterOffsetBegin'
p1378
S'59'
p1379
stp1380
a(S'for'
p1381
(dp1382
S'NamedEntityTag'
p1383
g102
sS'CharacterOffsetEnd'
p1384
S'73'
p1385
sS'Lemma'
p1386
S'for'
p1387
sS'PartOfSpeech'
p1388
S'IN'
p1389
sS'CharacterOffsetBegin'
p1390
S'70'
p1391
stp1392
a(S'an'
p1393
(dp1394
S'NamedEntityTag'
p1395
g102
sS'CharacterOffsetEnd'
p1396
S'76'
p1397
sS'Lemma'
p1398
S'a'
p1399
sS'PartOfSpeech'
p1400
S'DT'
p1401
sS'CharacterOffsetBegin'
p1402
S'74'
p1403
stp1404
a(S'incident'
p1405
(dp1406
S'NamedEntityTag'
p1407
g102
sS'CharacterOffsetEnd'
p1408
S'85'
p1409
sS'Lemma'
p1410
S'incident'
p1411
sS'PartOfSpeech'
p1412
S'NN'
p1413
sS'CharacterOffsetBegin'
p1414
S'77'
p1415
stp1416
a(S'in'
p1417
(dp1418
S'NamedEntityTag'
p1419
g102
sS'CharacterOffsetEnd'
p1420
S'88'
p1421
sS'Lemma'
p1422
S'in'
p1423
sS'PartOfSpeech'
p1424
S'IN'
p1425
sS'CharacterOffsetBegin'
p1426
S'86'
p1427
stp1428
a(S'which'
p1429
(dp1430
S'NamedEntityTag'
p1431
g102
sS'CharacterOffsetEnd'
p1432
S'94'
p1433
sS'Lemma'
p1434
S'which'
p1435
sS'PartOfSpeech'
p1436
S'WDT'
p1437
sS'CharacterOffsetBegin'
p1438
S'89'
p1439
stp1440
a(S'Nobel'
p1441
(dp1442
S'NamedEntityTag'
p1443
S'MISC'
p1444
sS'CharacterOffsetEnd'
p1445
S'100'
p1446
sS'Lemma'
p1447
S'Nobel'
p1448
sS'PartOfSpeech'
p1449
S'NNP'
p1450
sS'CharacterOffsetBegin'
p1451
S'95'
p1452
stp1453
a(S'Peace'
p1454
(dp1455
S'NamedEntityTag'
p1456
S'MISC'
p1457
sS'CharacterOffsetEnd'
p1458
S'106'
p1459
sS'Lemma'
p1460
S'Peace'
p1461
sS'PartOfSpeech'
p1462
S'NNP'
p1463
sS'CharacterOffsetBegin'
p1464
S'101'
p1465
stp1466
a(S'Prize'
p1467
(dp1468
S'NamedEntityTag'
p1469
S'MISC'
p1470
sS'CharacterOffsetEnd'
p1471
S'112'
p1472
sS'Lemma'
p1473
S'Prize'
p1474
sS'PartOfSpeech'
p1475
S'NNP'
p1476
sS'CharacterOffsetBegin'
p1477
S'107'
p1478
stp1479
a(S'winner'
p1480
(dp1481
S'NamedEntityTag'
p1482
g102
sS'CharacterOffsetEnd'
p1483
S'119'
p1484
sS'Lemma'
p1485
S'winner'
p1486
sS'PartOfSpeech'
p1487
S'NN'
p1488
sS'CharacterOffsetBegin'
p1489
S'113'
p1490
stp1491
a(S'Josi'
p1492
(dp1493
S'NamedEntityTag'
p1494
S'PERSON'
p1495
sS'CharacterOffsetEnd'
p1496
S'124'
p1497
sS'Lemma'
p1498
S'Josi'
p1499
sS'PartOfSpeech'
p1500
S'NNP'
p1501
sS'CharacterOffsetBegin'
p1502
S'120'
p1503
stp1504
a(S'Ramos-Horta'
p1505
(dp1506
S'NamedEntityTag'
p1507
S'PERSON'
p1508
sS'CharacterOffsetEnd'
p1509
S'136'
p1510
sS'Lemma'
p1511
S'Ramos-Horta'
p1512
sS'PartOfSpeech'
p1513
S'NNP'
p1514
sS'CharacterOffsetBegin'
p1515
S'125'
p1516
stp1517
a(S'was'
p1518
(dp1519
S'NamedEntityTag'
p1520
g102
sS'CharacterOffsetEnd'
p1521
S'140'
p1522
sS'Lemma'
p1523
S'be'
p1524
sS'PartOfSpeech'
p1525
S'VBD'
p1526
sS'CharacterOffsetBegin'
p1527
S'137'
p1528
stp1529
a(S'left'
p1530
(dp1531
S'NamedEntityTag'
p1532
g102
sS'CharacterOffsetEnd'
p1533
S'145'
p1534
sS'Lemma'
p1535
S'leave'
p1536
sS'PartOfSpeech'
p1537
S'VBN'
p1538
sS'CharacterOffsetBegin'
p1539
S'141'
p1540
stp1541
a(S'stranded'
p1542
(dp1543
S'NamedEntityTag'
p1544
g102
sS'CharacterOffsetEnd'
p1545
S'154'
p1546
sS'Lemma'
p1547
S'strand'
p1548
sS'PartOfSpeech'
p1549
S'VBN'
p1550
sS'CharacterOffsetBegin'
p1551
S'146'
p1552
stp1553
a(S'at'
p1554
(dp1555
S'NamedEntityTag'
p1556
g102
sS'CharacterOffsetEnd'
p1557
S'157'
p1558
sS'Lemma'
p1559
S'at'
p1560
sS'PartOfSpeech'
p1561
S'IN'
p1562
sS'CharacterOffsetBegin'
p1563
S'155'
p1564
stp1565
a(S'the'
p1566
(dp1567
S'NamedEntityTag'
p1568
g102
sS'CharacterOffsetEnd'
p1569
S'161'
p1570
sS'Lemma'
p1571
S'the'
p1572
sS'PartOfSpeech'
p1573
S'DT'
p1574
sS'CharacterOffsetBegin'
p1575
S'158'
p1576
stp1577
a(S'airport'
p1578
(dp1579
S'NamedEntityTag'
p1580
g102
sS'CharacterOffsetEnd'
p1581
S'169'
p1582
sS'Lemma'
p1583
S'airport'
p1584
sS'PartOfSpeech'
p1585
S'NN'
p1586
sS'CharacterOffsetBegin'
p1587
S'162'
p1588
stp1589
a(S'for'
p1590
(dp1591
S'NamedEntityTag'
p1592
g102
sS'CharacterOffsetEnd'
p1593
S'173'
p1594
sS'Lemma'
p1595
S'for'
p1596
sS'PartOfSpeech'
p1597
S'IN'
p1598
sS'CharacterOffsetBegin'
p1599
S'170'
p1600
stp1601
a(S'hours'
p1602
(dp1603
S'NormalizedNamedEntityTag'
p1604
S'PTXH'
p1605
sS'Timex'
p1606
S'<TIMEX3 tid="t2" type="DURATION" value="PTXH">hours</TIMEX3>'
p1607
sS'Lemma'
p1608
S'hour'
p1609
sS'CharacterOffsetEnd'
p1610
S'179'
p1611
sS'PartOfSpeech'
p1612
S'NNS'
p1613
sS'CharacterOffsetBegin'
p1614
S'174'
p1615
sS'NamedEntityTag'
p1616
S'DURATION'
p1617
stp1618
a(S'after'
p1619
(dp1620
S'NamedEntityTag'
p1621
g102
sS'CharacterOffsetEnd'
p1622
S'185'
p1623
sS'Lemma'
p1624
S'after'
p1625
sS'PartOfSpeech'
p1626
S'IN'
p1627
sS'CharacterOffsetBegin'
p1628
S'180'
p1629
stp1630
a(S'being'
p1631
(dp1632
S'NamedEntityTag'
p1633
g102
sS'CharacterOffsetEnd'
p1634
S'191'
p1635
sS'Lemma'
p1636
S'be'
p1637
sS'PartOfSpeech'
p1638
S'VBG'
p1639
sS'CharacterOffsetBegin'
p1640
S'186'
p1641
stp1642
a(S'refused'
p1643
(dp1644
S'NamedEntityTag'
p1645
g102
sS'CharacterOffsetEnd'
p1646
S'199'
p1647
sS'Lemma'
p1648
S'refuse'
p1649
sS'PartOfSpeech'
p1650
S'VBD'
p1651
sS'CharacterOffsetBegin'
p1652
S'192'
p1653
stp1654
a(S'entry'
p1655
(dp1656
S'NamedEntityTag'
p1657
g102
sS'CharacterOffsetEnd'
p1658
S'205'
p1659
sS'Lemma'
p1660
S'entry'
p1661
sS'PartOfSpeech'
p1662
S'NN'
p1663
sS'CharacterOffsetBegin'
p1664
S'200'
p1665
stp1666
a(g398
(dp1667
S'NamedEntityTag'
p1668
g102
sS'CharacterOffsetEnd'
p1669
S'206'
p1670
sS'Lemma'
p1671
g398
sS'PartOfSpeech'
p1672
g398
sS'CharacterOffsetBegin'
p1673
S'205'
p1674
stp1675
asa(dp1676
g7
S'(ROOT (S (NP (NN Opposition) (NNS supporters)) (VP (VBD alleged) (SBAR (S (NP (NP (DT the) (NN incident)) (NP-TMP (NNP Wednesday))) (NP-TMP (NN night)) (VP (VBD was) (VP (ADVP (RB politically)) (VBN motivated)))))) (. .)))'
p1677
sg9
S'Opposition supporters alleged the incident Wednesday night was politically motivated.'
p1678
sg11
(lp1679
(S'root'
p1680
S'ROOT'
p1681
S'alleged'
p1682
tp1683
a(S'nn'
p1684
S'supporters'
p1685
S'Opposition'
p1686
tp1687
a(S'nsubj'
p1688
S'alleged'
p1689
S'supporters'
p1690
tp1691
a(S'det'
p1692
S'incident'
p1693
S'the'
p1694
tp1695
a(S'nsubjpass'
p1696
S'motivated'
p1697
S'incident'
p1698
tp1699
a(S'tmod'
p1700
S'incident'
p1701
S'Wednesday'
p1702
tp1703
a(S'tmod'
p1704
S'motivated'
p1705
S'night'
p1706
tp1707
a(S'auxpass'
p1708
S'motivated'
p1709
S'was'
p1710
tp1711
a(S'advmod'
p1712
S'motivated'
p1713
S'politically'
p1714
tp1715
a(S'ccomp'
p1716
S'alleged'
p1717
S'motivated'
p1718
tp1719
asg45
(lp1720
(g1680
S'ROOT-0'
p1721
S'alleged-3'
p1722
tp1723
a(g1684
S'supporters-2'
p1724
S'Opposition-1'
p1725
tp1726
a(g1688
S'alleged-3'
p1727
S'supporters-2'
p1728
tp1729
a(g1692
S'incident-5'
p1730
S'the-4'
p1731
tp1732
a(g1696
S'motivated-10'
p1733
S'incident-5'
p1734
tp1735
a(g1700
S'incident-5'
p1736
S'Wednesday-6'
p1737
tp1738
a(g1704
S'motivated-10'
p1739
S'night-7'
p1740
tp1741
a(g1708
S'motivated-10'
p1742
S'was-8'
p1743
tp1744
a(g1712
S'motivated-10'
p1745
S'politically-9'
p1746
tp1747
a(g1716
S'alleged-3'
p1748
S'motivated-10'
p1749
tp1750
asg71
(lp1751
(S'Opposition'
p1752
(dp1753
S'NamedEntityTag'
p1754
g102
sS'CharacterOffsetEnd'
p1755
S'217'
p1756
sS'Lemma'
p1757
S'opposition'
p1758
sS'PartOfSpeech'
p1759
S'NN'
p1760
sS'CharacterOffsetBegin'
p1761
S'207'
p1762
stp1763
a(S'supporters'
p1764
(dp1765
S'NamedEntityTag'
p1766
g102
sS'CharacterOffsetEnd'
p1767
S'228'
p1768
sS'Lemma'
p1769
S'supporter'
p1770
sS'PartOfSpeech'
p1771
S'NNS'
p1772
sS'CharacterOffsetBegin'
p1773
S'218'
p1774
stp1775
a(S'alleged'
p1776
(dp1777
S'NamedEntityTag'
p1778
g102
sS'CharacterOffsetEnd'
p1779
S'236'
p1780
sS'Lemma'
p1781
S'allege'
p1782
sS'PartOfSpeech'
p1783
S'VBD'
p1784
sS'CharacterOffsetBegin'
p1785
S'229'
p1786
stp1787
a(S'the'
p1788
(dp1789
S'NamedEntityTag'
p1790
g102
sS'CharacterOffsetEnd'
p1791
S'240'
p1792
sS'Lemma'
p1793
S'the'
p1794
sS'PartOfSpeech'
p1795
S'DT'
p1796
sS'CharacterOffsetBegin'
p1797
S'237'
p1798
stp1799
a(S'incident'
p1800
(dp1801
S'NamedEntityTag'
p1802
g102
sS'CharacterOffsetEnd'
p1803
S'249'
p1804
sS'Lemma'
p1805
S'incident'
p1806
sS'PartOfSpeech'
p1807
S'NN'
p1808
sS'CharacterOffsetBegin'
p1809
S'241'
p1810
stp1811
a(S'Wednesday'
p1812
(dp1813
S'NormalizedNamedEntityTag'
p1814
S'XXXX-WXX-3TNI'
p1815
sS'Timex'
p1816
S'<TIMEX3 tid="t3" type="TIME" value="XXXX-WXX-3TNI">Wednesday night</TIMEX3>'
p1817
sS'Lemma'
p1818
S'Wednesday'
p1819
sS'CharacterOffsetEnd'
p1820
S'259'
p1821
sS'PartOfSpeech'
p1822
S'NNP'
p1823
sS'CharacterOffsetBegin'
p1824
S'250'
p1825
sS'NamedEntityTag'
p1826
S'DATE'
p1827
stp1828
a(S'night'
p1829
(dp1830
S'NormalizedNamedEntityTag'
p1831
S'XXXX-WXX-3TNI'
p1832
sS'Timex'
p1833
S'<TIMEX3 tid="t3" type="TIME" value="XXXX-WXX-3TNI">Wednesday night</TIMEX3>'
p1834
sS'Lemma'
p1835
S'night'
p1836
sS'CharacterOffsetEnd'
p1837
S'265'
p1838
sS'PartOfSpeech'
p1839
S'NN'
p1840
sS'CharacterOffsetBegin'
p1841
S'260'
p1842
sS'NamedEntityTag'
p1843
S'TIME'
p1844
stp1845
a(S'was'
p1846
(dp1847
S'NamedEntityTag'
p1848
g102
sS'CharacterOffsetEnd'
p1849
S'269'
p1850
sS'Lemma'
p1851
S'be'
p1852
sS'PartOfSpeech'
p1853
S'VBD'
p1854
sS'CharacterOffsetBegin'
p1855
S'266'
p1856
stp1857
a(S'politically'
p1858
(dp1859
S'NamedEntityTag'
p1860
g102
sS'CharacterOffsetEnd'
p1861
S'281'
p1862
sS'Lemma'
p1863
S'politically'
p1864
sS'PartOfSpeech'
p1865
S'RB'
p1866
sS'CharacterOffsetBegin'
p1867
S'270'
p1868
stp1869
a(S'motivated'
p1870
(dp1871
S'NamedEntityTag'
p1872
g102
sS'CharacterOffsetEnd'
p1873
S'291'
p1874
sS'Lemma'
p1875
S'motivate'
p1876
sS'PartOfSpeech'
p1877
S'VBN'
p1878
sS'CharacterOffsetBegin'
p1879
S'282'
p1880
stp1881
a(g398
(dp1882
S'NamedEntityTag'
p1883
g102
sS'CharacterOffsetEnd'
p1884
S'292'
p1885
sS'Lemma'
p1886
g398
sS'PartOfSpeech'
p1887
g398
sS'CharacterOffsetBegin'
p1888
S'291'
p1889
stp1890
asa(dp1891
g7
S'(ROOT (S (S (NP (NNP Ramos-Horta)) (VP (VBZ is) (NP (NP (DT an) (NN advocate)) (PP (IN of) (NP (NP (NN independence)) (PP (IN for) (NP (JJ Indonesian-controlled) (NNP East) (NNP Timor)))))))) (, ,) (CC and) (S (NP (NNS newspapers)) (VP (VBD reported) (SBAR (S (NP (NNP Taiwan)) (VP (VBD had) (ADVP (RB formerly)) (VP (VBN barred) (S (NP (PRP him)) (VP (TO to) (VP (VB avoid) (S (VP (VBG antagonizing) (NP (NNP Indonesia))))))))))))) (. .)))'
p1892
sg9
S'Ramos-Horta is an advocate of independence for Indonesian-controlled East Timor, and newspapers reported Taiwan had formerly barred him to avoid antagonizing Indonesia.'
p1893
sg11
(lp1894
(S'root'
p1895
S'ROOT'
p1896
S'advocate'
p1897
tp1898
a(S'nsubj'
p1899
S'advocate'
p1900
S'Ramos-Horta'
p1901
tp1902
a(S'cop'
p1903
S'advocate'
p1904
S'is'
p1905
tp1906
a(S'det'
p1907
S'advocate'
p1908
S'an'
p1909
tp1910
a(S'prep_of'
p1911
S'advocate'
p1912
S'independence'
p1913
tp1914
a(S'amod'
p1915
S'Timor'
p1916
S'Indonesian-controlled'
p1917
tp1918
a(S'nn'
p1919
S'Timor'
p1920
S'East'
p1921
tp1922
a(S'prep_for'
p1923
S'independence'
p1924
S'Timor'
p1925
tp1926
a(S'nsubj'
p1927
S'reported'
p1928
S'newspapers'
p1929
tp1930
a(S'conj_and'
p1931
S'advocate'
p1932
S'reported'
p1933
tp1934
a(S'nsubj'
p1935
S'barred'
p1936
S'Taiwan'
p1937
tp1938
a(S'aux'
p1939
S'barred'
p1940
S'had'
p1941
tp1942
a(S'advmod'
p1943
S'barred'
p1944
S'formerly'
p1945
tp1946
a(S'ccomp'
p1947
S'reported'
p1948
S'barred'
p1949
tp1950
a(S'nsubj'
p1951
S'avoid'
p1952
S'him'
p1953
tp1954
a(S'aux'
p1955
S'avoid'
p1956
S'to'
p1957
tp1958
a(S'xcomp'
p1959
S'barred'
p1960
S'avoid'
p1961
tp1962
a(S'xcomp'
p1963
S'avoid'
p1964
S'antagonizing'
p1965
tp1966
a(S'dobj'
p1967
S'antagonizing'
p1968
S'Indonesia'
p1969
tp1970
asg45
(lp1971
(g1895
S'ROOT-0'
p1972
S'advocate-4'
p1973
tp1974
a(g1899
S'advocate-4'
p1975
S'Ramos-Horta-1'
p1976
tp1977
a(g1903
S'advocate-4'
p1978
S'is-2'
p1979
tp1980
a(g1907
S'advocate-4'
p1981
S'an-3'
p1982
tp1983
a(g1911
S'advocate-4'
p1984
S'independence-6'
p1985
tp1986
a(g1915
S'Timor-10'
p1987
S'Indonesian-controlled-8'
p1988
tp1989
a(g1919
S'Timor-10'
p1990
S'East-9'
p1991
tp1992
a(g1923
S'independence-6'
p1993
S'Timor-10'
p1994
tp1995
a(g1927
S'reported-14'
p1996
S'newspapers-13'
p1997
tp1998
a(g1931
S'advocate-4'
p1999
S'reported-14'
p2000
tp2001
a(g1935
S'barred-18'
p2002
S'Taiwan-15'
p2003
tp2004
a(g1939
S'barred-18'
p2005
S'had-16'
p2006
tp2007
a(g1943
S'barred-18'
p2008
S'formerly-17'
p2009
tp2010
a(g1947
S'reported-14'
p2011
S'barred-18'
p2012
tp2013
a(g1951
S'avoid-21'
p2014
S'him-19'
p2015
tp2016
a(g1955
S'avoid-21'
p2017
S'to-20'
p2018
tp2019
a(g1959
S'barred-18'
p2020
S'avoid-21'
p2021
tp2022
a(g1963
S'avoid-21'
p2023
S'antagonizing-22'
p2024
tp2025
a(g1967
S'antagonizing-22'
p2026
S'Indonesia-23'
p2027
tp2028
asg71
(lp2029
(S'Ramos-Horta'
p2030
(dp2031
S'NamedEntityTag'
p2032
S'PERSON'
p2033
sS'CharacterOffsetEnd'
p2034
S'304'
p2035
sS'Lemma'
p2036
S'Ramos-Horta'
p2037
sS'PartOfSpeech'
p2038
S'NNP'
p2039
sS'CharacterOffsetBegin'
p2040
S'293'
p2041
stp2042
a(S'is'
p2043
(dp2044
S'NamedEntityTag'
p2045
g102
sS'CharacterOffsetEnd'
p2046
S'307'
p2047
sS'Lemma'
p2048
S'be'
p2049
sS'PartOfSpeech'
p2050
S'VBZ'
p2051
sS'CharacterOffsetBegin'
p2052
S'305'
p2053
stp2054
a(S'an'
p2055
(dp2056
S'NamedEntityTag'
p2057
g102
sS'CharacterOffsetEnd'
p2058
S'310'
p2059
sS'Lemma'
p2060
g1399
sS'PartOfSpeech'
p2061
S'DT'
p2062
sS'CharacterOffsetBegin'
p2063
S'308'
p2064
stp2065
a(S'advocate'
p2066
(dp2067
S'NamedEntityTag'
p2068
g102
sS'CharacterOffsetEnd'
p2069
S'319'
p2070
sS'Lemma'
p2071
S'advocate'
p2072
sS'PartOfSpeech'
p2073
S'NN'
p2074
sS'CharacterOffsetBegin'
p2075
S'311'
p2076
stp2077
a(S'of'
p2078
(dp2079
S'NamedEntityTag'
p2080
g102
sS'CharacterOffsetEnd'
p2081
S'322'
p2082
sS'Lemma'
p2083
S'of'
p2084
sS'PartOfSpeech'
p2085
S'IN'
p2086
sS'CharacterOffsetBegin'
p2087
S'320'
p2088
stp2089
a(S'independence'
p2090
(dp2091
S'NamedEntityTag'
p2092
g102
sS'CharacterOffsetEnd'
p2093
S'335'
p2094
sS'Lemma'
p2095
S'independence'
p2096
sS'PartOfSpeech'
p2097
S'NN'
p2098
sS'CharacterOffsetBegin'
p2099
S'323'
p2100
stp2101
a(S'for'
p2102
(dp2103
S'NamedEntityTag'
p2104
g102
sS'CharacterOffsetEnd'
p2105
S'339'
p2106
sS'Lemma'
p2107
S'for'
p2108
sS'PartOfSpeech'
p2109
S'IN'
p2110
sS'CharacterOffsetBegin'
p2111
S'336'
p2112
stp2113
a(S'Indonesian-controlled'
p2114
(dp2115
S'NamedEntityTag'
p2116
g102
sS'CharacterOffsetEnd'
p2117
S'361'
p2118
sS'Lemma'
p2119
S'indonesian-controlled'
p2120
sS'PartOfSpeech'
p2121
S'JJ'
p2122
sS'CharacterOffsetBegin'
p2123
S'340'
p2124
stp2125
a(S'East'
p2126
(dp2127
S'NamedEntityTag'
p2128
S'LOCATION'
p2129
sS'CharacterOffsetEnd'
p2130
S'366'
p2131
sS'Lemma'
p2132
S'East'
p2133
sS'PartOfSpeech'
p2134
S'NNP'
p2135
sS'CharacterOffsetBegin'
p2136
S'362'
p2137
stp2138
a(S'Timor'
p2139
(dp2140
S'NamedEntityTag'
p2141
S'LOCATION'
p2142
sS'CharacterOffsetEnd'
p2143
S'372'
p2144
sS'Lemma'
p2145
S'Timor'
p2146
sS'PartOfSpeech'
p2147
S'NNP'
p2148
sS'CharacterOffsetBegin'
p2149
S'367'
p2150
stp2151
a(g534
(dp2152
S'NamedEntityTag'
p2153
g102
sS'CharacterOffsetEnd'
p2154
S'373'
p2155
sS'Lemma'
p2156
g534
sS'PartOfSpeech'
p2157
g534
sS'CharacterOffsetBegin'
p2158
S'372'
p2159
stp2160
a(S'and'
p2161
(dp2162
S'NamedEntityTag'
p2163
g102
sS'CharacterOffsetEnd'
p2164
S'377'
p2165
sS'Lemma'
p2166
S'and'
p2167
sS'PartOfSpeech'
p2168
S'CC'
p2169
sS'CharacterOffsetBegin'
p2170
S'374'
p2171
stp2172
a(S'newspapers'
p2173
(dp2174
S'NamedEntityTag'
p2175
g102
sS'CharacterOffsetEnd'
p2176
S'388'
p2177
sS'Lemma'
p2178
S'newspaper'
p2179
sS'PartOfSpeech'
p2180
S'NNS'
p2181
sS'CharacterOffsetBegin'
p2182
S'378'
p2183
stp2184
a(S'reported'
p2185
(dp2186
S'NamedEntityTag'
p2187
g102
sS'CharacterOffsetEnd'
p2188
S'397'
p2189
sS'Lemma'
p2190
S'report'
p2191
sS'PartOfSpeech'
p2192
S'VBD'
p2193
sS'CharacterOffsetBegin'
p2194
S'389'
p2195
stp2196
a(S'Taiwan'
p2197
(dp2198
S'NamedEntityTag'
p2199
S'LOCATION'
p2200
sS'CharacterOffsetEnd'
p2201
S'404'
p2202
sS'Lemma'
p2203
S'Taiwan'
p2204
sS'PartOfSpeech'
p2205
S'NNP'
p2206
sS'CharacterOffsetBegin'
p2207
S'398'
p2208
stp2209
a(S'had'
p2210
(dp2211
S'NamedEntityTag'
p2212
g102
sS'CharacterOffsetEnd'
p2213
S'408'
p2214
sS'Lemma'
p2215
S'have'
p2216
sS'PartOfSpeech'
p2217
S'VBD'
p2218
sS'CharacterOffsetBegin'
p2219
S'405'
p2220
stp2221
a(S'formerly'
p2222
(dp2223
S'NamedEntityTag'
p2224
g102
sS'CharacterOffsetEnd'
p2225
S'417'
p2226
sS'Lemma'
p2227
S'formerly'
p2228
sS'PartOfSpeech'
p2229
S'RB'
p2230
sS'CharacterOffsetBegin'
p2231
S'409'
p2232
stp2233
a(S'barred'
p2234
(dp2235
S'NamedEntityTag'
p2236
g102
sS'CharacterOffsetEnd'
p2237
S'424'
p2238
sS'Lemma'
p2239
S'bar'
p2240
sS'PartOfSpeech'
p2241
S'VBN'
p2242
sS'CharacterOffsetBegin'
p2243
S'418'
p2244
stp2245
a(S'him'
p2246
(dp2247
S'NamedEntityTag'
p2248
g102
sS'CharacterOffsetEnd'
p2249
S'428'
p2250
sS'Lemma'
p2251
S'he'
p2252
sS'PartOfSpeech'
p2253
S'PRP'
p2254
sS'CharacterOffsetBegin'
p2255
S'425'
p2256
stp2257
a(S'to'
p2258
(dp2259
S'NamedEntityTag'
p2260
g102
sS'CharacterOffsetEnd'
p2261
S'431'
p2262
sS'Lemma'
p2263
S'to'
p2264
sS'PartOfSpeech'
p2265
S'TO'
p2266
sS'CharacterOffsetBegin'
p2267
S'429'
p2268
stp2269
a(S'avoid'
p2270
(dp2271
S'NamedEntityTag'
p2272
g102
sS'CharacterOffsetEnd'
p2273
S'437'
p2274
sS'Lemma'
p2275
S'avoid'
p2276
sS'PartOfSpeech'
p2277
S'VB'
p2278
sS'CharacterOffsetBegin'
p2279
S'432'
p2280
stp2281
a(S'antagonizing'
p2282
(dp2283
S'NamedEntityTag'
p2284
g102
sS'CharacterOffsetEnd'
p2285
S'450'
p2286
sS'Lemma'
p2287
S'antagonize'
p2288
sS'PartOfSpeech'
p2289
S'VBG'
p2290
sS'CharacterOffsetBegin'
p2291
S'438'
p2292
stp2293
a(S'Indonesia'
p2294
(dp2295
S'NamedEntityTag'
p2296
S'LOCATION'
p2297
sS'CharacterOffsetEnd'
p2298
S'460'
p2299
sS'Lemma'
p2300
S'Indonesia'
p2301
sS'PartOfSpeech'
p2302
S'NNP'
p2303
sS'CharacterOffsetBegin'
p2304
S'451'
p2305
stp2306
a(g398
(dp2307
S'NamedEntityTag'
p2308
g102
sS'CharacterOffsetEnd'
p2309
S'461'
p2310
sS'Lemma'
p2311
g398
sS'PartOfSpeech'
p2312
g398
sS'CharacterOffsetBegin'
p2313
S'460'
p2314
stp2315
asa(dp2316
g7
S'(ROOT (S (S (CC But) (NP (NP (NNP Ramos-Hortas) (JJ previous) (NN persona)) (NP (JJ non) (NN grata) (NN status))) (VP (VBD had) (VP (VBN been) (VP (VBN ordered) (S (VP (VBN lifted) (PP (IN by) (NP (DT the) (NNP Foreign) (NNP Ministry))) (PP (IN in) (NP (NNP August))) (, ,) (S (VP (VBG leaving) (NP (NP (DT no) (NN reason)) (SBAR (WHADVP (WRB why)) (S (NP (PRP he)) (VP (MD should) (VP (VB have) (VP (VBN been) (VP (VBN refused) (NP (NN entry)) (PP (IN by) (NP (NP (NN airport) (NN immigration)) (SBAR (WHADVP (WRB when)) (S (NP (PRP he)) (VP (VBD came) (PP (TO to) (NP (NN town)) (NP-TMP (NNP Wednesday))) (NP-TMP (NN night)))))))))))))))))))))) (, ,) (NP (NN ministry) (NN spokesman) (NNP Roy) (NNP Wu)) (VP (VBD told) (NP (DT a) (NN news) (NN conference))) (. .)))'
p2317
sg9
S'But Ramos-Hortas previous persona non grata status had been ordered lifted by the Foreign Ministry in August, leaving no reason why he should have been refused entry by airport immigration when he came to town Wednesday night, ministry spokesman Roy Wu told a news conference.'
p2318
sg11
(lp2319
(S'root'
p2320
S'ROOT'
p2321
S'told'
p2322
tp2323
a(S'cc'
p2324
S'ordered'
p2325
S'But'
p2326
tp2327
a(S'nn'
p2328
S'persona'
p2329
S'Ramos-Hortas'
p2330
tp2331
a(S'amod'
p2332
S'persona'
p2333
S'previous'
p2334
tp2335
a(S'nsubjpass'
p2336
S'ordered'
p2337
S'persona'
p2338
tp2339
a(S'amod'
p2340
S'status'
p2341
S'non'
p2342
tp2343
a(S'nn'
p2344
S'status'
p2345
S'grata'
p2346
tp2347
a(S'dep'
p2348
S'persona'
p2349
S'status'
p2350
tp2351
a(S'aux'
p2352
S'ordered'
p2353
S'had'
p2354
tp2355
a(S'auxpass'
p2356
S'ordered'
p2357
S'been'
p2358
tp2359
a(S'ccomp'
p2360
S'told'
p2361
S'ordered'
p2362
tp2363
a(S'dep'
p2364
S'ordered'
p2365
S'lifted'
p2366
tp2367
a(S'det'
p2368
S'Ministry'
p2369
S'the'
p2370
tp2371
a(S'nn'
p2372
S'Ministry'
p2373
S'Foreign'
p2374
tp2375
a(S'prep_by'
p2376
S'lifted'
p2377
S'Ministry'
p2378
tp2379
a(S'prep_in'
p2380
S'lifted'
p2381
S'August'
p2382
tp2383
a(S'xcomp'
p2384
S'lifted'
p2385
S'leaving'
p2386
tp2387
a(S'det'
p2388
S'reason'
p2389
S'no'
p2390
tp2391
a(S'dobj'
p2392
S'leaving'
p2393
S'reason'
p2394
tp2395
a(S'advmod'
p2396
S'refused'
p2397
S'why'
p2398
tp2399
a(S'nsubjpass'
p2400
S'refused'
p2401
S'he'
p2402
tp2403
a(S'aux'
p2404
S'refused'
p2405
S'should'
p2406
tp2407
a(S'aux'
p2408
S'refused'
p2409
S'have'
p2410
tp2411
a(S'auxpass'
p2412
S'refused'
p2413
S'been'
p2414
tp2415
a(S'rcmod'
p2416
S'reason'
p2417
S'refused'
p2418
tp2419
a(S'dobj'
p2420
S'refused'
p2421
S'entry'
p2422
tp2423
a(S'nn'
p2424
S'immigration'
p2425
S'airport'
p2426
tp2427
a(S'agent'
p2428
S'refused'
p2429
S'immigration'
p2430
tp2431
a(S'advmod'
p2432
S'came'
p2433
S'when'
p2434
tp2435
a(S'nsubj'
p2436
S'came'
p2437
S'he'
p2438
tp2439
a(S'rcmod'
p2440
S'immigration'
p2441
S'came'
p2442
tp2443
a(S'prep_to'
p2444
S'came'
p2445
S'town'
p2446
tp2447
a(S'tmod'
p2448
S'came'
p2449
S'Wednesday'
p2450
tp2451
a(S'tmod'
p2452
S'came'
p2453
S'night'
p2454
tp2455
a(S'nn'
p2456
S'Wu'
p2457
S'ministry'
p2458
tp2459
a(S'nn'
p2460
S'Wu'
p2461
S'spokesman'
p2462
tp2463
a(S'nn'
p2464
S'Wu'
p2465
S'Roy'
p2466
tp2467
a(S'nsubj'
p2468
S'told'
p2469
S'Wu'
p2470
tp2471
a(S'det'
p2472
S'conference'
p2473
g1399
tp2474
a(S'nn'
p2475
S'conference'
p2476
S'news'
p2477
tp2478
a(S'dobj'
p2479
S'told'
p2480
S'conference'
p2481
tp2482
asg45
(lp2483
(g2320
S'ROOT-0'
p2484
S'told-44'
p2485
tp2486
a(g2324
S'ordered-10'
p2487
S'But-1'
p2488
tp2489
a(g2328
S'persona-4'
p2490
S'Ramos-Hortas-2'
p2491
tp2492
a(g2332
S'persona-4'
p2493
S'previous-3'
p2494
tp2495
a(g2336
S'ordered-10'
p2496
S'persona-4'
p2497
tp2498
a(g2340
S'status-7'
p2499
S'non-5'
p2500
tp2501
a(g2344
S'status-7'
p2502
S'grata-6'
p2503
tp2504
a(g2348
S'persona-4'
p2505
S'status-7'
p2506
tp2507
a(g2352
S'ordered-10'
p2508
S'had-8'
p2509
tp2510
a(g2356
S'ordered-10'
p2511
S'been-9'
p2512
tp2513
a(g2360
S'told-44'
p2514
S'ordered-10'
p2515
tp2516
a(g2364
S'ordered-10'
p2517
S'lifted-11'
p2518
tp2519
a(g2368
S'Ministry-15'
p2520
S'the-13'
p2521
tp2522
a(g2372
S'Ministry-15'
p2523
S'Foreign-14'
p2524
tp2525
a(g2376
S'lifted-11'
p2526
S'Ministry-15'
p2527
tp2528
a(g2380
S'lifted-11'
p2529
S'August-17'
p2530
tp2531
a(g2384
S'lifted-11'
p2532
S'leaving-19'
p2533
tp2534
a(g2388
S'reason-21'
p2535
S'no-20'
p2536
tp2537
a(g2392
S'leaving-19'
p2538
S'reason-21'
p2539
tp2540
a(g2396
S'refused-27'
p2541
S'why-22'
p2542
tp2543
a(g2400
S'refused-27'
p2544
S'he-23'
p2545
tp2546
a(g2404
S'refused-27'
p2547
S'should-24'
p2548
tp2549
a(g2408
S'refused-27'
p2550
S'have-25'
p2551
tp2552
a(g2412
S'refused-27'
p2553
S'been-26'
p2554
tp2555
a(g2416
S'reason-21'
p2556
S'refused-27'
p2557
tp2558
a(g2420
S'refused-27'
p2559
S'entry-28'
p2560
tp2561
a(g2424
S'immigration-31'
p2562
S'airport-30'
p2563
tp2564
a(g2428
S'refused-27'
p2565
S'immigration-31'
p2566
tp2567
a(g2432
S'came-34'
p2568
S'when-32'
p2569
tp2570
a(g2436
S'came-34'
p2571
S'he-33'
p2572
tp2573
a(g2440
S'immigration-31'
p2574
S'came-34'
p2575
tp2576
a(g2444
S'came-34'
p2577
S'town-36'
p2578
tp2579
a(g2448
S'came-34'
p2580
S'Wednesday-37'
p2581
tp2582
a(g2452
S'came-34'
p2583
S'night-38'
p2584
tp2585
a(g2456
S'Wu-43'
p2586
S'ministry-40'
p2587
tp2588
a(g2460
S'Wu-43'
p2589
S'spokesman-41'
p2590
tp2591
a(g2464
S'Wu-43'
p2592
S'Roy-42'
p2593
tp2594
a(g2468
S'told-44'
p2595
S'Wu-43'
p2596
tp2597
a(g2472
S'conference-47'
p2598
S'a-45'
p2599
tp2600
a(g2475
S'conference-47'
p2601
S'news-46'
p2602
tp2603
a(g2479
S'told-44'
p2604
S'conference-47'
p2605
tp2606
asg71
(lp2607
(S'But'
p2608
(dp2609
S'NamedEntityTag'
p2610
g102
sS'CharacterOffsetEnd'
p2611
S'465'
p2612
sS'Lemma'
p2613
S'but'
p2614
sS'PartOfSpeech'
p2615
S'CC'
p2616
sS'CharacterOffsetBegin'
p2617
S'462'
p2618
stp2619
a(S'Ramos-Hortas'
p2620
(dp2621
S'NamedEntityTag'
p2622
g102
sS'CharacterOffsetEnd'
p2623
S'478'
p2624
sS'Lemma'
p2625
S'Ramos-Hortas'
p2626
sS'PartOfSpeech'
p2627
S'NNP'
p2628
sS'CharacterOffsetBegin'
p2629
S'466'
p2630
stp2631
a(S'previous'
p2632
(dp2633
S'NamedEntityTag'
p2634
g102
sS'CharacterOffsetEnd'
p2635
S'487'
p2636
sS'Lemma'
p2637
S'previous'
p2638
sS'PartOfSpeech'
p2639
S'JJ'
p2640
sS'CharacterOffsetBegin'
p2641
S'479'
p2642
stp2643
a(S'persona'
p2644
(dp2645
S'NamedEntityTag'
p2646
g102
sS'CharacterOffsetEnd'
p2647
S'495'
p2648
sS'Lemma'
p2649
S'persona'
p2650
sS'PartOfSpeech'
p2651
S'NN'
p2652
sS'CharacterOffsetBegin'
p2653
S'488'
p2654
stp2655
a(S'non'
p2656
(dp2657
S'NamedEntityTag'
p2658
g102
sS'CharacterOffsetEnd'
p2659
S'499'
p2660
sS'Lemma'
p2661
S'non'
p2662
sS'PartOfSpeech'
p2663
S'JJ'
p2664
sS'CharacterOffsetBegin'
p2665
S'496'
p2666
stp2667
a(S'grata'
p2668
(dp2669
S'NamedEntityTag'
p2670
g102
sS'CharacterOffsetEnd'
p2671
S'505'
p2672
sS'Lemma'
p2673
S'grata'
p2674
sS'PartOfSpeech'
p2675
S'NN'
p2676
sS'CharacterOffsetBegin'
p2677
S'500'
p2678
stp2679
a(S'status'
p2680
(dp2681
S'NamedEntityTag'
p2682
g102
sS'CharacterOffsetEnd'
p2683
S'512'
p2684
sS'Lemma'
p2685
S'status'
p2686
sS'PartOfSpeech'
p2687
S'NN'
p2688
sS'CharacterOffsetBegin'
p2689
S'506'
p2690
stp2691
a(S'had'
p2692
(dp2693
S'NamedEntityTag'
p2694
g102
sS'CharacterOffsetEnd'
p2695
S'516'
p2696
sS'Lemma'
p2697
S'have'
p2698
sS'PartOfSpeech'
p2699
S'VBD'
p2700
sS'CharacterOffsetBegin'
p2701
S'513'
p2702
stp2703
a(S'been'
p2704
(dp2705
S'NamedEntityTag'
p2706
g102
sS'CharacterOffsetEnd'
p2707
S'521'
p2708
sS'Lemma'
p2709
S'be'
p2710
sS'PartOfSpeech'
p2711
S'VBN'
p2712
sS'CharacterOffsetBegin'
p2713
S'517'
p2714
stp2715
a(S'ordered'
p2716
(dp2717
S'NamedEntityTag'
p2718
g102
sS'CharacterOffsetEnd'
p2719
S'529'
p2720
sS'Lemma'
p2721
S'order'
p2722
sS'PartOfSpeech'
p2723
S'VBN'
p2724
sS'CharacterOffsetBegin'
p2725
S'522'
p2726
stp2727
a(S'lifted'
p2728
(dp2729
S'NamedEntityTag'
p2730
g102
sS'CharacterOffsetEnd'
p2731
S'536'
p2732
sS'Lemma'
p2733
S'lift'
p2734
sS'PartOfSpeech'
p2735
S'VBN'
p2736
sS'CharacterOffsetBegin'
p2737
S'530'
p2738
stp2739
a(S'by'
p2740
(dp2741
S'NamedEntityTag'
p2742
g102
sS'CharacterOffsetEnd'
p2743
S'539'
p2744
sS'Lemma'
p2745
S'by'
p2746
sS'PartOfSpeech'
p2747
S'IN'
p2748
sS'CharacterOffsetBegin'
p2749
S'537'
p2750
stp2751
a(S'the'
p2752
(dp2753
S'NamedEntityTag'
p2754
g102
sS'CharacterOffsetEnd'
p2755
S'543'
p2756
sS'Lemma'
p2757
S'the'
p2758
sS'PartOfSpeech'
p2759
S'DT'
p2760
sS'CharacterOffsetBegin'
p2761
S'540'
p2762
stp2763
a(S'Foreign'
p2764
(dp2765
S'NamedEntityTag'
p2766
S'ORGANIZATION'
p2767
sS'CharacterOffsetEnd'
p2768
S'551'
p2769
sS'Lemma'
p2770
S'Foreign'
p2771
sS'PartOfSpeech'
p2772
S'NNP'
p2773
sS'CharacterOffsetBegin'
p2774
S'544'
p2775
stp2776
a(S'Ministry'
p2777
(dp2778
S'NamedEntityTag'
p2779
S'ORGANIZATION'
p2780
sS'CharacterOffsetEnd'
p2781
S'560'
p2782
sS'Lemma'
p2783
S'Ministry'
p2784
sS'PartOfSpeech'
p2785
S'NNP'
p2786
sS'CharacterOffsetBegin'
p2787
S'552'
p2788
stp2789
a(S'in'
p2790
(dp2791
S'NamedEntityTag'
p2792
g102
sS'CharacterOffsetEnd'
p2793
S'563'
p2794
sS'Lemma'
p2795
S'in'
p2796
sS'PartOfSpeech'
p2797
S'IN'
p2798
sS'CharacterOffsetBegin'
p2799
S'561'
p2800
stp2801
a(S'August'
p2802
(dp2803
S'NormalizedNamedEntityTag'
p2804
S'XXXX-08'
p2805
sS'Timex'
p2806
S'<TIMEX3 tid="t4" type="DATE" value="XXXX-08">August</TIMEX3>'
p2807
sS'Lemma'
p2808
S'August'
p2809
sS'CharacterOffsetEnd'
p2810
S'570'
p2811
sS'PartOfSpeech'
p2812
S'NNP'
p2813
sS'CharacterOffsetBegin'
p2814
S'564'
p2815
sS'NamedEntityTag'
p2816
S'DATE'
p2817
stp2818
a(g534
(dp2819
S'NamedEntityTag'
p2820
g102
sS'CharacterOffsetEnd'
p2821
S'571'
p2822
sS'Lemma'
p2823
g534
sS'PartOfSpeech'
p2824
g534
sS'CharacterOffsetBegin'
p2825
S'570'
p2826
stp2827
a(S'leaving'
p2828
(dp2829
S'NamedEntityTag'
p2830
g102
sS'CharacterOffsetEnd'
p2831
S'579'
p2832
sS'Lemma'
p2833
S'leave'
p2834
sS'PartOfSpeech'
p2835
S'VBG'
p2836
sS'CharacterOffsetBegin'
p2837
S'572'
p2838
stp2839
a(S'no'
p2840
(dp2841
S'NamedEntityTag'
p2842
g102
sS'CharacterOffsetEnd'
p2843
S'582'
p2844
sS'Lemma'
p2845
S'no'
p2846
sS'PartOfSpeech'
p2847
S'DT'
p2848
sS'CharacterOffsetBegin'
p2849
S'580'
p2850
stp2851
a(S'reason'
p2852
(dp2853
S'NamedEntityTag'
p2854
g102
sS'CharacterOffsetEnd'
p2855
S'589'
p2856
sS'Lemma'
p2857
S'reason'
p2858
sS'PartOfSpeech'
p2859
S'NN'
p2860
sS'CharacterOffsetBegin'
p2861
S'583'
p2862
stp2863
a(S'why'
p2864
(dp2865
S'NamedEntityTag'
p2866
g102
sS'CharacterOffsetEnd'
p2867
S'593'
p2868
sS'Lemma'
p2869
S'why'
p2870
sS'PartOfSpeech'
p2871
S'WRB'
p2872
sS'CharacterOffsetBegin'
p2873
S'590'
p2874
stp2875
a(S'he'
p2876
(dp2877
S'NamedEntityTag'
p2878
g102
sS'CharacterOffsetEnd'
p2879
S'596'
p2880
sS'Lemma'
p2881
S'he'
p2882
sS'PartOfSpeech'
p2883
S'PRP'
p2884
sS'CharacterOffsetBegin'
p2885
S'594'
p2886
stp2887
a(S'should'
p2888
(dp2889
S'NamedEntityTag'
p2890
g102
sS'CharacterOffsetEnd'
p2891
S'603'
p2892
sS'Lemma'
p2893
S'should'
p2894
sS'PartOfSpeech'
p2895
S'MD'
p2896
sS'CharacterOffsetBegin'
p2897
S'597'
p2898
stp2899
a(S'have'
p2900
(dp2901
S'NamedEntityTag'
p2902
g102
sS'CharacterOffsetEnd'
p2903
S'608'
p2904
sS'Lemma'
p2905
S'have'
p2906
sS'PartOfSpeech'
p2907
S'VB'
p2908
sS'CharacterOffsetBegin'
p2909
S'604'
p2910
stp2911
a(S'been'
p2912
(dp2913
S'NamedEntityTag'
p2914
g102
sS'CharacterOffsetEnd'
p2915
S'613'
p2916
sS'Lemma'
p2917
S'be'
p2918
sS'PartOfSpeech'
p2919
S'VBN'
p2920
sS'CharacterOffsetBegin'
p2921
S'609'
p2922
stp2923
a(S'refused'
p2924
(dp2925
S'NamedEntityTag'
p2926
g102
sS'CharacterOffsetEnd'
p2927
S'621'
p2928
sS'Lemma'
p2929
S'refuse'
p2930
sS'PartOfSpeech'
p2931
S'VBN'
p2932
sS'CharacterOffsetBegin'
p2933
S'614'
p2934
stp2935
a(S'entry'
p2936
(dp2937
S'NamedEntityTag'
p2938
g102
sS'CharacterOffsetEnd'
p2939
S'627'
p2940
sS'Lemma'
p2941
S'entry'
p2942
sS'PartOfSpeech'
p2943
S'NN'
p2944
sS'CharacterOffsetBegin'
p2945
S'622'
p2946
stp2947
a(S'by'
p2948
(dp2949
S'NamedEntityTag'
p2950
g102
sS'CharacterOffsetEnd'
p2951
S'630'
p2952
sS'Lemma'
p2953
S'by'
p2954
sS'PartOfSpeech'
p2955
S'IN'
p2956
sS'CharacterOffsetBegin'
p2957
S'628'
p2958
stp2959
a(S'airport'
p2960
(dp2961
S'NamedEntityTag'
p2962
g102
sS'CharacterOffsetEnd'
p2963
S'638'
p2964
sS'Lemma'
p2965
S'airport'
p2966
sS'PartOfSpeech'
p2967
S'NN'
p2968
sS'CharacterOffsetBegin'
p2969
S'631'
p2970
stp2971
a(S'immigration'
p2972
(dp2973
S'NamedEntityTag'
p2974
g102
sS'CharacterOffsetEnd'
p2975
S'650'
p2976
sS'Lemma'
p2977
S'immigration'
p2978
sS'PartOfSpeech'
p2979
S'NN'
p2980
sS'CharacterOffsetBegin'
p2981
S'639'
p2982
stp2983
a(S'when'
p2984
(dp2985
S'NamedEntityTag'
p2986
g102
sS'CharacterOffsetEnd'
p2987
S'655'
p2988
sS'Lemma'
p2989
S'when'
p2990
sS'PartOfSpeech'
p2991
S'WRB'
p2992
sS'CharacterOffsetBegin'
p2993
S'651'
p2994
stp2995
a(S'he'
p2996
(dp2997
S'NamedEntityTag'
p2998
g102
sS'CharacterOffsetEnd'
p2999
S'658'
p3000
sS'Lemma'
p3001
S'he'
p3002
sS'PartOfSpeech'
p3003
S'PRP'
p3004
sS'CharacterOffsetBegin'
p3005
S'656'
p3006
stp3007
a(S'came'
p3008
(dp3009
S'NamedEntityTag'
p3010
g102
sS'CharacterOffsetEnd'
p3011
S'663'
p3012
sS'Lemma'
p3013
S'come'
p3014
sS'PartOfSpeech'
p3015
S'VBD'
p3016
sS'CharacterOffsetBegin'
p3017
S'659'
p3018
stp3019
a(S'to'
p3020
(dp3021
S'NamedEntityTag'
p3022
g102
sS'CharacterOffsetEnd'
p3023
S'666'
p3024
sS'Lemma'
p3025
S'to'
p3026
sS'PartOfSpeech'
p3027
S'TO'
p3028
sS'CharacterOffsetBegin'
p3029
S'664'
p3030
stp3031
a(S'town'
p3032
(dp3033
S'NamedEntityTag'
p3034
g102
sS'CharacterOffsetEnd'
p3035
S'671'
p3036
sS'Lemma'
p3037
S'town'
p3038
sS'PartOfSpeech'
p3039
S'NN'
p3040
sS'CharacterOffsetBegin'
p3041
S'667'
p3042
stp3043
a(S'Wednesday'
p3044
(dp3045
S'NormalizedNamedEntityTag'
p3046
S'XXXX-WXX-3TNI'
p3047
sS'Timex'
p3048
S'<TIMEX3 tid="t5" type="TIME" value="XXXX-WXX-3TNI">Wednesday night</TIMEX3>'
p3049
sS'Lemma'
p3050
S'Wednesday'
p3051
sS'CharacterOffsetEnd'
p3052
S'681'
p3053
sS'PartOfSpeech'
p3054
S'NNP'
p3055
sS'CharacterOffsetBegin'
p3056
S'672'
p3057
sS'NamedEntityTag'
p3058
S'DATE'
p3059
stp3060
a(S'night'
p3061
(dp3062
S'NormalizedNamedEntityTag'
p3063
S'XXXX-WXX-3TNI'
p3064
sS'Timex'
p3065
S'<TIMEX3 tid="t5" type="TIME" value="XXXX-WXX-3TNI">Wednesday night</TIMEX3>'
p3066
sS'Lemma'
p3067
S'night'
p3068
sS'CharacterOffsetEnd'
p3069
S'687'
p3070
sS'PartOfSpeech'
p3071
S'NN'
p3072
sS'CharacterOffsetBegin'
p3073
S'682'
p3074
sS'NamedEntityTag'
p3075
S'TIME'
p3076
stp3077
a(g534
(dp3078
S'NamedEntityTag'
p3079
g102
sS'CharacterOffsetEnd'
p3080
S'688'
p3081
sS'Lemma'
p3082
g534
sS'PartOfSpeech'
p3083
g534
sS'CharacterOffsetBegin'
p3084
S'687'
p3085
stp3086
a(S'ministry'
p3087
(dp3088
S'NamedEntityTag'
p3089
g102
sS'CharacterOffsetEnd'
p3090
S'697'
p3091
sS'Lemma'
p3092
S'ministry'
p3093
sS'PartOfSpeech'
p3094
S'NN'
p3095
sS'CharacterOffsetBegin'
p3096
S'689'
p3097
stp3098
a(S'spokesman'
p3099
(dp3100
S'NamedEntityTag'
p3101
g102
sS'CharacterOffsetEnd'
p3102
S'707'
p3103
sS'Lemma'
p3104
S'spokesman'
p3105
sS'PartOfSpeech'
p3106
S'NN'
p3107
sS'CharacterOffsetBegin'
p3108
S'698'
p3109
stp3110
a(S'Roy'
p3111
(dp3112
S'NamedEntityTag'
p3113
S'PERSON'
p3114
sS'CharacterOffsetEnd'
p3115
S'711'
p3116
sS'Lemma'
p3117
S'Roy'
p3118
sS'PartOfSpeech'
p3119
S'NNP'
p3120
sS'CharacterOffsetBegin'
p3121
S'708'
p3122
stp3123
a(S'Wu'
p3124
(dp3125
S'NamedEntityTag'
p3126
S'PERSON'
p3127
sS'CharacterOffsetEnd'
p3128
S'714'
p3129
sS'Lemma'
p3130
S'Wu'
p3131
sS'PartOfSpeech'
p3132
S'NNP'
p3133
sS'CharacterOffsetBegin'
p3134
S'712'
p3135
stp3136
a(S'told'
p3137
(dp3138
S'NamedEntityTag'
p3139
g102
sS'CharacterOffsetEnd'
p3140
S'719'
p3141
sS'Lemma'
p3142
S'tell'
p3143
sS'PartOfSpeech'
p3144
S'VBD'
p3145
sS'CharacterOffsetBegin'
p3146
S'715'
p3147
stp3148
a(g1399
(dp3149
S'NamedEntityTag'
p3150
g102
sS'CharacterOffsetEnd'
p3151
S'721'
p3152
sS'Lemma'
p3153
g1399
sS'PartOfSpeech'
p3154
S'DT'
p3155
sS'CharacterOffsetBegin'
p3156
S'720'
p3157
stp3158
a(S'news'
p3159
(dp3160
S'NamedEntityTag'
p3161
g102
sS'CharacterOffsetEnd'
p3162
S'726'
p3163
sS'Lemma'
p3164
S'news'
p3165
sS'PartOfSpeech'
p3166
S'NN'
p3167
sS'CharacterOffsetBegin'
p3168
S'722'
p3169
stp3170
a(S'conference'
p3171
(dp3172
S'NamedEntityTag'
p3173
g102
sS'CharacterOffsetEnd'
p3174
S'737'
p3175
sS'Lemma'
p3176
S'conference'
p3177
sS'PartOfSpeech'
p3178
S'NN'
p3179
sS'CharacterOffsetBegin'
p3180
S'727'
p3181
stp3182
a(g398
(dp3183
S'NamedEntityTag'
p3184
g102
sS'CharacterOffsetEnd'
p3185
S'738'
p3186
sS'Lemma'
p3187
g398
sS'PartOfSpeech'
p3188
g398
sS'CharacterOffsetBegin'
p3189
S'737'
p3190
stp3191
asa(dp3192
g7
S'(ROOT (S (S (NP (DT This) (NN incident)) (VP (VBN accentuated) (NP (NP (DT the) (NN problem)) (PP (IN with) (NP (JJ administrative) (NNS relations)))))) (, ,) (NP (PRP it)) (VP (VBZ needs) (S (VP (TO to) (VP (VB be) (VP (VBN improved)))))) (. .)))'
p3193
sg9
S'This incident accentuated the problem with administrative relations, it needs to be improved.'
p3194
sg11
(lp3195
(S'root'
p3196
S'ROOT'
p3197
S'needs'
p3198
tp3199
a(S'det'
p3200
S'incident'
p3201
S'This'
p3202
tp3203
a(S'nsubj'
p3204
S'accentuated'
p3205
S'incident'
p3206
tp3207
a(S'partmod'
p3208
S'needs'
p3209
S'accentuated'
p3210
tp3211
a(S'det'
p3212
S'problem'
p3213
S'the'
p3214
tp3215
a(S'dobj'
p3216
S'accentuated'
p3217
S'problem'
p3218
tp3219
a(S'amod'
p3220
S'relations'
p3221
S'administrative'
p3222
tp3223
a(S'prep_with'
p3224
S'problem'
p3225
S'relations'
p3226
tp3227
a(S'nsubj'
p3228
S'needs'
p3229
S'it'
p3230
tp3231
a(S'aux'
p3232
S'improved'
p3233
S'to'
p3234
tp3235
a(S'auxpass'
p3236
S'improved'
p3237
S'be'
p3238
tp3239
a(S'xcomp'
p3240
S'needs'
p3241
S'improved'
p3242
tp3243
asg45
(lp3244
(g3196
S'ROOT-0'
p3245
S'needs-11'
p3246
tp3247
a(g3200
S'incident-2'
p3248
S'This-1'
p3249
tp3250
a(g3204
S'accentuated-3'
p3251
S'incident-2'
p3252
tp3253
a(g3208
S'needs-11'
p3254
S'accentuated-3'
p3255
tp3256
a(g3212
S'problem-5'
p3257
S'the-4'
p3258
tp3259
a(g3216
S'accentuated-3'
p3260
S'problem-5'
p3261
tp3262
a(g3220
S'relations-8'
p3263
S'administrative-7'
p3264
tp3265
a(g3224
S'problem-5'
p3266
S'relations-8'
p3267
tp3268
a(g3228
S'needs-11'
p3269
S'it-10'
p3270
tp3271
a(g3232
S'improved-14'
p3272
S'to-12'
p3273
tp3274
a(g3236
S'improved-14'
p3275
S'be-13'
p3276
tp3277
a(g3240
S'needs-11'
p3278
S'improved-14'
p3279
tp3280
asg71
(lp3281
(S'This'
p3282
(dp3283
S'NamedEntityTag'
p3284
g102
sS'CharacterOffsetEnd'
p3285
S'743'
p3286
sS'Lemma'
p3287
S'this'
p3288
sS'PartOfSpeech'
p3289
S'DT'
p3290
sS'CharacterOffsetBegin'
p3291
S'739'
p3292
stp3293
a(S'incident'
p3294
(dp3295
S'NamedEntityTag'
p3296
g102
sS'CharacterOffsetEnd'
p3297
S'752'
p3298
sS'Lemma'
p3299
S'incident'
p3300
sS'PartOfSpeech'
p3301
S'NN'
p3302
sS'CharacterOffsetBegin'
p3303
S'744'
p3304
stp3305
a(S'accentuated'
p3306
(dp3307
S'NamedEntityTag'
p3308
g102
sS'CharacterOffsetEnd'
p3309
S'764'
p3310
sS'Lemma'
p3311
S'accentuate'
p3312
sS'PartOfSpeech'
p3313
S'VBN'
p3314
sS'CharacterOffsetBegin'
p3315
S'753'
p3316
stp3317
a(S'the'
p3318
(dp3319
S'NamedEntityTag'
p3320
g102
sS'CharacterOffsetEnd'
p3321
S'768'
p3322
sS'Lemma'
p3323
S'the'
p3324
sS'PartOfSpeech'
p3325
S'DT'
p3326
sS'CharacterOffsetBegin'
p3327
S'765'
p3328
stp3329
a(S'problem'
p3330
(dp3331
S'NamedEntityTag'
p3332
g102
sS'CharacterOffsetEnd'
p3333
S'776'
p3334
sS'Lemma'
p3335
S'problem'
p3336
sS'PartOfSpeech'
p3337
S'NN'
p3338
sS'CharacterOffsetBegin'
p3339
S'769'
p3340
stp3341
a(S'with'
p3342
(dp3343
S'NamedEntityTag'
p3344
g102
sS'CharacterOffsetEnd'
p3345
S'781'
p3346
sS'Lemma'
p3347
S'with'
p3348
sS'PartOfSpeech'
p3349
S'IN'
p3350
sS'CharacterOffsetBegin'
p3351
S'777'
p3352
stp3353
a(S'administrative'
p3354
(dp3355
S'NamedEntityTag'
p3356
g102
sS'CharacterOffsetEnd'
p3357
S'796'
p3358
sS'Lemma'
p3359
S'administrative'
p3360
sS'PartOfSpeech'
p3361
S'JJ'
p3362
sS'CharacterOffsetBegin'
p3363
S'782'
p3364
stp3365
a(S'relations'
p3366
(dp3367
S'NamedEntityTag'
p3368
g102
sS'CharacterOffsetEnd'
p3369
S'806'
p3370
sS'Lemma'
p3371
S'relation'
p3372
sS'PartOfSpeech'
p3373
S'NNS'
p3374
sS'CharacterOffsetBegin'
p3375
S'797'
p3376
stp3377
a(g534
(dp3378
S'NamedEntityTag'
p3379
g102
sS'CharacterOffsetEnd'
p3380
S'807'
p3381
sS'Lemma'
p3382
g534
sS'PartOfSpeech'
p3383
g534
sS'CharacterOffsetBegin'
p3384
S'806'
p3385
stp3386
a(S'it'
p3387
(dp3388
S'NamedEntityTag'
p3389
g102
sS'CharacterOffsetEnd'
p3390
S'810'
p3391
sS'Lemma'
p3392
S'it'
p3393
sS'PartOfSpeech'
p3394
S'PRP'
p3395
sS'CharacterOffsetBegin'
p3396
S'808'
p3397
stp3398
a(S'needs'
p3399
(dp3400
S'NamedEntityTag'
p3401
g102
sS'CharacterOffsetEnd'
p3402
S'816'
p3403
sS'Lemma'
p3404
S'need'
p3405
sS'PartOfSpeech'
p3406
S'VBZ'
p3407
sS'CharacterOffsetBegin'
p3408
S'811'
p3409
stp3410
a(S'to'
p3411
(dp3412
S'NamedEntityTag'
p3413
g102
sS'CharacterOffsetEnd'
p3414
S'819'
p3415
sS'Lemma'
p3416
S'to'
p3417
sS'PartOfSpeech'
p3418
S'TO'
p3419
sS'CharacterOffsetBegin'
p3420
S'817'
p3421
stp3422
a(S'be'
p3423
(dp3424
S'NamedEntityTag'
p3425
g102
sS'CharacterOffsetEnd'
p3426
S'822'
p3427
sS'Lemma'
p3428
S'be'
p3429
sS'PartOfSpeech'
p3430
S'VB'
p3431
sS'CharacterOffsetBegin'
p3432
S'820'
p3433
stp3434
a(S'improved'
p3435
(dp3436
S'NamedEntityTag'
p3437
g102
sS'CharacterOffsetEnd'
p3438
S'831'
p3439
sS'Lemma'
p3440
S'improve'
p3441
sS'PartOfSpeech'
p3442
S'VBN'
p3443
sS'CharacterOffsetBegin'
p3444
S'823'
p3445
stp3446
a(g398
(dp3447
S'NamedEntityTag'
p3448
g102
sS'CharacterOffsetEnd'
p3449
S'832'
p3450
sS'Lemma'
p3451
g398
sS'PartOfSpeech'
p3452
g398
sS'CharacterOffsetBegin'
p3453
S'831'
p3454
stp3455
asa(dp3456
g7
S'(ROOT (S (: ...) (NP (NP (NP (PRP$ Its)) (NP (DT a) (NN fact))) (, ,) (NP (NNP Wu))) (VP (VBD told) (NP (DT a) (NN news) (NN conference))) (. .)))'
p3457
sg9
S'... Its a fact, Wu told a news conference.'
p3458
sg11
(lp3459
(S'root'
p3460
S'ROOT'
p3461
S'told'
p3462
tp3463
a(S'nsubj'
p3464
S'told'
p3465
S'Its'
p3466
tp3467
a(S'det'
p3468
S'fact'
p3469
g1399
tp3470
a(S'dep'
p3471
S'Its'
p3472
S'fact'
p3473
tp3474
a(S'appos'
p3475
S'Its'
p3476
S'Wu'
p3477
tp3478
a(S'det'
p3479
S'conference'
p3480
g1399
tp3481
a(S'nn'
p3482
S'conference'
p3483
S'news'
p3484
tp3485
a(S'dobj'
p3486
S'told'
p3487
S'conference'
p3488
tp3489
asg45
(lp3490
(g3460
S'ROOT-0'
p3491
S'told-7'
p3492
tp3493
a(g3464
S'told-7'
p3494
S'Its-2'
p3495
tp3496
a(g3468
S'fact-4'
p3497
S'a-3'
p3498
tp3499
a(g3471
S'Its-2'
p3500
S'fact-4'
p3501
tp3502
a(g3475
S'Its-2'
p3503
S'Wu-6'
p3504
tp3505
a(g3479
S'conference-10'
p3506
S'a-8'
p3507
tp3508
a(g3482
S'conference-10'
p3509
S'news-9'
p3510
tp3511
a(g3486
S'told-7'
p3512
S'conference-10'
p3513
tp3514
asg71
(lp3515
(S'...'
p3516
(dp3517
S'NamedEntityTag'
p3518
g102
sS'CharacterOffsetEnd'
p3519
S'836'
p3520
sS'Lemma'
p3521
S'...'
p3522
sS'PartOfSpeech'
p3523
g370
sS'CharacterOffsetBegin'
p3524
S'833'
p3525
stp3526
a(S'Its'
p3527
(dp3528
S'NamedEntityTag'
p3529
g102
sS'CharacterOffsetEnd'
p3530
S'840'
p3531
sS'Lemma'
p3532
S'its'
p3533
sS'PartOfSpeech'
p3534
S'PRP$'
p3535
sS'CharacterOffsetBegin'
p3536
S'837'
p3537
stp3538
a(g1399
(dp3539
S'NamedEntityTag'
p3540
g102
sS'CharacterOffsetEnd'
p3541
S'842'
p3542
sS'Lemma'
p3543
g1399
sS'PartOfSpeech'
p3544
S'DT'
p3545
sS'CharacterOffsetBegin'
p3546
S'841'
p3547
stp3548
a(S'fact'
p3549
(dp3550
S'NamedEntityTag'
p3551
g102
sS'CharacterOffsetEnd'
p3552
S'847'
p3553
sS'Lemma'
p3554
S'fact'
p3555
sS'PartOfSpeech'
p3556
S'NN'
p3557
sS'CharacterOffsetBegin'
p3558
S'843'
p3559
stp3560
a(g534
(dp3561
S'NamedEntityTag'
p3562
g102
sS'CharacterOffsetEnd'
p3563
S'848'
p3564
sS'Lemma'
p3565
g534
sS'PartOfSpeech'
p3566
g534
sS'CharacterOffsetBegin'
p3567
S'847'
p3568
stp3569
a(S'Wu'
p3570
(dp3571
S'NamedEntityTag'
p3572
S'PERSON'
p3573
sS'CharacterOffsetEnd'
p3574
S'851'
p3575
sS'Lemma'
p3576
S'Wu'
p3577
sS'PartOfSpeech'
p3578
S'NNP'
p3579
sS'CharacterOffsetBegin'
p3580
S'849'
p3581
stp3582
a(S'told'
p3583
(dp3584
S'NamedEntityTag'
p3585
g102
sS'CharacterOffsetEnd'
p3586
S'856'
p3587
sS'Lemma'
p3588
S'tell'
p3589
sS'PartOfSpeech'
p3590
S'VBD'
p3591
sS'CharacterOffsetBegin'
p3592
S'852'
p3593
stp3594
a(g1399
(dp3595
S'NamedEntityTag'
p3596
g102
sS'CharacterOffsetEnd'
p3597
S'858'
p3598
sS'Lemma'
p3599
g1399
sS'PartOfSpeech'
p3600
S'DT'
p3601
sS'CharacterOffsetBegin'
p3602
S'857'
p3603
stp3604
a(S'news'
p3605
(dp3606
S'NamedEntityTag'
p3607
g102
sS'CharacterOffsetEnd'
p3608
S'863'
p3609
sS'Lemma'
p3610
S'news'
p3611
sS'PartOfSpeech'
p3612
S'NN'
p3613
sS'CharacterOffsetBegin'
p3614
S'859'
p3615
stp3616
a(S'conference'
p3617
(dp3618
S'NamedEntityTag'
p3619
g102
sS'CharacterOffsetEnd'
p3620
S'874'
p3621
sS'Lemma'
p3622
S'conference'
p3623
sS'PartOfSpeech'
p3624
S'NN'
p3625
sS'CharacterOffsetBegin'
p3626
S'864'
p3627
stp3628
a(g398
(dp3629
S'NamedEntityTag'
p3630
g102
sS'CharacterOffsetEnd'
p3631
S'875'
p3632
sS'Lemma'
p3633
g398
sS'PartOfSpeech'
p3634
g398
sS'CharacterOffsetBegin'
p3635
S'874'
p3636
stp3637
asa(dp3638
g7
S'(ROOT (S (NP (NNP Ramos-Horta)) (VP (VBD had) (NP (DT a) (ADJP (JJ rough)) (NN time)) (NP-TMP (NNP Wednesday) (NN night))) (. .)))'
p3639
sg9
S'Ramos-Horta had a rough time Wednesday night.'
p3640
sg11
(lp3641
(S'root'
p3642
S'ROOT'
p3643
S'had'
p3644
tp3645
a(S'nsubj'
p3646
S'had'
p3647
S'Ramos-Horta'
p3648
tp3649
a(S'det'
p3650
S'time'
p3651
g1399
tp3652
a(S'amod'
p3653
S'time'
p3654
S'rough'
p3655
tp3656
a(S'dobj'
p3657
S'had'
p3658
S'time'
p3659
tp3660
a(S'nn'
p3661
S'night'
p3662
S'Wednesday'
p3663
tp3664
a(S'tmod'
p3665
S'had'
p3666
S'night'
p3667
tp3668
asg45
(lp3669
(g3642
S'ROOT-0'
p3670
S'had-2'
p3671
tp3672
a(g3646
S'had-2'
p3673
S'Ramos-Horta-1'
p3674
tp3675
a(g3650
S'time-5'
p3676
S'a-3'
p3677
tp3678
a(g3653
S'time-5'
p3679
S'rough-4'
p3680
tp3681
a(g3657
S'had-2'
p3682
S'time-5'
p3683
tp3684
a(g3661
S'night-7'
p3685
S'Wednesday-6'
p3686
tp3687
a(g3665
S'had-2'
p3688
S'night-7'
p3689
tp3690
asg71
(lp3691
(S'Ramos-Horta'
p3692
(dp3693
S'NamedEntityTag'
p3694
S'PERSON'
p3695
sS'CharacterOffsetEnd'
p3696
S'887'
p3697
sS'Lemma'
p3698
S'Ramos-Horta'
p3699
sS'PartOfSpeech'
p3700
S'NNP'
p3701
sS'CharacterOffsetBegin'
p3702
S'876'
p3703
stp3704
a(S'had'
p3705
(dp3706
S'NamedEntityTag'
p3707
g102
sS'CharacterOffsetEnd'
p3708
S'891'
p3709
sS'Lemma'
p3710
S'have'
p3711
sS'PartOfSpeech'
p3712
S'VBD'
p3713
sS'CharacterOffsetBegin'
p3714
S'888'
p3715
stp3716
a(g1399
(dp3717
S'NamedEntityTag'
p3718
g102
sS'CharacterOffsetEnd'
p3719
S'893'
p3720
sS'Lemma'
p3721
g1399
sS'PartOfSpeech'
p3722
S'DT'
p3723
sS'CharacterOffsetBegin'
p3724
S'892'
p3725
stp3726
a(S'rough'
p3727
(dp3728
S'NamedEntityTag'
p3729
g102
sS'CharacterOffsetEnd'
p3730
S'899'
p3731
sS'Lemma'
p3732
S'rough'
p3733
sS'PartOfSpeech'
p3734
S'JJ'
p3735
sS'CharacterOffsetBegin'
p3736
S'894'
p3737
stp3738
a(S'time'
p3739
(dp3740
S'NamedEntityTag'
p3741
g102
sS'CharacterOffsetEnd'
p3742
S'904'
p3743
sS'Lemma'
p3744
S'time'
p3745
sS'PartOfSpeech'
p3746
S'NN'
p3747
sS'CharacterOffsetBegin'
p3748
S'900'
p3749
stp3750
a(S'Wednesday'
p3751
(dp3752
S'NormalizedNamedEntityTag'
p3753
S'XXXX-WXX-3TNI'
p3754
sS'Timex'
p3755
S'<TIMEX3 tid="t6" type="TIME" value="XXXX-WXX-3TNI">Wednesday night</TIMEX3>'
p3756
sS'Lemma'
p3757
S'Wednesday'
p3758
sS'CharacterOffsetEnd'
p3759
S'914'
p3760
sS'PartOfSpeech'
p3761
S'NNP'
p3762
sS'CharacterOffsetBegin'
p3763
S'905'
p3764
sS'NamedEntityTag'
p3765
S'DATE'
p3766
stp3767
a(S'night'
p3768
(dp3769
S'NormalizedNamedEntityTag'
p3770
S'XXXX-WXX-3TNI'
p3771
sS'Timex'
p3772
S'<TIMEX3 tid="t6" type="TIME" value="XXXX-WXX-3TNI">Wednesday night</TIMEX3>'
p3773
sS'Lemma'
p3774
S'night'
p3775
sS'CharacterOffsetEnd'
p3776
S'920'
p3777
sS'PartOfSpeech'
p3778
S'NN'
p3779
sS'CharacterOffsetBegin'
p3780
S'915'
p3781
sS'NamedEntityTag'
p3782
S'TIME'
p3783
stp3784
a(g398
(dp3785
S'NamedEntityTag'
p3786
g102
sS'CharacterOffsetEnd'
p3787
S'921'
p3788
sS'Lemma'
p3789
g398
sS'PartOfSpeech'
p3790
g398
sS'CharacterOffsetBegin'
p3791
S'920'
p3792
stp3793
asa(dp3794
g7
S'(ROOT (S (S (NP (NNP Immigration) (NNS officials)) (VP (MD would) (RB not) (VP (VB let) (NP (PRP him)) (PP (IN in))))) (, ,) (RB then) (S (NP (PRP he)) (VP (VP (VBD tried) (S (VP (TO to) (VP (VB catch) (NP (DT a) (NN flight)) (ADVP (IN out)))))) (CC but) (VP (VBD missed) (NP (DT the) (NN plane))))) (. .)))'
p3795
sg9
S'Immigration officials would not let him in, then he tried to catch a flight out but missed the plane.'
p3796
sg11
(lp3797
(S'root'
p3798
S'ROOT'
p3799
S'let'
p3800
tp3801
a(S'nn'
p3802
S'officials'
p3803
S'Immigration'
p3804
tp3805
a(S'nsubj'
p3806
S'let'
p3807
S'officials'
p3808
tp3809
a(S'aux'
p3810
S'let'
p3811
S'would'
p3812
tp3813
a(S'neg'
p3814
S'let'
p3815
S'not'
p3816
tp3817
a(S'dobj'
p3818
S'let'
p3819
S'him'
p3820
tp3821
a(S'prep'
p3822
S'let'
p3823
S'in'
p3824
tp3825
a(S'advmod'
p3826
S'let'
p3827
S'then'
p3828
tp3829
a(S'nsubj'
p3830
S'tried'
p3831
S'he'
p3832
tp3833
a(S'ccomp'
p3834
S'let'
p3835
S'tried'
p3836
tp3837
a(S'aux'
p3838
S'catch'
p3839
S'to'
p3840
tp3841
a(S'xcomp'
p3842
S'tried'
p3843
S'catch'
p3844
tp3845
a(S'det'
p3846
S'flight'
p3847
g1399
tp3848
a(S'dobj'
p3849
S'catch'
p3850
S'flight'
p3851
tp3852
a(S'advmod'
p3853
S'catch'
p3854
S'out'
p3855
tp3856
a(S'conj_but'
p3857
S'tried'
p3858
S'missed'
p3859
tp3860
a(S'det'
p3861
S'plane'
p3862
S'the'
p3863
tp3864
a(S'dobj'
p3865
S'missed'
p3866
S'plane'
p3867
tp3868
asg45
(lp3869
(g3798
S'ROOT-0'
p3870
S'let-5'
p3871
tp3872
a(g3802
S'officials-2'
p3873
S'Immigration-1'
p3874
tp3875
a(g3806
S'let-5'
p3876
S'officials-2'
p3877
tp3878
a(g3810
S'let-5'
p3879
S'would-3'
p3880
tp3881
a(g3814
S'let-5'
p3882
S'not-4'
p3883
tp3884
a(g3818
S'let-5'
p3885
S'him-6'
p3886
tp3887
a(g3822
S'let-5'
p3888
S'in-7'
p3889
tp3890
a(g3826
S'let-5'
p3891
S'then-9'
p3892
tp3893
a(g3830
S'tried-11'
p3894
S'he-10'
p3895
tp3896
a(g3834
S'let-5'
p3897
S'tried-11'
p3898
tp3899
a(g3838
S'catch-13'
p3900
S'to-12'
p3901
tp3902
a(g3842
S'tried-11'
p3903
S'catch-13'
p3904
tp3905
a(g3846
S'flight-15'
p3906
S'a-14'
p3907
tp3908
a(g3849
S'catch-13'
p3909
S'flight-15'
p3910
tp3911
a(g3853
S'catch-13'
p3912
S'out-16'
p3913
tp3914
a(g3857
S'tried-11'
p3915
S'missed-18'
p3916
tp3917
a(g3861
S'plane-20'
p3918
S'the-19'
p3919
tp3920
a(g3865
S'missed-18'
p3921
S'plane-20'
p3922
tp3923
asg71
(lp3924
(S'Immigration'
p3925
(dp3926
S'NamedEntityTag'
p3927
g102
sS'CharacterOffsetEnd'
p3928
S'933'
p3929
sS'Lemma'
p3930
S'Immigration'
p3931
sS'PartOfSpeech'
p3932
S'NNP'
p3933
sS'CharacterOffsetBegin'
p3934
S'922'
p3935
stp3936
a(S'officials'
p3937
(dp3938
S'NamedEntityTag'
p3939
g102
sS'CharacterOffsetEnd'
p3940
S'943'
p3941
sS'Lemma'
p3942
S'official'
p3943
sS'PartOfSpeech'
p3944
S'NNS'
p3945
sS'CharacterOffsetBegin'
p3946
S'934'
p3947
stp3948
a(S'would'
p3949
(dp3950
S'NamedEntityTag'
p3951
g102
sS'CharacterOffsetEnd'
p3952
S'949'
p3953
sS'Lemma'
p3954
S'would'
p3955
sS'PartOfSpeech'
p3956
S'MD'
p3957
sS'CharacterOffsetBegin'
p3958
S'944'
p3959
stp3960
a(S'not'
p3961
(dp3962
S'NamedEntityTag'
p3963
g102
sS'CharacterOffsetEnd'
p3964
S'953'
p3965
sS'Lemma'
p3966
S'not'
p3967
sS'PartOfSpeech'
p3968
S'RB'
p3969
sS'CharacterOffsetBegin'
p3970
S'950'
p3971
stp3972
a(S'let'
p3973
(dp3974
S'NamedEntityTag'
p3975
g102
sS'CharacterOffsetEnd'
p3976
S'957'
p3977
sS'Lemma'
p3978
S'let'
p3979
sS'PartOfSpeech'
p3980
S'VB'
p3981
sS'CharacterOffsetBegin'
p3982
S'954'
p3983
stp3984
a(S'him'
p3985
(dp3986
S'NamedEntityTag'
p3987
g102
sS'CharacterOffsetEnd'
p3988
S'961'
p3989
sS'Lemma'
p3990
S'he'
p3991
sS'PartOfSpeech'
p3992
S'PRP'
p3993
sS'CharacterOffsetBegin'
p3994
S'958'
p3995
stp3996
a(S'in'
p3997
(dp3998
S'NamedEntityTag'
p3999
g102
sS'CharacterOffsetEnd'
p4000
S'964'
p4001
sS'Lemma'
p4002
S'in'
p4003
sS'PartOfSpeech'
p4004
S'IN'
p4005
sS'CharacterOffsetBegin'
p4006
S'962'
p4007
stp4008
a(g534
(dp4009
S'NamedEntityTag'
p4010
g102
sS'CharacterOffsetEnd'
p4011
S'965'
p4012
sS'Lemma'
p4013
g534
sS'PartOfSpeech'
p4014
g534
sS'CharacterOffsetBegin'
p4015
S'964'
p4016
stp4017
a(S'then'
p4018
(dp4019
S'NamedEntityTag'
p4020
g102
sS'CharacterOffsetEnd'
p4021
S'970'
p4022
sS'Lemma'
p4023
S'then'
p4024
sS'PartOfSpeech'
p4025
S'RB'
p4026
sS'CharacterOffsetBegin'
p4027
S'966'
p4028
stp4029
a(S'he'
p4030
(dp4031
S'NamedEntityTag'
p4032
g102
sS'CharacterOffsetEnd'
p4033
S'973'
p4034
sS'Lemma'
p4035
S'he'
p4036
sS'PartOfSpeech'
p4037
S'PRP'
p4038
sS'CharacterOffsetBegin'
p4039
S'971'
p4040
stp4041
a(S'tried'
p4042
(dp4043
S'NamedEntityTag'
p4044
g102
sS'CharacterOffsetEnd'
p4045
S'979'
p4046
sS'Lemma'
p4047
S'try'
p4048
sS'PartOfSpeech'
p4049
S'VBD'
p4050
sS'CharacterOffsetBegin'
p4051
S'974'
p4052
stp4053
a(S'to'
p4054
(dp4055
S'NamedEntityTag'
p4056
g102
sS'CharacterOffsetEnd'
p4057
S'982'
p4058
sS'Lemma'
p4059
S'to'
p4060
sS'PartOfSpeech'
p4061
S'TO'
p4062
sS'CharacterOffsetBegin'
p4063
S'980'
p4064
stp4065
a(S'catch'
p4066
(dp4067
S'NamedEntityTag'
p4068
g102
sS'CharacterOffsetEnd'
p4069
S'988'
p4070
sS'Lemma'
p4071
S'catch'
p4072
sS'PartOfSpeech'
p4073
S'VB'
p4074
sS'CharacterOffsetBegin'
p4075
S'983'
p4076
stp4077
a(g1399
(dp4078
S'NamedEntityTag'
p4079
g102
sS'CharacterOffsetEnd'
p4080
S'990'
p4081
sS'Lemma'
p4082
g1399
sS'PartOfSpeech'
p4083
S'DT'
p4084
sS'CharacterOffsetBegin'
p4085
S'989'
p4086
stp4087
a(S'flight'
p4088
(dp4089
S'NamedEntityTag'
p4090
g102
sS'CharacterOffsetEnd'
p4091
S'997'
p4092
sS'Lemma'
p4093
S'flight'
p4094
sS'PartOfSpeech'
p4095
S'NN'
p4096
sS'CharacterOffsetBegin'
p4097
S'991'
p4098
stp4099
a(S'out'
p4100
(dp4101
S'NamedEntityTag'
p4102
g102
sS'CharacterOffsetEnd'
p4103
S'1001'
p4104
sS'Lemma'
p4105
S'out'
p4106
sS'PartOfSpeech'
p4107
S'IN'
p4108
sS'CharacterOffsetBegin'
p4109
S'998'
p4110
stp4111
a(S'but'
p4112
(dp4113
S'NamedEntityTag'
p4114
g102
sS'CharacterOffsetEnd'
p4115
S'1005'
p4116
sS'Lemma'
p4117
S'but'
p4118
sS'PartOfSpeech'
p4119
S'CC'
p4120
sS'CharacterOffsetBegin'
p4121
S'1002'
p4122
stp4123
a(S'missed'
p4124
(dp4125
S'NamedEntityTag'
p4126
g102
sS'CharacterOffsetEnd'
p4127
S'1012'
p4128
sS'Lemma'
p4129
S'miss'
p4130
sS'PartOfSpeech'
p4131
S'VBD'
p4132
sS'CharacterOffsetBegin'
p4133
S'1006'
p4134
stp4135
a(S'the'
p4136
(dp4137
S'NamedEntityTag'
p4138
g102
sS'CharacterOffsetEnd'
p4139
S'1016'
p4140
sS'Lemma'
p4141
S'the'
p4142
sS'PartOfSpeech'
p4143
S'DT'
p4144
sS'CharacterOffsetBegin'
p4145
S'1013'
p4146
stp4147
a(S'plane'
p4148
(dp4149
S'NamedEntityTag'
p4150
g102
sS'CharacterOffsetEnd'
p4151
S'1022'
p4152
sS'Lemma'
p4153
S'plane'
p4154
sS'PartOfSpeech'
p4155
S'NN'
p4156
sS'CharacterOffsetBegin'
p4157
S'1017'
p4158
stp4159
a(g398
(dp4160
S'NamedEntityTag'
p4161
g102
sS'CharacterOffsetEnd'
p4162
S'1023'
p4163
sS'Lemma'
p4164
g398
sS'PartOfSpeech'
p4165
g398
sS'CharacterOffsetBegin'
p4166
S'1022'
p4167
stp4168
asa(dp4169
g7
S'(ROOT (S (ADVP (RB Eventually)) (, ,) (NP (DT the) (NNP Foreign) (NNP Ministry)) (VP (VP (VBD intervened)) (CC and) (VP (VBD let) (S (NP (NNP Ramos-Horta)) (VP (VB enter) (NP (NNP Taiwan)))))) (. .)))'
p4170
sg9
S'Eventually, the Foreign Ministry intervened and let Ramos-Horta enter Taiwan.'
p4171
sg11
(lp4172
(S'root'
p4173
S'ROOT'
p4174
S'intervened'
p4175
tp4176
a(S'advmod'
p4177
S'intervened'
p4178
S'Eventually'
p4179
tp4180
a(S'det'
p4181
S'Ministry'
p4182
S'the'
p4183
tp4184
a(S'nn'
p4185
S'Ministry'
p4186
S'Foreign'
p4187
tp4188
a(S'nsubj'
p4189
S'intervened'
p4190
S'Ministry'
p4191
tp4192
a(S'conj_and'
p4193
S'intervened'
p4194
S'let'
p4195
tp4196
a(S'nsubj'
p4197
S'enter'
p4198
S'Ramos-Horta'
p4199
tp4200
a(S'ccomp'
p4201
S'let'
p4202
S'enter'
p4203
tp4204
a(S'dobj'
p4205
S'enter'
p4206
S'Taiwan'
p4207
tp4208
asg45
(lp4209
(g4173
S'ROOT-0'
p4210
S'intervened-6'
p4211
tp4212
a(g4177
S'intervened-6'
p4213
S'Eventually-1'
p4214
tp4215
a(g4181
S'Ministry-5'
p4216
S'the-3'
p4217
tp4218
a(g4185
S'Ministry-5'
p4219
S'Foreign-4'
p4220
tp4221
a(g4189
S'intervened-6'
p4222
S'Ministry-5'
p4223
tp4224
a(g4193
S'intervened-6'
p4225
S'let-8'
p4226
tp4227
a(g4197
S'enter-10'
p4228
S'Ramos-Horta-9'
p4229
tp4230
a(g4201
S'let-8'
p4231
S'enter-10'
p4232
tp4233
a(g4205
S'enter-10'
p4234
S'Taiwan-11'
p4235
tp4236
asg71
(lp4237
(S'Eventually'
p4238
(dp4239
S'NamedEntityTag'
p4240
g102
sS'CharacterOffsetEnd'
p4241
S'1034'
p4242
sS'Lemma'
p4243
S'eventually'
p4244
sS'PartOfSpeech'
p4245
S'RB'
p4246
sS'CharacterOffsetBegin'
p4247
S'1024'
p4248
stp4249
a(g534
(dp4250
S'NamedEntityTag'
p4251
g102
sS'CharacterOffsetEnd'
p4252
S'1035'
p4253
sS'Lemma'
p4254
g534
sS'PartOfSpeech'
p4255
g534
sS'CharacterOffsetBegin'
p4256
S'1034'
p4257
stp4258
a(S'the'
p4259
(dp4260
S'NamedEntityTag'
p4261
g102
sS'CharacterOffsetEnd'
p4262
S'1039'
p4263
sS'Lemma'
p4264
S'the'
p4265
sS'PartOfSpeech'
p4266
S'DT'
p4267
sS'CharacterOffsetBegin'
p4268
S'1036'
p4269
stp4270
a(S'Foreign'
p4271
(dp4272
S'NamedEntityTag'
p4273
S'ORGANIZATION'
p4274
sS'CharacterOffsetEnd'
p4275
S'1047'
p4276
sS'Lemma'
p4277
S'Foreign'
p4278
sS'PartOfSpeech'
p4279
S'NNP'
p4280
sS'CharacterOffsetBegin'
p4281
S'1040'
p4282
stp4283
a(S'Ministry'
p4284
(dp4285
S'NamedEntityTag'
p4286
S'ORGANIZATION'
p4287
sS'CharacterOffsetEnd'
p4288
S'1056'
p4289
sS'Lemma'
p4290
S'Ministry'
p4291
sS'PartOfSpeech'
p4292
S'NNP'
p4293
sS'CharacterOffsetBegin'
p4294
S'1048'
p4295
stp4296
a(S'intervened'
p4297
(dp4298
S'NamedEntityTag'
p4299
g102
sS'CharacterOffsetEnd'
p4300
S'1067'
p4301
sS'Lemma'
p4302
S'intervene'
p4303
sS'PartOfSpeech'
p4304
S'VBD'
p4305
sS'CharacterOffsetBegin'
p4306
S'1057'
p4307
stp4308
a(S'and'
p4309
(dp4310
S'NamedEntityTag'
p4311
g102
sS'CharacterOffsetEnd'
p4312
S'1071'
p4313
sS'Lemma'
p4314
S'and'
p4315
sS'PartOfSpeech'
p4316
S'CC'
p4317
sS'CharacterOffsetBegin'
p4318
S'1068'
p4319
stp4320
a(S'let'
p4321
(dp4322
S'NamedEntityTag'
p4323
g102
sS'CharacterOffsetEnd'
p4324
S'1075'
p4325
sS'Lemma'
p4326
S'let'
p4327
sS'PartOfSpeech'
p4328
S'VBD'
p4329
sS'CharacterOffsetBegin'
p4330
S'1072'
p4331
stp4332
a(S'Ramos-Horta'
p4333
(dp4334
S'NamedEntityTag'
p4335
S'PERSON'
p4336
sS'CharacterOffsetEnd'
p4337
S'1087'
p4338
sS'Lemma'
p4339
S'Ramos-Horta'
p4340
sS'PartOfSpeech'
p4341
S'NNP'
p4342
sS'CharacterOffsetBegin'
p4343
S'1076'
p4344
stp4345
a(S'enter'
p4346
(dp4347
S'NamedEntityTag'
p4348
g102
sS'CharacterOffsetEnd'
p4349
S'1093'
p4350
sS'Lemma'
p4351
S'enter'
p4352
sS'PartOfSpeech'
p4353
S'VB'
p4354
sS'CharacterOffsetBegin'
p4355
S'1088'
p4356
stp4357
a(S'Taiwan'
p4358
(dp4359
S'NamedEntityTag'
p4360
S'LOCATION'
p4361
sS'CharacterOffsetEnd'
p4362
S'1100'
p4363
sS'Lemma'
p4364
S'Taiwan'
p4365
sS'PartOfSpeech'
p4366
S'NNP'
p4367
sS'CharacterOffsetBegin'
p4368
S'1094'
p4369
stp4370
a(g398
(dp4371
S'NamedEntityTag'
p4372
g102
sS'CharacterOffsetEnd'
p4373
S'1101'
p4374
sS'Lemma'
p4375
g398
sS'PartOfSpeech'
p4376
g398
sS'CharacterOffsetBegin'
p4377
S'1100'
p4378
stp4379
asa(dp4380
g7
S'(ROOT (S (NP (PRP He)) (VP (VBD went) (ADVP (RB only) (RB as) (RB far)) (PP (IN as) (NP (DT the) (NN airport) (NN hotel)))) (. .)))'
p4381
sg9
S'He went only as far as the airport hotel.'
p4382
sg11
(lp4383
(S'root'
p4384
S'ROOT'
p4385
S'went'
p4386
tp4387
a(S'nsubj'
p4388
S'went'
p4389
S'He'
p4390
tp4391
a(S'advmod'
p4392
S'far'
p4393
S'only'
p4394
tp4395
a(S'advmod'
p4396
S'far'
p4397
S'as'
p4398
tp4399
a(S'advmod'
p4400
S'went'
p4401
S'far'
p4402
tp4403
a(S'det'
p4404
S'hotel'
p4405
S'the'
p4406
tp4407
a(S'nn'
p4408
S'hotel'
p4409
S'airport'
p4410
tp4411
a(S'prep_as'
p4412
S'went'
p4413
S'hotel'
p4414
tp4415
asg45
(lp4416
(g4384
S'ROOT-0'
p4417
S'went-2'
p4418
tp4419
a(g4388
S'went-2'
p4420
S'He-1'
p4421
tp4422
a(g4392
S'far-5'
p4423
S'only-3'
p4424
tp4425
a(g4396
S'far-5'
p4426
S'as-4'
p4427
tp4428
a(g4400
S'went-2'
p4429
S'far-5'
p4430
tp4431
a(g4404
S'hotel-9'
p4432
S'the-7'
p4433
tp4434
a(g4408
S'hotel-9'
p4435
S'airport-8'
p4436
tp4437
a(g4412
S'went-2'
p4438
S'hotel-9'
p4439
tp4440
asg71
(lp4441
(S'He'
p4442
(dp4443
S'NamedEntityTag'
p4444
g102
sS'CharacterOffsetEnd'
p4445
S'1104'
p4446
sS'Lemma'
p4447
S'he'
p4448
sS'PartOfSpeech'
p4449
S'PRP'
p4450
sS'CharacterOffsetBegin'
p4451
S'1102'
p4452
stp4453
a(S'went'
p4454
(dp4455
S'NamedEntityTag'
p4456
g102
sS'CharacterOffsetEnd'
p4457
S'1109'
p4458
sS'Lemma'
p4459
S'go'
p4460
sS'PartOfSpeech'
p4461
S'VBD'
p4462
sS'CharacterOffsetBegin'
p4463
S'1105'
p4464
stp4465
a(S'only'
p4466
(dp4467
S'NamedEntityTag'
p4468
g102
sS'CharacterOffsetEnd'
p4469
S'1114'
p4470
sS'Lemma'
p4471
S'only'
p4472
sS'PartOfSpeech'
p4473
S'RB'
p4474
sS'CharacterOffsetBegin'
p4475
S'1110'
p4476
stp4477
a(S'as'
p4478
(dp4479
S'NamedEntityTag'
p4480
g102
sS'CharacterOffsetEnd'
p4481
S'1117'
p4482
sS'Lemma'
p4483
S'as'
p4484
sS'PartOfSpeech'
p4485
S'RB'
p4486
sS'CharacterOffsetBegin'
p4487
S'1115'
p4488
stp4489
a(S'far'
p4490
(dp4491
S'NamedEntityTag'
p4492
g102
sS'CharacterOffsetEnd'
p4493
S'1121'
p4494
sS'Lemma'
p4495
S'far'
p4496
sS'PartOfSpeech'
p4497
S'RB'
p4498
sS'CharacterOffsetBegin'
p4499
S'1118'
p4500
stp4501
a(S'as'
p4502
(dp4503
S'NamedEntityTag'
p4504
g102
sS'CharacterOffsetEnd'
p4505
S'1124'
p4506
sS'Lemma'
p4507
S'as'
p4508
sS'PartOfSpeech'
p4509
S'IN'
p4510
sS'CharacterOffsetBegin'
p4511
S'1122'
p4512
stp4513
a(S'the'
p4514
(dp4515
S'NamedEntityTag'
p4516
g102
sS'CharacterOffsetEnd'
p4517
S'1128'
p4518
sS'Lemma'
p4519
S'the'
p4520
sS'PartOfSpeech'
p4521
S'DT'
p4522
sS'CharacterOffsetBegin'
p4523
S'1125'
p4524
stp4525
a(S'airport'
p4526
(dp4527
S'NamedEntityTag'
p4528
g102
sS'CharacterOffsetEnd'
p4529
S'1136'
p4530
sS'Lemma'
p4531
S'airport'
p4532
sS'PartOfSpeech'
p4533
S'NN'
p4534
sS'CharacterOffsetBegin'
p4535
S'1129'
p4536
stp4537
a(S'hotel'
p4538
(dp4539
S'NamedEntityTag'
p4540
g102
sS'CharacterOffsetEnd'
p4541
S'1142'
p4542
sS'Lemma'
p4543
S'hotel'
p4544
sS'PartOfSpeech'
p4545
S'NN'
p4546
sS'CharacterOffsetBegin'
p4547
S'1137'
p4548
stp4549
a(g398
(dp4550
S'NamedEntityTag'
p4551
g102
sS'CharacterOffsetEnd'
p4552
S'1143'
p4553
sS'Lemma'
p4554
g398
sS'PartOfSpeech'
p4555
g398
sS'CharacterOffsetBegin'
p4556
S'1142'
p4557
stp4558
asa(dp4559
g7
S'(ROOT (S (NP (VBG Conflicting) (NNS reports)) (VP (VBP indicate) (SBAR (S (NP (NNP Ramos-Horta)) (VP (VBD was) (VP (VBN stuck) (PP (IN at) (NP (NP (DT the) (NN airport)) (PP (IN for) (NP (QP (NP (IN between) (CD four)) (CC and) (NP (CD seven))) (NNS hours)))))))))) (. .)))'
p4560
sg9
S'Conflicting reports indicate Ramos-Horta was stuck at the airport for between four and seven hours.'
p4561
sg11
(lp4562
(S'root'
p4563
S'ROOT'
p4564
S'indicate'
p4565
tp4566
a(S'amod'
p4567
S'reports'
p4568
S'Conflicting'
p4569
tp4570
a(S'nsubj'
p4571
S'indicate'
p4572
S'reports'
p4573
tp4574
a(S'nsubjpass'
p4575
S'stuck'
p4576
S'Ramos-Horta'
p4577
tp4578
a(S'auxpass'
p4579
S'stuck'
p4580
S'was'
p4581
tp4582
a(S'ccomp'
p4583
S'indicate'
p4584
S'stuck'
p4585
tp4586
a(S'det'
p4587
S'airport'
p4588
S'the'
p4589
tp4590
a(S'prep_at'
p4591
S'stuck'
p4592
S'airport'
p4593
tp4594
a(S'amod'
p4595
S'four'
p4596
S'between'
p4597
tp4598
a(S'num'
p4599
S'hours'
p4600
S'four'
p4601
tp4602
a(S'conj_and'
p4603
S'four'
p4604
S'seven'
p4605
tp4606
a(S'prep_for'
p4607
S'airport'
p4608
S'hours'
p4609
tp4610
asg45
(lp4611
(g4563
S'ROOT-0'
p4612
S'indicate-3'
p4613
tp4614
a(g4567
S'reports-2'
p4615
S'Conflicting-1'
p4616
tp4617
a(g4571
S'indicate-3'
p4618
S'reports-2'
p4619
tp4620
a(g4575
S'stuck-6'
p4621
S'Ramos-Horta-4'
p4622
tp4623
a(g4579
S'stuck-6'
p4624
S'was-5'
p4625
tp4626
a(g4583
S'indicate-3'
p4627
S'stuck-6'
p4628
tp4629
a(g4587
S'airport-9'
p4630
S'the-8'
p4631
tp4632
a(g4591
S'stuck-6'
p4633
S'airport-9'
p4634
tp4635
a(g4595
S'four-12'
p4636
S'between-11'
p4637
tp4638
a(g4599
S'hours-15'
p4639
S'four-12'
p4640
tp4641
a(g4603
S'four-12'
p4642
S'seven-14'
p4643
tp4644
a(g4607
S'airport-9'
p4645
S'hours-15'
p4646
tp4647
asg71
(lp4648
(S'Conflicting'
p4649
(dp4650
S'NamedEntityTag'
p4651
g102
sS'CharacterOffsetEnd'
p4652
S'1155'
p4653
sS'Lemma'
p4654
S'conflict'
p4655
sS'PartOfSpeech'
p4656
S'VBG'
p4657
sS'CharacterOffsetBegin'
p4658
S'1144'
p4659
stp4660
a(S'reports'
p4661
(dp4662
S'NamedEntityTag'
p4663
g102
sS'CharacterOffsetEnd'
p4664
S'1163'
p4665
sS'Lemma'
p4666
S'report'
p4667
sS'PartOfSpeech'
p4668
S'NNS'
p4669
sS'CharacterOffsetBegin'
p4670
S'1156'
p4671
stp4672
a(S'indicate'
p4673
(dp4674
S'NamedEntityTag'
p4675
g102
sS'CharacterOffsetEnd'
p4676
S'1172'
p4677
sS'Lemma'
p4678
S'indicate'
p4679
sS'PartOfSpeech'
p4680
S'VBP'
p4681
sS'CharacterOffsetBegin'
p4682
S'1164'
p4683
stp4684
a(S'Ramos-Horta'
p4685
(dp4686
S'NamedEntityTag'
p4687
S'PERSON'
p4688
sS'CharacterOffsetEnd'
p4689
S'1184'
p4690
sS'Lemma'
p4691
S'Ramos-Horta'
p4692
sS'PartOfSpeech'
p4693
S'NNP'
p4694
sS'CharacterOffsetBegin'
p4695
S'1173'
p4696
stp4697
a(S'was'
p4698
(dp4699
S'NamedEntityTag'
p4700
g102
sS'CharacterOffsetEnd'
p4701
S'1188'
p4702
sS'Lemma'
p4703
S'be'
p4704
sS'PartOfSpeech'
p4705
S'VBD'
p4706
sS'CharacterOffsetBegin'
p4707
S'1185'
p4708
stp4709
a(S'stuck'
p4710
(dp4711
S'NamedEntityTag'
p4712
g102
sS'CharacterOffsetEnd'
p4713
S'1194'
p4714
sS'Lemma'
p4715
S'stick'
p4716
sS'PartOfSpeech'
p4717
S'VBN'
p4718
sS'CharacterOffsetBegin'
p4719
S'1189'
p4720
stp4721
a(S'at'
p4722
(dp4723
S'NamedEntityTag'
p4724
g102
sS'CharacterOffsetEnd'
p4725
S'1197'
p4726
sS'Lemma'
p4727
S'at'
p4728
sS'PartOfSpeech'
p4729
S'IN'
p4730
sS'CharacterOffsetBegin'
p4731
S'1195'
p4732
stp4733
a(S'the'
p4734
(dp4735
S'NamedEntityTag'
p4736
g102
sS'CharacterOffsetEnd'
p4737
S'1201'
p4738
sS'Lemma'
p4739
S'the'
p4740
sS'PartOfSpeech'
p4741
S'DT'
p4742
sS'CharacterOffsetBegin'
p4743
S'1198'
p4744
stp4745
a(S'airport'
p4746
(dp4747
S'NamedEntityTag'
p4748
g102
sS'CharacterOffsetEnd'
p4749
S'1209'
p4750
sS'Lemma'
p4751
S'airport'
p4752
sS'PartOfSpeech'
p4753
S'NN'
p4754
sS'CharacterOffsetBegin'
p4755
S'1202'
p4756
stp4757
a(S'for'
p4758
(dp4759
S'NamedEntityTag'
p4760
g102
sS'CharacterOffsetEnd'
p4761
S'1213'
p4762
sS'Lemma'
p4763
S'for'
p4764
sS'PartOfSpeech'
p4765
S'IN'
p4766
sS'CharacterOffsetBegin'
p4767
S'1210'
p4768
stp4769
a(S'between'
p4770
(dp4771
S'NamedEntityTag'
p4772
g102
sS'CharacterOffsetEnd'
p4773
S'1221'
p4774
sS'Lemma'
p4775
S'between'
p4776
sS'PartOfSpeech'
p4777
S'IN'
p4778
sS'CharacterOffsetBegin'
p4779
S'1214'
p4780
stp4781
a(S'four'
p4782
(dp4783
S'NormalizedNamedEntityTag'
p4784
S'4.0'
p4785
sS'Lemma'
p4786
S'four'
p4787
sS'CharacterOffsetEnd'
p4788
S'1226'
p4789
sS'PartOfSpeech'
p4790
S'CD'
p4791
sS'CharacterOffsetBegin'
p4792
S'1222'
p4793
sS'NamedEntityTag'
p4794
S'NUMBER'
p4795
stp4796
a(S'and'
p4797
(dp4798
S'NamedEntityTag'
p4799
g102
sS'CharacterOffsetEnd'
p4800
S'1230'
p4801
sS'Lemma'
p4802
S'and'
p4803
sS'PartOfSpeech'
p4804
S'CC'
p4805
sS'CharacterOffsetBegin'
p4806
S'1227'
p4807
stp4808
a(S'seven'
p4809
(dp4810
S'NormalizedNamedEntityTag'
p4811
S'PT7H'
p4812
sS'Timex'
p4813
S'<TIMEX3 tid="t7" type="DURATION" value="PT7H">seven hours</TIMEX3>'
p4814
sS'Lemma'
p4815
S'seven'
p4816
sS'CharacterOffsetEnd'
p4817
S'1236'
p4818
sS'PartOfSpeech'
p4819
S'CD'
p4820
sS'CharacterOffsetBegin'
p4821
S'1231'
p4822
sS'NamedEntityTag'
p4823
S'DURATION'
p4824
stp4825
a(S'hours'
p4826
(dp4827
S'NormalizedNamedEntityTag'
p4828
S'PT7H'
p4829
sS'Timex'
p4830
S'<TIMEX3 tid="t7" type="DURATION" value="PT7H">seven hours</TIMEX3>'
p4831
sS'Lemma'
p4832
S'hour'
p4833
sS'CharacterOffsetEnd'
p4834
S'1242'
p4835
sS'PartOfSpeech'
p4836
S'NNS'
p4837
sS'CharacterOffsetBegin'
p4838
S'1237'
p4839
sS'NamedEntityTag'
p4840
S'DURATION'
p4841
stp4842
a(g398
(dp4843
S'NamedEntityTag'
p4844
g102
sS'CharacterOffsetEnd'
p4845
S'1243'
p4846
sS'Lemma'
p4847
g398
sS'PartOfSpeech'
p4848
g398
sS'CharacterOffsetBegin'
p4849
S'1242'
p4850
stp4851
asa(dp4852
g7
S'(ROOT (S (S (NP (NNP Ramos-Horta)) (VP (VBD was) (VP (VBG carrying) (NP (NP (DT a) (JJ Portuguese) (NN passport)) (, ,) (SBAR (WHNP (WDT which)) (S (VP (MD should) (VP (VB have) (VP (VBN permitted) (NP (PRP him) (JJ visa-free) (NN entry)) (PP (TO to) (NP (NP (NNP Taiwan)) (PP (IN for) (NP (QP (RB up) (TO to) (CD 14)) (NNS days)))))))))))))) (, ,) (NP (NNS newspapers)) (VP (VBD said)) (. .)))'
p4853
sg9
S'Ramos-Horta was carrying a Portuguese passport, which should have permitted him visa-free entry to Taiwan for up to 14 days, newspapers said.'
p4854
sg11
(lp4855
(S'root'
p4856
S'ROOT'
p4857
S'said'
p4858
tp4859
a(S'nsubj'
p4860
S'carrying'
p4861
S'Ramos-Horta'
p4862
tp4863
a(S'aux'
p4864
S'carrying'
p4865
S'was'
p4866
tp4867
a(S'ccomp'
p4868
S'said'
p4869
S'carrying'
p4870
tp4871
a(S'det'
p4872
S'passport'
p4873
g1399
tp4874
a(S'amod'
p4875
S'passport'
p4876
S'Portuguese'
p4877
tp4878
a(S'dobj'
p4879
S'carrying'
p4880
S'passport'
p4881
tp4882
a(S'nsubj'
p4883
S'permitted'
p4884
S'which'
p4885
tp4886
a(S'aux'
p4887
S'permitted'
p4888
S'should'
p4889
tp4890
a(S'aux'
p4891
S'permitted'
p4892
S'have'
p4893
tp4894
a(S'rcmod'
p4895
S'passport'
p4896
S'permitted'
p4897
tp4898
a(S'dep'
p4899
S'entry'
p4900
S'him'
p4901
tp4902
a(S'amod'
p4903
S'entry'
p4904
S'visa-free'
p4905
tp4906
a(S'dobj'
p4907
S'permitted'
p4908
S'entry'
p4909
tp4910
a(S'prep_to'
p4911
S'permitted'
p4912
S'Taiwan'
p4913
tp4914
a(S'quantmod'
p4915
S'14'
p4916
S'up'
p4917
tp4918
a(S'dep'
p4919
S'14'
p4920
S'to'
p4921
tp4922
a(S'num'
p4923
S'days'
p4924
S'14'
p4925
tp4926
a(S'prep_for'
p4927
S'Taiwan'
p4928
S'days'
p4929
tp4930
a(S'nsubj'
p4931
S'said'
p4932
S'newspapers'
p4933
tp4934
asg45
(lp4935
(g4856
S'ROOT-0'
p4936
S'said-24'
p4937
tp4938
a(g4860
S'carrying-3'
p4939
S'Ramos-Horta-1'
p4940
tp4941
a(g4864
S'carrying-3'
p4942
S'was-2'
p4943
tp4944
a(g4868
S'said-24'
p4945
S'carrying-3'
p4946
tp4947
a(g4872
S'passport-6'
p4948
S'a-4'
p4949
tp4950
a(g4875
S'passport-6'
p4951
S'Portuguese-5'
p4952
tp4953
a(g4879
S'carrying-3'
p4954
S'passport-6'
p4955
tp4956
a(g4883
S'permitted-11'
p4957
S'which-8'
p4958
tp4959
a(g4887
S'permitted-11'
p4960
S'should-9'
p4961
tp4962
a(g4891
S'permitted-11'
p4963
S'have-10'
p4964
tp4965
a(g4895
S'passport-6'
p4966
S'permitted-11'
p4967
tp4968
a(g4899
S'entry-14'
p4969
S'him-12'
p4970
tp4971
a(g4903
S'entry-14'
p4972
S'visa-free-13'
p4973
tp4974
a(g4907
S'permitted-11'
p4975
S'entry-14'
p4976
tp4977
a(g4911
S'permitted-11'
p4978
S'Taiwan-16'
p4979
tp4980
a(g4915
S'14-20'
p4981
S'up-18'
p4982
tp4983
a(g4919
S'14-20'
p4984
S'to-19'
p4985
tp4986
a(g4923
S'days-21'
p4987
S'14-20'
p4988
tp4989
a(g4927
S'Taiwan-16'
p4990
S'days-21'
p4991
tp4992
a(g4931
S'said-24'
p4993
S'newspapers-23'
p4994
tp4995
asg71
(lp4996
(S'Ramos-Horta'
p4997
(dp4998
S'NamedEntityTag'
p4999
S'PERSON'
p5000
sS'CharacterOffsetEnd'
p5001
S'1255'
p5002
sS'Lemma'
p5003
S'Ramos-Horta'
p5004
sS'PartOfSpeech'
p5005
S'NNP'
p5006
sS'CharacterOffsetBegin'
p5007
S'1244'
p5008
stp5009
a(S'was'
p5010
(dp5011
S'NamedEntityTag'
p5012
g102
sS'CharacterOffsetEnd'
p5013
S'1259'
p5014
sS'Lemma'
p5015
S'be'
p5016
sS'PartOfSpeech'
p5017
S'VBD'
p5018
sS'CharacterOffsetBegin'
p5019
S'1256'
p5020
stp5021
a(S'carrying'
p5022
(dp5023
S'NamedEntityTag'
p5024
g102
sS'CharacterOffsetEnd'
p5025
S'1268'
p5026
sS'Lemma'
p5027
S'carry'
p5028
sS'PartOfSpeech'
p5029
S'VBG'
p5030
sS'CharacterOffsetBegin'
p5031
S'1260'
p5032
stp5033
a(g1399
(dp5034
S'NamedEntityTag'
p5035
g102
sS'CharacterOffsetEnd'
p5036
S'1270'
p5037
sS'Lemma'
p5038
g1399
sS'PartOfSpeech'
p5039
S'DT'
p5040
sS'CharacterOffsetBegin'
p5041
S'1269'
p5042
stp5043
a(S'Portuguese'
p5044
(dp5045
S'NamedEntityTag'
p5046
S'LOCATION'
p5047
sS'CharacterOffsetEnd'
p5048
S'1281'
p5049
sS'Lemma'
p5050
S'portuguese'
p5051
sS'PartOfSpeech'
p5052
S'JJ'
p5053
sS'CharacterOffsetBegin'
p5054
S'1271'
p5055
stp5056
a(S'passport'
p5057
(dp5058
S'NamedEntityTag'
p5059
g102
sS'CharacterOffsetEnd'
p5060
S'1290'
p5061
sS'Lemma'
p5062
S'passport'
p5063
sS'PartOfSpeech'
p5064
S'NN'
p5065
sS'CharacterOffsetBegin'
p5066
S'1282'
p5067
stp5068
a(g534
(dp5069
S'NamedEntityTag'
p5070
g102
sS'CharacterOffsetEnd'
p5071
S'1291'
p5072
sS'Lemma'
p5073
g534
sS'PartOfSpeech'
p5074
g534
sS'CharacterOffsetBegin'
p5075
S'1290'
p5076
stp5077
a(S'which'
p5078
(dp5079
S'NamedEntityTag'
p5080
g102
sS'CharacterOffsetEnd'
p5081
S'1297'
p5082
sS'Lemma'
p5083
S'which'
p5084
sS'PartOfSpeech'
p5085
S'WDT'
p5086
sS'CharacterOffsetBegin'
p5087
S'1292'
p5088
stp5089
a(S'should'
p5090
(dp5091
S'NamedEntityTag'
p5092
g102
sS'CharacterOffsetEnd'
p5093
S'1304'
p5094
sS'Lemma'
p5095
S'should'
p5096
sS'PartOfSpeech'
p5097
S'MD'
p5098
sS'CharacterOffsetBegin'
p5099
S'1298'
p5100
stp5101
a(S'have'
p5102
(dp5103
S'NamedEntityTag'
p5104
g102
sS'CharacterOffsetEnd'
p5105
S'1309'
p5106
sS'Lemma'
p5107
S'have'
p5108
sS'PartOfSpeech'
p5109
S'VB'
p5110
sS'CharacterOffsetBegin'
p5111
S'1305'
p5112
stp5113
a(S'permitted'
p5114
(dp5115
S'NamedEntityTag'
p5116
g102
sS'CharacterOffsetEnd'
p5117
S'1319'
p5118
sS'Lemma'
p5119
S'permit'
p5120
sS'PartOfSpeech'
p5121
S'VBN'
p5122
sS'CharacterOffsetBegin'
p5123
S'1310'
p5124
stp5125
a(S'him'
p5126
(dp5127
S'NamedEntityTag'
p5128
g102
sS'CharacterOffsetEnd'
p5129
S'1323'
p5130
sS'Lemma'
p5131
S'he'
p5132
sS'PartOfSpeech'
p5133
S'PRP'
p5134
sS'CharacterOffsetBegin'
p5135
S'1320'
p5136
stp5137
a(S'visa-free'
p5138
(dp5139
S'NamedEntityTag'
p5140
g102
sS'CharacterOffsetEnd'
p5141
S'1333'
p5142
sS'Lemma'
p5143
S'visa-free'
p5144
sS'PartOfSpeech'
p5145
S'JJ'
p5146
sS'CharacterOffsetBegin'
p5147
S'1324'
p5148
stp5149
a(S'entry'
p5150
(dp5151
S'NamedEntityTag'
p5152
g102
sS'CharacterOffsetEnd'
p5153
S'1339'
p5154
sS'Lemma'
p5155
S'entry'
p5156
sS'PartOfSpeech'
p5157
S'NN'
p5158
sS'CharacterOffsetBegin'
p5159
S'1334'
p5160
stp5161
a(S'to'
p5162
(dp5163
S'NamedEntityTag'
p5164
g102
sS'CharacterOffsetEnd'
p5165
S'1342'
p5166
sS'Lemma'
p5167
S'to'
p5168
sS'PartOfSpeech'
p5169
S'TO'
p5170
sS'CharacterOffsetBegin'
p5171
S'1340'
p5172
stp5173
a(S'Taiwan'
p5174
(dp5175
S'NamedEntityTag'
p5176
S'LOCATION'
p5177
sS'CharacterOffsetEnd'
p5178
S'1349'
p5179
sS'Lemma'
p5180
S'Taiwan'
p5181
sS'PartOfSpeech'
p5182
S'NNP'
p5183
sS'CharacterOffsetBegin'
p5184
S'1343'
p5185
stp5186
a(S'for'
p5187
(dp5188
S'NamedEntityTag'
p5189
g102
sS'CharacterOffsetEnd'
p5190
S'1353'
p5191
sS'Lemma'
p5192
S'for'
p5193
sS'PartOfSpeech'
p5194
S'IN'
p5195
sS'CharacterOffsetBegin'
p5196
S'1350'
p5197
stp5198
a(S'up'
p5199
(dp5200
S'NormalizedNamedEntityTag'
p5201
S'P14D'
p5202
sS'Timex'
p5203
S'<TIMEX3 mod="EQUAL_OR_LESS" tid="t8" type="DURATION" value="P14D">up to 14 days</TIMEX3>'
p5204
sS'Lemma'
p5205
S'up'
p5206
sS'CharacterOffsetEnd'
p5207
S'1356'
p5208
sS'PartOfSpeech'
p5209
S'RB'
p5210
sS'CharacterOffsetBegin'
p5211
S'1354'
p5212
sS'NamedEntityTag'
p5213
S'DURATION'
p5214
stp5215
a(S'to'
p5216
(dp5217
S'NormalizedNamedEntityTag'
p5218
S'P14D'
p5219
sS'Timex'
p5220
S'<TIMEX3 mod="EQUAL_OR_LESS" tid="t8" type="DURATION" value="P14D">up to 14 days</TIMEX3>'
p5221
sS'Lemma'
p5222
S'to'
p5223
sS'CharacterOffsetEnd'
p5224
S'1359'
p5225
sS'PartOfSpeech'
p5226
S'TO'
p5227
sS'CharacterOffsetBegin'
p5228
S'1357'
p5229
sS'NamedEntityTag'
p5230
S'DURATION'
p5231
stp5232
a(S'14'
p5233
(dp5234
S'NormalizedNamedEntityTag'
p5235
S'P14D'
p5236
sS'Timex'
p5237
S'<TIMEX3 mod="EQUAL_OR_LESS" tid="t8" type="DURATION" value="P14D">up to 14 days</TIMEX3>'
p5238
sS'Lemma'
p5239
S'14'
p5240
sS'CharacterOffsetEnd'
p5241
S'1362'
p5242
sS'PartOfSpeech'
p5243
S'CD'
p5244
sS'CharacterOffsetBegin'
p5245
S'1360'
p5246
sS'NamedEntityTag'
p5247
S'DURATION'
p5248
stp5249
a(S'days'
p5250
(dp5251
S'NormalizedNamedEntityTag'
p5252
S'P14D'
p5253
sS'Timex'
p5254
S'<TIMEX3 mod="EQUAL_OR_LESS" tid="t8" type="DURATION" value="P14D">up to 14 days</TIMEX3>'
p5255
sS'Lemma'
p5256
S'day'
p5257
sS'CharacterOffsetEnd'
p5258
S'1367'
p5259
sS'PartOfSpeech'
p5260
S'NNS'
p5261
sS'CharacterOffsetBegin'
p5262
S'1363'
p5263
sS'NamedEntityTag'
p5264
S'DURATION'
p5265
stp5266
a(g534
(dp5267
S'NamedEntityTag'
p5268
g102
sS'CharacterOffsetEnd'
p5269
S'1368'
p5270
sS'Lemma'
p5271
g534
sS'PartOfSpeech'
p5272
g534
sS'CharacterOffsetBegin'
p5273
S'1367'
p5274
stp5275
a(S'newspapers'
p5276
(dp5277
S'NamedEntityTag'
p5278
g102
sS'CharacterOffsetEnd'
p5279
S'1379'
p5280
sS'Lemma'
p5281
S'newspaper'
p5282
sS'PartOfSpeech'
p5283
S'NNS'
p5284
sS'CharacterOffsetBegin'
p5285
S'1369'
p5286
stp5287
a(S'said'
p5288
(dp5289
S'NamedEntityTag'
p5290
g102
sS'CharacterOffsetEnd'
p5291
S'1384'
p5292
sS'Lemma'
p5293
S'say'
p5294
sS'PartOfSpeech'
p5295
S'VBD'
p5296
sS'CharacterOffsetBegin'
p5297
S'1380'
p5298
stp5299
a(g398
(dp5300
S'NamedEntityTag'
p5301
g102
sS'CharacterOffsetEnd'
p5302
S'1385'
p5303
sS'Lemma'
p5304
g398
sS'PartOfSpeech'
p5305
g398
sS'CharacterOffsetBegin'
p5306
S'1384'
p5307
stp5308
asa(dp5309
g7
S'(ROOT (S (NP (NP (DT The) (NN opposition)) (NP (JJ Democratic) (NNP Progressive) (NNP Party))) (VP (VBD alleged) (SBAR (S (NP (NNP Ramos-Horta)) (VP (VBD had) (VP (VBN been) (VP (VBN refused) (NP (NN entry)) (SBAR (IN because) (S (NP (PRP he)) (VP (VBD planned) (S (VP (TO to) (VP (VB speak) (PP (IN on) (NP (NP (NN behalf)) (PP (IN of) (NP (NNP Chen) (NNP Shui-bians) (NN campaign))))) (S (VP (TO to) (VP (VB be) (VP (VBN re-elected) (PP (IN as) (NP (NP (NN mayor)) (PP (IN of) (NP (NNP Taipei))))))))))))))))))))) (. .)))'
p5310
sg9
S'The opposition Democratic Progressive Party alleged Ramos-Horta had been refused entry because he planned to speak on behalf of Chen Shui-bians campaign to be re-elected as mayor of Taipei.'
p5311
sg11
(lp5312
(S'root'
p5313
S'ROOT'
p5314
S'alleged'
p5315
tp5316
a(S'det'
p5317
S'opposition'
p5318
S'The'
p5319
tp5320
a(S'nsubj'
p5321
S'alleged'
p5322
S'opposition'
p5323
tp5324
a(S'amod'
p5325
S'Party'
p5326
S'Democratic'
p5327
tp5328
a(S'nn'
p5329
S'Party'
p5330
S'Progressive'
p5331
tp5332
a(S'dep'
p5333
S'opposition'
p5334
S'Party'
p5335
tp5336
a(S'nsubjpass'
p5337
S'refused'
p5338
S'Ramos-Horta'
p5339
tp5340
a(S'aux'
p5341
S'refused'
p5342
S'had'
p5343
tp5344
a(S'auxpass'
p5345
S'refused'
p5346
S'been'
p5347
tp5348
a(S'ccomp'
p5349
S'alleged'
p5350
S'refused'
p5351
tp5352
a(S'dobj'
p5353
S'refused'
p5354
S'entry'
p5355
tp5356
a(S'mark'
p5357
S'planned'
p5358
S'because'
p5359
tp5360
a(S'nsubj'
p5361
S'planned'
p5362
S'he'
p5363
tp5364
a(S'advcl'
p5365
S'refused'
p5366
S'planned'
p5367
tp5368
a(S'aux'
p5369
S'speak'
p5370
S'to'
p5371
tp5372
a(S'xcomp'
p5373
S'planned'
p5374
S'speak'
p5375
tp5376
a(S'nn'
p5377
S'campaign'
p5378
S'Chen'
p5379
tp5380
a(S'nn'
p5381
S'campaign'
p5382
S'Shui-bians'
p5383
tp5384
a(S'prep_on_behalf_of'
p5385
S'speak'
p5386
S'campaign'
p5387
tp5388
a(S'aux'
p5389
S're-elected'
p5390
S'to'
p5391
tp5392
a(S'auxpass'
p5393
S're-elected'
p5394
S'be'
p5395
tp5396
a(S'xcomp'
p5397
S'speak'
p5398
S're-elected'
p5399
tp5400
a(S'prep_as'
p5401
S're-elected'
p5402
S'mayor'
p5403
tp5404
a(S'prep_of'
p5405
S'mayor'
p5406
S'Taipei'
p5407
tp5408
asg45
(lp5409
(g5313
S'ROOT-0'
p5410
S'alleged-6'
p5411
tp5412
a(g5317
S'opposition-2'
p5413
S'The-1'
p5414
tp5415
a(g5321
S'alleged-6'
p5416
S'opposition-2'
p5417
tp5418
a(g5325
S'Party-5'
p5419
S'Democratic-3'
p5420
tp5421
a(g5329
S'Party-5'
p5422
S'Progressive-4'
p5423
tp5424
a(g5333
S'opposition-2'
p5425
S'Party-5'
p5426
tp5427
a(g5337
S'refused-10'
p5428
S'Ramos-Horta-7'
p5429
tp5430
a(g5341
S'refused-10'
p5431
S'had-8'
p5432
tp5433
a(g5345
S'refused-10'
p5434
S'been-9'
p5435
tp5436
a(g5349
S'alleged-6'
p5437
S'refused-10'
p5438
tp5439
a(g5353
S'refused-10'
p5440
S'entry-11'
p5441
tp5442
a(g5357
S'planned-14'
p5443
S'because-12'
p5444
tp5445
a(g5361
S'planned-14'
p5446
S'he-13'
p5447
tp5448
a(g5365
S'refused-10'
p5449
S'planned-14'
p5450
tp5451
a(g5369
S'speak-16'
p5452
S'to-15'
p5453
tp5454
a(g5373
S'planned-14'
p5455
S'speak-16'
p5456
tp5457
a(g5377
S'campaign-22'
p5458
S'Chen-20'
p5459
tp5460
a(g5381
S'campaign-22'
p5461
S'Shui-bians-21'
p5462
tp5463
a(g5385
S'speak-16'
p5464
S'campaign-22'
p5465
tp5466
a(g5389
S're-elected-25'
p5467
S'to-23'
p5468
tp5469
a(g5393
S're-elected-25'
p5470
S'be-24'
p5471
tp5472
a(g5397
S'speak-16'
p5473
S're-elected-25'
p5474
tp5475
a(g5401
S're-elected-25'
p5476
S'mayor-27'
p5477
tp5478
a(g5405
S'mayor-27'
p5479
S'Taipei-29'
p5480
tp5481
asg71
(lp5482
(S'The'
p5483
(dp5484
S'NamedEntityTag'
p5485
g102
sS'CharacterOffsetEnd'
p5486
S'1389'
p5487
sS'Lemma'
p5488
S'the'
p5489
sS'PartOfSpeech'
p5490
S'DT'
p5491
sS'CharacterOffsetBegin'
p5492
S'1386'
p5493
stp5494
a(S'opposition'
p5495
(dp5496
S'NamedEntityTag'
p5497
g102
sS'CharacterOffsetEnd'
p5498
S'1400'
p5499
sS'Lemma'
p5500
S'opposition'
p5501
sS'PartOfSpeech'
p5502
S'NN'
p5503
sS'CharacterOffsetBegin'
p5504
S'1390'
p5505
stp5506
a(S'Democratic'
p5507
(dp5508
S'NamedEntityTag'
p5509
S'ORGANIZATION'
p5510
sS'CharacterOffsetEnd'
p5511
S'1411'
p5512
sS'Lemma'
p5513
S'democratic'
p5514
sS'PartOfSpeech'
p5515
S'JJ'
p5516
sS'CharacterOffsetBegin'
p5517
S'1401'
p5518
stp5519
a(S'Progressive'
p5520
(dp5521
S'NamedEntityTag'
p5522
S'ORGANIZATION'
p5523
sS'CharacterOffsetEnd'
p5524
S'1423'
p5525
sS'Lemma'
p5526
S'Progressive'
p5527
sS'PartOfSpeech'
p5528
S'NNP'
p5529
sS'CharacterOffsetBegin'
p5530
S'1412'
p5531
stp5532
a(S'Party'
p5533
(dp5534
S'NamedEntityTag'
p5535
S'ORGANIZATION'
p5536
sS'CharacterOffsetEnd'
p5537
S'1429'
p5538
sS'Lemma'
p5539
S'Party'
p5540
sS'PartOfSpeech'
p5541
S'NNP'
p5542
sS'CharacterOffsetBegin'
p5543
S'1424'
p5544
stp5545
a(S'alleged'
p5546
(dp5547
S'NamedEntityTag'
p5548
g102
sS'CharacterOffsetEnd'
p5549
S'1437'
p5550
sS'Lemma'
p5551
S'allege'
p5552
sS'PartOfSpeech'
p5553
S'VBD'
p5554
sS'CharacterOffsetBegin'
p5555
S'1430'
p5556
stp5557
a(S'Ramos-Horta'
p5558
(dp5559
S'NamedEntityTag'
p5560
S'PERSON'
p5561
sS'CharacterOffsetEnd'
p5562
S'1449'
p5563
sS'Lemma'
p5564
S'Ramos-Horta'
p5565
sS'PartOfSpeech'
p5566
S'NNP'
p5567
sS'CharacterOffsetBegin'
p5568
S'1438'
p5569
stp5570
a(S'had'
p5571
(dp5572
S'NamedEntityTag'
p5573
g102
sS'CharacterOffsetEnd'
p5574
S'1453'
p5575
sS'Lemma'
p5576
S'have'
p5577
sS'PartOfSpeech'
p5578
S'VBD'
p5579
sS'CharacterOffsetBegin'
p5580
S'1450'
p5581
stp5582
a(S'been'
p5583
(dp5584
S'NamedEntityTag'
p5585
g102
sS'CharacterOffsetEnd'
p5586
S'1458'
p5587
sS'Lemma'
p5588
S'be'
p5589
sS'PartOfSpeech'
p5590
S'VBN'
p5591
sS'CharacterOffsetBegin'
p5592
S'1454'
p5593
stp5594
a(S'refused'
p5595
(dp5596
S'NamedEntityTag'
p5597
g102
sS'CharacterOffsetEnd'
p5598
S'1466'
p5599
sS'Lemma'
p5600
S'refuse'
p5601
sS'PartOfSpeech'
p5602
S'VBN'
p5603
sS'CharacterOffsetBegin'
p5604
S'1459'
p5605
stp5606
a(S'entry'
p5607
(dp5608
S'NamedEntityTag'
p5609
g102
sS'CharacterOffsetEnd'
p5610
S'1472'
p5611
sS'Lemma'
p5612
S'entry'
p5613
sS'PartOfSpeech'
p5614
S'NN'
p5615
sS'CharacterOffsetBegin'
p5616
S'1467'
p5617
stp5618
a(S'because'
p5619
(dp5620
S'NamedEntityTag'
p5621
g102
sS'CharacterOffsetEnd'
p5622
S'1480'
p5623
sS'Lemma'
p5624
S'because'
p5625
sS'PartOfSpeech'
p5626
S'IN'
p5627
sS'CharacterOffsetBegin'
p5628
S'1473'
p5629
stp5630
a(S'he'
p5631
(dp5632
S'NamedEntityTag'
p5633
g102
sS'CharacterOffsetEnd'
p5634
S'1483'
p5635
sS'Lemma'
p5636
S'he'
p5637
sS'PartOfSpeech'
p5638
S'PRP'
p5639
sS'CharacterOffsetBegin'
p5640
S'1481'
p5641
stp5642
a(S'planned'
p5643
(dp5644
S'NamedEntityTag'
p5645
g102
sS'CharacterOffsetEnd'
p5646
S'1491'
p5647
sS'Lemma'
p5648
S'plan'
p5649
sS'PartOfSpeech'
p5650
S'VBD'
p5651
sS'CharacterOffsetBegin'
p5652
S'1484'
p5653
stp5654
a(S'to'
p5655
(dp5656
S'NamedEntityTag'
p5657
g102
sS'CharacterOffsetEnd'
p5658
S'1494'
p5659
sS'Lemma'
p5660
S'to'
p5661
sS'PartOfSpeech'
p5662
S'TO'
p5663
sS'CharacterOffsetBegin'
p5664
S'1492'
p5665
stp5666
a(S'speak'
p5667
(dp5668
S'NamedEntityTag'
p5669
g102
sS'CharacterOffsetEnd'
p5670
S'1500'
p5671
sS'Lemma'
p5672
S'speak'
p5673
sS'PartOfSpeech'
p5674
S'VB'
p5675
sS'CharacterOffsetBegin'
p5676
S'1495'
p5677
stp5678
a(S'on'
p5679
(dp5680
S'NamedEntityTag'
p5681
g102
sS'CharacterOffsetEnd'
p5682
S'1503'
p5683
sS'Lemma'
p5684
S'on'
p5685
sS'PartOfSpeech'
p5686
S'IN'
p5687
sS'CharacterOffsetBegin'
p5688
S'1501'
p5689
stp5690
a(S'behalf'
p5691
(dp5692
S'NamedEntityTag'
p5693
g102
sS'CharacterOffsetEnd'
p5694
S'1510'
p5695
sS'Lemma'
p5696
S'behalf'
p5697
sS'PartOfSpeech'
p5698
S'NN'
p5699
sS'CharacterOffsetBegin'
p5700
S'1504'
p5701
stp5702
a(S'of'
p5703
(dp5704
S'NamedEntityTag'
p5705
g102
sS'CharacterOffsetEnd'
p5706
S'1513'
p5707
sS'Lemma'
p5708
S'of'
p5709
sS'PartOfSpeech'
p5710
S'IN'
p5711
sS'CharacterOffsetBegin'
p5712
S'1511'
p5713
stp5714
a(S'Chen'
p5715
(dp5716
S'NamedEntityTag'
p5717
S'PERSON'
p5718
sS'CharacterOffsetEnd'
p5719
S'1518'
p5720
sS'Lemma'
p5721
S'Chen'
p5722
sS'PartOfSpeech'
p5723
S'NNP'
p5724
sS'CharacterOffsetBegin'
p5725
S'1514'
p5726
stp5727
a(S'Shui-bians'
p5728
(dp5729
S'NamedEntityTag'
p5730
S'PERSON'
p5731
sS'CharacterOffsetEnd'
p5732
S'1529'
p5733
sS'Lemma'
p5734
S'Shui-bians'
p5735
sS'PartOfSpeech'
p5736
S'NNP'
p5737
sS'CharacterOffsetBegin'
p5738
S'1519'
p5739
stp5740
a(S'campaign'
p5741
(dp5742
S'NamedEntityTag'
p5743
g102
sS'CharacterOffsetEnd'
p5744
S'1538'
p5745
sS'Lemma'
p5746
S'campaign'
p5747
sS'PartOfSpeech'
p5748
S'NN'
p5749
sS'CharacterOffsetBegin'
p5750
S'1530'
p5751
stp5752
a(S'to'
p5753
(dp5754
S'NamedEntityTag'
p5755
g102
sS'CharacterOffsetEnd'
p5756
S'1541'
p5757
sS'Lemma'
p5758
S'to'
p5759
sS'PartOfSpeech'
p5760
S'TO'
p5761
sS'CharacterOffsetBegin'
p5762
S'1539'
p5763
stp5764
a(S'be'
p5765
(dp5766
S'NamedEntityTag'
p5767
g102
sS'CharacterOffsetEnd'
p5768
S'1544'
p5769
sS'Lemma'
p5770
S'be'
p5771
sS'PartOfSpeech'
p5772
S'VB'
p5773
sS'CharacterOffsetBegin'
p5774
S'1542'
p5775
stp5776
a(S're-elected'
p5777
(dp5778
S'NamedEntityTag'
p5779
g102
sS'CharacterOffsetEnd'
p5780
S'1555'
p5781
sS'Lemma'
p5782
S're-elect'
p5783
sS'PartOfSpeech'
p5784
S'VBN'
p5785
sS'CharacterOffsetBegin'
p5786
S'1545'
p5787
stp5788
a(S'as'
p5789
(dp5790
S'NamedEntityTag'
p5791
g102
sS'CharacterOffsetEnd'
p5792
S'1558'
p5793
sS'Lemma'
p5794
S'as'
p5795
sS'PartOfSpeech'
p5796
S'IN'
p5797
sS'CharacterOffsetBegin'
p5798
S'1556'
p5799
stp5800
a(S'mayor'
p5801
(dp5802
S'NamedEntityTag'
p5803
g102
sS'CharacterOffsetEnd'
p5804
S'1564'
p5805
sS'Lemma'
p5806
S'mayor'
p5807
sS'PartOfSpeech'
p5808
S'NN'
p5809
sS'CharacterOffsetBegin'
p5810
S'1559'
p5811
stp5812
a(S'of'
p5813
(dp5814
S'NamedEntityTag'
p5815
g102
sS'CharacterOffsetEnd'
p5816
S'1567'
p5817
sS'Lemma'
p5818
S'of'
p5819
sS'PartOfSpeech'
p5820
S'IN'
p5821
sS'CharacterOffsetBegin'
p5822
S'1565'
p5823
stp5824
a(S'Taipei'
p5825
(dp5826
S'NamedEntityTag'
p5827
S'LOCATION'
p5828
sS'CharacterOffsetEnd'
p5829
S'1574'
p5830
sS'Lemma'
p5831
S'Taipei'
p5832
sS'PartOfSpeech'
p5833
S'NNP'
p5834
sS'CharacterOffsetBegin'
p5835
S'1568'
p5836
stp5837
a(g398
(dp5838
S'NamedEntityTag'
p5839
g102
sS'CharacterOffsetEnd'
p5840
S'1575'
p5841
sS'Lemma'
p5842
g398
sS'PartOfSpeech'
p5843
g398
sS'CharacterOffsetBegin'
p5844
S'1574'
p5845
stp5846
asa(dp5847
g7
S'(ROOT (S (NP (NNP Chen)) (VP (VBZ is) (NP (NP (NNP Taiwans)) (NP (ADJP (RBS most) (JJ prominent)) (NN DPP) (NN politician)))) (. .)))'
p5848
sg9
S'Chen is Taiwans most prominent DPP politician.'
p5849
sg11
(lp5850
(S'root'
p5851
S'ROOT'
p5852
S'Taiwans'
p5853
tp5854
a(S'nsubj'
p5855
S'Taiwans'
p5856
S'Chen'
p5857
tp5858
a(S'cop'
p5859
S'Taiwans'
p5860
S'is'
p5861
tp5862
a(S'advmod'
p5863
S'prominent'
p5864
S'most'
p5865
tp5866
a(S'amod'
p5867
S'politician'
p5868
S'prominent'
p5869
tp5870
a(S'nn'
p5871
S'politician'
p5872
S'DPP'
p5873
tp5874
a(S'dep'
p5875
S'Taiwans'
p5876
S'politician'
p5877
tp5878
asg45
(lp5879
(g5851
S'ROOT-0'
p5880
S'Taiwans-3'
p5881
tp5882
a(g5855
S'Taiwans-3'
p5883
S'Chen-1'
p5884
tp5885
a(g5859
S'Taiwans-3'
p5886
S'is-2'
p5887
tp5888
a(g5863
S'prominent-5'
p5889
S'most-4'
p5890
tp5891
a(g5867
S'politician-7'
p5892
S'prominent-5'
p5893
tp5894
a(g5871
S'politician-7'
p5895
S'DPP-6'
p5896
tp5897
a(g5875
S'Taiwans-3'
p5898
S'politician-7'
p5899
tp5900
asg71
(lp5901
(S'Chen'
p5902
(dp5903
S'NamedEntityTag'
p5904
S'PERSON'
p5905
sS'CharacterOffsetEnd'
p5906
S'1580'
p5907
sS'Lemma'
p5908
S'Chen'
p5909
sS'PartOfSpeech'
p5910
S'NNP'
p5911
sS'CharacterOffsetBegin'
p5912
S'1576'
p5913
stp5914
a(S'is'
p5915
(dp5916
S'NamedEntityTag'
p5917
g102
sS'CharacterOffsetEnd'
p5918
S'1583'
p5919
sS'Lemma'
p5920
S'be'
p5921
sS'PartOfSpeech'
p5922
S'VBZ'
p5923
sS'CharacterOffsetBegin'
p5924
S'1581'
p5925
stp5926
a(S'Taiwans'
p5927
(dp5928
S'NamedEntityTag'
p5929
S'LOCATION'
p5930
sS'CharacterOffsetEnd'
p5931
S'1591'
p5932
sS'Lemma'
p5933
S'Taiwans'
p5934
sS'PartOfSpeech'
p5935
S'NNP'
p5936
sS'CharacterOffsetBegin'
p5937
S'1584'
p5938
stp5939
a(S'most'
p5940
(dp5941
S'NamedEntityTag'
p5942
g102
sS'CharacterOffsetEnd'
p5943
S'1596'
p5944
sS'Lemma'
p5945
S'most'
p5946
sS'PartOfSpeech'
p5947
S'RBS'
p5948
sS'CharacterOffsetBegin'
p5949
S'1592'
p5950
stp5951
a(S'prominent'
p5952
(dp5953
S'NamedEntityTag'
p5954
g102
sS'CharacterOffsetEnd'
p5955
S'1606'
p5956
sS'Lemma'
p5957
S'prominent'
p5958
sS'PartOfSpeech'
p5959
S'JJ'
p5960
sS'CharacterOffsetBegin'
p5961
S'1597'
p5962
stp5963
a(S'DPP'
p5964
(dp5965
S'NamedEntityTag'
p5966
g102
sS'CharacterOffsetEnd'
p5967
S'1610'
p5968
sS'Lemma'
p5969
S'dpp'
p5970
sS'PartOfSpeech'
p5971
S'NN'
p5972
sS'CharacterOffsetBegin'
p5973
S'1607'
p5974
stp5975
a(S'politician'
p5976
(dp5977
S'NamedEntityTag'
p5978
g102
sS'CharacterOffsetEnd'
p5979
S'1621'
p5980
sS'Lemma'
p5981
S'politician'
p5982
sS'PartOfSpeech'
p5983
S'NN'
p5984
sS'CharacterOffsetBegin'
p5985
S'1611'
p5986
stp5987
a(g398
(dp5988
S'NamedEntityTag'
p5989
g102
sS'CharacterOffsetEnd'
p5990
S'1622'
p5991
sS'Lemma'
p5992
g398
sS'PartOfSpeech'
p5993
g398
sS'CharacterOffsetBegin'
p5994
S'1621'
p5995
stp5996
asa(dp5997
g7
S'(ROOT (S (S (NP (NP (DT This) (NN sort)) (PP (IN of) (NP (NN incident)))) (VP (VBZ shows) (SBAR (IN that) (S (NP (NNP Taiwan)) (VP (VBZ is) (ADVP (RB just)) (RB not) (ADJP (VBN qualified) (S (VP (TO to) (VP (VB be) (VP (VBN called) (NP (DT a) (JJ democratic) (NN nation)))))))))))) (, ,) (NP (NNP DPP) (NNP Secretary-General) (NNP Chiu) (NNP Yi-jen)) (VP (VBD told) (NP (DT a) (NN news) (NN conference))) (. .)))'
p5998
sg9
S'This sort of incident shows that Taiwan is just not qualified to be called a democratic nation, DPP Secretary-General Chiu Yi-jen told a news conference.'
p5999
sg11
(lp6000
(S'root'
p6001
S'ROOT'
p6002
S'told'
p6003
tp6004
a(S'det'
p6005
S'sort'
p6006
S'This'
p6007
tp6008
a(S'nsubj'
p6009
S'shows'
p6010
S'sort'
p6011
tp6012
a(S'prep_of'
p6013
S'sort'
p6014
S'incident'
p6015
tp6016
a(S'ccomp'
p6017
S'told'
p6018
S'shows'
p6019
tp6020
a(S'mark'
p6021
S'qualified'
p6022
S'that'
p6023
tp6024
a(S'nsubjpass'
p6025
S'qualified'
p6026
S'Taiwan'
p6027
tp6028
a(S'auxpass'
p6029
S'qualified'
p6030
S'is'
p6031
tp6032
a(S'advmod'
p6033
S'qualified'
p6034
S'just'
p6035
tp6036
a(S'neg'
p6037
S'qualified'
p6038
S'not'
p6039
tp6040
a(S'ccomp'
p6041
S'shows'
p6042
S'qualified'
p6043
tp6044
a(S'aux'
p6045
S'called'
p6046
S'to'
p6047
tp6048
a(S'auxpass'
p6049
S'called'
p6050
S'be'
p6051
tp6052
a(S'xcomp'
p6053
S'qualified'
p6054
S'called'
p6055
tp6056
a(S'det'
p6057
S'nation'
p6058
g1399
tp6059
a(S'amod'
p6060
S'nation'
p6061
S'democratic'
p6062
tp6063
a(S'dobj'
p6064
S'called'
p6065
S'nation'
p6066
tp6067
a(S'nn'
p6068
S'Yi-jen'
p6069
S'DPP'
p6070
tp6071
a(S'nn'
p6072
S'Yi-jen'
p6073
S'Secretary-General'
p6074
tp6075
a(S'nn'
p6076
S'Yi-jen'
p6077
S'Chiu'
p6078
tp6079
a(S'nsubj'
p6080
S'told'
p6081
S'Yi-jen'
p6082
tp6083
a(S'det'
p6084
S'conference'
p6085
g1399
tp6086
a(S'nn'
p6087
S'conference'
p6088
S'news'
p6089
tp6090
a(S'dobj'
p6091
S'told'
p6092
S'conference'
p6093
tp6094
asg45
(lp6095
(g6001
S'ROOT-0'
p6096
S'told-23'
p6097
tp6098
a(g6005
S'sort-2'
p6099
S'This-1'
p6100
tp6101
a(g6009
S'shows-5'
p6102
S'sort-2'
p6103
tp6104
a(g6013
S'sort-2'
p6105
S'incident-4'
p6106
tp6107
a(g6017
S'told-23'
p6108
S'shows-5'
p6109
tp6110
a(g6021
S'qualified-11'
p6111
S'that-6'
p6112
tp6113
a(g6025
S'qualified-11'
p6114
S'Taiwan-7'
p6115
tp6116
a(g6029
S'qualified-11'
p6117
S'is-8'
p6118
tp6119
a(g6033
S'qualified-11'
p6120
S'just-9'
p6121
tp6122
a(g6037
S'qualified-11'
p6123
S'not-10'
p6124
tp6125
a(g6041
S'shows-5'
p6126
S'qualified-11'
p6127
tp6128
a(g6045
S'called-14'
p6129
S'to-12'
p6130
tp6131
a(g6049
S'called-14'
p6132
S'be-13'
p6133
tp6134
a(g6053
S'qualified-11'
p6135
S'called-14'
p6136
tp6137
a(g6057
S'nation-17'
p6138
S'a-15'
p6139
tp6140
a(g6060
S'nation-17'
p6141
S'democratic-16'
p6142
tp6143
a(g6064
S'called-14'
p6144
S'nation-17'
p6145
tp6146
a(g6068
S'Yi-jen-22'
p6147
S'DPP-19'
p6148
tp6149
a(g6072
S'Yi-jen-22'
p6150
S'Secretary-General-20'
p6151
tp6152
a(g6076
S'Yi-jen-22'
p6153
S'Chiu-21'
p6154
tp6155
a(g6080
S'told-23'
p6156
S'Yi-jen-22'
p6157
tp6158
a(g6084
S'conference-26'
p6159
S'a-24'
p6160
tp6161
a(g6087
S'conference-26'
p6162
S'news-25'
p6163
tp6164
a(g6091
S'told-23'
p6165
S'conference-26'
p6166
tp6167
asg71
(lp6168
(S'This'
p6169
(dp6170
S'NamedEntityTag'
p6171
g102
sS'CharacterOffsetEnd'
p6172
S'1627'
p6173
sS'Lemma'
p6174
S'this'
p6175
sS'PartOfSpeech'
p6176
S'DT'
p6177
sS'CharacterOffsetBegin'
p6178
S'1623'
p6179
stp6180
a(S'sort'
p6181
(dp6182
S'NamedEntityTag'
p6183
g102
sS'CharacterOffsetEnd'
p6184
S'1632'
p6185
sS'Lemma'
p6186
S'sort'
p6187
sS'PartOfSpeech'
p6188
S'NN'
p6189
sS'CharacterOffsetBegin'
p6190
S'1628'
p6191
stp6192
a(S'of'
p6193
(dp6194
S'NamedEntityTag'
p6195
g102
sS'CharacterOffsetEnd'
p6196
S'1635'
p6197
sS'Lemma'
p6198
S'of'
p6199
sS'PartOfSpeech'
p6200
S'IN'
p6201
sS'CharacterOffsetBegin'
p6202
S'1633'
p6203
stp6204
a(S'incident'
p6205
(dp6206
S'NamedEntityTag'
p6207
g102
sS'CharacterOffsetEnd'
p6208
S'1644'
p6209
sS'Lemma'
p6210
S'incident'
p6211
sS'PartOfSpeech'
p6212
S'NN'
p6213
sS'CharacterOffsetBegin'
p6214
S'1636'
p6215
stp6216
a(S'shows'
p6217
(dp6218
S'NamedEntityTag'
p6219
g102
sS'CharacterOffsetEnd'
p6220
S'1650'
p6221
sS'Lemma'
p6222
S'show'
p6223
sS'PartOfSpeech'
p6224
S'VBZ'
p6225
sS'CharacterOffsetBegin'
p6226
S'1645'
p6227
stp6228
a(S'that'
p6229
(dp6230
S'NamedEntityTag'
p6231
g102
sS'CharacterOffsetEnd'
p6232
S'1655'
p6233
sS'Lemma'
p6234
S'that'
p6235
sS'PartOfSpeech'
p6236
S'IN'
p6237
sS'CharacterOffsetBegin'
p6238
S'1651'
p6239
stp6240
a(S'Taiwan'
p6241
(dp6242
S'NamedEntityTag'
p6243
S'LOCATION'
p6244
sS'CharacterOffsetEnd'
p6245
S'1662'
p6246
sS'Lemma'
p6247
S'Taiwan'
p6248
sS'PartOfSpeech'
p6249
S'NNP'
p6250
sS'CharacterOffsetBegin'
p6251
S'1656'
p6252
stp6253
a(S'is'
p6254
(dp6255
S'NamedEntityTag'
p6256
g102
sS'CharacterOffsetEnd'
p6257
S'1665'
p6258
sS'Lemma'
p6259
S'be'
p6260
sS'PartOfSpeech'
p6261
S'VBZ'
p6262
sS'CharacterOffsetBegin'
p6263
S'1663'
p6264
stp6265
a(S'just'
p6266
(dp6267
S'NamedEntityTag'
p6268
g102
sS'CharacterOffsetEnd'
p6269
S'1670'
p6270
sS'Lemma'
p6271
S'just'
p6272
sS'PartOfSpeech'
p6273
S'RB'
p6274
sS'CharacterOffsetBegin'
p6275
S'1666'
p6276
stp6277
a(S'not'
p6278
(dp6279
S'NamedEntityTag'
p6280
g102
sS'CharacterOffsetEnd'
p6281
S'1674'
p6282
sS'Lemma'
p6283
S'not'
p6284
sS'PartOfSpeech'
p6285
S'RB'
p6286
sS'CharacterOffsetBegin'
p6287
S'1671'
p6288
stp6289
a(S'qualified'
p6290
(dp6291
S'NamedEntityTag'
p6292
g102
sS'CharacterOffsetEnd'
p6293
S'1684'
p6294
sS'Lemma'
p6295
S'qualify'
p6296
sS'PartOfSpeech'
p6297
S'VBN'
p6298
sS'CharacterOffsetBegin'
p6299
S'1675'
p6300
stp6301
a(S'to'
p6302
(dp6303
S'NamedEntityTag'
p6304
g102
sS'CharacterOffsetEnd'
p6305
S'1687'
p6306
sS'Lemma'
p6307
S'to'
p6308
sS'PartOfSpeech'
p6309
S'TO'
p6310
sS'CharacterOffsetBegin'
p6311
S'1685'
p6312
stp6313
a(S'be'
p6314
(dp6315
S'NamedEntityTag'
p6316
g102
sS'CharacterOffsetEnd'
p6317
S'1690'
p6318
sS'Lemma'
p6319
S'be'
p6320
sS'PartOfSpeech'
p6321
S'VB'
p6322
sS'CharacterOffsetBegin'
p6323
S'1688'
p6324
stp6325
a(S'called'
p6326
(dp6327
S'NamedEntityTag'
p6328
g102
sS'CharacterOffsetEnd'
p6329
S'1697'
p6330
sS'Lemma'
p6331
S'call'
p6332
sS'PartOfSpeech'
p6333
S'VBN'
p6334
sS'CharacterOffsetBegin'
p6335
S'1691'
p6336
stp6337
a(g1399
(dp6338
S'NamedEntityTag'
p6339
g102
sS'CharacterOffsetEnd'
p6340
S'1699'
p6341
sS'Lemma'
p6342
g1399
sS'PartOfSpeech'
p6343
S'DT'
p6344
sS'CharacterOffsetBegin'
p6345
S'1698'
p6346
stp6347
a(S'democratic'
p6348
(dp6349
S'NamedEntityTag'
p6350
g102
sS'CharacterOffsetEnd'
p6351
S'1710'
p6352
sS'Lemma'
p6353
S'democratic'
p6354
sS'PartOfSpeech'
p6355
S'JJ'
p6356
sS'CharacterOffsetBegin'
p6357
S'1700'
p6358
stp6359
a(S'nation'
p6360
(dp6361
S'NamedEntityTag'
p6362
g102
sS'CharacterOffsetEnd'
p6363
S'1717'
p6364
sS'Lemma'
p6365
S'nation'
p6366
sS'PartOfSpeech'
p6367
S'NN'
p6368
sS'CharacterOffsetBegin'
p6369
S'1711'
p6370
stp6371
a(g534
(dp6372
S'NamedEntityTag'
p6373
g102
sS'CharacterOffsetEnd'
p6374
S'1718'
p6375
sS'Lemma'
p6376
g534
sS'PartOfSpeech'
p6377
g534
sS'CharacterOffsetBegin'
p6378
S'1717'
p6379
stp6380
a(S'DPP'
p6381
(dp6382
S'NamedEntityTag'
p6383
S'ORGANIZATION'
p6384
sS'CharacterOffsetEnd'
p6385
S'1722'
p6386
sS'Lemma'
p6387
S'DPP'
p6388
sS'PartOfSpeech'
p6389
S'NNP'
p6390
sS'CharacterOffsetBegin'
p6391
S'1719'
p6392
stp6393
a(S'Secretary-General'
p6394
(dp6395
S'NamedEntityTag'
p6396
g102
sS'CharacterOffsetEnd'
p6397
S'1740'
p6398
sS'Lemma'
p6399
S'Secretary-General'
p6400
sS'PartOfSpeech'
p6401
S'NNP'
p6402
sS'CharacterOffsetBegin'
p6403
S'1723'
p6404
stp6405
a(S'Chiu'
p6406
(dp6407
S'NamedEntityTag'
p6408
S'PERSON'
p6409
sS'CharacterOffsetEnd'
p6410
S'1745'
p6411
sS'Lemma'
p6412
S'Chiu'
p6413
sS'PartOfSpeech'
p6414
S'NNP'
p6415
sS'CharacterOffsetBegin'
p6416
S'1741'
p6417
stp6418
a(S'Yi-jen'
p6419
(dp6420
S'NamedEntityTag'
p6421
S'PERSON'
p6422
sS'CharacterOffsetEnd'
p6423
S'1752'
p6424
sS'Lemma'
p6425
S'Yi-jen'
p6426
sS'PartOfSpeech'
p6427
S'NNP'
p6428
sS'CharacterOffsetBegin'
p6429
S'1746'
p6430
stp6431
a(S'told'
p6432
(dp6433
S'NamedEntityTag'
p6434
g102
sS'CharacterOffsetEnd'
p6435
S'1757'
p6436
sS'Lemma'
p6437
S'tell'
p6438
sS'PartOfSpeech'
p6439
S'VBD'
p6440
sS'CharacterOffsetBegin'
p6441
S'1753'
p6442
stp6443
a(g1399
(dp6444
S'NamedEntityTag'
p6445
g102
sS'CharacterOffsetEnd'
p6446
S'1759'
p6447
sS'Lemma'
p6448
g1399
sS'PartOfSpeech'
p6449
S'DT'
p6450
sS'CharacterOffsetBegin'
p6451
S'1758'
p6452
stp6453
a(S'news'
p6454
(dp6455
S'NamedEntityTag'
p6456
g102
sS'CharacterOffsetEnd'
p6457
S'1764'
p6458
sS'Lemma'
p6459
S'news'
p6460
sS'PartOfSpeech'
p6461
S'NN'
p6462
sS'CharacterOffsetBegin'
p6463
S'1760'
p6464
stp6465
a(S'conference'
p6466
(dp6467
S'NamedEntityTag'
p6468
g102
sS'CharacterOffsetEnd'
p6469
S'1775'
p6470
sS'Lemma'
p6471
S'conference'
p6472
sS'PartOfSpeech'
p6473
S'NN'
p6474
sS'CharacterOffsetBegin'
p6475
S'1765'
p6476
stp6477
a(g398
(dp6478
S'NamedEntityTag'
p6479
g102
sS'CharacterOffsetEnd'
p6480
S'1776'
p6481
sS'Lemma'
p6482
g398
sS'PartOfSpeech'
p6483
g398
sS'CharacterOffsetBegin'
p6484
S'1775'
p6485
stp6486
asa(dp6487
g7
S'(ROOT (S (NP (NNP Ramos-Horta)) (VP (VBD sought) (S (VP (TO to) (VP (VB play) (PRT (RP down)) (NP (DT the) (NN incident)) (PP (IN before) (S (VP (VBG leaving) (NP (NN town)) (NP-TMP (NNP Thursday))))))))) (. .)))'
p6488
sg9
S'Ramos-Horta sought to play down the incident before leaving town Thursday.'
p6489
sg11
(lp6490
(S'root'
p6491
S'ROOT'
p6492
S'sought'
p6493
tp6494
a(S'nsubj'
p6495
S'sought'
p6496
S'Ramos-Horta'
p6497
tp6498
a(S'aux'
p6499
S'play'
p6500
S'to'
p6501
tp6502
a(S'xcomp'
p6503
S'sought'
p6504
S'play'
p6505
tp6506
a(S'prt'
p6507
S'play'
p6508
S'down'
p6509
tp6510
a(S'det'
p6511
S'incident'
p6512
S'the'
p6513
tp6514
a(S'dobj'
p6515
S'play'
p6516
S'incident'
p6517
tp6518
a(S'prepc_before'
p6519
S'play'
p6520
S'leaving'
p6521
tp6522
a(S'dobj'
p6523
S'leaving'
p6524
S'town'
p6525
tp6526
a(S'tmod'
p6527
S'leaving'
p6528
S'Thursday'
p6529
tp6530
asg45
(lp6531
(g6491
S'ROOT-0'
p6532
S'sought-2'
p6533
tp6534
a(g6495
S'sought-2'
p6535
S'Ramos-Horta-1'
p6536
tp6537
a(g6499
S'play-4'
p6538
S'to-3'
p6539
tp6540
a(g6503
S'sought-2'
p6541
S'play-4'
p6542
tp6543
a(g6507
S'play-4'
p6544
S'down-5'
p6545
tp6546
a(g6511
S'incident-7'
p6547
S'the-6'
p6548
tp6549
a(g6515
S'play-4'
p6550
S'incident-7'
p6551
tp6552
a(g6519
S'play-4'
p6553
S'leaving-9'
p6554
tp6555
a(g6523
S'leaving-9'
p6556
S'town-10'
p6557
tp6558
a(g6527
S'leaving-9'
p6559
S'Thursday-11'
p6560
tp6561
asg71
(lp6562
(S'Ramos-Horta'
p6563
(dp6564
S'NamedEntityTag'
p6565
S'PERSON'
p6566
sS'CharacterOffsetEnd'
p6567
S'1788'
p6568
sS'Lemma'
p6569
S'Ramos-Horta'
p6570
sS'PartOfSpeech'
p6571
S'NNP'
p6572
sS'CharacterOffsetBegin'
p6573
S'1777'
p6574
stp6575
a(S'sought'
p6576
(dp6577
S'NamedEntityTag'
p6578
g102
sS'CharacterOffsetEnd'
p6579
S'1795'
p6580
sS'Lemma'
p6581
S'seek'
p6582
sS'PartOfSpeech'
p6583
S'VBD'
p6584
sS'CharacterOffsetBegin'
p6585
S'1789'
p6586
stp6587
a(S'to'
p6588
(dp6589
S'NamedEntityTag'
p6590
g102
sS'CharacterOffsetEnd'
p6591
S'1798'
p6592
sS'Lemma'
p6593
S'to'
p6594
sS'PartOfSpeech'
p6595
S'TO'
p6596
sS'CharacterOffsetBegin'
p6597
S'1796'
p6598
stp6599
a(S'play'
p6600
(dp6601
S'NamedEntityTag'
p6602
g102
sS'CharacterOffsetEnd'
p6603
S'1803'
p6604
sS'Lemma'
p6605
S'play'
p6606
sS'PartOfSpeech'
p6607
S'VB'
p6608
sS'CharacterOffsetBegin'
p6609
S'1799'
p6610
stp6611
a(S'down'
p6612
(dp6613
S'NamedEntityTag'
p6614
g102
sS'CharacterOffsetEnd'
p6615
S'1808'
p6616
sS'Lemma'
p6617
S'down'
p6618
sS'PartOfSpeech'
p6619
S'RP'
p6620
sS'CharacterOffsetBegin'
p6621
S'1804'
p6622
stp6623
a(S'the'
p6624
(dp6625
S'NamedEntityTag'
p6626
g102
sS'CharacterOffsetEnd'
p6627
S'1812'
p6628
sS'Lemma'
p6629
S'the'
p6630
sS'PartOfSpeech'
p6631
S'DT'
p6632
sS'CharacterOffsetBegin'
p6633
S'1809'
p6634
stp6635
a(S'incident'
p6636
(dp6637
S'NamedEntityTag'
p6638
g102
sS'CharacterOffsetEnd'
p6639
S'1821'
p6640
sS'Lemma'
p6641
S'incident'
p6642
sS'PartOfSpeech'
p6643
S'NN'
p6644
sS'CharacterOffsetBegin'
p6645
S'1813'
p6646
stp6647
a(S'before'
p6648
(dp6649
S'NamedEntityTag'
p6650
g102
sS'CharacterOffsetEnd'
p6651
S'1828'
p6652
sS'Lemma'
p6653
S'before'
p6654
sS'PartOfSpeech'
p6655
S'IN'
p6656
sS'CharacterOffsetBegin'
p6657
S'1822'
p6658
stp6659
a(S'leaving'
p6660
(dp6661
S'NamedEntityTag'
p6662
g102
sS'CharacterOffsetEnd'
p6663
S'1836'
p6664
sS'Lemma'
p6665
S'leave'
p6666
sS'PartOfSpeech'
p6667
S'VBG'
p6668
sS'CharacterOffsetBegin'
p6669
S'1829'
p6670
stp6671
a(S'town'
p6672
(dp6673
S'NamedEntityTag'
p6674
g102
sS'CharacterOffsetEnd'
p6675
S'1841'
p6676
sS'Lemma'
p6677
S'town'
p6678
sS'PartOfSpeech'
p6679
S'NN'
p6680
sS'CharacterOffsetBegin'
p6681
S'1837'
p6682
stp6683
a(S'Thursday'
p6684
(dp6685
S'NormalizedNamedEntityTag'
p6686
S'XXXX-WXX-4'
p6687
sS'Timex'
p6688
S'<TIMEX3 tid="t1" type="DATE" value="XXXX-WXX-4">Thursday</TIMEX3>'
p6689
sS'Lemma'
p6690
S'Thursday'
p6691
sS'CharacterOffsetEnd'
p6692
S'1850'
p6693
sS'PartOfSpeech'
p6694
S'NNP'
p6695
sS'CharacterOffsetBegin'
p6696
S'1842'
p6697
sS'NamedEntityTag'
p6698
S'DATE'
p6699
stp6700
a(g398
(dp6701
S'NamedEntityTag'
p6702
g102
sS'CharacterOffsetEnd'
p6703
S'1851'
p6704
sS'Lemma'
p6705
g398
sS'PartOfSpeech'
p6706
g398
sS'CharacterOffsetBegin'
p6707
S'1850'
p6708
stp6709
asa(dp6710
g7
S'(ROOT (S (NP (PRP I)) (VP (VBP dont) (VP (VB want) (S (VP (TO to) (VP (VB make) (NP (DT a) (JJ big) (NN problem)) (ADVP (IN out) (PP (IN of) (NP (PRP it))))))))) (. .)))'
p6711
sg9
S'I dont want to make a big problem out of it.'
p6712
sg11
(lp6713
(S'root'
p6714
S'ROOT'
p6715
S'dont'
p6716
tp6717
a(S'nsubj'
p6718
S'dont'
p6719
g1083
tp6720
a(S'dep'
p6721
S'dont'
p6722
S'want'
p6723
tp6724
a(S'aux'
p6725
S'make'
p6726
S'to'
p6727
tp6728
a(S'xcomp'
p6729
S'want'
p6730
S'make'
p6731
tp6732
a(S'det'
p6733
S'problem'
p6734
g1399
tp6735
a(S'amod'
p6736
S'problem'
p6737
S'big'
p6738
tp6739
a(S'dobj'
p6740
S'make'
p6741
S'problem'
p6742
tp6743
a(S'prep_out_of'
p6744
S'make'
p6745
S'it'
p6746
tp6747
asg45
(lp6748
(g6714
S'ROOT-0'
p6749
S'dont-2'
p6750
tp6751
a(g6718
S'dont-2'
p6752
S'I-1'
p6753
tp6754
a(g6721
S'dont-2'
p6755
S'want-3'
p6756
tp6757
a(g6725
S'make-5'
p6758
S'to-4'
p6759
tp6760
a(g6729
S'want-3'
p6761
S'make-5'
p6762
tp6763
a(g6733
S'problem-8'
p6764
S'a-6'
p6765
tp6766
a(g6736
S'problem-8'
p6767
S'big-7'
p6768
tp6769
a(g6740
S'make-5'
p6770
S'problem-8'
p6771
tp6772
a(g6744
S'make-5'
p6773
S'it-11'
p6774
tp6775
asg71
(lp6776
(g1083
(dp6777
S'NamedEntityTag'
p6778
g102
sS'CharacterOffsetEnd'
p6779
S'1853'
p6780
sS'Lemma'
p6781
g1083
sS'PartOfSpeech'
p6782
S'PRP'
p6783
sS'CharacterOffsetBegin'
p6784
S'1852'
p6785
stp6786
a(S'dont'
p6787
(dp6788
S'NamedEntityTag'
p6789
g102
sS'CharacterOffsetEnd'
p6790
S'1858'
p6791
sS'Lemma'
p6792
S'dont'
p6793
sS'PartOfSpeech'
p6794
S'VBP'
p6795
sS'CharacterOffsetBegin'
p6796
S'1854'
p6797
stp6798
a(S'want'
p6799
(dp6800
S'NamedEntityTag'
p6801
g102
sS'CharacterOffsetEnd'
p6802
S'1863'
p6803
sS'Lemma'
p6804
S'want'
p6805
sS'PartOfSpeech'
p6806
S'VB'
p6807
sS'CharacterOffsetBegin'
p6808
S'1859'
p6809
stp6810
a(S'to'
p6811
(dp6812
S'NamedEntityTag'
p6813
g102
sS'CharacterOffsetEnd'
p6814
S'1866'
p6815
sS'Lemma'
p6816
S'to'
p6817
sS'PartOfSpeech'
p6818
S'TO'
p6819
sS'CharacterOffsetBegin'
p6820
S'1864'
p6821
stp6822
a(S'make'
p6823
(dp6824
S'NamedEntityTag'
p6825
g102
sS'CharacterOffsetEnd'
p6826
S'1871'
p6827
sS'Lemma'
p6828
S'make'
p6829
sS'PartOfSpeech'
p6830
S'VB'
p6831
sS'CharacterOffsetBegin'
p6832
S'1867'
p6833
stp6834
a(g1399
(dp6835
S'NamedEntityTag'
p6836
g102
sS'CharacterOffsetEnd'
p6837
S'1873'
p6838
sS'Lemma'
p6839
g1399
sS'PartOfSpeech'
p6840
S'DT'
p6841
sS'CharacterOffsetBegin'
p6842
S'1872'
p6843
stp6844
a(S'big'
p6845
(dp6846
S'NamedEntityTag'
p6847
g102
sS'CharacterOffsetEnd'
p6848
S'1877'
p6849
sS'Lemma'
p6850
S'big'
p6851
sS'PartOfSpeech'
p6852
S'JJ'
p6853
sS'CharacterOffsetBegin'
p6854
S'1874'
p6855
stp6856
a(S'problem'
p6857
(dp6858
S'NamedEntityTag'
p6859
g102
sS'CharacterOffsetEnd'
p6860
S'1885'
p6861
sS'Lemma'
p6862
S'problem'
p6863
sS'PartOfSpeech'
p6864
S'NN'
p6865
sS'CharacterOffsetBegin'
p6866
S'1878'
p6867
stp6868
a(S'out'
p6869
(dp6870
S'NamedEntityTag'
p6871
g102
sS'CharacterOffsetEnd'
p6872
S'1889'
p6873
sS'Lemma'
p6874
S'out'
p6875
sS'PartOfSpeech'
p6876
S'IN'
p6877
sS'CharacterOffsetBegin'
p6878
S'1886'
p6879
stp6880
a(S'of'
p6881
(dp6882
S'NamedEntityTag'
p6883
g102
sS'CharacterOffsetEnd'
p6884
S'1892'
p6885
sS'Lemma'
p6886
S'of'
p6887
sS'PartOfSpeech'
p6888
S'IN'
p6889
sS'CharacterOffsetBegin'
p6890
S'1890'
p6891
stp6892
a(S'it'
p6893
(dp6894
S'NamedEntityTag'
p6895
g102
sS'CharacterOffsetEnd'
p6896
S'1895'
p6897
sS'Lemma'
p6898
S'it'
p6899
sS'PartOfSpeech'
p6900
S'PRP'
p6901
sS'CharacterOffsetBegin'
p6902
S'1893'
p6903
stp6904
a(g398
(dp6905
S'NamedEntityTag'
p6906
g102
sS'CharacterOffsetEnd'
p6907
S'1896'
p6908
sS'Lemma'
p6909
g398
sS'PartOfSpeech'
p6910
g398
sS'CharacterOffsetBegin'
p6911
S'1895'
p6912
stp6913
asa(dp6914
g7
S'(ROOT (S (NP (PRP I)) (VP (VBP have) (VP (VBN been) (PP (TO to) (NP (JJ many) (NNS countries))))) (. .)))'
p6915
sg9
S'I have been to many countries.'
p6916
sg11
(lp6917
(S'root'
p6918
S'ROOT'
p6919
S'been'
p6920
tp6921
a(S'nsubj'
p6922
S'been'
p6923
g1083
tp6924
a(S'aux'
p6925
S'been'
p6926
S'have'
p6927
tp6928
a(S'amod'
p6929
S'countries'
p6930
S'many'
p6931
tp6932
a(S'prep_to'
p6933
S'been'
p6934
S'countries'
p6935
tp6936
asg45
(lp6937
(g6918
S'ROOT-0'
p6938
S'been-3'
p6939
tp6940
a(g6922
S'been-3'
p6941
S'I-1'
p6942
tp6943
a(g6925
S'been-3'
p6944
S'have-2'
p6945
tp6946
a(g6929
S'countries-6'
p6947
S'many-5'
p6948
tp6949
a(g6933
S'been-3'
p6950
S'countries-6'
p6951
tp6952
asg71
(lp6953
(g1083
(dp6954
S'NamedEntityTag'
p6955
g102
sS'CharacterOffsetEnd'
p6956
S'1898'
p6957
sS'Lemma'
p6958
g1083
sS'PartOfSpeech'
p6959
S'PRP'
p6960
sS'CharacterOffsetBegin'
p6961
S'1897'
p6962
stp6963
a(S'have'
p6964
(dp6965
S'NamedEntityTag'
p6966
g102
sS'CharacterOffsetEnd'
p6967
S'1903'
p6968
sS'Lemma'
p6969
S'have'
p6970
sS'PartOfSpeech'
p6971
S'VBP'
p6972
sS'CharacterOffsetBegin'
p6973
S'1899'
p6974
stp6975
a(S'been'
p6976
(dp6977
S'NamedEntityTag'
p6978
g102
sS'CharacterOffsetEnd'
p6979
S'1908'
p6980
sS'Lemma'
p6981
S'be'
p6982
sS'PartOfSpeech'
p6983
S'VBN'
p6984
sS'CharacterOffsetBegin'
p6985
S'1904'
p6986
stp6987
a(S'to'
p6988
(dp6989
S'NamedEntityTag'
p6990
g102
sS'CharacterOffsetEnd'
p6991
S'1911'
p6992
sS'Lemma'
p6993
S'to'
p6994
sS'PartOfSpeech'
p6995
S'TO'
p6996
sS'CharacterOffsetBegin'
p6997
S'1909'
p6998
stp6999
a(S'many'
p7000
(dp7001
S'NamedEntityTag'
p7002
g102
sS'CharacterOffsetEnd'
p7003
S'1916'
p7004
sS'Lemma'
p7005
S'many'
p7006
sS'PartOfSpeech'
p7007
S'JJ'
p7008
sS'CharacterOffsetBegin'
p7009
S'1912'
p7010
stp7011
a(S'countries'
p7012
(dp7013
S'NamedEntityTag'
p7014
g102
sS'CharacterOffsetEnd'
p7015
S'1926'
p7016
sS'Lemma'
p7017
S'country'
p7018
sS'PartOfSpeech'
p7019
S'NNS'
p7020
sS'CharacterOffsetBegin'
p7021
S'1917'
p7022
stp7023
a(g398
(dp7024
S'NamedEntityTag'
p7025
g102
sS'CharacterOffsetEnd'
p7026
S'1927'
p7027
sS'Lemma'
p7028
g398
sS'PartOfSpeech'
p7029
g398
sS'CharacterOffsetBegin'
p7030
S'1926'
p7031
stp7032
asa(dp7033
g7
S'(ROOT (S (S (NP (NP (DT The) (JJ only) (NNS countries)) (SBAR (WHNP (WDT that)) (S (VP (VBP dont) (VP (VB allow) (NP (PRP me)) (PP (IN in))))))) (VP (MD would) (VP (VB be) (NP (NP (NNS countries)) (PP (IN like) (NP (NNP Iraq) (, ,) (NNP Iran))))))) (, ,) (NP (PRP he)) (VP (VBD told) (NP (NNS reporters)) (PP (IN before) (S (VP (VBG catching) (NP (DT an) (NN afternoon) (NN flight)) (S (VP (TO to) (VP (VB attend) (NP (NP (DT a) (NN conference)) (PP (IN in) (NP (NNP Australia))))))))))) (. .)))'
p7034
sg9
S'The only countries that dont allow me in would be countries like Iraq, Iran, he told reporters before catching an afternoon flight to attend a conference in Australia.'
p7035
sg11
(lp7036
(S'root'
p7037
S'ROOT'
p7038
S'told'
p7039
tp7040
a(S'det'
p7041
S'countries'
p7042
S'The'
p7043
tp7044
a(S'amod'
p7045
S'countries'
p7046
S'only'
p7047
tp7048
a(S'nsubj'
p7049
S'countries'
p7050
S'countries'
p7051
tp7052
a(S'nsubj'
p7053
S'dont'
p7054
S'that'
p7055
tp7056
a(S'rcmod'
p7057
S'countries'
p7058
S'dont'
p7059
tp7060
a(S'xcomp'
p7061
S'dont'
p7062
S'allow'
p7063
tp7064
a(S'dobj'
p7065
S'allow'
p7066
S'me'
p7067
tp7068
a(S'prep'
p7069
S'allow'
p7070
S'in'
p7071
tp7072
a(S'aux'
p7073
S'countries'
p7074
S'would'
p7075
tp7076
a(S'cop'
p7077
S'countries'
p7078
S'be'
p7079
tp7080
a(S'ccomp'
p7081
S'told'
p7082
S'countries'
p7083
tp7084
a(S'nn'
p7085
S'Iran'
p7086
S'Iraq'
p7087
tp7088
a(S'prep_like'
p7089
S'countries'
p7090
S'Iran'
p7091
tp7092
a(S'nsubj'
p7093
S'told'
p7094
S'he'
p7095
tp7096
a(S'dobj'
p7097
S'told'
p7098
S'reporters'
p7099
tp7100
a(S'prepc_before'
p7101
S'told'
p7102
S'catching'
p7103
tp7104
a(S'det'
p7105
S'flight'
p7106
S'an'
p7107
tp7108
a(S'nn'
p7109
S'flight'
p7110
S'afternoon'
p7111
tp7112
a(S'dobj'
p7113
S'catching'
p7114
S'flight'
p7115
tp7116
a(S'aux'
p7117
S'attend'
p7118
S'to'
p7119
tp7120
a(S'xcomp'
p7121
S'catching'
p7122
S'attend'
p7123
tp7124
a(S'det'
p7125
S'conference'
p7126
g1399
tp7127
a(S'dobj'
p7128
S'attend'
p7129
S'conference'
p7130
tp7131
a(S'prep_in'
p7132
S'conference'
p7133
S'Australia'
p7134
tp7135
asg45
(lp7136
(g7037
S'ROOT-0'
p7137
S'told-18'
p7138
tp7139
a(g7041
S'countries-3'
p7140
S'The-1'
p7141
tp7142
a(g7045
S'countries-3'
p7143
S'only-2'
p7144
tp7145
a(g7049
S'countries-11'
p7146
S'countries-3'
p7147
tp7148
a(g7053
S'dont-5'
p7149
S'that-4'
p7150
tp7151
a(g7057
S'countries-3'
p7152
S'dont-5'
p7153
tp7154
a(g7061
S'dont-5'
p7155
S'allow-6'
p7156
tp7157
a(g7065
S'allow-6'
p7158
S'me-7'
p7159
tp7160
a(g7069
S'allow-6'
p7161
S'in-8'
p7162
tp7163
a(g7073
S'countries-11'
p7164
S'would-9'
p7165
tp7166
a(g7077
S'countries-11'
p7167
S'be-10'
p7168
tp7169
a(g7081
S'told-18'
p7170
S'countries-11'
p7171
tp7172
a(g7085
S'Iran-15'
p7173
S'Iraq-13'
p7174
tp7175
a(g7089
S'countries-11'
p7176
S'Iran-15'
p7177
tp7178
a(g7093
S'told-18'
p7179
S'he-17'
p7180
tp7181
a(g7097
S'told-18'
p7182
S'reporters-19'
p7183
tp7184
a(g7101
S'told-18'
p7185
S'catching-21'
p7186
tp7187
a(g7105
S'flight-24'
p7188
S'an-22'
p7189
tp7190
a(g7109
S'flight-24'
p7191
S'afternoon-23'
p7192
tp7193
a(g7113
S'catching-21'
p7194
S'flight-24'
p7195
tp7196
a(g7117
S'attend-26'
p7197
S'to-25'
p7198
tp7199
a(g7121
S'catching-21'
p7200
S'attend-26'
p7201
tp7202
a(g7125
S'conference-28'
p7203
S'a-27'
p7204
tp7205
a(g7128
S'attend-26'
p7206
S'conference-28'
p7207
tp7208
a(g7132
S'conference-28'
p7209
S'Australia-30'
p7210
tp7211
asg71
(lp7212
(S'The'
p7213
(dp7214
S'NamedEntityTag'
p7215
g102
sS'CharacterOffsetEnd'
p7216
S'1931'
p7217
sS'Lemma'
p7218
S'the'
p7219
sS'PartOfSpeech'
p7220
S'DT'
p7221
sS'CharacterOffsetBegin'
p7222
S'1928'
p7223
stp7224
a(S'only'
p7225
(dp7226
S'NamedEntityTag'
p7227
g102
sS'CharacterOffsetEnd'
p7228
S'1936'
p7229
sS'Lemma'
p7230
S'only'
p7231
sS'PartOfSpeech'
p7232
S'JJ'
p7233
sS'CharacterOffsetBegin'
p7234
S'1932'
p7235
stp7236
a(S'countries'
p7237
(dp7238
S'NamedEntityTag'
p7239
g102
sS'CharacterOffsetEnd'
p7240
S'1946'
p7241
sS'Lemma'
p7242
S'country'
p7243
sS'PartOfSpeech'
p7244
S'NNS'
p7245
sS'CharacterOffsetBegin'
p7246
S'1937'
p7247
stp7248
a(S'that'
p7249
(dp7250
S'NamedEntityTag'
p7251
g102
sS'CharacterOffsetEnd'
p7252
S'1951'
p7253
sS'Lemma'
p7254
S'that'
p7255
sS'PartOfSpeech'
p7256
S'WDT'
p7257
sS'CharacterOffsetBegin'
p7258
S'1947'
p7259
stp7260
a(S'dont'
p7261
(dp7262
S'NamedEntityTag'
p7263
g102
sS'CharacterOffsetEnd'
p7264
S'1956'
p7265
sS'Lemma'
p7266
S'dont'
p7267
sS'PartOfSpeech'
p7268
S'VBP'
p7269
sS'CharacterOffsetBegin'
p7270
S'1952'
p7271
stp7272
a(S'allow'
p7273
(dp7274
S'NamedEntityTag'
p7275
g102
sS'CharacterOffsetEnd'
p7276
S'1962'
p7277
sS'Lemma'
p7278
S'allow'
p7279
sS'PartOfSpeech'
p7280
S'VB'
p7281
sS'CharacterOffsetBegin'
p7282
S'1957'
p7283
stp7284
a(S'me'
p7285
(dp7286
S'NamedEntityTag'
p7287
g102
sS'CharacterOffsetEnd'
p7288
S'1965'
p7289
sS'Lemma'
p7290
g1083
sS'PartOfSpeech'
p7291
S'PRP'
p7292
sS'CharacterOffsetBegin'
p7293
S'1963'
p7294
stp7295
a(S'in'
p7296
(dp7297
S'NamedEntityTag'
p7298
g102
sS'CharacterOffsetEnd'
p7299
S'1968'
p7300
sS'Lemma'
p7301
S'in'
p7302
sS'PartOfSpeech'
p7303
S'IN'
p7304
sS'CharacterOffsetBegin'
p7305
S'1966'
p7306
stp7307
a(S'would'
p7308
(dp7309
S'NamedEntityTag'
p7310
g102
sS'CharacterOffsetEnd'
p7311
S'1974'
p7312
sS'Lemma'
p7313
S'would'
p7314
sS'PartOfSpeech'
p7315
S'MD'
p7316
sS'CharacterOffsetBegin'
p7317
S'1969'
p7318
stp7319
a(S'be'
p7320
(dp7321
S'NamedEntityTag'
p7322
g102
sS'CharacterOffsetEnd'
p7323
S'1977'
p7324
sS'Lemma'
p7325
S'be'
p7326
sS'PartOfSpeech'
p7327
S'VB'
p7328
sS'CharacterOffsetBegin'
p7329
S'1975'
p7330
stp7331
a(S'countries'
p7332
(dp7333
S'NamedEntityTag'
p7334
g102
sS'CharacterOffsetEnd'
p7335
S'1987'
p7336
sS'Lemma'
p7337
S'country'
p7338
sS'PartOfSpeech'
p7339
S'NNS'
p7340
sS'CharacterOffsetBegin'
p7341
S'1978'
p7342
stp7343
a(S'like'
p7344
(dp7345
S'NamedEntityTag'
p7346
g102
sS'CharacterOffsetEnd'
p7347
S'1992'
p7348
sS'Lemma'
p7349
S'like'
p7350
sS'PartOfSpeech'
p7351
S'IN'
p7352
sS'CharacterOffsetBegin'
p7353
S'1988'
p7354
stp7355
a(S'Iraq'
p7356
(dp7357
S'NamedEntityTag'
p7358
S'LOCATION'
p7359
sS'CharacterOffsetEnd'
p7360
S'1997'
p7361
sS'Lemma'
p7362
S'Iraq'
p7363
sS'PartOfSpeech'
p7364
S'NNP'
p7365
sS'CharacterOffsetBegin'
p7366
S'1993'
p7367
stp7368
a(g534
(dp7369
S'NamedEntityTag'
p7370
g102
sS'CharacterOffsetEnd'
p7371
S'1998'
p7372
sS'Lemma'
p7373
g534
sS'PartOfSpeech'
p7374
g534
sS'CharacterOffsetBegin'
p7375
S'1997'
p7376
stp7377
a(S'Iran'
p7378
(dp7379
S'NamedEntityTag'
p7380
S'LOCATION'
p7381
sS'CharacterOffsetEnd'
p7382
S'2003'
p7383
sS'Lemma'
p7384
S'Iran'
p7385
sS'PartOfSpeech'
p7386
S'NNP'
p7387
sS'CharacterOffsetBegin'
p7388
S'1999'
p7389
stp7390
a(g534
(dp7391
S'NamedEntityTag'
p7392
g102
sS'CharacterOffsetEnd'
p7393
S'2004'
p7394
sS'Lemma'
p7395
g534
sS'PartOfSpeech'
p7396
g534
sS'CharacterOffsetBegin'
p7397
S'2003'
p7398
stp7399
a(S'he'
p7400
(dp7401
S'NamedEntityTag'
p7402
g102
sS'CharacterOffsetEnd'
p7403
S'2007'
p7404
sS'Lemma'
p7405
S'he'
p7406
sS'PartOfSpeech'
p7407
S'PRP'
p7408
sS'CharacterOffsetBegin'
p7409
S'2005'
p7410
stp7411
a(S'told'
p7412
(dp7413
S'NamedEntityTag'
p7414
g102
sS'CharacterOffsetEnd'
p7415
S'2012'
p7416
sS'Lemma'
p7417
S'tell'
p7418
sS'PartOfSpeech'
p7419
S'VBD'
p7420
sS'CharacterOffsetBegin'
p7421
S'2008'
p7422
stp7423
a(S'reporters'
p7424
(dp7425
S'NamedEntityTag'
p7426
g102
sS'CharacterOffsetEnd'
p7427
S'2022'
p7428
sS'Lemma'
p7429
S'reporter'
p7430
sS'PartOfSpeech'
p7431
S'NNS'
p7432
sS'CharacterOffsetBegin'
p7433
S'2013'
p7434
stp7435
a(S'before'
p7436
(dp7437
S'NamedEntityTag'
p7438
g102
sS'CharacterOffsetEnd'
p7439
S'2029'
p7440
sS'Lemma'
p7441
S'before'
p7442
sS'PartOfSpeech'
p7443
S'IN'
p7444
sS'CharacterOffsetBegin'
p7445
S'2023'
p7446
stp7447
a(S'catching'
p7448
(dp7449
S'NamedEntityTag'
p7450
g102
sS'CharacterOffsetEnd'
p7451
S'2038'
p7452
sS'Lemma'
p7453
S'catch'
p7454
sS'PartOfSpeech'
p7455
S'VBG'
p7456
sS'CharacterOffsetBegin'
p7457
S'2030'
p7458
stp7459
a(S'an'
p7460
(dp7461
S'NamedEntityTag'
p7462
g102
sS'CharacterOffsetEnd'
p7463
S'2041'
p7464
sS'Lemma'
p7465
g1399
sS'PartOfSpeech'
p7466
S'DT'
p7467
sS'CharacterOffsetBegin'
p7468
S'2039'
p7469
stp7470
a(S'afternoon'
p7471
(dp7472
S'NormalizedNamedEntityTag'
p7473
S'TAF'
p7474
sS'Timex'
p7475
S'<TIMEX3 tid="t9" type="TIME" value="TAF">afternoon</TIMEX3>'
p7476
sS'Lemma'
p7477
S'afternoon'
p7478
sS'CharacterOffsetEnd'
p7479
S'2051'
p7480
sS'PartOfSpeech'
p7481
S'NN'
p7482
sS'CharacterOffsetBegin'
p7483
S'2042'
p7484
sS'NamedEntityTag'
p7485
S'TIME'
p7486
stp7487
a(S'flight'
p7488
(dp7489
S'NamedEntityTag'
p7490
g102
sS'CharacterOffsetEnd'
p7491
S'2058'
p7492
sS'Lemma'
p7493
S'flight'
p7494
sS'PartOfSpeech'
p7495
S'NN'
p7496
sS'CharacterOffsetBegin'
p7497
S'2052'
p7498
stp7499
a(S'to'
p7500
(dp7501
S'NamedEntityTag'
p7502
g102
sS'CharacterOffsetEnd'
p7503
S'2061'
p7504
sS'Lemma'
p7505
S'to'
p7506
sS'PartOfSpeech'
p7507
S'TO'
p7508
sS'CharacterOffsetBegin'
p7509
S'2059'
p7510
stp7511
a(S'attend'
p7512
(dp7513
S'NamedEntityTag'
p7514
g102
sS'CharacterOffsetEnd'
p7515
S'2068'
p7516
sS'Lemma'
p7517
S'attend'
p7518
sS'PartOfSpeech'
p7519
S'VB'
p7520
sS'CharacterOffsetBegin'
p7521
S'2062'
p7522
stp7523
a(g1399
(dp7524
S'NamedEntityTag'
p7525
g102
sS'CharacterOffsetEnd'
p7526
S'2070'
p7527
sS'Lemma'
p7528
g1399
sS'PartOfSpeech'
p7529
S'DT'
p7530
sS'CharacterOffsetBegin'
p7531
S'2069'
p7532
stp7533
a(S'conference'
p7534
(dp7535
S'NamedEntityTag'
p7536
g102
sS'CharacterOffsetEnd'
p7537
S'2081'
p7538
sS'Lemma'
p7539
S'conference'
p7540
sS'PartOfSpeech'
p7541
S'NN'
p7542
sS'CharacterOffsetBegin'
p7543
S'2071'
p7544
stp7545
a(S'in'
p7546
(dp7547
S'NamedEntityTag'
p7548
g102
sS'CharacterOffsetEnd'
p7549
S'2084'
p7550
sS'Lemma'
p7551
S'in'
p7552
sS'PartOfSpeech'
p7553
S'IN'
p7554
sS'CharacterOffsetBegin'
p7555
S'2082'
p7556
stp7557
a(S'Australia'
p7558
(dp7559
S'NamedEntityTag'
p7560
S'LOCATION'
p7561
sS'CharacterOffsetEnd'
p7562
S'2094'
p7563
sS'Lemma'
p7564
S'Australia'
p7565
sS'PartOfSpeech'
p7566
S'NNP'
p7567
sS'CharacterOffsetBegin'
p7568
S'2085'
p7569
stp7570
a(g398
(dp7571
S'NamedEntityTag'
p7572
g102
sS'CharacterOffsetEnd'
p7573
S'2095'
p7574
sS'Lemma'
p7575
g398
sS'PartOfSpeech'
p7576
g398
sS'CharacterOffsetBegin'
p7577
S'2094'
p7578
stp7579
asa(dp7580
g7
S'(ROOT (S (NP (NNP Indonesia)) (VP (VP (VBD invaded) (NP (NP (NNP East) (NNP Timor)) (PP (IN in) (NP (CD 1975))))) (CC and) (VP (VBD annexed) (NP (PRP it)) (NP-TMP (DT the) (JJ following) (NN year)))) (. .)))'
p7581
sg9
S'Indonesia invaded East Timor in 1975 and annexed it the following year.'
p7582
sg11
(lp7583
(S'root'
p7584
S'ROOT'
p7585
S'invaded'
p7586
tp7587
a(S'nsubj'
p7588
S'invaded'
p7589
S'Indonesia'
p7590
tp7591
a(S'nn'
p7592
S'Timor'
p7593
S'East'
p7594
tp7595
a(S'dobj'
p7596
S'invaded'
p7597
S'Timor'
p7598
tp7599
a(S'prep_in'
p7600
S'Timor'
p7601
S'1975'
p7602
tp7603
a(S'conj_and'
p7604
S'invaded'
p7605
S'annexed'
p7606
tp7607
a(S'dobj'
p7608
S'annexed'
p7609
S'it'
p7610
tp7611
a(S'det'
p7612
S'year'
p7613
S'the'
p7614
tp7615
a(S'amod'
p7616
S'year'
p7617
S'following'
p7618
tp7619
a(S'tmod'
p7620
S'annexed'
p7621
S'year'
p7622
tp7623
asg45
(lp7624
(g7584
S'ROOT-0'
p7625
S'invaded-2'
p7626
tp7627
a(g7588
S'invaded-2'
p7628
S'Indonesia-1'
p7629
tp7630
a(g7592
S'Timor-4'
p7631
S'East-3'
p7632
tp7633
a(g7596
S'invaded-2'
p7634
S'Timor-4'
p7635
tp7636
a(g7600
S'Timor-4'
p7637
S'1975-6'
p7638
tp7639
a(g7604
S'invaded-2'
p7640
S'annexed-8'
p7641
tp7642
a(g7608
S'annexed-8'
p7643
S'it-9'
p7644
tp7645
a(g7612
S'year-12'
p7646
S'the-10'
p7647
tp7648
a(g7616
S'year-12'
p7649
S'following-11'
p7650
tp7651
a(g7620
S'annexed-8'
p7652
S'year-12'
p7653
tp7654
asg71
(lp7655
(S'Indonesia'
p7656
(dp7657
S'NamedEntityTag'
p7658
S'LOCATION'
p7659
sS'CharacterOffsetEnd'
p7660
S'2105'
p7661
sS'Lemma'
p7662
S'Indonesia'
p7663
sS'PartOfSpeech'
p7664
S'NNP'
p7665
sS'CharacterOffsetBegin'
p7666
S'2096'
p7667
stp7668
a(S'invaded'
p7669
(dp7670
S'NamedEntityTag'
p7671
g102
sS'CharacterOffsetEnd'
p7672
S'2113'
p7673
sS'Lemma'
p7674
S'invade'
p7675
sS'PartOfSpeech'
p7676
S'VBD'
p7677
sS'CharacterOffsetBegin'
p7678
S'2106'
p7679
stp7680
a(S'East'
p7681
(dp7682
S'NamedEntityTag'
p7683
S'LOCATION'
p7684
sS'CharacterOffsetEnd'
p7685
S'2118'
p7686
sS'Lemma'
p7687
S'East'
p7688
sS'PartOfSpeech'
p7689
S'NNP'
p7690
sS'CharacterOffsetBegin'
p7691
S'2114'
p7692
stp7693
a(S'Timor'
p7694
(dp7695
S'NamedEntityTag'
p7696
S'LOCATION'
p7697
sS'CharacterOffsetEnd'
p7698
S'2124'
p7699
sS'Lemma'
p7700
S'Timor'
p7701
sS'PartOfSpeech'
p7702
S'NNP'
p7703
sS'CharacterOffsetBegin'
p7704
S'2119'
p7705
stp7706
a(S'in'
p7707
(dp7708
S'NamedEntityTag'
p7709
g102
sS'CharacterOffsetEnd'
p7710
S'2127'
p7711
sS'Lemma'
p7712
S'in'
p7713
sS'PartOfSpeech'
p7714
S'IN'
p7715
sS'CharacterOffsetBegin'
p7716
S'2125'
p7717
stp7718
a(S'1975'
p7719
(dp7720
S'NormalizedNamedEntityTag'
p7721
S'1975'
p7722
sS'Timex'
p7723
S'<TIMEX3 tid="t10" type="DATE" value="1975">1975</TIMEX3>'
p7724
sS'Lemma'
p7725
S'1975'
p7726
sS'CharacterOffsetEnd'
p7727
S'2132'
p7728
sS'PartOfSpeech'
p7729
S'CD'
p7730
sS'CharacterOffsetBegin'
p7731
S'2128'
p7732
sS'NamedEntityTag'
p7733
S'DATE'
p7734
stp7735
a(S'and'
p7736
(dp7737
S'NamedEntityTag'
p7738
g102
sS'CharacterOffsetEnd'
p7739
S'2136'
p7740
sS'Lemma'
p7741
S'and'
p7742
sS'PartOfSpeech'
p7743
S'CC'
p7744
sS'CharacterOffsetBegin'
p7745
S'2133'
p7746
stp7747
a(S'annexed'
p7748
(dp7749
S'NamedEntityTag'
p7750
g102
sS'CharacterOffsetEnd'
p7751
S'2144'
p7752
sS'Lemma'
p7753
S'annex'
p7754
sS'PartOfSpeech'
p7755
S'VBD'
p7756
sS'CharacterOffsetBegin'
p7757
S'2137'
p7758
stp7759
a(S'it'
p7760
(dp7761
S'NamedEntityTag'
p7762
g102
sS'CharacterOffsetEnd'
p7763
S'2147'
p7764
sS'Lemma'
p7765
S'it'
p7766
sS'PartOfSpeech'
p7767
S'PRP'
p7768
sS'CharacterOffsetBegin'
p7769
S'2145'
p7770
stp7771
a(S'the'
p7772
(dp7773
S'NormalizedNamedEntityTag'
p7774
S'NEXT_IMMEDIATE'
p7775
sS'Timex'
p7776
S'<TIMEX3 alt_value="NEXT_IMMEDIATE P1Y" anchorTimeID="t0" temporalFunction="true" tid="t11" type="DATE" valueFromFunction="tf0">the following year</TIMEX3>'
p7777
sS'Lemma'
p7778
S'the'
p7779
sS'CharacterOffsetEnd'
p7780
S'2151'
p7781
sS'PartOfSpeech'
p7782
S'DT'
p7783
sS'CharacterOffsetBegin'
p7784
S'2148'
p7785
sS'NamedEntityTag'
p7786
S'DATE'
p7787
stp7788
a(S'following'
p7789
(dp7790
S'NormalizedNamedEntityTag'
p7791
S'NEXT_IMMEDIATE'
p7792
sS'Timex'
p7793
S'<TIMEX3 alt_value="NEXT_IMMEDIATE P1Y" anchorTimeID="t0" temporalFunction="true" tid="t11" type="DATE" valueFromFunction="tf0">the following year</TIMEX3>'
p7794
sS'Lemma'
p7795
S'following'
p7796
sS'CharacterOffsetEnd'
p7797
S'2161'
p7798
sS'PartOfSpeech'
p7799
S'JJ'
p7800
sS'CharacterOffsetBegin'
p7801
S'2152'
p7802
sS'NamedEntityTag'
p7803
S'DATE'
p7804
stp7805
a(S'year'
p7806
(dp7807
S'NormalizedNamedEntityTag'
p7808
S'NEXT_IMMEDIATE'
p7809
sS'Timex'
p7810
S'<TIMEX3 alt_value="NEXT_IMMEDIATE P1Y" anchorTimeID="t0" temporalFunction="true" tid="t11" type="DATE" valueFromFunction="tf0">the following year</TIMEX3>'
p7811
sS'Lemma'
p7812
S'year'
p7813
sS'CharacterOffsetEnd'
p7814
S'2166'
p7815
sS'PartOfSpeech'
p7816
S'NN'
p7817
sS'CharacterOffsetBegin'
p7818
S'2162'
p7819
sS'NamedEntityTag'
p7820
S'DATE'
p7821
stp7822
a(g398
(dp7823
S'NamedEntityTag'
p7824
g102
sS'CharacterOffsetEnd'
p7825
S'2167'
p7826
sS'Lemma'
p7827
g398
sS'PartOfSpeech'
p7828
g398
sS'CharacterOffsetBegin'
p7829
S'2166'
p7830
stp7831
asa(dp7832
g7
S'(ROOT (S (NP (DT The) (NNP United) (NNPS Nations)) (VP (VBZ does) (RB not) (VP (VB recognize) (NP (JJ Indonesian) (NNS claims)) (PP (TO to) (NP (NNP East) (NNP Timor))))) (. .)))'
p7833
sg9
S'The United Nations does not recognize Indonesian claims to East Timor.'
p7834
sg11
(lp7835
(S'root'
p7836
S'ROOT'
p7837
S'recognize'
p7838
tp7839
a(S'det'
p7840
S'Nations'
p7841
S'The'
p7842
tp7843
a(S'nn'
p7844
S'Nations'
p7845
S'United'
p7846
tp7847
a(S'nsubj'
p7848
S'recognize'
p7849
S'Nations'
p7850
tp7851
a(S'aux'
p7852
S'recognize'
p7853
S'does'
p7854
tp7855
a(S'neg'
p7856
S'recognize'
p7857
S'not'
p7858
tp7859
a(S'amod'
p7860
S'claims'
p7861
S'Indonesian'
p7862
tp7863
a(S'dobj'
p7864
S'recognize'
p7865
S'claims'
p7866
tp7867
a(S'nn'
p7868
S'Timor'
p7869
S'East'
p7870
tp7871
a(S'prep_to'
p7872
S'recognize'
p7873
S'Timor'
p7874
tp7875
asg45
(lp7876
(g7836
S'ROOT-0'
p7877
S'recognize-6'
p7878
tp7879
a(g7840
S'Nations-3'
p7880
S'The-1'
p7881
tp7882
a(g7844
S'Nations-3'
p7883
S'United-2'
p7884
tp7885
a(g7848
S'recognize-6'
p7886
S'Nations-3'
p7887
tp7888
a(g7852
S'recognize-6'
p7889
S'does-4'
p7890
tp7891
a(g7856
S'recognize-6'
p7892
S'not-5'
p7893
tp7894
a(g7860
S'claims-8'
p7895
S'Indonesian-7'
p7896
tp7897
a(g7864
S'recognize-6'
p7898
S'claims-8'
p7899
tp7900
a(g7868
S'Timor-11'
p7901
S'East-10'
p7902
tp7903
a(g7872
S'recognize-6'
p7904
S'Timor-11'
p7905
tp7906
asg71
(lp7907
(S'The'
p7908
(dp7909
S'NamedEntityTag'
p7910
g102
sS'CharacterOffsetEnd'
p7911
S'2171'
p7912
sS'Lemma'
p7913
S'the'
p7914
sS'PartOfSpeech'
p7915
S'DT'
p7916
sS'CharacterOffsetBegin'
p7917
S'2168'
p7918
stp7919
a(S'United'
p7920
(dp7921
S'NamedEntityTag'
p7922
S'ORGANIZATION'
p7923
sS'CharacterOffsetEnd'
p7924
S'2178'
p7925
sS'Lemma'
p7926
S'United'
p7927
sS'PartOfSpeech'
p7928
S'NNP'
p7929
sS'CharacterOffsetBegin'
p7930
S'2172'
p7931
stp7932
a(S'Nations'
p7933
(dp7934
S'NamedEntityTag'
p7935
S'ORGANIZATION'
p7936
sS'CharacterOffsetEnd'
p7937
S'2186'
p7938
sS'Lemma'
p7939
S'Nations'
p7940
sS'PartOfSpeech'
p7941
S'NNPS'
p7942
sS'CharacterOffsetBegin'
p7943
S'2179'
p7944
stp7945
a(S'does'
p7946
(dp7947
S'NamedEntityTag'
p7948
g102
sS'CharacterOffsetEnd'
p7949
S'2191'
p7950
sS'Lemma'
p7951
S'do'
p7952
sS'PartOfSpeech'
p7953
S'VBZ'
p7954
sS'CharacterOffsetBegin'
p7955
S'2187'
p7956
stp7957
a(S'not'
p7958
(dp7959
S'NamedEntityTag'
p7960
g102
sS'CharacterOffsetEnd'
p7961
S'2195'
p7962
sS'Lemma'
p7963
S'not'
p7964
sS'PartOfSpeech'
p7965
S'RB'
p7966
sS'CharacterOffsetBegin'
p7967
S'2192'
p7968
stp7969
a(S'recognize'
p7970
(dp7971
S'NamedEntityTag'
p7972
g102
sS'CharacterOffsetEnd'
p7973
S'2205'
p7974
sS'Lemma'
p7975
S'recognize'
p7976
sS'PartOfSpeech'
p7977
S'VB'
p7978
sS'CharacterOffsetBegin'
p7979
S'2196'
p7980
stp7981
a(S'Indonesian'
p7982
(dp7983
S'NamedEntityTag'
p7984
S'LOCATION'
p7985
sS'CharacterOffsetEnd'
p7986
S'2216'
p7987
sS'Lemma'
p7988
S'indonesian'
p7989
sS'PartOfSpeech'
p7990
S'JJ'
p7991
sS'CharacterOffsetBegin'
p7992
S'2206'
p7993
stp7994
a(S'claims'
p7995
(dp7996
S'NamedEntityTag'
p7997
g102
sS'CharacterOffsetEnd'
p7998
S'2223'
p7999
sS'Lemma'
p8000
S'claim'
p8001
sS'PartOfSpeech'
p8002
S'NNS'
p8003
sS'CharacterOffsetBegin'
p8004
S'2217'
p8005
stp8006
a(S'to'
p8007
(dp8008
S'NamedEntityTag'
p8009
g102
sS'CharacterOffsetEnd'
p8010
S'2226'
p8011
sS'Lemma'
p8012
S'to'
p8013
sS'PartOfSpeech'
p8014
S'TO'
p8015
sS'CharacterOffsetBegin'
p8016
S'2224'
p8017
stp8018
a(S'East'
p8019
(dp8020
S'NamedEntityTag'
p8021
S'LOCATION'
p8022
sS'CharacterOffsetEnd'
p8023
S'2231'
p8024
sS'Lemma'
p8025
S'East'
p8026
sS'PartOfSpeech'
p8027
S'NNP'
p8028
sS'CharacterOffsetBegin'
p8029
S'2227'
p8030
stp8031
a(S'Timor'
p8032
(dp8033
S'NamedEntityTag'
p8034
S'LOCATION'
p8035
sS'CharacterOffsetEnd'
p8036
S'2237'
p8037
sS'Lemma'
p8038
S'Timor'
p8039
sS'PartOfSpeech'
p8040
S'NNP'
p8041
sS'CharacterOffsetBegin'
p8042
S'2232'
p8043
stp8044
a(g398
(dp8045
S'NamedEntityTag'
p8046
g102
sS'CharacterOffsetEnd'
p8047
S'2238'
p8048
sS'Lemma'
p8049
g398
sS'PartOfSpeech'
p8050
g398
sS'CharacterOffsetBegin'
p8051
S'2237'
p8052
stp8053
asass.