(dp0
S'models'
p1
(lp2
(dp3
S'sentences'
p4
(lp5
(dp6
S'parsetree'
p7
S'(ROOT (S (NP (NNP Nobel) (NNP Laureate) (NNP Saramago)) (VP (VBZ says) (SBAR (S (NP (JJ other) (JJ Portuguese) (NNS writers)) (VP (VBD deserved) (NP (NN award))))))))'
p8
sS'text'
p9
S'Nobel Laureate Saramago says other Portuguese writers deserved award'
p10
sS'dependencies'
p11
(lp12
(S'root'
p13
S'ROOT'
p14
S'says'
p15
tp16
a(S'nn'
p17
S'Saramago'
p18
S'Nobel'
p19
tp20
a(S'nn'
p21
S'Saramago'
p22
S'Laureate'
p23
tp24
a(S'nsubj'
p25
S'says'
p26
S'Saramago'
p27
tp28
a(S'amod'
p29
S'writers'
p30
S'other'
p31
tp32
a(S'amod'
p33
S'writers'
p34
S'Portuguese'
p35
tp36
a(S'nsubj'
p37
S'deserved'
p38
S'writers'
p39
tp40
a(S'ccomp'
p41
S'says'
p42
S'deserved'
p43
tp44
a(S'dobj'
p45
S'deserved'
p46
S'award'
p47
tp48
asS'indexeddependencies'
p49
(lp50
(g13
S'ROOT-0'
p51
S'says-4'
p52
tp53
a(g17
S'Saramago-3'
p54
S'Nobel-1'
p55
tp56
a(g21
S'Saramago-3'
p57
S'Laureate-2'
p58
tp59
a(g25
S'says-4'
p60
S'Saramago-3'
p61
tp62
a(g29
S'writers-7'
p63
S'other-5'
p64
tp65
a(g33
S'writers-7'
p66
S'Portuguese-6'
p67
tp68
a(g37
S'deserved-8'
p69
S'writers-7'
p70
tp71
a(g41
S'says-4'
p72
S'deserved-8'
p73
tp74
a(g45
S'deserved-8'
p75
S'award-9'
p76
tp77
asS'words'
p78
(lp79
(S'Nobel'
p80
(dp81
S'NamedEntityTag'
p82
S'O'
p83
sS'CharacterOffsetEnd'
p84
S'6'
p85
sS'Lemma'
p86
S'Nobel'
p87
sS'PartOfSpeech'
p88
S'NNP'
p89
sS'CharacterOffsetBegin'
p90
S'1'
p91
stp92
a(S'Laureate'
p93
(dp94
S'NamedEntityTag'
p95
g83
sS'CharacterOffsetEnd'
p96
S'15'
p97
sS'Lemma'
p98
S'Laureate'
p99
sS'PartOfSpeech'
p100
S'NNP'
p101
sS'CharacterOffsetBegin'
p102
S'7'
p103
stp104
a(S'Saramago'
p105
(dp106
S'NamedEntityTag'
p107
S'PERSON'
p108
sS'CharacterOffsetEnd'
p109
S'24'
p110
sS'Lemma'
p111
S'Saramago'
p112
sS'PartOfSpeech'
p113
S'NNP'
p114
sS'CharacterOffsetBegin'
p115
S'16'
p116
stp117
a(S'says'
p118
(dp119
S'NamedEntityTag'
p120
g83
sS'CharacterOffsetEnd'
p121
S'29'
p122
sS'Lemma'
p123
S'say'
p124
sS'PartOfSpeech'
p125
S'VBZ'
p126
sS'CharacterOffsetBegin'
p127
S'25'
p128
stp129
a(S'other'
p130
(dp131
S'NamedEntityTag'
p132
g83
sS'CharacterOffsetEnd'
p133
S'35'
p134
sS'Lemma'
p135
S'other'
p136
sS'PartOfSpeech'
p137
S'JJ'
p138
sS'CharacterOffsetBegin'
p139
S'30'
p140
stp141
a(S'Portuguese'
p142
(dp143
S'NamedEntityTag'
p144
S'MISC'
p145
sS'CharacterOffsetEnd'
p146
S'46'
p147
sS'Lemma'
p148
S'portuguese'
p149
sS'PartOfSpeech'
p150
S'JJ'
p151
sS'CharacterOffsetBegin'
p152
S'36'
p153
stp154
a(S'writers'
p155
(dp156
S'NamedEntityTag'
p157
g83
sS'CharacterOffsetEnd'
p158
S'54'
p159
sS'Lemma'
p160
S'writer'
p161
sS'PartOfSpeech'
p162
S'NNS'
p163
sS'CharacterOffsetBegin'
p164
S'47'
p165
stp166
a(S'deserved'
p167
(dp168
S'NamedEntityTag'
p169
g83
sS'CharacterOffsetEnd'
p170
S'63'
p171
sS'Lemma'
p172
S'deserve'
p173
sS'PartOfSpeech'
p174
S'VBD'
p175
sS'CharacterOffsetBegin'
p176
S'55'
p177
stp178
a(S'award'
p179
(dp180
S'NamedEntityTag'
p181
g83
sS'CharacterOffsetEnd'
p182
S'69'
p183
sS'Lemma'
p184
S'award'
p185
sS'PartOfSpeech'
p186
S'NN'
p187
sS'CharacterOffsetBegin'
p188
S'64'
p189
stp190
asasa(dp191
g4
(lp192
(dp193
g7
S"(ROOT (NP (NP (NNP Portuguese) (NNPS Dailies)) (NP (NP (NNP Jubilant)) (SBAR (S (PP (IN Over) (NP (NP (NNP Saramago) (POS 's)) (NNP Nobel) (NNP Prize))))))))"
p194
sg9
S"Portuguese Dailies Jubilant Over Saramago's Nobel Prize"
p195
sg11
(lp196
(S'root'
p197
S'ROOT'
p198
S'Dailies'
p199
tp200
a(S'nn'
p201
S'Dailies'
p202
S'Portuguese'
p203
tp204
a(S'dep'
p205
S'Dailies'
p206
S'Jubilant'
p207
tp208
a(S'rcmod'
p209
S'Jubilant'
p210
S'Over'
p211
tp212
a(S'poss'
p213
S'Prize'
p214
S'Saramago'
p215
tp216
a(S'nn'
p217
S'Prize'
p218
S'Nobel'
p219
tp220
a(S'pobj'
p221
S'Over'
p222
S'Prize'
p223
tp224
asg49
(lp225
(g197
S'ROOT-0'
p226
S'Dailies-2'
p227
tp228
a(g201
S'Dailies-2'
p229
S'Portuguese-1'
p230
tp231
a(g205
S'Dailies-2'
p232
S'Jubilant-3'
p233
tp234
a(g209
S'Jubilant-3'
p235
S'Over-4'
p236
tp237
a(g213
S'Prize-8'
p238
S'Saramago-5'
p239
tp240
a(g217
S'Prize-8'
p241
S'Nobel-7'
p242
tp243
a(g221
S'Over-4'
p244
S'Prize-8'
p245
tp246
asg78
(lp247
(S'Portuguese'
p248
(dp249
S'NamedEntityTag'
p250
S'MISC'
p251
sS'CharacterOffsetEnd'
p252
S'11'
p253
sS'Lemma'
p254
S'Portuguese'
p255
sS'PartOfSpeech'
p256
S'NNP'
p257
sS'CharacterOffsetBegin'
p258
g91
stp259
a(S'Dailies'
p260
(dp261
S'NamedEntityTag'
p262
g83
sS'CharacterOffsetEnd'
p263
S'19'
p264
sS'Lemma'
p265
S'Dailies'
p266
sS'PartOfSpeech'
p267
S'NNPS'
p268
sS'CharacterOffsetBegin'
p269
S'12'
p270
stp271
a(S'Jubilant'
p272
(dp273
S'NamedEntityTag'
p274
g83
sS'CharacterOffsetEnd'
p275
S'28'
p276
sS'Lemma'
p277
S'Jubilant'
p278
sS'PartOfSpeech'
p279
S'NNP'
p280
sS'CharacterOffsetBegin'
p281
S'20'
p282
stp283
a(S'Over'
p284
(dp285
S'NamedEntityTag'
p286
g83
sS'CharacterOffsetEnd'
p287
S'33'
p288
sS'Lemma'
p289
S'over'
p290
sS'PartOfSpeech'
p291
S'IN'
p292
sS'CharacterOffsetBegin'
p293
S'29'
p294
stp295
a(S'Saramago'
p296
(dp297
S'NamedEntityTag'
p298
S'PERSON'
p299
sS'CharacterOffsetEnd'
p300
S'42'
p301
sS'Lemma'
p302
S'Saramago'
p303
sS'PartOfSpeech'
p304
S'NNP'
p305
sS'CharacterOffsetBegin'
p306
S'34'
p307
stp308
a(S"'s"
p309
(dp310
S'NamedEntityTag'
p311
g83
sS'CharacterOffsetEnd'
p312
S'44'
p313
sS'Lemma'
p314
S"'s"
p315
sS'PartOfSpeech'
p316
S'POS'
p317
sS'CharacterOffsetBegin'
p318
S'42'
p319
stp320
a(S'Nobel'
p321
(dp322
S'NamedEntityTag'
p323
S'MISC'
p324
sS'CharacterOffsetEnd'
p325
S'50'
p326
sS'Lemma'
p327
S'Nobel'
p328
sS'PartOfSpeech'
p329
S'NNP'
p330
sS'CharacterOffsetBegin'
p331
S'45'
p332
stp333
a(S'Prize'
p334
(dp335
S'NamedEntityTag'
p336
S'MISC'
p337
sS'CharacterOffsetEnd'
p338
S'56'
p339
sS'Lemma'
p340
S'Prize'
p341
sS'PartOfSpeech'
p342
S'NNP'
p343
sS'CharacterOffsetBegin'
p344
S'51'
p345
stp346
asasa(dp347
g4
(lp348
(dp349
g7
S'(ROOT (S (NP (JJ Portuguese) (NN novelist) (NNP Jose) (NNP Saramago)) (VP (VBD learned) (PP (IN of) (NP (NNP Nobel))) (S (VP (VB win) (PP (IN from) (NP (NN air) (NN hostess))))))))'
p350
sg9
S'Portuguese novelist Jose Saramago learned of Nobel win from air hostess'
p351
sg11
(lp352
(S'root'
p353
S'ROOT'
p354
S'learned'
p355
tp356
a(S'amod'
p357
S'Saramago'
p358
S'Portuguese'
p359
tp360
a(S'nn'
p361
S'Saramago'
p362
S'novelist'
p363
tp364
a(S'nn'
p365
S'Saramago'
p366
S'Jose'
p367
tp368
a(S'nsubj'
p369
S'learned'
p370
S'Saramago'
p371
tp372
a(S'prep_of'
p373
S'learned'
p374
S'Nobel'
p375
tp376
a(S'ccomp'
p377
S'learned'
p378
S'win'
p379
tp380
a(S'nn'
p381
S'hostess'
p382
S'air'
p383
tp384
a(S'prep_from'
p385
S'win'
p386
S'hostess'
p387
tp388
asg49
(lp389
(g353
S'ROOT-0'
p390
S'learned-5'
p391
tp392
a(g357
S'Saramago-4'
p393
S'Portuguese-1'
p394
tp395
a(g361
S'Saramago-4'
p396
S'novelist-2'
p397
tp398
a(g365
S'Saramago-4'
p399
S'Jose-3'
p400
tp401
a(g369
S'learned-5'
p402
S'Saramago-4'
p403
tp404
a(g373
S'learned-5'
p405
S'Nobel-7'
p406
tp407
a(g377
S'learned-5'
p408
S'win-8'
p409
tp410
a(g381
S'hostess-11'
p411
S'air-10'
p412
tp413
a(g385
S'win-8'
p414
S'hostess-11'
p415
tp416
asg78
(lp417
(S'Portuguese'
p418
(dp419
S'NamedEntityTag'
p420
S'MISC'
p421
sS'CharacterOffsetEnd'
p422
S'11'
p423
sS'Lemma'
p424
S'portuguese'
p425
sS'PartOfSpeech'
p426
S'JJ'
p427
sS'CharacterOffsetBegin'
p428
g91
stp429
a(S'novelist'
p430
(dp431
S'NamedEntityTag'
p432
g83
sS'CharacterOffsetEnd'
p433
S'20'
p434
sS'Lemma'
p435
S'novelist'
p436
sS'PartOfSpeech'
p437
S'NN'
p438
sS'CharacterOffsetBegin'
p439
S'12'
p440
stp441
a(S'Jose'
p442
(dp443
S'NamedEntityTag'
p444
S'PERSON'
p445
sS'CharacterOffsetEnd'
p446
S'25'
p447
sS'Lemma'
p448
S'Jose'
p449
sS'PartOfSpeech'
p450
S'NNP'
p451
sS'CharacterOffsetBegin'
p452
S'21'
p453
stp454
a(S'Saramago'
p455
(dp456
S'NamedEntityTag'
p457
S'PERSON'
p458
sS'CharacterOffsetEnd'
p459
S'34'
p460
sS'Lemma'
p461
S'Saramago'
p462
sS'PartOfSpeech'
p463
S'NNP'
p464
sS'CharacterOffsetBegin'
p465
S'26'
p466
stp467
a(S'learned'
p468
(dp469
S'NamedEntityTag'
p470
g83
sS'CharacterOffsetEnd'
p471
S'42'
p472
sS'Lemma'
p473
S'learn'
p474
sS'PartOfSpeech'
p475
S'VBD'
p476
sS'CharacterOffsetBegin'
p477
S'35'
p478
stp479
a(S'of'
p480
(dp481
S'NamedEntityTag'
p482
g83
sS'CharacterOffsetEnd'
p483
S'45'
p484
sS'Lemma'
p485
S'of'
p486
sS'PartOfSpeech'
p487
S'IN'
p488
sS'CharacterOffsetBegin'
p489
S'43'
p490
stp491
a(S'Nobel'
p492
(dp493
S'NamedEntityTag'
p494
S'MISC'
p495
sS'CharacterOffsetEnd'
p496
S'51'
p497
sS'Lemma'
p498
S'Nobel'
p499
sS'PartOfSpeech'
p500
S'NNP'
p501
sS'CharacterOffsetBegin'
p502
S'46'
p503
stp504
a(S'win'
p505
(dp506
S'NamedEntityTag'
p507
g83
sS'CharacterOffsetEnd'
p508
S'55'
p509
sS'Lemma'
p510
S'win'
p511
sS'PartOfSpeech'
p512
S'VB'
p513
sS'CharacterOffsetBegin'
p514
S'52'
p515
stp516
a(S'from'
p517
(dp518
S'NamedEntityTag'
p519
g83
sS'CharacterOffsetEnd'
p520
S'60'
p521
sS'Lemma'
p522
S'from'
p523
sS'PartOfSpeech'
p524
S'IN'
p525
sS'CharacterOffsetBegin'
p526
S'56'
p527
stp528
a(S'air'
p529
(dp530
S'NamedEntityTag'
p531
g83
sS'CharacterOffsetEnd'
p532
S'64'
p533
sS'Lemma'
p534
S'air'
p535
sS'PartOfSpeech'
p536
S'NN'
p537
sS'CharacterOffsetBegin'
p538
S'61'
p539
stp540
a(S'hostess'
p541
(dp542
S'NamedEntityTag'
p543
g83
sS'CharacterOffsetEnd'
p544
S'72'
p545
sS'Lemma'
p546
S'hostess'
p547
sS'PartOfSpeech'
p548
S'NN'
p549
sS'CharacterOffsetBegin'
p550
S'65'
p551
stp552
asasa(dp553
g4
(lp554
(dp555
g7
S'(ROOT (S (NP (NNP Saramago)) (VP (VBZ says) (NP (JJ other) (JJ Portuguese) (NNS writers) (JJ deserving))) (. .)))'
p556
sg9
S'Saramago says other Portuguese writers deserving.'
p557
sg11
(lp558
(S'root'
p559
S'ROOT'
p560
S'says'
p561
tp562
a(S'nsubj'
p563
S'says'
p564
S'Saramago'
p565
tp566
a(S'amod'
p567
S'writers'
p568
S'other'
p569
tp570
a(S'amod'
p571
S'writers'
p572
S'Portuguese'
p573
tp574
a(S'dobj'
p575
S'says'
p576
S'writers'
p577
tp578
a(S'amod'
p579
S'writers'
p580
S'deserving'
p581
tp582
asg49
(lp583
(g559
S'ROOT-0'
p584
S'says-2'
p585
tp586
a(g563
S'says-2'
p587
S'Saramago-1'
p588
tp589
a(g567
S'writers-5'
p590
S'other-3'
p591
tp592
a(g571
S'writers-5'
p593
S'Portuguese-4'
p594
tp595
a(g575
S'says-2'
p596
S'writers-5'
p597
tp598
a(g579
S'writers-5'
p599
S'deserving-6'
p600
tp601
asg78
(lp602
(S'Saramago'
p603
(dp604
S'NamedEntityTag'
p605
S'PERSON'
p606
sS'CharacterOffsetEnd'
p607
S'9'
p608
sS'Lemma'
p609
S'Saramago'
p610
sS'PartOfSpeech'
p611
S'NNP'
p612
sS'CharacterOffsetBegin'
p613
g91
stp614
a(S'says'
p615
(dp616
S'NamedEntityTag'
p617
g83
sS'CharacterOffsetEnd'
p618
S'14'
p619
sS'Lemma'
p620
S'say'
p621
sS'PartOfSpeech'
p622
S'VBZ'
p623
sS'CharacterOffsetBegin'
p624
S'10'
p625
stp626
a(S'other'
p627
(dp628
S'NamedEntityTag'
p629
g83
sS'CharacterOffsetEnd'
p630
S'20'
p631
sS'Lemma'
p632
S'other'
p633
sS'PartOfSpeech'
p634
S'JJ'
p635
sS'CharacterOffsetBegin'
p636
S'15'
p637
stp638
a(S'Portuguese'
p639
(dp640
S'NamedEntityTag'
p641
S'MISC'
p642
sS'CharacterOffsetEnd'
p643
S'31'
p644
sS'Lemma'
p645
S'portuguese'
p646
sS'PartOfSpeech'
p647
S'JJ'
p648
sS'CharacterOffsetBegin'
p649
S'21'
p650
stp651
a(S'writers'
p652
(dp653
S'NamedEntityTag'
p654
g83
sS'CharacterOffsetEnd'
p655
S'39'
p656
sS'Lemma'
p657
S'writer'
p658
sS'PartOfSpeech'
p659
S'NNS'
p660
sS'CharacterOffsetBegin'
p661
S'32'
p662
stp663
a(S'deserving'
p664
(dp665
S'NamedEntityTag'
p666
g83
sS'CharacterOffsetEnd'
p667
S'49'
p668
sS'Lemma'
p669
S'deserving'
p670
sS'PartOfSpeech'
p671
S'JJ'
p672
sS'CharacterOffsetBegin'
p673
S'40'
p674
stp675
a(S'.'
p676
(dp677
S'NamedEntityTag'
p678
g83
sS'CharacterOffsetEnd'
p679
S'50'
p680
sS'Lemma'
p681
g676
sS'PartOfSpeech'
p682
g676
sS'CharacterOffsetBegin'
p683
S'49'
p684
stp685
asa(dp686
g7
S'(ROOT (S (NP (NNP Portugal)) (VP (VBD delighted) (PP (IN at) (S (VP (VB win)))))))'
p687
sg9
S'Portugal delighted at win'
p688
sg11
(lp689
(S'root'
p690
S'ROOT'
p691
S'delighted'
p692
tp693
a(S'nsubj'
p694
S'delighted'
p695
S'Portugal'
p696
tp697
a(S'prepc_at'
p698
S'delighted'
p699
S'win'
p700
tp701
asg49
(lp702
(g690
S'ROOT-0'
p703
S'delighted-2'
p704
tp705
a(g694
S'delighted-2'
p706
S'Portugal-1'
p707
tp708
a(g698
S'delighted-2'
p709
S'win-4'
p710
tp711
asg78
(lp712
(S'Portugal'
p713
(dp714
S'NamedEntityTag'
p715
S'LOCATION'
p716
sS'CharacterOffsetEnd'
p717
S'59'
p718
sS'Lemma'
p719
S'Portugal'
p720
sS'PartOfSpeech'
p721
S'NNP'
p722
sS'CharacterOffsetBegin'
p723
S'51'
p724
stp725
a(S'delighted'
p726
(dp727
S'NamedEntityTag'
p728
g83
sS'CharacterOffsetEnd'
p729
S'69'
p730
sS'Lemma'
p731
S'delight'
p732
sS'PartOfSpeech'
p733
S'VBD'
p734
sS'CharacterOffsetBegin'
p735
S'60'
p736
stp737
a(S'at'
p738
(dp739
S'NamedEntityTag'
p740
g83
sS'CharacterOffsetEnd'
p741
S'72'
p742
sS'Lemma'
p743
S'at'
p744
sS'PartOfSpeech'
p745
S'IN'
p746
sS'CharacterOffsetBegin'
p747
S'70'
p748
stp749
a(S'win'
p750
(dp751
S'NamedEntityTag'
p752
g83
sS'CharacterOffsetEnd'
p753
S'76'
p754
sS'Lemma'
p755
S'win'
p756
sS'PartOfSpeech'
p757
S'VB'
p758
sS'CharacterOffsetBegin'
p759
S'73'
p760
stp761
asasasS'article'
p762
(dp763
S'coref'
p764
(lp765
(lp766
((S'it'
p767
I1
I7
I7
I8
tp768
(S'A day'
p769
I0
I1
I0
I2
tp770
tp771
aa(lp772
((S'the Nobel Prize'
p773
I12
I4
I12
I15
tp774
(S'the Nobel Prize for literature'
p775
I0
I6
I4
I9
tp776
tp777
a((S'Nobel Prize'
p778
I12
I4
I13
I15
tp779
(S'the Nobel Prize for literature'
p780
I0
I6
I4
I9
tp781
tp782
a((S'the Nobel'
p783
I13
I6
I5
I7
tp784
(S'the Nobel Prize for literature'
p785
I0
I6
I4
I9
tp786
tp787
aa(lp788
((S'he'
p789
I0
I7
I17
I18
tp790
(S'Portuguese novelist Jose Saramago'
p791
I0
I3
I10
I14
tp792
tp793
a((S'Saramago'
p794
I2
I6
I26
I27
tp795
(S'Portuguese novelist Jose Saramago'
p796
I0
I3
I10
I14
tp797
tp798
a((S'Saramago'
p799
I4
I1
I31
I32
tp800
(S'Portuguese novelist Jose Saramago'
p801
I0
I3
I10
I14
tp802
tp803
a((S'his'
p804
I5
I7
I7
I8
tp805
(S'Portuguese novelist Jose Saramago'
p806
I0
I3
I10
I14
tp807
tp808
a((S'Saramago , a known atheist'
p809
I5
I0
I10
I15
tp810
(S'Portuguese novelist Jose Saramago'
p811
I0
I3
I10
I14
tp812
tp813
a((S'Saramago'
p814
I5
I0
I10
I11
tp815
(S'Portuguese novelist Jose Saramago'
p816
I0
I3
I10
I14
tp817
tp818
a((S'a known atheist'
p819
I5
I4
I12
I15
tp820
(S'Portuguese novelist Jose Saramago'
p821
I0
I3
I10
I14
tp822
tp823
a((S'he'
p824
I5
I8
I18
I19
tp825
(S'Portuguese novelist Jose Saramago'
p826
I0
I3
I10
I14
tp827
tp828
a((S'Saramago'
p829
I6
I7
I7
I8
tp830
(S'Portuguese novelist Jose Saramago'
p831
I0
I3
I10
I14
tp832
tp833
a((S'Saramago'
p834
I7
I5
I5
I6
tp835
(S'Portuguese novelist Jose Saramago'
p836
I0
I3
I10
I14
tp837
tp838
a((S'Saramago'
p839
I7
I1
I21
I22
tp840
(S'Portuguese novelist Jose Saramago'
p841
I0
I3
I10
I14
tp842
tp843
a((S'Saramago'
p844
I8
I8
I18
I19
tp845
(S'Portuguese novelist Jose Saramago'
p846
I0
I3
I10
I14
tp847
tp848
a((S'Congratulations Jose Saramago which were hung up around the capital during the night'
p849
I9
I-1
I7
I20
tp850
(S'Portuguese novelist Jose Saramago'
p851
I0
I3
I10
I14
tp852
tp853
a((S'Saramago'
p854
I10
I0
I0
I1
tp855
(S'Portuguese novelist Jose Saramago'
p856
I0
I3
I10
I14
tp857
tp858
a((S'He'
p859
I11
I0
I0
I1
tp860
(S'Portuguese novelist Jose Saramago'
p861
I0
I3
I10
I14
tp862
tp863
a((S'himself'
p864
I11
I1
I11
I12
tp865
(S'Portuguese novelist Jose Saramago'
p866
I0
I3
I10
I14
tp867
tp868
a((S'Saramago'
p869
I12
I7
I17
I18
tp870
(S'Portuguese novelist Jose Saramago'
p871
I0
I3
I10
I14
tp872
tp873
a((S'His'
p874
I15
I0
I0
I1
tp875
(S'Portuguese novelist Jose Saramago'
p876
I0
I3
I10
I14
tp877
tp878
a((S'Saramago , a communist who opposed the 41-year conservative dictatorship of Antonio Salazar'
p879
I16
I6
I6
I19
tp880
(S'Portuguese novelist Jose Saramago'
p881
I0
I3
I10
I14
tp882
tp883
a((S'Saramago'
p884
I16
I6
I6
I7
tp885
(S'Portuguese novelist Jose Saramago'
p886
I0
I3
I10
I14
tp887
tp888
a((S'a communist who opposed the 41-year conservative dictatorship of Antonio Salazar'
p889
I16
I-1
I8
I19
tp890
(S'Portuguese novelist Jose Saramago'
p891
I0
I3
I10
I14
tp892
tp893
a((S'he'
p894
I16
I-1
I29
I30
tp895
(S'Portuguese novelist Jose Saramago'
p896
I0
I3
I10
I14
tp897
tp898
a((S'He'
p899
I17
I0
I0
I1
tp900
(S'Portuguese novelist Jose Saramago'
p901
I0
I3
I10
I14
tp902
tp903
a((S'his'
p904
I18
I4
I4
I5
tp905
(S'Portuguese novelist Jose Saramago'
p906
I0
I3
I10
I14
tp907
tp908
a((S'Saramago'
p909
I19
I4
I4
I5
tp910
(S'Portuguese novelist Jose Saramago'
p911
I0
I3
I10
I14
tp912
tp913
a((S'he'
p914
I19
I8
I8
I9
tp915
(S'Portuguese novelist Jose Saramago'
p916
I0
I3
I10
I14
tp917
tp918
aa(lp919
((S'it'
p920
I0
I5
I25
I26
tp921
(S'the award'
p922
I0
I3
I22
I24
tp923
tp924
aa(lp925
((S'first'
p926
I15
I1
I1
I2
tp927
(S'first'
p928
I1
I1
I11
I12
tp929
tp930
aa(lp931
((S'he'
p932
I2
I0
I30
I31
tp933
(S'Portuguse'
p934
I2
I4
I4
I5
tp935
tp936
a((S'he'
p937
I2
I2
I32
I33
tp938
(S'Portuguse'
p939
I2
I4
I4
I5
tp940
tp941
a((S'he'
p942
I2
I5
I45
I46
tp943
(S'Portuguse'
p944
I2
I4
I4
I5
tp945
tp946
aa(lp947
((S'the prize'
p948
I5
I5
I34
I36
tp949
(S'the prize from German air hostess'
p950
I2
I6
I35
I41
tp951
tp952
aa(lp953
((S'the book'
p954
I4
I2
I11
I13
tp955
(S'the citys book fair to meet the press and public'
p956
I3
I8
I16
I26
tp957
tp958
aa(lp959
((S'I'
p960
I4
I7
I17
I18
tp961
(g960
I4
I3
I3
I4
tp962
tp963
a((g960
I5
I0
I30
I31
tp964
(g960
I4
I3
I3
I4
tp965
tp966
a((g960
I6
I-1
I9
I10
tp967
(g960
I4
I3
I3
I4
tp968
tp969
a((S'my'
p970
I12
I2
I2
I3
tp971
(g960
I4
I3
I3
I4
tp972
tp973
a((g960
I13
I0
I0
I1
tp974
(g960
I4
I3
I3
I4
tp975
tp976
a((g960
I14
I0
I0
I1
tp977
(g960
I4
I3
I3
I4
tp978
tp979
a((S'my'
p980
I14
I3
I3
I4
tp981
(g960
I4
I3
I3
I4
tp982
tp983
a((g960
I14
I7
I7
I8
tp984
(g960
I4
I3
I3
I4
tp985
tp986
aa(lp987
((S'Vatican'
p988
I5
I2
I2
I3
tp989
(S'The Vatican'
p990
I6
I1
I0
I2
tp991
tp992
a((S'the Vatican'
p993
I6
I3
I12
I14
tp994
(S'The Vatican'
p995
I6
I1
I0
I2
tp996
tp997
a((S'its'
p998
I6
I6
I16
I17
tp999
(S'The Vatican'
p1000
I6
I1
I0
I2
tp1001
tp1002
a((S'its'
p1003
I6
I-1
I19
I20
tp1004
(S'The Vatican'
p1005
I6
I1
I0
I2
tp1006
tp1007
aa(lp1008
((S'an error'
p1009
I4
I8
I27
I29
tp1010
(S'the whole thing'
p1011
I4
I5
I23
I26
tp1012
tp1013
aa(lp1014
((S'papers'
p1015
I7
I6
I36
I37
tp1016
(S'the daily papers'
p1017
I7
I7
I25
I28
tp1018
tp1019
aa(lp1020
((S'their'
p1021
I8
I3
I13
I14
tp1022
(S'the countrys three daily sports papers'
p1023
I7
I2
I31
I37
tp1024
tp1025
aa(lp1026
((S'Publico and Diario de Noticias'
p1027
I8
I-1
I5
I10
tp1028
(S'The two leading dailies'
p1029
I8
I3
I0
I4
tp1030
tp1031
aa(lp1032
((S'a small town near Lisbon'
p1033
I10
I4
I12
I17
tp1034
(S'Azinhaga'
p1035
I10
I0
I10
I11
tp1036
tp1037
aa(lp1038
((S'a tale of peasants in moral crisis'
p1039
I15
I-1
I18
I25
tp1040
(S'Country of Sin _'
p1041
I15
I3
I13
I17
tp1042
tp1043
aasg4
(lp1044
(dp1045
g7
S'(ROOT (S (PP (NP (DT A) (NN day)) (IN after) (S (VP (VBG winning) (NP (NP (DT the) (NNP Nobel) (NNP Prize)) (PP (IN for) (NP (NN literature))))))) (, ,) (NP (JJ Portuguese) (NN novelist) (NNP Jose) (NNP Saramago)) (VP (VBD insisted) (SBAR (IN that) (S (SBAR (IN while) (S (NP (PRP he)) (VP (VBD was) (ADJP (JJ delighted) (S (VP (TO to) (VP (VB win) (NP (DT the) (NN award))))))))) (, ,) (NP (PRP it)) (VP (MD could) (ADVP (RB just) (RB as) (RB easily)) (VP (VB have) (VP (VBN gone) (PP (TO to) (NP (JJ many) (JJ other) (JJ Portuguese) (NNS writers))))))))) (. .)))'
p1046
sg9
S'A day after winning the Nobel Prize for literature, Portuguese novelist Jose Saramago insisted that while he was delighted to win the award, it could just as easily have gone to many other Portuguese writers.'
p1047
sg11
(lp1048
(S'root'
p1049
S'ROOT'
p1050
S'insisted'
p1051
tp1052
a(S'det'
p1053
S'day'
p1054
S'A'
p1055
tp1056
a(S'npadvmod'
p1057
S'insisted'
p1058
S'day'
p1059
tp1060
a(S'prepc_after'
p1061
S'insisted'
p1062
S'winning'
p1063
tp1064
a(S'det'
p1065
S'Prize'
p1066
S'the'
p1067
tp1068
a(S'nn'
p1069
S'Prize'
p1070
S'Nobel'
p1071
tp1072
a(S'dobj'
p1073
S'winning'
p1074
S'Prize'
p1075
tp1076
a(S'prep_for'
p1077
S'Prize'
p1078
S'literature'
p1079
tp1080
a(S'amod'
p1081
S'Saramago'
p1082
S'Portuguese'
p1083
tp1084
a(S'nn'
p1085
S'Saramago'
p1086
S'novelist'
p1087
tp1088
a(S'nn'
p1089
S'Saramago'
p1090
S'Jose'
p1091
tp1092
a(S'nsubj'
p1093
S'insisted'
p1094
S'Saramago'
p1095
tp1096
a(S'mark'
p1097
S'gone'
p1098
S'that'
p1099
tp1100
a(S'mark'
p1101
S'delighted'
p1102
S'while'
p1103
tp1104
a(S'nsubj'
p1105
S'delighted'
p1106
S'he'
p1107
tp1108
a(S'cop'
p1109
S'delighted'
p1110
S'was'
p1111
tp1112
a(S'advcl'
p1113
S'gone'
p1114
S'delighted'
p1115
tp1116
a(S'aux'
p1117
S'win'
p1118
S'to'
p1119
tp1120
a(S'xcomp'
p1121
S'delighted'
p1122
S'win'
p1123
tp1124
a(S'det'
p1125
S'award'
p1126
S'the'
p1127
tp1128
a(S'dobj'
p1129
S'win'
p1130
S'award'
p1131
tp1132
a(S'nsubj'
p1133
S'gone'
p1134
S'it'
p1135
tp1136
a(S'aux'
p1137
S'gone'
p1138
S'could'
p1139
tp1140
a(S'advmod'
p1141
S'easily'
p1142
S'just'
p1143
tp1144
a(S'advmod'
p1145
S'easily'
p1146
S'as'
p1147
tp1148
a(S'advmod'
p1149
S'gone'
p1150
S'easily'
p1151
tp1152
a(S'aux'
p1153
S'gone'
p1154
S'have'
p1155
tp1156
a(S'ccomp'
p1157
S'insisted'
p1158
S'gone'
p1159
tp1160
a(S'amod'
p1161
S'writers'
p1162
S'many'
p1163
tp1164
a(S'amod'
p1165
S'writers'
p1166
S'other'
p1167
tp1168
a(S'amod'
p1169
S'writers'
p1170
S'Portuguese'
p1171
tp1172
a(S'prep_to'
p1173
S'gone'
p1174
S'writers'
p1175
tp1176
asg49
(lp1177
(g1049
S'ROOT-0'
p1178
S'insisted-15'
p1179
tp1180
a(g1053
S'day-2'
p1181
S'A-1'
p1182
tp1183
a(g1057
S'insisted-15'
p1184
S'day-2'
p1185
tp1186
a(g1061
S'insisted-15'
p1187
S'winning-4'
p1188
tp1189
a(g1065
S'Prize-7'
p1190
S'the-5'
p1191
tp1192
a(g1069
S'Prize-7'
p1193
S'Nobel-6'
p1194
tp1195
a(g1073
S'winning-4'
p1196
S'Prize-7'
p1197
tp1198
a(g1077
S'Prize-7'
p1199
S'literature-9'
p1200
tp1201
a(g1081
S'Saramago-14'
p1202
S'Portuguese-11'
p1203
tp1204
a(g1085
S'Saramago-14'
p1205
S'novelist-12'
p1206
tp1207
a(g1089
S'Saramago-14'
p1208
S'Jose-13'
p1209
tp1210
a(g1093
S'insisted-15'
p1211
S'Saramago-14'
p1212
tp1213
a(g1097
S'gone-32'
p1214
S'that-16'
p1215
tp1216
a(g1101
S'delighted-20'
p1217
S'while-17'
p1218
tp1219
a(g1105
S'delighted-20'
p1220
S'he-18'
p1221
tp1222
a(g1109
S'delighted-20'
p1223
S'was-19'
p1224
tp1225
a(g1113
S'gone-32'
p1226
S'delighted-20'
p1227
tp1228
a(g1117
S'win-22'
p1229
S'to-21'
p1230
tp1231
a(g1121
S'delighted-20'
p1232
S'win-22'
p1233
tp1234
a(g1125
S'award-24'
p1235
S'the-23'
p1236
tp1237
a(g1129
S'win-22'
p1238
S'award-24'
p1239
tp1240
a(g1133
S'gone-32'
p1241
S'it-26'
p1242
tp1243
a(g1137
S'gone-32'
p1244
S'could-27'
p1245
tp1246
a(g1141
S'easily-30'
p1247
S'just-28'
p1248
tp1249
a(g1145
S'easily-30'
p1250
S'as-29'
p1251
tp1252
a(g1149
S'gone-32'
p1253
S'easily-30'
p1254
tp1255
a(g1153
S'gone-32'
p1256
S'have-31'
p1257
tp1258
a(g1157
S'insisted-15'
p1259
S'gone-32'
p1260
tp1261
a(g1161
S'writers-37'
p1262
S'many-34'
p1263
tp1264
a(g1165
S'writers-37'
p1265
S'other-35'
p1266
tp1267
a(g1169
S'writers-37'
p1268
S'Portuguese-36'
p1269
tp1270
a(g1173
S'gone-32'
p1271
S'writers-37'
p1272
tp1273
asg78
(lp1274
(g1055
(dp1275
S'NormalizedNamedEntityTag'
p1276
S'P1D'
p1277
sS'Timex'
p1278
S'<TIMEX3 tid="t1" type="DURATION" value="P1D">A day</TIMEX3>'
p1279
sS'Lemma'
p1280
S'a'
p1281
sS'CharacterOffsetEnd'
p1282
g91
sS'PartOfSpeech'
p1283
S'DT'
p1284
sS'CharacterOffsetBegin'
p1285
S'0'
p1286
sS'NamedEntityTag'
p1287
S'DURATION'
p1288
stp1289
a(S'day'
p1290
(dp1291
S'NormalizedNamedEntityTag'
p1292
S'P1D'
p1293
sS'Timex'
p1294
S'<TIMEX3 tid="t1" type="DURATION" value="P1D">A day</TIMEX3>'
p1295
sS'Lemma'
p1296
S'day'
p1297
sS'CharacterOffsetEnd'
p1298
S'5'
p1299
sS'PartOfSpeech'
p1300
S'NN'
p1301
sS'CharacterOffsetBegin'
p1302
S'2'
p1303
sS'NamedEntityTag'
p1304
S'DURATION'
p1305
stp1306
a(S'after'
p1307
(dp1308
S'NamedEntityTag'
p1309
g83
sS'CharacterOffsetEnd'
p1310
S'11'
p1311
sS'Lemma'
p1312
S'after'
p1313
sS'PartOfSpeech'
p1314
S'IN'
p1315
sS'CharacterOffsetBegin'
p1316
g85
stp1317
a(S'winning'
p1318
(dp1319
S'NamedEntityTag'
p1320
g83
sS'CharacterOffsetEnd'
p1321
S'19'
p1322
sS'Lemma'
p1323
S'win'
p1324
sS'PartOfSpeech'
p1325
S'VBG'
p1326
sS'CharacterOffsetBegin'
p1327
S'12'
p1328
stp1329
a(S'the'
p1330
(dp1331
S'NamedEntityTag'
p1332
g83
sS'CharacterOffsetEnd'
p1333
S'23'
p1334
sS'Lemma'
p1335
S'the'
p1336
sS'PartOfSpeech'
p1337
S'DT'
p1338
sS'CharacterOffsetBegin'
p1339
S'20'
p1340
stp1341
a(S'Nobel'
p1342
(dp1343
S'NamedEntityTag'
p1344
S'MISC'
p1345
sS'CharacterOffsetEnd'
p1346
S'29'
p1347
sS'Lemma'
p1348
S'Nobel'
p1349
sS'PartOfSpeech'
p1350
S'NNP'
p1351
sS'CharacterOffsetBegin'
p1352
S'24'
p1353
stp1354
a(S'Prize'
p1355
(dp1356
S'NamedEntityTag'
p1357
S'MISC'
p1358
sS'CharacterOffsetEnd'
p1359
S'35'
p1360
sS'Lemma'
p1361
S'Prize'
p1362
sS'PartOfSpeech'
p1363
S'NNP'
p1364
sS'CharacterOffsetBegin'
p1365
S'30'
p1366
stp1367
a(S'for'
p1368
(dp1369
S'NamedEntityTag'
p1370
g83
sS'CharacterOffsetEnd'
p1371
S'39'
p1372
sS'Lemma'
p1373
S'for'
p1374
sS'PartOfSpeech'
p1375
S'IN'
p1376
sS'CharacterOffsetBegin'
p1377
S'36'
p1378
stp1379
a(S'literature'
p1380
(dp1381
S'NamedEntityTag'
p1382
g83
sS'CharacterOffsetEnd'
p1383
S'50'
p1384
sS'Lemma'
p1385
S'literature'
p1386
sS'PartOfSpeech'
p1387
S'NN'
p1388
sS'CharacterOffsetBegin'
p1389
S'40'
p1390
stp1391
a(S','
p1392
(dp1393
S'NamedEntityTag'
p1394
g83
sS'CharacterOffsetEnd'
p1395
S'51'
p1396
sS'Lemma'
p1397
g1392
sS'PartOfSpeech'
p1398
g1392
sS'CharacterOffsetBegin'
p1399
S'50'
p1400
stp1401
a(S'Portuguese'
p1402
(dp1403
S'NamedEntityTag'
p1404
S'LOCATION'
p1405
sS'CharacterOffsetEnd'
p1406
S'62'
p1407
sS'Lemma'
p1408
S'portuguese'
p1409
sS'PartOfSpeech'
p1410
S'JJ'
p1411
sS'CharacterOffsetBegin'
p1412
S'52'
p1413
stp1414
a(S'novelist'
p1415
(dp1416
S'NamedEntityTag'
p1417
g83
sS'CharacterOffsetEnd'
p1418
S'71'
p1419
sS'Lemma'
p1420
S'novelist'
p1421
sS'PartOfSpeech'
p1422
S'NN'
p1423
sS'CharacterOffsetBegin'
p1424
S'63'
p1425
stp1426
a(S'Jose'
p1427
(dp1428
S'NamedEntityTag'
p1429
S'PERSON'
p1430
sS'CharacterOffsetEnd'
p1431
S'76'
p1432
sS'Lemma'
p1433
S'Jose'
p1434
sS'PartOfSpeech'
p1435
S'NNP'
p1436
sS'CharacterOffsetBegin'
p1437
S'72'
p1438
stp1439
a(S'Saramago'
p1440
(dp1441
S'NamedEntityTag'
p1442
S'PERSON'
p1443
sS'CharacterOffsetEnd'
p1444
S'85'
p1445
sS'Lemma'
p1446
S'Saramago'
p1447
sS'PartOfSpeech'
p1448
S'NNP'
p1449
sS'CharacterOffsetBegin'
p1450
S'77'
p1451
stp1452
a(S'insisted'
p1453
(dp1454
S'NamedEntityTag'
p1455
g83
sS'CharacterOffsetEnd'
p1456
S'94'
p1457
sS'Lemma'
p1458
S'insist'
p1459
sS'PartOfSpeech'
p1460
S'VBD'
p1461
sS'CharacterOffsetBegin'
p1462
S'86'
p1463
stp1464
a(S'that'
p1465
(dp1466
S'NamedEntityTag'
p1467
g83
sS'CharacterOffsetEnd'
p1468
S'99'
p1469
sS'Lemma'
p1470
S'that'
p1471
sS'PartOfSpeech'
p1472
S'IN'
p1473
sS'CharacterOffsetBegin'
p1474
S'95'
p1475
stp1476
a(S'while'
p1477
(dp1478
S'NamedEntityTag'
p1479
g83
sS'CharacterOffsetEnd'
p1480
S'105'
p1481
sS'Lemma'
p1482
S'while'
p1483
sS'PartOfSpeech'
p1484
S'IN'
p1485
sS'CharacterOffsetBegin'
p1486
S'100'
p1487
stp1488
a(S'he'
p1489
(dp1490
S'NamedEntityTag'
p1491
g83
sS'CharacterOffsetEnd'
p1492
S'108'
p1493
sS'Lemma'
p1494
S'he'
p1495
sS'PartOfSpeech'
p1496
S'PRP'
p1497
sS'CharacterOffsetBegin'
p1498
S'106'
p1499
stp1500
a(S'was'
p1501
(dp1502
S'NamedEntityTag'
p1503
g83
sS'CharacterOffsetEnd'
p1504
S'112'
p1505
sS'Lemma'
p1506
S'be'
p1507
sS'PartOfSpeech'
p1508
S'VBD'
p1509
sS'CharacterOffsetBegin'
p1510
S'109'
p1511
stp1512
a(S'delighted'
p1513
(dp1514
S'NamedEntityTag'
p1515
g83
sS'CharacterOffsetEnd'
p1516
S'122'
p1517
sS'Lemma'
p1518
S'delighted'
p1519
sS'PartOfSpeech'
p1520
S'JJ'
p1521
sS'CharacterOffsetBegin'
p1522
S'113'
p1523
stp1524
a(S'to'
p1525
(dp1526
S'NamedEntityTag'
p1527
g83
sS'CharacterOffsetEnd'
p1528
S'125'
p1529
sS'Lemma'
p1530
S'to'
p1531
sS'PartOfSpeech'
p1532
S'TO'
p1533
sS'CharacterOffsetBegin'
p1534
S'123'
p1535
stp1536
a(S'win'
p1537
(dp1538
S'NamedEntityTag'
p1539
g83
sS'CharacterOffsetEnd'
p1540
S'129'
p1541
sS'Lemma'
p1542
S'win'
p1543
sS'PartOfSpeech'
p1544
S'VB'
p1545
sS'CharacterOffsetBegin'
p1546
S'126'
p1547
stp1548
a(S'the'
p1549
(dp1550
S'NamedEntityTag'
p1551
g83
sS'CharacterOffsetEnd'
p1552
S'133'
p1553
sS'Lemma'
p1554
S'the'
p1555
sS'PartOfSpeech'
p1556
S'DT'
p1557
sS'CharacterOffsetBegin'
p1558
S'130'
p1559
stp1560
a(S'award'
p1561
(dp1562
S'NamedEntityTag'
p1563
g83
sS'CharacterOffsetEnd'
p1564
S'139'
p1565
sS'Lemma'
p1566
S'award'
p1567
sS'PartOfSpeech'
p1568
S'NN'
p1569
sS'CharacterOffsetBegin'
p1570
S'134'
p1571
stp1572
a(g1392
(dp1573
S'NamedEntityTag'
p1574
g83
sS'CharacterOffsetEnd'
p1575
S'140'
p1576
sS'Lemma'
p1577
g1392
sS'PartOfSpeech'
p1578
g1392
sS'CharacterOffsetBegin'
p1579
S'139'
p1580
stp1581
a(S'it'
p1582
(dp1583
S'NamedEntityTag'
p1584
g83
sS'CharacterOffsetEnd'
p1585
S'143'
p1586
sS'Lemma'
p1587
S'it'
p1588
sS'PartOfSpeech'
p1589
S'PRP'
p1590
sS'CharacterOffsetBegin'
p1591
S'141'
p1592
stp1593
a(S'could'
p1594
(dp1595
S'NamedEntityTag'
p1596
g83
sS'CharacterOffsetEnd'
p1597
S'149'
p1598
sS'Lemma'
p1599
S'could'
p1600
sS'PartOfSpeech'
p1601
S'MD'
p1602
sS'CharacterOffsetBegin'
p1603
S'144'
p1604
stp1605
a(S'just'
p1606
(dp1607
S'NamedEntityTag'
p1608
g83
sS'CharacterOffsetEnd'
p1609
S'154'
p1610
sS'Lemma'
p1611
S'just'
p1612
sS'PartOfSpeech'
p1613
S'RB'
p1614
sS'CharacterOffsetBegin'
p1615
S'150'
p1616
stp1617
a(S'as'
p1618
(dp1619
S'NamedEntityTag'
p1620
g83
sS'CharacterOffsetEnd'
p1621
S'157'
p1622
sS'Lemma'
p1623
S'as'
p1624
sS'PartOfSpeech'
p1625
S'RB'
p1626
sS'CharacterOffsetBegin'
p1627
S'155'
p1628
stp1629
a(S'easily'
p1630
(dp1631
S'NamedEntityTag'
p1632
g83
sS'CharacterOffsetEnd'
p1633
S'164'
p1634
sS'Lemma'
p1635
S'easily'
p1636
sS'PartOfSpeech'
p1637
S'RB'
p1638
sS'CharacterOffsetBegin'
p1639
S'158'
p1640
stp1641
a(S'have'
p1642
(dp1643
S'NamedEntityTag'
p1644
g83
sS'CharacterOffsetEnd'
p1645
S'169'
p1646
sS'Lemma'
p1647
S'have'
p1648
sS'PartOfSpeech'
p1649
S'VB'
p1650
sS'CharacterOffsetBegin'
p1651
S'165'
p1652
stp1653
a(S'gone'
p1654
(dp1655
S'NamedEntityTag'
p1656
g83
sS'CharacterOffsetEnd'
p1657
S'174'
p1658
sS'Lemma'
p1659
S'go'
p1660
sS'PartOfSpeech'
p1661
S'VBN'
p1662
sS'CharacterOffsetBegin'
p1663
S'170'
p1664
stp1665
a(S'to'
p1666
(dp1667
S'NamedEntityTag'
p1668
g83
sS'CharacterOffsetEnd'
p1669
S'177'
p1670
sS'Lemma'
p1671
S'to'
p1672
sS'PartOfSpeech'
p1673
S'TO'
p1674
sS'CharacterOffsetBegin'
p1675
S'175'
p1676
stp1677
a(S'many'
p1678
(dp1679
S'NamedEntityTag'
p1680
g83
sS'CharacterOffsetEnd'
p1681
S'182'
p1682
sS'Lemma'
p1683
S'many'
p1684
sS'PartOfSpeech'
p1685
S'JJ'
p1686
sS'CharacterOffsetBegin'
p1687
S'178'
p1688
stp1689
a(S'other'
p1690
(dp1691
S'NamedEntityTag'
p1692
g83
sS'CharacterOffsetEnd'
p1693
S'188'
p1694
sS'Lemma'
p1695
S'other'
p1696
sS'PartOfSpeech'
p1697
S'JJ'
p1698
sS'CharacterOffsetBegin'
p1699
S'183'
p1700
stp1701
a(S'Portuguese'
p1702
(dp1703
S'NamedEntityTag'
p1704
S'MISC'
p1705
sS'CharacterOffsetEnd'
p1706
S'199'
p1707
sS'Lemma'
p1708
S'portuguese'
p1709
sS'PartOfSpeech'
p1710
S'JJ'
p1711
sS'CharacterOffsetBegin'
p1712
S'189'
p1713
stp1714
a(S'writers'
p1715
(dp1716
S'NamedEntityTag'
p1717
g83
sS'CharacterOffsetEnd'
p1718
S'207'
p1719
sS'Lemma'
p1720
S'writer'
p1721
sS'PartOfSpeech'
p1722
S'NNS'
p1723
sS'CharacterOffsetBegin'
p1724
S'200'
p1725
stp1726
a(g676
(dp1727
S'NamedEntityTag'
p1728
g83
sS'CharacterOffsetEnd'
p1729
S'208'
p1730
sS'Lemma'
p1731
g676
sS'PartOfSpeech'
p1732
g676
sS'CharacterOffsetBegin'
p1733
S'207'
p1734
stp1735
asa(dp1736
g7
S'(ROOT (S (NP (NP (NP (NN Im)) (NP (RB not) (DT the) (JJ only) (NN one))) (SBAR (WHNP (WP who)) (S (VP (VBD deserved) (NP (PRP it))))) (, ,)) (VP (VBD said) (NP (DT the) (JJ first) (NN Portuguese-language) (NN author)) (S (VP (TO to) (VP (VB obtain) (NP (DT the) (JJ prestigious) (NN award)))))) (. .)))'
p1737
sg9
S'Im not the only one who deserved it, said the first Portuguese-language author to obtain the prestigious award.'
p1738
sg11
(lp1739
(S'root'
p1740
S'ROOT'
p1741
S'said'
p1742
tp1743
a(S'nsubj'
p1744
S'said'
p1745
S'Im'
p1746
tp1747
a(S'neg'
p1748
S'one'
p1749
S'not'
p1750
tp1751
a(S'det'
p1752
S'one'
p1753
S'the'
p1754
tp1755
a(S'amod'
p1756
S'one'
p1757
S'only'
p1758
tp1759
a(S'dep'
p1760
S'Im'
p1761
S'one'
p1762
tp1763
a(S'nsubj'
p1764
S'deserved'
p1765
S'who'
p1766
tp1767
a(S'rcmod'
p1768
S'Im'
p1769
S'deserved'
p1770
tp1771
a(S'dobj'
p1772
S'deserved'
p1773
S'it'
p1774
tp1775
a(S'det'
p1776
S'author'
p1777
S'the'
p1778
tp1779
a(S'amod'
p1780
S'author'
p1781
S'first'
p1782
tp1783
a(S'nn'
p1784
S'author'
p1785
S'Portuguese-language'
p1786
tp1787
a(S'dobj'
p1788
S'said'
p1789
S'author'
p1790
tp1791
a(S'aux'
p1792
S'obtain'
p1793
S'to'
p1794
tp1795
a(S'xcomp'
p1796
S'said'
p1797
S'obtain'
p1798
tp1799
a(S'det'
p1800
S'award'
p1801
S'the'
p1802
tp1803
a(S'amod'
p1804
S'award'
p1805
S'prestigious'
p1806
tp1807
a(S'dobj'
p1808
S'obtain'
p1809
S'award'
p1810
tp1811
asg49
(lp1812
(g1740
S'ROOT-0'
p1813
S'said-10'
p1814
tp1815
a(g1744
S'said-10'
p1816
S'Im-1'
p1817
tp1818
a(g1748
S'one-5'
p1819
S'not-2'
p1820
tp1821
a(g1752
S'one-5'
p1822
S'the-3'
p1823
tp1824
a(g1756
S'one-5'
p1825
S'only-4'
p1826
tp1827
a(g1760
S'Im-1'
p1828
S'one-5'
p1829
tp1830
a(g1764
S'deserved-7'
p1831
S'who-6'
p1832
tp1833
a(g1768
S'Im-1'
p1834
S'deserved-7'
p1835
tp1836
a(g1772
S'deserved-7'
p1837
S'it-8'
p1838
tp1839
a(g1776
S'author-14'
p1840
S'the-11'
p1841
tp1842
a(g1780
S'author-14'
p1843
S'first-12'
p1844
tp1845
a(g1784
S'author-14'
p1846
S'Portuguese-language-13'
p1847
tp1848
a(g1788
S'said-10'
p1849
S'author-14'
p1850
tp1851
a(g1792
S'obtain-16'
p1852
S'to-15'
p1853
tp1854
a(g1796
S'said-10'
p1855
S'obtain-16'
p1856
tp1857
a(g1800
S'award-19'
p1858
S'the-17'
p1859
tp1860
a(g1804
S'award-19'
p1861
S'prestigious-18'
p1862
tp1863
a(g1808
S'obtain-16'
p1864
S'award-19'
p1865
tp1866
asg78
(lp1867
(S'Im'
p1868
(dp1869
S'NamedEntityTag'
p1870
g83
sS'CharacterOffsetEnd'
p1871
S'211'
p1872
sS'Lemma'
p1873
S'im'
p1874
sS'PartOfSpeech'
p1875
S'NN'
p1876
sS'CharacterOffsetBegin'
p1877
S'209'
p1878
stp1879
a(S'not'
p1880
(dp1881
S'NamedEntityTag'
p1882
g83
sS'CharacterOffsetEnd'
p1883
S'215'
p1884
sS'Lemma'
p1885
S'not'
p1886
sS'PartOfSpeech'
p1887
S'RB'
p1888
sS'CharacterOffsetBegin'
p1889
S'212'
p1890
stp1891
a(S'the'
p1892
(dp1893
S'NamedEntityTag'
p1894
g83
sS'CharacterOffsetEnd'
p1895
S'219'
p1896
sS'Lemma'
p1897
S'the'
p1898
sS'PartOfSpeech'
p1899
S'DT'
p1900
sS'CharacterOffsetBegin'
p1901
S'216'
p1902
stp1903
a(S'only'
p1904
(dp1905
S'NamedEntityTag'
p1906
g83
sS'CharacterOffsetEnd'
p1907
S'224'
p1908
sS'Lemma'
p1909
S'only'
p1910
sS'PartOfSpeech'
p1911
S'JJ'
p1912
sS'CharacterOffsetBegin'
p1913
S'220'
p1914
stp1915
a(S'one'
p1916
(dp1917
S'NormalizedNamedEntityTag'
p1918
S'1.0'
p1919
sS'Lemma'
p1920
S'one'
p1921
sS'CharacterOffsetEnd'
p1922
S'228'
p1923
sS'PartOfSpeech'
p1924
S'NN'
p1925
sS'CharacterOffsetBegin'
p1926
S'225'
p1927
sS'NamedEntityTag'
p1928
S'NUMBER'
p1929
stp1930
a(S'who'
p1931
(dp1932
S'NamedEntityTag'
p1933
g83
sS'CharacterOffsetEnd'
p1934
S'232'
p1935
sS'Lemma'
p1936
S'who'
p1937
sS'PartOfSpeech'
p1938
S'WP'
p1939
sS'CharacterOffsetBegin'
p1940
S'229'
p1941
stp1942
a(S'deserved'
p1943
(dp1944
S'NamedEntityTag'
p1945
g83
sS'CharacterOffsetEnd'
p1946
S'241'
p1947
sS'Lemma'
p1948
S'deserve'
p1949
sS'PartOfSpeech'
p1950
S'VBD'
p1951
sS'CharacterOffsetBegin'
p1952
S'233'
p1953
stp1954
a(S'it'
p1955
(dp1956
S'NamedEntityTag'
p1957
g83
sS'CharacterOffsetEnd'
p1958
S'244'
p1959
sS'Lemma'
p1960
S'it'
p1961
sS'PartOfSpeech'
p1962
S'PRP'
p1963
sS'CharacterOffsetBegin'
p1964
S'242'
p1965
stp1966
a(g1392
(dp1967
S'NamedEntityTag'
p1968
g83
sS'CharacterOffsetEnd'
p1969
S'245'
p1970
sS'Lemma'
p1971
g1392
sS'PartOfSpeech'
p1972
g1392
sS'CharacterOffsetBegin'
p1973
S'244'
p1974
stp1975
a(S'said'
p1976
(dp1977
S'NamedEntityTag'
p1978
g83
sS'CharacterOffsetEnd'
p1979
S'250'
p1980
sS'Lemma'
p1981
S'say'
p1982
sS'PartOfSpeech'
p1983
S'VBD'
p1984
sS'CharacterOffsetBegin'
p1985
S'246'
p1986
stp1987
a(S'the'
p1988
(dp1989
S'NamedEntityTag'
p1990
g83
sS'CharacterOffsetEnd'
p1991
S'254'
p1992
sS'Lemma'
p1993
S'the'
p1994
sS'PartOfSpeech'
p1995
S'DT'
p1996
sS'CharacterOffsetBegin'
p1997
S'251'
p1998
stp1999
a(S'first'
p2000
(dp2001
S'NormalizedNamedEntityTag'
p2002
S'1.0'
p2003
sS'Lemma'
p2004
S'first'
p2005
sS'CharacterOffsetEnd'
p2006
S'260'
p2007
sS'PartOfSpeech'
p2008
S'JJ'
p2009
sS'CharacterOffsetBegin'
p2010
S'255'
p2011
sS'NamedEntityTag'
p2012
S'ORDINAL'
p2013
stp2014
a(S'Portuguese-language'
p2015
(dp2016
S'NamedEntityTag'
p2017
S'MISC'
p2018
sS'CharacterOffsetEnd'
p2019
S'280'
p2020
sS'Lemma'
p2021
S'portuguese-language'
p2022
sS'PartOfSpeech'
p2023
S'NN'
p2024
sS'CharacterOffsetBegin'
p2025
S'261'
p2026
stp2027
a(S'author'
p2028
(dp2029
S'NamedEntityTag'
p2030
g83
sS'CharacterOffsetEnd'
p2031
S'287'
p2032
sS'Lemma'
p2033
S'author'
p2034
sS'PartOfSpeech'
p2035
S'NN'
p2036
sS'CharacterOffsetBegin'
p2037
S'281'
p2038
stp2039
a(S'to'
p2040
(dp2041
S'NamedEntityTag'
p2042
g83
sS'CharacterOffsetEnd'
p2043
S'290'
p2044
sS'Lemma'
p2045
S'to'
p2046
sS'PartOfSpeech'
p2047
S'TO'
p2048
sS'CharacterOffsetBegin'
p2049
S'288'
p2050
stp2051
a(S'obtain'
p2052
(dp2053
S'NamedEntityTag'
p2054
g83
sS'CharacterOffsetEnd'
p2055
S'297'
p2056
sS'Lemma'
p2057
S'obtain'
p2058
sS'PartOfSpeech'
p2059
S'VB'
p2060
sS'CharacterOffsetBegin'
p2061
S'291'
p2062
stp2063
a(S'the'
p2064
(dp2065
S'NamedEntityTag'
p2066
g83
sS'CharacterOffsetEnd'
p2067
S'301'
p2068
sS'Lemma'
p2069
S'the'
p2070
sS'PartOfSpeech'
p2071
S'DT'
p2072
sS'CharacterOffsetBegin'
p2073
S'298'
p2074
stp2075
a(S'prestigious'
p2076
(dp2077
S'NamedEntityTag'
p2078
g83
sS'CharacterOffsetEnd'
p2079
S'313'
p2080
sS'Lemma'
p2081
S'prestigious'
p2082
sS'PartOfSpeech'
p2083
S'JJ'
p2084
sS'CharacterOffsetBegin'
p2085
S'302'
p2086
stp2087
a(S'award'
p2088
(dp2089
S'NamedEntityTag'
p2090
g83
sS'CharacterOffsetEnd'
p2091
S'319'
p2092
sS'Lemma'
p2093
S'award'
p2094
sS'PartOfSpeech'
p2095
S'NN'
p2096
sS'CharacterOffsetBegin'
p2097
S'314'
p2098
stp2099
a(g676
(dp2100
S'NamedEntityTag'
p2101
g83
sS'CharacterOffsetEnd'
p2102
S'320'
p2103
sS'Lemma'
p2104
g676
sS'PartOfSpeech'
p2105
g676
sS'CharacterOffsetBegin'
p2106
S'319'
p2107
stp2108
asa(dp2109
g7
S'(ROOT (S (S (NP (EX There)) (VP (VBP have) (VP (VBN been) (NP (NP (JJ other) (JJ Portuguse) (NNS authors)) (, ,) (PP (IN like) (NP (NP (NNP Fernando) (NNP Pessoa)) (, ,) (SBAR (WP$ whose) (S (NP (NN work)) (VP (MD would) (VP (VB justify) (NP (NP (CD 1,000) (NNPS Nobels)) (VP (VBG Speaking) (PP (IN at) (NP (NP (DT a) (JJ packed) (NN press) (NN coference)) (PP (IN in) (NP (NNP Madrid))))))))))))))))) (, ,) (NP (NNP Saramago)) (VP (VBD joked) (PP (IN about) (SBAR (WHADVP (WRB how)) (S (NP (PRP he)) (VP (VBD heard) (SBAR (S (NP (PRP he)) (VP (VBD had) (VP (VBN won) (NP (NP (DT the) (NN prize)) (PP (IN from) (NP (JJ German) (NN air) (NN hostess)))) (PP (IN at) (NP (NNP Frankfurt) (NN airport))) (SBAR (IN as) (S (NP (PRP he)) (VP (VBD waited) (PP (IN for) (NP (DT a) (NN flight) (NN home))) (PP (TO to) (NP (NNP Spains) (NNP Canary) (NNP Islands))))))))))))))) (. .)))'
p2110
sg9
S'There have been other Portuguse authors, like Fernando Pessoa, whose work would justify 1,000 Nobels Speaking at a packed press coference in Madrid, Saramago joked about how he heard he had won the prize from German air hostess at Frankfurt airport as he waited for a flight home to Spains Canary Islands.'
p2111
sg11
(lp2112
(S'root'
p2113
S'ROOT'
p2114
S'joked'
p2115
tp2116
a(S'expl'
p2117
S'authors'
p2118
S'There'
p2119
tp2120
a(S'aux'
p2121
S'authors'
p2122
S'have'
p2123
tp2124
a(S'cop'
p2125
S'authors'
p2126
S'been'
p2127
tp2128
a(S'amod'
p2129
S'authors'
p2130
S'other'
p2131
tp2132
a(S'amod'
p2133
S'authors'
p2134
S'Portuguse'
p2135
tp2136
a(S'ccomp'
p2137
S'joked'
p2138
S'authors'
p2139
tp2140
a(S'nn'
p2141
S'Pessoa'
p2142
S'Fernando'
p2143
tp2144
a(S'prep_like'
p2145
S'authors'
p2146
S'Pessoa'
p2147
tp2148
a(S'dep'
p2149
S'justify'
p2150
S'whose'
p2151
tp2152
a(S'nsubj'
p2153
S'justify'
p2154
S'work'
p2155
tp2156
a(S'aux'
p2157
S'justify'
p2158
S'would'
p2159
tp2160
a(S'dep'
p2161
S'Pessoa'
p2162
S'justify'
p2163
tp2164
a(S'num'
p2165
S'Nobels'
p2166
S'1,000'
p2167
tp2168
a(S'dobj'
p2169
S'justify'
p2170
S'Nobels'
p2171
tp2172
a(S'partmod'
p2173
S'Nobels'
p2174
S'Speaking'
p2175
tp2176
a(S'det'
p2177
S'coference'
p2178
g1281
tp2179
a(S'amod'
p2180
S'coference'
p2181
S'packed'
p2182
tp2183
a(S'nn'
p2184
S'coference'
p2185
S'press'
p2186
tp2187
a(S'prep_at'
p2188
S'Speaking'
p2189
S'coference'
p2190
tp2191
a(S'prep_in'
p2192
S'coference'
p2193
S'Madrid'
p2194
tp2195
a(S'nsubj'
p2196
S'joked'
p2197
S'Saramago'
p2198
tp2199
a(S'advmod'
p2200
S'heard'
p2201
S'how'
p2202
tp2203
a(S'nsubj'
p2204
S'heard'
p2205
S'he'
p2206
tp2207
a(S'prepc_about'
p2208
S'joked'
p2209
S'heard'
p2210
tp2211
a(S'nsubj'
p2212
S'won'
p2213
S'he'
p2214
tp2215
a(S'aux'
p2216
S'won'
p2217
S'had'
p2218
tp2219
a(S'ccomp'
p2220
S'heard'
p2221
S'won'
p2222
tp2223
a(S'det'
p2224
S'prize'
p2225
S'the'
p2226
tp2227
a(S'dobj'
p2228
S'won'
p2229
S'prize'
p2230
tp2231
a(S'amod'
p2232
S'hostess'
p2233
S'German'
p2234
tp2235
a(S'nn'
p2236
S'hostess'
p2237
S'air'
p2238
tp2239
a(S'prep_from'
p2240
S'prize'
p2241
S'hostess'
p2242
tp2243
a(S'nn'
p2244
S'airport'
p2245
S'Frankfurt'
p2246
tp2247
a(S'prep_at'
p2248
S'won'
p2249
S'airport'
p2250
tp2251
a(S'mark'
p2252
S'waited'
p2253
S'as'
p2254
tp2255
a(S'nsubj'
p2256
S'waited'
p2257
S'he'
p2258
tp2259
a(S'advcl'
p2260
S'won'
p2261
S'waited'
p2262
tp2263
a(S'det'
p2264
S'home'
p2265
g1281
tp2266
a(S'nn'
p2267
S'home'
p2268
S'flight'
p2269
tp2270
a(S'prep_for'
p2271
S'waited'
p2272
S'home'
p2273
tp2274
a(S'nn'
p2275
S'Islands'
p2276
S'Spains'
p2277
tp2278
a(S'nn'
p2279
S'Islands'
p2280
S'Canary'
p2281
tp2282
a(S'prep_to'
p2283
S'waited'
p2284
S'Islands'
p2285
tp2286
asg49
(lp2287
(g2113
S'ROOT-0'
p2288
S'joked-28'
p2289
tp2290
a(g2117
S'authors-6'
p2291
S'There-1'
p2292
tp2293
a(g2121
S'authors-6'
p2294
S'have-2'
p2295
tp2296
a(g2125
S'authors-6'
p2297
S'been-3'
p2298
tp2299
a(g2129
S'authors-6'
p2300
S'other-4'
p2301
tp2302
a(g2133
S'authors-6'
p2303
S'Portuguse-5'
p2304
tp2305
a(g2137
S'joked-28'
p2306
S'authors-6'
p2307
tp2308
a(g2141
S'Pessoa-10'
p2309
S'Fernando-9'
p2310
tp2311
a(g2145
S'authors-6'
p2312
S'Pessoa-10'
p2313
tp2314
a(g2149
S'justify-15'
p2315
S'whose-12'
p2316
tp2317
a(g2153
S'justify-15'
p2318
S'work-13'
p2319
tp2320
a(g2157
S'justify-15'
p2321
S'would-14'
p2322
tp2323
a(g2161
S'Pessoa-10'
p2324
S'justify-15'
p2325
tp2326
a(g2165
S'Nobels-17'
p2327
S'1,000-16'
p2328
tp2329
a(g2169
S'justify-15'
p2330
S'Nobels-17'
p2331
tp2332
a(g2173
S'Nobels-17'
p2333
S'Speaking-18'
p2334
tp2335
a(g2177
S'coference-23'
p2336
S'a-20'
p2337
tp2338
a(g2180
S'coference-23'
p2339
S'packed-21'
p2340
tp2341
a(g2184
S'coference-23'
p2342
S'press-22'
p2343
tp2344
a(g2188
S'Speaking-18'
p2345
S'coference-23'
p2346
tp2347
a(g2192
S'coference-23'
p2348
S'Madrid-25'
p2349
tp2350
a(g2196
S'joked-28'
p2351
S'Saramago-27'
p2352
tp2353
a(g2200
S'heard-32'
p2354
S'how-30'
p2355
tp2356
a(g2204
S'heard-32'
p2357
S'he-31'
p2358
tp2359
a(g2208
S'joked-28'
p2360
S'heard-32'
p2361
tp2362
a(g2212
S'won-35'
p2363
S'he-33'
p2364
tp2365
a(g2216
S'won-35'
p2366
S'had-34'
p2367
tp2368
a(g2220
S'heard-32'
p2369
S'won-35'
p2370
tp2371
a(g2224
S'prize-37'
p2372
S'the-36'
p2373
tp2374
a(g2228
S'won-35'
p2375
S'prize-37'
p2376
tp2377
a(g2232
S'hostess-41'
p2378
S'German-39'
p2379
tp2380
a(g2236
S'hostess-41'
p2381
S'air-40'
p2382
tp2383
a(g2240
S'prize-37'
p2384
S'hostess-41'
p2385
tp2386
a(g2244
S'airport-44'
p2387
S'Frankfurt-43'
p2388
tp2389
a(g2248
S'won-35'
p2390
S'airport-44'
p2391
tp2392
a(g2252
S'waited-47'
p2393
S'as-45'
p2394
tp2395
a(g2256
S'waited-47'
p2396
S'he-46'
p2397
tp2398
a(g2260
S'won-35'
p2399
S'waited-47'
p2400
tp2401
a(g2264
S'home-51'
p2402
S'a-49'
p2403
tp2404
a(g2267
S'home-51'
p2405
S'flight-50'
p2406
tp2407
a(g2271
S'waited-47'
p2408
S'home-51'
p2409
tp2410
a(g2275
S'Islands-55'
p2411
S'Spains-53'
p2412
tp2413
a(g2279
S'Islands-55'
p2414
S'Canary-54'
p2415
tp2416
a(g2283
S'waited-47'
p2417
S'Islands-55'
p2418
tp2419
asg78
(lp2420
(S'There'
p2421
(dp2422
S'NamedEntityTag'
p2423
g83
sS'CharacterOffsetEnd'
p2424
S'326'
p2425
sS'Lemma'
p2426
S'there'
p2427
sS'PartOfSpeech'
p2428
S'EX'
p2429
sS'CharacterOffsetBegin'
p2430
S'321'
p2431
stp2432
a(S'have'
p2433
(dp2434
S'NamedEntityTag'
p2435
g83
sS'CharacterOffsetEnd'
p2436
S'331'
p2437
sS'Lemma'
p2438
S'have'
p2439
sS'PartOfSpeech'
p2440
S'VBP'
p2441
sS'CharacterOffsetBegin'
p2442
S'327'
p2443
stp2444
a(S'been'
p2445
(dp2446
S'NamedEntityTag'
p2447
g83
sS'CharacterOffsetEnd'
p2448
S'336'
p2449
sS'Lemma'
p2450
S'be'
p2451
sS'PartOfSpeech'
p2452
S'VBN'
p2453
sS'CharacterOffsetBegin'
p2454
S'332'
p2455
stp2456
a(S'other'
p2457
(dp2458
S'NamedEntityTag'
p2459
g83
sS'CharacterOffsetEnd'
p2460
S'342'
p2461
sS'Lemma'
p2462
S'other'
p2463
sS'PartOfSpeech'
p2464
S'JJ'
p2465
sS'CharacterOffsetBegin'
p2466
S'337'
p2467
stp2468
a(S'Portuguse'
p2469
(dp2470
S'NamedEntityTag'
p2471
S'MISC'
p2472
sS'CharacterOffsetEnd'
p2473
S'352'
p2474
sS'Lemma'
p2475
S'portuguse'
p2476
sS'PartOfSpeech'
p2477
S'JJ'
p2478
sS'CharacterOffsetBegin'
p2479
S'343'
p2480
stp2481
a(S'authors'
p2482
(dp2483
S'NamedEntityTag'
p2484
g83
sS'CharacterOffsetEnd'
p2485
S'360'
p2486
sS'Lemma'
p2487
S'author'
p2488
sS'PartOfSpeech'
p2489
S'NNS'
p2490
sS'CharacterOffsetBegin'
p2491
S'353'
p2492
stp2493
a(g1392
(dp2494
S'NamedEntityTag'
p2495
g83
sS'CharacterOffsetEnd'
p2496
S'361'
p2497
sS'Lemma'
p2498
g1392
sS'PartOfSpeech'
p2499
g1392
sS'CharacterOffsetBegin'
p2500
S'360'
p2501
stp2502
a(S'like'
p2503
(dp2504
S'NamedEntityTag'
p2505
g83
sS'CharacterOffsetEnd'
p2506
S'366'
p2507
sS'Lemma'
p2508
S'like'
p2509
sS'PartOfSpeech'
p2510
S'IN'
p2511
sS'CharacterOffsetBegin'
p2512
S'362'
p2513
stp2514
a(S'Fernando'
p2515
(dp2516
S'NamedEntityTag'
p2517
S'PERSON'
p2518
sS'CharacterOffsetEnd'
p2519
S'375'
p2520
sS'Lemma'
p2521
S'Fernando'
p2522
sS'PartOfSpeech'
p2523
S'NNP'
p2524
sS'CharacterOffsetBegin'
p2525
S'367'
p2526
stp2527
a(S'Pessoa'
p2528
(dp2529
S'NamedEntityTag'
p2530
S'PERSON'
p2531
sS'CharacterOffsetEnd'
p2532
S'382'
p2533
sS'Lemma'
p2534
S'Pessoa'
p2535
sS'PartOfSpeech'
p2536
S'NNP'
p2537
sS'CharacterOffsetBegin'
p2538
S'376'
p2539
stp2540
a(g1392
(dp2541
S'NamedEntityTag'
p2542
g83
sS'CharacterOffsetEnd'
p2543
S'383'
p2544
sS'Lemma'
p2545
g1392
sS'PartOfSpeech'
p2546
g1392
sS'CharacterOffsetBegin'
p2547
S'382'
p2548
stp2549
a(S'whose'
p2550
(dp2551
S'NamedEntityTag'
p2552
g83
sS'CharacterOffsetEnd'
p2553
S'389'
p2554
sS'Lemma'
p2555
S'whose'
p2556
sS'PartOfSpeech'
p2557
S'WP$'
p2558
sS'CharacterOffsetBegin'
p2559
S'384'
p2560
stp2561
a(S'work'
p2562
(dp2563
S'NamedEntityTag'
p2564
g83
sS'CharacterOffsetEnd'
p2565
S'394'
p2566
sS'Lemma'
p2567
S'work'
p2568
sS'PartOfSpeech'
p2569
S'NN'
p2570
sS'CharacterOffsetBegin'
p2571
S'390'
p2572
stp2573
a(S'would'
p2574
(dp2575
S'NamedEntityTag'
p2576
g83
sS'CharacterOffsetEnd'
p2577
S'400'
p2578
sS'Lemma'
p2579
S'would'
p2580
sS'PartOfSpeech'
p2581
S'MD'
p2582
sS'CharacterOffsetBegin'
p2583
S'395'
p2584
stp2585
a(S'justify'
p2586
(dp2587
S'NamedEntityTag'
p2588
g83
sS'CharacterOffsetEnd'
p2589
S'408'
p2590
sS'Lemma'
p2591
S'justify'
p2592
sS'PartOfSpeech'
p2593
S'VB'
p2594
sS'CharacterOffsetBegin'
p2595
S'401'
p2596
stp2597
a(S'1,000'
p2598
(dp2599
S'NormalizedNamedEntityTag'
p2600
S'1000.0'
p2601
sS'Lemma'
p2602
S'1,000'
p2603
sS'CharacterOffsetEnd'
p2604
S'414'
p2605
sS'PartOfSpeech'
p2606
S'CD'
p2607
sS'CharacterOffsetBegin'
p2608
S'409'
p2609
sS'NamedEntityTag'
p2610
S'NUMBER'
p2611
stp2612
a(S'Nobels'
p2613
(dp2614
S'NamedEntityTag'
p2615
g83
sS'CharacterOffsetEnd'
p2616
S'421'
p2617
sS'Lemma'
p2618
S'Nobels'
p2619
sS'PartOfSpeech'
p2620
S'NNPS'
p2621
sS'CharacterOffsetBegin'
p2622
S'415'
p2623
stp2624
a(S'Speaking'
p2625
(dp2626
S'NamedEntityTag'
p2627
g83
sS'CharacterOffsetEnd'
p2628
S'430'
p2629
sS'Lemma'
p2630
S'speak'
p2631
sS'PartOfSpeech'
p2632
S'VBG'
p2633
sS'CharacterOffsetBegin'
p2634
S'422'
p2635
stp2636
a(S'at'
p2637
(dp2638
S'NamedEntityTag'
p2639
g83
sS'CharacterOffsetEnd'
p2640
S'433'
p2641
sS'Lemma'
p2642
S'at'
p2643
sS'PartOfSpeech'
p2644
S'IN'
p2645
sS'CharacterOffsetBegin'
p2646
S'431'
p2647
stp2648
a(g1281
(dp2649
S'NamedEntityTag'
p2650
g83
sS'CharacterOffsetEnd'
p2651
S'435'
p2652
sS'Lemma'
p2653
g1281
sS'PartOfSpeech'
p2654
S'DT'
p2655
sS'CharacterOffsetBegin'
p2656
S'434'
p2657
stp2658
a(S'packed'
p2659
(dp2660
S'NamedEntityTag'
p2661
g83
sS'CharacterOffsetEnd'
p2662
S'442'
p2663
sS'Lemma'
p2664
S'packed'
p2665
sS'PartOfSpeech'
p2666
S'JJ'
p2667
sS'CharacterOffsetBegin'
p2668
S'436'
p2669
stp2670
a(S'press'
p2671
(dp2672
S'NamedEntityTag'
p2673
g83
sS'CharacterOffsetEnd'
p2674
S'448'
p2675
sS'Lemma'
p2676
S'press'
p2677
sS'PartOfSpeech'
p2678
S'NN'
p2679
sS'CharacterOffsetBegin'
p2680
S'443'
p2681
stp2682
a(S'coference'
p2683
(dp2684
S'NamedEntityTag'
p2685
g83
sS'CharacterOffsetEnd'
p2686
S'458'
p2687
sS'Lemma'
p2688
S'coference'
p2689
sS'PartOfSpeech'
p2690
S'NN'
p2691
sS'CharacterOffsetBegin'
p2692
S'449'
p2693
stp2694
a(S'in'
p2695
(dp2696
S'NamedEntityTag'
p2697
g83
sS'CharacterOffsetEnd'
p2698
S'461'
p2699
sS'Lemma'
p2700
S'in'
p2701
sS'PartOfSpeech'
p2702
S'IN'
p2703
sS'CharacterOffsetBegin'
p2704
S'459'
p2705
stp2706
a(S'Madrid'
p2707
(dp2708
S'NamedEntityTag'
p2709
S'LOCATION'
p2710
sS'CharacterOffsetEnd'
p2711
S'468'
p2712
sS'Lemma'
p2713
S'Madrid'
p2714
sS'PartOfSpeech'
p2715
S'NNP'
p2716
sS'CharacterOffsetBegin'
p2717
S'462'
p2718
stp2719
a(g1392
(dp2720
S'NamedEntityTag'
p2721
g83
sS'CharacterOffsetEnd'
p2722
S'469'
p2723
sS'Lemma'
p2724
g1392
sS'PartOfSpeech'
p2725
g1392
sS'CharacterOffsetBegin'
p2726
S'468'
p2727
stp2728
a(S'Saramago'
p2729
(dp2730
S'NamedEntityTag'
p2731
S'PERSON'
p2732
sS'CharacterOffsetEnd'
p2733
S'478'
p2734
sS'Lemma'
p2735
S'Saramago'
p2736
sS'PartOfSpeech'
p2737
S'NNP'
p2738
sS'CharacterOffsetBegin'
p2739
S'470'
p2740
stp2741
a(S'joked'
p2742
(dp2743
S'NamedEntityTag'
p2744
g83
sS'CharacterOffsetEnd'
p2745
S'484'
p2746
sS'Lemma'
p2747
S'joke'
p2748
sS'PartOfSpeech'
p2749
S'VBD'
p2750
sS'CharacterOffsetBegin'
p2751
S'479'
p2752
stp2753
a(S'about'
p2754
(dp2755
S'NamedEntityTag'
p2756
g83
sS'CharacterOffsetEnd'
p2757
S'490'
p2758
sS'Lemma'
p2759
S'about'
p2760
sS'PartOfSpeech'
p2761
S'IN'
p2762
sS'CharacterOffsetBegin'
p2763
S'485'
p2764
stp2765
a(S'how'
p2766
(dp2767
S'NamedEntityTag'
p2768
g83
sS'CharacterOffsetEnd'
p2769
S'494'
p2770
sS'Lemma'
p2771
S'how'
p2772
sS'PartOfSpeech'
p2773
S'WRB'
p2774
sS'CharacterOffsetBegin'
p2775
S'491'
p2776
stp2777
a(S'he'
p2778
(dp2779
S'NamedEntityTag'
p2780
g83
sS'CharacterOffsetEnd'
p2781
S'497'
p2782
sS'Lemma'
p2783
S'he'
p2784
sS'PartOfSpeech'
p2785
S'PRP'
p2786
sS'CharacterOffsetBegin'
p2787
S'495'
p2788
stp2789
a(S'heard'
p2790
(dp2791
S'NamedEntityTag'
p2792
g83
sS'CharacterOffsetEnd'
p2793
S'503'
p2794
sS'Lemma'
p2795
S'hear'
p2796
sS'PartOfSpeech'
p2797
S'VBD'
p2798
sS'CharacterOffsetBegin'
p2799
S'498'
p2800
stp2801
a(S'he'
p2802
(dp2803
S'NamedEntityTag'
p2804
g83
sS'CharacterOffsetEnd'
p2805
S'506'
p2806
sS'Lemma'
p2807
S'he'
p2808
sS'PartOfSpeech'
p2809
S'PRP'
p2810
sS'CharacterOffsetBegin'
p2811
S'504'
p2812
stp2813
a(S'had'
p2814
(dp2815
S'NamedEntityTag'
p2816
g83
sS'CharacterOffsetEnd'
p2817
S'510'
p2818
sS'Lemma'
p2819
S'have'
p2820
sS'PartOfSpeech'
p2821
S'VBD'
p2822
sS'CharacterOffsetBegin'
p2823
S'507'
p2824
stp2825
a(S'won'
p2826
(dp2827
S'NamedEntityTag'
p2828
g83
sS'CharacterOffsetEnd'
p2829
S'514'
p2830
sS'Lemma'
p2831
S'win'
p2832
sS'PartOfSpeech'
p2833
S'VBN'
p2834
sS'CharacterOffsetBegin'
p2835
S'511'
p2836
stp2837
a(S'the'
p2838
(dp2839
S'NamedEntityTag'
p2840
g83
sS'CharacterOffsetEnd'
p2841
S'518'
p2842
sS'Lemma'
p2843
S'the'
p2844
sS'PartOfSpeech'
p2845
S'DT'
p2846
sS'CharacterOffsetBegin'
p2847
S'515'
p2848
stp2849
a(S'prize'
p2850
(dp2851
S'NamedEntityTag'
p2852
g83
sS'CharacterOffsetEnd'
p2853
S'524'
p2854
sS'Lemma'
p2855
S'prize'
p2856
sS'PartOfSpeech'
p2857
S'NN'
p2858
sS'CharacterOffsetBegin'
p2859
S'519'
p2860
stp2861
a(S'from'
p2862
(dp2863
S'NamedEntityTag'
p2864
g83
sS'CharacterOffsetEnd'
p2865
S'529'
p2866
sS'Lemma'
p2867
S'from'
p2868
sS'PartOfSpeech'
p2869
S'IN'
p2870
sS'CharacterOffsetBegin'
p2871
S'525'
p2872
stp2873
a(S'German'
p2874
(dp2875
S'NamedEntityTag'
p2876
S'MISC'
p2877
sS'CharacterOffsetEnd'
p2878
S'536'
p2879
sS'Lemma'
p2880
S'german'
p2881
sS'PartOfSpeech'
p2882
S'JJ'
p2883
sS'CharacterOffsetBegin'
p2884
S'530'
p2885
stp2886
a(S'air'
p2887
(dp2888
S'NamedEntityTag'
p2889
g83
sS'CharacterOffsetEnd'
p2890
S'540'
p2891
sS'Lemma'
p2892
S'air'
p2893
sS'PartOfSpeech'
p2894
S'NN'
p2895
sS'CharacterOffsetBegin'
p2896
S'537'
p2897
stp2898
a(S'hostess'
p2899
(dp2900
S'NamedEntityTag'
p2901
g83
sS'CharacterOffsetEnd'
p2902
S'548'
p2903
sS'Lemma'
p2904
S'hostess'
p2905
sS'PartOfSpeech'
p2906
S'NN'
p2907
sS'CharacterOffsetBegin'
p2908
S'541'
p2909
stp2910
a(S'at'
p2911
(dp2912
S'NamedEntityTag'
p2913
g83
sS'CharacterOffsetEnd'
p2914
S'551'
p2915
sS'Lemma'
p2916
S'at'
p2917
sS'PartOfSpeech'
p2918
S'IN'
p2919
sS'CharacterOffsetBegin'
p2920
S'549'
p2921
stp2922
a(S'Frankfurt'
p2923
(dp2924
S'NamedEntityTag'
p2925
S'LOCATION'
p2926
sS'CharacterOffsetEnd'
p2927
S'561'
p2928
sS'Lemma'
p2929
S'Frankfurt'
p2930
sS'PartOfSpeech'
p2931
S'NNP'
p2932
sS'CharacterOffsetBegin'
p2933
S'552'
p2934
stp2935
a(S'airport'
p2936
(dp2937
S'NamedEntityTag'
p2938
g83
sS'CharacterOffsetEnd'
p2939
S'569'
p2940
sS'Lemma'
p2941
S'airport'
p2942
sS'PartOfSpeech'
p2943
S'NN'
p2944
sS'CharacterOffsetBegin'
p2945
S'562'
p2946
stp2947
a(S'as'
p2948
(dp2949
S'NamedEntityTag'
p2950
g83
sS'CharacterOffsetEnd'
p2951
S'572'
p2952
sS'Lemma'
p2953
S'as'
p2954
sS'PartOfSpeech'
p2955
S'IN'
p2956
sS'CharacterOffsetBegin'
p2957
S'570'
p2958
stp2959
a(S'he'
p2960
(dp2961
S'NamedEntityTag'
p2962
g83
sS'CharacterOffsetEnd'
p2963
S'575'
p2964
sS'Lemma'
p2965
S'he'
p2966
sS'PartOfSpeech'
p2967
S'PRP'
p2968
sS'CharacterOffsetBegin'
p2969
S'573'
p2970
stp2971
a(S'waited'
p2972
(dp2973
S'NamedEntityTag'
p2974
g83
sS'CharacterOffsetEnd'
p2975
S'582'
p2976
sS'Lemma'
p2977
S'wait'
p2978
sS'PartOfSpeech'
p2979
S'VBD'
p2980
sS'CharacterOffsetBegin'
p2981
S'576'
p2982
stp2983
a(S'for'
p2984
(dp2985
S'NamedEntityTag'
p2986
g83
sS'CharacterOffsetEnd'
p2987
S'586'
p2988
sS'Lemma'
p2989
S'for'
p2990
sS'PartOfSpeech'
p2991
S'IN'
p2992
sS'CharacterOffsetBegin'
p2993
S'583'
p2994
stp2995
a(g1281
(dp2996
S'NamedEntityTag'
p2997
g83
sS'CharacterOffsetEnd'
p2998
S'588'
p2999
sS'Lemma'
p3000
g1281
sS'PartOfSpeech'
p3001
S'DT'
p3002
sS'CharacterOffsetBegin'
p3003
S'587'
p3004
stp3005
a(S'flight'
p3006
(dp3007
S'NamedEntityTag'
p3008
g83
sS'CharacterOffsetEnd'
p3009
S'595'
p3010
sS'Lemma'
p3011
S'flight'
p3012
sS'PartOfSpeech'
p3013
S'NN'
p3014
sS'CharacterOffsetBegin'
p3015
S'589'
p3016
stp3017
a(S'home'
p3018
(dp3019
S'NamedEntityTag'
p3020
g83
sS'CharacterOffsetEnd'
p3021
S'600'
p3022
sS'Lemma'
p3023
S'home'
p3024
sS'PartOfSpeech'
p3025
S'NN'
p3026
sS'CharacterOffsetBegin'
p3027
S'596'
p3028
stp3029
a(S'to'
p3030
(dp3031
S'NamedEntityTag'
p3032
g83
sS'CharacterOffsetEnd'
p3033
S'603'
p3034
sS'Lemma'
p3035
S'to'
p3036
sS'PartOfSpeech'
p3037
S'TO'
p3038
sS'CharacterOffsetBegin'
p3039
S'601'
p3040
stp3041
a(S'Spains'
p3042
(dp3043
S'NamedEntityTag'
p3044
S'LOCATION'
p3045
sS'CharacterOffsetEnd'
p3046
S'610'
p3047
sS'Lemma'
p3048
S'Spains'
p3049
sS'PartOfSpeech'
p3050
S'NNP'
p3051
sS'CharacterOffsetBegin'
p3052
S'604'
p3053
stp3054
a(S'Canary'
p3055
(dp3056
S'NamedEntityTag'
p3057
S'LOCATION'
p3058
sS'CharacterOffsetEnd'
p3059
S'617'
p3060
sS'Lemma'
p3061
S'Canary'
p3062
sS'PartOfSpeech'
p3063
S'NNP'
p3064
sS'CharacterOffsetBegin'
p3065
S'611'
p3066
stp3067
a(S'Islands'
p3068
(dp3069
S'NamedEntityTag'
p3070
S'LOCATION'
p3071
sS'CharacterOffsetEnd'
p3072
S'625'
p3073
sS'Lemma'
p3074
S'Islands'
p3075
sS'PartOfSpeech'
p3076
S'NNP'
p3077
sS'CharacterOffsetBegin'
p3078
S'618'
p3079
stp3080
a(g676
(dp3081
S'NamedEntityTag'
p3082
g83
sS'CharacterOffsetEnd'
p3083
S'626'
p3084
sS'Lemma'
p3085
g676
sS'PartOfSpeech'
p3086
g676
sS'CharacterOffsetBegin'
p3087
S'625'
p3088
stp3089
asa(dp3090
g7
S'(ROOT (S (NP (DT The) (NN news)) (VP (VBD left) (NP (DT the) (CD 75-year-old) (NN writer)) (NP (NP (DT no) (NN choice)) (CC but) (S (VP (TO to) (VP (VB leave) (NP (DT the) (NN airport) (CC and) (NN return)) (PP (TO to) (NP (NP (DT the) (NNS citys) (NN book)) (ADJP (JJ fair) (S (VP (TO to) (VP (VB meet) (NP (DT the) (NN press) (CC and) (NN public))))))))))))) (. .)))'
p3091
sg9
S'The news left the 75-year-old writer no choice but to leave the airport and return to the citys book fair to meet the press and public.'
p3092
sg11
(lp3093
(S'root'
p3094
S'ROOT'
p3095
S'left'
p3096
tp3097
a(S'det'
p3098
S'news'
p3099
S'The'
p3100
tp3101
a(S'nsubj'
p3102
S'left'
p3103
S'news'
p3104
tp3105
a(S'det'
p3106
S'writer'
p3107
S'the'
p3108
tp3109
a(S'num'
p3110
S'writer'
p3111
S'75-year-old'
p3112
tp3113
a(S'iobj'
p3114
S'left'
p3115
S'writer'
p3116
tp3117
a(S'det'
p3118
S'choice'
p3119
S'no'
p3120
tp3121
a(S'dobj'
p3122
S'left'
p3123
S'choice'
p3124
tp3125
a(S'aux'
p3126
S'leave'
p3127
S'to'
p3128
tp3129
a(S'conj_but'
p3130
S'choice'
p3131
S'leave'
p3132
tp3133
a(S'det'
p3134
S'airport'
p3135
S'the'
p3136
tp3137
a(S'dobj'
p3138
S'leave'
p3139
S'airport'
p3140
tp3141
a(S'conj_and'
p3142
S'airport'
p3143
S'return'
p3144
tp3145
a(S'det'
p3146
S'book'
p3147
S'the'
p3148
tp3149
a(S'nn'
p3150
S'book'
p3151
S'citys'
p3152
tp3153
a(S'prep_to'
p3154
S'leave'
p3155
S'book'
p3156
tp3157
a(S'amod'
p3158
S'book'
p3159
S'fair'
p3160
tp3161
a(S'aux'
p3162
S'meet'
p3163
S'to'
p3164
tp3165
a(S'xcomp'
p3166
S'fair'
p3167
S'meet'
p3168
tp3169
a(S'det'
p3170
S'press'
p3171
S'the'
p3172
tp3173
a(S'dobj'
p3174
S'meet'
p3175
S'press'
p3176
tp3177
a(S'conj_and'
p3178
S'press'
p3179
S'public'
p3180
tp3181
asg49
(lp3182
(g3094
S'ROOT-0'
p3183
S'left-3'
p3184
tp3185
a(g3098
S'news-2'
p3186
S'The-1'
p3187
tp3188
a(g3102
S'left-3'
p3189
S'news-2'
p3190
tp3191
a(g3106
S'writer-6'
p3192
S'the-4'
p3193
tp3194
a(g3110
S'writer-6'
p3195
S'75-year-old-5'
p3196
tp3197
a(g3114
S'left-3'
p3198
S'writer-6'
p3199
tp3200
a(g3118
S'choice-8'
p3201
S'no-7'
p3202
tp3203
a(g3122
S'left-3'
p3204
S'choice-8'
p3205
tp3206
a(g3126
S'leave-11'
p3207
S'to-10'
p3208
tp3209
a(g3130
S'choice-8'
p3210
S'leave-11'
p3211
tp3212
a(g3134
S'airport-13'
p3213
S'the-12'
p3214
tp3215
a(g3138
S'leave-11'
p3216
S'airport-13'
p3217
tp3218
a(g3142
S'airport-13'
p3219
S'return-15'
p3220
tp3221
a(g3146
S'book-19'
p3222
S'the-17'
p3223
tp3224
a(g3150
S'book-19'
p3225
S'citys-18'
p3226
tp3227
a(g3154
S'leave-11'
p3228
S'book-19'
p3229
tp3230
a(g3158
S'book-19'
p3231
S'fair-20'
p3232
tp3233
a(g3162
S'meet-22'
p3234
S'to-21'
p3235
tp3236
a(g3166
S'fair-20'
p3237
S'meet-22'
p3238
tp3239
a(g3170
S'press-24'
p3240
S'the-23'
p3241
tp3242
a(g3174
S'meet-22'
p3243
S'press-24'
p3244
tp3245
a(g3178
S'press-24'
p3246
S'public-26'
p3247
tp3248
asg78
(lp3249
(S'The'
p3250
(dp3251
S'NamedEntityTag'
p3252
g83
sS'CharacterOffsetEnd'
p3253
S'630'
p3254
sS'Lemma'
p3255
S'the'
p3256
sS'PartOfSpeech'
p3257
S'DT'
p3258
sS'CharacterOffsetBegin'
p3259
S'627'
p3260
stp3261
a(S'news'
p3262
(dp3263
S'NamedEntityTag'
p3264
g83
sS'CharacterOffsetEnd'
p3265
S'635'
p3266
sS'Lemma'
p3267
S'news'
p3268
sS'PartOfSpeech'
p3269
S'NN'
p3270
sS'CharacterOffsetBegin'
p3271
S'631'
p3272
stp3273
a(S'left'
p3274
(dp3275
S'NamedEntityTag'
p3276
g83
sS'CharacterOffsetEnd'
p3277
S'640'
p3278
sS'Lemma'
p3279
S'leave'
p3280
sS'PartOfSpeech'
p3281
S'VBD'
p3282
sS'CharacterOffsetBegin'
p3283
S'636'
p3284
stp3285
a(S'the'
p3286
(dp3287
S'NamedEntityTag'
p3288
g83
sS'CharacterOffsetEnd'
p3289
S'644'
p3290
sS'Lemma'
p3291
S'the'
p3292
sS'PartOfSpeech'
p3293
S'DT'
p3294
sS'CharacterOffsetBegin'
p3295
S'641'
p3296
stp3297
a(S'75-year-old'
p3298
(dp3299
S'NormalizedNamedEntityTag'
p3300
S'P75Y'
p3301
sS'Timex'
p3302
S'<TIMEX3 tid="t2" type="DURATION" value="P75Y">75-year-old</TIMEX3>'
p3303
sS'Lemma'
p3304
S'75-year-old'
p3305
sS'CharacterOffsetEnd'
p3306
S'656'
p3307
sS'PartOfSpeech'
p3308
S'CD'
p3309
sS'CharacterOffsetBegin'
p3310
S'645'
p3311
sS'NamedEntityTag'
p3312
S'DURATION'
p3313
stp3314
a(S'writer'
p3315
(dp3316
S'NamedEntityTag'
p3317
g83
sS'CharacterOffsetEnd'
p3318
S'663'
p3319
sS'Lemma'
p3320
S'writer'
p3321
sS'PartOfSpeech'
p3322
S'NN'
p3323
sS'CharacterOffsetBegin'
p3324
S'657'
p3325
stp3326
a(S'no'
p3327
(dp3328
S'NamedEntityTag'
p3329
g83
sS'CharacterOffsetEnd'
p3330
S'666'
p3331
sS'Lemma'
p3332
S'no'
p3333
sS'PartOfSpeech'
p3334
S'DT'
p3335
sS'CharacterOffsetBegin'
p3336
S'664'
p3337
stp3338
a(S'choice'
p3339
(dp3340
S'NamedEntityTag'
p3341
g83
sS'CharacterOffsetEnd'
p3342
S'673'
p3343
sS'Lemma'
p3344
S'choice'
p3345
sS'PartOfSpeech'
p3346
S'NN'
p3347
sS'CharacterOffsetBegin'
p3348
S'667'
p3349
stp3350
a(S'but'
p3351
(dp3352
S'NamedEntityTag'
p3353
g83
sS'CharacterOffsetEnd'
p3354
S'677'
p3355
sS'Lemma'
p3356
S'but'
p3357
sS'PartOfSpeech'
p3358
S'CC'
p3359
sS'CharacterOffsetBegin'
p3360
S'674'
p3361
stp3362
a(S'to'
p3363
(dp3364
S'NamedEntityTag'
p3365
g83
sS'CharacterOffsetEnd'
p3366
S'680'
p3367
sS'Lemma'
p3368
S'to'
p3369
sS'PartOfSpeech'
p3370
S'TO'
p3371
sS'CharacterOffsetBegin'
p3372
S'678'
p3373
stp3374
a(S'leave'
p3375
(dp3376
S'NamedEntityTag'
p3377
g83
sS'CharacterOffsetEnd'
p3378
S'686'
p3379
sS'Lemma'
p3380
S'leave'
p3381
sS'PartOfSpeech'
p3382
S'VB'
p3383
sS'CharacterOffsetBegin'
p3384
S'681'
p3385
stp3386
a(S'the'
p3387
(dp3388
S'NamedEntityTag'
p3389
g83
sS'CharacterOffsetEnd'
p3390
S'690'
p3391
sS'Lemma'
p3392
S'the'
p3393
sS'PartOfSpeech'
p3394
S'DT'
p3395
sS'CharacterOffsetBegin'
p3396
S'687'
p3397
stp3398
a(S'airport'
p3399
(dp3400
S'NamedEntityTag'
p3401
g83
sS'CharacterOffsetEnd'
p3402
S'698'
p3403
sS'Lemma'
p3404
S'airport'
p3405
sS'PartOfSpeech'
p3406
S'NN'
p3407
sS'CharacterOffsetBegin'
p3408
S'691'
p3409
stp3410
a(S'and'
p3411
(dp3412
S'NamedEntityTag'
p3413
g83
sS'CharacterOffsetEnd'
p3414
S'702'
p3415
sS'Lemma'
p3416
S'and'
p3417
sS'PartOfSpeech'
p3418
S'CC'
p3419
sS'CharacterOffsetBegin'
p3420
S'699'
p3421
stp3422
a(S'return'
p3423
(dp3424
S'NamedEntityTag'
p3425
g83
sS'CharacterOffsetEnd'
p3426
S'709'
p3427
sS'Lemma'
p3428
S'return'
p3429
sS'PartOfSpeech'
p3430
S'NN'
p3431
sS'CharacterOffsetBegin'
p3432
S'703'
p3433
stp3434
a(S'to'
p3435
(dp3436
S'NamedEntityTag'
p3437
g83
sS'CharacterOffsetEnd'
p3438
S'712'
p3439
sS'Lemma'
p3440
S'to'
p3441
sS'PartOfSpeech'
p3442
S'TO'
p3443
sS'CharacterOffsetBegin'
p3444
S'710'
p3445
stp3446
a(S'the'
p3447
(dp3448
S'NamedEntityTag'
p3449
g83
sS'CharacterOffsetEnd'
p3450
S'716'
p3451
sS'Lemma'
p3452
S'the'
p3453
sS'PartOfSpeech'
p3454
S'DT'
p3455
sS'CharacterOffsetBegin'
p3456
S'713'
p3457
stp3458
a(S'citys'
p3459
(dp3460
S'NamedEntityTag'
p3461
g83
sS'CharacterOffsetEnd'
p3462
S'722'
p3463
sS'Lemma'
p3464
S'city'
p3465
sS'PartOfSpeech'
p3466
S'NNS'
p3467
sS'CharacterOffsetBegin'
p3468
S'717'
p3469
stp3470
a(S'book'
p3471
(dp3472
S'NamedEntityTag'
p3473
g83
sS'CharacterOffsetEnd'
p3474
S'727'
p3475
sS'Lemma'
p3476
S'book'
p3477
sS'PartOfSpeech'
p3478
S'NN'
p3479
sS'CharacterOffsetBegin'
p3480
S'723'
p3481
stp3482
a(S'fair'
p3483
(dp3484
S'NamedEntityTag'
p3485
g83
sS'CharacterOffsetEnd'
p3486
S'732'
p3487
sS'Lemma'
p3488
S'fair'
p3489
sS'PartOfSpeech'
p3490
S'JJ'
p3491
sS'CharacterOffsetBegin'
p3492
S'728'
p3493
stp3494
a(S'to'
p3495
(dp3496
S'NamedEntityTag'
p3497
g83
sS'CharacterOffsetEnd'
p3498
S'735'
p3499
sS'Lemma'
p3500
S'to'
p3501
sS'PartOfSpeech'
p3502
S'TO'
p3503
sS'CharacterOffsetBegin'
p3504
S'733'
p3505
stp3506
a(S'meet'
p3507
(dp3508
S'NamedEntityTag'
p3509
g83
sS'CharacterOffsetEnd'
p3510
S'740'
p3511
sS'Lemma'
p3512
S'meet'
p3513
sS'PartOfSpeech'
p3514
S'VB'
p3515
sS'CharacterOffsetBegin'
p3516
S'736'
p3517
stp3518
a(S'the'
p3519
(dp3520
S'NamedEntityTag'
p3521
g83
sS'CharacterOffsetEnd'
p3522
S'744'
p3523
sS'Lemma'
p3524
S'the'
p3525
sS'PartOfSpeech'
p3526
S'DT'
p3527
sS'CharacterOffsetBegin'
p3528
S'741'
p3529
stp3530
a(S'press'
p3531
(dp3532
S'NamedEntityTag'
p3533
g83
sS'CharacterOffsetEnd'
p3534
S'750'
p3535
sS'Lemma'
p3536
S'press'
p3537
sS'PartOfSpeech'
p3538
S'NN'
p3539
sS'CharacterOffsetBegin'
p3540
S'745'
p3541
stp3542
a(S'and'
p3543
(dp3544
S'NamedEntityTag'
p3545
g83
sS'CharacterOffsetEnd'
p3546
S'754'
p3547
sS'Lemma'
p3548
S'and'
p3549
sS'PartOfSpeech'
p3550
S'CC'
p3551
sS'CharacterOffsetBegin'
p3552
S'751'
p3553
stp3554
a(S'public'
p3555
(dp3556
S'NamedEntityTag'
p3557
g83
sS'CharacterOffsetEnd'
p3558
S'761'
p3559
sS'Lemma'
p3560
S'public'
p3561
sS'PartOfSpeech'
p3562
S'NN'
p3563
sS'CharacterOffsetBegin'
p3564
S'755'
p3565
stp3566
a(g676
(dp3567
S'NamedEntityTag'
p3568
g83
sS'CharacterOffsetEnd'
p3569
S'762'
p3570
sS'Lemma'
p3571
g676
sS'PartOfSpeech'
p3572
g676
sS'CharacterOffsetBegin'
p3573
S'761'
p3574
stp3575
asa(dp3576
g7
S'(ROOT (SINV (S (S (PP (IN At) (NP (DT that) (NN moment))) (NP (PRP I)) (VP (VBD was) (PP (IN over) (NP (DT the) (NN moon))))) (CC and) (S (S (VP (VBG returning) (PP (TO to) (NP (DT the) (NN book))) (NP (NP (JJ fair) (DT the) (JJ only) (NN thing)) (SBAR (S (NP (PRP I)) (VP (VBD was) (VP (VBN worried) (PP (IN about))))))))) (VP (VBD was) (SBAR (IN that) (S (NP (DT the) (JJ whole) (NN thing)) (VP (VBD was) (NP (DT an) (NN error)))))))) (, ,) (VP (VBD said)) (NP (NNP Saramago)) (. .)))'
p3577
sg9
S'At that moment I was over the moon and returning to the book fair the only thing I was worried about was that the whole thing was an error, said Saramago.'
p3578
sg11
(lp3579
(S'root'
p3580
S'ROOT'
p3581
S'said'
p3582
tp3583
a(S'det'
p3584
S'moment'
p3585
S'that'
p3586
tp3587
a(S'prep_at'
p3588
S'was'
p3589
S'moment'
p3590
tp3591
a(S'nsubj'
p3592
S'was'
p3593
g960
tp3594
a(S'ccomp'
p3595
S'said'
p3596
S'was'
p3597
tp3598
a(S'det'
p3599
S'moon'
p3600
S'the'
p3601
tp3602
a(S'prep_over'
p3603
S'was'
p3604
S'moon'
p3605
tp3606
a(S'csubj'
p3607
S'was'
p3608
S'returning'
p3609
tp3610
a(S'det'
p3611
S'book'
p3612
S'the'
p3613
tp3614
a(S'prep_to'
p3615
S'returning'
p3616
S'book'
p3617
tp3618
a(S'amod'
p3619
S'thing'
p3620
S'fair'
p3621
tp3622
a(S'det'
p3623
S'thing'
p3624
S'the'
p3625
tp3626
a(S'amod'
p3627
S'thing'
p3628
S'only'
p3629
tp3630
a(S'dobj'
p3631
S'returning'
p3632
S'thing'
p3633
tp3634
a(S'nsubjpass'
p3635
S'worried'
p3636
g960
tp3637
a(S'auxpass'
p3638
S'worried'
p3639
S'was'
p3640
tp3641
a(S'rcmod'
p3642
S'thing'
p3643
S'worried'
p3644
tp3645
a(S'prep'
p3646
S'worried'
p3647
S'about'
p3648
tp3649
a(S'conj_and'
p3650
S'was'
p3651
S'was'
p3652
tp3653
a(S'mark'
p3654
S'error'
p3655
S'that'
p3656
tp3657
a(S'det'
p3658
S'thing'
p3659
S'the'
p3660
tp3661
a(S'amod'
p3662
S'thing'
p3663
S'whole'
p3664
tp3665
a(S'nsubj'
p3666
S'error'
p3667
S'thing'
p3668
tp3669
a(S'cop'
p3670
S'error'
p3671
S'was'
p3672
tp3673
a(S'det'
p3674
S'error'
p3675
S'an'
p3676
tp3677
a(S'ccomp'
p3678
S'was'
p3679
S'error'
p3680
tp3681
a(S'nsubj'
p3682
S'said'
p3683
S'Saramago'
p3684
tp3685
asg49
(lp3686
(g3580
S'ROOT-0'
p3687
S'said-31'
p3688
tp3689
a(g3584
S'moment-3'
p3690
S'that-2'
p3691
tp3692
a(g3588
S'was-5'
p3693
S'moment-3'
p3694
tp3695
a(g3592
S'was-5'
p3696
S'I-4'
p3697
tp3698
a(g3595
S'said-31'
p3699
S'was-5'
p3700
tp3701
a(g3599
S'moon-8'
p3702
S'the-7'
p3703
tp3704
a(g3603
S'was-5'
p3705
S'moon-8'
p3706
tp3707
a(g3607
S'was-22'
p3708
S'returning-10'
p3709
tp3710
a(g3611
S'book-13'
p3711
S'the-12'
p3712
tp3713
a(g3615
S'returning-10'
p3714
S'book-13'
p3715
tp3716
a(g3619
S'thing-17'
p3717
S'fair-14'
p3718
tp3719
a(g3623
S'thing-17'
p3720
S'the-15'
p3721
tp3722
a(g3627
S'thing-17'
p3723
S'only-16'
p3724
tp3725
a(g3631
S'returning-10'
p3726
S'thing-17'
p3727
tp3728
a(g3635
S'worried-20'
p3729
S'I-18'
p3730
tp3731
a(g3638
S'worried-20'
p3732
S'was-19'
p3733
tp3734
a(g3642
S'thing-17'
p3735
S'worried-20'
p3736
tp3737
a(g3646
S'worried-20'
p3738
S'about-21'
p3739
tp3740
a(g3650
S'was-5'
p3741
S'was-22'
p3742
tp3743
a(g3654
S'error-29'
p3744
S'that-23'
p3745
tp3746
a(g3658
S'thing-26'
p3747
S'the-24'
p3748
tp3749
a(g3662
S'thing-26'
p3750
S'whole-25'
p3751
tp3752
a(g3666
S'error-29'
p3753
S'thing-26'
p3754
tp3755
a(g3670
S'error-29'
p3756
S'was-27'
p3757
tp3758
a(g3674
S'error-29'
p3759
S'an-28'
p3760
tp3761
a(g3678
S'was-22'
p3762
S'error-29'
p3763
tp3764
a(g3682
S'said-31'
p3765
S'Saramago-32'
p3766
tp3767
asg78
(lp3768
(S'At'
p3769
(dp3770
S'NamedEntityTag'
p3771
g83
sS'CharacterOffsetEnd'
p3772
S'765'
p3773
sS'Lemma'
p3774
S'at'
p3775
sS'PartOfSpeech'
p3776
S'IN'
p3777
sS'CharacterOffsetBegin'
p3778
S'763'
p3779
stp3780
a(S'that'
p3781
(dp3782
S'NamedEntityTag'
p3783
g83
sS'CharacterOffsetEnd'
p3784
S'770'
p3785
sS'Lemma'
p3786
S'that'
p3787
sS'PartOfSpeech'
p3788
S'DT'
p3789
sS'CharacterOffsetBegin'
p3790
S'766'
p3791
stp3792
a(S'moment'
p3793
(dp3794
S'NamedEntityTag'
p3795
g83
sS'CharacterOffsetEnd'
p3796
S'777'
p3797
sS'Lemma'
p3798
S'moment'
p3799
sS'PartOfSpeech'
p3800
S'NN'
p3801
sS'CharacterOffsetBegin'
p3802
S'771'
p3803
stp3804
a(g960
(dp3805
S'NamedEntityTag'
p3806
g83
sS'CharacterOffsetEnd'
p3807
S'779'
p3808
sS'Lemma'
p3809
g960
sS'PartOfSpeech'
p3810
S'PRP'
p3811
sS'CharacterOffsetBegin'
p3812
S'778'
p3813
stp3814
a(S'was'
p3815
(dp3816
S'NamedEntityTag'
p3817
g83
sS'CharacterOffsetEnd'
p3818
S'783'
p3819
sS'Lemma'
p3820
S'be'
p3821
sS'PartOfSpeech'
p3822
S'VBD'
p3823
sS'CharacterOffsetBegin'
p3824
S'780'
p3825
stp3826
a(S'over'
p3827
(dp3828
S'NamedEntityTag'
p3829
g83
sS'CharacterOffsetEnd'
p3830
S'788'
p3831
sS'Lemma'
p3832
S'over'
p3833
sS'PartOfSpeech'
p3834
S'IN'
p3835
sS'CharacterOffsetBegin'
p3836
S'784'
p3837
stp3838
a(S'the'
p3839
(dp3840
S'NamedEntityTag'
p3841
g83
sS'CharacterOffsetEnd'
p3842
S'792'
p3843
sS'Lemma'
p3844
S'the'
p3845
sS'PartOfSpeech'
p3846
S'DT'
p3847
sS'CharacterOffsetBegin'
p3848
S'789'
p3849
stp3850
a(S'moon'
p3851
(dp3852
S'NamedEntityTag'
p3853
g83
sS'CharacterOffsetEnd'
p3854
S'797'
p3855
sS'Lemma'
p3856
S'moon'
p3857
sS'PartOfSpeech'
p3858
S'NN'
p3859
sS'CharacterOffsetBegin'
p3860
S'793'
p3861
stp3862
a(S'and'
p3863
(dp3864
S'NamedEntityTag'
p3865
g83
sS'CharacterOffsetEnd'
p3866
S'801'
p3867
sS'Lemma'
p3868
S'and'
p3869
sS'PartOfSpeech'
p3870
S'CC'
p3871
sS'CharacterOffsetBegin'
p3872
S'798'
p3873
stp3874
a(S'returning'
p3875
(dp3876
S'NamedEntityTag'
p3877
g83
sS'CharacterOffsetEnd'
p3878
S'811'
p3879
sS'Lemma'
p3880
S'return'
p3881
sS'PartOfSpeech'
p3882
S'VBG'
p3883
sS'CharacterOffsetBegin'
p3884
S'802'
p3885
stp3886
a(S'to'
p3887
(dp3888
S'NamedEntityTag'
p3889
g83
sS'CharacterOffsetEnd'
p3890
S'814'
p3891
sS'Lemma'
p3892
S'to'
p3893
sS'PartOfSpeech'
p3894
S'TO'
p3895
sS'CharacterOffsetBegin'
p3896
S'812'
p3897
stp3898
a(S'the'
p3899
(dp3900
S'NamedEntityTag'
p3901
g83
sS'CharacterOffsetEnd'
p3902
S'818'
p3903
sS'Lemma'
p3904
S'the'
p3905
sS'PartOfSpeech'
p3906
S'DT'
p3907
sS'CharacterOffsetBegin'
p3908
S'815'
p3909
stp3910
a(S'book'
p3911
(dp3912
S'NamedEntityTag'
p3913
g83
sS'CharacterOffsetEnd'
p3914
S'823'
p3915
sS'Lemma'
p3916
S'book'
p3917
sS'PartOfSpeech'
p3918
S'NN'
p3919
sS'CharacterOffsetBegin'
p3920
S'819'
p3921
stp3922
a(S'fair'
p3923
(dp3924
S'NamedEntityTag'
p3925
g83
sS'CharacterOffsetEnd'
p3926
S'828'
p3927
sS'Lemma'
p3928
S'fair'
p3929
sS'PartOfSpeech'
p3930
S'JJ'
p3931
sS'CharacterOffsetBegin'
p3932
S'824'
p3933
stp3934
a(S'the'
p3935
(dp3936
S'NamedEntityTag'
p3937
g83
sS'CharacterOffsetEnd'
p3938
S'832'
p3939
sS'Lemma'
p3940
S'the'
p3941
sS'PartOfSpeech'
p3942
S'DT'
p3943
sS'CharacterOffsetBegin'
p3944
S'829'
p3945
stp3946
a(S'only'
p3947
(dp3948
S'NamedEntityTag'
p3949
g83
sS'CharacterOffsetEnd'
p3950
S'837'
p3951
sS'Lemma'
p3952
S'only'
p3953
sS'PartOfSpeech'
p3954
S'JJ'
p3955
sS'CharacterOffsetBegin'
p3956
S'833'
p3957
stp3958
a(S'thing'
p3959
(dp3960
S'NamedEntityTag'
p3961
g83
sS'CharacterOffsetEnd'
p3962
S'843'
p3963
sS'Lemma'
p3964
S'thing'
p3965
sS'PartOfSpeech'
p3966
S'NN'
p3967
sS'CharacterOffsetBegin'
p3968
S'838'
p3969
stp3970
a(g960
(dp3971
S'NamedEntityTag'
p3972
g83
sS'CharacterOffsetEnd'
p3973
S'845'
p3974
sS'Lemma'
p3975
g960
sS'PartOfSpeech'
p3976
S'PRP'
p3977
sS'CharacterOffsetBegin'
p3978
S'844'
p3979
stp3980
a(S'was'
p3981
(dp3982
S'NamedEntityTag'
p3983
g83
sS'CharacterOffsetEnd'
p3984
S'849'
p3985
sS'Lemma'
p3986
S'be'
p3987
sS'PartOfSpeech'
p3988
S'VBD'
p3989
sS'CharacterOffsetBegin'
p3990
S'846'
p3991
stp3992
a(S'worried'
p3993
(dp3994
S'NamedEntityTag'
p3995
g83
sS'CharacterOffsetEnd'
p3996
S'857'
p3997
sS'Lemma'
p3998
S'worry'
p3999
sS'PartOfSpeech'
p4000
S'VBN'
p4001
sS'CharacterOffsetBegin'
p4002
S'850'
p4003
stp4004
a(S'about'
p4005
(dp4006
S'NamedEntityTag'
p4007
g83
sS'CharacterOffsetEnd'
p4008
S'863'
p4009
sS'Lemma'
p4010
S'about'
p4011
sS'PartOfSpeech'
p4012
S'IN'
p4013
sS'CharacterOffsetBegin'
p4014
S'858'
p4015
stp4016
a(S'was'
p4017
(dp4018
S'NamedEntityTag'
p4019
g83
sS'CharacterOffsetEnd'
p4020
S'867'
p4021
sS'Lemma'
p4022
S'be'
p4023
sS'PartOfSpeech'
p4024
S'VBD'
p4025
sS'CharacterOffsetBegin'
p4026
S'864'
p4027
stp4028
a(S'that'
p4029
(dp4030
S'NamedEntityTag'
p4031
g83
sS'CharacterOffsetEnd'
p4032
S'872'
p4033
sS'Lemma'
p4034
S'that'
p4035
sS'PartOfSpeech'
p4036
S'IN'
p4037
sS'CharacterOffsetBegin'
p4038
S'868'
p4039
stp4040
a(S'the'
p4041
(dp4042
S'NamedEntityTag'
p4043
g83
sS'CharacterOffsetEnd'
p4044
S'876'
p4045
sS'Lemma'
p4046
S'the'
p4047
sS'PartOfSpeech'
p4048
S'DT'
p4049
sS'CharacterOffsetBegin'
p4050
S'873'
p4051
stp4052
a(S'whole'
p4053
(dp4054
S'NamedEntityTag'
p4055
g83
sS'CharacterOffsetEnd'
p4056
S'882'
p4057
sS'Lemma'
p4058
S'whole'
p4059
sS'PartOfSpeech'
p4060
S'JJ'
p4061
sS'CharacterOffsetBegin'
p4062
S'877'
p4063
stp4064
a(S'thing'
p4065
(dp4066
S'NamedEntityTag'
p4067
g83
sS'CharacterOffsetEnd'
p4068
S'888'
p4069
sS'Lemma'
p4070
S'thing'
p4071
sS'PartOfSpeech'
p4072
S'NN'
p4073
sS'CharacterOffsetBegin'
p4074
S'883'
p4075
stp4076
a(S'was'
p4077
(dp4078
S'NamedEntityTag'
p4079
g83
sS'CharacterOffsetEnd'
p4080
S'892'
p4081
sS'Lemma'
p4082
S'be'
p4083
sS'PartOfSpeech'
p4084
S'VBD'
p4085
sS'CharacterOffsetBegin'
p4086
S'889'
p4087
stp4088
a(S'an'
p4089
(dp4090
S'NamedEntityTag'
p4091
g83
sS'CharacterOffsetEnd'
p4092
S'895'
p4093
sS'Lemma'
p4094
g1281
sS'PartOfSpeech'
p4095
S'DT'
p4096
sS'CharacterOffsetBegin'
p4097
S'893'
p4098
stp4099
a(S'error'
p4100
(dp4101
S'NamedEntityTag'
p4102
g83
sS'CharacterOffsetEnd'
p4103
S'901'
p4104
sS'Lemma'
p4105
S'error'
p4106
sS'PartOfSpeech'
p4107
S'NN'
p4108
sS'CharacterOffsetBegin'
p4109
S'896'
p4110
stp4111
a(g1392
(dp4112
S'NamedEntityTag'
p4113
g83
sS'CharacterOffsetEnd'
p4114
S'902'
p4115
sS'Lemma'
p4116
g1392
sS'PartOfSpeech'
p4117
g1392
sS'CharacterOffsetBegin'
p4118
S'901'
p4119
stp4120
a(S'said'
p4121
(dp4122
S'NamedEntityTag'
p4123
g83
sS'CharacterOffsetEnd'
p4124
S'907'
p4125
sS'Lemma'
p4126
S'say'
p4127
sS'PartOfSpeech'
p4128
S'VBD'
p4129
sS'CharacterOffsetBegin'
p4130
S'903'
p4131
stp4132
a(S'Saramago'
p4133
(dp4134
S'NamedEntityTag'
p4135
S'PERSON'
p4136
sS'CharacterOffsetEnd'
p4137
S'916'
p4138
sS'Lemma'
p4139
S'Saramago'
p4140
sS'PartOfSpeech'
p4141
S'NNP'
p4142
sS'CharacterOffsetBegin'
p4143
S'908'
p4144
stp4145
a(g676
(dp4146
S'NamedEntityTag'
p4147
g83
sS'CharacterOffsetEnd'
p4148
S'917'
p4149
sS'Lemma'
p4150
g676
sS'PartOfSpeech'
p4151
g676
sS'CharacterOffsetBegin'
p4152
S'916'
p4153
stp4154
asa(dp4155
g7
S'(ROOT (S (S (VP (VBG Dismissing) (NP (NP (DT the) (NNP Vatican) (NNS papers) (NN disapproval)) (NP-TMP (NNP Thursday)) (PP (IN of) (NP (PRP$ his) (NN achievment))) (, ,) (SBAR (S (NP (NP (NNP Saramago)) (, ,) (NP (DT a) (JJ known) (NN atheist)) (, ,)) (VP (VBD quipped) (SBAR (IN that) (S (NP (PRP he)) (VP (VBD was) (ADJP (JJ aware)) (SBAR (IN that) (S (NP (DT the) (NNP Pope)) (VP (VBD had) (VP (VBN been) (PP (IN among) (NP (DT the) (NN jury)))))))))))))))) (, ,) (NP (PRP I)) (VP (VBP wouldnt) (SBAR (S (VP (VBP have) (VP (VBN won) (NP (DT the) (NN prize))))))) (. .)))'
p4156
sg9
S'Dismissing the Vatican papers disapproval Thursday of his achievment, Saramago, a known atheist, quipped that he was aware that the Pope had been among the jury, I wouldnt have won the prize.'
p4157
sg11
(lp4158
(S'root'
p4159
S'ROOT'
p4160
S'wouldnt'
p4161
tp4162
a(S'partmod'
p4163
S'wouldnt'
p4164
S'Dismissing'
p4165
tp4166
a(S'det'
p4167
S'disapproval'
p4168
S'the'
p4169
tp4170
a(S'nn'
p4171
S'disapproval'
p4172
S'Vatican'
p4173
tp4174
a(S'nn'
p4175
S'disapproval'
p4176
S'papers'
p4177
tp4178
a(S'dobj'
p4179
S'Dismissing'
p4180
S'disapproval'
p4181
tp4182
a(S'tmod'
p4183
S'disapproval'
p4184
S'Thursday'
p4185
tp4186
a(S'poss'
p4187
S'achievment'
p4188
S'his'
p4189
tp4190
a(S'prep_of'
p4191
S'disapproval'
p4192
S'achievment'
p4193
tp4194
a(S'nsubj'
p4195
S'quipped'
p4196
S'Saramago'
p4197
tp4198
a(S'det'
p4199
S'atheist'
p4200
g1281
tp4201
a(S'amod'
p4202
S'atheist'
p4203
S'known'
p4204
tp4205
a(S'appos'
p4206
S'Saramago'
p4207
S'atheist'
p4208
tp4209
a(S'rcmod'
p4210
S'disapproval'
p4211
S'quipped'
p4212
tp4213
a(S'mark'
p4214
S'aware'
p4215
S'that'
p4216
tp4217
a(S'nsubj'
p4218
S'aware'
p4219
S'he'
p4220
tp4221
a(S'cop'
p4222
S'aware'
p4223
S'was'
p4224
tp4225
a(S'ccomp'
p4226
S'quipped'
p4227
S'aware'
p4228
tp4229
a(S'mark'
p4230
S'been'
p4231
S'that'
p4232
tp4233
a(S'det'
p4234
S'Pope'
p4235
S'the'
p4236
tp4237
a(S'nsubj'
p4238
S'been'
p4239
S'Pope'
p4240
tp4241
a(S'aux'
p4242
S'been'
p4243
S'had'
p4244
tp4245
a(S'ccomp'
p4246
S'aware'
p4247
S'been'
p4248
tp4249
a(S'det'
p4250
S'jury'
p4251
S'the'
p4252
tp4253
a(S'prep_among'
p4254
S'been'
p4255
S'jury'
p4256
tp4257
a(S'nsubj'
p4258
S'wouldnt'
p4259
g960
tp4260
a(S'aux'
p4261
S'won'
p4262
S'have'
p4263
tp4264
a(S'ccomp'
p4265
S'wouldnt'
p4266
S'won'
p4267
tp4268
a(S'det'
p4269
S'prize'
p4270
S'the'
p4271
tp4272
a(S'dobj'
p4273
S'won'
p4274
S'prize'
p4275
tp4276
asg49
(lp4277
(g4159
S'ROOT-0'
p4278
S'wouldnt-32'
p4279
tp4280
a(g4163
S'wouldnt-32'
p4281
S'Dismissing-1'
p4282
tp4283
a(g4167
S'disapproval-5'
p4284
S'the-2'
p4285
tp4286
a(g4171
S'disapproval-5'
p4287
S'Vatican-3'
p4288
tp4289
a(g4175
S'disapproval-5'
p4290
S'papers-4'
p4291
tp4292
a(g4179
S'Dismissing-1'
p4293
S'disapproval-5'
p4294
tp4295
a(g4183
S'disapproval-5'
p4296
S'Thursday-6'
p4297
tp4298
a(g4187
S'achievment-9'
p4299
S'his-8'
p4300
tp4301
a(g4191
S'disapproval-5'
p4302
S'achievment-9'
p4303
tp4304
a(g4195
S'quipped-17'
p4305
S'Saramago-11'
p4306
tp4307
a(g4199
S'atheist-15'
p4308
S'a-13'
p4309
tp4310
a(g4202
S'atheist-15'
p4311
S'known-14'
p4312
tp4313
a(g4206
S'Saramago-11'
p4314
S'atheist-15'
p4315
tp4316
a(g4210
S'disapproval-5'
p4317
S'quipped-17'
p4318
tp4319
a(g4214
S'aware-21'
p4320
S'that-18'
p4321
tp4322
a(g4218
S'aware-21'
p4323
S'he-19'
p4324
tp4325
a(g4222
S'aware-21'
p4326
S'was-20'
p4327
tp4328
a(g4226
S'quipped-17'
p4329
S'aware-21'
p4330
tp4331
a(g4230
S'been-26'
p4332
S'that-22'
p4333
tp4334
a(g4234
S'Pope-24'
p4335
S'the-23'
p4336
tp4337
a(g4238
S'been-26'
p4338
S'Pope-24'
p4339
tp4340
a(g4242
S'been-26'
p4341
S'had-25'
p4342
tp4343
a(g4246
S'aware-21'
p4344
S'been-26'
p4345
tp4346
a(g4250
S'jury-29'
p4347
S'the-28'
p4348
tp4349
a(g4254
S'been-26'
p4350
S'jury-29'
p4351
tp4352
a(g4258
S'wouldnt-32'
p4353
S'I-31'
p4354
tp4355
a(g4261
S'won-34'
p4356
S'have-33'
p4357
tp4358
a(g4265
S'wouldnt-32'
p4359
S'won-34'
p4360
tp4361
a(g4269
S'prize-36'
p4362
S'the-35'
p4363
tp4364
a(g4273
S'won-34'
p4365
S'prize-36'
p4366
tp4367
asg78
(lp4368
(S'Dismissing'
p4369
(dp4370
S'NamedEntityTag'
p4371
g83
sS'CharacterOffsetEnd'
p4372
S'928'
p4373
sS'Lemma'
p4374
S'dismiss'
p4375
sS'PartOfSpeech'
p4376
S'VBG'
p4377
sS'CharacterOffsetBegin'
p4378
S'918'
p4379
stp4380
a(S'the'
p4381
(dp4382
S'NamedEntityTag'
p4383
g83
sS'CharacterOffsetEnd'
p4384
S'932'
p4385
sS'Lemma'
p4386
S'the'
p4387
sS'PartOfSpeech'
p4388
S'DT'
p4389
sS'CharacterOffsetBegin'
p4390
S'929'
p4391
stp4392
a(S'Vatican'
p4393
(dp4394
S'NamedEntityTag'
p4395
S'LOCATION'
p4396
sS'CharacterOffsetEnd'
p4397
S'940'
p4398
sS'Lemma'
p4399
S'Vatican'
p4400
sS'PartOfSpeech'
p4401
S'NNP'
p4402
sS'CharacterOffsetBegin'
p4403
S'933'
p4404
stp4405
a(S'papers'
p4406
(dp4407
S'NamedEntityTag'
p4408
g83
sS'CharacterOffsetEnd'
p4409
S'947'
p4410
sS'Lemma'
p4411
S'papers'
p4412
sS'PartOfSpeech'
p4413
S'NNS'
p4414
sS'CharacterOffsetBegin'
p4415
S'941'
p4416
stp4417
a(S'disapproval'
p4418
(dp4419
S'NamedEntityTag'
p4420
g83
sS'CharacterOffsetEnd'
p4421
S'959'
p4422
sS'Lemma'
p4423
S'disapproval'
p4424
sS'PartOfSpeech'
p4425
S'NN'
p4426
sS'CharacterOffsetBegin'
p4427
S'948'
p4428
stp4429
a(S'Thursday'
p4430
(dp4431
S'NormalizedNamedEntityTag'
p4432
S'XXXX-WXX-4'
p4433
sS'Timex'
p4434
S'<TIMEX3 tid="t3" type="DATE" value="XXXX-WXX-4">Thursday</TIMEX3>'
p4435
sS'Lemma'
p4436
S'Thursday'
p4437
sS'CharacterOffsetEnd'
p4438
S'968'
p4439
sS'PartOfSpeech'
p4440
S'NNP'
p4441
sS'CharacterOffsetBegin'
p4442
S'960'
p4443
sS'NamedEntityTag'
p4444
S'DATE'
p4445
stp4446
a(S'of'
p4447
(dp4448
S'NamedEntityTag'
p4449
g83
sS'CharacterOffsetEnd'
p4450
S'971'
p4451
sS'Lemma'
p4452
S'of'
p4453
sS'PartOfSpeech'
p4454
S'IN'
p4455
sS'CharacterOffsetBegin'
p4456
S'969'
p4457
stp4458
a(S'his'
p4459
(dp4460
S'NamedEntityTag'
p4461
g83
sS'CharacterOffsetEnd'
p4462
S'975'
p4463
sS'Lemma'
p4464
S'he'
p4465
sS'PartOfSpeech'
p4466
S'PRP$'
p4467
sS'CharacterOffsetBegin'
p4468
S'972'
p4469
stp4470
a(S'achievment'
p4471
(dp4472
S'NamedEntityTag'
p4473
g83
sS'CharacterOffsetEnd'
p4474
S'986'
p4475
sS'Lemma'
p4476
S'achievment'
p4477
sS'PartOfSpeech'
p4478
S'NN'
p4479
sS'CharacterOffsetBegin'
p4480
S'976'
p4481
stp4482
a(g1392
(dp4483
S'NamedEntityTag'
p4484
g83
sS'CharacterOffsetEnd'
p4485
S'987'
p4486
sS'Lemma'
p4487
g1392
sS'PartOfSpeech'
p4488
g1392
sS'CharacterOffsetBegin'
p4489
S'986'
p4490
stp4491
a(S'Saramago'
p4492
(dp4493
S'NamedEntityTag'
p4494
S'PERSON'
p4495
sS'CharacterOffsetEnd'
p4496
S'996'
p4497
sS'Lemma'
p4498
S'Saramago'
p4499
sS'PartOfSpeech'
p4500
S'NNP'
p4501
sS'CharacterOffsetBegin'
p4502
S'988'
p4503
stp4504
a(g1392
(dp4505
S'NamedEntityTag'
p4506
g83
sS'CharacterOffsetEnd'
p4507
S'997'
p4508
sS'Lemma'
p4509
g1392
sS'PartOfSpeech'
p4510
g1392
sS'CharacterOffsetBegin'
p4511
S'996'
p4512
stp4513
a(g1281
(dp4514
S'NamedEntityTag'
p4515
g83
sS'CharacterOffsetEnd'
p4516
S'999'
p4517
sS'Lemma'
p4518
g1281
sS'PartOfSpeech'
p4519
S'DT'
p4520
sS'CharacterOffsetBegin'
p4521
S'998'
p4522
stp4523
a(S'known'
p4524
(dp4525
S'NamedEntityTag'
p4526
g83
sS'CharacterOffsetEnd'
p4527
S'1005'
p4528
sS'Lemma'
p4529
S'known'
p4530
sS'PartOfSpeech'
p4531
S'JJ'
p4532
sS'CharacterOffsetBegin'
p4533
S'1000'
p4534
stp4535
a(S'atheist'
p4536
(dp4537
S'NamedEntityTag'
p4538
g83
sS'CharacterOffsetEnd'
p4539
S'1013'
p4540
sS'Lemma'
p4541
S'atheist'
p4542
sS'PartOfSpeech'
p4543
S'NN'
p4544
sS'CharacterOffsetBegin'
p4545
S'1006'
p4546
stp4547
a(g1392
(dp4548
S'NamedEntityTag'
p4549
g83
sS'CharacterOffsetEnd'
p4550
S'1014'
p4551
sS'Lemma'
p4552
g1392
sS'PartOfSpeech'
p4553
g1392
sS'CharacterOffsetBegin'
p4554
S'1013'
p4555
stp4556
a(S'quipped'
p4557
(dp4558
S'NamedEntityTag'
p4559
g83
sS'CharacterOffsetEnd'
p4560
S'1022'
p4561
sS'Lemma'
p4562
S'quip'
p4563
sS'PartOfSpeech'
p4564
S'VBD'
p4565
sS'CharacterOffsetBegin'
p4566
S'1015'
p4567
stp4568
a(S'that'
p4569
(dp4570
S'NamedEntityTag'
p4571
g83
sS'CharacterOffsetEnd'
p4572
S'1027'
p4573
sS'Lemma'
p4574
S'that'
p4575
sS'PartOfSpeech'
p4576
S'IN'
p4577
sS'CharacterOffsetBegin'
p4578
S'1023'
p4579
stp4580
a(S'he'
p4581
(dp4582
S'NamedEntityTag'
p4583
g83
sS'CharacterOffsetEnd'
p4584
S'1030'
p4585
sS'Lemma'
p4586
S'he'
p4587
sS'PartOfSpeech'
p4588
S'PRP'
p4589
sS'CharacterOffsetBegin'
p4590
S'1028'
p4591
stp4592
a(S'was'
p4593
(dp4594
S'NamedEntityTag'
p4595
g83
sS'CharacterOffsetEnd'
p4596
S'1034'
p4597
sS'Lemma'
p4598
S'be'
p4599
sS'PartOfSpeech'
p4600
S'VBD'
p4601
sS'CharacterOffsetBegin'
p4602
S'1031'
p4603
stp4604
a(S'aware'
p4605
(dp4606
S'NamedEntityTag'
p4607
g83
sS'CharacterOffsetEnd'
p4608
S'1040'
p4609
sS'Lemma'
p4610
S'aware'
p4611
sS'PartOfSpeech'
p4612
S'JJ'
p4613
sS'CharacterOffsetBegin'
p4614
S'1035'
p4615
stp4616
a(S'that'
p4617
(dp4618
S'NamedEntityTag'
p4619
g83
sS'CharacterOffsetEnd'
p4620
S'1045'
p4621
sS'Lemma'
p4622
S'that'
p4623
sS'PartOfSpeech'
p4624
S'IN'
p4625
sS'CharacterOffsetBegin'
p4626
S'1041'
p4627
stp4628
a(S'the'
p4629
(dp4630
S'NamedEntityTag'
p4631
g83
sS'CharacterOffsetEnd'
p4632
S'1049'
p4633
sS'Lemma'
p4634
S'the'
p4635
sS'PartOfSpeech'
p4636
S'DT'
p4637
sS'CharacterOffsetBegin'
p4638
S'1046'
p4639
stp4640
a(S'Pope'
p4641
(dp4642
S'NamedEntityTag'
p4643
g83
sS'CharacterOffsetEnd'
p4644
S'1054'
p4645
sS'Lemma'
p4646
S'Pope'
p4647
sS'PartOfSpeech'
p4648
S'NNP'
p4649
sS'CharacterOffsetBegin'
p4650
S'1050'
p4651
stp4652
a(S'had'
p4653
(dp4654
S'NamedEntityTag'
p4655
g83
sS'CharacterOffsetEnd'
p4656
S'1058'
p4657
sS'Lemma'
p4658
S'have'
p4659
sS'PartOfSpeech'
p4660
S'VBD'
p4661
sS'CharacterOffsetBegin'
p4662
S'1055'
p4663
stp4664
a(S'been'
p4665
(dp4666
S'NamedEntityTag'
p4667
g83
sS'CharacterOffsetEnd'
p4668
S'1063'
p4669
sS'Lemma'
p4670
S'be'
p4671
sS'PartOfSpeech'
p4672
S'VBN'
p4673
sS'CharacterOffsetBegin'
p4674
S'1059'
p4675
stp4676
a(S'among'
p4677
(dp4678
S'NamedEntityTag'
p4679
g83
sS'CharacterOffsetEnd'
p4680
S'1069'
p4681
sS'Lemma'
p4682
S'among'
p4683
sS'PartOfSpeech'
p4684
S'IN'
p4685
sS'CharacterOffsetBegin'
p4686
S'1064'
p4687
stp4688
a(S'the'
p4689
(dp4690
S'NamedEntityTag'
p4691
g83
sS'CharacterOffsetEnd'
p4692
S'1073'
p4693
sS'Lemma'
p4694
S'the'
p4695
sS'PartOfSpeech'
p4696
S'DT'
p4697
sS'CharacterOffsetBegin'
p4698
S'1070'
p4699
stp4700
a(S'jury'
p4701
(dp4702
S'NamedEntityTag'
p4703
g83
sS'CharacterOffsetEnd'
p4704
S'1078'
p4705
sS'Lemma'
p4706
S'jury'
p4707
sS'PartOfSpeech'
p4708
S'NN'
p4709
sS'CharacterOffsetBegin'
p4710
S'1074'
p4711
stp4712
a(g1392
(dp4713
S'NamedEntityTag'
p4714
g83
sS'CharacterOffsetEnd'
p4715
S'1079'
p4716
sS'Lemma'
p4717
g1392
sS'PartOfSpeech'
p4718
g1392
sS'CharacterOffsetBegin'
p4719
S'1078'
p4720
stp4721
a(g960
(dp4722
S'NamedEntityTag'
p4723
g83
sS'CharacterOffsetEnd'
p4724
S'1081'
p4725
sS'Lemma'
p4726
g960
sS'PartOfSpeech'
p4727
S'PRP'
p4728
sS'CharacterOffsetBegin'
p4729
S'1080'
p4730
stp4731
a(S'wouldnt'
p4732
(dp4733
S'NamedEntityTag'
p4734
g83
sS'CharacterOffsetEnd'
p4735
S'1089'
p4736
sS'Lemma'
p4737
S'wouldnt'
p4738
sS'PartOfSpeech'
p4739
S'VBP'
p4740
sS'CharacterOffsetBegin'
p4741
S'1082'
p4742
stp4743
a(S'have'
p4744
(dp4745
S'NamedEntityTag'
p4746
g83
sS'CharacterOffsetEnd'
p4747
S'1094'
p4748
sS'Lemma'
p4749
S'have'
p4750
sS'PartOfSpeech'
p4751
S'VBP'
p4752
sS'CharacterOffsetBegin'
p4753
S'1090'
p4754
stp4755
a(S'won'
p4756
(dp4757
S'NamedEntityTag'
p4758
g83
sS'CharacterOffsetEnd'
p4759
S'1098'
p4760
sS'Lemma'
p4761
S'win'
p4762
sS'PartOfSpeech'
p4763
S'VBN'
p4764
sS'CharacterOffsetBegin'
p4765
S'1095'
p4766
stp4767
a(S'the'
p4768
(dp4769
S'NamedEntityTag'
p4770
g83
sS'CharacterOffsetEnd'
p4771
S'1102'
p4772
sS'Lemma'
p4773
S'the'
p4774
sS'PartOfSpeech'
p4775
S'DT'
p4776
sS'CharacterOffsetBegin'
p4777
S'1099'
p4778
stp4779
a(S'prize'
p4780
(dp4781
S'NamedEntityTag'
p4782
g83
sS'CharacterOffsetEnd'
p4783
S'1108'
p4784
sS'Lemma'
p4785
S'prize'
p4786
sS'PartOfSpeech'
p4787
S'NN'
p4788
sS'CharacterOffsetBegin'
p4789
S'1103'
p4790
stp4791
a(g676
(dp4792
S'NamedEntityTag'
p4793
g83
sS'CharacterOffsetEnd'
p4794
S'1109'
p4795
sS'Lemma'
p4796
g676
sS'PartOfSpeech'
p4797
g676
sS'CharacterOffsetBegin'
p4798
S'1108'
p4799
stp4800
asa(dp4801
g7
S'(ROOT (S (S (NP (DT The) (NNP Vatican)) (VP (VBZ is) (ADJP (RB easily) (JJ upset) (, ,) (SBAR (S (VP (VBD said) (NP (NNP Saramago)))))))) (, ,) (NP (PRP I)) (VP (VBP think) (SBAR (IN that) (S (NP (DT the) (NNP Vatican)) (VP (MD should) (VP (VP (VB keep) (NP (PRP$ its) (NN mind)) (PP (IN on) (NP (PRP$ its) (NNS prayers)))) (CC and) (VP (VB leave) (NP (NNS people)) (ADVP (RB alone)))))))) (. .)))'
p4802
sg9
S'The Vatican is easily upset, said Saramago, I think that the Vatican should keep its mind on its prayers and leave people alone.'
p4803
sg11
(lp4804
(S'root'
p4805
S'ROOT'
p4806
S'think'
p4807
tp4808
a(S'det'
p4809
S'Vatican'
p4810
S'The'
p4811
tp4812
a(S'nsubj'
p4813
S'upset'
p4814
S'Vatican'
p4815
tp4816
a(S'cop'
p4817
S'upset'
p4818
S'is'
p4819
tp4820
a(S'advmod'
p4821
S'upset'
p4822
S'easily'
p4823
tp4824
a(S'ccomp'
p4825
S'think'
p4826
S'upset'
p4827
tp4828
a(S'ccomp'
p4829
S'upset'
p4830
S'said'
p4831
tp4832
a(S'dobj'
p4833
S'said'
p4834
S'Saramago'
p4835
tp4836
a(S'nsubj'
p4837
S'think'
p4838
g960
tp4839
a(S'mark'
p4840
S'keep'
p4841
S'that'
p4842
tp4843
a(S'det'
p4844
S'Vatican'
p4845
S'the'
p4846
tp4847
a(S'nsubj'
p4848
S'keep'
p4849
S'Vatican'
p4850
tp4851
a(S'aux'
p4852
S'keep'
p4853
S'should'
p4854
tp4855
a(S'ccomp'
p4856
S'think'
p4857
S'keep'
p4858
tp4859
a(S'poss'
p4860
S'mind'
p4861
S'its'
p4862
tp4863
a(S'dobj'
p4864
S'keep'
p4865
S'mind'
p4866
tp4867
a(S'poss'
p4868
S'prayers'
p4869
S'its'
p4870
tp4871
a(S'prep_on'
p4872
S'keep'
p4873
S'prayers'
p4874
tp4875
a(S'conj_and'
p4876
S'keep'
p4877
S'leave'
p4878
tp4879
a(S'dobj'
p4880
S'leave'
p4881
S'people'
p4882
tp4883
a(S'advmod'
p4884
S'leave'
p4885
S'alone'
p4886
tp4887
asg49
(lp4888
(g4805
S'ROOT-0'
p4889
S'think-11'
p4890
tp4891
a(g4809
S'Vatican-2'
p4892
S'The-1'
p4893
tp4894
a(g4813
S'upset-5'
p4895
S'Vatican-2'
p4896
tp4897
a(g4817
S'upset-5'
p4898
S'is-3'
p4899
tp4900
a(g4821
S'upset-5'
p4901
S'easily-4'
p4902
tp4903
a(g4825
S'think-11'
p4904
S'upset-5'
p4905
tp4906
a(g4829
S'upset-5'
p4907
S'said-7'
p4908
tp4909
a(g4833
S'said-7'
p4910
S'Saramago-8'
p4911
tp4912
a(g4837
S'think-11'
p4913
S'I-10'
p4914
tp4915
a(g4840
S'keep-16'
p4916
S'that-12'
p4917
tp4918
a(g4844
S'Vatican-14'
p4919
S'the-13'
p4920
tp4921
a(g4848
S'keep-16'
p4922
S'Vatican-14'
p4923
tp4924
a(g4852
S'keep-16'
p4925
S'should-15'
p4926
tp4927
a(g4856
S'think-11'
p4928
S'keep-16'
p4929
tp4930
a(g4860
S'mind-18'
p4931
S'its-17'
p4932
tp4933
a(g4864
S'keep-16'
p4934
S'mind-18'
p4935
tp4936
a(g4868
S'prayers-21'
p4937
S'its-20'
p4938
tp4939
a(g4872
S'keep-16'
p4940
S'prayers-21'
p4941
tp4942
a(g4876
S'keep-16'
p4943
S'leave-23'
p4944
tp4945
a(g4880
S'leave-23'
p4946
S'people-24'
p4947
tp4948
a(g4884
S'leave-23'
p4949
S'alone-25'
p4950
tp4951
asg78
(lp4952
(S'The'
p4953
(dp4954
S'NamedEntityTag'
p4955
g83
sS'CharacterOffsetEnd'
p4956
S'1113'
p4957
sS'Lemma'
p4958
S'the'
p4959
sS'PartOfSpeech'
p4960
S'DT'
p4961
sS'CharacterOffsetBegin'
p4962
S'1110'
p4963
stp4964
a(S'Vatican'
p4965
(dp4966
S'NamedEntityTag'
p4967
S'LOCATION'
p4968
sS'CharacterOffsetEnd'
p4969
S'1121'
p4970
sS'Lemma'
p4971
S'Vatican'
p4972
sS'PartOfSpeech'
p4973
S'NNP'
p4974
sS'CharacterOffsetBegin'
p4975
S'1114'
p4976
stp4977
a(S'is'
p4978
(dp4979
S'NamedEntityTag'
p4980
g83
sS'CharacterOffsetEnd'
p4981
S'1124'
p4982
sS'Lemma'
p4983
S'be'
p4984
sS'PartOfSpeech'
p4985
S'VBZ'
p4986
sS'CharacterOffsetBegin'
p4987
S'1122'
p4988
stp4989
a(S'easily'
p4990
(dp4991
S'NamedEntityTag'
p4992
g83
sS'CharacterOffsetEnd'
p4993
S'1131'
p4994
sS'Lemma'
p4995
S'easily'
p4996
sS'PartOfSpeech'
p4997
S'RB'
p4998
sS'CharacterOffsetBegin'
p4999
S'1125'
p5000
stp5001
a(S'upset'
p5002
(dp5003
S'NamedEntityTag'
p5004
g83
sS'CharacterOffsetEnd'
p5005
S'1137'
p5006
sS'Lemma'
p5007
S'upset'
p5008
sS'PartOfSpeech'
p5009
S'JJ'
p5010
sS'CharacterOffsetBegin'
p5011
S'1132'
p5012
stp5013
a(g1392
(dp5014
S'NamedEntityTag'
p5015
g83
sS'CharacterOffsetEnd'
p5016
S'1138'
p5017
sS'Lemma'
p5018
g1392
sS'PartOfSpeech'
p5019
g1392
sS'CharacterOffsetBegin'
p5020
S'1137'
p5021
stp5022
a(S'said'
p5023
(dp5024
S'NamedEntityTag'
p5025
g83
sS'CharacterOffsetEnd'
p5026
S'1143'
p5027
sS'Lemma'
p5028
S'say'
p5029
sS'PartOfSpeech'
p5030
S'VBD'
p5031
sS'CharacterOffsetBegin'
p5032
S'1139'
p5033
stp5034
a(S'Saramago'
p5035
(dp5036
S'NamedEntityTag'
p5037
S'PERSON'
p5038
sS'CharacterOffsetEnd'
p5039
S'1152'
p5040
sS'Lemma'
p5041
S'Saramago'
p5042
sS'PartOfSpeech'
p5043
S'NNP'
p5044
sS'CharacterOffsetBegin'
p5045
S'1144'
p5046
stp5047
a(g1392
(dp5048
S'NamedEntityTag'
p5049
g83
sS'CharacterOffsetEnd'
p5050
S'1153'
p5051
sS'Lemma'
p5052
g1392
sS'PartOfSpeech'
p5053
g1392
sS'CharacterOffsetBegin'
p5054
S'1152'
p5055
stp5056
a(g960
(dp5057
S'NamedEntityTag'
p5058
g83
sS'CharacterOffsetEnd'
p5059
S'1155'
p5060
sS'Lemma'
p5061
g960
sS'PartOfSpeech'
p5062
S'PRP'
p5063
sS'CharacterOffsetBegin'
p5064
S'1154'
p5065
stp5066
a(S'think'
p5067
(dp5068
S'NamedEntityTag'
p5069
g83
sS'CharacterOffsetEnd'
p5070
S'1161'
p5071
sS'Lemma'
p5072
S'think'
p5073
sS'PartOfSpeech'
p5074
S'VBP'
p5075
sS'CharacterOffsetBegin'
p5076
S'1156'
p5077
stp5078
a(S'that'
p5079
(dp5080
S'NamedEntityTag'
p5081
g83
sS'CharacterOffsetEnd'
p5082
S'1166'
p5083
sS'Lemma'
p5084
S'that'
p5085
sS'PartOfSpeech'
p5086
S'IN'
p5087
sS'CharacterOffsetBegin'
p5088
S'1162'
p5089
stp5090
a(S'the'
p5091
(dp5092
S'NamedEntityTag'
p5093
g83
sS'CharacterOffsetEnd'
p5094
S'1170'
p5095
sS'Lemma'
p5096
S'the'
p5097
sS'PartOfSpeech'
p5098
S'DT'
p5099
sS'CharacterOffsetBegin'
p5100
S'1167'
p5101
stp5102
a(S'Vatican'
p5103
(dp5104
S'NamedEntityTag'
p5105
S'LOCATION'
p5106
sS'CharacterOffsetEnd'
p5107
S'1178'
p5108
sS'Lemma'
p5109
S'Vatican'
p5110
sS'PartOfSpeech'
p5111
S'NNP'
p5112
sS'CharacterOffsetBegin'
p5113
S'1171'
p5114
stp5115
a(S'should'
p5116
(dp5117
S'NamedEntityTag'
p5118
g83
sS'CharacterOffsetEnd'
p5119
S'1185'
p5120
sS'Lemma'
p5121
S'should'
p5122
sS'PartOfSpeech'
p5123
S'MD'
p5124
sS'CharacterOffsetBegin'
p5125
S'1179'
p5126
stp5127
a(S'keep'
p5128
(dp5129
S'NamedEntityTag'
p5130
g83
sS'CharacterOffsetEnd'
p5131
S'1190'
p5132
sS'Lemma'
p5133
S'keep'
p5134
sS'PartOfSpeech'
p5135
S'VB'
p5136
sS'CharacterOffsetBegin'
p5137
S'1186'
p5138
stp5139
a(S'its'
p5140
(dp5141
S'NamedEntityTag'
p5142
g83
sS'CharacterOffsetEnd'
p5143
S'1194'
p5144
sS'Lemma'
p5145
S'its'
p5146
sS'PartOfSpeech'
p5147
S'PRP$'
p5148
sS'CharacterOffsetBegin'
p5149
S'1191'
p5150
stp5151
a(S'mind'
p5152
(dp5153
S'NamedEntityTag'
p5154
g83
sS'CharacterOffsetEnd'
p5155
S'1199'
p5156
sS'Lemma'
p5157
S'mind'
p5158
sS'PartOfSpeech'
p5159
S'NN'
p5160
sS'CharacterOffsetBegin'
p5161
S'1195'
p5162
stp5163
a(S'on'
p5164
(dp5165
S'NamedEntityTag'
p5166
g83
sS'CharacterOffsetEnd'
p5167
S'1202'
p5168
sS'Lemma'
p5169
S'on'
p5170
sS'PartOfSpeech'
p5171
S'IN'
p5172
sS'CharacterOffsetBegin'
p5173
S'1200'
p5174
stp5175
a(S'its'
p5176
(dp5177
S'NamedEntityTag'
p5178
g83
sS'CharacterOffsetEnd'
p5179
S'1206'
p5180
sS'Lemma'
p5181
S'its'
p5182
sS'PartOfSpeech'
p5183
S'PRP$'
p5184
sS'CharacterOffsetBegin'
p5185
S'1203'
p5186
stp5187
a(S'prayers'
p5188
(dp5189
S'NamedEntityTag'
p5190
g83
sS'CharacterOffsetEnd'
p5191
S'1214'
p5192
sS'Lemma'
p5193
S'prayer'
p5194
sS'PartOfSpeech'
p5195
S'NNS'
p5196
sS'CharacterOffsetBegin'
p5197
S'1207'
p5198
stp5199
a(S'and'
p5200
(dp5201
S'NamedEntityTag'
p5202
g83
sS'CharacterOffsetEnd'
p5203
S'1218'
p5204
sS'Lemma'
p5205
S'and'
p5206
sS'PartOfSpeech'
p5207
S'CC'
p5208
sS'CharacterOffsetBegin'
p5209
S'1215'
p5210
stp5211
a(S'leave'
p5212
(dp5213
S'NamedEntityTag'
p5214
g83
sS'CharacterOffsetEnd'
p5215
S'1224'
p5216
sS'Lemma'
p5217
S'leave'
p5218
sS'PartOfSpeech'
p5219
S'VB'
p5220
sS'CharacterOffsetBegin'
p5221
S'1219'
p5222
stp5223
a(S'people'
p5224
(dp5225
S'NamedEntityTag'
p5226
g83
sS'CharacterOffsetEnd'
p5227
S'1231'
p5228
sS'Lemma'
p5229
S'people'
p5230
sS'PartOfSpeech'
p5231
S'NNS'
p5232
sS'CharacterOffsetBegin'
p5233
S'1225'
p5234
stp5235
a(S'alone'
p5236
(dp5237
S'NamedEntityTag'
p5238
g83
sS'CharacterOffsetEnd'
p5239
S'1237'
p5240
sS'Lemma'
p5241
S'alone'
p5242
sS'PartOfSpeech'
p5243
S'RB'
p5244
sS'CharacterOffsetBegin'
p5245
S'1232'
p5246
stp5247
a(g676
(dp5248
S'NamedEntityTag'
p5249
g83
sS'CharacterOffsetEnd'
p5250
S'1238'
p5251
sS'Lemma'
p5252
g676
sS'PartOfSpeech'
p5253
g676
sS'CharacterOffsetBegin'
p5254
S'1237'
p5255
stp5256
asa(dp5257
g7
S'(ROOT (S (PP (ADVP (RB Meanwhile)) (IN in) (NP (NNP Portugal))) (, ,) (SBAR (WHADVP (WRB where)) (S (NP (NNP Saramago)) (VP (VBZ is) (VP (VBN scheduled) (S (VP (TO to) (VP (VB arrive) (PP (IN on) (NP (NNP Tuesday)))))))))) (, ,) (NP (NP (DT the) (NN delight)) (PP (IN at) (NP (NP (DT the) (NNP Swedish) (NNP Academys) (NN award)) (PP (IN for) (NP (NNP Saramago)))))) (VP (VBD was) (VP (VBN reflected) (PP (IN in) (NP (DT the) (JJ daily) (NNS papers))) (, ,) (PP (IN with) (PRN (RB even) (NP (NP (DT the) (NNS countrys)) (NP (NP (CD three) (JJ daily) (NNS sports)) (NP (NNS papers))))) (NP (NP (JJ ample) (NN space)) (PP (TO to) (NP (DT the) (NN event))))))) (. .)))'
p5258
sg9
S'Meanwhile in Portugal, where Saramago is scheduled to arrive on Tuesday, the delight at the Swedish Academys award for Saramago was reflected in the daily papers, with even the countrys three daily sports papers ample space to the event.'
p5259
sg11
(lp5260
(S'root'
p5261
S'ROOT'
p5262
S'reflected'
p5263
tp5264
a(S'advmod'
p5265
S'reflected'
p5266
S'Meanwhile'
p5267
tp5268
a(S'prep_in'
p5269
S'reflected'
p5270
S'Portugal'
p5271
tp5272
a(S'advmod'
p5273
S'scheduled'
p5274
S'where'
p5275
tp5276
a(S'nsubjpass'
p5277
S'scheduled'
p5278
S'Saramago'
p5279
tp5280
a(S'auxpass'
p5281
S'scheduled'
p5282
S'is'
p5283
tp5284
a(S'advcl'
p5285
S'reflected'
p5286
S'scheduled'
p5287
tp5288
a(S'aux'
p5289
S'arrive'
p5290
S'to'
p5291
tp5292
a(S'xcomp'
p5293
S'scheduled'
p5294
S'arrive'
p5295
tp5296
a(S'prep_on'
p5297
S'arrive'
p5298
S'Tuesday'
p5299
tp5300
a(S'det'
p5301
S'delight'
p5302
S'the'
p5303
tp5304
a(S'nsubjpass'
p5305
S'reflected'
p5306
S'delight'
p5307
tp5308
a(S'det'
p5309
S'award'
p5310
S'the'
p5311
tp5312
a(S'nn'
p5313
S'award'
p5314
S'Swedish'
p5315
tp5316
a(S'nn'
p5317
S'award'
p5318
S'Academys'
p5319
tp5320
a(S'prep_at'
p5321
S'delight'
p5322
S'award'
p5323
tp5324
a(S'prep_for'
p5325
S'award'
p5326
S'Saramago'
p5327
tp5328
a(S'auxpass'
p5329
S'reflected'
p5330
S'was'
p5331
tp5332
a(S'det'
p5333
S'papers'
p5334
S'the'
p5335
tp5336
a(S'amod'
p5337
S'papers'
p5338
S'daily'
p5339
tp5340
a(S'prep_in'
p5341
S'reflected'
p5342
S'papers'
p5343
tp5344
a(S'dep'
p5345
S'countrys'
p5346
S'even'
p5347
tp5348
a(S'det'
p5349
S'countrys'
p5350
S'the'
p5351
tp5352
a(S'dep'
p5353
S'reflected'
p5354
S'countrys'
p5355
tp5356
a(S'num'
p5357
S'sports'
p5358
S'three'
p5359
tp5360
a(S'amod'
p5361
S'sports'
p5362
S'daily'
p5363
tp5364
a(S'dep'
p5365
S'countrys'
p5366
S'sports'
p5367
tp5368
a(S'dep'
p5369
S'sports'
p5370
S'papers'
p5371
tp5372
a(S'amod'
p5373
S'space'
p5374
S'ample'
p5375
tp5376
a(S'prep_with'
p5377
S'reflected'
p5378
S'space'
p5379
tp5380
a(S'det'
p5381
S'event'
p5382
S'the'
p5383
tp5384
a(S'prep_to'
p5385
S'space'
p5386
S'event'
p5387
tp5388
asg49
(lp5389
(g5261
S'ROOT-0'
p5390
S'reflected-24'
p5391
tp5392
a(g5265
S'reflected-24'
p5393
S'Meanwhile-1'
p5394
tp5395
a(g5269
S'reflected-24'
p5396
S'Portugal-3'
p5397
tp5398
a(g5273
S'scheduled-8'
p5399
S'where-5'
p5400
tp5401
a(g5277
S'scheduled-8'
p5402
S'Saramago-6'
p5403
tp5404
a(g5281
S'scheduled-8'
p5405
S'is-7'
p5406
tp5407
a(g5285
S'reflected-24'
p5408
S'scheduled-8'
p5409
tp5410
a(g5289
S'arrive-10'
p5411
S'to-9'
p5412
tp5413
a(g5293
S'scheduled-8'
p5414
S'arrive-10'
p5415
tp5416
a(g5297
S'arrive-10'
p5417
S'Tuesday-12'
p5418
tp5419
a(g5301
S'delight-15'
p5420
S'the-14'
p5421
tp5422
a(g5305
S'reflected-24'
p5423
S'delight-15'
p5424
tp5425
a(g5309
S'award-20'
p5426
S'the-17'
p5427
tp5428
a(g5313
S'award-20'
p5429
S'Swedish-18'
p5430
tp5431
a(g5317
S'award-20'
p5432
S'Academys-19'
p5433
tp5434
a(g5321
S'delight-15'
p5435
S'award-20'
p5436
tp5437
a(g5325
S'award-20'
p5438
S'Saramago-22'
p5439
tp5440
a(g5329
S'reflected-24'
p5441
S'was-23'
p5442
tp5443
a(g5333
S'papers-28'
p5444
S'the-26'
p5445
tp5446
a(g5337
S'papers-28'
p5447
S'daily-27'
p5448
tp5449
a(g5341
S'reflected-24'
p5450
S'papers-28'
p5451
tp5452
a(g5345
S'countrys-33'
p5453
S'even-31'
p5454
tp5455
a(g5349
S'countrys-33'
p5456
S'the-32'
p5457
tp5458
a(g5353
S'reflected-24'
p5459
S'countrys-33'
p5460
tp5461
a(g5357
S'sports-36'
p5462
S'three-34'
p5463
tp5464
a(g5361
S'sports-36'
p5465
S'daily-35'
p5466
tp5467
a(g5365
S'countrys-33'
p5468
S'sports-36'
p5469
tp5470
a(g5369
S'sports-36'
p5471
S'papers-37'
p5472
tp5473
a(g5373
S'space-39'
p5474
S'ample-38'
p5475
tp5476
a(g5377
S'reflected-24'
p5477
S'space-39'
p5478
tp5479
a(g5381
S'event-42'
p5480
S'the-41'
p5481
tp5482
a(g5385
S'space-39'
p5483
S'event-42'
p5484
tp5485
asg78
(lp5486
(S'Meanwhile'
p5487
(dp5488
S'NamedEntityTag'
p5489
g83
sS'CharacterOffsetEnd'
p5490
S'1248'
p5491
sS'Lemma'
p5492
S'meanwhile'
p5493
sS'PartOfSpeech'
p5494
S'RB'
p5495
sS'CharacterOffsetBegin'
p5496
S'1239'
p5497
stp5498
a(S'in'
p5499
(dp5500
S'NamedEntityTag'
p5501
g83
sS'CharacterOffsetEnd'
p5502
S'1251'
p5503
sS'Lemma'
p5504
S'in'
p5505
sS'PartOfSpeech'
p5506
S'IN'
p5507
sS'CharacterOffsetBegin'
p5508
S'1249'
p5509
stp5510
a(S'Portugal'
p5511
(dp5512
S'NamedEntityTag'
p5513
S'LOCATION'
p5514
sS'CharacterOffsetEnd'
p5515
S'1260'
p5516
sS'Lemma'
p5517
S'Portugal'
p5518
sS'PartOfSpeech'
p5519
S'NNP'
p5520
sS'CharacterOffsetBegin'
p5521
S'1252'
p5522
stp5523
a(g1392
(dp5524
S'NamedEntityTag'
p5525
g83
sS'CharacterOffsetEnd'
p5526
S'1261'
p5527
sS'Lemma'
p5528
g1392
sS'PartOfSpeech'
p5529
g1392
sS'CharacterOffsetBegin'
p5530
S'1260'
p5531
stp5532
a(S'where'
p5533
(dp5534
S'NamedEntityTag'
p5535
g83
sS'CharacterOffsetEnd'
p5536
S'1267'
p5537
sS'Lemma'
p5538
S'where'
p5539
sS'PartOfSpeech'
p5540
S'WRB'
p5541
sS'CharacterOffsetBegin'
p5542
S'1262'
p5543
stp5544
a(S'Saramago'
p5545
(dp5546
S'NamedEntityTag'
p5547
S'PERSON'
p5548
sS'CharacterOffsetEnd'
p5549
S'1276'
p5550
sS'Lemma'
p5551
S'Saramago'
p5552
sS'PartOfSpeech'
p5553
S'NNP'
p5554
sS'CharacterOffsetBegin'
p5555
S'1268'
p5556
stp5557
a(S'is'
p5558
(dp5559
S'NamedEntityTag'
p5560
g83
sS'CharacterOffsetEnd'
p5561
S'1279'
p5562
sS'Lemma'
p5563
S'be'
p5564
sS'PartOfSpeech'
p5565
S'VBZ'
p5566
sS'CharacterOffsetBegin'
p5567
S'1277'
p5568
stp5569
a(S'scheduled'
p5570
(dp5571
S'NamedEntityTag'
p5572
g83
sS'CharacterOffsetEnd'
p5573
S'1289'
p5574
sS'Lemma'
p5575
S'schedule'
p5576
sS'PartOfSpeech'
p5577
S'VBN'
p5578
sS'CharacterOffsetBegin'
p5579
S'1280'
p5580
stp5581
a(S'to'
p5582
(dp5583
S'NamedEntityTag'
p5584
g83
sS'CharacterOffsetEnd'
p5585
S'1292'
p5586
sS'Lemma'
p5587
S'to'
p5588
sS'PartOfSpeech'
p5589
S'TO'
p5590
sS'CharacterOffsetBegin'
p5591
S'1290'
p5592
stp5593
a(S'arrive'
p5594
(dp5595
S'NamedEntityTag'
p5596
g83
sS'CharacterOffsetEnd'
p5597
S'1299'
p5598
sS'Lemma'
p5599
S'arrive'
p5600
sS'PartOfSpeech'
p5601
S'VB'
p5602
sS'CharacterOffsetBegin'
p5603
S'1293'
p5604
stp5605
a(S'on'
p5606
(dp5607
S'NamedEntityTag'
p5608
g83
sS'CharacterOffsetEnd'
p5609
S'1302'
p5610
sS'Lemma'
p5611
S'on'
p5612
sS'PartOfSpeech'
p5613
S'IN'
p5614
sS'CharacterOffsetBegin'
p5615
S'1300'
p5616
stp5617
a(S'Tuesday'
p5618
(dp5619
S'NormalizedNamedEntityTag'
p5620
S'XXXX-WXX-2'
p5621
sS'Timex'
p5622
S'<TIMEX3 tid="t4" type="DATE" value="XXXX-WXX-2">Tuesday</TIMEX3>'
p5623
sS'Lemma'
p5624
S'Tuesday'
p5625
sS'CharacterOffsetEnd'
p5626
S'1310'
p5627
sS'PartOfSpeech'
p5628
S'NNP'
p5629
sS'CharacterOffsetBegin'
p5630
S'1303'
p5631
sS'NamedEntityTag'
p5632
S'DATE'
p5633
stp5634
a(g1392
(dp5635
S'NamedEntityTag'
p5636
g83
sS'CharacterOffsetEnd'
p5637
S'1311'
p5638
sS'Lemma'
p5639
g1392
sS'PartOfSpeech'
p5640
g1392
sS'CharacterOffsetBegin'
p5641
S'1310'
p5642
stp5643
a(S'the'
p5644
(dp5645
S'NamedEntityTag'
p5646
g83
sS'CharacterOffsetEnd'
p5647
S'1315'
p5648
sS'Lemma'
p5649
S'the'
p5650
sS'PartOfSpeech'
p5651
S'DT'
p5652
sS'CharacterOffsetBegin'
p5653
S'1312'
p5654
stp5655
a(S'delight'
p5656
(dp5657
S'NamedEntityTag'
p5658
g83
sS'CharacterOffsetEnd'
p5659
S'1323'
p5660
sS'Lemma'
p5661
S'delight'
p5662
sS'PartOfSpeech'
p5663
S'NN'
p5664
sS'CharacterOffsetBegin'
p5665
S'1316'
p5666
stp5667
a(S'at'
p5668
(dp5669
S'NamedEntityTag'
p5670
g83
sS'CharacterOffsetEnd'
p5671
S'1326'
p5672
sS'Lemma'
p5673
S'at'
p5674
sS'PartOfSpeech'
p5675
S'IN'
p5676
sS'CharacterOffsetBegin'
p5677
S'1324'
p5678
stp5679
a(S'the'
p5680
(dp5681
S'NamedEntityTag'
p5682
g83
sS'CharacterOffsetEnd'
p5683
S'1330'
p5684
sS'Lemma'
p5685
S'the'
p5686
sS'PartOfSpeech'
p5687
S'DT'
p5688
sS'CharacterOffsetBegin'
p5689
S'1327'
p5690
stp5691
a(S'Swedish'
p5692
(dp5693
S'NamedEntityTag'
p5694
S'MISC'
p5695
sS'CharacterOffsetEnd'
p5696
S'1338'
p5697
sS'Lemma'
p5698
S'Swedish'
p5699
sS'PartOfSpeech'
p5700
S'NNP'
p5701
sS'CharacterOffsetBegin'
p5702
S'1331'
p5703
stp5704
a(S'Academys'
p5705
(dp5706
S'NamedEntityTag'
p5707
S'MISC'
p5708
sS'CharacterOffsetEnd'
p5709
S'1347'
p5710
sS'Lemma'
p5711
S'Academys'
p5712
sS'PartOfSpeech'
p5713
S'NNP'
p5714
sS'CharacterOffsetBegin'
p5715
S'1339'
p5716
stp5717
a(S'award'
p5718
(dp5719
S'NamedEntityTag'
p5720
g83
sS'CharacterOffsetEnd'
p5721
S'1353'
p5722
sS'Lemma'
p5723
S'award'
p5724
sS'PartOfSpeech'
p5725
S'NN'
p5726
sS'CharacterOffsetBegin'
p5727
S'1348'
p5728
stp5729
a(S'for'
p5730
(dp5731
S'NamedEntityTag'
p5732
g83
sS'CharacterOffsetEnd'
p5733
S'1357'
p5734
sS'Lemma'
p5735
S'for'
p5736
sS'PartOfSpeech'
p5737
S'IN'
p5738
sS'CharacterOffsetBegin'
p5739
S'1354'
p5740
stp5741
a(S'Saramago'
p5742
(dp5743
S'NamedEntityTag'
p5744
S'PERSON'
p5745
sS'CharacterOffsetEnd'
p5746
S'1366'
p5747
sS'Lemma'
p5748
S'Saramago'
p5749
sS'PartOfSpeech'
p5750
S'NNP'
p5751
sS'CharacterOffsetBegin'
p5752
S'1358'
p5753
stp5754
a(S'was'
p5755
(dp5756
S'NamedEntityTag'
p5757
g83
sS'CharacterOffsetEnd'
p5758
S'1370'
p5759
sS'Lemma'
p5760
S'be'
p5761
sS'PartOfSpeech'
p5762
S'VBD'
p5763
sS'CharacterOffsetBegin'
p5764
S'1367'
p5765
stp5766
a(S'reflected'
p5767
(dp5768
S'NamedEntityTag'
p5769
g83
sS'CharacterOffsetEnd'
p5770
S'1380'
p5771
sS'Lemma'
p5772
S'reflect'
p5773
sS'PartOfSpeech'
p5774
S'VBN'
p5775
sS'CharacterOffsetBegin'
p5776
S'1371'
p5777
stp5778
a(S'in'
p5779
(dp5780
S'NamedEntityTag'
p5781
g83
sS'CharacterOffsetEnd'
p5782
S'1383'
p5783
sS'Lemma'
p5784
S'in'
p5785
sS'PartOfSpeech'
p5786
S'IN'
p5787
sS'CharacterOffsetBegin'
p5788
S'1381'
p5789
stp5790
a(S'the'
p5791
(dp5792
S'NamedEntityTag'
p5793
g83
sS'CharacterOffsetEnd'
p5794
S'1387'
p5795
sS'Lemma'
p5796
S'the'
p5797
sS'PartOfSpeech'
p5798
S'DT'
p5799
sS'CharacterOffsetBegin'
p5800
S'1384'
p5801
stp5802
a(S'daily'
p5803
(dp5804
S'Timex'
p5805
S'<TIMEX3 freq="P1X" periodicity="P1D" quant="EVERY" tid="t5" type="SET" value="P1D">daily</TIMEX3>'
p5806
sS'Lemma'
p5807
S'daily'
p5808
sS'CharacterOffsetEnd'
p5809
S'1393'
p5810
sS'PartOfSpeech'
p5811
S'JJ'
p5812
sS'CharacterOffsetBegin'
p5813
S'1388'
p5814
sS'NamedEntityTag'
p5815
S'SET'
p5816
stp5817
a(S'papers'
p5818
(dp5819
S'NamedEntityTag'
p5820
g83
sS'CharacterOffsetEnd'
p5821
S'1400'
p5822
sS'Lemma'
p5823
S'papers'
p5824
sS'PartOfSpeech'
p5825
S'NNS'
p5826
sS'CharacterOffsetBegin'
p5827
S'1394'
p5828
stp5829
a(g1392
(dp5830
S'NamedEntityTag'
p5831
g83
sS'CharacterOffsetEnd'
p5832
S'1401'
p5833
sS'Lemma'
p5834
g1392
sS'PartOfSpeech'
p5835
g1392
sS'CharacterOffsetBegin'
p5836
S'1400'
p5837
stp5838
a(S'with'
p5839
(dp5840
S'NamedEntityTag'
p5841
g83
sS'CharacterOffsetEnd'
p5842
S'1406'
p5843
sS'Lemma'
p5844
S'with'
p5845
sS'PartOfSpeech'
p5846
S'IN'
p5847
sS'CharacterOffsetBegin'
p5848
S'1402'
p5849
stp5850
a(S'even'
p5851
(dp5852
S'NamedEntityTag'
p5853
g83
sS'CharacterOffsetEnd'
p5854
S'1411'
p5855
sS'Lemma'
p5856
S'even'
p5857
sS'PartOfSpeech'
p5858
S'RB'
p5859
sS'CharacterOffsetBegin'
p5860
S'1407'
p5861
stp5862
a(S'the'
p5863
(dp5864
S'NamedEntityTag'
p5865
g83
sS'CharacterOffsetEnd'
p5866
S'1415'
p5867
sS'Lemma'
p5868
S'the'
p5869
sS'PartOfSpeech'
p5870
S'DT'
p5871
sS'CharacterOffsetBegin'
p5872
S'1412'
p5873
stp5874
a(S'countrys'
p5875
(dp5876
S'NamedEntityTag'
p5877
g83
sS'CharacterOffsetEnd'
p5878
S'1424'
p5879
sS'Lemma'
p5880
S'country'
p5881
sS'PartOfSpeech'
p5882
S'NNS'
p5883
sS'CharacterOffsetBegin'
p5884
S'1416'
p5885
stp5886
a(S'three'
p5887
(dp5888
S'NormalizedNamedEntityTag'
p5889
S'3.0'
p5890
sS'Lemma'
p5891
S'three'
p5892
sS'CharacterOffsetEnd'
p5893
S'1430'
p5894
sS'PartOfSpeech'
p5895
S'CD'
p5896
sS'CharacterOffsetBegin'
p5897
S'1425'
p5898
sS'NamedEntityTag'
p5899
S'NUMBER'
p5900
stp5901
a(S'daily'
p5902
(dp5903
S'Timex'
p5904
S'<TIMEX3 freq="P1X" periodicity="P1D" quant="EVERY" tid="t6" type="SET" value="P1D">daily</TIMEX3>'
p5905
sS'Lemma'
p5906
S'daily'
p5907
sS'CharacterOffsetEnd'
p5908
S'1436'
p5909
sS'PartOfSpeech'
p5910
S'JJ'
p5911
sS'CharacterOffsetBegin'
p5912
S'1431'
p5913
sS'NamedEntityTag'
p5914
S'SET'
p5915
stp5916
a(S'sports'
p5917
(dp5918
S'NamedEntityTag'
p5919
g83
sS'CharacterOffsetEnd'
p5920
S'1443'
p5921
sS'Lemma'
p5922
S'sport'
p5923
sS'PartOfSpeech'
p5924
S'NNS'
p5925
sS'CharacterOffsetBegin'
p5926
S'1437'
p5927
stp5928
a(S'papers'
p5929
(dp5930
S'NamedEntityTag'
p5931
g83
sS'CharacterOffsetEnd'
p5932
S'1450'
p5933
sS'Lemma'
p5934
S'papers'
p5935
sS'PartOfSpeech'
p5936
S'NNS'
p5937
sS'CharacterOffsetBegin'
p5938
S'1444'
p5939
stp5940
a(S'ample'
p5941
(dp5942
S'NamedEntityTag'
p5943
g83
sS'CharacterOffsetEnd'
p5944
S'1456'
p5945
sS'Lemma'
p5946
S'ample'
p5947
sS'PartOfSpeech'
p5948
S'JJ'
p5949
sS'CharacterOffsetBegin'
p5950
S'1451'
p5951
stp5952
a(S'space'
p5953
(dp5954
S'NamedEntityTag'
p5955
g83
sS'CharacterOffsetEnd'
p5956
S'1462'
p5957
sS'Lemma'
p5958
S'space'
p5959
sS'PartOfSpeech'
p5960
S'NN'
p5961
sS'CharacterOffsetBegin'
p5962
S'1457'
p5963
stp5964
a(S'to'
p5965
(dp5966
S'NamedEntityTag'
p5967
g83
sS'CharacterOffsetEnd'
p5968
S'1465'
p5969
sS'Lemma'
p5970
S'to'
p5971
sS'PartOfSpeech'
p5972
S'TO'
p5973
sS'CharacterOffsetBegin'
p5974
S'1463'
p5975
stp5976
a(S'the'
p5977
(dp5978
S'NamedEntityTag'
p5979
g83
sS'CharacterOffsetEnd'
p5980
S'1469'
p5981
sS'Lemma'
p5982
S'the'
p5983
sS'PartOfSpeech'
p5984
S'DT'
p5985
sS'CharacterOffsetBegin'
p5986
S'1466'
p5987
stp5988
a(S'event'
p5989
(dp5990
S'NamedEntityTag'
p5991
g83
sS'CharacterOffsetEnd'
p5992
S'1475'
p5993
sS'Lemma'
p5994
S'event'
p5995
sS'PartOfSpeech'
p5996
S'NN'
p5997
sS'CharacterOffsetBegin'
p5998
S'1470'
p5999
stp6000
a(g676
(dp6001
S'NamedEntityTag'
p6002
g83
sS'CharacterOffsetEnd'
p6003
S'1476'
p6004
sS'Lemma'
p6005
g676
sS'PartOfSpeech'
p6006
g676
sS'CharacterOffsetBegin'
p6007
S'1475'
p6008
stp6009
asa(dp6010
g7
S'(ROOT (S (NP (NP (DT The) (CD two) (VBG leading) (NNS dailies)) (, ,) (NP (NP (NNP Publico) (CC and) (NNP Diario)) (IN de) (NNP Noticias)) (, ,)) (VP (VBD gave) (PRT (RP over)) (NP (PRP$ their) (JJ entire) (JJ front) (NNS pages)) (PP (TO to) (NP (NNP Saramago)))) (. .)))'
p6011
sg9
S'The two leading dailies, Publico and Diario de Noticias, gave over their entire front pages to Saramago.'
p6012
sg11
(lp6013
(S'root'
p6014
S'ROOT'
p6015
S'gave'
p6016
tp6017
a(S'det'
p6018
S'dailies'
p6019
S'The'
p6020
tp6021
a(S'num'
p6022
S'dailies'
p6023
S'two'
p6024
tp6025
a(S'amod'
p6026
S'dailies'
p6027
S'leading'
p6028
tp6029
a(S'nsubj'
p6030
S'gave'
p6031
S'dailies'
p6032
tp6033
a(S'nn'
p6034
S'Noticias'
p6035
S'Publico'
p6036
tp6037
a(S'conj_and'
p6038
S'Publico'
p6039
S'Diario'
p6040
tp6041
a(S'amod'
p6042
S'Noticias'
p6043
S'de'
p6044
tp6045
a(S'appos'
p6046
S'dailies'
p6047
S'Noticias'
p6048
tp6049
a(S'prt'
p6050
S'gave'
p6051
S'over'
p6052
tp6053
a(S'poss'
p6054
S'pages'
p6055
S'their'
p6056
tp6057
a(S'amod'
p6058
S'pages'
p6059
S'entire'
p6060
tp6061
a(S'amod'
p6062
S'pages'
p6063
S'front'
p6064
tp6065
a(S'dobj'
p6066
S'gave'
p6067
S'pages'
p6068
tp6069
a(S'prep_to'
p6070
S'gave'
p6071
S'Saramago'
p6072
tp6073
asg49
(lp6074
(g6014
S'ROOT-0'
p6075
S'gave-12'
p6076
tp6077
a(g6018
S'dailies-4'
p6078
S'The-1'
p6079
tp6080
a(g6022
S'dailies-4'
p6081
S'two-2'
p6082
tp6083
a(g6026
S'dailies-4'
p6084
S'leading-3'
p6085
tp6086
a(g6030
S'gave-12'
p6087
S'dailies-4'
p6088
tp6089
a(g6034
S'Noticias-10'
p6090
S'Publico-6'
p6091
tp6092
a(g6038
S'Publico-6'
p6093
S'Diario-8'
p6094
tp6095
a(g6042
S'Noticias-10'
p6096
S'de-9'
p6097
tp6098
a(g6046
S'dailies-4'
p6099
S'Noticias-10'
p6100
tp6101
a(g6050
S'gave-12'
p6102
S'over-13'
p6103
tp6104
a(g6054
S'pages-17'
p6105
S'their-14'
p6106
tp6107
a(g6058
S'pages-17'
p6108
S'entire-15'
p6109
tp6110
a(g6062
S'pages-17'
p6111
S'front-16'
p6112
tp6113
a(g6066
S'gave-12'
p6114
S'pages-17'
p6115
tp6116
a(g6070
S'gave-12'
p6117
S'Saramago-19'
p6118
tp6119
asg78
(lp6120
(S'The'
p6121
(dp6122
S'NamedEntityTag'
p6123
g83
sS'CharacterOffsetEnd'
p6124
S'1480'
p6125
sS'Lemma'
p6126
S'the'
p6127
sS'PartOfSpeech'
p6128
S'DT'
p6129
sS'CharacterOffsetBegin'
p6130
S'1477'
p6131
stp6132
a(S'two'
p6133
(dp6134
S'NormalizedNamedEntityTag'
p6135
S'2.0'
p6136
sS'Lemma'
p6137
S'two'
p6138
sS'CharacterOffsetEnd'
p6139
S'1484'
p6140
sS'PartOfSpeech'
p6141
S'CD'
p6142
sS'CharacterOffsetBegin'
p6143
S'1481'
p6144
sS'NamedEntityTag'
p6145
S'NUMBER'
p6146
stp6147
a(S'leading'
p6148
(dp6149
S'NamedEntityTag'
p6150
g83
sS'CharacterOffsetEnd'
p6151
S'1492'
p6152
sS'Lemma'
p6153
S'lead'
p6154
sS'PartOfSpeech'
p6155
S'VBG'
p6156
sS'CharacterOffsetBegin'
p6157
S'1485'
p6158
stp6159
a(S'dailies'
p6160
(dp6161
S'NamedEntityTag'
p6162
g83
sS'CharacterOffsetEnd'
p6163
S'1500'
p6164
sS'Lemma'
p6165
S'daily'
p6166
sS'PartOfSpeech'
p6167
S'NNS'
p6168
sS'CharacterOffsetBegin'
p6169
S'1493'
p6170
stp6171
a(g1392
(dp6172
S'NamedEntityTag'
p6173
g83
sS'CharacterOffsetEnd'
p6174
S'1501'
p6175
sS'Lemma'
p6176
g1392
sS'PartOfSpeech'
p6177
g1392
sS'CharacterOffsetBegin'
p6178
S'1500'
p6179
stp6180
a(S'Publico'
p6181
(dp6182
S'NamedEntityTag'
p6183
S'ORGANIZATION'
p6184
sS'CharacterOffsetEnd'
p6185
S'1509'
p6186
sS'Lemma'
p6187
S'Publico'
p6188
sS'PartOfSpeech'
p6189
S'NNP'
p6190
sS'CharacterOffsetBegin'
p6191
S'1502'
p6192
stp6193
a(S'and'
p6194
(dp6195
S'NamedEntityTag'
p6196
g83
sS'CharacterOffsetEnd'
p6197
S'1513'
p6198
sS'Lemma'
p6199
S'and'
p6200
sS'PartOfSpeech'
p6201
S'CC'
p6202
sS'CharacterOffsetBegin'
p6203
S'1510'
p6204
stp6205
a(S'Diario'
p6206
(dp6207
S'NamedEntityTag'
p6208
S'ORGANIZATION'
p6209
sS'CharacterOffsetEnd'
p6210
S'1520'
p6211
sS'Lemma'
p6212
S'Diario'
p6213
sS'PartOfSpeech'
p6214
S'NNP'
p6215
sS'CharacterOffsetBegin'
p6216
S'1514'
p6217
stp6218
a(S'de'
p6219
(dp6220
S'NamedEntityTag'
p6221
S'ORGANIZATION'
p6222
sS'CharacterOffsetEnd'
p6223
S'1523'
p6224
sS'Lemma'
p6225
S'de'
p6226
sS'PartOfSpeech'
p6227
S'IN'
p6228
sS'CharacterOffsetBegin'
p6229
S'1521'
p6230
stp6231
a(S'Noticias'
p6232
(dp6233
S'NamedEntityTag'
p6234
S'ORGANIZATION'
p6235
sS'CharacterOffsetEnd'
p6236
S'1532'
p6237
sS'Lemma'
p6238
S'Noticias'
p6239
sS'PartOfSpeech'
p6240
S'NNP'
p6241
sS'CharacterOffsetBegin'
p6242
S'1524'
p6243
stp6244
a(g1392
(dp6245
S'NamedEntityTag'
p6246
g83
sS'CharacterOffsetEnd'
p6247
S'1533'
p6248
sS'Lemma'
p6249
g1392
sS'PartOfSpeech'
p6250
g1392
sS'CharacterOffsetBegin'
p6251
S'1532'
p6252
stp6253
a(S'gave'
p6254
(dp6255
S'NamedEntityTag'
p6256
g83
sS'CharacterOffsetEnd'
p6257
S'1538'
p6258
sS'Lemma'
p6259
S'give'
p6260
sS'PartOfSpeech'
p6261
S'VBD'
p6262
sS'CharacterOffsetBegin'
p6263
S'1534'
p6264
stp6265
a(S'over'
p6266
(dp6267
S'NamedEntityTag'
p6268
g83
sS'CharacterOffsetEnd'
p6269
S'1543'
p6270
sS'Lemma'
p6271
S'over'
p6272
sS'PartOfSpeech'
p6273
S'RP'
p6274
sS'CharacterOffsetBegin'
p6275
S'1539'
p6276
stp6277
a(S'their'
p6278
(dp6279
S'NamedEntityTag'
p6280
g83
sS'CharacterOffsetEnd'
p6281
S'1549'
p6282
sS'Lemma'
p6283
S'they'
p6284
sS'PartOfSpeech'
p6285
S'PRP$'
p6286
sS'CharacterOffsetBegin'
p6287
S'1544'
p6288
stp6289
a(S'entire'
p6290
(dp6291
S'NamedEntityTag'
p6292
g83
sS'CharacterOffsetEnd'
p6293
S'1556'
p6294
sS'Lemma'
p6295
S'entire'
p6296
sS'PartOfSpeech'
p6297
S'JJ'
p6298
sS'CharacterOffsetBegin'
p6299
S'1550'
p6300
stp6301
a(S'front'
p6302
(dp6303
S'NamedEntityTag'
p6304
g83
sS'CharacterOffsetEnd'
p6305
S'1562'
p6306
sS'Lemma'
p6307
S'front'
p6308
sS'PartOfSpeech'
p6309
S'JJ'
p6310
sS'CharacterOffsetBegin'
p6311
S'1557'
p6312
stp6313
a(S'pages'
p6314
(dp6315
S'NamedEntityTag'
p6316
g83
sS'CharacterOffsetEnd'
p6317
S'1568'
p6318
sS'Lemma'
p6319
S'page'
p6320
sS'PartOfSpeech'
p6321
S'NNS'
p6322
sS'CharacterOffsetBegin'
p6323
S'1563'
p6324
stp6325
a(S'to'
p6326
(dp6327
S'NamedEntityTag'
p6328
g83
sS'CharacterOffsetEnd'
p6329
S'1571'
p6330
sS'Lemma'
p6331
S'to'
p6332
sS'PartOfSpeech'
p6333
S'TO'
p6334
sS'CharacterOffsetBegin'
p6335
S'1569'
p6336
stp6337
a(S'Saramago'
p6338
(dp6339
S'NamedEntityTag'
p6340
S'PERSON'
p6341
sS'CharacterOffsetEnd'
p6342
S'1580'
p6343
sS'Lemma'
p6344
S'Saramago'
p6345
sS'PartOfSpeech'
p6346
S'NNP'
p6347
sS'CharacterOffsetBegin'
p6348
S'1572'
p6349
stp6350
a(g676
(dp6351
S'NamedEntityTag'
p6352
g83
sS'CharacterOffsetEnd'
p6353
S'1581'
p6354
sS'Lemma'
p6355
g676
sS'PartOfSpeech'
p6356
g676
sS'CharacterOffsetBegin'
p6357
S'1580'
p6358
stp6359
asa(dp6360
g7
S'(ROOT (S (NP (NNP Lisbon) (NNP City) (NNP Hall)) (VP (VBD rushed) (PRT (RP out)) (NP (NP (NNS posters)) (VP (VBG saying) (NP (NP (NNP Congratulations) (NNP Jose) (NNP Saramago)) (SBAR (WHNP (WDT which)) (S (VP (VBD were) (VP (VBN hung) (PRT (RP up)) (PP (IN around) (NP (DT the) (NN capital))) (PP (IN during) (NP (DT the) (NN night))))))))))) (. .)))'
p6361
sg9
S'Lisbon City Hall rushed out posters saying Congratulations Jose Saramago which were hung up around the capital during the night.'
p6362
sg11
(lp6363
(S'root'
p6364
S'ROOT'
p6365
S'rushed'
p6366
tp6367
a(S'nn'
p6368
S'Hall'
p6369
S'Lisbon'
p6370
tp6371
a(S'nn'
p6372
S'Hall'
p6373
S'City'
p6374
tp6375
a(S'nsubj'
p6376
S'rushed'
p6377
S'Hall'
p6378
tp6379
a(S'prt'
p6380
S'rushed'
p6381
S'out'
p6382
tp6383
a(S'dobj'
p6384
S'rushed'
p6385
S'posters'
p6386
tp6387
a(S'partmod'
p6388
S'posters'
p6389
S'saying'
p6390
tp6391
a(S'nn'
p6392
S'Saramago'
p6393
S'Congratulations'
p6394
tp6395
a(S'nn'
p6396
S'Saramago'
p6397
S'Jose'
p6398
tp6399
a(S'dobj'
p6400
S'saying'
p6401
S'Saramago'
p6402
tp6403
a(S'nsubjpass'
p6404
S'hung'
p6405
S'which'
p6406
tp6407
a(S'auxpass'
p6408
S'hung'
p6409
S'were'
p6410
tp6411
a(S'rcmod'
p6412
S'Saramago'
p6413
S'hung'
p6414
tp6415
a(S'prt'
p6416
S'hung'
p6417
S'up'
p6418
tp6419
a(S'det'
p6420
S'capital'
p6421
S'the'
p6422
tp6423
a(S'prep_around'
p6424
S'hung'
p6425
S'capital'
p6426
tp6427
a(S'det'
p6428
S'night'
p6429
S'the'
p6430
tp6431
a(S'prep_during'
p6432
S'hung'
p6433
S'night'
p6434
tp6435
asg49
(lp6436
(g6364
S'ROOT-0'
p6437
S'rushed-4'
p6438
tp6439
a(g6368
S'Hall-3'
p6440
S'Lisbon-1'
p6441
tp6442
a(g6372
S'Hall-3'
p6443
S'City-2'
p6444
tp6445
a(g6376
S'rushed-4'
p6446
S'Hall-3'
p6447
tp6448
a(g6380
S'rushed-4'
p6449
S'out-5'
p6450
tp6451
a(g6384
S'rushed-4'
p6452
S'posters-6'
p6453
tp6454
a(g6388
S'posters-6'
p6455
S'saying-7'
p6456
tp6457
a(g6392
S'Saramago-10'
p6458
S'Congratulations-8'
p6459
tp6460
a(g6396
S'Saramago-10'
p6461
S'Jose-9'
p6462
tp6463
a(g6400
S'saying-7'
p6464
S'Saramago-10'
p6465
tp6466
a(g6404
S'hung-13'
p6467
S'which-11'
p6468
tp6469
a(g6408
S'hung-13'
p6470
S'were-12'
p6471
tp6472
a(g6412
S'Saramago-10'
p6473
S'hung-13'
p6474
tp6475
a(g6416
S'hung-13'
p6476
S'up-14'
p6477
tp6478
a(g6420
S'capital-17'
p6479
S'the-16'
p6480
tp6481
a(g6424
S'hung-13'
p6482
S'capital-17'
p6483
tp6484
a(g6428
S'night-20'
p6485
S'the-19'
p6486
tp6487
a(g6432
S'hung-13'
p6488
S'night-20'
p6489
tp6490
asg78
(lp6491
(S'Lisbon'
p6492
(dp6493
S'NamedEntityTag'
p6494
S'ORGANIZATION'
p6495
sS'CharacterOffsetEnd'
p6496
S'1588'
p6497
sS'Lemma'
p6498
S'Lisbon'
p6499
sS'PartOfSpeech'
p6500
S'NNP'
p6501
sS'CharacterOffsetBegin'
p6502
S'1582'
p6503
stp6504
a(S'City'
p6505
(dp6506
S'NamedEntityTag'
p6507
S'ORGANIZATION'
p6508
sS'CharacterOffsetEnd'
p6509
S'1593'
p6510
sS'Lemma'
p6511
S'City'
p6512
sS'PartOfSpeech'
p6513
S'NNP'
p6514
sS'CharacterOffsetBegin'
p6515
S'1589'
p6516
stp6517
a(S'Hall'
p6518
(dp6519
S'NamedEntityTag'
p6520
S'ORGANIZATION'
p6521
sS'CharacterOffsetEnd'
p6522
S'1598'
p6523
sS'Lemma'
p6524
S'Hall'
p6525
sS'PartOfSpeech'
p6526
S'NNP'
p6527
sS'CharacterOffsetBegin'
p6528
S'1594'
p6529
stp6530
a(S'rushed'
p6531
(dp6532
S'NamedEntityTag'
p6533
g83
sS'CharacterOffsetEnd'
p6534
S'1605'
p6535
sS'Lemma'
p6536
S'rush'
p6537
sS'PartOfSpeech'
p6538
S'VBD'
p6539
sS'CharacterOffsetBegin'
p6540
S'1599'
p6541
stp6542
a(S'out'
p6543
(dp6544
S'NamedEntityTag'
p6545
g83
sS'CharacterOffsetEnd'
p6546
S'1609'
p6547
sS'Lemma'
p6548
S'out'
p6549
sS'PartOfSpeech'
p6550
S'RP'
p6551
sS'CharacterOffsetBegin'
p6552
S'1606'
p6553
stp6554
a(S'posters'
p6555
(dp6556
S'NamedEntityTag'
p6557
g83
sS'CharacterOffsetEnd'
p6558
S'1617'
p6559
sS'Lemma'
p6560
S'poster'
p6561
sS'PartOfSpeech'
p6562
S'NNS'
p6563
sS'CharacterOffsetBegin'
p6564
S'1610'
p6565
stp6566
a(S'saying'
p6567
(dp6568
S'NamedEntityTag'
p6569
g83
sS'CharacterOffsetEnd'
p6570
S'1624'
p6571
sS'Lemma'
p6572
S'say'
p6573
sS'PartOfSpeech'
p6574
S'VBG'
p6575
sS'CharacterOffsetBegin'
p6576
S'1618'
p6577
stp6578
a(S'Congratulations'
p6579
(dp6580
S'NamedEntityTag'
p6581
g83
sS'CharacterOffsetEnd'
p6582
S'1640'
p6583
sS'Lemma'
p6584
S'Congratulations'
p6585
sS'PartOfSpeech'
p6586
S'NNP'
p6587
sS'CharacterOffsetBegin'
p6588
S'1625'
p6589
stp6590
a(S'Jose'
p6591
(dp6592
S'NamedEntityTag'
p6593
S'PERSON'
p6594
sS'CharacterOffsetEnd'
p6595
S'1645'
p6596
sS'Lemma'
p6597
S'Jose'
p6598
sS'PartOfSpeech'
p6599
S'NNP'
p6600
sS'CharacterOffsetBegin'
p6601
S'1641'
p6602
stp6603
a(S'Saramago'
p6604
(dp6605
S'NamedEntityTag'
p6606
S'PERSON'
p6607
sS'CharacterOffsetEnd'
p6608
S'1654'
p6609
sS'Lemma'
p6610
S'Saramago'
p6611
sS'PartOfSpeech'
p6612
S'NNP'
p6613
sS'CharacterOffsetBegin'
p6614
S'1646'
p6615
stp6616
a(S'which'
p6617
(dp6618
S'NamedEntityTag'
p6619
g83
sS'CharacterOffsetEnd'
p6620
S'1660'
p6621
sS'Lemma'
p6622
S'which'
p6623
sS'PartOfSpeech'
p6624
S'WDT'
p6625
sS'CharacterOffsetBegin'
p6626
S'1655'
p6627
stp6628
a(S'were'
p6629
(dp6630
S'NamedEntityTag'
p6631
g83
sS'CharacterOffsetEnd'
p6632
S'1665'
p6633
sS'Lemma'
p6634
S'be'
p6635
sS'PartOfSpeech'
p6636
S'VBD'
p6637
sS'CharacterOffsetBegin'
p6638
S'1661'
p6639
stp6640
a(S'hung'
p6641
(dp6642
S'NamedEntityTag'
p6643
g83
sS'CharacterOffsetEnd'
p6644
S'1670'
p6645
sS'Lemma'
p6646
S'hang'
p6647
sS'PartOfSpeech'
p6648
S'VBN'
p6649
sS'CharacterOffsetBegin'
p6650
S'1666'
p6651
stp6652
a(S'up'
p6653
(dp6654
S'NamedEntityTag'
p6655
g83
sS'CharacterOffsetEnd'
p6656
S'1673'
p6657
sS'Lemma'
p6658
S'up'
p6659
sS'PartOfSpeech'
p6660
S'RP'
p6661
sS'CharacterOffsetBegin'
p6662
S'1671'
p6663
stp6664
a(S'around'
p6665
(dp6666
S'NamedEntityTag'
p6667
g83
sS'CharacterOffsetEnd'
p6668
S'1680'
p6669
sS'Lemma'
p6670
S'around'
p6671
sS'PartOfSpeech'
p6672
S'IN'
p6673
sS'CharacterOffsetBegin'
p6674
S'1674'
p6675
stp6676
a(S'the'
p6677
(dp6678
S'NamedEntityTag'
p6679
g83
sS'CharacterOffsetEnd'
p6680
S'1684'
p6681
sS'Lemma'
p6682
S'the'
p6683
sS'PartOfSpeech'
p6684
S'DT'
p6685
sS'CharacterOffsetBegin'
p6686
S'1681'
p6687
stp6688
a(S'capital'
p6689
(dp6690
S'NamedEntityTag'
p6691
g83
sS'CharacterOffsetEnd'
p6692
S'1692'
p6693
sS'Lemma'
p6694
S'capital'
p6695
sS'PartOfSpeech'
p6696
S'NN'
p6697
sS'CharacterOffsetBegin'
p6698
S'1685'
p6699
stp6700
a(S'during'
p6701
(dp6702
S'NamedEntityTag'
p6703
g83
sS'CharacterOffsetEnd'
p6704
S'1699'
p6705
sS'Lemma'
p6706
S'during'
p6707
sS'PartOfSpeech'
p6708
S'IN'
p6709
sS'CharacterOffsetBegin'
p6710
S'1693'
p6711
stp6712
a(S'the'
p6713
(dp6714
S'NamedEntityTag'
p6715
g83
sS'CharacterOffsetEnd'
p6716
S'1703'
p6717
sS'Lemma'
p6718
S'the'
p6719
sS'PartOfSpeech'
p6720
S'DT'
p6721
sS'CharacterOffsetBegin'
p6722
S'1700'
p6723
stp6724
a(S'night'
p6725
(dp6726
S'NormalizedNamedEntityTag'
p6727
S'TNI'
p6728
sS'Timex'
p6729
S'<TIMEX3 tid="t7" type="TIME" value="TNI">night</TIMEX3>'
p6730
sS'Lemma'
p6731
S'night'
p6732
sS'CharacterOffsetEnd'
p6733
S'1709'
p6734
sS'PartOfSpeech'
p6735
S'NN'
p6736
sS'CharacterOffsetBegin'
p6737
S'1704'
p6738
sS'NamedEntityTag'
p6739
S'TIME'
p6740
stp6741
a(g676
(dp6742
S'NamedEntityTag'
p6743
g83
sS'CharacterOffsetEnd'
p6744
S'1710'
p6745
sS'Lemma'
p6746
g676
sS'PartOfSpeech'
p6747
g676
sS'CharacterOffsetBegin'
p6748
S'1709'
p6749
stp6750
asa(dp6751
g7
S'(ROOT (S (NP (NNP Saramago)) (VP (VBD was) (VP (VBN born) (PP (IN into) (NP (NP (DT a) (JJ poor) (, ,) (JJ illiterate) (NN family)) (PP (IN in) (NP (NP (NNP Azinhaga)) (, ,) (NP (NP (DT a) (JJ small) (NN town)) (PP (IN near) (NP (NNP Lisbon)))))))))) (. .)))'
p6752
sg9
S'Saramago was born into a poor, illiterate family in Azinhaga, a small town near Lisbon.'
p6753
sg11
(lp6754
(S'root'
p6755
S'ROOT'
p6756
S'born'
p6757
tp6758
a(S'nsubjpass'
p6759
S'born'
p6760
S'Saramago'
p6761
tp6762
a(S'auxpass'
p6763
S'born'
p6764
S'was'
p6765
tp6766
a(S'det'
p6767
S'family'
p6768
g1281
tp6769
a(S'amod'
p6770
S'family'
p6771
S'poor'
p6772
tp6773
a(S'amod'
p6774
S'family'
p6775
S'illiterate'
p6776
tp6777
a(S'prep_into'
p6778
S'born'
p6779
S'family'
p6780
tp6781
a(S'prep_in'
p6782
S'family'
p6783
S'Azinhaga'
p6784
tp6785
a(S'det'
p6786
S'town'
p6787
g1281
tp6788
a(S'amod'
p6789
S'town'
p6790
S'small'
p6791
tp6792
a(S'appos'
p6793
S'Azinhaga'
p6794
S'town'
p6795
tp6796
a(S'prep_near'
p6797
S'town'
p6798
S'Lisbon'
p6799
tp6800
asg49
(lp6801
(g6755
S'ROOT-0'
p6802
S'born-3'
p6803
tp6804
a(g6759
S'born-3'
p6805
S'Saramago-1'
p6806
tp6807
a(g6763
S'born-3'
p6808
S'was-2'
p6809
tp6810
a(g6767
S'family-9'
p6811
S'a-5'
p6812
tp6813
a(g6770
S'family-9'
p6814
S'poor-6'
p6815
tp6816
a(g6774
S'family-9'
p6817
S'illiterate-8'
p6818
tp6819
a(g6778
S'born-3'
p6820
S'family-9'
p6821
tp6822
a(g6782
S'family-9'
p6823
S'Azinhaga-11'
p6824
tp6825
a(g6786
S'town-15'
p6826
S'a-13'
p6827
tp6828
a(g6789
S'town-15'
p6829
S'small-14'
p6830
tp6831
a(g6793
S'Azinhaga-11'
p6832
S'town-15'
p6833
tp6834
a(g6797
S'town-15'
p6835
S'Lisbon-17'
p6836
tp6837
asg78
(lp6838
(S'Saramago'
p6839
(dp6840
S'NamedEntityTag'
p6841
S'PERSON'
p6842
sS'CharacterOffsetEnd'
p6843
S'1719'
p6844
sS'Lemma'
p6845
S'Saramago'
p6846
sS'PartOfSpeech'
p6847
S'NNP'
p6848
sS'CharacterOffsetBegin'
p6849
S'1711'
p6850
stp6851
a(S'was'
p6852
(dp6853
S'NamedEntityTag'
p6854
g83
sS'CharacterOffsetEnd'
p6855
S'1723'
p6856
sS'Lemma'
p6857
S'be'
p6858
sS'PartOfSpeech'
p6859
S'VBD'
p6860
sS'CharacterOffsetBegin'
p6861
S'1720'
p6862
stp6863
a(S'born'
p6864
(dp6865
S'NamedEntityTag'
p6866
g83
sS'CharacterOffsetEnd'
p6867
S'1728'
p6868
sS'Lemma'
p6869
S'bear'
p6870
sS'PartOfSpeech'
p6871
S'VBN'
p6872
sS'CharacterOffsetBegin'
p6873
S'1724'
p6874
stp6875
a(S'into'
p6876
(dp6877
S'NamedEntityTag'
p6878
g83
sS'CharacterOffsetEnd'
p6879
S'1733'
p6880
sS'Lemma'
p6881
S'into'
p6882
sS'PartOfSpeech'
p6883
S'IN'
p6884
sS'CharacterOffsetBegin'
p6885
S'1729'
p6886
stp6887
a(g1281
(dp6888
S'NamedEntityTag'
p6889
g83
sS'CharacterOffsetEnd'
p6890
S'1735'
p6891
sS'Lemma'
p6892
g1281
sS'PartOfSpeech'
p6893
S'DT'
p6894
sS'CharacterOffsetBegin'
p6895
S'1734'
p6896
stp6897
a(S'poor'
p6898
(dp6899
S'NamedEntityTag'
p6900
g83
sS'CharacterOffsetEnd'
p6901
S'1740'
p6902
sS'Lemma'
p6903
S'poor'
p6904
sS'PartOfSpeech'
p6905
S'JJ'
p6906
sS'CharacterOffsetBegin'
p6907
S'1736'
p6908
stp6909
a(g1392
(dp6910
S'NamedEntityTag'
p6911
g83
sS'CharacterOffsetEnd'
p6912
S'1741'
p6913
sS'Lemma'
p6914
g1392
sS'PartOfSpeech'
p6915
g1392
sS'CharacterOffsetBegin'
p6916
S'1740'
p6917
stp6918
a(S'illiterate'
p6919
(dp6920
S'NamedEntityTag'
p6921
g83
sS'CharacterOffsetEnd'
p6922
S'1752'
p6923
sS'Lemma'
p6924
S'illiterate'
p6925
sS'PartOfSpeech'
p6926
S'JJ'
p6927
sS'CharacterOffsetBegin'
p6928
S'1742'
p6929
stp6930
a(S'family'
p6931
(dp6932
S'NamedEntityTag'
p6933
g83
sS'CharacterOffsetEnd'
p6934
S'1759'
p6935
sS'Lemma'
p6936
S'family'
p6937
sS'PartOfSpeech'
p6938
S'NN'
p6939
sS'CharacterOffsetBegin'
p6940
S'1753'
p6941
stp6942
a(S'in'
p6943
(dp6944
S'NamedEntityTag'
p6945
g83
sS'CharacterOffsetEnd'
p6946
S'1762'
p6947
sS'Lemma'
p6948
S'in'
p6949
sS'PartOfSpeech'
p6950
S'IN'
p6951
sS'CharacterOffsetBegin'
p6952
S'1760'
p6953
stp6954
a(S'Azinhaga'
p6955
(dp6956
S'NamedEntityTag'
p6957
S'LOCATION'
p6958
sS'CharacterOffsetEnd'
p6959
S'1771'
p6960
sS'Lemma'
p6961
S'Azinhaga'
p6962
sS'PartOfSpeech'
p6963
S'NNP'
p6964
sS'CharacterOffsetBegin'
p6965
S'1763'
p6966
stp6967
a(g1392
(dp6968
S'NamedEntityTag'
p6969
g83
sS'CharacterOffsetEnd'
p6970
S'1772'
p6971
sS'Lemma'
p6972
g1392
sS'PartOfSpeech'
p6973
g1392
sS'CharacterOffsetBegin'
p6974
S'1771'
p6975
stp6976
a(g1281
(dp6977
S'NamedEntityTag'
p6978
g83
sS'CharacterOffsetEnd'
p6979
S'1774'
p6980
sS'Lemma'
p6981
g1281
sS'PartOfSpeech'
p6982
S'DT'
p6983
sS'CharacterOffsetBegin'
p6984
S'1773'
p6985
stp6986
a(S'small'
p6987
(dp6988
S'NamedEntityTag'
p6989
g83
sS'CharacterOffsetEnd'
p6990
S'1780'
p6991
sS'Lemma'
p6992
S'small'
p6993
sS'PartOfSpeech'
p6994
S'JJ'
p6995
sS'CharacterOffsetBegin'
p6996
S'1775'
p6997
stp6998
a(S'town'
p6999
(dp7000
S'NamedEntityTag'
p7001
g83
sS'CharacterOffsetEnd'
p7002
S'1785'
p7003
sS'Lemma'
p7004
S'town'
p7005
sS'PartOfSpeech'
p7006
S'NN'
p7007
sS'CharacterOffsetBegin'
p7008
S'1781'
p7009
stp7010
a(S'near'
p7011
(dp7012
S'NamedEntityTag'
p7013
g83
sS'CharacterOffsetEnd'
p7014
S'1790'
p7015
sS'Lemma'
p7016
S'near'
p7017
sS'PartOfSpeech'
p7018
S'IN'
p7019
sS'CharacterOffsetBegin'
p7020
S'1786'
p7021
stp7022
a(S'Lisbon'
p7023
(dp7024
S'NamedEntityTag'
p7025
S'LOCATION'
p7026
sS'CharacterOffsetEnd'
p7027
S'1797'
p7028
sS'Lemma'
p7029
S'Lisbon'
p7030
sS'PartOfSpeech'
p7031
S'NNP'
p7032
sS'CharacterOffsetBegin'
p7033
S'1791'
p7034
stp7035
a(g676
(dp7036
S'NamedEntityTag'
p7037
g83
sS'CharacterOffsetEnd'
p7038
S'1798'
p7039
sS'Lemma'
p7040
g676
sS'PartOfSpeech'
p7041
g676
sS'CharacterOffsetBegin'
p7042
S'1797'
p7043
stp7044
asa(dp7045
g7
S'(ROOT (S (NP (PRP He)) (ADVP (RB never)) (VP (VP (VBD finished) (NP (NN university))) (CC but) (VP (VBD continued) (S (VP (TO to) (VP (VB study) (ADVP (JJ part-time) (PP (IN while) (S (VP (VBG supporting) (NP (PRP himself)) (PP (IN as) (NP (DT a) (NN metalworker)))))))))))) (. .)))'
p7046
sg9
S'He never finished university but continued to study part-time while supporting himself as a metalworker.'
p7047
sg11
(lp7048
(S'root'
p7049
S'ROOT'
p7050
S'finished'
p7051
tp7052
a(S'nsubj'
p7053
S'finished'
p7054
S'He'
p7055
tp7056
a(S'neg'
p7057
S'finished'
p7058
S'never'
p7059
tp7060
a(S'dobj'
p7061
S'finished'
p7062
S'university'
p7063
tp7064
a(S'conj_but'
p7065
S'finished'
p7066
S'continued'
p7067
tp7068
a(S'aux'
p7069
S'study'
p7070
S'to'
p7071
tp7072
a(S'xcomp'
p7073
S'continued'
p7074
S'study'
p7075
tp7076
a(S'advmod'
p7077
S'study'
p7078
S'part-time'
p7079
tp7080
a(S'prepc_while'
p7081
S'part-time'
p7082
S'supporting'
p7083
tp7084
a(S'dobj'
p7085
S'supporting'
p7086
S'himself'
p7087
tp7088
a(S'det'
p7089
S'metalworker'
p7090
g1281
tp7091
a(S'prep_as'
p7092
S'supporting'
p7093
S'metalworker'
p7094
tp7095
asg49
(lp7096
(g7049
S'ROOT-0'
p7097
S'finished-3'
p7098
tp7099
a(g7053
S'finished-3'
p7100
S'He-1'
p7101
tp7102
a(g7057
S'finished-3'
p7103
S'never-2'
p7104
tp7105
a(g7061
S'finished-3'
p7106
S'university-4'
p7107
tp7108
a(g7065
S'finished-3'
p7109
S'continued-6'
p7110
tp7111
a(g7069
S'study-8'
p7112
S'to-7'
p7113
tp7114
a(g7073
S'continued-6'
p7115
S'study-8'
p7116
tp7117
a(g7077
S'study-8'
p7118
S'part-time-9'
p7119
tp7120
a(g7081
S'part-time-9'
p7121
S'supporting-11'
p7122
tp7123
a(g7085
S'supporting-11'
p7124
S'himself-12'
p7125
tp7126
a(g7089
S'metalworker-15'
p7127
S'a-14'
p7128
tp7129
a(g7092
S'supporting-11'
p7130
S'metalworker-15'
p7131
tp7132
asg78
(lp7133
(S'He'
p7134
(dp7135
S'NamedEntityTag'
p7136
g83
sS'CharacterOffsetEnd'
p7137
S'1801'
p7138
sS'Lemma'
p7139
S'he'
p7140
sS'PartOfSpeech'
p7141
S'PRP'
p7142
sS'CharacterOffsetBegin'
p7143
S'1799'
p7144
stp7145
a(S'never'
p7146
(dp7147
S'NamedEntityTag'
p7148
g83
sS'CharacterOffsetEnd'
p7149
S'1807'
p7150
sS'Lemma'
p7151
S'never'
p7152
sS'PartOfSpeech'
p7153
S'RB'
p7154
sS'CharacterOffsetBegin'
p7155
S'1802'
p7156
stp7157
a(S'finished'
p7158
(dp7159
S'NamedEntityTag'
p7160
g83
sS'CharacterOffsetEnd'
p7161
S'1816'
p7162
sS'Lemma'
p7163
S'finish'
p7164
sS'PartOfSpeech'
p7165
S'VBD'
p7166
sS'CharacterOffsetBegin'
p7167
S'1808'
p7168
stp7169
a(S'university'
p7170
(dp7171
S'NamedEntityTag'
p7172
g83
sS'CharacterOffsetEnd'
p7173
S'1827'
p7174
sS'Lemma'
p7175
S'university'
p7176
sS'PartOfSpeech'
p7177
S'NN'
p7178
sS'CharacterOffsetBegin'
p7179
S'1817'
p7180
stp7181
a(S'but'
p7182
(dp7183
S'NamedEntityTag'
p7184
g83
sS'CharacterOffsetEnd'
p7185
S'1831'
p7186
sS'Lemma'
p7187
S'but'
p7188
sS'PartOfSpeech'
p7189
S'CC'
p7190
sS'CharacterOffsetBegin'
p7191
S'1828'
p7192
stp7193
a(S'continued'
p7194
(dp7195
S'NamedEntityTag'
p7196
g83
sS'CharacterOffsetEnd'
p7197
S'1841'
p7198
sS'Lemma'
p7199
S'continue'
p7200
sS'PartOfSpeech'
p7201
S'VBD'
p7202
sS'CharacterOffsetBegin'
p7203
S'1832'
p7204
stp7205
a(S'to'
p7206
(dp7207
S'NamedEntityTag'
p7208
g83
sS'CharacterOffsetEnd'
p7209
S'1844'
p7210
sS'Lemma'
p7211
S'to'
p7212
sS'PartOfSpeech'
p7213
S'TO'
p7214
sS'CharacterOffsetBegin'
p7215
S'1842'
p7216
stp7217
a(S'study'
p7218
(dp7219
S'NamedEntityTag'
p7220
g83
sS'CharacterOffsetEnd'
p7221
S'1850'
p7222
sS'Lemma'
p7223
S'study'
p7224
sS'PartOfSpeech'
p7225
S'VB'
p7226
sS'CharacterOffsetBegin'
p7227
S'1845'
p7228
stp7229
a(S'part-time'
p7230
(dp7231
S'NamedEntityTag'
p7232
g83
sS'CharacterOffsetEnd'
p7233
S'1860'
p7234
sS'Lemma'
p7235
S'part-time'
p7236
sS'PartOfSpeech'
p7237
S'JJ'
p7238
sS'CharacterOffsetBegin'
p7239
S'1851'
p7240
stp7241
a(S'while'
p7242
(dp7243
S'NamedEntityTag'
p7244
g83
sS'CharacterOffsetEnd'
p7245
S'1866'
p7246
sS'Lemma'
p7247
S'while'
p7248
sS'PartOfSpeech'
p7249
S'IN'
p7250
sS'CharacterOffsetBegin'
p7251
S'1861'
p7252
stp7253
a(S'supporting'
p7254
(dp7255
S'NamedEntityTag'
p7256
g83
sS'CharacterOffsetEnd'
p7257
S'1877'
p7258
sS'Lemma'
p7259
S'support'
p7260
sS'PartOfSpeech'
p7261
S'VBG'
p7262
sS'CharacterOffsetBegin'
p7263
S'1867'
p7264
stp7265
a(S'himself'
p7266
(dp7267
S'NamedEntityTag'
p7268
g83
sS'CharacterOffsetEnd'
p7269
S'1885'
p7270
sS'Lemma'
p7271
S'himself'
p7272
sS'PartOfSpeech'
p7273
S'PRP'
p7274
sS'CharacterOffsetBegin'
p7275
S'1878'
p7276
stp7277
a(S'as'
p7278
(dp7279
S'NamedEntityTag'
p7280
g83
sS'CharacterOffsetEnd'
p7281
S'1888'
p7282
sS'Lemma'
p7283
S'as'
p7284
sS'PartOfSpeech'
p7285
S'IN'
p7286
sS'CharacterOffsetBegin'
p7287
S'1886'
p7288
stp7289
a(g1281
(dp7290
S'NamedEntityTag'
p7291
g83
sS'CharacterOffsetEnd'
p7292
S'1890'
p7293
sS'Lemma'
p7294
g1281
sS'PartOfSpeech'
p7295
S'DT'
p7296
sS'CharacterOffsetBegin'
p7297
S'1889'
p7298
stp7299
a(S'metalworker'
p7300
(dp7301
S'NamedEntityTag'
p7302
g83
sS'CharacterOffsetEnd'
p7303
S'1902'
p7304
sS'Lemma'
p7305
S'metalworker'
p7306
sS'PartOfSpeech'
p7307
S'NN'
p7308
sS'CharacterOffsetBegin'
p7309
S'1891'
p7310
stp7311
a(g676
(dp7312
S'NamedEntityTag'
p7313
g83
sS'CharacterOffsetEnd'
p7314
S'1903'
p7315
sS'Lemma'
p7316
g676
sS'PartOfSpeech'
p7317
g676
sS'CharacterOffsetBegin'
p7318
S'1902'
p7319
stp7320
asa(dp7321
g7
S'(ROOT (SINV (S (NP (NP (NN Nothing)) (PP (IN in) (NP (PRP$ my) (NN life)))) (VP (MD would) (VP (VB have) (VP (VBN led) (NP (CD one)) (S (VP (TO to) (VP (VB think) (S (NP (NN Id)) (VP (VB win) (NP (DT the) (NNP Nobel) (NNP Prize))))))))))) (, ,) (VP (VBD said)) (NP (NNP Saramago)) (. .)))'
p7322
sg9
S'Nothing in my life would have led one to think Id win the Nobel Prize, said Saramago.'
p7323
sg11
(lp7324
(S'root'
p7325
S'ROOT'
p7326
S'said'
p7327
tp7328
a(S'nsubj'
p7329
S'led'
p7330
S'Nothing'
p7331
tp7332
a(S'poss'
p7333
S'life'
p7334
S'my'
p7335
tp7336
a(S'prep_in'
p7337
S'Nothing'
p7338
S'life'
p7339
tp7340
a(S'aux'
p7341
S'led'
p7342
S'would'
p7343
tp7344
a(S'aux'
p7345
S'led'
p7346
S'have'
p7347
tp7348
a(S'ccomp'
p7349
S'said'
p7350
S'led'
p7351
tp7352
a(S'dobj'
p7353
S'led'
p7354
S'one'
p7355
tp7356
a(S'aux'
p7357
S'think'
p7358
S'to'
p7359
tp7360
a(S'xcomp'
p7361
S'led'
p7362
S'think'
p7363
tp7364
a(S'nsubj'
p7365
S'win'
p7366
S'Id'
p7367
tp7368
a(S'ccomp'
p7369
S'think'
p7370
S'win'
p7371
tp7372
a(S'det'
p7373
S'Prize'
p7374
S'the'
p7375
tp7376
a(S'nn'
p7377
S'Prize'
p7378
S'Nobel'
p7379
tp7380
a(S'dobj'
p7381
S'win'
p7382
S'Prize'
p7383
tp7384
a(S'nsubj'
p7385
S'said'
p7386
S'Saramago'
p7387
tp7388
asg49
(lp7389
(g7325
S'ROOT-0'
p7390
S'said-17'
p7391
tp7392
a(g7329
S'led-7'
p7393
S'Nothing-1'
p7394
tp7395
a(g7333
S'life-4'
p7396
S'my-3'
p7397
tp7398
a(g7337
S'Nothing-1'
p7399
S'life-4'
p7400
tp7401
a(g7341
S'led-7'
p7402
S'would-5'
p7403
tp7404
a(g7345
S'led-7'
p7405
S'have-6'
p7406
tp7407
a(g7349
S'said-17'
p7408
S'led-7'
p7409
tp7410
a(g7353
S'led-7'
p7411
S'one-8'
p7412
tp7413
a(g7357
S'think-10'
p7414
S'to-9'
p7415
tp7416
a(g7361
S'led-7'
p7417
S'think-10'
p7418
tp7419
a(g7365
S'win-12'
p7420
S'Id-11'
p7421
tp7422
a(g7369
S'think-10'
p7423
S'win-12'
p7424
tp7425
a(g7373
S'Prize-15'
p7426
S'the-13'
p7427
tp7428
a(g7377
S'Prize-15'
p7429
S'Nobel-14'
p7430
tp7431
a(g7381
S'win-12'
p7432
S'Prize-15'
p7433
tp7434
a(g7385
S'said-17'
p7435
S'Saramago-18'
p7436
tp7437
asg78
(lp7438
(S'Nothing'
p7439
(dp7440
S'NamedEntityTag'
p7441
g83
sS'CharacterOffsetEnd'
p7442
S'1911'
p7443
sS'Lemma'
p7444
S'nothing'
p7445
sS'PartOfSpeech'
p7446
S'NN'
p7447
sS'CharacterOffsetBegin'
p7448
S'1904'
p7449
stp7450
a(S'in'
p7451
(dp7452
S'NamedEntityTag'
p7453
g83
sS'CharacterOffsetEnd'
p7454
S'1914'
p7455
sS'Lemma'
p7456
S'in'
p7457
sS'PartOfSpeech'
p7458
S'IN'
p7459
sS'CharacterOffsetBegin'
p7460
S'1912'
p7461
stp7462
a(S'my'
p7463
(dp7464
S'NamedEntityTag'
p7465
g83
sS'CharacterOffsetEnd'
p7466
S'1917'
p7467
sS'Lemma'
p7468
S'my'
p7469
sS'PartOfSpeech'
p7470
S'PRP$'
p7471
sS'CharacterOffsetBegin'
p7472
S'1915'
p7473
stp7474
a(S'life'
p7475
(dp7476
S'NamedEntityTag'
p7477
g83
sS'CharacterOffsetEnd'
p7478
S'1922'
p7479
sS'Lemma'
p7480
S'life'
p7481
sS'PartOfSpeech'
p7482
S'NN'
p7483
sS'CharacterOffsetBegin'
p7484
S'1918'
p7485
stp7486
a(S'would'
p7487
(dp7488
S'NamedEntityTag'
p7489
g83
sS'CharacterOffsetEnd'
p7490
S'1928'
p7491
sS'Lemma'
p7492
S'would'
p7493
sS'PartOfSpeech'
p7494
S'MD'
p7495
sS'CharacterOffsetBegin'
p7496
S'1923'
p7497
stp7498
a(S'have'
p7499
(dp7500
S'NamedEntityTag'
p7501
g83
sS'CharacterOffsetEnd'
p7502
S'1933'
p7503
sS'Lemma'
p7504
S'have'
p7505
sS'PartOfSpeech'
p7506
S'VB'
p7507
sS'CharacterOffsetBegin'
p7508
S'1929'
p7509
stp7510
a(S'led'
p7511
(dp7512
S'NamedEntityTag'
p7513
g83
sS'CharacterOffsetEnd'
p7514
S'1937'
p7515
sS'Lemma'
p7516
S'lead'
p7517
sS'PartOfSpeech'
p7518
S'VBN'
p7519
sS'CharacterOffsetBegin'
p7520
S'1934'
p7521
stp7522
a(S'one'
p7523
(dp7524
S'NormalizedNamedEntityTag'
p7525
S'1.0'
p7526
sS'Lemma'
p7527
S'one'
p7528
sS'CharacterOffsetEnd'
p7529
S'1941'
p7530
sS'PartOfSpeech'
p7531
S'CD'
p7532
sS'CharacterOffsetBegin'
p7533
S'1938'
p7534
sS'NamedEntityTag'
p7535
S'NUMBER'
p7536
stp7537
a(S'to'
p7538
(dp7539
S'NamedEntityTag'
p7540
g83
sS'CharacterOffsetEnd'
p7541
S'1944'
p7542
sS'Lemma'
p7543
S'to'
p7544
sS'PartOfSpeech'
p7545
S'TO'
p7546
sS'CharacterOffsetBegin'
p7547
S'1942'
p7548
stp7549
a(S'think'
p7550
(dp7551
S'NamedEntityTag'
p7552
g83
sS'CharacterOffsetEnd'
p7553
S'1950'
p7554
sS'Lemma'
p7555
S'think'
p7556
sS'PartOfSpeech'
p7557
S'VB'
p7558
sS'CharacterOffsetBegin'
p7559
S'1945'
p7560
stp7561
a(S'Id'
p7562
(dp7563
S'NamedEntityTag'
p7564
g83
sS'CharacterOffsetEnd'
p7565
S'1953'
p7566
sS'Lemma'
p7567
S'id'
p7568
sS'PartOfSpeech'
p7569
S'NN'
p7570
sS'CharacterOffsetBegin'
p7571
S'1951'
p7572
stp7573
a(S'win'
p7574
(dp7575
S'NamedEntityTag'
p7576
g83
sS'CharacterOffsetEnd'
p7577
S'1957'
p7578
sS'Lemma'
p7579
S'win'
p7580
sS'PartOfSpeech'
p7581
S'VB'
p7582
sS'CharacterOffsetBegin'
p7583
S'1954'
p7584
stp7585
a(S'the'
p7586
(dp7587
S'NamedEntityTag'
p7588
g83
sS'CharacterOffsetEnd'
p7589
S'1961'
p7590
sS'Lemma'
p7591
S'the'
p7592
sS'PartOfSpeech'
p7593
S'DT'
p7594
sS'CharacterOffsetBegin'
p7595
S'1958'
p7596
stp7597
a(S'Nobel'
p7598
(dp7599
S'NamedEntityTag'
p7600
S'MISC'
p7601
sS'CharacterOffsetEnd'
p7602
S'1967'
p7603
sS'Lemma'
p7604
S'Nobel'
p7605
sS'PartOfSpeech'
p7606
S'NNP'
p7607
sS'CharacterOffsetBegin'
p7608
S'1962'
p7609
stp7610
a(S'Prize'
p7611
(dp7612
S'NamedEntityTag'
p7613
S'MISC'
p7614
sS'CharacterOffsetEnd'
p7615
S'1973'
p7616
sS'Lemma'
p7617
S'Prize'
p7618
sS'PartOfSpeech'
p7619
S'NNP'
p7620
sS'CharacterOffsetBegin'
p7621
S'1968'
p7622
stp7623
a(g1392
(dp7624
S'NamedEntityTag'
p7625
g83
sS'CharacterOffsetEnd'
p7626
S'1974'
p7627
sS'Lemma'
p7628
g1392
sS'PartOfSpeech'
p7629
g1392
sS'CharacterOffsetBegin'
p7630
S'1973'
p7631
stp7632
a(S'said'
p7633
(dp7634
S'NamedEntityTag'
p7635
g83
sS'CharacterOffsetEnd'
p7636
S'1979'
p7637
sS'Lemma'
p7638
S'say'
p7639
sS'PartOfSpeech'
p7640
S'VBD'
p7641
sS'CharacterOffsetBegin'
p7642
S'1975'
p7643
stp7644
a(S'Saramago'
p7645
(dp7646
S'NamedEntityTag'
p7647
S'PERSON'
p7648
sS'CharacterOffsetEnd'
p7649
S'1988'
p7650
sS'Lemma'
p7651
S'Saramago'
p7652
sS'PartOfSpeech'
p7653
S'NNP'
p7654
sS'CharacterOffsetBegin'
p7655
S'1980'
p7656
stp7657
a(g676
(dp7658
S'NamedEntityTag'
p7659
g83
sS'CharacterOffsetEnd'
p7660
S'1989'
p7661
sS'Lemma'
p7662
g676
sS'PartOfSpeech'
p7663
g676
sS'CharacterOffsetBegin'
p7664
S'1988'
p7665
stp7666
asa(dp7667
g7
S'(ROOT (S (NP (PRP I)) (VP (VBP wasnt) (VP (VBN born) (S (VP (TO to) (VP (VB win) (NP (DT the) (NNP Nobel))))))) (. .)))'
p7668
sg9
S'I wasnt born to win the Nobel.'
p7669
sg11
(lp7670
(S'root'
p7671
S'ROOT'
p7672
S'wasnt'
p7673
tp7674
a(S'nsubj'
p7675
S'wasnt'
p7676
g960
tp7677
a(S'dep'
p7678
S'wasnt'
p7679
S'born'
p7680
tp7681
a(S'aux'
p7682
S'win'
p7683
S'to'
p7684
tp7685
a(S'xcomp'
p7686
S'born'
p7687
S'win'
p7688
tp7689
a(S'det'
p7690
S'Nobel'
p7691
S'the'
p7692
tp7693
a(S'dobj'
p7694
S'win'
p7695
S'Nobel'
p7696
tp7697
asg49
(lp7698
(g7671
S'ROOT-0'
p7699
S'wasnt-2'
p7700
tp7701
a(g7675
S'wasnt-2'
p7702
S'I-1'
p7703
tp7704
a(g7678
S'wasnt-2'
p7705
S'born-3'
p7706
tp7707
a(g7682
S'win-5'
p7708
S'to-4'
p7709
tp7710
a(g7686
S'born-3'
p7711
S'win-5'
p7712
tp7713
a(g7690
S'Nobel-7'
p7714
S'the-6'
p7715
tp7716
a(g7694
S'win-5'
p7717
S'Nobel-7'
p7718
tp7719
asg78
(lp7720
(g960
(dp7721
S'NamedEntityTag'
p7722
g83
sS'CharacterOffsetEnd'
p7723
S'1991'
p7724
sS'Lemma'
p7725
g960
sS'PartOfSpeech'
p7726
S'PRP'
p7727
sS'CharacterOffsetBegin'
p7728
S'1990'
p7729
stp7730
a(S'wasnt'
p7731
(dp7732
S'NamedEntityTag'
p7733
g83
sS'CharacterOffsetEnd'
p7734
S'1997'
p7735
sS'Lemma'
p7736
S'wasnt'
p7737
sS'PartOfSpeech'
p7738
S'VBP'
p7739
sS'CharacterOffsetBegin'
p7740
S'1992'
p7741
stp7742
a(S'born'
p7743
(dp7744
S'NamedEntityTag'
p7745
g83
sS'CharacterOffsetEnd'
p7746
S'2002'
p7747
sS'Lemma'
p7748
S'bear'
p7749
sS'PartOfSpeech'
p7750
S'VBN'
p7751
sS'CharacterOffsetBegin'
p7752
S'1998'
p7753
stp7754
a(S'to'
p7755
(dp7756
S'NamedEntityTag'
p7757
g83
sS'CharacterOffsetEnd'
p7758
S'2005'
p7759
sS'Lemma'
p7760
S'to'
p7761
sS'PartOfSpeech'
p7762
S'TO'
p7763
sS'CharacterOffsetBegin'
p7764
S'2003'
p7765
stp7766
a(S'win'
p7767
(dp7768
S'NamedEntityTag'
p7769
g83
sS'CharacterOffsetEnd'
p7770
S'2009'
p7771
sS'Lemma'
p7772
S'win'
p7773
sS'PartOfSpeech'
p7774
S'VB'
p7775
sS'CharacterOffsetBegin'
p7776
S'2006'
p7777
stp7778
a(S'the'
p7779
(dp7780
S'NamedEntityTag'
p7781
g83
sS'CharacterOffsetEnd'
p7782
S'2013'
p7783
sS'Lemma'
p7784
S'the'
p7785
sS'PartOfSpeech'
p7786
S'DT'
p7787
sS'CharacterOffsetBegin'
p7788
S'2010'
p7789
stp7790
a(S'Nobel'
p7791
(dp7792
S'NamedEntityTag'
p7793
S'MISC'
p7794
sS'CharacterOffsetEnd'
p7795
S'2019'
p7796
sS'Lemma'
p7797
S'Nobel'
p7798
sS'PartOfSpeech'
p7799
S'NNP'
p7800
sS'CharacterOffsetBegin'
p7801
S'2014'
p7802
stp7803
a(g676
(dp7804
S'NamedEntityTag'
p7805
g83
sS'CharacterOffsetEnd'
p7806
S'2020'
p7807
sS'Lemma'
p7808
g676
sS'PartOfSpeech'
p7809
g676
sS'CharacterOffsetBegin'
p7810
S'2019'
p7811
stp7812
asa(dp7813
g7
S'(ROOT (S (NP (PRP I)) (VP (VBP didnt) (VP (VB have) (NP (PRP$ my) (JJ own) (NNS books)) (SBAR (IN until) (S (NP (PRP I)) (VP (VBD was) (NP (CD 18))))))) (. .)))'
p7814
sg9
S'I didnt have my own books until I was 18.'
p7815
sg11
(lp7816
(S'root'
p7817
S'ROOT'
p7818
S'didnt'
p7819
tp7820
a(S'nsubj'
p7821
S'didnt'
p7822
g960
tp7823
a(S'xcomp'
p7824
S'didnt'
p7825
S'have'
p7826
tp7827
a(S'poss'
p7828
S'books'
p7829
S'my'
p7830
tp7831
a(S'amod'
p7832
S'books'
p7833
S'own'
p7834
tp7835
a(S'dobj'
p7836
S'have'
p7837
S'books'
p7838
tp7839
a(S'mark'
p7840
S'18'
p7841
S'until'
p7842
tp7843
a(S'nsubj'
p7844
S'18'
p7845
g960
tp7846
a(S'cop'
p7847
S'18'
p7848
S'was'
p7849
tp7850
a(S'advcl'
p7851
S'have'
p7852
S'18'
p7853
tp7854
asg49
(lp7855
(g7817
S'ROOT-0'
p7856
S'didnt-2'
p7857
tp7858
a(g7821
S'didnt-2'
p7859
S'I-1'
p7860
tp7861
a(g7824
S'didnt-2'
p7862
S'have-3'
p7863
tp7864
a(g7828
S'books-6'
p7865
S'my-4'
p7866
tp7867
a(g7832
S'books-6'
p7868
S'own-5'
p7869
tp7870
a(g7836
S'have-3'
p7871
S'books-6'
p7872
tp7873
a(g7840
S'18-10'
p7874
S'until-7'
p7875
tp7876
a(g7844
S'18-10'
p7877
S'I-8'
p7878
tp7879
a(g7847
S'18-10'
p7880
S'was-9'
p7881
tp7882
a(g7851
S'have-3'
p7883
S'18-10'
p7884
tp7885
asg78
(lp7886
(g960
(dp7887
S'NamedEntityTag'
p7888
g83
sS'CharacterOffsetEnd'
p7889
S'2022'
p7890
sS'Lemma'
p7891
g960
sS'PartOfSpeech'
p7892
S'PRP'
p7893
sS'CharacterOffsetBegin'
p7894
S'2021'
p7895
stp7896
a(S'didnt'
p7897
(dp7898
S'NamedEntityTag'
p7899
g83
sS'CharacterOffsetEnd'
p7900
S'2028'
p7901
sS'Lemma'
p7902
S'didnt'
p7903
sS'PartOfSpeech'
p7904
S'VBP'
p7905
sS'CharacterOffsetBegin'
p7906
S'2023'
p7907
stp7908
a(S'have'
p7909
(dp7910
S'NamedEntityTag'
p7911
g83
sS'CharacterOffsetEnd'
p7912
S'2033'
p7913
sS'Lemma'
p7914
S'have'
p7915
sS'PartOfSpeech'
p7916
S'VB'
p7917
sS'CharacterOffsetBegin'
p7918
S'2029'
p7919
stp7920
a(S'my'
p7921
(dp7922
S'NamedEntityTag'
p7923
g83
sS'CharacterOffsetEnd'
p7924
S'2036'
p7925
sS'Lemma'
p7926
S'my'
p7927
sS'PartOfSpeech'
p7928
S'PRP$'
p7929
sS'CharacterOffsetBegin'
p7930
S'2034'
p7931
stp7932
a(S'own'
p7933
(dp7934
S'NamedEntityTag'
p7935
g83
sS'CharacterOffsetEnd'
p7936
S'2040'
p7937
sS'Lemma'
p7938
S'own'
p7939
sS'PartOfSpeech'
p7940
S'JJ'
p7941
sS'CharacterOffsetBegin'
p7942
S'2037'
p7943
stp7944
a(S'books'
p7945
(dp7946
S'NamedEntityTag'
p7947
g83
sS'CharacterOffsetEnd'
p7948
S'2046'
p7949
sS'Lemma'
p7950
S'book'
p7951
sS'PartOfSpeech'
p7952
S'NNS'
p7953
sS'CharacterOffsetBegin'
p7954
S'2041'
p7955
stp7956
a(S'until'
p7957
(dp7958
S'NamedEntityTag'
p7959
g83
sS'CharacterOffsetEnd'
p7960
S'2052'
p7961
sS'Lemma'
p7962
S'until'
p7963
sS'PartOfSpeech'
p7964
S'IN'
p7965
sS'CharacterOffsetBegin'
p7966
S'2047'
p7967
stp7968
a(g960
(dp7969
S'NamedEntityTag'
p7970
g83
sS'CharacterOffsetEnd'
p7971
S'2054'
p7972
sS'Lemma'
p7973
g960
sS'PartOfSpeech'
p7974
S'PRP'
p7975
sS'CharacterOffsetBegin'
p7976
S'2053'
p7977
stp7978
a(S'was'
p7979
(dp7980
S'NamedEntityTag'
p7981
g83
sS'CharacterOffsetEnd'
p7982
S'2058'
p7983
sS'Lemma'
p7984
S'be'
p7985
sS'PartOfSpeech'
p7986
S'VBD'
p7987
sS'CharacterOffsetBegin'
p7988
S'2055'
p7989
stp7990
a(S'18'
p7991
(dp7992
S'NormalizedNamedEntityTag'
p7993
S'18.0'
p7994
sS'Lemma'
p7995
S'18'
p7996
sS'CharacterOffsetEnd'
p7997
S'2061'
p7998
sS'PartOfSpeech'
p7999
S'CD'
p8000
sS'CharacterOffsetBegin'
p8001
S'2059'
p8002
sS'NamedEntityTag'
p8003
S'NUMBER'
p8004
stp8005
a(g676
(dp8006
S'NamedEntityTag'
p8007
g83
sS'CharacterOffsetEnd'
p8008
S'2062'
p8009
sS'Lemma'
p8010
g676
sS'PartOfSpeech'
p8011
g676
sS'CharacterOffsetBegin'
p8012
S'2061'
p8013
stp8014
asa(dp8015
g7
S'(ROOT (S (S (NP (PRP$ His) (JJ first) (NN novel)) (, ,) (S (VP (VBN published) (PP (IN in) (NP (CD 1947) (CD _))))) (NP (NNP Terra)) (VP (VBP do) (NP (NNP Pecado)))) (, ,) (CC or) (S (NP (NP (NN Country)) (PP (IN of) (NP (NNP Sin) (NNP _)))) (VP (VBD was) (NP (NP (DT a) (NN tale)) (PP (IN of) (NP (NP (NNS peasants)) (PP (IN in) (NP (JJ moral) (NN crisis)))))))) (. .)))'
p8016
sg9
S'His first novel, published in 1947 _ Terra do Pecado, or Country of Sin _ was a tale of peasants in moral crisis.'
p8017
sg11
(lp8018
(S'root'
p8019
S'ROOT'
p8020
S'do'
p8021
tp8022
a(S'poss'
p8023
S'novel'
p8024
S'His'
p8025
tp8026
a(S'amod'
p8027
S'novel'
p8028
S'first'
p8029
tp8030
a(S'nsubj'
p8031
S'do'
p8032
S'novel'
p8033
tp8034
a(S'partmod'
p8035
S'do'
p8036
S'published'
p8037
tp8038
a(S'num'
p8039
S'_'
p8040
S'1947'
p8041
tp8042
a(S'prep_in'
p8043
S'published'
p8044
g8040
tp8045
a(S'nsubj'
p8046
S'do'
p8047
S'Terra'
p8048
tp8049
a(S'dobj'
p8050
S'do'
p8051
S'Pecado'
p8052
tp8053
a(S'nsubj'
p8054
S'tale'
p8055
S'Country'
p8056
tp8057
a(S'nn'
p8058
g8040
S'Sin'
p8059
tp8060
a(S'prep_of'
p8061
S'Country'
p8062
g8040
tp8063
a(S'cop'
p8064
S'tale'
p8065
S'was'
p8066
tp8067
a(S'det'
p8068
S'tale'
p8069
g1281
tp8070
a(S'conj_or'
p8071
S'do'
p8072
S'tale'
p8073
tp8074
a(S'prep_of'
p8075
S'tale'
p8076
S'peasants'
p8077
tp8078
a(S'amod'
p8079
S'crisis'
p8080
S'moral'
p8081
tp8082
a(S'prep_in'
p8083
S'peasants'
p8084
S'crisis'
p8085
tp8086
asg49
(lp8087
(g8019
S'ROOT-0'
p8088
S'do-10'
p8089
tp8090
a(g8023
S'novel-3'
p8091
S'His-1'
p8092
tp8093
a(g8027
S'novel-3'
p8094
S'first-2'
p8095
tp8096
a(g8031
S'do-10'
p8097
S'novel-3'
p8098
tp8099
a(g8035
S'do-10'
p8100
S'published-5'
p8101
tp8102
a(g8039
S'_-8'
p8103
S'1947-7'
p8104
tp8105
a(g8043
S'published-5'
p8106
S'_-8'
p8107
tp8108
a(g8046
S'do-10'
p8109
S'Terra-9'
p8110
tp8111
a(g8050
S'do-10'
p8112
S'Pecado-11'
p8113
tp8114
a(g8054
S'tale-20'
p8115
S'Country-14'
p8116
tp8117
a(g8058
S'_-17'
p8118
S'Sin-16'
p8119
tp8120
a(g8061
S'Country-14'
p8121
S'_-17'
p8122
tp8123
a(g8064
S'tale-20'
p8124
S'was-18'
p8125
tp8126
a(g8068
S'tale-20'
p8127
S'a-19'
p8128
tp8129
a(g8071
S'do-10'
p8130
S'tale-20'
p8131
tp8132
a(g8075
S'tale-20'
p8133
S'peasants-22'
p8134
tp8135
a(g8079
S'crisis-25'
p8136
S'moral-24'
p8137
tp8138
a(g8083
S'peasants-22'
p8139
S'crisis-25'
p8140
tp8141
asg78
(lp8142
(S'His'
p8143
(dp8144
S'NamedEntityTag'
p8145
g83
sS'CharacterOffsetEnd'
p8146
S'2066'
p8147
sS'Lemma'
p8148
S'he'
p8149
sS'PartOfSpeech'
p8150
S'PRP$'
p8151
sS'CharacterOffsetBegin'
p8152
S'2063'
p8153
stp8154
a(S'first'
p8155
(dp8156
S'NormalizedNamedEntityTag'
p8157
S'1.0'
p8158
sS'Lemma'
p8159
S'first'
p8160
sS'CharacterOffsetEnd'
p8161
S'2072'
p8162
sS'PartOfSpeech'
p8163
S'JJ'
p8164
sS'CharacterOffsetBegin'
p8165
S'2067'
p8166
sS'NamedEntityTag'
p8167
S'ORDINAL'
p8168
stp8169
a(S'novel'
p8170
(dp8171
S'NamedEntityTag'
p8172
g83
sS'CharacterOffsetEnd'
p8173
S'2078'
p8174
sS'Lemma'
p8175
S'novel'
p8176
sS'PartOfSpeech'
p8177
S'NN'
p8178
sS'CharacterOffsetBegin'
p8179
S'2073'
p8180
stp8181
a(g1392
(dp8182
S'NamedEntityTag'
p8183
g83
sS'CharacterOffsetEnd'
p8184
S'2079'
p8185
sS'Lemma'
p8186
g1392
sS'PartOfSpeech'
p8187
g1392
sS'CharacterOffsetBegin'
p8188
S'2078'
p8189
stp8190
a(S'published'
p8191
(dp8192
S'NamedEntityTag'
p8193
g83
sS'CharacterOffsetEnd'
p8194
S'2089'
p8195
sS'Lemma'
p8196
S'publish'
p8197
sS'PartOfSpeech'
p8198
S'VBN'
p8199
sS'CharacterOffsetBegin'
p8200
S'2080'
p8201
stp8202
a(S'in'
p8203
(dp8204
S'NamedEntityTag'
p8205
g83
sS'CharacterOffsetEnd'
p8206
S'2092'
p8207
sS'Lemma'
p8208
S'in'
p8209
sS'PartOfSpeech'
p8210
S'IN'
p8211
sS'CharacterOffsetBegin'
p8212
S'2090'
p8213
stp8214
a(S'1947'
p8215
(dp8216
S'NormalizedNamedEntityTag'
p8217
S'1947'
p8218
sS'Timex'
p8219
S'<TIMEX3 tid="t8" type="DATE" value="1947">1947</TIMEX3>'
p8220
sS'Lemma'
p8221
S'1947'
p8222
sS'CharacterOffsetEnd'
p8223
S'2097'
p8224
sS'PartOfSpeech'
p8225
S'CD'
p8226
sS'CharacterOffsetBegin'
p8227
S'2093'
p8228
sS'NamedEntityTag'
p8229
S'DATE'
p8230
stp8231
a(g8040
(dp8232
S'NamedEntityTag'
p8233
S'NUMBER'
p8234
sS'CharacterOffsetEnd'
p8235
S'2099'
p8236
sS'Lemma'
p8237
g8040
sS'PartOfSpeech'
p8238
S'CD'
p8239
sS'CharacterOffsetBegin'
p8240
S'2098'
p8241
stp8242
a(S'Terra'
p8243
(dp8244
S'NamedEntityTag'
p8245
S'LOCATION'
p8246
sS'CharacterOffsetEnd'
p8247
S'2105'
p8248
sS'Lemma'
p8249
S'Terra'
p8250
sS'PartOfSpeech'
p8251
S'NNP'
p8252
sS'CharacterOffsetBegin'
p8253
S'2100'
p8254
stp8255
a(S'do'
p8256
(dp8257
S'NamedEntityTag'
p8258
S'LOCATION'
p8259
sS'CharacterOffsetEnd'
p8260
S'2108'
p8261
sS'Lemma'
p8262
S'do'
p8263
sS'PartOfSpeech'
p8264
S'VBP'
p8265
sS'CharacterOffsetBegin'
p8266
S'2106'
p8267
stp8268
a(S'Pecado'
p8269
(dp8270
S'NamedEntityTag'
p8271
S'LOCATION'
p8272
sS'CharacterOffsetEnd'
p8273
S'2115'
p8274
sS'Lemma'
p8275
S'Pecado'
p8276
sS'PartOfSpeech'
p8277
S'NNP'
p8278
sS'CharacterOffsetBegin'
p8279
S'2109'
p8280
stp8281
a(g1392
(dp8282
S'NamedEntityTag'
p8283
g83
sS'CharacterOffsetEnd'
p8284
S'2116'
p8285
sS'Lemma'
p8286
g1392
sS'PartOfSpeech'
p8287
g1392
sS'CharacterOffsetBegin'
p8288
S'2115'
p8289
stp8290
a(S'or'
p8291
(dp8292
S'NamedEntityTag'
p8293
g83
sS'CharacterOffsetEnd'
p8294
S'2119'
p8295
sS'Lemma'
p8296
S'or'
p8297
sS'PartOfSpeech'
p8298
S'CC'
p8299
sS'CharacterOffsetBegin'
p8300
S'2117'
p8301
stp8302
a(S'Country'
p8303
(dp8304
S'NamedEntityTag'
p8305
S'MISC'
p8306
sS'CharacterOffsetEnd'
p8307
S'2127'
p8308
sS'Lemma'
p8309
S'country'
p8310
sS'PartOfSpeech'
p8311
S'NN'
p8312
sS'CharacterOffsetBegin'
p8313
S'2120'
p8314
stp8315
a(S'of'
p8316
(dp8317
S'NamedEntityTag'
p8318
S'MISC'
p8319
sS'CharacterOffsetEnd'
p8320
S'2130'
p8321
sS'Lemma'
p8322
S'of'
p8323
sS'PartOfSpeech'
p8324
S'IN'
p8325
sS'CharacterOffsetBegin'
p8326
S'2128'
p8327
stp8328
a(S'Sin'
p8329
(dp8330
S'NamedEntityTag'
p8331
S'MISC'
p8332
sS'CharacterOffsetEnd'
p8333
S'2134'
p8334
sS'Lemma'
p8335
S'Sin'
p8336
sS'PartOfSpeech'
p8337
S'NNP'
p8338
sS'CharacterOffsetBegin'
p8339
S'2131'
p8340
stp8341
a(g8040
(dp8342
S'NamedEntityTag'
p8343
g83
sS'CharacterOffsetEnd'
p8344
S'2136'
p8345
sS'Lemma'
p8346
g8040
sS'PartOfSpeech'
p8347
S'NNP'
p8348
sS'CharacterOffsetBegin'
p8349
S'2135'
p8350
stp8351
a(S'was'
p8352
(dp8353
S'NamedEntityTag'
p8354
g83
sS'CharacterOffsetEnd'
p8355
S'2140'
p8356
sS'Lemma'
p8357
S'be'
p8358
sS'PartOfSpeech'
p8359
S'VBD'
p8360
sS'CharacterOffsetBegin'
p8361
S'2137'
p8362
stp8363
a(g1281
(dp8364
S'NamedEntityTag'
p8365
g83
sS'CharacterOffsetEnd'
p8366
S'2142'
p8367
sS'Lemma'
p8368
g1281
sS'PartOfSpeech'
p8369
S'DT'
p8370
sS'CharacterOffsetBegin'
p8371
S'2141'
p8372
stp8373
a(S'tale'
p8374
(dp8375
S'NamedEntityTag'
p8376
g83
sS'CharacterOffsetEnd'
p8377
S'2147'
p8378
sS'Lemma'
p8379
S'tale'
p8380
sS'PartOfSpeech'
p8381
S'NN'
p8382
sS'CharacterOffsetBegin'
p8383
S'2143'
p8384
stp8385
a(S'of'
p8386
(dp8387
S'NamedEntityTag'
p8388
g83
sS'CharacterOffsetEnd'
p8389
S'2150'
p8390
sS'Lemma'
p8391
S'of'
p8392
sS'PartOfSpeech'
p8393
S'IN'
p8394
sS'CharacterOffsetBegin'
p8395
S'2148'
p8396
stp8397
a(S'peasants'
p8398
(dp8399
S'NamedEntityTag'
p8400
g83
sS'CharacterOffsetEnd'
p8401
S'2159'
p8402
sS'Lemma'
p8403
S'peasant'
p8404
sS'PartOfSpeech'
p8405
S'NNS'
p8406
sS'CharacterOffsetBegin'
p8407
S'2151'
p8408
stp8409
a(S'in'
p8410
(dp8411
S'NamedEntityTag'
p8412
g83
sS'CharacterOffsetEnd'
p8413
S'2162'
p8414
sS'Lemma'
p8415
S'in'
p8416
sS'PartOfSpeech'
p8417
S'IN'
p8418
sS'CharacterOffsetBegin'
p8419
S'2160'
p8420
stp8421
a(S'moral'
p8422
(dp8423
S'NamedEntityTag'
p8424
g83
sS'CharacterOffsetEnd'
p8425
S'2168'
p8426
sS'Lemma'
p8427
S'moral'
p8428
sS'PartOfSpeech'
p8429
S'JJ'
p8430
sS'CharacterOffsetBegin'
p8431
S'2163'
p8432
stp8433
a(S'crisis'
p8434
(dp8435
S'NamedEntityTag'
p8436
g83
sS'CharacterOffsetEnd'
p8437
S'2175'
p8438
sS'Lemma'
p8439
S'crisis'
p8440
sS'PartOfSpeech'
p8441
S'NN'
p8442
sS'CharacterOffsetBegin'
p8443
S'2169'
p8444
stp8445
a(g676
(dp8446
S'NamedEntityTag'
p8447
g83
sS'CharacterOffsetEnd'
p8448
S'2176'
p8449
sS'Lemma'
p8450
g676
sS'PartOfSpeech'
p8451
g676
sS'CharacterOffsetBegin'
p8452
S'2175'
p8453
stp8454
asa(dp8455
g7
S'(ROOT (S (PP (IN For) (NP (DT the) (JJ next) (CD 18) (NNS years))) (, ,) (NP (NP (NNP Saramago)) (, ,) (NP (NP (DT a) (NN communist)) (SBAR (WHNP (WP who)) (S (VP (VBD opposed) (NP (NP (DT the) (JJ 41-year) (JJ conservative) (NN dictatorship)) (PP (IN of) (NP (NNP Antonio) (NNP Salazar)))))))) (, ,)) (VP (VBN published) (S (NP (NP (RB only) (DT a) (JJ few) (NN travel)) (CC and) (NP (NN poetry) (NNS books)))) (SBAR (IN while) (S (NP (PRP he)) (VP (VBD worked) (PP (IN as) (NP (DT a) (NN journalist))))))) (. .)))'
p8456
sg9
S'For the next 18 years, Saramago, a communist who opposed the 41-year conservative dictatorship of Antonio Salazar, published only a few travel and poetry books while he worked as a journalist.'
p8457
sg11
(lp8458
(S'root'
p8459
S'ROOT'
p8460
S'published'
p8461
tp8462
a(S'det'
p8463
S'years'
p8464
S'the'
p8465
tp8466
a(S'amod'
p8467
S'years'
p8468
S'next'
p8469
tp8470
a(S'num'
p8471
S'years'
p8472
S'18'
p8473
tp8474
a(S'prep_for'
p8475
S'published'
p8476
S'years'
p8477
tp8478
a(S'nsubj'
p8479
S'published'
p8480
S'Saramago'
p8481
tp8482
a(S'det'
p8483
S'communist'
p8484
g1281
tp8485
a(S'appos'
p8486
S'Saramago'
p8487
S'communist'
p8488
tp8489
a(S'nsubj'
p8490
S'opposed'
p8491
S'who'
p8492
tp8493
a(S'rcmod'
p8494
S'communist'
p8495
S'opposed'
p8496
tp8497
a(S'det'
p8498
S'dictatorship'
p8499
S'the'
p8500
tp8501
a(S'amod'
p8502
S'dictatorship'
p8503
S'41-year'
p8504
tp8505
a(S'amod'
p8506
S'dictatorship'
p8507
S'conservative'
p8508
tp8509
a(S'dobj'
p8510
S'opposed'
p8511
S'dictatorship'
p8512
tp8513
a(S'nn'
p8514
S'Salazar'
p8515
S'Antonio'
p8516
tp8517
a(S'prep_of'
p8518
S'dictatorship'
p8519
S'Salazar'
p8520
tp8521
a(S'advmod'
p8522
S'travel'
p8523
S'only'
p8524
tp8525
a(S'det'
p8526
S'travel'
p8527
g1281
tp8528
a(S'amod'
p8529
S'travel'
p8530
S'few'
p8531
tp8532
a(S'dep'
p8533
S'published'
p8534
S'travel'
p8535
tp8536
a(S'nn'
p8537
S'books'
p8538
S'poetry'
p8539
tp8540
a(S'conj_and'
p8541
S'travel'
p8542
S'books'
p8543
tp8544
a(S'mark'
p8545
S'worked'
p8546
S'while'
p8547
tp8548
a(S'nsubj'
p8549
S'worked'
p8550
S'he'
p8551
tp8552
a(S'advcl'
p8553
S'published'
p8554
S'worked'
p8555
tp8556
a(S'det'
p8557
S'journalist'
p8558
g1281
tp8559
a(S'prep_as'
p8560
S'worked'
p8561
S'journalist'
p8562
tp8563
asg49
(lp8564
(g8459
S'ROOT-0'
p8565
S'published-21'
p8566
tp8567
a(g8463
S'years-5'
p8568
S'the-2'
p8569
tp8570
a(g8467
S'years-5'
p8571
S'next-3'
p8572
tp8573
a(g8471
S'years-5'
p8574
S'18-4'
p8575
tp8576
a(g8475
S'published-21'
p8577
S'years-5'
p8578
tp8579
a(g8479
S'published-21'
p8580
S'Saramago-7'
p8581
tp8582
a(g8483
S'communist-10'
p8583
S'a-9'
p8584
tp8585
a(g8486
S'Saramago-7'
p8586
S'communist-10'
p8587
tp8588
a(g8490
S'opposed-12'
p8589
S'who-11'
p8590
tp8591
a(g8494
S'communist-10'
p8592
S'opposed-12'
p8593
tp8594
a(g8498
S'dictatorship-16'
p8595
S'the-13'
p8596
tp8597
a(g8502
S'dictatorship-16'
p8598
S'41-year-14'
p8599
tp8600
a(g8506
S'dictatorship-16'
p8601
S'conservative-15'
p8602
tp8603
a(g8510
S'opposed-12'
p8604
S'dictatorship-16'
p8605
tp8606
a(g8514
S'Salazar-19'
p8607
S'Antonio-18'
p8608
tp8609
a(g8518
S'dictatorship-16'
p8610
S'Salazar-19'
p8611
tp8612
a(g8522
S'travel-25'
p8613
S'only-22'
p8614
tp8615
a(g8526
S'travel-25'
p8616
S'a-23'
p8617
tp8618
a(g8529
S'travel-25'
p8619
S'few-24'
p8620
tp8621
a(g8533
S'published-21'
p8622
S'travel-25'
p8623
tp8624
a(g8537
S'books-28'
p8625
S'poetry-27'
p8626
tp8627
a(g8541
S'travel-25'
p8628
S'books-28'
p8629
tp8630
a(g8545
S'worked-31'
p8631
S'while-29'
p8632
tp8633
a(g8549
S'worked-31'
p8634
S'he-30'
p8635
tp8636
a(g8553
S'published-21'
p8637
S'worked-31'
p8638
tp8639
a(g8557
S'journalist-34'
p8640
S'a-33'
p8641
tp8642
a(g8560
S'worked-31'
p8643
S'journalist-34'
p8644
tp8645
asg78
(lp8646
(S'For'
p8647
(dp8648
S'NamedEntityTag'
p8649
g83
sS'CharacterOffsetEnd'
p8650
S'2180'
p8651
sS'Lemma'
p8652
S'for'
p8653
sS'PartOfSpeech'
p8654
S'IN'
p8655
sS'CharacterOffsetBegin'
p8656
S'2177'
p8657
stp8658
a(S'the'
p8659
(dp8660
S'NormalizedNamedEntityTag'
p8661
S'P18Y'
p8662
sS'Timex'
p8663
S'<TIMEX3 beginPoint="t0" endPoint="t9" tid="t10" type="DURATION" value="P18Y">the next 18 years</TIMEX3>'
p8664
sS'Lemma'
p8665
S'the'
p8666
sS'CharacterOffsetEnd'
p8667
S'2184'
p8668
sS'PartOfSpeech'
p8669
S'DT'
p8670
sS'CharacterOffsetBegin'
p8671
S'2181'
p8672
sS'NamedEntityTag'
p8673
S'DURATION'
p8674
stp8675
a(S'next'
p8676
(dp8677
S'NormalizedNamedEntityTag'
p8678
S'P18Y'
p8679
sS'Timex'
p8680
S'<TIMEX3 beginPoint="t0" endPoint="t9" tid="t10" type="DURATION" value="P18Y">the next 18 years</TIMEX3>'
p8681
sS'Lemma'
p8682
S'next'
p8683
sS'CharacterOffsetEnd'
p8684
S'2189'
p8685
sS'PartOfSpeech'
p8686
S'JJ'
p8687
sS'CharacterOffsetBegin'
p8688
S'2185'
p8689
sS'NamedEntityTag'
p8690
S'DATE'
p8691
stp8692
a(S'18'
p8693
(dp8694
S'NormalizedNamedEntityTag'
p8695
S'P18Y'
p8696
sS'Timex'
p8697
S'<TIMEX3 beginPoint="t0" endPoint="t9" tid="t10" type="DURATION" value="P18Y">the next 18 years</TIMEX3>'
p8698
sS'Lemma'
p8699
S'18'
p8700
sS'CharacterOffsetEnd'
p8701
S'2192'
p8702
sS'PartOfSpeech'
p8703
S'CD'
p8704
sS'CharacterOffsetBegin'
p8705
S'2190'
p8706
sS'NamedEntityTag'
p8707
S'DATE'
p8708
stp8709
a(S'years'
p8710
(dp8711
S'NormalizedNamedEntityTag'
p8712
S'P18Y'
p8713
sS'Timex'
p8714
S'<TIMEX3 beginPoint="t0" endPoint="t9" tid="t10" type="DURATION" value="P18Y">the next 18 years</TIMEX3>'
p8715
sS'Lemma'
p8716
S'year'
p8717
sS'CharacterOffsetEnd'
p8718
S'2198'
p8719
sS'PartOfSpeech'
p8720
S'NNS'
p8721
sS'CharacterOffsetBegin'
p8722
S'2193'
p8723
sS'NamedEntityTag'
p8724
S'DATE'
p8725
stp8726
a(g1392
(dp8727
S'NamedEntityTag'
p8728
g83
sS'CharacterOffsetEnd'
p8729
S'2199'
p8730
sS'Lemma'
p8731
g1392
sS'PartOfSpeech'
p8732
g1392
sS'CharacterOffsetBegin'
p8733
S'2198'
p8734
stp8735
a(S'Saramago'
p8736
(dp8737
S'NamedEntityTag'
p8738
S'PERSON'
p8739
sS'CharacterOffsetEnd'
p8740
S'2208'
p8741
sS'Lemma'
p8742
S'Saramago'
p8743
sS'PartOfSpeech'
p8744
S'NNP'
p8745
sS'CharacterOffsetBegin'
p8746
S'2200'
p8747
stp8748
a(g1392
(dp8749
S'NamedEntityTag'
p8750
g83
sS'CharacterOffsetEnd'
p8751
S'2209'
p8752
sS'Lemma'
p8753
g1392
sS'PartOfSpeech'
p8754
g1392
sS'CharacterOffsetBegin'
p8755
S'2208'
p8756
stp8757
a(g1281
(dp8758
S'NamedEntityTag'
p8759
g83
sS'CharacterOffsetEnd'
p8760
S'2211'
p8761
sS'Lemma'
p8762
g1281
sS'PartOfSpeech'
p8763
S'DT'
p8764
sS'CharacterOffsetBegin'
p8765
S'2210'
p8766
stp8767
a(S'communist'
p8768
(dp8769
S'NamedEntityTag'
p8770
g83
sS'CharacterOffsetEnd'
p8771
S'2221'
p8772
sS'Lemma'
p8773
S'communist'
p8774
sS'PartOfSpeech'
p8775
S'NN'
p8776
sS'CharacterOffsetBegin'
p8777
S'2212'
p8778
stp8779
a(S'who'
p8780
(dp8781
S'NamedEntityTag'
p8782
g83
sS'CharacterOffsetEnd'
p8783
S'2225'
p8784
sS'Lemma'
p8785
S'who'
p8786
sS'PartOfSpeech'
p8787
S'WP'
p8788
sS'CharacterOffsetBegin'
p8789
S'2222'
p8790
stp8791
a(S'opposed'
p8792
(dp8793
S'NamedEntityTag'
p8794
g83
sS'CharacterOffsetEnd'
p8795
S'2233'
p8796
sS'Lemma'
p8797
S'oppose'
p8798
sS'PartOfSpeech'
p8799
S'VBD'
p8800
sS'CharacterOffsetBegin'
p8801
S'2226'
p8802
stp8803
a(S'the'
p8804
(dp8805
S'NamedEntityTag'
p8806
g83
sS'CharacterOffsetEnd'
p8807
S'2237'
p8808
sS'Lemma'
p8809
S'the'
p8810
sS'PartOfSpeech'
p8811
S'DT'
p8812
sS'CharacterOffsetBegin'
p8813
S'2234'
p8814
stp8815
a(S'41-year'
p8816
(dp8817
S'NormalizedNamedEntityTag'
p8818
S'P41Y'
p8819
sS'Timex'
p8820
S'<TIMEX3 tid="t11" type="DURATION" value="P41Y">41-year</TIMEX3>'
p8821
sS'Lemma'
p8822
S'41-year'
p8823
sS'CharacterOffsetEnd'
p8824
S'2245'
p8825
sS'PartOfSpeech'
p8826
S'JJ'
p8827
sS'CharacterOffsetBegin'
p8828
S'2238'
p8829
sS'NamedEntityTag'
p8830
S'DURATION'
p8831
stp8832
a(S'conservative'
p8833
(dp8834
S'NamedEntityTag'
p8835
g83
sS'CharacterOffsetEnd'
p8836
S'2258'
p8837
sS'Lemma'
p8838
S'conservative'
p8839
sS'PartOfSpeech'
p8840
S'JJ'
p8841
sS'CharacterOffsetBegin'
p8842
S'2246'
p8843
stp8844
a(S'dictatorship'
p8845
(dp8846
S'NamedEntityTag'
p8847
g83
sS'CharacterOffsetEnd'
p8848
S'2271'
p8849
sS'Lemma'
p8850
S'dictatorship'
p8851
sS'PartOfSpeech'
p8852
S'NN'
p8853
sS'CharacterOffsetBegin'
p8854
S'2259'
p8855
stp8856
a(S'of'
p8857
(dp8858
S'NamedEntityTag'
p8859
g83
sS'CharacterOffsetEnd'
p8860
S'2274'
p8861
sS'Lemma'
p8862
S'of'
p8863
sS'PartOfSpeech'
p8864
S'IN'
p8865
sS'CharacterOffsetBegin'
p8866
S'2272'
p8867
stp8868
a(S'Antonio'
p8869
(dp8870
S'NamedEntityTag'
p8871
S'PERSON'
p8872
sS'CharacterOffsetEnd'
p8873
S'2282'
p8874
sS'Lemma'
p8875
S'Antonio'
p8876
sS'PartOfSpeech'
p8877
S'NNP'
p8878
sS'CharacterOffsetBegin'
p8879
S'2275'
p8880
stp8881
a(S'Salazar'
p8882
(dp8883
S'NamedEntityTag'
p8884
S'PERSON'
p8885
sS'CharacterOffsetEnd'
p8886
S'2290'
p8887
sS'Lemma'
p8888
S'Salazar'
p8889
sS'PartOfSpeech'
p8890
S'NNP'
p8891
sS'CharacterOffsetBegin'
p8892
S'2283'
p8893
stp8894
a(g1392
(dp8895
S'NamedEntityTag'
p8896
g83
sS'CharacterOffsetEnd'
p8897
S'2291'
p8898
sS'Lemma'
p8899
g1392
sS'PartOfSpeech'
p8900
g1392
sS'CharacterOffsetBegin'
p8901
S'2290'
p8902
stp8903
a(S'published'
p8904
(dp8905
S'NamedEntityTag'
p8906
g83
sS'CharacterOffsetEnd'
p8907
S'2301'
p8908
sS'Lemma'
p8909
S'publish'
p8910
sS'PartOfSpeech'
p8911
S'VBN'
p8912
sS'CharacterOffsetBegin'
p8913
S'2292'
p8914
stp8915
a(S'only'
p8916
(dp8917
S'NamedEntityTag'
p8918
g83
sS'CharacterOffsetEnd'
p8919
S'2306'
p8920
sS'Lemma'
p8921
S'only'
p8922
sS'PartOfSpeech'
p8923
S'RB'
p8924
sS'CharacterOffsetBegin'
p8925
S'2302'
p8926
stp8927
a(g1281
(dp8928
S'NamedEntityTag'
p8929
g83
sS'CharacterOffsetEnd'
p8930
S'2308'
p8931
sS'Lemma'
p8932
g1281
sS'PartOfSpeech'
p8933
S'DT'
p8934
sS'CharacterOffsetBegin'
p8935
S'2307'
p8936
stp8937
a(S'few'
p8938
(dp8939
S'NamedEntityTag'
p8940
g83
sS'CharacterOffsetEnd'
p8941
S'2312'
p8942
sS'Lemma'
p8943
S'few'
p8944
sS'PartOfSpeech'
p8945
S'JJ'
p8946
sS'CharacterOffsetBegin'
p8947
S'2309'
p8948
stp8949
a(S'travel'
p8950
(dp8951
S'NamedEntityTag'
p8952
g83
sS'CharacterOffsetEnd'
p8953
S'2319'
p8954
sS'Lemma'
p8955
S'travel'
p8956
sS'PartOfSpeech'
p8957
S'NN'
p8958
sS'CharacterOffsetBegin'
p8959
S'2313'
p8960
stp8961
a(S'and'
p8962
(dp8963
S'NamedEntityTag'
p8964
g83
sS'CharacterOffsetEnd'
p8965
S'2323'
p8966
sS'Lemma'
p8967
S'and'
p8968
sS'PartOfSpeech'
p8969
S'CC'
p8970
sS'CharacterOffsetBegin'
p8971
S'2320'
p8972
stp8973
a(S'poetry'
p8974
(dp8975
S'NamedEntityTag'
p8976
g83
sS'CharacterOffsetEnd'
p8977
S'2330'
p8978
sS'Lemma'
p8979
S'poetry'
p8980
sS'PartOfSpeech'
p8981
S'NN'
p8982
sS'CharacterOffsetBegin'
p8983
S'2324'
p8984
stp8985
a(S'books'
p8986
(dp8987
S'NamedEntityTag'
p8988
g83
sS'CharacterOffsetEnd'
p8989
S'2336'
p8990
sS'Lemma'
p8991
S'book'
p8992
sS'PartOfSpeech'
p8993
S'NNS'
p8994
sS'CharacterOffsetBegin'
p8995
S'2331'
p8996
stp8997
a(S'while'
p8998
(dp8999
S'NamedEntityTag'
p9000
g83
sS'CharacterOffsetEnd'
p9001
S'2342'
p9002
sS'Lemma'
p9003
S'while'
p9004
sS'PartOfSpeech'
p9005
S'IN'
p9006
sS'CharacterOffsetBegin'
p9007
S'2337'
p9008
stp9009
a(S'he'
p9010
(dp9011
S'NamedEntityTag'
p9012
g83
sS'CharacterOffsetEnd'
p9013
S'2345'
p9014
sS'Lemma'
p9015
S'he'
p9016
sS'PartOfSpeech'
p9017
S'PRP'
p9018
sS'CharacterOffsetBegin'
p9019
S'2343'
p9020
stp9021
a(S'worked'
p9022
(dp9023
S'NamedEntityTag'
p9024
g83
sS'CharacterOffsetEnd'
p9025
S'2352'
p9026
sS'Lemma'
p9027
S'work'
p9028
sS'PartOfSpeech'
p9029
S'VBD'
p9030
sS'CharacterOffsetBegin'
p9031
S'2346'
p9032
stp9033
a(S'as'
p9034
(dp9035
S'NamedEntityTag'
p9036
g83
sS'CharacterOffsetEnd'
p9037
S'2355'
p9038
sS'Lemma'
p9039
S'as'
p9040
sS'PartOfSpeech'
p9041
S'IN'
p9042
sS'CharacterOffsetBegin'
p9043
S'2353'
p9044
stp9045
a(g1281
(dp9046
S'NamedEntityTag'
p9047
g83
sS'CharacterOffsetEnd'
p9048
S'2357'
p9049
sS'Lemma'
p9050
g1281
sS'PartOfSpeech'
p9051
S'DT'
p9052
sS'CharacterOffsetBegin'
p9053
S'2356'
p9054
stp9055
a(S'journalist'
p9056
(dp9057
S'NamedEntityTag'
p9058
g83
sS'CharacterOffsetEnd'
p9059
S'2368'
p9060
sS'Lemma'
p9061
S'journalist'
p9062
sS'PartOfSpeech'
p9063
S'NN'
p9064
sS'CharacterOffsetBegin'
p9065
S'2358'
p9066
stp9067
a(g676
(dp9068
S'NamedEntityTag'
p9069
g83
sS'CharacterOffsetEnd'
p9070
S'2369'
p9071
sS'Lemma'
p9072
g676
sS'PartOfSpeech'
p9073
g676
sS'CharacterOffsetBegin'
p9074
S'2368'
p9075
stp9076
asa(dp9077
g7
S'(ROOT (S (NP (PRP He)) (VP (VBD returned) (PP (TO to) (NP (NN fiction))) (SBAR (RB only) (IN after) (S (NP (NNS Salazars) (NN regime)) (VP (VBD was) (VP (VBN toppled) (PP (IN by) (NP (NP (DT a) (JJ military) (NN uprising)) (PP (IN in) (NP (CD 1974)))))))))) (. .)))'
p9078
sg9
S'He returned to fiction only after Salazars regime was toppled by a military uprising in 1974.'
p9079
sg11
(lp9080
(S'root'
p9081
S'ROOT'
p9082
S'returned'
p9083
tp9084
a(S'nsubj'
p9085
S'returned'
p9086
S'He'
p9087
tp9088
a(S'prep_to'
p9089
S'returned'
p9090
S'fiction'
p9091
tp9092
a(S'advmod'
p9093
S'toppled'
p9094
S'only'
p9095
tp9096
a(S'mark'
p9097
S'toppled'
p9098
S'after'
p9099
tp9100
a(S'nn'
p9101
S'regime'
p9102
S'Salazars'
p9103
tp9104
a(S'nsubjpass'
p9105
S'toppled'
p9106
S'regime'
p9107
tp9108
a(S'auxpass'
p9109
S'toppled'
p9110
S'was'
p9111
tp9112
a(S'advcl'
p9113
S'returned'
p9114
S'toppled'
p9115
tp9116
a(S'det'
p9117
S'uprising'
p9118
g1281
tp9119
a(S'amod'
p9120
S'uprising'
p9121
S'military'
p9122
tp9123
a(S'agent'
p9124
S'toppled'
p9125
S'uprising'
p9126
tp9127
a(S'prep_in'
p9128
S'uprising'
p9129
S'1974'
p9130
tp9131
asg49
(lp9132
(g9081
S'ROOT-0'
p9133
S'returned-2'
p9134
tp9135
a(g9085
S'returned-2'
p9136
S'He-1'
p9137
tp9138
a(g9089
S'returned-2'
p9139
S'fiction-4'
p9140
tp9141
a(g9093
S'toppled-10'
p9142
S'only-5'
p9143
tp9144
a(g9097
S'toppled-10'
p9145
S'after-6'
p9146
tp9147
a(g9101
S'regime-8'
p9148
S'Salazars-7'
p9149
tp9150
a(g9105
S'toppled-10'
p9151
S'regime-8'
p9152
tp9153
a(g9109
S'toppled-10'
p9154
S'was-9'
p9155
tp9156
a(g9113
S'returned-2'
p9157
S'toppled-10'
p9158
tp9159
a(g9117
S'uprising-14'
p9160
S'a-12'
p9161
tp9162
a(g9120
S'uprising-14'
p9163
S'military-13'
p9164
tp9165
a(g9124
S'toppled-10'
p9166
S'uprising-14'
p9167
tp9168
a(g9128
S'uprising-14'
p9169
S'1974-16'
p9170
tp9171
asg78
(lp9172
(S'He'
p9173
(dp9174
S'NamedEntityTag'
p9175
g83
sS'CharacterOffsetEnd'
p9176
S'2372'
p9177
sS'Lemma'
p9178
S'he'
p9179
sS'PartOfSpeech'
p9180
S'PRP'
p9181
sS'CharacterOffsetBegin'
p9182
S'2370'
p9183
stp9184
a(S'returned'
p9185
(dp9186
S'NamedEntityTag'
p9187
g83
sS'CharacterOffsetEnd'
p9188
S'2381'
p9189
sS'Lemma'
p9190
S'return'
p9191
sS'PartOfSpeech'
p9192
S'VBD'
p9193
sS'CharacterOffsetBegin'
p9194
S'2373'
p9195
stp9196
a(S'to'
p9197
(dp9198
S'NamedEntityTag'
p9199
g83
sS'CharacterOffsetEnd'
p9200
S'2384'
p9201
sS'Lemma'
p9202
S'to'
p9203
sS'PartOfSpeech'
p9204
S'TO'
p9205
sS'CharacterOffsetBegin'
p9206
S'2382'
p9207
stp9208
a(S'fiction'
p9209
(dp9210
S'NamedEntityTag'
p9211
g83
sS'CharacterOffsetEnd'
p9212
S'2392'
p9213
sS'Lemma'
p9214
S'fiction'
p9215
sS'PartOfSpeech'
p9216
S'NN'
p9217
sS'CharacterOffsetBegin'
p9218
S'2385'
p9219
stp9220
a(S'only'
p9221
(dp9222
S'NamedEntityTag'
p9223
g83
sS'CharacterOffsetEnd'
p9224
S'2397'
p9225
sS'Lemma'
p9226
S'only'
p9227
sS'PartOfSpeech'
p9228
S'RB'
p9229
sS'CharacterOffsetBegin'
p9230
S'2393'
p9231
stp9232
a(S'after'
p9233
(dp9234
S'NamedEntityTag'
p9235
g83
sS'CharacterOffsetEnd'
p9236
S'2403'
p9237
sS'Lemma'
p9238
S'after'
p9239
sS'PartOfSpeech'
p9240
S'IN'
p9241
sS'CharacterOffsetBegin'
p9242
S'2398'
p9243
stp9244
a(S'Salazars'
p9245
(dp9246
S'NamedEntityTag'
p9247
S'MISC'
p9248
sS'CharacterOffsetEnd'
p9249
S'2412'
p9250
sS'Lemma'
p9251
S'salazar'
p9252
sS'PartOfSpeech'
p9253
S'NNS'
p9254
sS'CharacterOffsetBegin'
p9255
S'2404'
p9256
stp9257
a(S'regime'
p9258
(dp9259
S'NamedEntityTag'
p9260
g83
sS'CharacterOffsetEnd'
p9261
S'2419'
p9262
sS'Lemma'
p9263
S'regime'
p9264
sS'PartOfSpeech'
p9265
S'NN'
p9266
sS'CharacterOffsetBegin'
p9267
S'2413'
p9268
stp9269
a(S'was'
p9270
(dp9271
S'NamedEntityTag'
p9272
g83
sS'CharacterOffsetEnd'
p9273
S'2423'
p9274
sS'Lemma'
p9275
S'be'
p9276
sS'PartOfSpeech'
p9277
S'VBD'
p9278
sS'CharacterOffsetBegin'
p9279
S'2420'
p9280
stp9281
a(S'toppled'
p9282
(dp9283
S'NamedEntityTag'
p9284
g83
sS'CharacterOffsetEnd'
p9285
S'2431'
p9286
sS'Lemma'
p9287
S'topple'
p9288
sS'PartOfSpeech'
p9289
S'VBN'
p9290
sS'CharacterOffsetBegin'
p9291
S'2424'
p9292
stp9293
a(S'by'
p9294
(dp9295
S'NamedEntityTag'
p9296
g83
sS'CharacterOffsetEnd'
p9297
S'2434'
p9298
sS'Lemma'
p9299
S'by'
p9300
sS'PartOfSpeech'
p9301
S'IN'
p9302
sS'CharacterOffsetBegin'
p9303
S'2432'
p9304
stp9305
a(g1281
(dp9306
S'NamedEntityTag'
p9307
g83
sS'CharacterOffsetEnd'
p9308
S'2436'
p9309
sS'Lemma'
p9310
g1281
sS'PartOfSpeech'
p9311
S'DT'
p9312
sS'CharacterOffsetBegin'
p9313
S'2435'
p9314
stp9315
a(S'military'
p9316
(dp9317
S'NamedEntityTag'
p9318
g83
sS'CharacterOffsetEnd'
p9319
S'2445'
p9320
sS'Lemma'
p9321
S'military'
p9322
sS'PartOfSpeech'
p9323
S'JJ'
p9324
sS'CharacterOffsetBegin'
p9325
S'2437'
p9326
stp9327
a(S'uprising'
p9328
(dp9329
S'NamedEntityTag'
p9330
g83
sS'CharacterOffsetEnd'
p9331
S'2454'
p9332
sS'Lemma'
p9333
S'uprising'
p9334
sS'PartOfSpeech'
p9335
S'NN'
p9336
sS'CharacterOffsetBegin'
p9337
S'2446'
p9338
stp9339
a(S'in'
p9340
(dp9341
S'NamedEntityTag'
p9342
g83
sS'CharacterOffsetEnd'
p9343
S'2457'
p9344
sS'Lemma'
p9345
S'in'
p9346
sS'PartOfSpeech'
p9347
S'IN'
p9348
sS'CharacterOffsetBegin'
p9349
S'2455'
p9350
stp9351
a(S'1974'
p9352
(dp9353
S'NormalizedNamedEntityTag'
p9354
S'1974'
p9355
sS'Timex'
p9356
S'<TIMEX3 tid="t12" type="DATE" value="1974">1974</TIMEX3>'
p9357
sS'Lemma'
p9358
S'1974'
p9359
sS'CharacterOffsetEnd'
p9360
S'2462'
p9361
sS'PartOfSpeech'
p9362
S'CD'
p9363
sS'CharacterOffsetBegin'
p9364
S'2458'
p9365
sS'NamedEntityTag'
p9366
S'DATE'
p9367
stp9368
a(g676
(dp9369
S'NamedEntityTag'
p9370
g83
sS'CharacterOffsetEnd'
p9371
S'2463'
p9372
sS'Lemma'
p9373
g676
sS'PartOfSpeech'
p9374
g676
sS'CharacterOffsetBegin'
p9375
S'2462'
p9376
stp9377
asa(dp9378
g7
S'(ROOT (S (PP (IN Since) (NP (DT the) (CD 1980s))) (, ,) (NP (PRP$ his) (NNS works)) (VP (VBP have) (VP (VBN been) (VP (VBN translated) (PP (IN into) (NP (QP (XS (JJR more) (IN than)) (CD 20)) (NNS languages)))))) (. .)))'
p9379
sg9
S'Since the 1980s, his works have been translated into more than 20 languages.'
p9380
sg11
(lp9381
(S'root'
p9382
S'ROOT'
p9383
S'translated'
p9384
tp9385
a(S'det'
p9386
S'1980s'
p9387
S'the'
p9388
tp9389
a(S'prep_since'
p9390
S'translated'
p9391
S'1980s'
p9392
tp9393
a(S'poss'
p9394
S'works'
p9395
S'his'
p9396
tp9397
a(S'nsubjpass'
p9398
S'translated'
p9399
S'works'
p9400
tp9401
a(S'aux'
p9402
S'translated'
p9403
S'have'
p9404
tp9405
a(S'auxpass'
p9406
S'translated'
p9407
S'been'
p9408
tp9409
a(S'mwe'
p9410
S'than'
p9411
S'more'
p9412
tp9413
a(S'quantmod'
p9414
S'20'
p9415
S'than'
p9416
tp9417
a(S'num'
p9418
S'languages'
p9419
S'20'
p9420
tp9421
a(S'prep_into'
p9422
S'translated'
p9423
S'languages'
p9424
tp9425
asg49
(lp9426
(g9382
S'ROOT-0'
p9427
S'translated-9'
p9428
tp9429
a(g9386
S'1980s-3'
p9430
S'the-2'
p9431
tp9432
a(g9390
S'translated-9'
p9433
S'1980s-3'
p9434
tp9435
a(g9394
S'works-6'
p9436
S'his-5'
p9437
tp9438
a(g9398
S'translated-9'
p9439
S'works-6'
p9440
tp9441
a(g9402
S'translated-9'
p9442
S'have-7'
p9443
tp9444
a(g9406
S'translated-9'
p9445
S'been-8'
p9446
tp9447
a(g9410
S'than-12'
p9448
S'more-11'
p9449
tp9450
a(g9414
S'20-13'
p9451
S'than-12'
p9452
tp9453
a(g9418
S'languages-14'
p9454
S'20-13'
p9455
tp9456
a(g9422
S'translated-9'
p9457
S'languages-14'
p9458
tp9459
asg78
(lp9460
(S'Since'
p9461
(dp9462
S'NamedEntityTag'
p9463
g83
sS'CharacterOffsetEnd'
p9464
S'2469'
p9465
sS'Lemma'
p9466
S'since'
p9467
sS'PartOfSpeech'
p9468
S'IN'
p9469
sS'CharacterOffsetBegin'
p9470
S'2464'
p9471
stp9472
a(S'the'
p9473
(dp9474
S'NormalizedNamedEntityTag'
p9475
S'198X'
p9476
sS'Timex'
p9477
S'<TIMEX3 tid="t13" type="DATE" value="198X">the 1980s</TIMEX3>'
p9478
sS'Lemma'
p9479
S'the'
p9480
sS'CharacterOffsetEnd'
p9481
S'2473'
p9482
sS'PartOfSpeech'
p9483
S'DT'
p9484
sS'CharacterOffsetBegin'
p9485
S'2470'
p9486
sS'NamedEntityTag'
p9487
S'DATE'
p9488
stp9489
a(S'1980s'
p9490
(dp9491
S'NormalizedNamedEntityTag'
p9492
S'198X'
p9493
sS'Timex'
p9494
S'<TIMEX3 tid="t13" type="DATE" value="198X">the 1980s</TIMEX3>'
p9495
sS'Lemma'
p9496
S'1980s'
p9497
sS'CharacterOffsetEnd'
p9498
S'2479'
p9499
sS'PartOfSpeech'
p9500
S'CD'
p9501
sS'CharacterOffsetBegin'
p9502
S'2474'
p9503
sS'NamedEntityTag'
p9504
S'DATE'
p9505
stp9506
a(g1392
(dp9507
S'NamedEntityTag'
p9508
g83
sS'CharacterOffsetEnd'
p9509
S'2480'
p9510
sS'Lemma'
p9511
g1392
sS'PartOfSpeech'
p9512
g1392
sS'CharacterOffsetBegin'
p9513
S'2479'
p9514
stp9515
a(S'his'
p9516
(dp9517
S'NamedEntityTag'
p9518
g83
sS'CharacterOffsetEnd'
p9519
S'2484'
p9520
sS'Lemma'
p9521
S'he'
p9522
sS'PartOfSpeech'
p9523
S'PRP$'
p9524
sS'CharacterOffsetBegin'
p9525
S'2481'
p9526
stp9527
a(S'works'
p9528
(dp9529
S'NamedEntityTag'
p9530
g83
sS'CharacterOffsetEnd'
p9531
S'2490'
p9532
sS'Lemma'
p9533
S'work'
p9534
sS'PartOfSpeech'
p9535
S'NNS'
p9536
sS'CharacterOffsetBegin'
p9537
S'2485'
p9538
stp9539
a(S'have'
p9540
(dp9541
S'NamedEntityTag'
p9542
g83
sS'CharacterOffsetEnd'
p9543
S'2495'
p9544
sS'Lemma'
p9545
S'have'
p9546
sS'PartOfSpeech'
p9547
S'VBP'
p9548
sS'CharacterOffsetBegin'
p9549
S'2491'
p9550
stp9551
a(S'been'
p9552
(dp9553
S'NamedEntityTag'
p9554
g83
sS'CharacterOffsetEnd'
p9555
S'2500'
p9556
sS'Lemma'
p9557
S'be'
p9558
sS'PartOfSpeech'
p9559
S'VBN'
p9560
sS'CharacterOffsetBegin'
p9561
S'2496'
p9562
stp9563
a(S'translated'
p9564
(dp9565
S'NamedEntityTag'
p9566
g83
sS'CharacterOffsetEnd'
p9567
S'2511'
p9568
sS'Lemma'
p9569
S'translate'
p9570
sS'PartOfSpeech'
p9571
S'VBN'
p9572
sS'CharacterOffsetBegin'
p9573
S'2501'
p9574
stp9575
a(S'into'
p9576
(dp9577
S'NamedEntityTag'
p9578
g83
sS'CharacterOffsetEnd'
p9579
S'2516'
p9580
sS'Lemma'
p9581
S'into'
p9582
sS'PartOfSpeech'
p9583
S'IN'
p9584
sS'CharacterOffsetBegin'
p9585
S'2512'
p9586
stp9587
a(S'more'
p9588
(dp9589
S'NamedEntityTag'
p9590
g83
sS'CharacterOffsetEnd'
p9591
S'2521'
p9592
sS'Lemma'
p9593
S'more'
p9594
sS'PartOfSpeech'
p9595
S'JJR'
p9596
sS'CharacterOffsetBegin'
p9597
S'2517'
p9598
stp9599
a(S'than'
p9600
(dp9601
S'NamedEntityTag'
p9602
g83
sS'CharacterOffsetEnd'
p9603
S'2526'
p9604
sS'Lemma'
p9605
S'than'
p9606
sS'PartOfSpeech'
p9607
S'IN'
p9608
sS'CharacterOffsetBegin'
p9609
S'2522'
p9610
stp9611
a(S'20'
p9612
(dp9613
S'NormalizedNamedEntityTag'
p9614
S'>20.0'
p9615
sS'Lemma'
p9616
S'20'
p9617
sS'CharacterOffsetEnd'
p9618
S'2529'
p9619
sS'PartOfSpeech'
p9620
S'CD'
p9621
sS'CharacterOffsetBegin'
p9622
S'2527'
p9623
sS'NamedEntityTag'
p9624
S'NUMBER'
p9625
stp9626
a(S'languages'
p9627
(dp9628
S'NamedEntityTag'
p9629
g83
sS'CharacterOffsetEnd'
p9630
S'2539'
p9631
sS'Lemma'
p9632
S'language'
p9633
sS'PartOfSpeech'
p9634
S'NNS'
p9635
sS'CharacterOffsetBegin'
p9636
S'2530'
p9637
stp9638
a(g676
(dp9639
S'NamedEntityTag'
p9640
g83
sS'CharacterOffsetEnd'
p9641
S'2540'
p9642
sS'Lemma'
p9643
g676
sS'PartOfSpeech'
p9644
g676
sS'CharacterOffsetBegin'
p9645
S'2539'
p9646
stp9647
asa(dp9648
g7
S'(ROOT (S (PP (VBG Regarding) (NP (DT the) (NN future))) (, ,) (NP (NNP Saramago)) (VP (VBD said) (SBAR (S (NP (NP (DT the) (NN book)) (SBAR (S (NP (PRP he)) (VP (VBZ is) (ADVP (RB currently)) (VP (VBG working) (ADVP (RB on))))))) (VP (MD will) (VP (VB be) (VP (VBN called) (NP (NP (DT The) (NNP Cavern)) (CC and) (NP (NNS deals))) (PP (IN with) (NP (NP (DT a) (JJ modern) (NN version)) (PP (IN of) (NP (NP (NN myth)) (PP (IN of) (NP (NP (NNP Plato)) (CC and) (NP (DT the) (NN cave)))))))))))))) (. .)))'
p9649
sg9
S'Regarding the future, Saramago said the book he is currently working on will be called The Cavern and deals with a modern version of myth of Plato and the cave.'
p9650
sg11
(lp9651
(S'root'
p9652
S'ROOT'
p9653
S'said'
p9654
tp9655
a(S'det'
p9656
S'future'
p9657
S'the'
p9658
tp9659
a(S'prep_regarding'
p9660
S'said'
p9661
S'future'
p9662
tp9663
a(S'nsubj'
p9664
S'said'
p9665
S'Saramago'
p9666
tp9667
a(S'det'
p9668
S'book'
p9669
S'the'
p9670
tp9671
a(S'nsubjpass'
p9672
S'called'
p9673
S'book'
p9674
tp9675
a(S'nsubj'
p9676
S'working'
p9677
S'he'
p9678
tp9679
a(S'aux'
p9680
S'working'
p9681
S'is'
p9682
tp9683
a(S'advmod'
p9684
S'working'
p9685
S'currently'
p9686
tp9687
a(S'rcmod'
p9688
S'book'
p9689
S'working'
p9690
tp9691
a(S'advmod'
p9692
S'working'
p9693
S'on'
p9694
tp9695
a(S'aux'
p9696
S'called'
p9697
S'will'
p9698
tp9699
a(S'auxpass'
p9700
S'called'
p9701
S'be'
p9702
tp9703
a(S'ccomp'
p9704
S'said'
p9705
S'called'
p9706
tp9707
a(S'det'
p9708
S'Cavern'
p9709
S'The'
p9710
tp9711
a(S'dobj'
p9712
S'called'
p9713
S'Cavern'
p9714
tp9715
a(S'conj_and'
p9716
S'Cavern'
p9717
S'deals'
p9718
tp9719
a(S'det'
p9720
S'version'
p9721
g1281
tp9722
a(S'amod'
p9723
S'version'
p9724
S'modern'
p9725
tp9726
a(S'prep_with'
p9727
S'called'
p9728
S'version'
p9729
tp9730
a(S'prep_of'
p9731
S'version'
p9732
S'myth'
p9733
tp9734
a(S'prep_of'
p9735
S'myth'
p9736
S'Plato'
p9737
tp9738
a(S'det'
p9739
S'cave'
p9740
S'the'
p9741
tp9742
a(S'conj_and'
p9743
S'Plato'
p9744
S'cave'
p9745
tp9746
asg49
(lp9747
(g9652
S'ROOT-0'
p9748
S'said-6'
p9749
tp9750
a(g9656
S'future-3'
p9751
S'the-2'
p9752
tp9753
a(g9660
S'said-6'
p9754
S'future-3'
p9755
tp9756
a(g9664
S'said-6'
p9757
S'Saramago-5'
p9758
tp9759
a(g9668
S'book-8'
p9760
S'the-7'
p9761
tp9762
a(g9672
S'called-16'
p9763
S'book-8'
p9764
tp9765
a(g9676
S'working-12'
p9766
S'he-9'
p9767
tp9768
a(g9680
S'working-12'
p9769
S'is-10'
p9770
tp9771
a(g9684
S'working-12'
p9772
S'currently-11'
p9773
tp9774
a(g9688
S'book-8'
p9775
S'working-12'
p9776
tp9777
a(g9692
S'working-12'
p9778
S'on-13'
p9779
tp9780
a(g9696
S'called-16'
p9781
S'will-14'
p9782
tp9783
a(g9700
S'called-16'
p9784
S'be-15'
p9785
tp9786
a(g9704
S'said-6'
p9787
S'called-16'
p9788
tp9789
a(g9708
S'Cavern-18'
p9790
S'The-17'
p9791
tp9792
a(g9712
S'called-16'
p9793
S'Cavern-18'
p9794
tp9795
a(g9716
S'Cavern-18'
p9796
S'deals-20'
p9797
tp9798
a(g9720
S'version-24'
p9799
S'a-22'
p9800
tp9801
a(g9723
S'version-24'
p9802
S'modern-23'
p9803
tp9804
a(g9727
S'called-16'
p9805
S'version-24'
p9806
tp9807
a(g9731
S'version-24'
p9808
S'myth-26'
p9809
tp9810
a(g9735
S'myth-26'
p9811
S'Plato-28'
p9812
tp9813
a(g9739
S'cave-31'
p9814
S'the-30'
p9815
tp9816
a(g9743
S'Plato-28'
p9817
S'cave-31'
p9818
tp9819
asg78
(lp9820
(S'Regarding'
p9821
(dp9822
S'NamedEntityTag'
p9823
g83
sS'CharacterOffsetEnd'
p9824
S'2550'
p9825
sS'Lemma'
p9826
S'regard'
p9827
sS'PartOfSpeech'
p9828
S'VBG'
p9829
sS'CharacterOffsetBegin'
p9830
S'2541'
p9831
stp9832
a(S'the'
p9833
(dp9834
S'NormalizedNamedEntityTag'
p9835
S'FUTURE_REF'
p9836
sS'Timex'
p9837
S'<TIMEX3 tid="t14" type="DATE" value="FUTURE_REF">the future</TIMEX3>'
p9838
sS'Lemma'
p9839
S'the'
p9840
sS'CharacterOffsetEnd'
p9841
S'2554'
p9842
sS'PartOfSpeech'
p9843
S'DT'
p9844
sS'CharacterOffsetBegin'
p9845
S'2551'
p9846
sS'NamedEntityTag'
p9847
S'DATE'
p9848
stp9849
a(S'future'
p9850
(dp9851
S'NormalizedNamedEntityTag'
p9852
S'FUTURE_REF'
p9853
sS'Timex'
p9854
S'<TIMEX3 tid="t14" type="DATE" value="FUTURE_REF">the future</TIMEX3>'
p9855
sS'Lemma'
p9856
S'future'
p9857
sS'CharacterOffsetEnd'
p9858
S'2561'
p9859
sS'PartOfSpeech'
p9860
S'NN'
p9861
sS'CharacterOffsetBegin'
p9862
S'2555'
p9863
sS'NamedEntityTag'
p9864
S'DATE'
p9865
stp9866
a(g1392
(dp9867
S'NamedEntityTag'
p9868
g83
sS'CharacterOffsetEnd'
p9869
S'2562'
p9870
sS'Lemma'
p9871
g1392
sS'PartOfSpeech'
p9872
g1392
sS'CharacterOffsetBegin'
p9873
S'2561'
p9874
stp9875
a(S'Saramago'
p9876
(dp9877
S'NamedEntityTag'
p9878
S'PERSON'
p9879
sS'CharacterOffsetEnd'
p9880
S'2571'
p9881
sS'Lemma'
p9882
S'Saramago'
p9883
sS'PartOfSpeech'
p9884
S'NNP'
p9885
sS'CharacterOffsetBegin'
p9886
S'2563'
p9887
stp9888
a(S'said'
p9889
(dp9890
S'NamedEntityTag'
p9891
g83
sS'CharacterOffsetEnd'
p9892
S'2576'
p9893
sS'Lemma'
p9894
S'say'
p9895
sS'PartOfSpeech'
p9896
S'VBD'
p9897
sS'CharacterOffsetBegin'
p9898
S'2572'
p9899
stp9900
a(S'the'
p9901
(dp9902
S'NamedEntityTag'
p9903
g83
sS'CharacterOffsetEnd'
p9904
S'2580'
p9905
sS'Lemma'
p9906
S'the'
p9907
sS'PartOfSpeech'
p9908
S'DT'
p9909
sS'CharacterOffsetBegin'
p9910
S'2577'
p9911
stp9912
a(S'book'
p9913
(dp9914
S'NamedEntityTag'
p9915
g83
sS'CharacterOffsetEnd'
p9916
S'2585'
p9917
sS'Lemma'
p9918
S'book'
p9919
sS'PartOfSpeech'
p9920
S'NN'
p9921
sS'CharacterOffsetBegin'
p9922
S'2581'
p9923
stp9924
a(S'he'
p9925
(dp9926
S'NamedEntityTag'
p9927
g83
sS'CharacterOffsetEnd'
p9928
S'2588'
p9929
sS'Lemma'
p9930
S'he'
p9931
sS'PartOfSpeech'
p9932
S'PRP'
p9933
sS'CharacterOffsetBegin'
p9934
S'2586'
p9935
stp9936
a(S'is'
p9937
(dp9938
S'NamedEntityTag'
p9939
g83
sS'CharacterOffsetEnd'
p9940
S'2591'
p9941
sS'Lemma'
p9942
S'be'
p9943
sS'PartOfSpeech'
p9944
S'VBZ'
p9945
sS'CharacterOffsetBegin'
p9946
S'2589'
p9947
stp9948
a(S'currently'
p9949
(dp9950
S'NormalizedNamedEntityTag'
p9951
S'PRESENT_REF'
p9952
sS'Timex'
p9953
S'<TIMEX3 tid="t15" type="DATE" value="PRESENT_REF">currently</TIMEX3>'
p9954
sS'Lemma'
p9955
S'currently'
p9956
sS'CharacterOffsetEnd'
p9957
S'2601'
p9958
sS'PartOfSpeech'
p9959
S'RB'
p9960
sS'CharacterOffsetBegin'
p9961
S'2592'
p9962
sS'NamedEntityTag'
p9963
S'DATE'
p9964
stp9965
a(S'working'
p9966
(dp9967
S'NamedEntityTag'
p9968
g83
sS'CharacterOffsetEnd'
p9969
S'2609'
p9970
sS'Lemma'
p9971
S'work'
p9972
sS'PartOfSpeech'
p9973
S'VBG'
p9974
sS'CharacterOffsetBegin'
p9975
S'2602'
p9976
stp9977
a(S'on'
p9978
(dp9979
S'NamedEntityTag'
p9980
g83
sS'CharacterOffsetEnd'
p9981
S'2612'
p9982
sS'Lemma'
p9983
S'on'
p9984
sS'PartOfSpeech'
p9985
S'RB'
p9986
sS'CharacterOffsetBegin'
p9987
S'2610'
p9988
stp9989
a(S'will'
p9990
(dp9991
S'NamedEntityTag'
p9992
g83
sS'CharacterOffsetEnd'
p9993
S'2617'
p9994
sS'Lemma'
p9995
S'will'
p9996
sS'PartOfSpeech'
p9997
S'MD'
p9998
sS'CharacterOffsetBegin'
p9999
S'2613'
p10000
stp10001
a(S'be'
p10002
(dp10003
S'NamedEntityTag'
p10004
g83
sS'CharacterOffsetEnd'
p10005
S'2620'
p10006
sS'Lemma'
p10007
S'be'
p10008
sS'PartOfSpeech'
p10009
S'VB'
p10010
sS'CharacterOffsetBegin'
p10011
S'2618'
p10012
stp10013
a(S'called'
p10014
(dp10015
S'NamedEntityTag'
p10016
g83
sS'CharacterOffsetEnd'
p10017
S'2627'
p10018
sS'Lemma'
p10019
S'call'
p10020
sS'PartOfSpeech'
p10021
S'VBN'
p10022
sS'CharacterOffsetBegin'
p10023
S'2621'
p10024
stp10025
a(S'The'
p10026
(dp10027
S'NamedEntityTag'
p10028
g83
sS'CharacterOffsetEnd'
p10029
S'2631'
p10030
sS'Lemma'
p10031
S'the'
p10032
sS'PartOfSpeech'
p10033
S'DT'
p10034
sS'CharacterOffsetBegin'
p10035
S'2628'
p10036
stp10037
a(S'Cavern'
p10038
(dp10039
S'NamedEntityTag'
p10040
g83
sS'CharacterOffsetEnd'
p10041
S'2638'
p10042
sS'Lemma'
p10043
S'Cavern'
p10044
sS'PartOfSpeech'
p10045
S'NNP'
p10046
sS'CharacterOffsetBegin'
p10047
S'2632'
p10048
stp10049
a(S'and'
p10050
(dp10051
S'NamedEntityTag'
p10052
g83
sS'CharacterOffsetEnd'
p10053
S'2642'
p10054
sS'Lemma'
p10055
S'and'
p10056
sS'PartOfSpeech'
p10057
S'CC'
p10058
sS'CharacterOffsetBegin'
p10059
S'2639'
p10060
stp10061
a(S'deals'
p10062
(dp10063
S'NamedEntityTag'
p10064
g83
sS'CharacterOffsetEnd'
p10065
S'2648'
p10066
sS'Lemma'
p10067
S'deal'
p10068
sS'PartOfSpeech'
p10069
S'NNS'
p10070
sS'CharacterOffsetBegin'
p10071
S'2643'
p10072
stp10073
a(S'with'
p10074
(dp10075
S'NamedEntityTag'
p10076
g83
sS'CharacterOffsetEnd'
p10077
S'2653'
p10078
sS'Lemma'
p10079
S'with'
p10080
sS'PartOfSpeech'
p10081
S'IN'
p10082
sS'CharacterOffsetBegin'
p10083
S'2649'
p10084
stp10085
a(g1281
(dp10086
S'NamedEntityTag'
p10087
g83
sS'CharacterOffsetEnd'
p10088
S'2655'
p10089
sS'Lemma'
p10090
g1281
sS'PartOfSpeech'
p10091
S'DT'
p10092
sS'CharacterOffsetBegin'
p10093
S'2654'
p10094
stp10095
a(S'modern'
p10096
(dp10097
S'NamedEntityTag'
p10098
g83
sS'CharacterOffsetEnd'
p10099
S'2662'
p10100
sS'Lemma'
p10101
S'modern'
p10102
sS'PartOfSpeech'
p10103
S'JJ'
p10104
sS'CharacterOffsetBegin'
p10105
S'2656'
p10106
stp10107
a(S'version'
p10108
(dp10109
S'NamedEntityTag'
p10110
g83
sS'CharacterOffsetEnd'
p10111
S'2670'
p10112
sS'Lemma'
p10113
S'version'
p10114
sS'PartOfSpeech'
p10115
S'NN'
p10116
sS'CharacterOffsetBegin'
p10117
S'2663'
p10118
stp10119
a(S'of'
p10120
(dp10121
S'NamedEntityTag'
p10122
g83
sS'CharacterOffsetEnd'
p10123
S'2673'
p10124
sS'Lemma'
p10125
S'of'
p10126
sS'PartOfSpeech'
p10127
S'IN'
p10128
sS'CharacterOffsetBegin'
p10129
S'2671'
p10130
stp10131
a(S'myth'
p10132
(dp10133
S'NamedEntityTag'
p10134
g83
sS'CharacterOffsetEnd'
p10135
S'2678'
p10136
sS'Lemma'
p10137
S'myth'
p10138
sS'PartOfSpeech'
p10139
S'NN'
p10140
sS'CharacterOffsetBegin'
p10141
S'2674'
p10142
stp10143
a(S'of'
p10144
(dp10145
S'NamedEntityTag'
p10146
g83
sS'CharacterOffsetEnd'
p10147
S'2681'
p10148
sS'Lemma'
p10149
S'of'
p10150
sS'PartOfSpeech'
p10151
S'IN'
p10152
sS'CharacterOffsetBegin'
p10153
S'2679'
p10154
stp10155
a(S'Plato'
p10156
(dp10157
S'NamedEntityTag'
p10158
S'PERSON'
p10159
sS'CharacterOffsetEnd'
p10160
S'2687'
p10161
sS'Lemma'
p10162
S'Plato'
p10163
sS'PartOfSpeech'
p10164
S'NNP'
p10165
sS'CharacterOffsetBegin'
p10166
S'2682'
p10167
stp10168
a(S'and'
p10169
(dp10170
S'NamedEntityTag'
p10171
g83
sS'CharacterOffsetEnd'
p10172
S'2691'
p10173
sS'Lemma'
p10174
S'and'
p10175
sS'PartOfSpeech'
p10176
S'CC'
p10177
sS'CharacterOffsetBegin'
p10178
S'2688'
p10179
stp10180
a(S'the'
p10181
(dp10182
S'NamedEntityTag'
p10183
g83
sS'CharacterOffsetEnd'
p10184
S'2695'
p10185
sS'Lemma'
p10186
S'the'
p10187
sS'PartOfSpeech'
p10188
S'DT'
p10189
sS'CharacterOffsetBegin'
p10190
S'2692'
p10191
stp10192
a(S'cave'
p10193
(dp10194
S'NamedEntityTag'
p10195
g83
sS'CharacterOffsetEnd'
p10196
S'2700'
p10197
sS'Lemma'
p10198
S'cave'
p10199
sS'PartOfSpeech'
p10200
S'NN'
p10201
sS'CharacterOffsetBegin'
p10202
S'2696'
p10203
stp10204
a(g676
(dp10205
S'NamedEntityTag'
p10206
g83
sS'CharacterOffsetEnd'
p10207
S'2701'
p10208
sS'Lemma'
p10209
g676
sS'PartOfSpeech'
p10210
g676
sS'CharacterOffsetBegin'
p10211
S'2700'
p10212
stp10213
asass.