(dp0
S'models'
p1
(lp2
(dp3
S'coref'
p4
(lp5
(lp6
((S'it'
p7
I0
I7
I7
I8
tp8
(S'Zarya'
p9
I0
I4
I4
I5
tp10
tp11
aasS'sentences'
p12
(lp13
(dp14
S'parsetree'
p15
S'(ROOT (S (NP (NNS Astronauts)) (VP (VBP prepare) (S (VP (TO to) (VP (VP (VB capture) (NP (NNP Zarya))) (CC and) (VP (VB connect) (NP (PRP it)) (PP (TO to) (NP (DT the) (NNP Unity) (NN chamber))))))))))'
p16
sS'text'
p17
S'Astronauts prepare to capture Zarya and connect it to the Unity chamber'
p18
sS'dependencies'
p19
(lp20
(S'root'
p21
S'ROOT'
p22
S'prepare'
p23
tp24
a(S'nsubj'
p25
S'prepare'
p26
S'Astronauts'
p27
tp28
a(S'aux'
p29
S'capture'
p30
S'to'
p31
tp32
a(S'xcomp'
p33
S'prepare'
p34
S'capture'
p35
tp36
a(S'dobj'
p37
S'capture'
p38
S'Zarya'
p39
tp40
a(S'conj_and'
p41
S'capture'
p42
S'connect'
p43
tp44
a(S'dobj'
p45
S'connect'
p46
S'it'
p47
tp48
a(S'det'
p49
S'chamber'
p50
S'the'
p51
tp52
a(S'nn'
p53
S'chamber'
p54
S'Unity'
p55
tp56
a(S'prep_to'
p57
S'connect'
p58
S'chamber'
p59
tp60
asS'indexeddependencies'
p61
(lp62
(g21
S'ROOT-0'
p63
S'prepare-2'
p64
tp65
a(g25
S'prepare-2'
p66
S'Astronauts-1'
p67
tp68
a(g29
S'capture-4'
p69
S'to-3'
p70
tp71
a(g33
S'prepare-2'
p72
S'capture-4'
p73
tp74
a(g37
S'capture-4'
p75
S'Zarya-5'
p76
tp77
a(g41
S'capture-4'
p78
S'connect-7'
p79
tp80
a(g45
S'connect-7'
p81
S'it-8'
p82
tp83
a(g49
S'chamber-12'
p84
S'the-10'
p85
tp86
a(g53
S'chamber-12'
p87
S'Unity-11'
p88
tp89
a(g57
S'connect-7'
p90
S'chamber-12'
p91
tp92
asS'words'
p93
(lp94
(S'Astronauts'
p95
(dp96
S'NamedEntityTag'
p97
S'O'
p98
sS'CharacterOffsetEnd'
p99
S'11'
p100
sS'Lemma'
p101
S'astronaut'
p102
sS'PartOfSpeech'
p103
S'NNS'
p104
sS'CharacterOffsetBegin'
p105
S'1'
p106
stp107
a(S'prepare'
p108
(dp109
S'NamedEntityTag'
p110
g98
sS'CharacterOffsetEnd'
p111
S'19'
p112
sS'Lemma'
p113
S'prepare'
p114
sS'PartOfSpeech'
p115
S'VBP'
p116
sS'CharacterOffsetBegin'
p117
S'12'
p118
stp119
a(S'to'
p120
(dp121
S'NamedEntityTag'
p122
g98
sS'CharacterOffsetEnd'
p123
S'22'
p124
sS'Lemma'
p125
S'to'
p126
sS'PartOfSpeech'
p127
S'TO'
p128
sS'CharacterOffsetBegin'
p129
S'20'
p130
stp131
a(S'capture'
p132
(dp133
S'NamedEntityTag'
p134
g98
sS'CharacterOffsetEnd'
p135
S'30'
p136
sS'Lemma'
p137
S'capture'
p138
sS'PartOfSpeech'
p139
S'VB'
p140
sS'CharacterOffsetBegin'
p141
S'23'
p142
stp143
a(S'Zarya'
p144
(dp145
S'NamedEntityTag'
p146
g98
sS'CharacterOffsetEnd'
p147
S'36'
p148
sS'Lemma'
p149
S'Zarya'
p150
sS'PartOfSpeech'
p151
S'NNP'
p152
sS'CharacterOffsetBegin'
p153
S'31'
p154
stp155
a(S'and'
p156
(dp157
S'NamedEntityTag'
p158
g98
sS'CharacterOffsetEnd'
p159
S'40'
p160
sS'Lemma'
p161
S'and'
p162
sS'PartOfSpeech'
p163
S'CC'
p164
sS'CharacterOffsetBegin'
p165
S'37'
p166
stp167
a(S'connect'
p168
(dp169
S'NamedEntityTag'
p170
g98
sS'CharacterOffsetEnd'
p171
S'48'
p172
sS'Lemma'
p173
S'connect'
p174
sS'PartOfSpeech'
p175
S'VB'
p176
sS'CharacterOffsetBegin'
p177
S'41'
p178
stp179
a(S'it'
p180
(dp181
S'NamedEntityTag'
p182
g98
sS'CharacterOffsetEnd'
p183
S'51'
p184
sS'Lemma'
p185
S'it'
p186
sS'PartOfSpeech'
p187
S'PRP'
p188
sS'CharacterOffsetBegin'
p189
S'49'
p190
stp191
a(S'to'
p192
(dp193
S'NamedEntityTag'
p194
g98
sS'CharacterOffsetEnd'
p195
S'54'
p196
sS'Lemma'
p197
S'to'
p198
sS'PartOfSpeech'
p199
S'TO'
p200
sS'CharacterOffsetBegin'
p201
S'52'
p202
stp203
a(S'the'
p204
(dp205
S'NamedEntityTag'
p206
g98
sS'CharacterOffsetEnd'
p207
S'58'
p208
sS'Lemma'
p209
S'the'
p210
sS'PartOfSpeech'
p211
S'DT'
p212
sS'CharacterOffsetBegin'
p213
S'55'
p214
stp215
a(S'Unity'
p216
(dp217
S'NamedEntityTag'
p218
g98
sS'CharacterOffsetEnd'
p219
S'64'
p220
sS'Lemma'
p221
S'Unity'
p222
sS'PartOfSpeech'
p223
S'NNP'
p224
sS'CharacterOffsetBegin'
p225
S'59'
p226
stp227
a(S'chamber'
p228
(dp229
S'NamedEntityTag'
p230
g98
sS'CharacterOffsetEnd'
p231
S'72'
p232
sS'Lemma'
p233
S'chamber'
p234
sS'PartOfSpeech'
p235
S'NN'
p236
sS'CharacterOffsetBegin'
p237
S'65'
p238
stp239
asasa(dp240
g12
(lp241
(dp242
g15
S'(ROOT (S (NP (NN Endeavor)) (VP (VBZ closes) (PP (IN in) (IN for) (NP (NP (NN connection)) (PP (IN of) (NP (NN space) (NN station) (NNS cylinders)))))) (. .)))'
p243
sg17
S'Endeavor closes in for connection of space station cylinders.'
p244
sg19
(lp245
(S'root'
p246
S'ROOT'
p247
S'closes'
p248
tp249
a(S'nsubj'
p250
S'closes'
p251
S'Endeavor'
p252
tp253
a(S'dep'
p254
S'closes'
p255
S'in'
p256
tp257
a(S'prep_for'
p258
S'closes'
p259
S'connection'
p260
tp261
a(S'nn'
p262
S'cylinders'
p263
S'space'
p264
tp265
a(S'nn'
p266
S'cylinders'
p267
S'station'
p268
tp269
a(S'prep_of'
p270
S'connection'
p271
S'cylinders'
p272
tp273
asg61
(lp274
(g246
S'ROOT-0'
p275
S'closes-2'
p276
tp277
a(g250
S'closes-2'
p278
S'Endeavor-1'
p279
tp280
a(g254
S'closes-2'
p281
S'in-3'
p282
tp283
a(g258
S'closes-2'
p284
S'connection-5'
p285
tp286
a(g262
S'cylinders-9'
p287
S'space-7'
p288
tp289
a(g266
S'cylinders-9'
p290
S'station-8'
p291
tp292
a(g270
S'connection-5'
p293
S'cylinders-9'
p294
tp295
asg93
(lp296
(S'Endeavor'
p297
(dp298
S'NamedEntityTag'
p299
g98
sS'CharacterOffsetEnd'
p300
S'9'
p301
sS'Lemma'
p302
S'endeavor'
p303
sS'PartOfSpeech'
p304
S'NN'
p305
sS'CharacterOffsetBegin'
p306
g106
stp307
a(S'closes'
p308
(dp309
S'NamedEntityTag'
p310
g98
sS'CharacterOffsetEnd'
p311
S'16'
p312
sS'Lemma'
p313
S'close'
p314
sS'PartOfSpeech'
p315
S'VBZ'
p316
sS'CharacterOffsetBegin'
p317
S'10'
p318
stp319
a(S'in'
p320
(dp321
S'NamedEntityTag'
p322
g98
sS'CharacterOffsetEnd'
p323
S'19'
p324
sS'Lemma'
p325
S'in'
p326
sS'PartOfSpeech'
p327
S'IN'
p328
sS'CharacterOffsetBegin'
p329
S'17'
p330
stp331
a(S'for'
p332
(dp333
S'NamedEntityTag'
p334
g98
sS'CharacterOffsetEnd'
p335
S'23'
p336
sS'Lemma'
p337
S'for'
p338
sS'PartOfSpeech'
p339
S'IN'
p340
sS'CharacterOffsetBegin'
p341
S'20'
p342
stp343
a(S'connection'
p344
(dp345
S'NamedEntityTag'
p346
g98
sS'CharacterOffsetEnd'
p347
S'34'
p348
sS'Lemma'
p349
S'connection'
p350
sS'PartOfSpeech'
p351
S'NN'
p352
sS'CharacterOffsetBegin'
p353
S'24'
p354
stp355
a(S'of'
p356
(dp357
S'NamedEntityTag'
p358
g98
sS'CharacterOffsetEnd'
p359
S'37'
p360
sS'Lemma'
p361
S'of'
p362
sS'PartOfSpeech'
p363
S'IN'
p364
sS'CharacterOffsetBegin'
p365
S'35'
p366
stp367
a(S'space'
p368
(dp369
S'NamedEntityTag'
p370
g98
sS'CharacterOffsetEnd'
p371
S'43'
p372
sS'Lemma'
p373
S'space'
p374
sS'PartOfSpeech'
p375
S'NN'
p376
sS'CharacterOffsetBegin'
p377
S'38'
p378
stp379
a(S'station'
p380
(dp381
S'NamedEntityTag'
p382
g98
sS'CharacterOffsetEnd'
p383
S'51'
p384
sS'Lemma'
p385
S'station'
p386
sS'PartOfSpeech'
p387
S'NN'
p388
sS'CharacterOffsetBegin'
p389
S'44'
p390
stp391
a(S'cylinders'
p392
(dp393
S'NamedEntityTag'
p394
g98
sS'CharacterOffsetEnd'
p395
S'61'
p396
sS'Lemma'
p397
S'cylinder'
p398
sS'PartOfSpeech'
p399
S'NNS'
p400
sS'CharacterOffsetBegin'
p401
S'52'
p402
stp403
a(S'.'
p404
(dp405
S'NamedEntityTag'
p406
g98
sS'CharacterOffsetEnd'
p407
S'62'
p408
sS'Lemma'
p409
g404
sS'PartOfSpeech'
p410
g404
sS'CharacterOffsetBegin'
p411
S'61'
p412
stp413
asasa(dp414
g12
(lp415
(dp416
g15
S'(ROOT (S (NP (NNP Endeavour) (NNS astronauts)) (VP (VBN set) (S (VP (TO to) (VP (VB join) (NP (NP (RB first) (CD two) (NNS components)) (PP (IN of) (NP (NN space) (NN station))))))))))'
p417
sg17
S'Endeavour astronauts set to join first two components of space station'
p418
sg19
(lp419
(S'root'
p420
S'ROOT'
p421
S'set'
p422
tp423
a(S'nn'
p424
S'astronauts'
p425
S'Endeavour'
p426
tp427
a(S'nsubj'
p428
S'set'
p429
S'astronauts'
p430
tp431
a(S'aux'
p432
S'join'
p433
S'to'
p434
tp435
a(S'xcomp'
p436
S'set'
p437
S'join'
p438
tp439
a(S'advmod'
p440
S'components'
p441
S'first'
p442
tp443
a(S'num'
p444
S'components'
p445
S'two'
p446
tp447
a(S'dobj'
p448
S'join'
p449
S'components'
p450
tp451
a(S'nn'
p452
S'station'
p453
S'space'
p454
tp455
a(S'prep_of'
p456
S'components'
p457
S'station'
p458
tp459
asg61
(lp460
(g420
S'ROOT-0'
p461
S'set-3'
p462
tp463
a(g424
S'astronauts-2'
p464
S'Endeavour-1'
p465
tp466
a(g428
S'set-3'
p467
S'astronauts-2'
p468
tp469
a(g432
S'join-5'
p470
S'to-4'
p471
tp472
a(g436
S'set-3'
p473
S'join-5'
p474
tp475
a(g440
S'components-8'
p476
S'first-6'
p477
tp478
a(g444
S'components-8'
p479
S'two-7'
p480
tp481
a(g448
S'join-5'
p482
S'components-8'
p483
tp484
a(g452
S'station-11'
p485
S'space-10'
p486
tp487
a(g456
S'components-8'
p488
S'station-11'
p489
tp490
asg93
(lp491
(S'Endeavour'
p492
(dp493
S'NamedEntityTag'
p494
g98
sS'CharacterOffsetEnd'
p495
S'10'
p496
sS'Lemma'
p497
S'Endeavour'
p498
sS'PartOfSpeech'
p499
S'NNP'
p500
sS'CharacterOffsetBegin'
p501
g106
stp502
a(S'astronauts'
p503
(dp504
S'NamedEntityTag'
p505
g98
sS'CharacterOffsetEnd'
p506
S'21'
p507
sS'Lemma'
p508
S'astronaut'
p509
sS'PartOfSpeech'
p510
S'NNS'
p511
sS'CharacterOffsetBegin'
p512
S'11'
p513
stp514
a(S'set'
p515
(dp516
S'NamedEntityTag'
p517
g98
sS'CharacterOffsetEnd'
p518
S'25'
p519
sS'Lemma'
p520
S'set'
p521
sS'PartOfSpeech'
p522
S'VBN'
p523
sS'CharacterOffsetBegin'
p524
S'22'
p525
stp526
a(S'to'
p527
(dp528
S'NamedEntityTag'
p529
g98
sS'CharacterOffsetEnd'
p530
S'28'
p531
sS'Lemma'
p532
S'to'
p533
sS'PartOfSpeech'
p534
S'TO'
p535
sS'CharacterOffsetBegin'
p536
S'26'
p537
stp538
a(S'join'
p539
(dp540
S'NamedEntityTag'
p541
g98
sS'CharacterOffsetEnd'
p542
S'33'
p543
sS'Lemma'
p544
S'join'
p545
sS'PartOfSpeech'
p546
S'VB'
p547
sS'CharacterOffsetBegin'
p548
S'29'
p549
stp550
a(S'first'
p551
(dp552
S'NormalizedNamedEntityTag'
p553
S'1.0'
p554
sS'Lemma'
p555
S'first'
p556
sS'CharacterOffsetEnd'
p557
S'39'
p558
sS'PartOfSpeech'
p559
S'RB'
p560
sS'CharacterOffsetBegin'
p561
S'34'
p562
sS'NamedEntityTag'
p563
S'ORDINAL'
p564
stp565
a(S'two'
p566
(dp567
S'NormalizedNamedEntityTag'
p568
S'2.0'
p569
sS'Lemma'
p570
S'two'
p571
sS'CharacterOffsetEnd'
p572
S'43'
p573
sS'PartOfSpeech'
p574
S'CD'
p575
sS'CharacterOffsetBegin'
p576
S'40'
p577
sS'NamedEntityTag'
p578
S'NUMBER'
p579
stp580
a(S'components'
p581
(dp582
S'NamedEntityTag'
p583
g98
sS'CharacterOffsetEnd'
p584
S'54'
p585
sS'Lemma'
p586
S'component'
p587
sS'PartOfSpeech'
p588
S'NNS'
p589
sS'CharacterOffsetBegin'
p590
S'44'
p591
stp592
a(S'of'
p593
(dp594
S'NamedEntityTag'
p595
g98
sS'CharacterOffsetEnd'
p596
S'57'
p597
sS'Lemma'
p598
S'of'
p599
sS'PartOfSpeech'
p600
S'IN'
p601
sS'CharacterOffsetBegin'
p602
S'55'
p603
stp604
a(S'space'
p605
(dp606
S'NamedEntityTag'
p607
g98
sS'CharacterOffsetEnd'
p608
S'63'
p609
sS'Lemma'
p610
S'space'
p611
sS'PartOfSpeech'
p612
S'NN'
p613
sS'CharacterOffsetBegin'
p614
S'58'
p615
stp616
a(S'station'
p617
(dp618
S'NamedEntityTag'
p619
g98
sS'CharacterOffsetEnd'
p620
S'71'
p621
sS'Lemma'
p622
S'station'
p623
sS'PartOfSpeech'
p624
S'NN'
p625
sS'CharacterOffsetBegin'
p626
S'64'
p627
stp628
asasa(dp629
g12
(lp630
(dp631
g15
S'(ROOT (NP (NP (NN Shuttle)) (PP (TO to) (NP (NN blind-dock))) (PP (IN with) (NP (NNP Zarya))) (. .)))'
p632
sg17
S'Shuttle to blind-dock with Zarya.'
p633
sg19
(lp634
(S'root'
p635
S'ROOT'
p636
S'Shuttle'
p637
tp638
a(S'prep_to'
p639
S'Shuttle'
p640
S'blind-dock'
p641
tp642
a(S'prep_with'
p643
S'Shuttle'
p644
S'Zarya'
p645
tp646
asg61
(lp647
(g635
S'ROOT-0'
p648
S'Shuttle-1'
p649
tp650
a(g639
S'Shuttle-1'
p651
S'blind-dock-3'
p652
tp653
a(g643
S'Shuttle-1'
p654
S'Zarya-5'
p655
tp656
asg93
(lp657
(S'Shuttle'
p658
(dp659
S'NamedEntityTag'
p660
g98
sS'CharacterOffsetEnd'
p661
S'8'
p662
sS'Lemma'
p663
S'shuttle'
p664
sS'PartOfSpeech'
p665
S'NN'
p666
sS'CharacterOffsetBegin'
p667
g106
stp668
a(S'to'
p669
(dp670
S'NamedEntityTag'
p671
g98
sS'CharacterOffsetEnd'
p672
S'11'
p673
sS'Lemma'
p674
S'to'
p675
sS'PartOfSpeech'
p676
S'TO'
p677
sS'CharacterOffsetBegin'
p678
g301
stp679
a(S'blind-dock'
p680
(dp681
S'NamedEntityTag'
p682
g98
sS'CharacterOffsetEnd'
p683
S'22'
p684
sS'Lemma'
p685
S'blind-dock'
p686
sS'PartOfSpeech'
p687
S'NN'
p688
sS'CharacterOffsetBegin'
p689
S'12'
p690
stp691
a(S'with'
p692
(dp693
S'NamedEntityTag'
p694
g98
sS'CharacterOffsetEnd'
p695
S'27'
p696
sS'Lemma'
p697
S'with'
p698
sS'PartOfSpeech'
p699
S'IN'
p700
sS'CharacterOffsetBegin'
p701
S'23'
p702
stp703
a(S'Zarya'
p704
(dp705
S'NamedEntityTag'
p706
g98
sS'CharacterOffsetEnd'
p707
S'33'
p708
sS'Lemma'
p709
S'Zarya'
p710
sS'PartOfSpeech'
p711
S'NNP'
p712
sS'CharacterOffsetBegin'
p713
S'28'
p714
stp715
a(g404
(dp716
S'NamedEntityTag'
p717
g98
sS'CharacterOffsetEnd'
p718
S'34'
p719
sS'Lemma'
p720
g404
sS'PartOfSpeech'
p721
g404
sS'CharacterOffsetBegin'
p722
S'33'
p723
stp724
asa(dp725
g15
S'(ROOT (S (NP (NNP Unity)) (VP (TO to) (VP (VB serve) (PP (IN as) (NP (JJ future) (NN passageway))))) (. .)))'
p726
sg17
S'Unity to serve as future passageway.'
p727
sg19
(lp728
(S'root'
p729
S'ROOT'
p730
S'serve'
p731
tp732
a(S'nsubj'
p733
S'serve'
p734
S'Unity'
p735
tp736
a(S'aux'
p737
S'serve'
p738
S'to'
p739
tp740
a(S'amod'
p741
S'passageway'
p742
S'future'
p743
tp744
a(S'prep_as'
p745
S'serve'
p746
S'passageway'
p747
tp748
asg61
(lp749
(g729
S'ROOT-0'
p750
S'serve-3'
p751
tp752
a(g733
S'serve-3'
p753
S'Unity-1'
p754
tp755
a(g737
S'serve-3'
p756
S'to-2'
p757
tp758
a(g741
S'passageway-6'
p759
S'future-5'
p760
tp761
a(g745
S'serve-3'
p762
S'passageway-6'
p763
tp764
asg93
(lp765
(S'Unity'
p766
(dp767
S'NamedEntityTag'
p768
g98
sS'CharacterOffsetEnd'
p769
S'40'
p770
sS'Lemma'
p771
S'Unity'
p772
sS'PartOfSpeech'
p773
S'NNP'
p774
sS'CharacterOffsetBegin'
p775
S'35'
p776
stp777
a(S'to'
p778
(dp779
S'NamedEntityTag'
p780
g98
sS'CharacterOffsetEnd'
p781
S'43'
p782
sS'Lemma'
p783
S'to'
p784
sS'PartOfSpeech'
p785
S'TO'
p786
sS'CharacterOffsetBegin'
p787
S'41'
p788
stp789
a(S'serve'
p790
(dp791
S'NamedEntityTag'
p792
g98
sS'CharacterOffsetEnd'
p793
S'49'
p794
sS'Lemma'
p795
S'serve'
p796
sS'PartOfSpeech'
p797
S'VB'
p798
sS'CharacterOffsetBegin'
p799
S'44'
p800
stp801
a(S'as'
p802
(dp803
S'NamedEntityTag'
p804
g98
sS'CharacterOffsetEnd'
p805
S'52'
p806
sS'Lemma'
p807
S'as'
p808
sS'PartOfSpeech'
p809
S'IN'
p810
sS'CharacterOffsetBegin'
p811
S'50'
p812
stp813
a(S'future'
p814
(dp815
S'NormalizedNamedEntityTag'
p816
S'FUTURE_REF'
p817
sS'Timex'
p818
S'<TIMEX3 tid="t1" type="DATE" value="FUTURE_REF">future</TIMEX3>'
p819
sS'Lemma'
p820
S'future'
p821
sS'CharacterOffsetEnd'
p822
S'59'
p823
sS'PartOfSpeech'
p824
S'JJ'
p825
sS'CharacterOffsetBegin'
p826
S'53'
p827
sS'NamedEntityTag'
p828
S'DATE'
p829
stp830
a(S'passageway'
p831
(dp832
S'NamedEntityTag'
p833
g98
sS'CharacterOffsetEnd'
p834
S'70'
p835
sS'Lemma'
p836
S'passageway'
p837
sS'PartOfSpeech'
p838
S'NN'
p839
sS'CharacterOffsetBegin'
p840
S'60'
p841
stp842
a(g404
(dp843
S'NamedEntityTag'
p844
g98
sS'CharacterOffsetEnd'
p845
S'71'
p846
sS'Lemma'
p847
g404
sS'PartOfSpeech'
p848
g404
sS'CharacterOffsetBegin'
p849
S'70'
p850
stp851
asasasS'article'
p852
(dp853
g4
(lp854
(lp855
((S'Russian-made Zarya'
p856
I0
I0
I19
I21
tp857
(S'the 44,000-pound Zarya'
p858
I12
I-1
I17
I20
tp859
tp860
a((S'Zarya'
p861
I8
I6
I6
I7
tp862
(S'the 44,000-pound Zarya'
p863
I12
I-1
I17
I20
tp864
tp865
a((S'Zarya'
p866
I11
I4
I14
I15
tp867
(S'the 44,000-pound Zarya'
p868
I12
I-1
I17
I20
tp869
tp870
a((S'Zarya'
p871
I15
I2
I2
I3
tp872
(S'the 44,000-pound Zarya'
p873
I12
I-1
I17
I20
tp874
tp875
aa(lp876
((S'its'
p877
I0
I2
I2
I3
tp878
(S'Endeavour'
p879
I0
I0
I0
I1
tp880
tp881
a((S'Endeavour'
p882
I9
I7
I17
I18
tp883
(S'Endeavour'
p884
I0
I0
I0
I1
tp885
tp886
a((S'Endeavour'
p887
I9
I4
I24
I25
tp888
(S'Endeavour'
p889
I0
I0
I0
I1
tp890
tp891
aa(lp892
((S'the astronauts'
p893
I5
I4
I3
I5
tp894
(S'its astronauts'
p895
I0
I3
I2
I4
tp896
tp897
a((S'their'
p898
I8
I2
I2
I3
tp899
(S'its astronauts'
p900
I0
I3
I2
I4
tp901
tp902
a((S'The astronauts'
p903
I16
I1
I0
I2
tp904
(S'its astronauts'
p905
I0
I3
I2
I4
tp906
tp907
aa(lp908
((S'the international space station'
p909
I0
I6
I13
I17
tp910
(S'the Russian-made Zarya control module that had to be connected to the Unity chamber aboard the shuttle'
p911
I0
I2
I18
I35
tp912
tp913
aa(lp914
((S'two'
p915
I3
I1
I1
I2
tp916
(S'two'
p917
I1
I2
I2
I3
tp918
tp919
a((S'two'
p920
I16
I6
I16
I17
tp921
(S'two'
p922
I1
I2
I2
I3
tp923
tp924
aa(lp925
((S'Currie'
p926
I3
I0
I30
I31
tp927
(S'Nancy Currie'
p928
I2
I5
I4
I6
tp929
tp930
a((S'her'
p931
I3
I2
I32
I33
tp932
(S'Nancy Currie'
p933
I2
I5
I4
I6
tp934
tp935
aa(lp936
((S'this mission'
p937
I18
I4
I13
I15
tp938
(S'the mission'
p939
I1
I8
I17
I19
tp940
tp941
aa(lp942
((S'Unity'
p943
I11
I0
I20
I21
tp944
(S'Unity in the cargo bay'
p945
I2
I7
I17
I22
tp946
tp947
a((S'Unity'
p948
I15
I4
I4
I5
tp949
(S'Unity in the cargo bay'
p950
I2
I7
I17
I22
tp951
tp952
aa(lp953
((S'Mission Control'
p954
I9
I1
I0
I2
tp955
(S'Mission Control'
p956
I5
I1
I0
I2
tp957
tp958
a((S'Mission Control'
p959
I10
I5
I14
I16
tp960
(S'Mission Control'
p961
I5
I1
I0
I2
tp962
tp963
aa(lp964
((S'time'
p965
I6
I1
I21
I22
tp966
(S'time for the tasks'
p967
I5
I7
I7
I11
tp968
tp969
aa(lp970
((S'We'
p971
I7
I0
I0
I1
tp972
(S'we'
p973
I6
I-1
I19
I20
tp974
tp975
aa(lp976
((S'astronauts'
p977
I15
I6
I16
I17
tp978
(S'six astronauts had to steer clear of a chunk of a rocket launched last month from California'
p979
I8
I5
I14
I31
tp980
tp981
aa(lp982
((S'three'
p983
I17
I3
I3
I4
tp984
(S'three'
p985
I9
I4
I14
I15
tp986
tp987
aa(lp988
((S'its'
p989
I11
I7
I17
I18
tp990
(S'The bigger worry'
p991
I11
I2
I0
I3
tp992
tp993
aa(lp994
((S'It'
p995
I13
I0
I0
I1
tp996
(S'an object'
p997
I12
I3
I12
I14
tp998
tp999
aa(lp1000
((S'them'
p1001
I15
I2
I22
I23
tp1002
(S'Zarya and Unity'
p1003
I15
I2
I2
I5
tp1004
tp1005
aasg12
(lp1006
(dp1007
g15
S'(ROOT (S (NP (NP (NNP Endeavour)) (CC and) (NP (PRP$ its) (NNS astronauts))) (VP (VBD closed) (PP (IN in) (NP (NNP Sunday))) (S (VP (TO to) (VP (VB capture) (NP (NP (DT the) (JJ first) (NN piece)) (PP (IN of) (NP (NP (DT the) (JJ international) (NN space) (NN station)) (, ,) (NP (NP (DT the) (JJ Russian-made) (NNP Zarya) (NN control) (NN module)) (SBAR (WHNP (WDT that)) (S (VP (VBD had) (S (VP (TO to) (VP (VB be) (VP (VBN connected) (PP (TO to) (NP (DT the) (NNP Unity) (NN chamber))) (PP (IN aboard) (NP (DT the) (NN shuttle)))))))))))))))))) (. .)))'
p1008
sg17
S'Endeavour and its astronauts closed in Sunday to capture the first piece of the international space station, the Russian-made Zarya control module that had to be connected to the Unity chamber aboard the shuttle.'
p1009
sg19
(lp1010
(S'root'
p1011
S'ROOT'
p1012
S'closed'
p1013
tp1014
a(S'nsubj'
p1015
S'closed'
p1016
S'Endeavour'
p1017
tp1018
a(S'poss'
p1019
S'astronauts'
p1020
S'its'
p1021
tp1022
a(S'conj_and'
p1023
S'Endeavour'
p1024
S'astronauts'
p1025
tp1026
a(S'prep_in'
p1027
S'closed'
p1028
S'Sunday'
p1029
tp1030
a(S'aux'
p1031
S'capture'
p1032
S'to'
p1033
tp1034
a(S'xcomp'
p1035
S'closed'
p1036
S'capture'
p1037
tp1038
a(S'det'
p1039
S'piece'
p1040
S'the'
p1041
tp1042
a(S'amod'
p1043
S'piece'
p1044
S'first'
p1045
tp1046
a(S'dobj'
p1047
S'capture'
p1048
S'piece'
p1049
tp1050
a(S'det'
p1051
S'station'
p1052
S'the'
p1053
tp1054
a(S'amod'
p1055
S'station'
p1056
S'international'
p1057
tp1058
a(S'nn'
p1059
S'station'
p1060
S'space'
p1061
tp1062
a(S'prep_of'
p1063
S'piece'
p1064
S'station'
p1065
tp1066
a(S'det'
p1067
S'module'
p1068
S'the'
p1069
tp1070
a(S'amod'
p1071
S'module'
p1072
S'Russian-made'
p1073
tp1074
a(S'nn'
p1075
S'module'
p1076
S'Zarya'
p1077
tp1078
a(S'nn'
p1079
S'module'
p1080
S'control'
p1081
tp1082
a(S'appos'
p1083
S'station'
p1084
S'module'
p1085
tp1086
a(S'nsubj'
p1087
S'had'
p1088
S'that'
p1089
tp1090
a(S'rcmod'
p1091
S'module'
p1092
S'had'
p1093
tp1094
a(S'aux'
p1095
S'connected'
p1096
S'to'
p1097
tp1098
a(S'auxpass'
p1099
S'connected'
p1100
S'be'
p1101
tp1102
a(S'xcomp'
p1103
S'had'
p1104
S'connected'
p1105
tp1106
a(S'det'
p1107
S'chamber'
p1108
S'the'
p1109
tp1110
a(S'nn'
p1111
S'chamber'
p1112
S'Unity'
p1113
tp1114
a(S'prep_to'
p1115
S'connected'
p1116
S'chamber'
p1117
tp1118
a(S'det'
p1119
S'shuttle'
p1120
S'the'
p1121
tp1122
a(S'prep_aboard'
p1123
S'connected'
p1124
S'shuttle'
p1125
tp1126
asg61
(lp1127
(g1011
S'ROOT-0'
p1128
S'closed-5'
p1129
tp1130
a(g1015
S'closed-5'
p1131
S'Endeavour-1'
p1132
tp1133
a(g1019
S'astronauts-4'
p1134
S'its-3'
p1135
tp1136
a(g1023
S'Endeavour-1'
p1137
S'astronauts-4'
p1138
tp1139
a(g1027
S'closed-5'
p1140
S'Sunday-7'
p1141
tp1142
a(g1031
S'capture-9'
p1143
S'to-8'
p1144
tp1145
a(g1035
S'closed-5'
p1146
S'capture-9'
p1147
tp1148
a(g1039
S'piece-12'
p1149
S'the-10'
p1150
tp1151
a(g1043
S'piece-12'
p1152
S'first-11'
p1153
tp1154
a(g1047
S'capture-9'
p1155
S'piece-12'
p1156
tp1157
a(g1051
S'station-17'
p1158
S'the-14'
p1159
tp1160
a(g1055
S'station-17'
p1161
S'international-15'
p1162
tp1163
a(g1059
S'station-17'
p1164
S'space-16'
p1165
tp1166
a(g1063
S'piece-12'
p1167
S'station-17'
p1168
tp1169
a(g1067
S'module-23'
p1170
S'the-19'
p1171
tp1172
a(g1071
S'module-23'
p1173
S'Russian-made-20'
p1174
tp1175
a(g1075
S'module-23'
p1176
S'Zarya-21'
p1177
tp1178
a(g1079
S'module-23'
p1179
S'control-22'
p1180
tp1181
a(g1083
S'station-17'
p1182
S'module-23'
p1183
tp1184
a(g1087
S'had-25'
p1185
S'that-24'
p1186
tp1187
a(g1091
S'module-23'
p1188
S'had-25'
p1189
tp1190
a(g1095
S'connected-28'
p1191
S'to-26'
p1192
tp1193
a(g1099
S'connected-28'
p1194
S'be-27'
p1195
tp1196
a(g1103
S'had-25'
p1197
S'connected-28'
p1198
tp1199
a(g1107
S'chamber-32'
p1200
S'the-30'
p1201
tp1202
a(g1111
S'chamber-32'
p1203
S'Unity-31'
p1204
tp1205
a(g1115
S'connected-28'
p1206
S'chamber-32'
p1207
tp1208
a(g1119
S'shuttle-35'
p1209
S'the-34'
p1210
tp1211
a(g1123
S'connected-28'
p1212
S'shuttle-35'
p1213
tp1214
asg93
(lp1215
(S'Endeavour'
p1216
(dp1217
S'NamedEntityTag'
p1218
g98
sS'CharacterOffsetEnd'
p1219
g301
sS'Lemma'
p1220
S'Endeavour'
p1221
sS'PartOfSpeech'
p1222
S'NNP'
p1223
sS'CharacterOffsetBegin'
p1224
S'0'
p1225
stp1226
a(S'and'
p1227
(dp1228
S'NamedEntityTag'
p1229
g98
sS'CharacterOffsetEnd'
p1230
S'13'
p1231
sS'Lemma'
p1232
S'and'
p1233
sS'PartOfSpeech'
p1234
S'CC'
p1235
sS'CharacterOffsetBegin'
p1236
S'10'
p1237
stp1238
a(S'its'
p1239
(dp1240
S'NamedEntityTag'
p1241
g98
sS'CharacterOffsetEnd'
p1242
S'17'
p1243
sS'Lemma'
p1244
S'its'
p1245
sS'PartOfSpeech'
p1246
S'PRP$'
p1247
sS'CharacterOffsetBegin'
p1248
S'14'
p1249
stp1250
a(S'astronauts'
p1251
(dp1252
S'NamedEntityTag'
p1253
g98
sS'CharacterOffsetEnd'
p1254
S'28'
p1255
sS'Lemma'
p1256
S'astronaut'
p1257
sS'PartOfSpeech'
p1258
S'NNS'
p1259
sS'CharacterOffsetBegin'
p1260
S'18'
p1261
stp1262
a(S'closed'
p1263
(dp1264
S'NamedEntityTag'
p1265
g98
sS'CharacterOffsetEnd'
p1266
S'35'
p1267
sS'Lemma'
p1268
S'close'
p1269
sS'PartOfSpeech'
p1270
S'VBD'
p1271
sS'CharacterOffsetBegin'
p1272
S'29'
p1273
stp1274
a(S'in'
p1275
(dp1276
S'NamedEntityTag'
p1277
g98
sS'CharacterOffsetEnd'
p1278
S'38'
p1279
sS'Lemma'
p1280
S'in'
p1281
sS'PartOfSpeech'
p1282
S'IN'
p1283
sS'CharacterOffsetBegin'
p1284
S'36'
p1285
stp1286
a(S'Sunday'
p1287
(dp1288
S'NormalizedNamedEntityTag'
p1289
S'XXXX-WXX-7'
p1290
sS'Timex'
p1291
S'<TIMEX3 tid="t1" type="DATE" value="XXXX-WXX-7">Sunday</TIMEX3>'
p1292
sS'Lemma'
p1293
S'Sunday'
p1294
sS'CharacterOffsetEnd'
p1295
S'45'
p1296
sS'PartOfSpeech'
p1297
S'NNP'
p1298
sS'CharacterOffsetBegin'
p1299
S'39'
p1300
sS'NamedEntityTag'
p1301
S'DATE'
p1302
stp1303
a(S'to'
p1304
(dp1305
S'NamedEntityTag'
p1306
g98
sS'CharacterOffsetEnd'
p1307
S'48'
p1308
sS'Lemma'
p1309
S'to'
p1310
sS'PartOfSpeech'
p1311
S'TO'
p1312
sS'CharacterOffsetBegin'
p1313
S'46'
p1314
stp1315
a(S'capture'
p1316
(dp1317
S'NamedEntityTag'
p1318
g98
sS'CharacterOffsetEnd'
p1319
S'56'
p1320
sS'Lemma'
p1321
S'capture'
p1322
sS'PartOfSpeech'
p1323
S'VB'
p1324
sS'CharacterOffsetBegin'
p1325
S'49'
p1326
stp1327
a(S'the'
p1328
(dp1329
S'NamedEntityTag'
p1330
g98
sS'CharacterOffsetEnd'
p1331
S'60'
p1332
sS'Lemma'
p1333
S'the'
p1334
sS'PartOfSpeech'
p1335
S'DT'
p1336
sS'CharacterOffsetBegin'
p1337
S'57'
p1338
stp1339
a(S'first'
p1340
(dp1341
S'NormalizedNamedEntityTag'
p1342
S'1.0'
p1343
sS'Lemma'
p1344
S'first'
p1345
sS'CharacterOffsetEnd'
p1346
S'66'
p1347
sS'PartOfSpeech'
p1348
S'JJ'
p1349
sS'CharacterOffsetBegin'
p1350
S'61'
p1351
sS'NamedEntityTag'
p1352
S'ORDINAL'
p1353
stp1354
a(S'piece'
p1355
(dp1356
S'NamedEntityTag'
p1357
g98
sS'CharacterOffsetEnd'
p1358
S'72'
p1359
sS'Lemma'
p1360
S'piece'
p1361
sS'PartOfSpeech'
p1362
S'NN'
p1363
sS'CharacterOffsetBegin'
p1364
S'67'
p1365
stp1366
a(S'of'
p1367
(dp1368
S'NamedEntityTag'
p1369
g98
sS'CharacterOffsetEnd'
p1370
S'75'
p1371
sS'Lemma'
p1372
S'of'
p1373
sS'PartOfSpeech'
p1374
S'IN'
p1375
sS'CharacterOffsetBegin'
p1376
S'73'
p1377
stp1378
a(S'the'
p1379
(dp1380
S'NamedEntityTag'
p1381
g98
sS'CharacterOffsetEnd'
p1382
S'79'
p1383
sS'Lemma'
p1384
S'the'
p1385
sS'PartOfSpeech'
p1386
S'DT'
p1387
sS'CharacterOffsetBegin'
p1388
S'76'
p1389
stp1390
a(S'international'
p1391
(dp1392
S'NamedEntityTag'
p1393
g98
sS'CharacterOffsetEnd'
p1394
S'93'
p1395
sS'Lemma'
p1396
S'international'
p1397
sS'PartOfSpeech'
p1398
S'JJ'
p1399
sS'CharacterOffsetBegin'
p1400
S'80'
p1401
stp1402
a(S'space'
p1403
(dp1404
S'NamedEntityTag'
p1405
g98
sS'CharacterOffsetEnd'
p1406
S'99'
p1407
sS'Lemma'
p1408
S'space'
p1409
sS'PartOfSpeech'
p1410
S'NN'
p1411
sS'CharacterOffsetBegin'
p1412
S'94'
p1413
stp1414
a(S'station'
p1415
(dp1416
S'NamedEntityTag'
p1417
g98
sS'CharacterOffsetEnd'
p1418
S'107'
p1419
sS'Lemma'
p1420
S'station'
p1421
sS'PartOfSpeech'
p1422
S'NN'
p1423
sS'CharacterOffsetBegin'
p1424
S'100'
p1425
stp1426
a(S','
p1427
(dp1428
S'NamedEntityTag'
p1429
g98
sS'CharacterOffsetEnd'
p1430
S'108'
p1431
sS'Lemma'
p1432
g1427
sS'PartOfSpeech'
p1433
g1427
sS'CharacterOffsetBegin'
p1434
S'107'
p1435
stp1436
a(S'the'
p1437
(dp1438
S'NamedEntityTag'
p1439
g98
sS'CharacterOffsetEnd'
p1440
S'112'
p1441
sS'Lemma'
p1442
S'the'
p1443
sS'PartOfSpeech'
p1444
S'DT'
p1445
sS'CharacterOffsetBegin'
p1446
S'109'
p1447
stp1448
a(S'Russian-made'
p1449
(dp1450
S'NamedEntityTag'
p1451
S'MISC'
p1452
sS'CharacterOffsetEnd'
p1453
S'125'
p1454
sS'Lemma'
p1455
S'russian-made'
p1456
sS'PartOfSpeech'
p1457
S'JJ'
p1458
sS'CharacterOffsetBegin'
p1459
S'113'
p1460
stp1461
a(S'Zarya'
p1462
(dp1463
S'NamedEntityTag'
p1464
S'MISC'
p1465
sS'CharacterOffsetEnd'
p1466
S'131'
p1467
sS'Lemma'
p1468
S'Zarya'
p1469
sS'PartOfSpeech'
p1470
S'NNP'
p1471
sS'CharacterOffsetBegin'
p1472
S'126'
p1473
stp1474
a(S'control'
p1475
(dp1476
S'NamedEntityTag'
p1477
g98
sS'CharacterOffsetEnd'
p1478
S'139'
p1479
sS'Lemma'
p1480
S'control'
p1481
sS'PartOfSpeech'
p1482
S'NN'
p1483
sS'CharacterOffsetBegin'
p1484
S'132'
p1485
stp1486
a(S'module'
p1487
(dp1488
S'NamedEntityTag'
p1489
g98
sS'CharacterOffsetEnd'
p1490
S'146'
p1491
sS'Lemma'
p1492
S'module'
p1493
sS'PartOfSpeech'
p1494
S'NN'
p1495
sS'CharacterOffsetBegin'
p1496
S'140'
p1497
stp1498
a(S'that'
p1499
(dp1500
S'NamedEntityTag'
p1501
g98
sS'CharacterOffsetEnd'
p1502
S'151'
p1503
sS'Lemma'
p1504
S'that'
p1505
sS'PartOfSpeech'
p1506
S'WDT'
p1507
sS'CharacterOffsetBegin'
p1508
S'147'
p1509
stp1510
a(S'had'
p1511
(dp1512
S'NamedEntityTag'
p1513
g98
sS'CharacterOffsetEnd'
p1514
S'155'
p1515
sS'Lemma'
p1516
S'have'
p1517
sS'PartOfSpeech'
p1518
S'VBD'
p1519
sS'CharacterOffsetBegin'
p1520
S'152'
p1521
stp1522
a(S'to'
p1523
(dp1524
S'NamedEntityTag'
p1525
g98
sS'CharacterOffsetEnd'
p1526
S'158'
p1527
sS'Lemma'
p1528
S'to'
p1529
sS'PartOfSpeech'
p1530
S'TO'
p1531
sS'CharacterOffsetBegin'
p1532
S'156'
p1533
stp1534
a(S'be'
p1535
(dp1536
S'NamedEntityTag'
p1537
g98
sS'CharacterOffsetEnd'
p1538
S'161'
p1539
sS'Lemma'
p1540
S'be'
p1541
sS'PartOfSpeech'
p1542
S'VB'
p1543
sS'CharacterOffsetBegin'
p1544
S'159'
p1545
stp1546
a(S'connected'
p1547
(dp1548
S'NamedEntityTag'
p1549
g98
sS'CharacterOffsetEnd'
p1550
S'171'
p1551
sS'Lemma'
p1552
S'connect'
p1553
sS'PartOfSpeech'
p1554
S'VBN'
p1555
sS'CharacterOffsetBegin'
p1556
S'162'
p1557
stp1558
a(S'to'
p1559
(dp1560
S'NamedEntityTag'
p1561
g98
sS'CharacterOffsetEnd'
p1562
S'174'
p1563
sS'Lemma'
p1564
S'to'
p1565
sS'PartOfSpeech'
p1566
S'TO'
p1567
sS'CharacterOffsetBegin'
p1568
S'172'
p1569
stp1570
a(S'the'
p1571
(dp1572
S'NamedEntityTag'
p1573
g98
sS'CharacterOffsetEnd'
p1574
S'178'
p1575
sS'Lemma'
p1576
S'the'
p1577
sS'PartOfSpeech'
p1578
S'DT'
p1579
sS'CharacterOffsetBegin'
p1580
S'175'
p1581
stp1582
a(S'Unity'
p1583
(dp1584
S'NamedEntityTag'
p1585
g98
sS'CharacterOffsetEnd'
p1586
S'184'
p1587
sS'Lemma'
p1588
S'Unity'
p1589
sS'PartOfSpeech'
p1590
S'NNP'
p1591
sS'CharacterOffsetBegin'
p1592
S'179'
p1593
stp1594
a(S'chamber'
p1595
(dp1596
S'NamedEntityTag'
p1597
g98
sS'CharacterOffsetEnd'
p1598
S'192'
p1599
sS'Lemma'
p1600
S'chamber'
p1601
sS'PartOfSpeech'
p1602
S'NN'
p1603
sS'CharacterOffsetBegin'
p1604
S'185'
p1605
stp1606
a(S'aboard'
p1607
(dp1608
S'NamedEntityTag'
p1609
g98
sS'CharacterOffsetEnd'
p1610
S'199'
p1611
sS'Lemma'
p1612
S'aboard'
p1613
sS'PartOfSpeech'
p1614
S'IN'
p1615
sS'CharacterOffsetBegin'
p1616
S'193'
p1617
stp1618
a(S'the'
p1619
(dp1620
S'NamedEntityTag'
p1621
g98
sS'CharacterOffsetEnd'
p1622
S'203'
p1623
sS'Lemma'
p1624
S'the'
p1625
sS'PartOfSpeech'
p1626
S'DT'
p1627
sS'CharacterOffsetBegin'
p1628
S'200'
p1629
stp1630
a(S'shuttle'
p1631
(dp1632
S'NamedEntityTag'
p1633
g98
sS'CharacterOffsetEnd'
p1634
S'211'
p1635
sS'Lemma'
p1636
S'shuttle'
p1637
sS'PartOfSpeech'
p1638
S'NN'
p1639
sS'CharacterOffsetBegin'
p1640
S'204'
p1641
stp1642
a(g404
(dp1643
S'NamedEntityTag'
p1644
g98
sS'CharacterOffsetEnd'
p1645
S'212'
p1646
sS'Lemma'
p1647
g404
sS'PartOfSpeech'
p1648
g404
sS'CharacterOffsetBegin'
p1649
S'211'
p1650
stp1651
asa(dp1652
g15
S'(ROOT (S (S (VP (VBG Stacking) (NP (DT the) (CD two) (JJ giant) (NNS cylinders)) (PP (NP (CD 240) (NNS miles)) (IN above) (NP (DT the) (NNP Earth))))) (VP (VBD was) (VP (VBN considered) (NP (NP (DT the) (ADJP (RBS most) (JJ difficult)) (NN part)) (PP (IN of) (NP (DT the) (NN mission)))))) (. .)))'
p1653
sg17
S'Stacking the two giant cylinders 240 miles above the Earth was considered the most difficult part of the mission.'
p1654
sg19
(lp1655
(S'root'
p1656
S'ROOT'
p1657
S'considered'
p1658
tp1659
a(S'csubjpass'
p1660
S'considered'
p1661
S'Stacking'
p1662
tp1663
a(S'det'
p1664
S'cylinders'
p1665
S'the'
p1666
tp1667
a(S'num'
p1668
S'cylinders'
p1669
S'two'
p1670
tp1671
a(S'amod'
p1672
S'cylinders'
p1673
S'giant'
p1674
tp1675
a(S'dobj'
p1676
S'Stacking'
p1677
S'cylinders'
p1678
tp1679
a(S'num'
p1680
S'miles'
p1681
S'240'
p1682
tp1683
a(S'npadvmod'
p1684
S'Stacking'
p1685
S'miles'
p1686
tp1687
a(S'det'
p1688
S'Earth'
p1689
S'the'
p1690
tp1691
a(S'prep_above'
p1692
S'Stacking'
p1693
S'Earth'
p1694
tp1695
a(S'auxpass'
p1696
S'considered'
p1697
S'was'
p1698
tp1699
a(S'det'
p1700
S'part'
p1701
S'the'
p1702
tp1703
a(S'advmod'
p1704
S'difficult'
p1705
S'most'
p1706
tp1707
a(S'amod'
p1708
S'part'
p1709
S'difficult'
p1710
tp1711
a(S'dobj'
p1712
S'considered'
p1713
S'part'
p1714
tp1715
a(S'det'
p1716
S'mission'
p1717
S'the'
p1718
tp1719
a(S'prep_of'
p1720
S'part'
p1721
S'mission'
p1722
tp1723
asg61
(lp1724
(g1656
S'ROOT-0'
p1725
S'considered-12'
p1726
tp1727
a(g1660
S'considered-12'
p1728
S'Stacking-1'
p1729
tp1730
a(g1664
S'cylinders-5'
p1731
S'the-2'
p1732
tp1733
a(g1668
S'cylinders-5'
p1734
S'two-3'
p1735
tp1736
a(g1672
S'cylinders-5'
p1737
S'giant-4'
p1738
tp1739
a(g1676
S'Stacking-1'
p1740
S'cylinders-5'
p1741
tp1742
a(g1680
S'miles-7'
p1743
S'240-6'
p1744
tp1745
a(g1684
S'Stacking-1'
p1746
S'miles-7'
p1747
tp1748
a(g1688
S'Earth-10'
p1749
S'the-9'
p1750
tp1751
a(g1692
S'Stacking-1'
p1752
S'Earth-10'
p1753
tp1754
a(g1696
S'considered-12'
p1755
S'was-11'
p1756
tp1757
a(g1700
S'part-16'
p1758
S'the-13'
p1759
tp1760
a(g1704
S'difficult-15'
p1761
S'most-14'
p1762
tp1763
a(g1708
S'part-16'
p1764
S'difficult-15'
p1765
tp1766
a(g1712
S'considered-12'
p1767
S'part-16'
p1768
tp1769
a(g1716
S'mission-19'
p1770
S'the-18'
p1771
tp1772
a(g1720
S'part-16'
p1773
S'mission-19'
p1774
tp1775
asg93
(lp1776
(S'Stacking'
p1777
(dp1778
S'NamedEntityTag'
p1779
g98
sS'CharacterOffsetEnd'
p1780
S'221'
p1781
sS'Lemma'
p1782
S'stack'
p1783
sS'PartOfSpeech'
p1784
S'VBG'
p1785
sS'CharacterOffsetBegin'
p1786
S'213'
p1787
stp1788
a(S'the'
p1789
(dp1790
S'NamedEntityTag'
p1791
g98
sS'CharacterOffsetEnd'
p1792
S'225'
p1793
sS'Lemma'
p1794
S'the'
p1795
sS'PartOfSpeech'
p1796
S'DT'
p1797
sS'CharacterOffsetBegin'
p1798
S'222'
p1799
stp1800
a(S'two'
p1801
(dp1802
S'NormalizedNamedEntityTag'
p1803
S'2.0'
p1804
sS'Lemma'
p1805
S'two'
p1806
sS'CharacterOffsetEnd'
p1807
S'229'
p1808
sS'PartOfSpeech'
p1809
S'CD'
p1810
sS'CharacterOffsetBegin'
p1811
S'226'
p1812
sS'NamedEntityTag'
p1813
S'NUMBER'
p1814
stp1815
a(S'giant'
p1816
(dp1817
S'NamedEntityTag'
p1818
g98
sS'CharacterOffsetEnd'
p1819
S'235'
p1820
sS'Lemma'
p1821
S'giant'
p1822
sS'PartOfSpeech'
p1823
S'JJ'
p1824
sS'CharacterOffsetBegin'
p1825
S'230'
p1826
stp1827
a(S'cylinders'
p1828
(dp1829
S'NamedEntityTag'
p1830
g98
sS'CharacterOffsetEnd'
p1831
S'245'
p1832
sS'Lemma'
p1833
S'cylinder'
p1834
sS'PartOfSpeech'
p1835
S'NNS'
p1836
sS'CharacterOffsetBegin'
p1837
S'236'
p1838
stp1839
a(S'240'
p1840
(dp1841
S'NormalizedNamedEntityTag'
p1842
S'240.0'
p1843
sS'Lemma'
p1844
S'240'
p1845
sS'CharacterOffsetEnd'
p1846
S'249'
p1847
sS'PartOfSpeech'
p1848
S'CD'
p1849
sS'CharacterOffsetBegin'
p1850
S'246'
p1851
sS'NamedEntityTag'
p1852
S'NUMBER'
p1853
stp1854
a(S'miles'
p1855
(dp1856
S'NamedEntityTag'
p1857
g98
sS'CharacterOffsetEnd'
p1858
S'255'
p1859
sS'Lemma'
p1860
S'mile'
p1861
sS'PartOfSpeech'
p1862
S'NNS'
p1863
sS'CharacterOffsetBegin'
p1864
S'250'
p1865
stp1866
a(S'above'
p1867
(dp1868
S'NamedEntityTag'
p1869
g98
sS'CharacterOffsetEnd'
p1870
S'261'
p1871
sS'Lemma'
p1872
S'above'
p1873
sS'PartOfSpeech'
p1874
S'IN'
p1875
sS'CharacterOffsetBegin'
p1876
S'256'
p1877
stp1878
a(S'the'
p1879
(dp1880
S'NamedEntityTag'
p1881
g98
sS'CharacterOffsetEnd'
p1882
S'265'
p1883
sS'Lemma'
p1884
S'the'
p1885
sS'PartOfSpeech'
p1886
S'DT'
p1887
sS'CharacterOffsetBegin'
p1888
S'262'
p1889
stp1890
a(S'Earth'
p1891
(dp1892
S'NamedEntityTag'
p1893
S'LOCATION'
p1894
sS'CharacterOffsetEnd'
p1895
S'271'
p1896
sS'Lemma'
p1897
S'Earth'
p1898
sS'PartOfSpeech'
p1899
S'NNP'
p1900
sS'CharacterOffsetBegin'
p1901
S'266'
p1902
stp1903
a(S'was'
p1904
(dp1905
S'NamedEntityTag'
p1906
g98
sS'CharacterOffsetEnd'
p1907
S'275'
p1908
sS'Lemma'
p1909
S'be'
p1910
sS'PartOfSpeech'
p1911
S'VBD'
p1912
sS'CharacterOffsetBegin'
p1913
S'272'
p1914
stp1915
a(S'considered'
p1916
(dp1917
S'NamedEntityTag'
p1918
g98
sS'CharacterOffsetEnd'
p1919
S'286'
p1920
sS'Lemma'
p1921
S'consider'
p1922
sS'PartOfSpeech'
p1923
S'VBN'
p1924
sS'CharacterOffsetBegin'
p1925
S'276'
p1926
stp1927
a(S'the'
p1928
(dp1929
S'NamedEntityTag'
p1930
g98
sS'CharacterOffsetEnd'
p1931
S'290'
p1932
sS'Lemma'
p1933
S'the'
p1934
sS'PartOfSpeech'
p1935
S'DT'
p1936
sS'CharacterOffsetBegin'
p1937
S'287'
p1938
stp1939
a(S'most'
p1940
(dp1941
S'NamedEntityTag'
p1942
g98
sS'CharacterOffsetEnd'
p1943
S'295'
p1944
sS'Lemma'
p1945
S'most'
p1946
sS'PartOfSpeech'
p1947
S'RBS'
p1948
sS'CharacterOffsetBegin'
p1949
S'291'
p1950
stp1951
a(S'difficult'
p1952
(dp1953
S'NamedEntityTag'
p1954
g98
sS'CharacterOffsetEnd'
p1955
S'305'
p1956
sS'Lemma'
p1957
S'difficult'
p1958
sS'PartOfSpeech'
p1959
S'JJ'
p1960
sS'CharacterOffsetBegin'
p1961
S'296'
p1962
stp1963
a(S'part'
p1964
(dp1965
S'NamedEntityTag'
p1966
g98
sS'CharacterOffsetEnd'
p1967
S'310'
p1968
sS'Lemma'
p1969
S'part'
p1970
sS'PartOfSpeech'
p1971
S'NN'
p1972
sS'CharacterOffsetBegin'
p1973
S'306'
p1974
stp1975
a(S'of'
p1976
(dp1977
S'NamedEntityTag'
p1978
g98
sS'CharacterOffsetEnd'
p1979
S'313'
p1980
sS'Lemma'
p1981
S'of'
p1982
sS'PartOfSpeech'
p1983
S'IN'
p1984
sS'CharacterOffsetBegin'
p1985
S'311'
p1986
stp1987
a(S'the'
p1988
(dp1989
S'NamedEntityTag'
p1990
g98
sS'CharacterOffsetEnd'
p1991
S'317'
p1992
sS'Lemma'
p1993
S'the'
p1994
sS'PartOfSpeech'
p1995
S'DT'
p1996
sS'CharacterOffsetBegin'
p1997
S'314'
p1998
stp1999
a(S'mission'
p2000
(dp2001
S'NamedEntityTag'
p2002
g98
sS'CharacterOffsetEnd'
p2003
S'325'
p2004
sS'Lemma'
p2005
S'mission'
p2006
sS'PartOfSpeech'
p2007
S'NN'
p2008
sS'CharacterOffsetBegin'
p2009
S'318'
p2010
stp2011
a(g404
(dp2012
S'NamedEntityTag'
p2013
g98
sS'CharacterOffsetEnd'
p2014
S'326'
p2015
sS'Lemma'
p2016
g404
sS'PartOfSpeech'
p2017
g404
sS'CharacterOffsetBegin'
p2018
S'325'
p2019
stp2020
asa(dp2021
g15
S'(ROOT (S (NP (DT The) (NN job)) (VP (VBD fell) (PP (TO to) (NP (NP (NNP Nancy) (NNP Currie)) (, ,) (NP (NP (DT the) (NN shuttle) (NN crane) (NN operator)) (SBAR (WHNP (WP who)) (S (VP (VBD had) (ADVP (RB deftly)) (VP (VBN hoisted) (CC and) (VBN repositioned) (NP (NP (NNP Unity)) (PP (IN in) (NP (DT the) (NN cargo) (NN bay)))) (PP (IN on) (NP (NNP Saturday))))))))))) (. .)))'
p2022
sg17
S'The job fell to Nancy Currie, the shuttle crane operator who had deftly hoisted and repositioned Unity in the cargo bay on Saturday.'
p2023
sg19
(lp2024
(S'root'
p2025
S'ROOT'
p2026
S'fell'
p2027
tp2028
a(S'det'
p2029
S'job'
p2030
S'The'
p2031
tp2032
a(S'nsubj'
p2033
S'fell'
p2034
S'job'
p2035
tp2036
a(S'nn'
p2037
S'Currie'
p2038
S'Nancy'
p2039
tp2040
a(S'prep_to'
p2041
S'fell'
p2042
S'Currie'
p2043
tp2044
a(S'det'
p2045
S'operator'
p2046
S'the'
p2047
tp2048
a(S'nn'
p2049
S'operator'
p2050
S'shuttle'
p2051
tp2052
a(S'nn'
p2053
S'operator'
p2054
S'crane'
p2055
tp2056
a(S'appos'
p2057
S'Currie'
p2058
S'operator'
p2059
tp2060
a(S'nsubj'
p2061
S'hoisted'
p2062
S'who'
p2063
tp2064
a(S'aux'
p2065
S'hoisted'
p2066
S'had'
p2067
tp2068
a(S'advmod'
p2069
S'hoisted'
p2070
S'deftly'
p2071
tp2072
a(S'rcmod'
p2073
S'operator'
p2074
S'hoisted'
p2075
tp2076
a(S'conj_and'
p2077
S'hoisted'
p2078
S'repositioned'
p2079
tp2080
a(S'dobj'
p2081
S'hoisted'
p2082
S'Unity'
p2083
tp2084
a(S'det'
p2085
S'bay'
p2086
S'the'
p2087
tp2088
a(S'nn'
p2089
S'bay'
p2090
S'cargo'
p2091
tp2092
a(S'prep_in'
p2093
S'Unity'
p2094
S'bay'
p2095
tp2096
a(S'prep_on'
p2097
S'hoisted'
p2098
S'Saturday'
p2099
tp2100
asg61
(lp2101
(g2025
S'ROOT-0'
p2102
S'fell-3'
p2103
tp2104
a(g2029
S'job-2'
p2105
S'The-1'
p2106
tp2107
a(g2033
S'fell-3'
p2108
S'job-2'
p2109
tp2110
a(g2037
S'Currie-6'
p2111
S'Nancy-5'
p2112
tp2113
a(g2041
S'fell-3'
p2114
S'Currie-6'
p2115
tp2116
a(g2045
S'operator-11'
p2117
S'the-8'
p2118
tp2119
a(g2049
S'operator-11'
p2120
S'shuttle-9'
p2121
tp2122
a(g2053
S'operator-11'
p2123
S'crane-10'
p2124
tp2125
a(g2057
S'Currie-6'
p2126
S'operator-11'
p2127
tp2128
a(g2061
S'hoisted-15'
p2129
S'who-12'
p2130
tp2131
a(g2065
S'hoisted-15'
p2132
S'had-13'
p2133
tp2134
a(g2069
S'hoisted-15'
p2135
S'deftly-14'
p2136
tp2137
a(g2073
S'operator-11'
p2138
S'hoisted-15'
p2139
tp2140
a(g2077
S'hoisted-15'
p2141
S'repositioned-17'
p2142
tp2143
a(g2081
S'hoisted-15'
p2144
S'Unity-18'
p2145
tp2146
a(g2085
S'bay-22'
p2147
S'the-20'
p2148
tp2149
a(g2089
S'bay-22'
p2150
S'cargo-21'
p2151
tp2152
a(g2093
S'Unity-18'
p2153
S'bay-22'
p2154
tp2155
a(g2097
S'hoisted-15'
p2156
S'Saturday-24'
p2157
tp2158
asg93
(lp2159
(S'The'
p2160
(dp2161
S'NamedEntityTag'
p2162
g98
sS'CharacterOffsetEnd'
p2163
S'330'
p2164
sS'Lemma'
p2165
S'the'
p2166
sS'PartOfSpeech'
p2167
S'DT'
p2168
sS'CharacterOffsetBegin'
p2169
S'327'
p2170
stp2171
a(S'job'
p2172
(dp2173
S'NamedEntityTag'
p2174
g98
sS'CharacterOffsetEnd'
p2175
S'334'
p2176
sS'Lemma'
p2177
S'job'
p2178
sS'PartOfSpeech'
p2179
S'NN'
p2180
sS'CharacterOffsetBegin'
p2181
S'331'
p2182
stp2183
a(S'fell'
p2184
(dp2185
S'NamedEntityTag'
p2186
g98
sS'CharacterOffsetEnd'
p2187
S'339'
p2188
sS'Lemma'
p2189
S'fall'
p2190
sS'PartOfSpeech'
p2191
S'VBD'
p2192
sS'CharacterOffsetBegin'
p2193
S'335'
p2194
stp2195
a(S'to'
p2196
(dp2197
S'NamedEntityTag'
p2198
g98
sS'CharacterOffsetEnd'
p2199
S'342'
p2200
sS'Lemma'
p2201
S'to'
p2202
sS'PartOfSpeech'
p2203
S'TO'
p2204
sS'CharacterOffsetBegin'
p2205
S'340'
p2206
stp2207
a(S'Nancy'
p2208
(dp2209
S'NamedEntityTag'
p2210
S'PERSON'
p2211
sS'CharacterOffsetEnd'
p2212
S'348'
p2213
sS'Lemma'
p2214
S'Nancy'
p2215
sS'PartOfSpeech'
p2216
S'NNP'
p2217
sS'CharacterOffsetBegin'
p2218
S'343'
p2219
stp2220
a(S'Currie'
p2221
(dp2222
S'NamedEntityTag'
p2223
S'PERSON'
p2224
sS'CharacterOffsetEnd'
p2225
S'355'
p2226
sS'Lemma'
p2227
S'Currie'
p2228
sS'PartOfSpeech'
p2229
S'NNP'
p2230
sS'CharacterOffsetBegin'
p2231
S'349'
p2232
stp2233
a(g1427
(dp2234
S'NamedEntityTag'
p2235
g98
sS'CharacterOffsetEnd'
p2236
S'356'
p2237
sS'Lemma'
p2238
g1427
sS'PartOfSpeech'
p2239
g1427
sS'CharacterOffsetBegin'
p2240
S'355'
p2241
stp2242
a(S'the'
p2243
(dp2244
S'NamedEntityTag'
p2245
g98
sS'CharacterOffsetEnd'
p2246
S'360'
p2247
sS'Lemma'
p2248
S'the'
p2249
sS'PartOfSpeech'
p2250
S'DT'
p2251
sS'CharacterOffsetBegin'
p2252
S'357'
p2253
stp2254
a(S'shuttle'
p2255
(dp2256
S'NamedEntityTag'
p2257
g98
sS'CharacterOffsetEnd'
p2258
S'368'
p2259
sS'Lemma'
p2260
S'shuttle'
p2261
sS'PartOfSpeech'
p2262
S'NN'
p2263
sS'CharacterOffsetBegin'
p2264
S'361'
p2265
stp2266
a(S'crane'
p2267
(dp2268
S'NamedEntityTag'
p2269
g98
sS'CharacterOffsetEnd'
p2270
S'374'
p2271
sS'Lemma'
p2272
S'crane'
p2273
sS'PartOfSpeech'
p2274
S'NN'
p2275
sS'CharacterOffsetBegin'
p2276
S'369'
p2277
stp2278
a(S'operator'
p2279
(dp2280
S'NamedEntityTag'
p2281
g98
sS'CharacterOffsetEnd'
p2282
S'383'
p2283
sS'Lemma'
p2284
S'operator'
p2285
sS'PartOfSpeech'
p2286
S'NN'
p2287
sS'CharacterOffsetBegin'
p2288
S'375'
p2289
stp2290
a(S'who'
p2291
(dp2292
S'NamedEntityTag'
p2293
g98
sS'CharacterOffsetEnd'
p2294
S'387'
p2295
sS'Lemma'
p2296
S'who'
p2297
sS'PartOfSpeech'
p2298
S'WP'
p2299
sS'CharacterOffsetBegin'
p2300
S'384'
p2301
stp2302
a(S'had'
p2303
(dp2304
S'NamedEntityTag'
p2305
g98
sS'CharacterOffsetEnd'
p2306
S'391'
p2307
sS'Lemma'
p2308
S'have'
p2309
sS'PartOfSpeech'
p2310
S'VBD'
p2311
sS'CharacterOffsetBegin'
p2312
S'388'
p2313
stp2314
a(S'deftly'
p2315
(dp2316
S'NamedEntityTag'
p2317
g98
sS'CharacterOffsetEnd'
p2318
S'398'
p2319
sS'Lemma'
p2320
S'deftly'
p2321
sS'PartOfSpeech'
p2322
S'RB'
p2323
sS'CharacterOffsetBegin'
p2324
S'392'
p2325
stp2326
a(S'hoisted'
p2327
(dp2328
S'NamedEntityTag'
p2329
g98
sS'CharacterOffsetEnd'
p2330
S'406'
p2331
sS'Lemma'
p2332
S'hoist'
p2333
sS'PartOfSpeech'
p2334
S'VBN'
p2335
sS'CharacterOffsetBegin'
p2336
S'399'
p2337
stp2338
a(S'and'
p2339
(dp2340
S'NamedEntityTag'
p2341
g98
sS'CharacterOffsetEnd'
p2342
S'410'
p2343
sS'Lemma'
p2344
S'and'
p2345
sS'PartOfSpeech'
p2346
S'CC'
p2347
sS'CharacterOffsetBegin'
p2348
S'407'
p2349
stp2350
a(S'repositioned'
p2351
(dp2352
S'NamedEntityTag'
p2353
g98
sS'CharacterOffsetEnd'
p2354
S'423'
p2355
sS'Lemma'
p2356
S'reposition'
p2357
sS'PartOfSpeech'
p2358
S'VBN'
p2359
sS'CharacterOffsetBegin'
p2360
S'411'
p2361
stp2362
a(S'Unity'
p2363
(dp2364
S'NamedEntityTag'
p2365
g98
sS'CharacterOffsetEnd'
p2366
S'429'
p2367
sS'Lemma'
p2368
S'Unity'
p2369
sS'PartOfSpeech'
p2370
S'NNP'
p2371
sS'CharacterOffsetBegin'
p2372
S'424'
p2373
stp2374
a(S'in'
p2375
(dp2376
S'NamedEntityTag'
p2377
g98
sS'CharacterOffsetEnd'
p2378
S'432'
p2379
sS'Lemma'
p2380
S'in'
p2381
sS'PartOfSpeech'
p2382
S'IN'
p2383
sS'CharacterOffsetBegin'
p2384
S'430'
p2385
stp2386
a(S'the'
p2387
(dp2388
S'NamedEntityTag'
p2389
g98
sS'CharacterOffsetEnd'
p2390
S'436'
p2391
sS'Lemma'
p2392
S'the'
p2393
sS'PartOfSpeech'
p2394
S'DT'
p2395
sS'CharacterOffsetBegin'
p2396
S'433'
p2397
stp2398
a(S'cargo'
p2399
(dp2400
S'NamedEntityTag'
p2401
g98
sS'CharacterOffsetEnd'
p2402
S'442'
p2403
sS'Lemma'
p2404
S'cargo'
p2405
sS'PartOfSpeech'
p2406
S'NN'
p2407
sS'CharacterOffsetBegin'
p2408
S'437'
p2409
stp2410
a(S'bay'
p2411
(dp2412
S'NamedEntityTag'
p2413
g98
sS'CharacterOffsetEnd'
p2414
S'446'
p2415
sS'Lemma'
p2416
S'bay'
p2417
sS'PartOfSpeech'
p2418
S'NN'
p2419
sS'CharacterOffsetBegin'
p2420
S'443'
p2421
stp2422
a(S'on'
p2423
(dp2424
S'NamedEntityTag'
p2425
g98
sS'CharacterOffsetEnd'
p2426
S'449'
p2427
sS'Lemma'
p2428
S'on'
p2429
sS'PartOfSpeech'
p2430
S'IN'
p2431
sS'CharacterOffsetBegin'
p2432
S'447'
p2433
stp2434
a(S'Saturday'
p2435
(dp2436
S'NormalizedNamedEntityTag'
p2437
S'XXXX-WXX-6'
p2438
sS'Timex'
p2439
S'<TIMEX3 tid="t2" type="DATE" value="XXXX-WXX-6">Saturday</TIMEX3>'
p2440
sS'Lemma'
p2441
S'Saturday'
p2442
sS'CharacterOffsetEnd'
p2443
S'458'
p2444
sS'PartOfSpeech'
p2445
S'NNP'
p2446
sS'CharacterOffsetBegin'
p2447
S'450'
p2448
sS'NamedEntityTag'
p2449
S'DATE'
p2450
stp2451
a(g404
(dp2452
S'NamedEntityTag'
p2453
g98
sS'CharacterOffsetEnd'
p2454
S'459'
p2455
sS'Lemma'
p2456
g404
sS'PartOfSpeech'
p2457
g404
sS'CharacterOffsetBegin'
p2458
S'458'
p2459
stp2460
asa(dp2461
g15
S'(ROOT (S (NP (DT The) (CD two) (NN station) (NNS pieces)) (VP (VBP are) (ADVP (RB so)) (NP (NP (JJ big) (NN _)) (PP (NP (CD 77) (NNS feet)) (IN from) (NP (NP (DT the) (NN tip)) (PP (IN of) (NP (CD one)))))) (PP (TO to) (NP (NP (DT the) (NN tip)) (PP (IN of) (NP (DT the) (JJ other))))) (PP (IN with) (NP (S (NP (NP (DT a) (JJ combined) (NN mass)) (PP (IN of) (NP (CD 70,000) (NNS pounds)))) (VP (VBP _) (SBAR (IN that) (S (NP (NP (NNP Currie)) (CC and) (NP (PRP$ her) (NNS crewmates))) (VP (VBD were) (VP (VBG going) (S (VP (TO to) (VP (VB have) (S (VP (TO to) (VP (VB rely) (PP (IN on) (NP (NP (DT a) (JJ computerized) (NN vision) (NN system)) (CC and) (NP (NN camera) (NNS views)))))))))))))))) (, ,) (CONJP (RB rather) (IN than)) (NP (NP (JJ direct) (NN line)) (PP (IN of) (NP (NN sight))))))) (. .)))'
p2462
sg17
S'The two station pieces are so big _ 77 feet from the tip of one to the tip of the other with a combined mass of 70,000 pounds _ that Currie and her crewmates were going to have to rely on a computerized vision system and camera views, rather than direct line of sight.'
p2463
sg19
(lp2464
(S'root'
p2465
S'ROOT'
p2466
S'_'
p2467
tp2468
a(S'det'
p2469
S'pieces'
p2470
S'The'
p2471
tp2472
a(S'num'
p2473
S'pieces'
p2474
S'two'
p2475
tp2476
a(S'nn'
p2477
S'pieces'
p2478
S'station'
p2479
tp2480
a(S'nsubj'
p2481
g2467
S'pieces'
p2482
tp2483
a(S'cop'
p2484
g2467
S'are'
p2485
tp2486
a(S'advmod'
p2487
g2467
S'so'
p2488
tp2489
a(S'amod'
p2490
g2467
S'big'
p2491
tp2492
a(S'num'
p2493
S'feet'
p2494
S'77'
p2495
tp2496
a(S'npadvmod'
p2497
g2467
S'feet'
p2498
tp2499
a(S'det'
p2500
S'tip'
p2501
S'the'
p2502
tp2503
a(S'prep_from'
p2504
g2467
S'tip'
p2505
tp2506
a(S'prep_of'
p2507
S'tip'
p2508
S'one'
p2509
tp2510
a(S'det'
p2511
S'tip'
p2512
S'the'
p2513
tp2514
a(S'prep_to'
p2515
g2467
S'tip'
p2516
tp2517
a(S'det'
p2518
S'other'
p2519
S'the'
p2520
tp2521
a(S'prep_of'
p2522
S'tip'
p2523
S'other'
p2524
tp2525
a(S'det'
p2526
S'mass'
p2527
S'a'
p2528
tp2529
a(S'amod'
p2530
S'mass'
p2531
S'combined'
p2532
tp2533
a(S'nsubj'
p2534
g2467
S'mass'
p2535
tp2536
a(S'num'
p2537
S'pounds'
p2538
S'70,000'
p2539
tp2540
a(S'prep_of'
p2541
S'mass'
p2542
S'pounds'
p2543
tp2544
a(S'prep_with'
p2545
g2467
g2467
tp2546
a(S'mark'
p2547
S'going'
p2548
S'that'
p2549
tp2550
a(S'nsubj'
p2551
S'going'
p2552
S'Currie'
p2553
tp2554
a(S'poss'
p2555
S'crewmates'
p2556
S'her'
p2557
tp2558
a(S'conj_and'
p2559
S'Currie'
p2560
S'crewmates'
p2561
tp2562
a(S'aux'
p2563
S'going'
p2564
S'were'
p2565
tp2566
a(S'ccomp'
p2567
g2467
S'going'
p2568
tp2569
a(S'aux'
p2570
S'have'
p2571
S'to'
p2572
tp2573
a(S'xcomp'
p2574
S'going'
p2575
S'have'
p2576
tp2577
a(S'aux'
p2578
S'rely'
p2579
S'to'
p2580
tp2581
a(S'xcomp'
p2582
S'have'
p2583
S'rely'
p2584
tp2585
a(S'det'
p2586
S'system'
p2587
g2528
tp2588
a(S'amod'
p2589
S'system'
p2590
S'computerized'
p2591
tp2592
a(S'nn'
p2593
S'system'
p2594
S'vision'
p2595
tp2596
a(S'prep_on'
p2597
S'rely'
p2598
S'system'
p2599
tp2600
a(S'nn'
p2601
S'views'
p2602
S'camera'
p2603
tp2604
a(S'conj_and'
p2605
S'system'
p2606
S'views'
p2607
tp2608
a(S'amod'
p2609
S'line'
p2610
S'direct'
p2611
tp2612
a(S'conj_negcc'
p2613
g2467
S'line'
p2614
tp2615
a(S'prep_of'
p2616
S'line'
p2617
S'sight'
p2618
tp2619
asg61
(lp2620
(g2465
S'ROOT-0'
p2621
S'_-8'
p2622
tp2623
a(g2469
S'pieces-4'
p2624
S'The-1'
p2625
tp2626
a(g2473
S'pieces-4'
p2627
S'two-2'
p2628
tp2629
a(g2477
S'pieces-4'
p2630
S'station-3'
p2631
tp2632
a(g2481
S'_-8'
p2633
S'pieces-4'
p2634
tp2635
a(g2484
S'_-8'
p2636
S'are-5'
p2637
tp2638
a(g2487
S'_-8'
p2639
S'so-6'
p2640
tp2641
a(g2490
S'_-8'
p2642
S'big-7'
p2643
tp2644
a(g2493
S'feet-10'
p2645
S'77-9'
p2646
tp2647
a(g2497
S'_-8'
p2648
S'feet-10'
p2649
tp2650
a(g2500
S'tip-13'
p2651
S'the-12'
p2652
tp2653
a(g2504
S'_-8'
p2654
S'tip-13'
p2655
tp2656
a(g2507
S'tip-13'
p2657
S'one-15'
p2658
tp2659
a(g2511
S'tip-18'
p2660
S'the-17'
p2661
tp2662
a(g2515
S'_-8'
p2663
S'tip-18'
p2664
tp2665
a(g2518
S'other-21'
p2666
S'the-20'
p2667
tp2668
a(g2522
S'tip-18'
p2669
S'other-21'
p2670
tp2671
a(g2526
S'mass-25'
p2672
S'a-23'
p2673
tp2674
a(g2530
S'mass-25'
p2675
S'combined-24'
p2676
tp2677
a(g2534
S'_-29'
p2678
S'mass-25'
p2679
tp2680
a(g2537
S'pounds-28'
p2681
S'70,000-27'
p2682
tp2683
a(g2541
S'mass-25'
p2684
S'pounds-28'
p2685
tp2686
a(g2545
S'_-8'
p2687
S'_-29'
p2688
tp2689
a(g2547
S'going-36'
p2690
S'that-30'
p2691
tp2692
a(g2551
S'going-36'
p2693
S'Currie-31'
p2694
tp2695
a(g2555
S'crewmates-34'
p2696
S'her-33'
p2697
tp2698
a(g2559
S'Currie-31'
p2699
S'crewmates-34'
p2700
tp2701
a(g2563
S'going-36'
p2702
S'were-35'
p2703
tp2704
a(g2567
S'_-29'
p2705
S'going-36'
p2706
tp2707
a(g2570
S'have-38'
p2708
S'to-37'
p2709
tp2710
a(g2574
S'going-36'
p2711
S'have-38'
p2712
tp2713
a(g2578
S'rely-40'
p2714
S'to-39'
p2715
tp2716
a(g2582
S'have-38'
p2717
S'rely-40'
p2718
tp2719
a(g2586
S'system-45'
p2720
S'a-42'
p2721
tp2722
a(g2589
S'system-45'
p2723
S'computerized-43'
p2724
tp2725
a(g2593
S'system-45'
p2726
S'vision-44'
p2727
tp2728
a(g2597
S'rely-40'
p2729
S'system-45'
p2730
tp2731
a(g2601
S'views-48'
p2732
S'camera-47'
p2733
tp2734
a(g2605
S'system-45'
p2735
S'views-48'
p2736
tp2737
a(g2609
S'line-53'
p2738
S'direct-52'
p2739
tp2740
a(g2613
S'_-29'
p2741
S'line-53'
p2742
tp2743
a(g2616
S'line-53'
p2744
S'sight-55'
p2745
tp2746
asg93
(lp2747
(S'The'
p2748
(dp2749
S'NamedEntityTag'
p2750
g98
sS'CharacterOffsetEnd'
p2751
S'463'
p2752
sS'Lemma'
p2753
S'the'
p2754
sS'PartOfSpeech'
p2755
S'DT'
p2756
sS'CharacterOffsetBegin'
p2757
S'460'
p2758
stp2759
a(S'two'
p2760
(dp2761
S'NormalizedNamedEntityTag'
p2762
S'2.0'
p2763
sS'Lemma'
p2764
S'two'
p2765
sS'CharacterOffsetEnd'
p2766
S'467'
p2767
sS'PartOfSpeech'
p2768
S'CD'
p2769
sS'CharacterOffsetBegin'
p2770
S'464'
p2771
sS'NamedEntityTag'
p2772
S'NUMBER'
p2773
stp2774
a(S'station'
p2775
(dp2776
S'NamedEntityTag'
p2777
g98
sS'CharacterOffsetEnd'
p2778
S'475'
p2779
sS'Lemma'
p2780
S'station'
p2781
sS'PartOfSpeech'
p2782
S'NN'
p2783
sS'CharacterOffsetBegin'
p2784
S'468'
p2785
stp2786
a(S'pieces'
p2787
(dp2788
S'NamedEntityTag'
p2789
g98
sS'CharacterOffsetEnd'
p2790
S'482'
p2791
sS'Lemma'
p2792
S'piece'
p2793
sS'PartOfSpeech'
p2794
S'NNS'
p2795
sS'CharacterOffsetBegin'
p2796
S'476'
p2797
stp2798
a(S'are'
p2799
(dp2800
S'NamedEntityTag'
p2801
g98
sS'CharacterOffsetEnd'
p2802
S'486'
p2803
sS'Lemma'
p2804
S'be'
p2805
sS'PartOfSpeech'
p2806
S'VBP'
p2807
sS'CharacterOffsetBegin'
p2808
S'483'
p2809
stp2810
a(S'so'
p2811
(dp2812
S'NamedEntityTag'
p2813
g98
sS'CharacterOffsetEnd'
p2814
S'489'
p2815
sS'Lemma'
p2816
S'so'
p2817
sS'PartOfSpeech'
p2818
S'RB'
p2819
sS'CharacterOffsetBegin'
p2820
S'487'
p2821
stp2822
a(S'big'
p2823
(dp2824
S'NamedEntityTag'
p2825
g98
sS'CharacterOffsetEnd'
p2826
S'493'
p2827
sS'Lemma'
p2828
S'big'
p2829
sS'PartOfSpeech'
p2830
S'JJ'
p2831
sS'CharacterOffsetBegin'
p2832
S'490'
p2833
stp2834
a(g2467
(dp2835
S'NamedEntityTag'
p2836
g98
sS'CharacterOffsetEnd'
p2837
S'495'
p2838
sS'Lemma'
p2839
g2467
sS'PartOfSpeech'
p2840
S'NN'
p2841
sS'CharacterOffsetBegin'
p2842
S'494'
p2843
stp2844
a(S'77'
p2845
(dp2846
S'NormalizedNamedEntityTag'
p2847
S'77.0'
p2848
sS'Lemma'
p2849
S'77'
p2850
sS'CharacterOffsetEnd'
p2851
S'498'
p2852
sS'PartOfSpeech'
p2853
S'CD'
p2854
sS'CharacterOffsetBegin'
p2855
S'496'
p2856
sS'NamedEntityTag'
p2857
S'NUMBER'
p2858
stp2859
a(S'feet'
p2860
(dp2861
S'NamedEntityTag'
p2862
g98
sS'CharacterOffsetEnd'
p2863
S'503'
p2864
sS'Lemma'
p2865
S'foot'
p2866
sS'PartOfSpeech'
p2867
S'NNS'
p2868
sS'CharacterOffsetBegin'
p2869
S'499'
p2870
stp2871
a(S'from'
p2872
(dp2873
S'NamedEntityTag'
p2874
g98
sS'CharacterOffsetEnd'
p2875
S'508'
p2876
sS'Lemma'
p2877
S'from'
p2878
sS'PartOfSpeech'
p2879
S'IN'
p2880
sS'CharacterOffsetBegin'
p2881
S'504'
p2882
stp2883
a(S'the'
p2884
(dp2885
S'NamedEntityTag'
p2886
g98
sS'CharacterOffsetEnd'
p2887
S'512'
p2888
sS'Lemma'
p2889
S'the'
p2890
sS'PartOfSpeech'
p2891
S'DT'
p2892
sS'CharacterOffsetBegin'
p2893
S'509'
p2894
stp2895
a(S'tip'
p2896
(dp2897
S'NamedEntityTag'
p2898
g98
sS'CharacterOffsetEnd'
p2899
S'516'
p2900
sS'Lemma'
p2901
S'tip'
p2902
sS'PartOfSpeech'
p2903
S'NN'
p2904
sS'CharacterOffsetBegin'
p2905
S'513'
p2906
stp2907
a(S'of'
p2908
(dp2909
S'NamedEntityTag'
p2910
g98
sS'CharacterOffsetEnd'
p2911
S'519'
p2912
sS'Lemma'
p2913
S'of'
p2914
sS'PartOfSpeech'
p2915
S'IN'
p2916
sS'CharacterOffsetBegin'
p2917
S'517'
p2918
stp2919
a(S'one'
p2920
(dp2921
S'NormalizedNamedEntityTag'
p2922
S'1.0'
p2923
sS'Lemma'
p2924
S'one'
p2925
sS'CharacterOffsetEnd'
p2926
S'523'
p2927
sS'PartOfSpeech'
p2928
S'CD'
p2929
sS'CharacterOffsetBegin'
p2930
S'520'
p2931
sS'NamedEntityTag'
p2932
S'NUMBER'
p2933
stp2934
a(S'to'
p2935
(dp2936
S'NamedEntityTag'
p2937
g98
sS'CharacterOffsetEnd'
p2938
S'526'
p2939
sS'Lemma'
p2940
S'to'
p2941
sS'PartOfSpeech'
p2942
S'TO'
p2943
sS'CharacterOffsetBegin'
p2944
S'524'
p2945
stp2946
a(S'the'
p2947
(dp2948
S'NamedEntityTag'
p2949
g98
sS'CharacterOffsetEnd'
p2950
S'530'
p2951
sS'Lemma'
p2952
S'the'
p2953
sS'PartOfSpeech'
p2954
S'DT'
p2955
sS'CharacterOffsetBegin'
p2956
S'527'
p2957
stp2958
a(S'tip'
p2959
(dp2960
S'NamedEntityTag'
p2961
g98
sS'CharacterOffsetEnd'
p2962
S'534'
p2963
sS'Lemma'
p2964
S'tip'
p2965
sS'PartOfSpeech'
p2966
S'NN'
p2967
sS'CharacterOffsetBegin'
p2968
S'531'
p2969
stp2970
a(S'of'
p2971
(dp2972
S'NamedEntityTag'
p2973
g98
sS'CharacterOffsetEnd'
p2974
S'537'
p2975
sS'Lemma'
p2976
S'of'
p2977
sS'PartOfSpeech'
p2978
S'IN'
p2979
sS'CharacterOffsetBegin'
p2980
S'535'
p2981
stp2982
a(S'the'
p2983
(dp2984
S'NamedEntityTag'
p2985
g98
sS'CharacterOffsetEnd'
p2986
S'541'
p2987
sS'Lemma'
p2988
S'the'
p2989
sS'PartOfSpeech'
p2990
S'DT'
p2991
sS'CharacterOffsetBegin'
p2992
S'538'
p2993
stp2994
a(S'other'
p2995
(dp2996
S'NamedEntityTag'
p2997
g98
sS'CharacterOffsetEnd'
p2998
S'547'
p2999
sS'Lemma'
p3000
S'other'
p3001
sS'PartOfSpeech'
p3002
S'JJ'
p3003
sS'CharacterOffsetBegin'
p3004
S'542'
p3005
stp3006
a(S'with'
p3007
(dp3008
S'NamedEntityTag'
p3009
g98
sS'CharacterOffsetEnd'
p3010
S'552'
p3011
sS'Lemma'
p3012
S'with'
p3013
sS'PartOfSpeech'
p3014
S'IN'
p3015
sS'CharacterOffsetBegin'
p3016
S'548'
p3017
stp3018
a(g2528
(dp3019
S'NamedEntityTag'
p3020
g98
sS'CharacterOffsetEnd'
p3021
S'554'
p3022
sS'Lemma'
p3023
g2528
sS'PartOfSpeech'
p3024
S'DT'
p3025
sS'CharacterOffsetBegin'
p3026
S'553'
p3027
stp3028
a(S'combined'
p3029
(dp3030
S'NamedEntityTag'
p3031
g98
sS'CharacterOffsetEnd'
p3032
S'563'
p3033
sS'Lemma'
p3034
S'combined'
p3035
sS'PartOfSpeech'
p3036
S'JJ'
p3037
sS'CharacterOffsetBegin'
p3038
S'555'
p3039
stp3040
a(S'mass'
p3041
(dp3042
S'NamedEntityTag'
p3043
g98
sS'CharacterOffsetEnd'
p3044
S'568'
p3045
sS'Lemma'
p3046
S'mass'
p3047
sS'PartOfSpeech'
p3048
S'NN'
p3049
sS'CharacterOffsetBegin'
p3050
S'564'
p3051
stp3052
a(S'of'
p3053
(dp3054
S'NamedEntityTag'
p3055
g98
sS'CharacterOffsetEnd'
p3056
S'571'
p3057
sS'Lemma'
p3058
S'of'
p3059
sS'PartOfSpeech'
p3060
S'IN'
p3061
sS'CharacterOffsetBegin'
p3062
S'569'
p3063
stp3064
a(S'70,000'
p3065
(dp3066
S'NormalizedNamedEntityTag'
p3067
S'PS70000.0'
p3068
sS'Lemma'
p3069
S'70,000'
p3070
sS'CharacterOffsetEnd'
p3071
S'578'
p3072
sS'PartOfSpeech'
p3073
S'CD'
p3074
sS'CharacterOffsetBegin'
p3075
S'572'
p3076
sS'NamedEntityTag'
p3077
S'MONEY'
p3078
stp3079
a(S'pounds'
p3080
(dp3081
S'NormalizedNamedEntityTag'
p3082
S'PS70000.0'
p3083
sS'Lemma'
p3084
S'pound'
p3085
sS'CharacterOffsetEnd'
p3086
S'585'
p3087
sS'PartOfSpeech'
p3088
S'NNS'
p3089
sS'CharacterOffsetBegin'
p3090
S'579'
p3091
sS'NamedEntityTag'
p3092
S'MONEY'
p3093
stp3094
a(g2467
(dp3095
S'NamedEntityTag'
p3096
g98
sS'CharacterOffsetEnd'
p3097
S'587'
p3098
sS'Lemma'
p3099
g2467
sS'PartOfSpeech'
p3100
S'VBP'
p3101
sS'CharacterOffsetBegin'
p3102
S'586'
p3103
stp3104
a(S'that'
p3105
(dp3106
S'NamedEntityTag'
p3107
g98
sS'CharacterOffsetEnd'
p3108
S'592'
p3109
sS'Lemma'
p3110
S'that'
p3111
sS'PartOfSpeech'
p3112
S'IN'
p3113
sS'CharacterOffsetBegin'
p3114
S'588'
p3115
stp3116
a(S'Currie'
p3117
(dp3118
S'NamedEntityTag'
p3119
S'PERSON'
p3120
sS'CharacterOffsetEnd'
p3121
S'599'
p3122
sS'Lemma'
p3123
S'Currie'
p3124
sS'PartOfSpeech'
p3125
S'NNP'
p3126
sS'CharacterOffsetBegin'
p3127
S'593'
p3128
stp3129
a(S'and'
p3130
(dp3131
S'NamedEntityTag'
p3132
g98
sS'CharacterOffsetEnd'
p3133
S'603'
p3134
sS'Lemma'
p3135
S'and'
p3136
sS'PartOfSpeech'
p3137
S'CC'
p3138
sS'CharacterOffsetBegin'
p3139
S'600'
p3140
stp3141
a(S'her'
p3142
(dp3143
S'NamedEntityTag'
p3144
g98
sS'CharacterOffsetEnd'
p3145
S'607'
p3146
sS'Lemma'
p3147
S'she'
p3148
sS'PartOfSpeech'
p3149
S'PRP$'
p3150
sS'CharacterOffsetBegin'
p3151
S'604'
p3152
stp3153
a(S'crewmates'
p3154
(dp3155
S'NamedEntityTag'
p3156
g98
sS'CharacterOffsetEnd'
p3157
S'617'
p3158
sS'Lemma'
p3159
S'crewmate'
p3160
sS'PartOfSpeech'
p3161
S'NNS'
p3162
sS'CharacterOffsetBegin'
p3163
S'608'
p3164
stp3165
a(S'were'
p3166
(dp3167
S'NamedEntityTag'
p3168
g98
sS'CharacterOffsetEnd'
p3169
S'622'
p3170
sS'Lemma'
p3171
S'be'
p3172
sS'PartOfSpeech'
p3173
S'VBD'
p3174
sS'CharacterOffsetBegin'
p3175
S'618'
p3176
stp3177
a(S'going'
p3178
(dp3179
S'NamedEntityTag'
p3180
g98
sS'CharacterOffsetEnd'
p3181
S'628'
p3182
sS'Lemma'
p3183
S'go'
p3184
sS'PartOfSpeech'
p3185
S'VBG'
p3186
sS'CharacterOffsetBegin'
p3187
S'623'
p3188
stp3189
a(S'to'
p3190
(dp3191
S'NamedEntityTag'
p3192
g98
sS'CharacterOffsetEnd'
p3193
S'631'
p3194
sS'Lemma'
p3195
S'to'
p3196
sS'PartOfSpeech'
p3197
S'TO'
p3198
sS'CharacterOffsetBegin'
p3199
S'629'
p3200
stp3201
a(S'have'
p3202
(dp3203
S'NamedEntityTag'
p3204
g98
sS'CharacterOffsetEnd'
p3205
S'636'
p3206
sS'Lemma'
p3207
S'have'
p3208
sS'PartOfSpeech'
p3209
S'VB'
p3210
sS'CharacterOffsetBegin'
p3211
S'632'
p3212
stp3213
a(S'to'
p3214
(dp3215
S'NamedEntityTag'
p3216
g98
sS'CharacterOffsetEnd'
p3217
S'639'
p3218
sS'Lemma'
p3219
S'to'
p3220
sS'PartOfSpeech'
p3221
S'TO'
p3222
sS'CharacterOffsetBegin'
p3223
S'637'
p3224
stp3225
a(S'rely'
p3226
(dp3227
S'NamedEntityTag'
p3228
g98
sS'CharacterOffsetEnd'
p3229
S'644'
p3230
sS'Lemma'
p3231
S'rely'
p3232
sS'PartOfSpeech'
p3233
S'VB'
p3234
sS'CharacterOffsetBegin'
p3235
S'640'
p3236
stp3237
a(S'on'
p3238
(dp3239
S'NamedEntityTag'
p3240
g98
sS'CharacterOffsetEnd'
p3241
S'647'
p3242
sS'Lemma'
p3243
S'on'
p3244
sS'PartOfSpeech'
p3245
S'IN'
p3246
sS'CharacterOffsetBegin'
p3247
S'645'
p3248
stp3249
a(g2528
(dp3250
S'NamedEntityTag'
p3251
g98
sS'CharacterOffsetEnd'
p3252
S'649'
p3253
sS'Lemma'
p3254
g2528
sS'PartOfSpeech'
p3255
S'DT'
p3256
sS'CharacterOffsetBegin'
p3257
S'648'
p3258
stp3259
a(S'computerized'
p3260
(dp3261
S'NamedEntityTag'
p3262
g98
sS'CharacterOffsetEnd'
p3263
S'662'
p3264
sS'Lemma'
p3265
S'computerized'
p3266
sS'PartOfSpeech'
p3267
S'JJ'
p3268
sS'CharacterOffsetBegin'
p3269
S'650'
p3270
stp3271
a(S'vision'
p3272
(dp3273
S'NamedEntityTag'
p3274
g98
sS'CharacterOffsetEnd'
p3275
S'669'
p3276
sS'Lemma'
p3277
S'vision'
p3278
sS'PartOfSpeech'
p3279
S'NN'
p3280
sS'CharacterOffsetBegin'
p3281
S'663'
p3282
stp3283
a(S'system'
p3284
(dp3285
S'NamedEntityTag'
p3286
g98
sS'CharacterOffsetEnd'
p3287
S'676'
p3288
sS'Lemma'
p3289
S'system'
p3290
sS'PartOfSpeech'
p3291
S'NN'
p3292
sS'CharacterOffsetBegin'
p3293
S'670'
p3294
stp3295
a(S'and'
p3296
(dp3297
S'NamedEntityTag'
p3298
g98
sS'CharacterOffsetEnd'
p3299
S'680'
p3300
sS'Lemma'
p3301
S'and'
p3302
sS'PartOfSpeech'
p3303
S'CC'
p3304
sS'CharacterOffsetBegin'
p3305
S'677'
p3306
stp3307
a(S'camera'
p3308
(dp3309
S'NamedEntityTag'
p3310
g98
sS'CharacterOffsetEnd'
p3311
S'687'
p3312
sS'Lemma'
p3313
S'camera'
p3314
sS'PartOfSpeech'
p3315
S'NN'
p3316
sS'CharacterOffsetBegin'
p3317
S'681'
p3318
stp3319
a(S'views'
p3320
(dp3321
S'NamedEntityTag'
p3322
g98
sS'CharacterOffsetEnd'
p3323
S'693'
p3324
sS'Lemma'
p3325
S'view'
p3326
sS'PartOfSpeech'
p3327
S'NNS'
p3328
sS'CharacterOffsetBegin'
p3329
S'688'
p3330
stp3331
a(g1427
(dp3332
S'NamedEntityTag'
p3333
g98
sS'CharacterOffsetEnd'
p3334
S'694'
p3335
sS'Lemma'
p3336
g1427
sS'PartOfSpeech'
p3337
g1427
sS'CharacterOffsetBegin'
p3338
S'693'
p3339
stp3340
a(S'rather'
p3341
(dp3342
S'NamedEntityTag'
p3343
g98
sS'CharacterOffsetEnd'
p3344
S'701'
p3345
sS'Lemma'
p3346
S'rather'
p3347
sS'PartOfSpeech'
p3348
S'RB'
p3349
sS'CharacterOffsetBegin'
p3350
S'695'
p3351
stp3352
a(S'than'
p3353
(dp3354
S'NamedEntityTag'
p3355
g98
sS'CharacterOffsetEnd'
p3356
S'706'
p3357
sS'Lemma'
p3358
S'than'
p3359
sS'PartOfSpeech'
p3360
S'IN'
p3361
sS'CharacterOffsetBegin'
p3362
S'702'
p3363
stp3364
a(S'direct'
p3365
(dp3366
S'NamedEntityTag'
p3367
g98
sS'CharacterOffsetEnd'
p3368
S'713'
p3369
sS'Lemma'
p3370
S'direct'
p3371
sS'PartOfSpeech'
p3372
S'JJ'
p3373
sS'CharacterOffsetBegin'
p3374
S'707'
p3375
stp3376
a(S'line'
p3377
(dp3378
S'NamedEntityTag'
p3379
g98
sS'CharacterOffsetEnd'
p3380
S'718'
p3381
sS'Lemma'
p3382
S'line'
p3383
sS'PartOfSpeech'
p3384
S'NN'
p3385
sS'CharacterOffsetBegin'
p3386
S'714'
p3387
stp3388
a(S'of'
p3389
(dp3390
S'NamedEntityTag'
p3391
g98
sS'CharacterOffsetEnd'
p3392
S'721'
p3393
sS'Lemma'
p3394
S'of'
p3395
sS'PartOfSpeech'
p3396
S'IN'
p3397
sS'CharacterOffsetBegin'
p3398
S'719'
p3399
stp3400
a(S'sight'
p3401
(dp3402
S'NamedEntityTag'
p3403
g98
sS'CharacterOffsetEnd'
p3404
S'727'
p3405
sS'Lemma'
p3406
S'sight'
p3407
sS'PartOfSpeech'
p3408
S'NN'
p3409
sS'CharacterOffsetBegin'
p3410
S'722'
p3411
stp3412
a(g404
(dp3413
S'NamedEntityTag'
p3414
g98
sS'CharacterOffsetEnd'
p3415
S'728'
p3416
sS'Lemma'
p3417
g404
sS'PartOfSpeech'
p3418
g404
sS'CharacterOffsetBegin'
p3419
S'727'
p3420
stp3421
asa(dp3422
g15
S'(ROOT (S (NP (PDT Such) (DT a) (JJ blind) (NN docking)) (VP (VBD had) (ADVP (RB never)) (VP (VBN been) (VP (VBN attempted) (PP (IN before))))) (. .)))'
p3423
sg17
S'Such a blind docking had never been attempted before.'
p3424
sg19
(lp3425
(S'root'
p3426
S'ROOT'
p3427
S'attempted'
p3428
tp3429
a(S'predet'
p3430
S'docking'
p3431
S'Such'
p3432
tp3433
a(S'det'
p3434
S'docking'
p3435
g2528
tp3436
a(S'amod'
p3437
S'docking'
p3438
S'blind'
p3439
tp3440
a(S'nsubjpass'
p3441
S'attempted'
p3442
S'docking'
p3443
tp3444
a(S'aux'
p3445
S'attempted'
p3446
S'had'
p3447
tp3448
a(S'neg'
p3449
S'attempted'
p3450
S'never'
p3451
tp3452
a(S'auxpass'
p3453
S'attempted'
p3454
S'been'
p3455
tp3456
a(S'prep'
p3457
S'attempted'
p3458
S'before'
p3459
tp3460
asg61
(lp3461
(g3426
S'ROOT-0'
p3462
S'attempted-8'
p3463
tp3464
a(g3430
S'docking-4'
p3465
S'Such-1'
p3466
tp3467
a(g3434
S'docking-4'
p3468
S'a-2'
p3469
tp3470
a(g3437
S'docking-4'
p3471
S'blind-3'
p3472
tp3473
a(g3441
S'attempted-8'
p3474
S'docking-4'
p3475
tp3476
a(g3445
S'attempted-8'
p3477
S'had-5'
p3478
tp3479
a(g3449
S'attempted-8'
p3480
S'never-6'
p3481
tp3482
a(g3453
S'attempted-8'
p3483
S'been-7'
p3484
tp3485
a(g3457
S'attempted-8'
p3486
S'before-9'
p3487
tp3488
asg93
(lp3489
(S'Such'
p3490
(dp3491
S'NamedEntityTag'
p3492
g98
sS'CharacterOffsetEnd'
p3493
S'733'
p3494
sS'Lemma'
p3495
S'such'
p3496
sS'PartOfSpeech'
p3497
S'PDT'
p3498
sS'CharacterOffsetBegin'
p3499
S'729'
p3500
stp3501
a(g2528
(dp3502
S'NamedEntityTag'
p3503
g98
sS'CharacterOffsetEnd'
p3504
S'735'
p3505
sS'Lemma'
p3506
g2528
sS'PartOfSpeech'
p3507
S'DT'
p3508
sS'CharacterOffsetBegin'
p3509
S'734'
p3510
stp3511
a(S'blind'
p3512
(dp3513
S'NamedEntityTag'
p3514
g98
sS'CharacterOffsetEnd'
p3515
S'741'
p3516
sS'Lemma'
p3517
S'blind'
p3518
sS'PartOfSpeech'
p3519
S'JJ'
p3520
sS'CharacterOffsetBegin'
p3521
S'736'
p3522
stp3523
a(S'docking'
p3524
(dp3525
S'NamedEntityTag'
p3526
g98
sS'CharacterOffsetEnd'
p3527
S'749'
p3528
sS'Lemma'
p3529
S'docking'
p3530
sS'PartOfSpeech'
p3531
S'NN'
p3532
sS'CharacterOffsetBegin'
p3533
S'742'
p3534
stp3535
a(S'had'
p3536
(dp3537
S'NamedEntityTag'
p3538
g98
sS'CharacterOffsetEnd'
p3539
S'753'
p3540
sS'Lemma'
p3541
S'have'
p3542
sS'PartOfSpeech'
p3543
S'VBD'
p3544
sS'CharacterOffsetBegin'
p3545
S'750'
p3546
stp3547
a(S'never'
p3548
(dp3549
S'NamedEntityTag'
p3550
g98
sS'CharacterOffsetEnd'
p3551
S'759'
p3552
sS'Lemma'
p3553
S'never'
p3554
sS'PartOfSpeech'
p3555
S'RB'
p3556
sS'CharacterOffsetBegin'
p3557
S'754'
p3558
stp3559
a(S'been'
p3560
(dp3561
S'NamedEntityTag'
p3562
g98
sS'CharacterOffsetEnd'
p3563
S'764'
p3564
sS'Lemma'
p3565
S'be'
p3566
sS'PartOfSpeech'
p3567
S'VBN'
p3568
sS'CharacterOffsetBegin'
p3569
S'760'
p3570
stp3571
a(S'attempted'
p3572
(dp3573
S'NamedEntityTag'
p3574
g98
sS'CharacterOffsetEnd'
p3575
S'774'
p3576
sS'Lemma'
p3577
S'attempt'
p3578
sS'PartOfSpeech'
p3579
S'VBN'
p3580
sS'CharacterOffsetBegin'
p3581
S'765'
p3582
stp3583
a(S'before'
p3584
(dp3585
S'NamedEntityTag'
p3586
g98
sS'CharacterOffsetEnd'
p3587
S'781'
p3588
sS'Lemma'
p3589
S'before'
p3590
sS'PartOfSpeech'
p3591
S'IN'
p3592
sS'CharacterOffsetBegin'
p3593
S'775'
p3594
stp3595
a(g404
(dp3596
S'NamedEntityTag'
p3597
g98
sS'CharacterOffsetEnd'
p3598
S'782'
p3599
sS'Lemma'
p3600
g404
sS'PartOfSpeech'
p3601
g404
sS'CharacterOffsetBegin'
p3602
S'781'
p3603
stp3604
asa(dp3605
g15
S'(ROOT (S (NP (NNP Mission) (NNP Control)) (VP (VBD gave) (NP (DT the) (NNS astronauts)) (NP (NP (NN plenty)) (PP (IN of) (NP (NP (NN time)) (PP (IN for) (NP (DT the) (NNS tasks))))))) (. .)))'
p3606
sg17
S'Mission Control gave the astronauts plenty of time for the tasks.'
p3607
sg19
(lp3608
(S'root'
p3609
S'ROOT'
p3610
S'gave'
p3611
tp3612
a(S'nn'
p3613
S'Control'
p3614
S'Mission'
p3615
tp3616
a(S'nsubj'
p3617
S'gave'
p3618
S'Control'
p3619
tp3620
a(S'det'
p3621
S'astronauts'
p3622
S'the'
p3623
tp3624
a(S'iobj'
p3625
S'gave'
p3626
S'astronauts'
p3627
tp3628
a(S'dobj'
p3629
S'gave'
p3630
S'plenty'
p3631
tp3632
a(S'prep_of'
p3633
S'plenty'
p3634
S'time'
p3635
tp3636
a(S'det'
p3637
S'tasks'
p3638
S'the'
p3639
tp3640
a(S'prep_for'
p3641
S'time'
p3642
S'tasks'
p3643
tp3644
asg61
(lp3645
(g3609
S'ROOT-0'
p3646
S'gave-3'
p3647
tp3648
a(g3613
S'Control-2'
p3649
S'Mission-1'
p3650
tp3651
a(g3617
S'gave-3'
p3652
S'Control-2'
p3653
tp3654
a(g3621
S'astronauts-5'
p3655
S'the-4'
p3656
tp3657
a(g3625
S'gave-3'
p3658
S'astronauts-5'
p3659
tp3660
a(g3629
S'gave-3'
p3661
S'plenty-6'
p3662
tp3663
a(g3633
S'plenty-6'
p3664
S'time-8'
p3665
tp3666
a(g3637
S'tasks-11'
p3667
S'the-10'
p3668
tp3669
a(g3641
S'time-8'
p3670
S'tasks-11'
p3671
tp3672
asg93
(lp3673
(S'Mission'
p3674
(dp3675
S'NamedEntityTag'
p3676
S'ORGANIZATION'
p3677
sS'CharacterOffsetEnd'
p3678
S'790'
p3679
sS'Lemma'
p3680
S'Mission'
p3681
sS'PartOfSpeech'
p3682
S'NNP'
p3683
sS'CharacterOffsetBegin'
p3684
S'783'
p3685
stp3686
a(S'Control'
p3687
(dp3688
S'NamedEntityTag'
p3689
S'ORGANIZATION'
p3690
sS'CharacterOffsetEnd'
p3691
S'798'
p3692
sS'Lemma'
p3693
S'Control'
p3694
sS'PartOfSpeech'
p3695
S'NNP'
p3696
sS'CharacterOffsetBegin'
p3697
S'791'
p3698
stp3699
a(S'gave'
p3700
(dp3701
S'NamedEntityTag'
p3702
g98
sS'CharacterOffsetEnd'
p3703
S'803'
p3704
sS'Lemma'
p3705
S'give'
p3706
sS'PartOfSpeech'
p3707
S'VBD'
p3708
sS'CharacterOffsetBegin'
p3709
S'799'
p3710
stp3711
a(S'the'
p3712
(dp3713
S'NamedEntityTag'
p3714
g98
sS'CharacterOffsetEnd'
p3715
S'807'
p3716
sS'Lemma'
p3717
S'the'
p3718
sS'PartOfSpeech'
p3719
S'DT'
p3720
sS'CharacterOffsetBegin'
p3721
S'804'
p3722
stp3723
a(S'astronauts'
p3724
(dp3725
S'NamedEntityTag'
p3726
g98
sS'CharacterOffsetEnd'
p3727
S'818'
p3728
sS'Lemma'
p3729
S'astronaut'
p3730
sS'PartOfSpeech'
p3731
S'NNS'
p3732
sS'CharacterOffsetBegin'
p3733
S'808'
p3734
stp3735
a(S'plenty'
p3736
(dp3737
S'NamedEntityTag'
p3738
g98
sS'CharacterOffsetEnd'
p3739
S'825'
p3740
sS'Lemma'
p3741
S'plenty'
p3742
sS'PartOfSpeech'
p3743
S'NN'
p3744
sS'CharacterOffsetBegin'
p3745
S'819'
p3746
stp3747
a(S'of'
p3748
(dp3749
S'NamedEntityTag'
p3750
g98
sS'CharacterOffsetEnd'
p3751
S'828'
p3752
sS'Lemma'
p3753
S'of'
p3754
sS'PartOfSpeech'
p3755
S'IN'
p3756
sS'CharacterOffsetBegin'
p3757
S'826'
p3758
stp3759
a(S'time'
p3760
(dp3761
S'NamedEntityTag'
p3762
g98
sS'CharacterOffsetEnd'
p3763
S'833'
p3764
sS'Lemma'
p3765
S'time'
p3766
sS'PartOfSpeech'
p3767
S'NN'
p3768
sS'CharacterOffsetBegin'
p3769
S'829'
p3770
stp3771
a(S'for'
p3772
(dp3773
S'NamedEntityTag'
p3774
g98
sS'CharacterOffsetEnd'
p3775
S'837'
p3776
sS'Lemma'
p3777
S'for'
p3778
sS'PartOfSpeech'
p3779
S'IN'
p3780
sS'CharacterOffsetBegin'
p3781
S'834'
p3782
stp3783
a(S'the'
p3784
(dp3785
S'NamedEntityTag'
p3786
g98
sS'CharacterOffsetEnd'
p3787
S'841'
p3788
sS'Lemma'
p3789
S'the'
p3790
sS'PartOfSpeech'
p3791
S'DT'
p3792
sS'CharacterOffsetBegin'
p3793
S'838'
p3794
stp3795
a(S'tasks'
p3796
(dp3797
S'NamedEntityTag'
p3798
g98
sS'CharacterOffsetEnd'
p3799
S'847'
p3800
sS'Lemma'
p3801
S'task'
p3802
sS'PartOfSpeech'
p3803
S'NNS'
p3804
sS'CharacterOffsetBegin'
p3805
S'842'
p3806
stp3807
a(g404
(dp3808
S'NamedEntityTag'
p3809
g98
sS'CharacterOffsetEnd'
p3810
S'848'
p3811
sS'Lemma'
p3812
g404
sS'PartOfSpeech'
p3813
g404
sS'CharacterOffsetBegin'
p3814
S'847'
p3815
stp3816
asa(dp3817
g15
S'(ROOT (S (NP (NP (DT The) (JJ main) (NN thing)) (SBAR (S (NP (NNP Ive)) (VP (VBD tried) (S (VP (TO to) (VP (VB do) (PP (IN for) (NP (DT the) (JJ last) (CD two) (NNS years))))))))) (VP (VBG working) (PP (IN on) (NP (DT this) (NN flight))))) (VP (VBZ is) (S (VP (VB make) (ADJP (JJ sure) (SBAR (S (NP (PRP we)) (VP (VBP have) (NP (NN time))))))))) (. .)))'
p3818
sg17
S'The main thing Ive tried to do for the last two years working on this flight is make sure we have time.'
p3819
sg19
(lp3820
(S'root'
p3821
S'ROOT'
p3822
S'is'
p3823
tp3824
a(S'det'
p3825
S'thing'
p3826
S'The'
p3827
tp3828
a(S'amod'
p3829
S'thing'
p3830
S'main'
p3831
tp3832
a(S'nsubj'
p3833
S'is'
p3834
S'thing'
p3835
tp3836
a(S'nsubj'
p3837
S'tried'
p3838
S'Ive'
p3839
tp3840
a(S'rcmod'
p3841
S'thing'
p3842
S'tried'
p3843
tp3844
a(S'aux'
p3845
S'do'
p3846
S'to'
p3847
tp3848
a(S'xcomp'
p3849
S'tried'
p3850
S'do'
p3851
tp3852
a(S'det'
p3853
S'years'
p3854
S'the'
p3855
tp3856
a(S'amod'
p3857
S'years'
p3858
S'last'
p3859
tp3860
a(S'num'
p3861
S'years'
p3862
S'two'
p3863
tp3864
a(S'prep_for'
p3865
S'do'
p3866
S'years'
p3867
tp3868
a(S'partmod'
p3869
S'thing'
p3870
S'working'
p3871
tp3872
a(S'det'
p3873
S'flight'
p3874
S'this'
p3875
tp3876
a(S'prep_on'
p3877
S'working'
p3878
S'flight'
p3879
tp3880
a(S'ccomp'
p3881
S'is'
p3882
S'make'
p3883
tp3884
a(S'acomp'
p3885
S'make'
p3886
S'sure'
p3887
tp3888
a(S'nsubj'
p3889
S'have'
p3890
S'we'
p3891
tp3892
a(S'ccomp'
p3893
S'sure'
p3894
S'have'
p3895
tp3896
a(S'dobj'
p3897
S'have'
p3898
S'time'
p3899
tp3900
asg61
(lp3901
(g3821
S'ROOT-0'
p3902
S'is-17'
p3903
tp3904
a(g3825
S'thing-3'
p3905
S'The-1'
p3906
tp3907
a(g3829
S'thing-3'
p3908
S'main-2'
p3909
tp3910
a(g3833
S'is-17'
p3911
S'thing-3'
p3912
tp3913
a(g3837
S'tried-5'
p3914
S'Ive-4'
p3915
tp3916
a(g3841
S'thing-3'
p3917
S'tried-5'
p3918
tp3919
a(g3845
S'do-7'
p3920
S'to-6'
p3921
tp3922
a(g3849
S'tried-5'
p3923
S'do-7'
p3924
tp3925
a(g3853
S'years-12'
p3926
S'the-9'
p3927
tp3928
a(g3857
S'years-12'
p3929
S'last-10'
p3930
tp3931
a(g3861
S'years-12'
p3932
S'two-11'
p3933
tp3934
a(g3865
S'do-7'
p3935
S'years-12'
p3936
tp3937
a(g3869
S'thing-3'
p3938
S'working-13'
p3939
tp3940
a(g3873
S'flight-16'
p3941
S'this-15'
p3942
tp3943
a(g3877
S'working-13'
p3944
S'flight-16'
p3945
tp3946
a(g3881
S'is-17'
p3947
S'make-18'
p3948
tp3949
a(g3885
S'make-18'
p3950
S'sure-19'
p3951
tp3952
a(g3889
S'have-21'
p3953
S'we-20'
p3954
tp3955
a(g3893
S'sure-19'
p3956
S'have-21'
p3957
tp3958
a(g3897
S'have-21'
p3959
S'time-22'
p3960
tp3961
asg93
(lp3962
(S'The'
p3963
(dp3964
S'NamedEntityTag'
p3965
g98
sS'CharacterOffsetEnd'
p3966
S'852'
p3967
sS'Lemma'
p3968
S'the'
p3969
sS'PartOfSpeech'
p3970
S'DT'
p3971
sS'CharacterOffsetBegin'
p3972
S'849'
p3973
stp3974
a(S'main'
p3975
(dp3976
S'NamedEntityTag'
p3977
g98
sS'CharacterOffsetEnd'
p3978
S'857'
p3979
sS'Lemma'
p3980
S'main'
p3981
sS'PartOfSpeech'
p3982
S'JJ'
p3983
sS'CharacterOffsetBegin'
p3984
S'853'
p3985
stp3986
a(S'thing'
p3987
(dp3988
S'NamedEntityTag'
p3989
g98
sS'CharacterOffsetEnd'
p3990
S'863'
p3991
sS'Lemma'
p3992
S'thing'
p3993
sS'PartOfSpeech'
p3994
S'NN'
p3995
sS'CharacterOffsetBegin'
p3996
S'858'
p3997
stp3998
a(S'Ive'
p3999
(dp4000
S'NamedEntityTag'
p4001
g98
sS'CharacterOffsetEnd'
p4002
S'867'
p4003
sS'Lemma'
p4004
S'Ive'
p4005
sS'PartOfSpeech'
p4006
S'NNP'
p4007
sS'CharacterOffsetBegin'
p4008
S'864'
p4009
stp4010
a(S'tried'
p4011
(dp4012
S'NamedEntityTag'
p4013
g98
sS'CharacterOffsetEnd'
p4014
S'873'
p4015
sS'Lemma'
p4016
S'try'
p4017
sS'PartOfSpeech'
p4018
S'VBD'
p4019
sS'CharacterOffsetBegin'
p4020
S'868'
p4021
stp4022
a(S'to'
p4023
(dp4024
S'NamedEntityTag'
p4025
g98
sS'CharacterOffsetEnd'
p4026
S'876'
p4027
sS'Lemma'
p4028
S'to'
p4029
sS'PartOfSpeech'
p4030
S'TO'
p4031
sS'CharacterOffsetBegin'
p4032
S'874'
p4033
stp4034
a(S'do'
p4035
(dp4036
S'NamedEntityTag'
p4037
g98
sS'CharacterOffsetEnd'
p4038
S'879'
p4039
sS'Lemma'
p4040
S'do'
p4041
sS'PartOfSpeech'
p4042
S'VB'
p4043
sS'CharacterOffsetBegin'
p4044
S'877'
p4045
stp4046
a(S'for'
p4047
(dp4048
S'NamedEntityTag'
p4049
g98
sS'CharacterOffsetEnd'
p4050
S'883'
p4051
sS'Lemma'
p4052
S'for'
p4053
sS'PartOfSpeech'
p4054
S'IN'
p4055
sS'CharacterOffsetBegin'
p4056
S'880'
p4057
stp4058
a(S'the'
p4059
(dp4060
S'NormalizedNamedEntityTag'
p4061
S'P2Y'
p4062
sS'Timex'
p4063
S'<TIMEX3 beginPoint="t3" endPoint="t0" tid="t4" type="DURATION" value="P2Y">the last two years</TIMEX3>'
p4064
sS'Lemma'
p4065
S'the'
p4066
sS'CharacterOffsetEnd'
p4067
S'887'
p4068
sS'PartOfSpeech'
p4069
S'DT'
p4070
sS'CharacterOffsetBegin'
p4071
S'884'
p4072
sS'NamedEntityTag'
p4073
S'DURATION'
p4074
stp4075
a(S'last'
p4076
(dp4077
S'NormalizedNamedEntityTag'
p4078
S'P2Y'
p4079
sS'Timex'
p4080
S'<TIMEX3 beginPoint="t3" endPoint="t0" tid="t4" type="DURATION" value="P2Y">the last two years</TIMEX3>'
p4081
sS'Lemma'
p4082
S'last'
p4083
sS'CharacterOffsetEnd'
p4084
S'892'
p4085
sS'PartOfSpeech'
p4086
S'JJ'
p4087
sS'CharacterOffsetBegin'
p4088
S'888'
p4089
sS'NamedEntityTag'
p4090
S'DATE'
p4091
stp4092
a(S'two'
p4093
(dp4094
S'NormalizedNamedEntityTag'
p4095
S'P2Y'
p4096
sS'Timex'
p4097
S'<TIMEX3 beginPoint="t3" endPoint="t0" tid="t4" type="DURATION" value="P2Y">the last two years</TIMEX3>'
p4098
sS'Lemma'
p4099
S'two'
p4100
sS'CharacterOffsetEnd'
p4101
S'896'
p4102
sS'PartOfSpeech'
p4103
S'CD'
p4104
sS'CharacterOffsetBegin'
p4105
S'893'
p4106
sS'NamedEntityTag'
p4107
S'DATE'
p4108
stp4109
a(S'years'
p4110
(dp4111
S'NormalizedNamedEntityTag'
p4112
S'P2Y'
p4113
sS'Timex'
p4114
S'<TIMEX3 beginPoint="t3" endPoint="t0" tid="t4" type="DURATION" value="P2Y">the last two years</TIMEX3>'
p4115
sS'Lemma'
p4116
S'year'
p4117
sS'CharacterOffsetEnd'
p4118
S'902'
p4119
sS'PartOfSpeech'
p4120
S'NNS'
p4121
sS'CharacterOffsetBegin'
p4122
S'897'
p4123
sS'NamedEntityTag'
p4124
S'DATE'
p4125
stp4126
a(S'working'
p4127
(dp4128
S'NamedEntityTag'
p4129
g98
sS'CharacterOffsetEnd'
p4130
S'910'
p4131
sS'Lemma'
p4132
S'work'
p4133
sS'PartOfSpeech'
p4134
S'VBG'
p4135
sS'CharacterOffsetBegin'
p4136
S'903'
p4137
stp4138
a(S'on'
p4139
(dp4140
S'NamedEntityTag'
p4141
g98
sS'CharacterOffsetEnd'
p4142
S'913'
p4143
sS'Lemma'
p4144
S'on'
p4145
sS'PartOfSpeech'
p4146
S'IN'
p4147
sS'CharacterOffsetBegin'
p4148
S'911'
p4149
stp4150
a(S'this'
p4151
(dp4152
S'NamedEntityTag'
p4153
g98
sS'CharacterOffsetEnd'
p4154
S'918'
p4155
sS'Lemma'
p4156
S'this'
p4157
sS'PartOfSpeech'
p4158
S'DT'
p4159
sS'CharacterOffsetBegin'
p4160
S'914'
p4161
stp4162
a(S'flight'
p4163
(dp4164
S'NamedEntityTag'
p4165
g98
sS'CharacterOffsetEnd'
p4166
S'925'
p4167
sS'Lemma'
p4168
S'flight'
p4169
sS'PartOfSpeech'
p4170
S'NN'
p4171
sS'CharacterOffsetBegin'
p4172
S'919'
p4173
stp4174
a(S'is'
p4175
(dp4176
S'NamedEntityTag'
p4177
g98
sS'CharacterOffsetEnd'
p4178
S'928'
p4179
sS'Lemma'
p4180
S'be'
p4181
sS'PartOfSpeech'
p4182
S'VBZ'
p4183
sS'CharacterOffsetBegin'
p4184
S'926'
p4185
stp4186
a(S'make'
p4187
(dp4188
S'NamedEntityTag'
p4189
g98
sS'CharacterOffsetEnd'
p4190
S'933'
p4191
sS'Lemma'
p4192
S'make'
p4193
sS'PartOfSpeech'
p4194
S'VB'
p4195
sS'CharacterOffsetBegin'
p4196
S'929'
p4197
stp4198
a(S'sure'
p4199
(dp4200
S'NamedEntityTag'
p4201
g98
sS'CharacterOffsetEnd'
p4202
S'938'
p4203
sS'Lemma'
p4204
S'sure'
p4205
sS'PartOfSpeech'
p4206
S'JJ'
p4207
sS'CharacterOffsetBegin'
p4208
S'934'
p4209
stp4210
a(S'we'
p4211
(dp4212
S'NamedEntityTag'
p4213
g98
sS'CharacterOffsetEnd'
p4214
S'941'
p4215
sS'Lemma'
p4216
S'we'
p4217
sS'PartOfSpeech'
p4218
S'PRP'
p4219
sS'CharacterOffsetBegin'
p4220
S'939'
p4221
stp4222
a(S'have'
p4223
(dp4224
S'NamedEntityTag'
p4225
g98
sS'CharacterOffsetEnd'
p4226
S'946'
p4227
sS'Lemma'
p4228
S'have'
p4229
sS'PartOfSpeech'
p4230
S'VBP'
p4231
sS'CharacterOffsetBegin'
p4232
S'942'
p4233
stp4234
a(S'time'
p4235
(dp4236
S'NamedEntityTag'
p4237
g98
sS'CharacterOffsetEnd'
p4238
S'951'
p4239
sS'Lemma'
p4240
S'time'
p4241
sS'PartOfSpeech'
p4242
S'NN'
p4243
sS'CharacterOffsetBegin'
p4244
S'947'
p4245
stp4246
a(g404
(dp4247
S'NamedEntityTag'
p4248
g98
sS'CharacterOffsetEnd'
p4249
S'952'
p4250
sS'Lemma'
p4251
g404
sS'PartOfSpeech'
p4252
g404
sS'CharacterOffsetBegin'
p4253
S'951'
p4254
stp4255
asa(dp4256
g15
S'(ROOT (SINV (S (NP (PRP We)) (VP (VBP have) (NP (NP (NN margin)) (PP (IN on) (NP (NN everything)))))) (, ,) (VP (VBD said)) (NP (NN flight) (NN director) (NNP Bob) (NNP Castle)) (. .)))'
p4257
sg17
S'We have margin on everything, said flight director Bob Castle.'
p4258
sg19
(lp4259
(S'root'
p4260
S'ROOT'
p4261
S'said'
p4262
tp4263
a(S'nsubj'
p4264
S'have'
p4265
S'We'
p4266
tp4267
a(S'ccomp'
p4268
S'said'
p4269
S'have'
p4270
tp4271
a(S'dobj'
p4272
S'have'
p4273
S'margin'
p4274
tp4275
a(S'prep_on'
p4276
S'margin'
p4277
S'everything'
p4278
tp4279
a(S'nn'
p4280
S'Castle'
p4281
S'flight'
p4282
tp4283
a(S'nn'
p4284
S'Castle'
p4285
S'director'
p4286
tp4287
a(S'nn'
p4288
S'Castle'
p4289
S'Bob'
p4290
tp4291
a(S'nsubj'
p4292
S'said'
p4293
S'Castle'
p4294
tp4295
asg61
(lp4296
(g4260
S'ROOT-0'
p4297
S'said-7'
p4298
tp4299
a(g4264
S'have-2'
p4300
S'We-1'
p4301
tp4302
a(g4268
S'said-7'
p4303
S'have-2'
p4304
tp4305
a(g4272
S'have-2'
p4306
S'margin-3'
p4307
tp4308
a(g4276
S'margin-3'
p4309
S'everything-5'
p4310
tp4311
a(g4280
S'Castle-11'
p4312
S'flight-8'
p4313
tp4314
a(g4284
S'Castle-11'
p4315
S'director-9'
p4316
tp4317
a(g4288
S'Castle-11'
p4318
S'Bob-10'
p4319
tp4320
a(g4292
S'said-7'
p4321
S'Castle-11'
p4322
tp4323
asg93
(lp4324
(S'We'
p4325
(dp4326
S'NamedEntityTag'
p4327
g98
sS'CharacterOffsetEnd'
p4328
S'955'
p4329
sS'Lemma'
p4330
S'we'
p4331
sS'PartOfSpeech'
p4332
S'PRP'
p4333
sS'CharacterOffsetBegin'
p4334
S'953'
p4335
stp4336
a(S'have'
p4337
(dp4338
S'NamedEntityTag'
p4339
g98
sS'CharacterOffsetEnd'
p4340
S'960'
p4341
sS'Lemma'
p4342
S'have'
p4343
sS'PartOfSpeech'
p4344
S'VBP'
p4345
sS'CharacterOffsetBegin'
p4346
S'956'
p4347
stp4348
a(S'margin'
p4349
(dp4350
S'NamedEntityTag'
p4351
g98
sS'CharacterOffsetEnd'
p4352
S'967'
p4353
sS'Lemma'
p4354
S'margin'
p4355
sS'PartOfSpeech'
p4356
S'NN'
p4357
sS'CharacterOffsetBegin'
p4358
S'961'
p4359
stp4360
a(S'on'
p4361
(dp4362
S'NamedEntityTag'
p4363
g98
sS'CharacterOffsetEnd'
p4364
S'970'
p4365
sS'Lemma'
p4366
S'on'
p4367
sS'PartOfSpeech'
p4368
S'IN'
p4369
sS'CharacterOffsetBegin'
p4370
S'968'
p4371
stp4372
a(S'everything'
p4373
(dp4374
S'NamedEntityTag'
p4375
g98
sS'CharacterOffsetEnd'
p4376
S'981'
p4377
sS'Lemma'
p4378
S'everything'
p4379
sS'PartOfSpeech'
p4380
S'NN'
p4381
sS'CharacterOffsetBegin'
p4382
S'971'
p4383
stp4384
a(g1427
(dp4385
S'NamedEntityTag'
p4386
g98
sS'CharacterOffsetEnd'
p4387
S'982'
p4388
sS'Lemma'
p4389
g1427
sS'PartOfSpeech'
p4390
g1427
sS'CharacterOffsetBegin'
p4391
S'981'
p4392
stp4393
a(S'said'
p4394
(dp4395
S'NamedEntityTag'
p4396
g98
sS'CharacterOffsetEnd'
p4397
S'987'
p4398
sS'Lemma'
p4399
S'say'
p4400
sS'PartOfSpeech'
p4401
S'VBD'
p4402
sS'CharacterOffsetBegin'
p4403
S'983'
p4404
stp4405
a(S'flight'
p4406
(dp4407
S'NamedEntityTag'
p4408
g98
sS'CharacterOffsetEnd'
p4409
S'994'
p4410
sS'Lemma'
p4411
S'flight'
p4412
sS'PartOfSpeech'
p4413
S'NN'
p4414
sS'CharacterOffsetBegin'
p4415
S'988'
p4416
stp4417
a(S'director'
p4418
(dp4419
S'NamedEntityTag'
p4420
g98
sS'CharacterOffsetEnd'
p4421
S'1003'
p4422
sS'Lemma'
p4423
S'director'
p4424
sS'PartOfSpeech'
p4425
S'NN'
p4426
sS'CharacterOffsetBegin'
p4427
S'995'
p4428
stp4429
a(S'Bob'
p4430
(dp4431
S'NamedEntityTag'
p4432
S'PERSON'
p4433
sS'CharacterOffsetEnd'
p4434
S'1007'
p4435
sS'Lemma'
p4436
S'Bob'
p4437
sS'PartOfSpeech'
p4438
S'NNP'
p4439
sS'CharacterOffsetBegin'
p4440
S'1004'
p4441
stp4442
a(S'Castle'
p4443
(dp4444
S'NamedEntityTag'
p4445
S'PERSON'
p4446
sS'CharacterOffsetEnd'
p4447
S'1014'
p4448
sS'Lemma'
p4449
S'Castle'
p4450
sS'PartOfSpeech'
p4451
S'NNP'
p4452
sS'CharacterOffsetBegin'
p4453
S'1008'
p4454
stp4455
a(g404
(dp4456
S'NamedEntityTag'
p4457
g98
sS'CharacterOffsetEnd'
p4458
S'1015'
p4459
sS'Lemma'
p4460
g404
sS'PartOfSpeech'
p4461
g404
sS'CharacterOffsetBegin'
p4462
S'1014'
p4463
stp4464
asa(dp4465
g15
S'(ROOT (SINV (PP (IN Before) (S (VP (VBG beginning) (NP (PRP$ their) (JJ final) (NN approach)) (PP (TO to) (NP (NP (NNP Zarya) (NNP _) (NNP Russian)) (PP (IN for) (NP (NNP Sunrise)))))))) (VP (VBD _) (NP (DT the) (NNS shuttles))) (NP (NP (CD six) (NNS astronauts)) (SBAR (S (VP (VBD had) (S (VP (TO to) (VP (VB steer) (ADJP (JJ clear)))))))) (PP (IN of) (NP (NP (DT a) (NN chunk)) (PP (IN of) (NP (NP (DT a) (NN rocket)) (VP (VBN launched) (NP-TMP (JJ last) (NN month)) (PP (IN from) (NP (NNP California))))))))) (. .)))'
p4466
sg17
S'Before beginning their final approach to Zarya _ Russian for Sunrise _ the shuttles six astronauts had to steer clear of a chunk of a rocket launched last month from California.'
p4467
sg19
(lp4468
(S'root'
p4469
S'ROOT'
p4470
g2467
tp4471
a(S'prepc_before'
p4472
g2467
S'beginning'
p4473
tp4474
a(S'poss'
p4475
S'approach'
p4476
S'their'
p4477
tp4478
a(S'amod'
p4479
S'approach'
p4480
S'final'
p4481
tp4482
a(S'dobj'
p4483
S'beginning'
p4484
S'approach'
p4485
tp4486
a(S'nn'
p4487
S'Russian'
p4488
S'Zarya'
p4489
tp4490
a(S'nn'
p4491
S'Russian'
p4492
g2467
tp4493
a(S'prep_to'
p4494
S'beginning'
p4495
S'Russian'
p4496
tp4497
a(S'prep_for'
p4498
S'Russian'
p4499
S'Sunrise'
p4500
tp4501
a(S'det'
p4502
S'shuttles'
p4503
S'the'
p4504
tp4505
a(S'dobj'
p4506
g2467
S'shuttles'
p4507
tp4508
a(S'num'
p4509
S'astronauts'
p4510
S'six'
p4511
tp4512
a(S'nsubj'
p4513
g2467
S'astronauts'
p4514
tp4515
a(S'rcmod'
p4516
S'astronauts'
p4517
S'had'
p4518
tp4519
a(S'aux'
p4520
S'steer'
p4521
S'to'
p4522
tp4523
a(S'xcomp'
p4524
S'had'
p4525
S'steer'
p4526
tp4527
a(S'acomp'
p4528
S'steer'
p4529
S'clear'
p4530
tp4531
a(S'det'
p4532
S'chunk'
p4533
g2528
tp4534
a(S'prep_of'
p4535
S'astronauts'
p4536
S'chunk'
p4537
tp4538
a(S'det'
p4539
S'rocket'
p4540
g2528
tp4541
a(S'prep_of'
p4542
S'chunk'
p4543
S'rocket'
p4544
tp4545
a(S'partmod'
p4546
S'rocket'
p4547
S'launched'
p4548
tp4549
a(S'amod'
p4550
S'month'
p4551
S'last'
p4552
tp4553
a(S'tmod'
p4554
S'launched'
p4555
S'month'
p4556
tp4557
a(S'prep_from'
p4558
S'launched'
p4559
S'California'
p4560
tp4561
asg61
(lp4562
(g4469
S'ROOT-0'
p4563
S'_-12'
p4564
tp4565
a(g4472
S'_-12'
p4566
S'beginning-2'
p4567
tp4568
a(g4475
S'approach-5'
p4569
S'their-3'
p4570
tp4571
a(g4479
S'approach-5'
p4572
S'final-4'
p4573
tp4574
a(g4483
S'beginning-2'
p4575
S'approach-5'
p4576
tp4577
a(g4487
S'Russian-9'
p4578
S'Zarya-7'
p4579
tp4580
a(g4491
S'Russian-9'
p4581
S'_-8'
p4582
tp4583
a(g4494
S'beginning-2'
p4584
S'Russian-9'
p4585
tp4586
a(g4498
S'Russian-9'
p4587
S'Sunrise-11'
p4588
tp4589
a(g4502
S'shuttles-14'
p4590
S'the-13'
p4591
tp4592
a(g4506
S'_-12'
p4593
S'shuttles-14'
p4594
tp4595
a(g4509
S'astronauts-16'
p4596
S'six-15'
p4597
tp4598
a(g4513
S'_-12'
p4599
S'astronauts-16'
p4600
tp4601
a(g4516
S'astronauts-16'
p4602
S'had-17'
p4603
tp4604
a(g4520
S'steer-19'
p4605
S'to-18'
p4606
tp4607
a(g4524
S'had-17'
p4608
S'steer-19'
p4609
tp4610
a(g4528
S'steer-19'
p4611
S'clear-20'
p4612
tp4613
a(g4532
S'chunk-23'
p4614
S'a-22'
p4615
tp4616
a(g4535
S'astronauts-16'
p4617
S'chunk-23'
p4618
tp4619
a(g4539
S'rocket-26'
p4620
S'a-25'
p4621
tp4622
a(g4542
S'chunk-23'
p4623
S'rocket-26'
p4624
tp4625
a(g4546
S'rocket-26'
p4626
S'launched-27'
p4627
tp4628
a(g4550
S'month-29'
p4629
S'last-28'
p4630
tp4631
a(g4554
S'launched-27'
p4632
S'month-29'
p4633
tp4634
a(g4558
S'launched-27'
p4635
S'California-31'
p4636
tp4637
asg93
(lp4638
(S'Before'
p4639
(dp4640
S'NamedEntityTag'
p4641
g98
sS'CharacterOffsetEnd'
p4642
S'1022'
p4643
sS'Lemma'
p4644
S'before'
p4645
sS'PartOfSpeech'
p4646
S'IN'
p4647
sS'CharacterOffsetBegin'
p4648
S'1016'
p4649
stp4650
a(S'beginning'
p4651
(dp4652
S'NamedEntityTag'
p4653
g98
sS'CharacterOffsetEnd'
p4654
S'1032'
p4655
sS'Lemma'
p4656
S'begin'
p4657
sS'PartOfSpeech'
p4658
S'VBG'
p4659
sS'CharacterOffsetBegin'
p4660
S'1023'
p4661
stp4662
a(S'their'
p4663
(dp4664
S'NamedEntityTag'
p4665
g98
sS'CharacterOffsetEnd'
p4666
S'1038'
p4667
sS'Lemma'
p4668
S'they'
p4669
sS'PartOfSpeech'
p4670
S'PRP$'
p4671
sS'CharacterOffsetBegin'
p4672
S'1033'
p4673
stp4674
a(S'final'
p4675
(dp4676
S'NamedEntityTag'
p4677
g98
sS'CharacterOffsetEnd'
p4678
S'1044'
p4679
sS'Lemma'
p4680
S'final'
p4681
sS'PartOfSpeech'
p4682
S'JJ'
p4683
sS'CharacterOffsetBegin'
p4684
S'1039'
p4685
stp4686
a(S'approach'
p4687
(dp4688
S'NamedEntityTag'
p4689
g98
sS'CharacterOffsetEnd'
p4690
S'1053'
p4691
sS'Lemma'
p4692
S'approach'
p4693
sS'PartOfSpeech'
p4694
S'NN'
p4695
sS'CharacterOffsetBegin'
p4696
S'1045'
p4697
stp4698
a(S'to'
p4699
(dp4700
S'NamedEntityTag'
p4701
g98
sS'CharacterOffsetEnd'
p4702
S'1056'
p4703
sS'Lemma'
p4704
S'to'
p4705
sS'PartOfSpeech'
p4706
S'TO'
p4707
sS'CharacterOffsetBegin'
p4708
S'1054'
p4709
stp4710
a(S'Zarya'
p4711
(dp4712
S'NamedEntityTag'
p4713
S'LOCATION'
p4714
sS'CharacterOffsetEnd'
p4715
S'1062'
p4716
sS'Lemma'
p4717
S'Zarya'
p4718
sS'PartOfSpeech'
p4719
S'NNP'
p4720
sS'CharacterOffsetBegin'
p4721
S'1057'
p4722
stp4723
a(g2467
(dp4724
S'NamedEntityTag'
p4725
g98
sS'CharacterOffsetEnd'
p4726
S'1064'
p4727
sS'Lemma'
p4728
g2467
sS'PartOfSpeech'
p4729
S'NNP'
p4730
sS'CharacterOffsetBegin'
p4731
S'1063'
p4732
stp4733
a(S'Russian'
p4734
(dp4735
S'NamedEntityTag'
p4736
S'MISC'
p4737
sS'CharacterOffsetEnd'
p4738
S'1072'
p4739
sS'Lemma'
p4740
S'Russian'
p4741
sS'PartOfSpeech'
p4742
S'NNP'
p4743
sS'CharacterOffsetBegin'
p4744
S'1065'
p4745
stp4746
a(S'for'
p4747
(dp4748
S'NamedEntityTag'
p4749
g98
sS'CharacterOffsetEnd'
p4750
S'1076'
p4751
sS'Lemma'
p4752
S'for'
p4753
sS'PartOfSpeech'
p4754
S'IN'
p4755
sS'CharacterOffsetBegin'
p4756
S'1073'
p4757
stp4758
a(S'Sunrise'
p4759
(dp4760
S'NormalizedNamedEntityTag'
p4761
S'MO'
p4762
sS'Timex'
p4763
S'<TIMEX3 mod="EARLY" tid="t5" type="TIME" value="MO">Sunrise</TIMEX3>'
p4764
sS'Lemma'
p4765
S'Sunrise'
p4766
sS'CharacterOffsetEnd'
p4767
S'1084'
p4768
sS'PartOfSpeech'
p4769
S'NNP'
p4770
sS'CharacterOffsetBegin'
p4771
S'1077'
p4772
sS'NamedEntityTag'
p4773
S'TIME'
p4774
stp4775
a(g2467
(dp4776
S'NamedEntityTag'
p4777
g98
sS'CharacterOffsetEnd'
p4778
S'1086'
p4779
sS'Lemma'
p4780
g2467
sS'PartOfSpeech'
p4781
S'VBD'
p4782
sS'CharacterOffsetBegin'
p4783
S'1085'
p4784
stp4785
a(S'the'
p4786
(dp4787
S'NamedEntityTag'
p4788
g98
sS'CharacterOffsetEnd'
p4789
S'1090'
p4790
sS'Lemma'
p4791
S'the'
p4792
sS'PartOfSpeech'
p4793
S'DT'
p4794
sS'CharacterOffsetBegin'
p4795
S'1087'
p4796
stp4797
a(S'shuttles'
p4798
(dp4799
S'NamedEntityTag'
p4800
g98
sS'CharacterOffsetEnd'
p4801
S'1099'
p4802
sS'Lemma'
p4803
S'shuttle'
p4804
sS'PartOfSpeech'
p4805
S'NNS'
p4806
sS'CharacterOffsetBegin'
p4807
S'1091'
p4808
stp4809
a(S'six'
p4810
(dp4811
S'NormalizedNamedEntityTag'
p4812
S'6.0'
p4813
sS'Lemma'
p4814
S'six'
p4815
sS'CharacterOffsetEnd'
p4816
S'1103'
p4817
sS'PartOfSpeech'
p4818
S'CD'
p4819
sS'CharacterOffsetBegin'
p4820
S'1100'
p4821
sS'NamedEntityTag'
p4822
S'NUMBER'
p4823
stp4824
a(S'astronauts'
p4825
(dp4826
S'NamedEntityTag'
p4827
g98
sS'CharacterOffsetEnd'
p4828
S'1114'
p4829
sS'Lemma'
p4830
S'astronaut'
p4831
sS'PartOfSpeech'
p4832
S'NNS'
p4833
sS'CharacterOffsetBegin'
p4834
S'1104'
p4835
stp4836
a(S'had'
p4837
(dp4838
S'NamedEntityTag'
p4839
g98
sS'CharacterOffsetEnd'
p4840
S'1118'
p4841
sS'Lemma'
p4842
S'have'
p4843
sS'PartOfSpeech'
p4844
S'VBD'
p4845
sS'CharacterOffsetBegin'
p4846
S'1115'
p4847
stp4848
a(S'to'
p4849
(dp4850
S'NamedEntityTag'
p4851
g98
sS'CharacterOffsetEnd'
p4852
S'1121'
p4853
sS'Lemma'
p4854
S'to'
p4855
sS'PartOfSpeech'
p4856
S'TO'
p4857
sS'CharacterOffsetBegin'
p4858
S'1119'
p4859
stp4860
a(S'steer'
p4861
(dp4862
S'NamedEntityTag'
p4863
g98
sS'CharacterOffsetEnd'
p4864
S'1127'
p4865
sS'Lemma'
p4866
S'steer'
p4867
sS'PartOfSpeech'
p4868
S'VB'
p4869
sS'CharacterOffsetBegin'
p4870
S'1122'
p4871
stp4872
a(S'clear'
p4873
(dp4874
S'NamedEntityTag'
p4875
g98
sS'CharacterOffsetEnd'
p4876
S'1133'
p4877
sS'Lemma'
p4878
S'clear'
p4879
sS'PartOfSpeech'
p4880
S'JJ'
p4881
sS'CharacterOffsetBegin'
p4882
S'1128'
p4883
stp4884
a(S'of'
p4885
(dp4886
S'NamedEntityTag'
p4887
g98
sS'CharacterOffsetEnd'
p4888
S'1136'
p4889
sS'Lemma'
p4890
S'of'
p4891
sS'PartOfSpeech'
p4892
S'IN'
p4893
sS'CharacterOffsetBegin'
p4894
S'1134'
p4895
stp4896
a(g2528
(dp4897
S'NamedEntityTag'
p4898
g98
sS'CharacterOffsetEnd'
p4899
S'1138'
p4900
sS'Lemma'
p4901
g2528
sS'PartOfSpeech'
p4902
S'DT'
p4903
sS'CharacterOffsetBegin'
p4904
S'1137'
p4905
stp4906
a(S'chunk'
p4907
(dp4908
S'NamedEntityTag'
p4909
g98
sS'CharacterOffsetEnd'
p4910
S'1144'
p4911
sS'Lemma'
p4912
S'chunk'
p4913
sS'PartOfSpeech'
p4914
S'NN'
p4915
sS'CharacterOffsetBegin'
p4916
S'1139'
p4917
stp4918
a(S'of'
p4919
(dp4920
S'NamedEntityTag'
p4921
g98
sS'CharacterOffsetEnd'
p4922
S'1147'
p4923
sS'Lemma'
p4924
S'of'
p4925
sS'PartOfSpeech'
p4926
S'IN'
p4927
sS'CharacterOffsetBegin'
p4928
S'1145'
p4929
stp4930
a(g2528
(dp4931
S'NamedEntityTag'
p4932
g98
sS'CharacterOffsetEnd'
p4933
S'1149'
p4934
sS'Lemma'
p4935
g2528
sS'PartOfSpeech'
p4936
S'DT'
p4937
sS'CharacterOffsetBegin'
p4938
S'1148'
p4939
stp4940
a(S'rocket'
p4941
(dp4942
S'NamedEntityTag'
p4943
g98
sS'CharacterOffsetEnd'
p4944
S'1156'
p4945
sS'Lemma'
p4946
S'rocket'
p4947
sS'PartOfSpeech'
p4948
S'NN'
p4949
sS'CharacterOffsetBegin'
p4950
S'1150'
p4951
stp4952
a(S'launched'
p4953
(dp4954
S'NamedEntityTag'
p4955
g98
sS'CharacterOffsetEnd'
p4956
S'1165'
p4957
sS'Lemma'
p4958
S'launch'
p4959
sS'PartOfSpeech'
p4960
S'VBN'
p4961
sS'CharacterOffsetBegin'
p4962
S'1157'
p4963
stp4964
a(S'last'
p4965
(dp4966
S'NormalizedNamedEntityTag'
p4967
S'THIS'
p4968
sS'Timex'
p4969
S'<TIMEX3 alt_value="THIS P1M OFFSET P-1M" anchorTimeID="t7" temporalFunction="true" tid="t6" type="DATE" valueFromFunction="tf0">last month</TIMEX3>'
p4970
sS'Lemma'
p4971
S'last'
p4972
sS'CharacterOffsetEnd'
p4973
S'1170'
p4974
sS'PartOfSpeech'
p4975
S'JJ'
p4976
sS'CharacterOffsetBegin'
p4977
S'1166'
p4978
sS'NamedEntityTag'
p4979
S'DATE'
p4980
stp4981
a(S'month'
p4982
(dp4983
S'NormalizedNamedEntityTag'
p4984
S'THIS'
p4985
sS'Timex'
p4986
S'<TIMEX3 alt_value="THIS P1M OFFSET P-1M" anchorTimeID="t7" temporalFunction="true" tid="t6" type="DATE" valueFromFunction="tf0">last month</TIMEX3>'
p4987
sS'Lemma'
p4988
S'month'
p4989
sS'CharacterOffsetEnd'
p4990
S'1176'
p4991
sS'PartOfSpeech'
p4992
S'NN'
p4993
sS'CharacterOffsetBegin'
p4994
S'1171'
p4995
sS'NamedEntityTag'
p4996
S'DATE'
p4997
stp4998
a(S'from'
p4999
(dp5000
S'NamedEntityTag'
p5001
g98
sS'CharacterOffsetEnd'
p5002
S'1181'
p5003
sS'Lemma'
p5004
S'from'
p5005
sS'PartOfSpeech'
p5006
S'IN'
p5007
sS'CharacterOffsetBegin'
p5008
S'1177'
p5009
stp5010
a(S'California'
p5011
(dp5012
S'NamedEntityTag'
p5013
S'LOCATION'
p5014
sS'CharacterOffsetEnd'
p5015
S'1192'
p5016
sS'Lemma'
p5017
S'California'
p5018
sS'PartOfSpeech'
p5019
S'NNP'
p5020
sS'CharacterOffsetBegin'
p5021
S'1182'
p5022
stp5023
a(g404
(dp5024
S'NamedEntityTag'
p5025
g98
sS'CharacterOffsetEnd'
p5026
S'1193'
p5027
sS'Lemma'
p5028
g404
sS'PartOfSpeech'
p5029
g404
sS'CharacterOffsetBegin'
p5030
S'1192'
p5031
stp5032
asa(dp5033
g15
S'(ROOT (S (NP (NNP Mission) (NNP Control)) (VP (VBD ordered) (NP (DT the) (NNS pilots)) (S (VP (TO to) (VP (VB fire) (S (NP (DT the) (NN shuttle) (NNS thrusters)) (VP (TO to) (VP (VB put) (NP (NP (DT an) (JJ extra) (CD three) (NNS miles)) (PP (IN between) (NP (NP (NNP Endeavour)) (CC and) (NP (DT the) (NN space) (NN junk))))) (, ,) (S (VP (VBG putting) (NP (NNP Endeavour)) (PP (NP (QP (DT a) (NN total) (IN of) (CD five)) (NNS miles)) (IN from) (NP (DT the) (VBG orbiting) (NN debris)))))))))))) (. .)))'
p5034
sg17
S'Mission Control ordered the pilots to fire the shuttle thrusters to put an extra three miles between Endeavour and the space junk, putting Endeavour a total of five miles from the orbiting debris.'
p5035
sg19
(lp5036
(S'root'
p5037
S'ROOT'
p5038
S'ordered'
p5039
tp5040
a(S'nn'
p5041
S'Control'
p5042
S'Mission'
p5043
tp5044
a(S'nsubj'
p5045
S'ordered'
p5046
S'Control'
p5047
tp5048
a(S'det'
p5049
S'pilots'
p5050
S'the'
p5051
tp5052
a(S'dobj'
p5053
S'ordered'
p5054
S'pilots'
p5055
tp5056
a(S'aux'
p5057
S'fire'
p5058
S'to'
p5059
tp5060
a(S'xcomp'
p5061
S'ordered'
p5062
S'fire'
p5063
tp5064
a(S'det'
p5065
S'thrusters'
p5066
S'the'
p5067
tp5068
a(S'nn'
p5069
S'thrusters'
p5070
S'shuttle'
p5071
tp5072
a(S'nsubj'
p5073
S'put'
p5074
S'thrusters'
p5075
tp5076
a(S'aux'
p5077
S'put'
p5078
S'to'
p5079
tp5080
a(S'xcomp'
p5081
S'fire'
p5082
S'put'
p5083
tp5084
a(S'det'
p5085
S'miles'
p5086
S'an'
p5087
tp5088
a(S'amod'
p5089
S'miles'
p5090
S'extra'
p5091
tp5092
a(S'num'
p5093
S'miles'
p5094
S'three'
p5095
tp5096
a(S'dobj'
p5097
S'put'
p5098
S'miles'
p5099
tp5100
a(S'prep_between'
p5101
S'miles'
p5102
S'Endeavour'
p5103
tp5104
a(S'det'
p5105
S'junk'
p5106
S'the'
p5107
tp5108
a(S'nn'
p5109
S'junk'
p5110
S'space'
p5111
tp5112
a(S'conj_and'
p5113
S'Endeavour'
p5114
S'junk'
p5115
tp5116
a(S'partmod'
p5117
S'put'
p5118
S'putting'
p5119
tp5120
a(S'dobj'
p5121
S'putting'
p5122
S'Endeavour'
p5123
tp5124
a(S'quantmod'
p5125
S'total'
p5126
g2528
tp5127
a(S'num'
p5128
S'miles'
p5129
S'total'
p5130
tp5131
a(S'quantmod'
p5132
S'total'
p5133
S'of'
p5134
tp5135
a(S'number'
p5136
S'total'
p5137
S'five'
p5138
tp5139
a(S'npadvmod'
p5140
S'putting'
p5141
S'miles'
p5142
tp5143
a(S'det'
p5144
S'debris'
p5145
S'the'
p5146
tp5147
a(S'amod'
p5148
S'debris'
p5149
S'orbiting'
p5150
tp5151
a(S'prep_from'
p5152
S'putting'
p5153
S'debris'
p5154
tp5155
asg61
(lp5156
(g5037
S'ROOT-0'
p5157
S'ordered-3'
p5158
tp5159
a(g5041
S'Control-2'
p5160
S'Mission-1'
p5161
tp5162
a(g5045
S'ordered-3'
p5163
S'Control-2'
p5164
tp5165
a(g5049
S'pilots-5'
p5166
S'the-4'
p5167
tp5168
a(g5053
S'ordered-3'
p5169
S'pilots-5'
p5170
tp5171
a(g5057
S'fire-7'
p5172
S'to-6'
p5173
tp5174
a(g5061
S'ordered-3'
p5175
S'fire-7'
p5176
tp5177
a(g5065
S'thrusters-10'
p5178
S'the-8'
p5179
tp5180
a(g5069
S'thrusters-10'
p5181
S'shuttle-9'
p5182
tp5183
a(g5073
S'put-12'
p5184
S'thrusters-10'
p5185
tp5186
a(g5077
S'put-12'
p5187
S'to-11'
p5188
tp5189
a(g5081
S'fire-7'
p5190
S'put-12'
p5191
tp5192
a(g5085
S'miles-16'
p5193
S'an-13'
p5194
tp5195
a(g5089
S'miles-16'
p5196
S'extra-14'
p5197
tp5198
a(g5093
S'miles-16'
p5199
S'three-15'
p5200
tp5201
a(g5097
S'put-12'
p5202
S'miles-16'
p5203
tp5204
a(g5101
S'miles-16'
p5205
S'Endeavour-18'
p5206
tp5207
a(g5105
S'junk-22'
p5208
S'the-20'
p5209
tp5210
a(g5109
S'junk-22'
p5211
S'space-21'
p5212
tp5213
a(g5113
S'Endeavour-18'
p5214
S'junk-22'
p5215
tp5216
a(g5117
S'put-12'
p5217
S'putting-24'
p5218
tp5219
a(g5121
S'putting-24'
p5220
S'Endeavour-25'
p5221
tp5222
a(g5125
S'total-27'
p5223
S'a-26'
p5224
tp5225
a(g5128
S'miles-30'
p5226
S'total-27'
p5227
tp5228
a(g5132
S'total-27'
p5229
S'of-28'
p5230
tp5231
a(g5136
S'total-27'
p5232
S'five-29'
p5233
tp5234
a(g5140
S'putting-24'
p5235
S'miles-30'
p5236
tp5237
a(g5144
S'debris-34'
p5238
S'the-32'
p5239
tp5240
a(g5148
S'debris-34'
p5241
S'orbiting-33'
p5242
tp5243
a(g5152
S'putting-24'
p5244
S'debris-34'
p5245
tp5246
asg93
(lp5247
(S'Mission'
p5248
(dp5249
S'NamedEntityTag'
p5250
S'ORGANIZATION'
p5251
sS'CharacterOffsetEnd'
p5252
S'1201'
p5253
sS'Lemma'
p5254
S'Mission'
p5255
sS'PartOfSpeech'
p5256
S'NNP'
p5257
sS'CharacterOffsetBegin'
p5258
S'1194'
p5259
stp5260
a(S'Control'
p5261
(dp5262
S'NamedEntityTag'
p5263
S'ORGANIZATION'
p5264
sS'CharacterOffsetEnd'
p5265
S'1209'
p5266
sS'Lemma'
p5267
S'Control'
p5268
sS'PartOfSpeech'
p5269
S'NNP'
p5270
sS'CharacterOffsetBegin'
p5271
S'1202'
p5272
stp5273
a(S'ordered'
p5274
(dp5275
S'NamedEntityTag'
p5276
g98
sS'CharacterOffsetEnd'
p5277
S'1217'
p5278
sS'Lemma'
p5279
S'order'
p5280
sS'PartOfSpeech'
p5281
S'VBD'
p5282
sS'CharacterOffsetBegin'
p5283
S'1210'
p5284
stp5285
a(S'the'
p5286
(dp5287
S'NamedEntityTag'
p5288
g98
sS'CharacterOffsetEnd'
p5289
S'1221'
p5290
sS'Lemma'
p5291
S'the'
p5292
sS'PartOfSpeech'
p5293
S'DT'
p5294
sS'CharacterOffsetBegin'
p5295
S'1218'
p5296
stp5297
a(S'pilots'
p5298
(dp5299
S'NamedEntityTag'
p5300
g98
sS'CharacterOffsetEnd'
p5301
S'1228'
p5302
sS'Lemma'
p5303
S'pilot'
p5304
sS'PartOfSpeech'
p5305
S'NNS'
p5306
sS'CharacterOffsetBegin'
p5307
S'1222'
p5308
stp5309
a(S'to'
p5310
(dp5311
S'NamedEntityTag'
p5312
g98
sS'CharacterOffsetEnd'
p5313
S'1231'
p5314
sS'Lemma'
p5315
S'to'
p5316
sS'PartOfSpeech'
p5317
S'TO'
p5318
sS'CharacterOffsetBegin'
p5319
S'1229'
p5320
stp5321
a(S'fire'
p5322
(dp5323
S'NamedEntityTag'
p5324
g98
sS'CharacterOffsetEnd'
p5325
S'1236'
p5326
sS'Lemma'
p5327
S'fire'
p5328
sS'PartOfSpeech'
p5329
S'VB'
p5330
sS'CharacterOffsetBegin'
p5331
S'1232'
p5332
stp5333
a(S'the'
p5334
(dp5335
S'NamedEntityTag'
p5336
g98
sS'CharacterOffsetEnd'
p5337
S'1240'
p5338
sS'Lemma'
p5339
S'the'
p5340
sS'PartOfSpeech'
p5341
S'DT'
p5342
sS'CharacterOffsetBegin'
p5343
S'1237'
p5344
stp5345
a(S'shuttle'
p5346
(dp5347
S'NamedEntityTag'
p5348
g98
sS'CharacterOffsetEnd'
p5349
S'1248'
p5350
sS'Lemma'
p5351
S'shuttle'
p5352
sS'PartOfSpeech'
p5353
S'NN'
p5354
sS'CharacterOffsetBegin'
p5355
S'1241'
p5356
stp5357
a(S'thrusters'
p5358
(dp5359
S'NamedEntityTag'
p5360
g98
sS'CharacterOffsetEnd'
p5361
S'1258'
p5362
sS'Lemma'
p5363
S'thruster'
p5364
sS'PartOfSpeech'
p5365
S'NNS'
p5366
sS'CharacterOffsetBegin'
p5367
S'1249'
p5368
stp5369
a(S'to'
p5370
(dp5371
S'NamedEntityTag'
p5372
g98
sS'CharacterOffsetEnd'
p5373
S'1261'
p5374
sS'Lemma'
p5375
S'to'
p5376
sS'PartOfSpeech'
p5377
S'TO'
p5378
sS'CharacterOffsetBegin'
p5379
S'1259'
p5380
stp5381
a(S'put'
p5382
(dp5383
S'NamedEntityTag'
p5384
g98
sS'CharacterOffsetEnd'
p5385
S'1265'
p5386
sS'Lemma'
p5387
S'put'
p5388
sS'PartOfSpeech'
p5389
S'VB'
p5390
sS'CharacterOffsetBegin'
p5391
S'1262'
p5392
stp5393
a(S'an'
p5394
(dp5395
S'NamedEntityTag'
p5396
g98
sS'CharacterOffsetEnd'
p5397
S'1268'
p5398
sS'Lemma'
p5399
g2528
sS'PartOfSpeech'
p5400
S'DT'
p5401
sS'CharacterOffsetBegin'
p5402
S'1266'
p5403
stp5404
a(S'extra'
p5405
(dp5406
S'NamedEntityTag'
p5407
g98
sS'CharacterOffsetEnd'
p5408
S'1274'
p5409
sS'Lemma'
p5410
S'extra'
p5411
sS'PartOfSpeech'
p5412
S'JJ'
p5413
sS'CharacterOffsetBegin'
p5414
S'1269'
p5415
stp5416
a(S'three'
p5417
(dp5418
S'NormalizedNamedEntityTag'
p5419
S'3.0'
p5420
sS'Lemma'
p5421
S'three'
p5422
sS'CharacterOffsetEnd'
p5423
S'1280'
p5424
sS'PartOfSpeech'
p5425
S'CD'
p5426
sS'CharacterOffsetBegin'
p5427
S'1275'
p5428
sS'NamedEntityTag'
p5429
S'NUMBER'
p5430
stp5431
a(S'miles'
p5432
(dp5433
S'NamedEntityTag'
p5434
g98
sS'CharacterOffsetEnd'
p5435
S'1286'
p5436
sS'Lemma'
p5437
S'mile'
p5438
sS'PartOfSpeech'
p5439
S'NNS'
p5440
sS'CharacterOffsetBegin'
p5441
S'1281'
p5442
stp5443
a(S'between'
p5444
(dp5445
S'NamedEntityTag'
p5446
g98
sS'CharacterOffsetEnd'
p5447
S'1294'
p5448
sS'Lemma'
p5449
S'between'
p5450
sS'PartOfSpeech'
p5451
S'IN'
p5452
sS'CharacterOffsetBegin'
p5453
S'1287'
p5454
stp5455
a(S'Endeavour'
p5456
(dp5457
S'NamedEntityTag'
p5458
g98
sS'CharacterOffsetEnd'
p5459
S'1304'
p5460
sS'Lemma'
p5461
S'Endeavour'
p5462
sS'PartOfSpeech'
p5463
S'NNP'
p5464
sS'CharacterOffsetBegin'
p5465
S'1295'
p5466
stp5467
a(S'and'
p5468
(dp5469
S'NamedEntityTag'
p5470
g98
sS'CharacterOffsetEnd'
p5471
S'1308'
p5472
sS'Lemma'
p5473
S'and'
p5474
sS'PartOfSpeech'
p5475
S'CC'
p5476
sS'CharacterOffsetBegin'
p5477
S'1305'
p5478
stp5479
a(S'the'
p5480
(dp5481
S'NamedEntityTag'
p5482
g98
sS'CharacterOffsetEnd'
p5483
S'1312'
p5484
sS'Lemma'
p5485
S'the'
p5486
sS'PartOfSpeech'
p5487
S'DT'
p5488
sS'CharacterOffsetBegin'
p5489
S'1309'
p5490
stp5491
a(S'space'
p5492
(dp5493
S'NamedEntityTag'
p5494
g98
sS'CharacterOffsetEnd'
p5495
S'1318'
p5496
sS'Lemma'
p5497
S'space'
p5498
sS'PartOfSpeech'
p5499
S'NN'
p5500
sS'CharacterOffsetBegin'
p5501
S'1313'
p5502
stp5503
a(S'junk'
p5504
(dp5505
S'NamedEntityTag'
p5506
g98
sS'CharacterOffsetEnd'
p5507
S'1323'
p5508
sS'Lemma'
p5509
S'junk'
p5510
sS'PartOfSpeech'
p5511
S'NN'
p5512
sS'CharacterOffsetBegin'
p5513
S'1319'
p5514
stp5515
a(g1427
(dp5516
S'NamedEntityTag'
p5517
g98
sS'CharacterOffsetEnd'
p5518
S'1324'
p5519
sS'Lemma'
p5520
g1427
sS'PartOfSpeech'
p5521
g1427
sS'CharacterOffsetBegin'
p5522
S'1323'
p5523
stp5524
a(S'putting'
p5525
(dp5526
S'NamedEntityTag'
p5527
g98
sS'CharacterOffsetEnd'
p5528
S'1332'
p5529
sS'Lemma'
p5530
S'put'
p5531
sS'PartOfSpeech'
p5532
S'VBG'
p5533
sS'CharacterOffsetBegin'
p5534
S'1325'
p5535
stp5536
a(S'Endeavour'
p5537
(dp5538
S'NamedEntityTag'
p5539
g98
sS'CharacterOffsetEnd'
p5540
S'1342'
p5541
sS'Lemma'
p5542
S'Endeavour'
p5543
sS'PartOfSpeech'
p5544
S'NNP'
p5545
sS'CharacterOffsetBegin'
p5546
S'1333'
p5547
stp5548
a(g2528
(dp5549
S'NamedEntityTag'
p5550
g98
sS'CharacterOffsetEnd'
p5551
S'1344'
p5552
sS'Lemma'
p5553
g2528
sS'PartOfSpeech'
p5554
S'DT'
p5555
sS'CharacterOffsetBegin'
p5556
S'1343'
p5557
stp5558
a(S'total'
p5559
(dp5560
S'NamedEntityTag'
p5561
g98
sS'CharacterOffsetEnd'
p5562
S'1350'
p5563
sS'Lemma'
p5564
S'total'
p5565
sS'PartOfSpeech'
p5566
S'NN'
p5567
sS'CharacterOffsetBegin'
p5568
S'1345'
p5569
stp5570
a(S'of'
p5571
(dp5572
S'NamedEntityTag'
p5573
g98
sS'CharacterOffsetEnd'
p5574
S'1353'
p5575
sS'Lemma'
p5576
S'of'
p5577
sS'PartOfSpeech'
p5578
S'IN'
p5579
sS'CharacterOffsetBegin'
p5580
S'1351'
p5581
stp5582
a(S'five'
p5583
(dp5584
S'NormalizedNamedEntityTag'
p5585
S'5.0'
p5586
sS'Lemma'
p5587
S'five'
p5588
sS'CharacterOffsetEnd'
p5589
S'1358'
p5590
sS'PartOfSpeech'
p5591
S'CD'
p5592
sS'CharacterOffsetBegin'
p5593
S'1354'
p5594
sS'NamedEntityTag'
p5595
S'NUMBER'
p5596
stp5597
a(S'miles'
p5598
(dp5599
S'NamedEntityTag'
p5600
g98
sS'CharacterOffsetEnd'
p5601
S'1364'
p5602
sS'Lemma'
p5603
S'mile'
p5604
sS'PartOfSpeech'
p5605
S'NNS'
p5606
sS'CharacterOffsetBegin'
p5607
S'1359'
p5608
stp5609
a(S'from'
p5610
(dp5611
S'NamedEntityTag'
p5612
g98
sS'CharacterOffsetEnd'
p5613
S'1369'
p5614
sS'Lemma'
p5615
S'from'
p5616
sS'PartOfSpeech'
p5617
S'IN'
p5618
sS'CharacterOffsetBegin'
p5619
S'1365'
p5620
stp5621
a(S'the'
p5622
(dp5623
S'NamedEntityTag'
p5624
g98
sS'CharacterOffsetEnd'
p5625
S'1373'
p5626
sS'Lemma'
p5627
S'the'
p5628
sS'PartOfSpeech'
p5629
S'DT'
p5630
sS'CharacterOffsetBegin'
p5631
S'1370'
p5632
stp5633
a(S'orbiting'
p5634
(dp5635
S'NamedEntityTag'
p5636
g98
sS'CharacterOffsetEnd'
p5637
S'1382'
p5638
sS'Lemma'
p5639
S'orbit'
p5640
sS'PartOfSpeech'
p5641
S'VBG'
p5642
sS'CharacterOffsetBegin'
p5643
S'1374'
p5644
stp5645
a(S'debris'
p5646
(dp5647
S'NamedEntityTag'
p5648
g98
sS'CharacterOffsetEnd'
p5649
S'1389'
p5650
sS'Lemma'
p5651
S'debris'
p5652
sS'PartOfSpeech'
p5653
S'NN'
p5654
sS'CharacterOffsetBegin'
p5655
S'1383'
p5656
stp5657
a(g404
(dp5658
S'NamedEntityTag'
p5659
g98
sS'CharacterOffsetEnd'
p5660
S'1390'
p5661
sS'Lemma'
p5662
g404
sS'PartOfSpeech'
p5663
g404
sS'CharacterOffsetBegin'
p5664
S'1389'
p5665
stp5666
asa(dp5667
g15
S'(ROOT (S (S (NP (DT The) (JJR smaller) (NN gap)) (VP (MD would) (VP (VB have) (VP (VBN been) (ADVP (RB probably) (NP (DT a) (JJ little))) (ADJP (RB too) (RB close) (PP (IN for) (NP (NN comfort)))))))) (, ,) (NP (NNP Mission) (NNP Control)) (VP (VBD said)) (. .)))'
p5668
sg17
S'The smaller gap would have been probably a little too close for comfort, Mission Control said.'
p5669
sg19
(lp5670
(S'root'
p5671
S'ROOT'
p5672
S'said'
p5673
tp5674
a(S'det'
p5675
S'gap'
p5676
S'The'
p5677
tp5678
a(S'amod'
p5679
S'gap'
p5680
S'smaller'
p5681
tp5682
a(S'nsubj'
p5683
S'close'
p5684
S'gap'
p5685
tp5686
a(S'aux'
p5687
S'close'
p5688
S'would'
p5689
tp5690
a(S'aux'
p5691
S'close'
p5692
S'have'
p5693
tp5694
a(S'cop'
p5695
S'close'
p5696
S'been'
p5697
tp5698
a(S'advmod'
p5699
S'close'
p5700
S'probably'
p5701
tp5702
a(S'det'
p5703
S'little'
p5704
g2528
tp5705
a(S'pobj'
p5706
S'probably'
p5707
S'little'
p5708
tp5709
a(S'advmod'
p5710
S'close'
p5711
S'too'
p5712
tp5713
a(S'ccomp'
p5714
S'said'
p5715
S'close'
p5716
tp5717
a(S'prep_for'
p5718
S'close'
p5719
S'comfort'
p5720
tp5721
a(S'nn'
p5722
S'Control'
p5723
S'Mission'
p5724
tp5725
a(S'nsubj'
p5726
S'said'
p5727
S'Control'
p5728
tp5729
asg61
(lp5730
(g5671
S'ROOT-0'
p5731
S'said-17'
p5732
tp5733
a(g5675
S'gap-3'
p5734
S'The-1'
p5735
tp5736
a(g5679
S'gap-3'
p5737
S'smaller-2'
p5738
tp5739
a(g5683
S'close-11'
p5740
S'gap-3'
p5741
tp5742
a(g5687
S'close-11'
p5743
S'would-4'
p5744
tp5745
a(g5691
S'close-11'
p5746
S'have-5'
p5747
tp5748
a(g5695
S'close-11'
p5749
S'been-6'
p5750
tp5751
a(g5699
S'close-11'
p5752
S'probably-7'
p5753
tp5754
a(g5703
S'little-9'
p5755
S'a-8'
p5756
tp5757
a(g5706
S'probably-7'
p5758
S'little-9'
p5759
tp5760
a(g5710
S'close-11'
p5761
S'too-10'
p5762
tp5763
a(g5714
S'said-17'
p5764
S'close-11'
p5765
tp5766
a(g5718
S'close-11'
p5767
S'comfort-13'
p5768
tp5769
a(g5722
S'Control-16'
p5770
S'Mission-15'
p5771
tp5772
a(g5726
S'said-17'
p5773
S'Control-16'
p5774
tp5775
asg93
(lp5776
(S'The'
p5777
(dp5778
S'NamedEntityTag'
p5779
g98
sS'CharacterOffsetEnd'
p5780
S'1394'
p5781
sS'Lemma'
p5782
S'the'
p5783
sS'PartOfSpeech'
p5784
S'DT'
p5785
sS'CharacterOffsetBegin'
p5786
S'1391'
p5787
stp5788
a(S'smaller'
p5789
(dp5790
S'NamedEntityTag'
p5791
g98
sS'CharacterOffsetEnd'
p5792
S'1402'
p5793
sS'Lemma'
p5794
S'smaller'
p5795
sS'PartOfSpeech'
p5796
S'JJR'
p5797
sS'CharacterOffsetBegin'
p5798
S'1395'
p5799
stp5800
a(S'gap'
p5801
(dp5802
S'NamedEntityTag'
p5803
g98
sS'CharacterOffsetEnd'
p5804
S'1406'
p5805
sS'Lemma'
p5806
S'gap'
p5807
sS'PartOfSpeech'
p5808
S'NN'
p5809
sS'CharacterOffsetBegin'
p5810
S'1403'
p5811
stp5812
a(S'would'
p5813
(dp5814
S'NamedEntityTag'
p5815
g98
sS'CharacterOffsetEnd'
p5816
S'1412'
p5817
sS'Lemma'
p5818
S'would'
p5819
sS'PartOfSpeech'
p5820
S'MD'
p5821
sS'CharacterOffsetBegin'
p5822
S'1407'
p5823
stp5824
a(S'have'
p5825
(dp5826
S'NamedEntityTag'
p5827
g98
sS'CharacterOffsetEnd'
p5828
S'1417'
p5829
sS'Lemma'
p5830
S'have'
p5831
sS'PartOfSpeech'
p5832
S'VB'
p5833
sS'CharacterOffsetBegin'
p5834
S'1413'
p5835
stp5836
a(S'been'
p5837
(dp5838
S'NamedEntityTag'
p5839
g98
sS'CharacterOffsetEnd'
p5840
S'1422'
p5841
sS'Lemma'
p5842
S'be'
p5843
sS'PartOfSpeech'
p5844
S'VBN'
p5845
sS'CharacterOffsetBegin'
p5846
S'1418'
p5847
stp5848
a(S'probably'
p5849
(dp5850
S'NamedEntityTag'
p5851
g98
sS'CharacterOffsetEnd'
p5852
S'1431'
p5853
sS'Lemma'
p5854
S'probably'
p5855
sS'PartOfSpeech'
p5856
S'RB'
p5857
sS'CharacterOffsetBegin'
p5858
S'1423'
p5859
stp5860
a(g2528
(dp5861
S'NamedEntityTag'
p5862
g98
sS'CharacterOffsetEnd'
p5863
S'1433'
p5864
sS'Lemma'
p5865
g2528
sS'PartOfSpeech'
p5866
S'DT'
p5867
sS'CharacterOffsetBegin'
p5868
S'1432'
p5869
stp5870
a(S'little'
p5871
(dp5872
S'NamedEntityTag'
p5873
g98
sS'CharacterOffsetEnd'
p5874
S'1440'
p5875
sS'Lemma'
p5876
S'little'
p5877
sS'PartOfSpeech'
p5878
S'JJ'
p5879
sS'CharacterOffsetBegin'
p5880
S'1434'
p5881
stp5882
a(S'too'
p5883
(dp5884
S'NamedEntityTag'
p5885
g98
sS'CharacterOffsetEnd'
p5886
S'1444'
p5887
sS'Lemma'
p5888
S'too'
p5889
sS'PartOfSpeech'
p5890
S'RB'
p5891
sS'CharacterOffsetBegin'
p5892
S'1441'
p5893
stp5894
a(S'close'
p5895
(dp5896
S'NamedEntityTag'
p5897
g98
sS'CharacterOffsetEnd'
p5898
S'1450'
p5899
sS'Lemma'
p5900
S'close'
p5901
sS'PartOfSpeech'
p5902
S'RB'
p5903
sS'CharacterOffsetBegin'
p5904
S'1445'
p5905
stp5906
a(S'for'
p5907
(dp5908
S'NamedEntityTag'
p5909
g98
sS'CharacterOffsetEnd'
p5910
S'1454'
p5911
sS'Lemma'
p5912
S'for'
p5913
sS'PartOfSpeech'
p5914
S'IN'
p5915
sS'CharacterOffsetBegin'
p5916
S'1451'
p5917
stp5918
a(S'comfort'
p5919
(dp5920
S'NamedEntityTag'
p5921
g98
sS'CharacterOffsetEnd'
p5922
S'1462'
p5923
sS'Lemma'
p5924
S'comfort'
p5925
sS'PartOfSpeech'
p5926
S'NN'
p5927
sS'CharacterOffsetBegin'
p5928
S'1455'
p5929
stp5930
a(g1427
(dp5931
S'NamedEntityTag'
p5932
g98
sS'CharacterOffsetEnd'
p5933
S'1463'
p5934
sS'Lemma'
p5935
g1427
sS'PartOfSpeech'
p5936
g1427
sS'CharacterOffsetBegin'
p5937
S'1462'
p5938
stp5939
a(S'Mission'
p5940
(dp5941
S'NamedEntityTag'
p5942
S'ORGANIZATION'
p5943
sS'CharacterOffsetEnd'
p5944
S'1471'
p5945
sS'Lemma'
p5946
S'Mission'
p5947
sS'PartOfSpeech'
p5948
S'NNP'
p5949
sS'CharacterOffsetBegin'
p5950
S'1464'
p5951
stp5952
a(S'Control'
p5953
(dp5954
S'NamedEntityTag'
p5955
S'ORGANIZATION'
p5956
sS'CharacterOffsetEnd'
p5957
S'1479'
p5958
sS'Lemma'
p5959
S'Control'
p5960
sS'PartOfSpeech'
p5961
S'NNP'
p5962
sS'CharacterOffsetBegin'
p5963
S'1472'
p5964
stp5965
a(S'said'
p5966
(dp5967
S'NamedEntityTag'
p5968
g98
sS'CharacterOffsetEnd'
p5969
S'1484'
p5970
sS'Lemma'
p5971
S'say'
p5972
sS'PartOfSpeech'
p5973
S'VBD'
p5974
sS'CharacterOffsetBegin'
p5975
S'1480'
p5976
stp5977
a(g404
(dp5978
S'NamedEntityTag'
p5979
g98
sS'CharacterOffsetEnd'
p5980
S'1485'
p5981
sS'Lemma'
p5982
g404
sS'PartOfSpeech'
p5983
g404
sS'CharacterOffsetBegin'
p5984
S'1484'
p5985
stp5986
asa(dp5987
g15
S'(ROOT (S (NP (DT The) (JJR bigger) (NN worry)) (, ,) (ADVP (IN by) (RB far)) (, ,) (VP (VBD was) (PP (IN over) (NP (NP (NP (NNP Endeavours) (NN pursuit) (CC and) (NN capture)) (PP (IN of) (NP (NNP Zarya)))) (, ,) (CC and) (NP (NP (PRP$ its) (NN coupling)) (PP (IN with) (NP (NNP Unity))))))) (. .)))'
p5988
sg17
S'The bigger worry, by far, was over Endeavours pursuit and capture of Zarya, and its coupling with Unity.'
p5989
sg19
(lp5990
(S'root'
p5991
S'ROOT'
p5992
S'was'
p5993
tp5994
a(S'det'
p5995
S'worry'
p5996
S'The'
p5997
tp5998
a(S'amod'
p5999
S'worry'
p6000
S'bigger'
p6001
tp6002
a(S'nsubj'
p6003
S'was'
p6004
S'worry'
p6005
tp6006
a(S'advmod'
p6007
S'was'
p6008
S'by'
p6009
tp6010
a(S'advmod'
p6011
S'by'
p6012
S'far'
p6013
tp6014
a(S'nn'
p6015
S'pursuit'
p6016
S'Endeavours'
p6017
tp6018
a(S'prep_over'
p6019
S'was'
p6020
S'pursuit'
p6021
tp6022
a(S'conj_and'
p6023
S'pursuit'
p6024
S'capture'
p6025
tp6026
a(S'prep_of'
p6027
S'pursuit'
p6028
S'Zarya'
p6029
tp6030
a(S'poss'
p6031
S'coupling'
p6032
S'its'
p6033
tp6034
a(S'conj_and'
p6035
S'pursuit'
p6036
S'coupling'
p6037
tp6038
a(S'prep_with'
p6039
S'coupling'
p6040
S'Unity'
p6041
tp6042
asg61
(lp6043
(g5991
S'ROOT-0'
p6044
S'was-8'
p6045
tp6046
a(g5995
S'worry-3'
p6047
S'The-1'
p6048
tp6049
a(g5999
S'worry-3'
p6050
S'bigger-2'
p6051
tp6052
a(g6003
S'was-8'
p6053
S'worry-3'
p6054
tp6055
a(g6007
S'was-8'
p6056
S'by-5'
p6057
tp6058
a(g6011
S'by-5'
p6059
S'far-6'
p6060
tp6061
a(g6015
S'pursuit-11'
p6062
S'Endeavours-10'
p6063
tp6064
a(g6019
S'was-8'
p6065
S'pursuit-11'
p6066
tp6067
a(g6023
S'pursuit-11'
p6068
S'capture-13'
p6069
tp6070
a(g6027
S'pursuit-11'
p6071
S'Zarya-15'
p6072
tp6073
a(g6031
S'coupling-19'
p6074
S'its-18'
p6075
tp6076
a(g6035
S'pursuit-11'
p6077
S'coupling-19'
p6078
tp6079
a(g6039
S'coupling-19'
p6080
S'Unity-21'
p6081
tp6082
asg93
(lp6083
(S'The'
p6084
(dp6085
S'NamedEntityTag'
p6086
g98
sS'CharacterOffsetEnd'
p6087
S'1489'
p6088
sS'Lemma'
p6089
S'the'
p6090
sS'PartOfSpeech'
p6091
S'DT'
p6092
sS'CharacterOffsetBegin'
p6093
S'1486'
p6094
stp6095
a(S'bigger'
p6096
(dp6097
S'NamedEntityTag'
p6098
g98
sS'CharacterOffsetEnd'
p6099
S'1496'
p6100
sS'Lemma'
p6101
S'bigger'
p6102
sS'PartOfSpeech'
p6103
S'JJR'
p6104
sS'CharacterOffsetBegin'
p6105
S'1490'
p6106
stp6107
a(S'worry'
p6108
(dp6109
S'NamedEntityTag'
p6110
g98
sS'CharacterOffsetEnd'
p6111
S'1502'
p6112
sS'Lemma'
p6113
S'worry'
p6114
sS'PartOfSpeech'
p6115
S'NN'
p6116
sS'CharacterOffsetBegin'
p6117
S'1497'
p6118
stp6119
a(g1427
(dp6120
S'NamedEntityTag'
p6121
g98
sS'CharacterOffsetEnd'
p6122
S'1503'
p6123
sS'Lemma'
p6124
g1427
sS'PartOfSpeech'
p6125
g1427
sS'CharacterOffsetBegin'
p6126
S'1502'
p6127
stp6128
a(S'by'
p6129
(dp6130
S'NamedEntityTag'
p6131
g98
sS'CharacterOffsetEnd'
p6132
S'1506'
p6133
sS'Lemma'
p6134
S'by'
p6135
sS'PartOfSpeech'
p6136
S'IN'
p6137
sS'CharacterOffsetBegin'
p6138
S'1504'
p6139
stp6140
a(S'far'
p6141
(dp6142
S'NamedEntityTag'
p6143
g98
sS'CharacterOffsetEnd'
p6144
S'1510'
p6145
sS'Lemma'
p6146
S'far'
p6147
sS'PartOfSpeech'
p6148
S'RB'
p6149
sS'CharacterOffsetBegin'
p6150
S'1507'
p6151
stp6152
a(g1427
(dp6153
S'NamedEntityTag'
p6154
g98
sS'CharacterOffsetEnd'
p6155
S'1511'
p6156
sS'Lemma'
p6157
g1427
sS'PartOfSpeech'
p6158
g1427
sS'CharacterOffsetBegin'
p6159
S'1510'
p6160
stp6161
a(S'was'
p6162
(dp6163
S'NamedEntityTag'
p6164
g98
sS'CharacterOffsetEnd'
p6165
S'1515'
p6166
sS'Lemma'
p6167
S'be'
p6168
sS'PartOfSpeech'
p6169
S'VBD'
p6170
sS'CharacterOffsetBegin'
p6171
S'1512'
p6172
stp6173
a(S'over'
p6174
(dp6175
S'NamedEntityTag'
p6176
g98
sS'CharacterOffsetEnd'
p6177
S'1520'
p6178
sS'Lemma'
p6179
S'over'
p6180
sS'PartOfSpeech'
p6181
S'IN'
p6182
sS'CharacterOffsetBegin'
p6183
S'1516'
p6184
stp6185
a(S'Endeavours'
p6186
(dp6187
S'NamedEntityTag'
p6188
g98
sS'CharacterOffsetEnd'
p6189
S'1531'
p6190
sS'Lemma'
p6191
S'Endeavours'
p6192
sS'PartOfSpeech'
p6193
S'NNP'
p6194
sS'CharacterOffsetBegin'
p6195
S'1521'
p6196
stp6197
a(S'pursuit'
p6198
(dp6199
S'NamedEntityTag'
p6200
g98
sS'CharacterOffsetEnd'
p6201
S'1539'
p6202
sS'Lemma'
p6203
S'pursuit'
p6204
sS'PartOfSpeech'
p6205
S'NN'
p6206
sS'CharacterOffsetBegin'
p6207
S'1532'
p6208
stp6209
a(S'and'
p6210
(dp6211
S'NamedEntityTag'
p6212
g98
sS'CharacterOffsetEnd'
p6213
S'1543'
p6214
sS'Lemma'
p6215
S'and'
p6216
sS'PartOfSpeech'
p6217
S'CC'
p6218
sS'CharacterOffsetBegin'
p6219
S'1540'
p6220
stp6221
a(S'capture'
p6222
(dp6223
S'NamedEntityTag'
p6224
g98
sS'CharacterOffsetEnd'
p6225
S'1551'
p6226
sS'Lemma'
p6227
S'capture'
p6228
sS'PartOfSpeech'
p6229
S'NN'
p6230
sS'CharacterOffsetBegin'
p6231
S'1544'
p6232
stp6233
a(S'of'
p6234
(dp6235
S'NamedEntityTag'
p6236
g98
sS'CharacterOffsetEnd'
p6237
S'1554'
p6238
sS'Lemma'
p6239
S'of'
p6240
sS'PartOfSpeech'
p6241
S'IN'
p6242
sS'CharacterOffsetBegin'
p6243
S'1552'
p6244
stp6245
a(S'Zarya'
p6246
(dp6247
S'NamedEntityTag'
p6248
g98
sS'CharacterOffsetEnd'
p6249
S'1560'
p6250
sS'Lemma'
p6251
S'Zarya'
p6252
sS'PartOfSpeech'
p6253
S'NNP'
p6254
sS'CharacterOffsetBegin'
p6255
S'1555'
p6256
stp6257
a(g1427
(dp6258
S'NamedEntityTag'
p6259
g98
sS'CharacterOffsetEnd'
p6260
S'1561'
p6261
sS'Lemma'
p6262
g1427
sS'PartOfSpeech'
p6263
g1427
sS'CharacterOffsetBegin'
p6264
S'1560'
p6265
stp6266
a(S'and'
p6267
(dp6268
S'NamedEntityTag'
p6269
g98
sS'CharacterOffsetEnd'
p6270
S'1565'
p6271
sS'Lemma'
p6272
S'and'
p6273
sS'PartOfSpeech'
p6274
S'CC'
p6275
sS'CharacterOffsetBegin'
p6276
S'1562'
p6277
stp6278
a(S'its'
p6279
(dp6280
S'NamedEntityTag'
p6281
g98
sS'CharacterOffsetEnd'
p6282
S'1569'
p6283
sS'Lemma'
p6284
S'its'
p6285
sS'PartOfSpeech'
p6286
S'PRP$'
p6287
sS'CharacterOffsetBegin'
p6288
S'1566'
p6289
stp6290
a(S'coupling'
p6291
(dp6292
S'NamedEntityTag'
p6293
g98
sS'CharacterOffsetEnd'
p6294
S'1578'
p6295
sS'Lemma'
p6296
S'coupling'
p6297
sS'PartOfSpeech'
p6298
S'NN'
p6299
sS'CharacterOffsetBegin'
p6300
S'1570'
p6301
stp6302
a(S'with'
p6303
(dp6304
S'NamedEntityTag'
p6305
g98
sS'CharacterOffsetEnd'
p6306
S'1583'
p6307
sS'Lemma'
p6308
S'with'
p6309
sS'PartOfSpeech'
p6310
S'IN'
p6311
sS'CharacterOffsetBegin'
p6312
S'1579'
p6313
stp6314
a(S'Unity'
p6315
(dp6316
S'NamedEntityTag'
p6317
g98
sS'CharacterOffsetEnd'
p6318
S'1589'
p6319
sS'Lemma'
p6320
S'Unity'
p6321
sS'PartOfSpeech'
p6322
S'NNP'
p6323
sS'CharacterOffsetBegin'
p6324
S'1584'
p6325
stp6326
a(g404
(dp6327
S'NamedEntityTag'
p6328
g98
sS'CharacterOffsetEnd'
p6329
S'1590'
p6330
sS'Lemma'
p6331
g404
sS'PartOfSpeech'
p6332
g404
sS'CharacterOffsetBegin'
p6333
S'1589'
p6334
stp6335
asa(dp6336
g15
S'(ROOT (S (NP (NP (DT The) (NNS shuttles)) (NP (JJ 50-foot) (NN robot) (NN arm))) (VP (VBD had) (ADVP (RB never) (RB before)) (VP (VBN been) (VP (VBN assigned) (S (VP (TO to) (VP (VB handle) (NP (DT an) (NN object)) (PP (IN as) (NP (NP (JJ massive)) (PP (IN as) (NP (NP (DT the) (JJ 44,000-pound) (NNP Zarya)) (, ,) (NP (NP (DT a) (NP (NN power) (CC and) (NN propulsion)) (NN module)) (SBAR (WHNP (WDT that)) (S (VP (VBD was) (VP (VBN launched) (PP (IN from) (NP (NNP Kazakhstan))) (PP (IN on) (NP (NNP Nov) (CD 20)))))))))))))))))) (. .)))'
p6337
sg17
S'The shuttles 50-foot robot arm had never before been assigned to handle an object as massive as the 44,000-pound Zarya, a power and propulsion module that was launched from Kazakhstan on Nov 20.'
p6338
sg19
(lp6339
(S'root'
p6340
S'ROOT'
p6341
S'assigned'
p6342
tp6343
a(S'det'
p6344
S'shuttles'
p6345
S'The'
p6346
tp6347
a(S'nsubjpass'
p6348
S'assigned'
p6349
S'shuttles'
p6350
tp6351
a(S'amod'
p6352
S'arm'
p6353
S'50-foot'
p6354
tp6355
a(S'nn'
p6356
S'arm'
p6357
S'robot'
p6358
tp6359
a(S'dep'
p6360
S'shuttles'
p6361
S'arm'
p6362
tp6363
a(S'aux'
p6364
S'assigned'
p6365
S'had'
p6366
tp6367
a(S'dep'
p6368
S'before'
p6369
S'never'
p6370
tp6371
a(S'advmod'
p6372
S'assigned'
p6373
S'before'
p6374
tp6375
a(S'auxpass'
p6376
S'assigned'
p6377
S'been'
p6378
tp6379
a(S'aux'
p6380
S'handle'
p6381
S'to'
p6382
tp6383
a(S'xcomp'
p6384
S'assigned'
p6385
S'handle'
p6386
tp6387
a(S'det'
p6388
S'object'
p6389
S'an'
p6390
tp6391
a(S'dobj'
p6392
S'handle'
p6393
S'object'
p6394
tp6395
a(S'prep_as'
p6396
S'handle'
p6397
S'massive'
p6398
tp6399
a(S'det'
p6400
S'Zarya'
p6401
S'the'
p6402
tp6403
a(S'amod'
p6404
S'Zarya'
p6405
S'44,000-pound'
p6406
tp6407
a(S'prep_as'
p6408
S'massive'
p6409
S'Zarya'
p6410
tp6411
a(S'det'
p6412
S'module'
p6413
g2528
tp6414
a(S'nn'
p6415
S'module'
p6416
S'power'
p6417
tp6418
a(S'conj_and'
p6419
S'power'
p6420
S'propulsion'
p6421
tp6422
a(S'appos'
p6423
S'Zarya'
p6424
S'module'
p6425
tp6426
a(S'nsubjpass'
p6427
S'launched'
p6428
S'that'
p6429
tp6430
a(S'auxpass'
p6431
S'launched'
p6432
S'was'
p6433
tp6434
a(S'rcmod'
p6435
S'module'
p6436
S'launched'
p6437
tp6438
a(S'prep_from'
p6439
S'launched'
p6440
S'Kazakhstan'
p6441
tp6442
a(S'prep_on'
p6443
S'launched'
p6444
S'Nov'
p6445
tp6446
a(S'num'
p6447
S'Nov'
p6448
S'20'
p6449
tp6450
asg61
(lp6451
(g6340
S'ROOT-0'
p6452
S'assigned-10'
p6453
tp6454
a(g6344
S'shuttles-2'
p6455
S'The-1'
p6456
tp6457
a(g6348
S'assigned-10'
p6458
S'shuttles-2'
p6459
tp6460
a(g6352
S'arm-5'
p6461
S'50-foot-3'
p6462
tp6463
a(g6356
S'arm-5'
p6464
S'robot-4'
p6465
tp6466
a(g6360
S'shuttles-2'
p6467
S'arm-5'
p6468
tp6469
a(g6364
S'assigned-10'
p6470
S'had-6'
p6471
tp6472
a(g6368
S'before-8'
p6473
S'never-7'
p6474
tp6475
a(g6372
S'assigned-10'
p6476
S'before-8'
p6477
tp6478
a(g6376
S'assigned-10'
p6479
S'been-9'
p6480
tp6481
a(g6380
S'handle-12'
p6482
S'to-11'
p6483
tp6484
a(g6384
S'assigned-10'
p6485
S'handle-12'
p6486
tp6487
a(g6388
S'object-14'
p6488
S'an-13'
p6489
tp6490
a(g6392
S'handle-12'
p6491
S'object-14'
p6492
tp6493
a(g6396
S'handle-12'
p6494
S'massive-16'
p6495
tp6496
a(g6400
S'Zarya-20'
p6497
S'the-18'
p6498
tp6499
a(g6404
S'Zarya-20'
p6500
S'44,000-pound-19'
p6501
tp6502
a(g6408
S'massive-16'
p6503
S'Zarya-20'
p6504
tp6505
a(g6412
S'module-26'
p6506
S'a-22'
p6507
tp6508
a(g6415
S'module-26'
p6509
S'power-23'
p6510
tp6511
a(g6419
S'power-23'
p6512
S'propulsion-25'
p6513
tp6514
a(g6423
S'Zarya-20'
p6515
S'module-26'
p6516
tp6517
a(g6427
S'launched-29'
p6518
S'that-27'
p6519
tp6520
a(g6431
S'launched-29'
p6521
S'was-28'
p6522
tp6523
a(g6435
S'module-26'
p6524
S'launched-29'
p6525
tp6526
a(g6439
S'launched-29'
p6527
S'Kazakhstan-31'
p6528
tp6529
a(g6443
S'launched-29'
p6530
S'Nov-33'
p6531
tp6532
a(g6447
S'Nov-33'
p6533
S'20-34'
p6534
tp6535
asg93
(lp6536
(S'The'
p6537
(dp6538
S'NamedEntityTag'
p6539
g98
sS'CharacterOffsetEnd'
p6540
S'1594'
p6541
sS'Lemma'
p6542
S'the'
p6543
sS'PartOfSpeech'
p6544
S'DT'
p6545
sS'CharacterOffsetBegin'
p6546
S'1591'
p6547
stp6548
a(S'shuttles'
p6549
(dp6550
S'NamedEntityTag'
p6551
g98
sS'CharacterOffsetEnd'
p6552
S'1603'
p6553
sS'Lemma'
p6554
S'shuttle'
p6555
sS'PartOfSpeech'
p6556
S'NNS'
p6557
sS'CharacterOffsetBegin'
p6558
S'1595'
p6559
stp6560
a(S'50-foot'
p6561
(dp6562
S'NamedEntityTag'
p6563
g98
sS'CharacterOffsetEnd'
p6564
S'1611'
p6565
sS'Lemma'
p6566
S'50-foot'
p6567
sS'PartOfSpeech'
p6568
S'JJ'
p6569
sS'CharacterOffsetBegin'
p6570
S'1604'
p6571
stp6572
a(S'robot'
p6573
(dp6574
S'NamedEntityTag'
p6575
g98
sS'CharacterOffsetEnd'
p6576
S'1617'
p6577
sS'Lemma'
p6578
S'robot'
p6579
sS'PartOfSpeech'
p6580
S'NN'
p6581
sS'CharacterOffsetBegin'
p6582
S'1612'
p6583
stp6584
a(S'arm'
p6585
(dp6586
S'NamedEntityTag'
p6587
g98
sS'CharacterOffsetEnd'
p6588
S'1621'
p6589
sS'Lemma'
p6590
S'arm'
p6591
sS'PartOfSpeech'
p6592
S'NN'
p6593
sS'CharacterOffsetBegin'
p6594
S'1618'
p6595
stp6596
a(S'had'
p6597
(dp6598
S'NamedEntityTag'
p6599
g98
sS'CharacterOffsetEnd'
p6600
S'1625'
p6601
sS'Lemma'
p6602
S'have'
p6603
sS'PartOfSpeech'
p6604
S'VBD'
p6605
sS'CharacterOffsetBegin'
p6606
S'1622'
p6607
stp6608
a(S'never'
p6609
(dp6610
S'NamedEntityTag'
p6611
g98
sS'CharacterOffsetEnd'
p6612
S'1631'
p6613
sS'Lemma'
p6614
S'never'
p6615
sS'PartOfSpeech'
p6616
S'RB'
p6617
sS'CharacterOffsetBegin'
p6618
S'1626'
p6619
stp6620
a(S'before'
p6621
(dp6622
S'NamedEntityTag'
p6623
g98
sS'CharacterOffsetEnd'
p6624
S'1638'
p6625
sS'Lemma'
p6626
S'before'
p6627
sS'PartOfSpeech'
p6628
S'RB'
p6629
sS'CharacterOffsetBegin'
p6630
S'1632'
p6631
stp6632
a(S'been'
p6633
(dp6634
S'NamedEntityTag'
p6635
g98
sS'CharacterOffsetEnd'
p6636
S'1643'
p6637
sS'Lemma'
p6638
S'be'
p6639
sS'PartOfSpeech'
p6640
S'VBN'
p6641
sS'CharacterOffsetBegin'
p6642
S'1639'
p6643
stp6644
a(S'assigned'
p6645
(dp6646
S'NamedEntityTag'
p6647
g98
sS'CharacterOffsetEnd'
p6648
S'1652'
p6649
sS'Lemma'
p6650
S'assign'
p6651
sS'PartOfSpeech'
p6652
S'VBN'
p6653
sS'CharacterOffsetBegin'
p6654
S'1644'
p6655
stp6656
a(S'to'
p6657
(dp6658
S'NamedEntityTag'
p6659
g98
sS'CharacterOffsetEnd'
p6660
S'1655'
p6661
sS'Lemma'
p6662
S'to'
p6663
sS'PartOfSpeech'
p6664
S'TO'
p6665
sS'CharacterOffsetBegin'
p6666
S'1653'
p6667
stp6668
a(S'handle'
p6669
(dp6670
S'NamedEntityTag'
p6671
g98
sS'CharacterOffsetEnd'
p6672
S'1662'
p6673
sS'Lemma'
p6674
S'handle'
p6675
sS'PartOfSpeech'
p6676
S'VB'
p6677
sS'CharacterOffsetBegin'
p6678
S'1656'
p6679
stp6680
a(S'an'
p6681
(dp6682
S'NamedEntityTag'
p6683
g98
sS'CharacterOffsetEnd'
p6684
S'1665'
p6685
sS'Lemma'
p6686
g2528
sS'PartOfSpeech'
p6687
S'DT'
p6688
sS'CharacterOffsetBegin'
p6689
S'1663'
p6690
stp6691
a(S'object'
p6692
(dp6693
S'NamedEntityTag'
p6694
g98
sS'CharacterOffsetEnd'
p6695
S'1672'
p6696
sS'Lemma'
p6697
S'object'
p6698
sS'PartOfSpeech'
p6699
S'NN'
p6700
sS'CharacterOffsetBegin'
p6701
S'1666'
p6702
stp6703
a(S'as'
p6704
(dp6705
S'NamedEntityTag'
p6706
g98
sS'CharacterOffsetEnd'
p6707
S'1675'
p6708
sS'Lemma'
p6709
S'as'
p6710
sS'PartOfSpeech'
p6711
S'IN'
p6712
sS'CharacterOffsetBegin'
p6713
S'1673'
p6714
stp6715
a(S'massive'
p6716
(dp6717
S'NamedEntityTag'
p6718
g98
sS'CharacterOffsetEnd'
p6719
S'1683'
p6720
sS'Lemma'
p6721
S'massive'
p6722
sS'PartOfSpeech'
p6723
S'JJ'
p6724
sS'CharacterOffsetBegin'
p6725
S'1676'
p6726
stp6727
a(S'as'
p6728
(dp6729
S'NamedEntityTag'
p6730
g98
sS'CharacterOffsetEnd'
p6731
S'1686'
p6732
sS'Lemma'
p6733
S'as'
p6734
sS'PartOfSpeech'
p6735
S'IN'
p6736
sS'CharacterOffsetBegin'
p6737
S'1684'
p6738
stp6739
a(S'the'
p6740
(dp6741
S'NamedEntityTag'
p6742
g98
sS'CharacterOffsetEnd'
p6743
S'1690'
p6744
sS'Lemma'
p6745
S'the'
p6746
sS'PartOfSpeech'
p6747
S'DT'
p6748
sS'CharacterOffsetBegin'
p6749
S'1687'
p6750
stp6751
a(S'44,000-pound'
p6752
(dp6753
S'NamedEntityTag'
p6754
g98
sS'CharacterOffsetEnd'
p6755
S'1703'
p6756
sS'Lemma'
p6757
S'44,000-pound'
p6758
sS'PartOfSpeech'
p6759
S'JJ'
p6760
sS'CharacterOffsetBegin'
p6761
S'1691'
p6762
stp6763
a(S'Zarya'
p6764
(dp6765
S'NamedEntityTag'
p6766
g98
sS'CharacterOffsetEnd'
p6767
S'1709'
p6768
sS'Lemma'
p6769
S'Zarya'
p6770
sS'PartOfSpeech'
p6771
S'NNP'
p6772
sS'CharacterOffsetBegin'
p6773
S'1704'
p6774
stp6775
a(g1427
(dp6776
S'NamedEntityTag'
p6777
g98
sS'CharacterOffsetEnd'
p6778
S'1710'
p6779
sS'Lemma'
p6780
g1427
sS'PartOfSpeech'
p6781
g1427
sS'CharacterOffsetBegin'
p6782
S'1709'
p6783
stp6784
a(g2528
(dp6785
S'NamedEntityTag'
p6786
g98
sS'CharacterOffsetEnd'
p6787
S'1712'
p6788
sS'Lemma'
p6789
g2528
sS'PartOfSpeech'
p6790
S'DT'
p6791
sS'CharacterOffsetBegin'
p6792
S'1711'
p6793
stp6794
a(S'power'
p6795
(dp6796
S'NamedEntityTag'
p6797
g98
sS'CharacterOffsetEnd'
p6798
S'1718'
p6799
sS'Lemma'
p6800
S'power'
p6801
sS'PartOfSpeech'
p6802
S'NN'
p6803
sS'CharacterOffsetBegin'
p6804
S'1713'
p6805
stp6806
a(S'and'
p6807
(dp6808
S'NamedEntityTag'
p6809
g98
sS'CharacterOffsetEnd'
p6810
S'1722'
p6811
sS'Lemma'
p6812
S'and'
p6813
sS'PartOfSpeech'
p6814
S'CC'
p6815
sS'CharacterOffsetBegin'
p6816
S'1719'
p6817
stp6818
a(S'propulsion'
p6819
(dp6820
S'NamedEntityTag'
p6821
g98
sS'CharacterOffsetEnd'
p6822
S'1733'
p6823
sS'Lemma'
p6824
S'propulsion'
p6825
sS'PartOfSpeech'
p6826
S'NN'
p6827
sS'CharacterOffsetBegin'
p6828
S'1723'
p6829
stp6830
a(S'module'
p6831
(dp6832
S'NamedEntityTag'
p6833
g98
sS'CharacterOffsetEnd'
p6834
S'1740'
p6835
sS'Lemma'
p6836
S'module'
p6837
sS'PartOfSpeech'
p6838
S'NN'
p6839
sS'CharacterOffsetBegin'
p6840
S'1734'
p6841
stp6842
a(S'that'
p6843
(dp6844
S'NamedEntityTag'
p6845
g98
sS'CharacterOffsetEnd'
p6846
S'1745'
p6847
sS'Lemma'
p6848
S'that'
p6849
sS'PartOfSpeech'
p6850
S'WDT'
p6851
sS'CharacterOffsetBegin'
p6852
S'1741'
p6853
stp6854
a(S'was'
p6855
(dp6856
S'NamedEntityTag'
p6857
g98
sS'CharacterOffsetEnd'
p6858
S'1749'
p6859
sS'Lemma'
p6860
S'be'
p6861
sS'PartOfSpeech'
p6862
S'VBD'
p6863
sS'CharacterOffsetBegin'
p6864
S'1746'
p6865
stp6866
a(S'launched'
p6867
(dp6868
S'NamedEntityTag'
p6869
g98
sS'CharacterOffsetEnd'
p6870
S'1758'
p6871
sS'Lemma'
p6872
S'launch'
p6873
sS'PartOfSpeech'
p6874
S'VBN'
p6875
sS'CharacterOffsetBegin'
p6876
S'1750'
p6877
stp6878
a(S'from'
p6879
(dp6880
S'NamedEntityTag'
p6881
g98
sS'CharacterOffsetEnd'
p6882
S'1763'
p6883
sS'Lemma'
p6884
S'from'
p6885
sS'PartOfSpeech'
p6886
S'IN'
p6887
sS'CharacterOffsetBegin'
p6888
S'1759'
p6889
stp6890
a(S'Kazakhstan'
p6891
(dp6892
S'NamedEntityTag'
p6893
S'LOCATION'
p6894
sS'CharacterOffsetEnd'
p6895
S'1774'
p6896
sS'Lemma'
p6897
S'Kazakhstan'
p6898
sS'PartOfSpeech'
p6899
S'NNP'
p6900
sS'CharacterOffsetBegin'
p6901
S'1764'
p6902
stp6903
a(S'on'
p6904
(dp6905
S'NamedEntityTag'
p6906
g98
sS'CharacterOffsetEnd'
p6907
S'1777'
p6908
sS'Lemma'
p6909
S'on'
p6910
sS'PartOfSpeech'
p6911
S'IN'
p6912
sS'CharacterOffsetBegin'
p6913
S'1775'
p6914
stp6915
a(S'Nov'
p6916
(dp6917
S'NormalizedNamedEntityTag'
p6918
S'XXXX-11-20'
p6919
sS'Timex'
p6920
S'<TIMEX3 tid="t8" type="DATE" value="XXXX-11-20">Nov 20</TIMEX3>'
p6921
sS'Lemma'
p6922
S'Nov'
p6923
sS'CharacterOffsetEnd'
p6924
S'1781'
p6925
sS'PartOfSpeech'
p6926
S'NNP'
p6927
sS'CharacterOffsetBegin'
p6928
S'1778'
p6929
sS'NamedEntityTag'
p6930
S'DATE'
p6931
stp6932
a(S'20'
p6933
(dp6934
S'NormalizedNamedEntityTag'
p6935
S'XXXX-11-20'
p6936
sS'Timex'
p6937
S'<TIMEX3 tid="t8" type="DATE" value="XXXX-11-20">Nov 20</TIMEX3>'
p6938
sS'Lemma'
p6939
S'20'
p6940
sS'CharacterOffsetEnd'
p6941
S'1784'
p6942
sS'PartOfSpeech'
p6943
S'CD'
p6944
sS'CharacterOffsetBegin'
p6945
S'1782'
p6946
sS'NamedEntityTag'
p6947
S'DATE'
p6948
stp6949
a(g404
(dp6950
S'NamedEntityTag'
p6951
g98
sS'CharacterOffsetEnd'
p6952
S'1785'
p6953
sS'Lemma'
p6954
g404
sS'PartOfSpeech'
p6955
g404
sS'CharacterOffsetBegin'
p6956
S'1784'
p6957
stp6958
asa(dp6959
g15
S'(ROOT (S (S (NP (PRP It)) (VP (MD will) (VP (VB provide) (NP (PDT all) (DT the) (JJ necessary) (NN electricity))))) (CC and) (S (VP (VBG steering) (PP (IN for) (NP (DT the) (JJ fledgling) (NN space) (NN station))) (SBAR (IN until) (S (NP (DT a) (JJ permanent) (NN control) (NN module)) (VP (MD can) (VP (VB be) (VP (VBN launched) (NP-TMP (JJ next) (NN summer))))))))) (. .)))'
p6960
sg17
S'It will provide all the necessary electricity and steering for the fledgling space station until a permanent control module can be launched next summer.'
p6961
sg19
(lp6962
(S'root'
p6963
S'ROOT'
p6964
S'provide'
p6965
tp6966
a(S'nsubj'
p6967
S'provide'
p6968
S'It'
p6969
tp6970
a(S'aux'
p6971
S'provide'
p6972
S'will'
p6973
tp6974
a(S'predet'
p6975
S'electricity'
p6976
S'all'
p6977
tp6978
a(S'det'
p6979
S'electricity'
p6980
S'the'
p6981
tp6982
a(S'amod'
p6983
S'electricity'
p6984
S'necessary'
p6985
tp6986
a(S'dobj'
p6987
S'provide'
p6988
S'electricity'
p6989
tp6990
a(S'conj_and'
p6991
S'provide'
p6992
S'steering'
p6993
tp6994
a(S'det'
p6995
S'station'
p6996
S'the'
p6997
tp6998
a(S'amod'
p6999
S'station'
p7000
S'fledgling'
p7001
tp7002
a(S'nn'
p7003
S'station'
p7004
S'space'
p7005
tp7006
a(S'prep_for'
p7007
S'steering'
p7008
S'station'
p7009
tp7010
a(S'mark'
p7011
S'launched'
p7012
S'until'
p7013
tp7014
a(S'det'
p7015
S'module'
p7016
g2528
tp7017
a(S'amod'
p7018
S'module'
p7019
S'permanent'
p7020
tp7021
a(S'nn'
p7022
S'module'
p7023
S'control'
p7024
tp7025
a(S'nsubjpass'
p7026
S'launched'
p7027
S'module'
p7028
tp7029
a(S'aux'
p7030
S'launched'
p7031
S'can'
p7032
tp7033
a(S'auxpass'
p7034
S'launched'
p7035
S'be'
p7036
tp7037
a(S'advcl'
p7038
S'steering'
p7039
S'launched'
p7040
tp7041
a(S'amod'
p7042
S'summer'
p7043
S'next'
p7044
tp7045
a(S'tmod'
p7046
S'launched'
p7047
S'summer'
p7048
tp7049
asg61
(lp7050
(g6963
S'ROOT-0'
p7051
S'provide-3'
p7052
tp7053
a(g6967
S'provide-3'
p7054
S'It-1'
p7055
tp7056
a(g6971
S'provide-3'
p7057
S'will-2'
p7058
tp7059
a(g6975
S'electricity-7'
p7060
S'all-4'
p7061
tp7062
a(g6979
S'electricity-7'
p7063
S'the-5'
p7064
tp7065
a(g6983
S'electricity-7'
p7066
S'necessary-6'
p7067
tp7068
a(g6987
S'provide-3'
p7069
S'electricity-7'
p7070
tp7071
a(g6991
S'provide-3'
p7072
S'steering-9'
p7073
tp7074
a(g6995
S'station-14'
p7075
S'the-11'
p7076
tp7077
a(g6999
S'station-14'
p7078
S'fledgling-12'
p7079
tp7080
a(g7003
S'station-14'
p7081
S'space-13'
p7082
tp7083
a(g7007
S'steering-9'
p7084
S'station-14'
p7085
tp7086
a(g7011
S'launched-22'
p7087
S'until-15'
p7088
tp7089
a(g7015
S'module-19'
p7090
S'a-16'
p7091
tp7092
a(g7018
S'module-19'
p7093
S'permanent-17'
p7094
tp7095
a(g7022
S'module-19'
p7096
S'control-18'
p7097
tp7098
a(g7026
S'launched-22'
p7099
S'module-19'
p7100
tp7101
a(g7030
S'launched-22'
p7102
S'can-20'
p7103
tp7104
a(g7034
S'launched-22'
p7105
S'be-21'
p7106
tp7107
a(g7038
S'steering-9'
p7108
S'launched-22'
p7109
tp7110
a(g7042
S'summer-24'
p7111
S'next-23'
p7112
tp7113
a(g7046
S'launched-22'
p7114
S'summer-24'
p7115
tp7116
asg93
(lp7117
(S'It'
p7118
(dp7119
S'NamedEntityTag'
p7120
g98
sS'CharacterOffsetEnd'
p7121
S'1788'
p7122
sS'Lemma'
p7123
S'it'
p7124
sS'PartOfSpeech'
p7125
S'PRP'
p7126
sS'CharacterOffsetBegin'
p7127
S'1786'
p7128
stp7129
a(S'will'
p7130
(dp7131
S'NamedEntityTag'
p7132
g98
sS'CharacterOffsetEnd'
p7133
S'1793'
p7134
sS'Lemma'
p7135
S'will'
p7136
sS'PartOfSpeech'
p7137
S'MD'
p7138
sS'CharacterOffsetBegin'
p7139
S'1789'
p7140
stp7141
a(S'provide'
p7142
(dp7143
S'NamedEntityTag'
p7144
g98
sS'CharacterOffsetEnd'
p7145
S'1801'
p7146
sS'Lemma'
p7147
S'provide'
p7148
sS'PartOfSpeech'
p7149
S'VB'
p7150
sS'CharacterOffsetBegin'
p7151
S'1794'
p7152
stp7153
a(S'all'
p7154
(dp7155
S'NamedEntityTag'
p7156
g98
sS'CharacterOffsetEnd'
p7157
S'1805'
p7158
sS'Lemma'
p7159
S'all'
p7160
sS'PartOfSpeech'
p7161
S'PDT'
p7162
sS'CharacterOffsetBegin'
p7163
S'1802'
p7164
stp7165
a(S'the'
p7166
(dp7167
S'NamedEntityTag'
p7168
g98
sS'CharacterOffsetEnd'
p7169
S'1809'
p7170
sS'Lemma'
p7171
S'the'
p7172
sS'PartOfSpeech'
p7173
S'DT'
p7174
sS'CharacterOffsetBegin'
p7175
S'1806'
p7176
stp7177
a(S'necessary'
p7178
(dp7179
S'NamedEntityTag'
p7180
g98
sS'CharacterOffsetEnd'
p7181
S'1819'
p7182
sS'Lemma'
p7183
S'necessary'
p7184
sS'PartOfSpeech'
p7185
S'JJ'
p7186
sS'CharacterOffsetBegin'
p7187
S'1810'
p7188
stp7189
a(S'electricity'
p7190
(dp7191
S'NamedEntityTag'
p7192
g98
sS'CharacterOffsetEnd'
p7193
S'1831'
p7194
sS'Lemma'
p7195
S'electricity'
p7196
sS'PartOfSpeech'
p7197
S'NN'
p7198
sS'CharacterOffsetBegin'
p7199
S'1820'
p7200
stp7201
a(S'and'
p7202
(dp7203
S'NamedEntityTag'
p7204
g98
sS'CharacterOffsetEnd'
p7205
S'1835'
p7206
sS'Lemma'
p7207
S'and'
p7208
sS'PartOfSpeech'
p7209
S'CC'
p7210
sS'CharacterOffsetBegin'
p7211
S'1832'
p7212
stp7213
a(S'steering'
p7214
(dp7215
S'NamedEntityTag'
p7216
g98
sS'CharacterOffsetEnd'
p7217
S'1844'
p7218
sS'Lemma'
p7219
S'steer'
p7220
sS'PartOfSpeech'
p7221
S'VBG'
p7222
sS'CharacterOffsetBegin'
p7223
S'1836'
p7224
stp7225
a(S'for'
p7226
(dp7227
S'NamedEntityTag'
p7228
g98
sS'CharacterOffsetEnd'
p7229
S'1848'
p7230
sS'Lemma'
p7231
S'for'
p7232
sS'PartOfSpeech'
p7233
S'IN'
p7234
sS'CharacterOffsetBegin'
p7235
S'1845'
p7236
stp7237
a(S'the'
p7238
(dp7239
S'NamedEntityTag'
p7240
g98
sS'CharacterOffsetEnd'
p7241
S'1852'
p7242
sS'Lemma'
p7243
S'the'
p7244
sS'PartOfSpeech'
p7245
S'DT'
p7246
sS'CharacterOffsetBegin'
p7247
S'1849'
p7248
stp7249
a(S'fledgling'
p7250
(dp7251
S'NamedEntityTag'
p7252
g98
sS'CharacterOffsetEnd'
p7253
S'1862'
p7254
sS'Lemma'
p7255
S'fledgling'
p7256
sS'PartOfSpeech'
p7257
S'JJ'
p7258
sS'CharacterOffsetBegin'
p7259
S'1853'
p7260
stp7261
a(S'space'
p7262
(dp7263
S'NamedEntityTag'
p7264
g98
sS'CharacterOffsetEnd'
p7265
S'1868'
p7266
sS'Lemma'
p7267
S'space'
p7268
sS'PartOfSpeech'
p7269
S'NN'
p7270
sS'CharacterOffsetBegin'
p7271
S'1863'
p7272
stp7273
a(S'station'
p7274
(dp7275
S'NamedEntityTag'
p7276
g98
sS'CharacterOffsetEnd'
p7277
S'1876'
p7278
sS'Lemma'
p7279
S'station'
p7280
sS'PartOfSpeech'
p7281
S'NN'
p7282
sS'CharacterOffsetBegin'
p7283
S'1869'
p7284
stp7285
a(S'until'
p7286
(dp7287
S'NamedEntityTag'
p7288
g98
sS'CharacterOffsetEnd'
p7289
S'1882'
p7290
sS'Lemma'
p7291
S'until'
p7292
sS'PartOfSpeech'
p7293
S'IN'
p7294
sS'CharacterOffsetBegin'
p7295
S'1877'
p7296
stp7297
a(g2528
(dp7298
S'NamedEntityTag'
p7299
g98
sS'CharacterOffsetEnd'
p7300
S'1884'
p7301
sS'Lemma'
p7302
g2528
sS'PartOfSpeech'
p7303
S'DT'
p7304
sS'CharacterOffsetBegin'
p7305
S'1883'
p7306
stp7307
a(S'permanent'
p7308
(dp7309
S'NamedEntityTag'
p7310
g98
sS'CharacterOffsetEnd'
p7311
S'1894'
p7312
sS'Lemma'
p7313
S'permanent'
p7314
sS'PartOfSpeech'
p7315
S'JJ'
p7316
sS'CharacterOffsetBegin'
p7317
S'1885'
p7318
stp7319
a(S'control'
p7320
(dp7321
S'NamedEntityTag'
p7322
g98
sS'CharacterOffsetEnd'
p7323
S'1902'
p7324
sS'Lemma'
p7325
S'control'
p7326
sS'PartOfSpeech'
p7327
S'NN'
p7328
sS'CharacterOffsetBegin'
p7329
S'1895'
p7330
stp7331
a(S'module'
p7332
(dp7333
S'NamedEntityTag'
p7334
g98
sS'CharacterOffsetEnd'
p7335
S'1909'
p7336
sS'Lemma'
p7337
S'module'
p7338
sS'PartOfSpeech'
p7339
S'NN'
p7340
sS'CharacterOffsetBegin'
p7341
S'1903'
p7342
stp7343
a(S'can'
p7344
(dp7345
S'NamedEntityTag'
p7346
g98
sS'CharacterOffsetEnd'
p7347
S'1913'
p7348
sS'Lemma'
p7349
S'can'
p7350
sS'PartOfSpeech'
p7351
S'MD'
p7352
sS'CharacterOffsetBegin'
p7353
S'1910'
p7354
stp7355
a(S'be'
p7356
(dp7357
S'NamedEntityTag'
p7358
g98
sS'CharacterOffsetEnd'
p7359
S'1916'
p7360
sS'Lemma'
p7361
S'be'
p7362
sS'PartOfSpeech'
p7363
S'VB'
p7364
sS'CharacterOffsetBegin'
p7365
S'1914'
p7366
stp7367
a(S'launched'
p7368
(dp7369
S'NamedEntityTag'
p7370
g98
sS'CharacterOffsetEnd'
p7371
S'1925'
p7372
sS'Lemma'
p7373
S'launch'
p7374
sS'PartOfSpeech'
p7375
S'VBN'
p7376
sS'CharacterOffsetBegin'
p7377
S'1917'
p7378
stp7379
a(S'next'
p7380
(dp7381
S'NormalizedNamedEntityTag'
p7382
S'XXXX-SU'
p7383
sS'Timex'
p7384
S'<TIMEX3 alt_value="XXXX-SU OFFSET P1Y" anchorTimeID="t10" temporalFunction="true" tid="t9" type="DATE" valueFromFunction="tf1">next summer</TIMEX3>'
p7385
sS'Lemma'
p7386
S'next'
p7387
sS'CharacterOffsetEnd'
p7388
S'1930'
p7389
sS'PartOfSpeech'
p7390
S'JJ'
p7391
sS'CharacterOffsetBegin'
p7392
S'1926'
p7393
sS'NamedEntityTag'
p7394
S'DATE'
p7395
stp7396
a(S'summer'
p7397
(dp7398
S'NormalizedNamedEntityTag'
p7399
S'XXXX-SU'
p7400
sS'Timex'
p7401
S'<TIMEX3 alt_value="XXXX-SU OFFSET P1Y" anchorTimeID="t10" temporalFunction="true" tid="t9" type="DATE" valueFromFunction="tf1">next summer</TIMEX3>'
p7402
sS'Lemma'
p7403
S'summer'
p7404
sS'CharacterOffsetEnd'
p7405
S'1937'
p7406
sS'PartOfSpeech'
p7407
S'NN'
p7408
sS'CharacterOffsetBegin'
p7409
S'1931'
p7410
sS'NamedEntityTag'
p7411
S'DATE'
p7412
stp7413
a(g404
(dp7414
S'NamedEntityTag'
p7415
g98
sS'CharacterOffsetEnd'
p7416
S'1938'
p7417
sS'Lemma'
p7418
g404
sS'PartOfSpeech'
p7419
g404
sS'CharacterOffsetBegin'
p7420
S'1937'
p7421
stp7422
asa(dp7423
g15
S'(ROOT (S (NP (DT The) (ADJP (JJ 36-foot) (, ,) (JJ 25,000-pound)) (NNP Unity)) (VP (MD will) (VP (VB serve) (S (NP (IN as) (DT a)) (VP (VBG connecting) (NP (NP (NN passageway)) (, ,) (CC or) (NP (NN vestibule)) (, ,)) (PP (IN for) (NP (JJ future) (NNS modules))))))) (. .)))'
p7424
sg17
S'The 36-foot, 25,000-pound Unity will serve as a connecting passageway, or vestibule, for future modules.'
p7425
sg19
(lp7426
(S'root'
p7427
S'ROOT'
p7428
S'serve'
p7429
tp7430
a(S'det'
p7431
S'Unity'
p7432
S'The'
p7433
tp7434
a(S'amod'
p7435
S'25,000-pound'
p7436
S'36-foot'
p7437
tp7438
a(S'amod'
p7439
S'Unity'
p7440
S'25,000-pound'
p7441
tp7442
a(S'nsubj'
p7443
S'serve'
p7444
S'Unity'
p7445
tp7446
a(S'aux'
p7447
S'serve'
p7448
S'will'
p7449
tp7450
a(S'amod'
p7451
g2528
S'as'
p7452
tp7453
a(S'nsubj'
p7454
S'connecting'
p7455
g2528
tp7456
a(S'dep'
p7457
S'serve'
p7458
S'connecting'
p7459
tp7460
a(S'dobj'
p7461
S'connecting'
p7462
S'passageway'
p7463
tp7464
a(S'conj_or'
p7465
S'passageway'
p7466
S'vestibule'
p7467
tp7468
a(S'amod'
p7469
S'modules'
p7470
S'future'
p7471
tp7472
a(S'prep_for'
p7473
S'connecting'
p7474
S'modules'
p7475
tp7476
asg61
(lp7477
(g7427
S'ROOT-0'
p7478
S'serve-7'
p7479
tp7480
a(g7431
S'Unity-5'
p7481
S'The-1'
p7482
tp7483
a(g7435
S'25,000-pound-4'
p7484
S'36-foot-2'
p7485
tp7486
a(g7439
S'Unity-5'
p7487
S'25,000-pound-4'
p7488
tp7489
a(g7443
S'serve-7'
p7490
S'Unity-5'
p7491
tp7492
a(g7447
S'serve-7'
p7493
S'will-6'
p7494
tp7495
a(g7451
S'a-9'
p7496
S'as-8'
p7497
tp7498
a(g7454
S'connecting-10'
p7499
S'a-9'
p7500
tp7501
a(g7457
S'serve-7'
p7502
S'connecting-10'
p7503
tp7504
a(g7461
S'connecting-10'
p7505
S'passageway-11'
p7506
tp7507
a(g7465
S'passageway-11'
p7508
S'vestibule-14'
p7509
tp7510
a(g7469
S'modules-18'
p7511
S'future-17'
p7512
tp7513
a(g7473
S'connecting-10'
p7514
S'modules-18'
p7515
tp7516
asg93
(lp7517
(S'The'
p7518
(dp7519
S'NamedEntityTag'
p7520
g98
sS'CharacterOffsetEnd'
p7521
S'1942'
p7522
sS'Lemma'
p7523
S'the'
p7524
sS'PartOfSpeech'
p7525
S'DT'
p7526
sS'CharacterOffsetBegin'
p7527
S'1939'
p7528
stp7529
a(S'36-foot'
p7530
(dp7531
S'NamedEntityTag'
p7532
g98
sS'CharacterOffsetEnd'
p7533
S'1950'
p7534
sS'Lemma'
p7535
S'36-foot'
p7536
sS'PartOfSpeech'
p7537
S'JJ'
p7538
sS'CharacterOffsetBegin'
p7539
S'1943'
p7540
stp7541
a(g1427
(dp7542
S'NamedEntityTag'
p7543
g98
sS'CharacterOffsetEnd'
p7544
S'1951'
p7545
sS'Lemma'
p7546
g1427
sS'PartOfSpeech'
p7547
g1427
sS'CharacterOffsetBegin'
p7548
S'1950'
p7549
stp7550
a(S'25,000-pound'
p7551
(dp7552
S'NamedEntityTag'
p7553
g98
sS'CharacterOffsetEnd'
p7554
S'1964'
p7555
sS'Lemma'
p7556
S'25,000-pound'
p7557
sS'PartOfSpeech'
p7558
S'JJ'
p7559
sS'CharacterOffsetBegin'
p7560
S'1952'
p7561
stp7562
a(S'Unity'
p7563
(dp7564
S'NamedEntityTag'
p7565
g98
sS'CharacterOffsetEnd'
p7566
S'1970'
p7567
sS'Lemma'
p7568
S'Unity'
p7569
sS'PartOfSpeech'
p7570
S'NNP'
p7571
sS'CharacterOffsetBegin'
p7572
S'1965'
p7573
stp7574
a(S'will'
p7575
(dp7576
S'NamedEntityTag'
p7577
g98
sS'CharacterOffsetEnd'
p7578
S'1975'
p7579
sS'Lemma'
p7580
S'will'
p7581
sS'PartOfSpeech'
p7582
S'MD'
p7583
sS'CharacterOffsetBegin'
p7584
S'1971'
p7585
stp7586
a(S'serve'
p7587
(dp7588
S'NamedEntityTag'
p7589
g98
sS'CharacterOffsetEnd'
p7590
S'1981'
p7591
sS'Lemma'
p7592
S'serve'
p7593
sS'PartOfSpeech'
p7594
S'VB'
p7595
sS'CharacterOffsetBegin'
p7596
S'1976'
p7597
stp7598
a(S'as'
p7599
(dp7600
S'NamedEntityTag'
p7601
g98
sS'CharacterOffsetEnd'
p7602
S'1984'
p7603
sS'Lemma'
p7604
S'as'
p7605
sS'PartOfSpeech'
p7606
S'IN'
p7607
sS'CharacterOffsetBegin'
p7608
S'1982'
p7609
stp7610
a(g2528
(dp7611
S'NamedEntityTag'
p7612
g98
sS'CharacterOffsetEnd'
p7613
S'1986'
p7614
sS'Lemma'
p7615
g2528
sS'PartOfSpeech'
p7616
S'DT'
p7617
sS'CharacterOffsetBegin'
p7618
S'1985'
p7619
stp7620
a(S'connecting'
p7621
(dp7622
S'NamedEntityTag'
p7623
g98
sS'CharacterOffsetEnd'
p7624
S'1997'
p7625
sS'Lemma'
p7626
S'connect'
p7627
sS'PartOfSpeech'
p7628
S'VBG'
p7629
sS'CharacterOffsetBegin'
p7630
S'1987'
p7631
stp7632
a(S'passageway'
p7633
(dp7634
S'NamedEntityTag'
p7635
g98
sS'CharacterOffsetEnd'
p7636
S'2008'
p7637
sS'Lemma'
p7638
S'passageway'
p7639
sS'PartOfSpeech'
p7640
S'NN'
p7641
sS'CharacterOffsetBegin'
p7642
S'1998'
p7643
stp7644
a(g1427
(dp7645
S'NamedEntityTag'
p7646
g98
sS'CharacterOffsetEnd'
p7647
S'2009'
p7648
sS'Lemma'
p7649
g1427
sS'PartOfSpeech'
p7650
g1427
sS'CharacterOffsetBegin'
p7651
S'2008'
p7652
stp7653
a(S'or'
p7654
(dp7655
S'NamedEntityTag'
p7656
g98
sS'CharacterOffsetEnd'
p7657
S'2012'
p7658
sS'Lemma'
p7659
S'or'
p7660
sS'PartOfSpeech'
p7661
S'CC'
p7662
sS'CharacterOffsetBegin'
p7663
S'2010'
p7664
stp7665
a(S'vestibule'
p7666
(dp7667
S'NamedEntityTag'
p7668
g98
sS'CharacterOffsetEnd'
p7669
S'2022'
p7670
sS'Lemma'
p7671
S'vestibule'
p7672
sS'PartOfSpeech'
p7673
S'NN'
p7674
sS'CharacterOffsetBegin'
p7675
S'2013'
p7676
stp7677
a(g1427
(dp7678
S'NamedEntityTag'
p7679
g98
sS'CharacterOffsetEnd'
p7680
S'2023'
p7681
sS'Lemma'
p7682
g1427
sS'PartOfSpeech'
p7683
g1427
sS'CharacterOffsetBegin'
p7684
S'2022'
p7685
stp7686
a(S'for'
p7687
(dp7688
S'NamedEntityTag'
p7689
g98
sS'CharacterOffsetEnd'
p7690
S'2027'
p7691
sS'Lemma'
p7692
S'for'
p7693
sS'PartOfSpeech'
p7694
S'IN'
p7695
sS'CharacterOffsetBegin'
p7696
S'2024'
p7697
stp7698
a(S'future'
p7699
(dp7700
S'NormalizedNamedEntityTag'
p7701
S'FUTURE_REF'
p7702
sS'Timex'
p7703
S'<TIMEX3 tid="t11" type="DATE" value="FUTURE_REF">future</TIMEX3>'
p7704
sS'Lemma'
p7705
S'future'
p7706
sS'CharacterOffsetEnd'
p7707
S'2034'
p7708
sS'PartOfSpeech'
p7709
S'JJ'
p7710
sS'CharacterOffsetBegin'
p7711
S'2028'
p7712
sS'NamedEntityTag'
p7713
S'DATE'
p7714
stp7715
a(S'modules'
p7716
(dp7717
S'NamedEntityTag'
p7718
g98
sS'CharacterOffsetEnd'
p7719
S'2042'
p7720
sS'Lemma'
p7721
S'module'
p7722
sS'PartOfSpeech'
p7723
S'NNS'
p7724
sS'CharacterOffsetBegin'
p7725
S'2035'
p7726
stp7727
a(g404
(dp7728
S'NamedEntityTag'
p7729
g98
sS'CharacterOffsetEnd'
p7730
S'2043'
p7731
sS'Lemma'
p7732
g404
sS'PartOfSpeech'
p7733
g404
sS'CharacterOffsetBegin'
p7734
S'2042'
p7735
stp7736
asa(dp7737
g15
S'(ROOT (S (PP (IN In) (NP (NP (NN case)) (SBAR (S (NP (NNP Zarya) (CC and) (NNP Unity)) (VP (MD could) (RB not) (VP (VB be) (VP (VBN connected) (PP (IN with) (NP (DT the) (NN robot) (NN arm)))))))))) (, ,) (NP (NP (CD two)) (VP (VBG spacewalking) (NP (NNS astronauts)))) (VP (MD would) (VP (VB have) (S (VP (TO to) (VP (ADVP (RB manually)) (VB fit) (NP (PRP them)) (ADVP (RB together))))))) (. .)))'
p7738
sg17
S'In case Zarya and Unity could not be connected with the robot arm, two spacewalking astronauts would have to manually fit them together.'
p7739
sg19
(lp7740
(S'root'
p7741
S'ROOT'
p7742
S'have'
p7743
tp7744
a(S'prep_in'
p7745
S'have'
p7746
S'case'
p7747
tp7748
a(S'nsubjpass'
p7749
S'connected'
p7750
S'Zarya'
p7751
tp7752
a(S'conj_and'
p7753
S'Zarya'
p7754
S'Unity'
p7755
tp7756
a(S'aux'
p7757
S'connected'
p7758
S'could'
p7759
tp7760
a(S'neg'
p7761
S'connected'
p7762
S'not'
p7763
tp7764
a(S'auxpass'
p7765
S'connected'
p7766
S'be'
p7767
tp7768
a(S'rcmod'
p7769
S'case'
p7770
S'connected'
p7771
tp7772
a(S'det'
p7773
S'arm'
p7774
S'the'
p7775
tp7776
a(S'nn'
p7777
S'arm'
p7778
S'robot'
p7779
tp7780
a(S'prep_with'
p7781
S'connected'
p7782
S'arm'
p7783
tp7784
a(S'nsubj'
p7785
S'have'
p7786
S'two'
p7787
tp7788
a(S'partmod'
p7789
S'two'
p7790
S'spacewalking'
p7791
tp7792
a(S'dobj'
p7793
S'spacewalking'
p7794
S'astronauts'
p7795
tp7796
a(S'aux'
p7797
S'have'
p7798
S'would'
p7799
tp7800
a(S'aux'
p7801
S'fit'
p7802
S'to'
p7803
tp7804
a(S'advmod'
p7805
S'fit'
p7806
S'manually'
p7807
tp7808
a(S'xcomp'
p7809
S'have'
p7810
S'fit'
p7811
tp7812
a(S'dobj'
p7813
S'fit'
p7814
S'them'
p7815
tp7816
a(S'advmod'
p7817
S'fit'
p7818
S'together'
p7819
tp7820
asg61
(lp7821
(g7741
S'ROOT-0'
p7822
S'have-19'
p7823
tp7824
a(g7745
S'have-19'
p7825
S'case-2'
p7826
tp7827
a(g7749
S'connected-9'
p7828
S'Zarya-3'
p7829
tp7830
a(g7753
S'Zarya-3'
p7831
S'Unity-5'
p7832
tp7833
a(g7757
S'connected-9'
p7834
S'could-6'
p7835
tp7836
a(g7761
S'connected-9'
p7837
S'not-7'
p7838
tp7839
a(g7765
S'connected-9'
p7840
S'be-8'
p7841
tp7842
a(g7769
S'case-2'
p7843
S'connected-9'
p7844
tp7845
a(g7773
S'arm-13'
p7846
S'the-11'
p7847
tp7848
a(g7777
S'arm-13'
p7849
S'robot-12'
p7850
tp7851
a(g7781
S'connected-9'
p7852
S'arm-13'
p7853
tp7854
a(g7785
S'have-19'
p7855
S'two-15'
p7856
tp7857
a(g7789
S'two-15'
p7858
S'spacewalking-16'
p7859
tp7860
a(g7793
S'spacewalking-16'
p7861
S'astronauts-17'
p7862
tp7863
a(g7797
S'have-19'
p7864
S'would-18'
p7865
tp7866
a(g7801
S'fit-22'
p7867
S'to-20'
p7868
tp7869
a(g7805
S'fit-22'
p7870
S'manually-21'
p7871
tp7872
a(g7809
S'have-19'
p7873
S'fit-22'
p7874
tp7875
a(g7813
S'fit-22'
p7876
S'them-23'
p7877
tp7878
a(g7817
S'fit-22'
p7879
S'together-24'
p7880
tp7881
asg93
(lp7882
(S'In'
p7883
(dp7884
S'NamedEntityTag'
p7885
g98
sS'CharacterOffsetEnd'
p7886
S'2046'
p7887
sS'Lemma'
p7888
S'in'
p7889
sS'PartOfSpeech'
p7890
S'IN'
p7891
sS'CharacterOffsetBegin'
p7892
S'2044'
p7893
stp7894
a(S'case'
p7895
(dp7896
S'NamedEntityTag'
p7897
g98
sS'CharacterOffsetEnd'
p7898
S'2051'
p7899
sS'Lemma'
p7900
S'case'
p7901
sS'PartOfSpeech'
p7902
S'NN'
p7903
sS'CharacterOffsetBegin'
p7904
S'2047'
p7905
stp7906
a(S'Zarya'
p7907
(dp7908
S'NamedEntityTag'
p7909
g98
sS'CharacterOffsetEnd'
p7910
S'2057'
p7911
sS'Lemma'
p7912
S'Zarya'
p7913
sS'PartOfSpeech'
p7914
S'NNP'
p7915
sS'CharacterOffsetBegin'
p7916
S'2052'
p7917
stp7918
a(S'and'
p7919
(dp7920
S'NamedEntityTag'
p7921
g98
sS'CharacterOffsetEnd'
p7922
S'2061'
p7923
sS'Lemma'
p7924
S'and'
p7925
sS'PartOfSpeech'
p7926
S'CC'
p7927
sS'CharacterOffsetBegin'
p7928
S'2058'
p7929
stp7930
a(S'Unity'
p7931
(dp7932
S'NamedEntityTag'
p7933
g98
sS'CharacterOffsetEnd'
p7934
S'2067'
p7935
sS'Lemma'
p7936
S'Unity'
p7937
sS'PartOfSpeech'
p7938
S'NNP'
p7939
sS'CharacterOffsetBegin'
p7940
S'2062'
p7941
stp7942
a(S'could'
p7943
(dp7944
S'NamedEntityTag'
p7945
g98
sS'CharacterOffsetEnd'
p7946
S'2073'
p7947
sS'Lemma'
p7948
S'could'
p7949
sS'PartOfSpeech'
p7950
S'MD'
p7951
sS'CharacterOffsetBegin'
p7952
S'2068'
p7953
stp7954
a(S'not'
p7955
(dp7956
S'NamedEntityTag'
p7957
g98
sS'CharacterOffsetEnd'
p7958
S'2077'
p7959
sS'Lemma'
p7960
S'not'
p7961
sS'PartOfSpeech'
p7962
S'RB'
p7963
sS'CharacterOffsetBegin'
p7964
S'2074'
p7965
stp7966
a(S'be'
p7967
(dp7968
S'NamedEntityTag'
p7969
g98
sS'CharacterOffsetEnd'
p7970
S'2080'
p7971
sS'Lemma'
p7972
S'be'
p7973
sS'PartOfSpeech'
p7974
S'VB'
p7975
sS'CharacterOffsetBegin'
p7976
S'2078'
p7977
stp7978
a(S'connected'
p7979
(dp7980
S'NamedEntityTag'
p7981
g98
sS'CharacterOffsetEnd'
p7982
S'2090'
p7983
sS'Lemma'
p7984
S'connect'
p7985
sS'PartOfSpeech'
p7986
S'VBN'
p7987
sS'CharacterOffsetBegin'
p7988
S'2081'
p7989
stp7990
a(S'with'
p7991
(dp7992
S'NamedEntityTag'
p7993
g98
sS'CharacterOffsetEnd'
p7994
S'2095'
p7995
sS'Lemma'
p7996
S'with'
p7997
sS'PartOfSpeech'
p7998
S'IN'
p7999
sS'CharacterOffsetBegin'
p8000
S'2091'
p8001
stp8002
a(S'the'
p8003
(dp8004
S'NamedEntityTag'
p8005
g98
sS'CharacterOffsetEnd'
p8006
S'2099'
p8007
sS'Lemma'
p8008
S'the'
p8009
sS'PartOfSpeech'
p8010
S'DT'
p8011
sS'CharacterOffsetBegin'
p8012
S'2096'
p8013
stp8014
a(S'robot'
p8015
(dp8016
S'NamedEntityTag'
p8017
g98
sS'CharacterOffsetEnd'
p8018
S'2105'
p8019
sS'Lemma'
p8020
S'robot'
p8021
sS'PartOfSpeech'
p8022
S'NN'
p8023
sS'CharacterOffsetBegin'
p8024
S'2100'
p8025
stp8026
a(S'arm'
p8027
(dp8028
S'NamedEntityTag'
p8029
g98
sS'CharacterOffsetEnd'
p8030
S'2109'
p8031
sS'Lemma'
p8032
S'arm'
p8033
sS'PartOfSpeech'
p8034
S'NN'
p8035
sS'CharacterOffsetBegin'
p8036
S'2106'
p8037
stp8038
a(g1427
(dp8039
S'NamedEntityTag'
p8040
g98
sS'CharacterOffsetEnd'
p8041
S'2110'
p8042
sS'Lemma'
p8043
g1427
sS'PartOfSpeech'
p8044
g1427
sS'CharacterOffsetBegin'
p8045
S'2109'
p8046
stp8047
a(S'two'
p8048
(dp8049
S'NormalizedNamedEntityTag'
p8050
S'2.0'
p8051
sS'Lemma'
p8052
S'two'
p8053
sS'CharacterOffsetEnd'
p8054
S'2114'
p8055
sS'PartOfSpeech'
p8056
S'CD'
p8057
sS'CharacterOffsetBegin'
p8058
S'2111'
p8059
sS'NamedEntityTag'
p8060
S'NUMBER'
p8061
stp8062
a(S'spacewalking'
p8063
(dp8064
S'NamedEntityTag'
p8065
g98
sS'CharacterOffsetEnd'
p8066
S'2127'
p8067
sS'Lemma'
p8068
S'spacewalk'
p8069
sS'PartOfSpeech'
p8070
S'VBG'
p8071
sS'CharacterOffsetBegin'
p8072
S'2115'
p8073
stp8074
a(S'astronauts'
p8075
(dp8076
S'NamedEntityTag'
p8077
g98
sS'CharacterOffsetEnd'
p8078
S'2138'
p8079
sS'Lemma'
p8080
S'astronaut'
p8081
sS'PartOfSpeech'
p8082
S'NNS'
p8083
sS'CharacterOffsetBegin'
p8084
S'2128'
p8085
stp8086
a(S'would'
p8087
(dp8088
S'NamedEntityTag'
p8089
g98
sS'CharacterOffsetEnd'
p8090
S'2144'
p8091
sS'Lemma'
p8092
S'would'
p8093
sS'PartOfSpeech'
p8094
S'MD'
p8095
sS'CharacterOffsetBegin'
p8096
S'2139'
p8097
stp8098
a(S'have'
p8099
(dp8100
S'NamedEntityTag'
p8101
g98
sS'CharacterOffsetEnd'
p8102
S'2149'
p8103
sS'Lemma'
p8104
S'have'
p8105
sS'PartOfSpeech'
p8106
S'VB'
p8107
sS'CharacterOffsetBegin'
p8108
S'2145'
p8109
stp8110
a(S'to'
p8111
(dp8112
S'NamedEntityTag'
p8113
g98
sS'CharacterOffsetEnd'
p8114
S'2152'
p8115
sS'Lemma'
p8116
S'to'
p8117
sS'PartOfSpeech'
p8118
S'TO'
p8119
sS'CharacterOffsetBegin'
p8120
S'2150'
p8121
stp8122
a(S'manually'
p8123
(dp8124
S'NamedEntityTag'
p8125
g98
sS'CharacterOffsetEnd'
p8126
S'2161'
p8127
sS'Lemma'
p8128
S'manually'
p8129
sS'PartOfSpeech'
p8130
S'RB'
p8131
sS'CharacterOffsetBegin'
p8132
S'2153'
p8133
stp8134
a(S'fit'
p8135
(dp8136
S'NamedEntityTag'
p8137
g98
sS'CharacterOffsetEnd'
p8138
S'2165'
p8139
sS'Lemma'
p8140
S'fit'
p8141
sS'PartOfSpeech'
p8142
S'VB'
p8143
sS'CharacterOffsetBegin'
p8144
S'2162'
p8145
stp8146
a(S'them'
p8147
(dp8148
S'NamedEntityTag'
p8149
g98
sS'CharacterOffsetEnd'
p8150
S'2170'
p8151
sS'Lemma'
p8152
S'they'
p8153
sS'PartOfSpeech'
p8154
S'PRP'
p8155
sS'CharacterOffsetBegin'
p8156
S'2166'
p8157
stp8158
a(S'together'
p8159
(dp8160
S'NamedEntityTag'
p8161
g98
sS'CharacterOffsetEnd'
p8162
S'2179'
p8163
sS'Lemma'
p8164
S'together'
p8165
sS'PartOfSpeech'
p8166
S'RB'
p8167
sS'CharacterOffsetBegin'
p8168
S'2171'
p8169
stp8170
a(g404
(dp8171
S'NamedEntityTag'
p8172
g98
sS'CharacterOffsetEnd'
p8173
S'2180'
p8174
sS'Lemma'
p8175
g404
sS'PartOfSpeech'
p8176
g404
sS'CharacterOffsetBegin'
p8177
S'2179'
p8178
stp8179
asa(dp8180
g15
S'(ROOT (S (NP (DT The) (NNS astronauts)) (VP (MD would) (VP (VP (VB be) (VP (VBG going) (PRT (RP out)) (ADVP (RB anyway)))) (VP (NP-TMP (NNP Monday)) (S (VP (TO to) (VP (VB attach) (NP (NP (JJ electrical) (NNS connectors) (CC and) (NNS cables)) (PP (IN between) (NP (DT the) (CD two) (NNS components)))))))))) (. .)))'
p8181
sg17
S'The astronauts would be going out anyway Monday to attach electrical connectors and cables between the two components.'
p8182
sg19
(lp8183
(S'root'
p8184
S'ROOT'
p8185
S'going'
p8186
tp8187
a(S'det'
p8188
S'astronauts'
p8189
S'The'
p8190
tp8191
a(S'nsubj'
p8192
S'going'
p8193
S'astronauts'
p8194
tp8195
a(S'aux'
p8196
S'going'
p8197
S'would'
p8198
tp8199
a(S'aux'
p8200
S'going'
p8201
S'be'
p8202
tp8203
a(S'prt'
p8204
S'going'
p8205
S'out'
p8206
tp8207
a(S'advmod'
p8208
S'going'
p8209
S'anyway'
p8210
tp8211
a(S'dep'
p8212
S'going'
p8213
S'Monday'
p8214
tp8215
a(S'aux'
p8216
S'attach'
p8217
S'to'
p8218
tp8219
a(S'xcomp'
p8220
S'Monday'
p8221
S'attach'
p8222
tp8223
a(S'amod'
p8224
S'connectors'
p8225
S'electrical'
p8226
tp8227
a(S'dobj'
p8228
S'attach'
p8229
S'connectors'
p8230
tp8231
a(S'conj_and'
p8232
S'connectors'
p8233
S'cables'
p8234
tp8235
a(S'det'
p8236
S'components'
p8237
S'the'
p8238
tp8239
a(S'num'
p8240
S'components'
p8241
S'two'
p8242
tp8243
a(S'prep_between'
p8244
S'connectors'
p8245
S'components'
p8246
tp8247
asg61
(lp8248
(g8184
S'ROOT-0'
p8249
S'going-5'
p8250
tp8251
a(g8188
S'astronauts-2'
p8252
S'The-1'
p8253
tp8254
a(g8192
S'going-5'
p8255
S'astronauts-2'
p8256
tp8257
a(g8196
S'going-5'
p8258
S'would-3'
p8259
tp8260
a(g8200
S'going-5'
p8261
S'be-4'
p8262
tp8263
a(g8204
S'going-5'
p8264
S'out-6'
p8265
tp8266
a(g8208
S'going-5'
p8267
S'anyway-7'
p8268
tp8269
a(g8212
S'going-5'
p8270
S'Monday-8'
p8271
tp8272
a(g8216
S'attach-10'
p8273
S'to-9'
p8274
tp8275
a(g8220
S'Monday-8'
p8276
S'attach-10'
p8277
tp8278
a(g8224
S'connectors-12'
p8279
S'electrical-11'
p8280
tp8281
a(g8228
S'attach-10'
p8282
S'connectors-12'
p8283
tp8284
a(g8232
S'connectors-12'
p8285
S'cables-14'
p8286
tp8287
a(g8236
S'components-18'
p8288
S'the-16'
p8289
tp8290
a(g8240
S'components-18'
p8291
S'two-17'
p8292
tp8293
a(g8244
S'connectors-12'
p8294
S'components-18'
p8295
tp8296
asg93
(lp8297
(S'The'
p8298
(dp8299
S'NamedEntityTag'
p8300
g98
sS'CharacterOffsetEnd'
p8301
S'2184'
p8302
sS'Lemma'
p8303
S'the'
p8304
sS'PartOfSpeech'
p8305
S'DT'
p8306
sS'CharacterOffsetBegin'
p8307
S'2181'
p8308
stp8309
a(S'astronauts'
p8310
(dp8311
S'NamedEntityTag'
p8312
g98
sS'CharacterOffsetEnd'
p8313
S'2195'
p8314
sS'Lemma'
p8315
S'astronaut'
p8316
sS'PartOfSpeech'
p8317
S'NNS'
p8318
sS'CharacterOffsetBegin'
p8319
S'2185'
p8320
stp8321
a(S'would'
p8322
(dp8323
S'NamedEntityTag'
p8324
g98
sS'CharacterOffsetEnd'
p8325
S'2201'
p8326
sS'Lemma'
p8327
S'would'
p8328
sS'PartOfSpeech'
p8329
S'MD'
p8330
sS'CharacterOffsetBegin'
p8331
S'2196'
p8332
stp8333
a(S'be'
p8334
(dp8335
S'NamedEntityTag'
p8336
g98
sS'CharacterOffsetEnd'
p8337
S'2204'
p8338
sS'Lemma'
p8339
S'be'
p8340
sS'PartOfSpeech'
p8341
S'VB'
p8342
sS'CharacterOffsetBegin'
p8343
S'2202'
p8344
stp8345
a(S'going'
p8346
(dp8347
S'NamedEntityTag'
p8348
g98
sS'CharacterOffsetEnd'
p8349
S'2210'
p8350
sS'Lemma'
p8351
S'go'
p8352
sS'PartOfSpeech'
p8353
S'VBG'
p8354
sS'CharacterOffsetBegin'
p8355
S'2205'
p8356
stp8357
a(S'out'
p8358
(dp8359
S'NamedEntityTag'
p8360
g98
sS'CharacterOffsetEnd'
p8361
S'2214'
p8362
sS'Lemma'
p8363
S'out'
p8364
sS'PartOfSpeech'
p8365
S'RP'
p8366
sS'CharacterOffsetBegin'
p8367
S'2211'
p8368
stp8369
a(S'anyway'
p8370
(dp8371
S'NamedEntityTag'
p8372
g98
sS'CharacterOffsetEnd'
p8373
S'2221'
p8374
sS'Lemma'
p8375
S'anyway'
p8376
sS'PartOfSpeech'
p8377
S'RB'
p8378
sS'CharacterOffsetBegin'
p8379
S'2215'
p8380
stp8381
a(S'Monday'
p8382
(dp8383
S'NormalizedNamedEntityTag'
p8384
S'XXXX-WXX-1'
p8385
sS'Timex'
p8386
S'<TIMEX3 tid="t12" type="DATE" value="XXXX-WXX-1">Monday</TIMEX3>'
p8387
sS'Lemma'
p8388
S'Monday'
p8389
sS'CharacterOffsetEnd'
p8390
S'2228'
p8391
sS'PartOfSpeech'
p8392
S'NNP'
p8393
sS'CharacterOffsetBegin'
p8394
S'2222'
p8395
sS'NamedEntityTag'
p8396
S'DATE'
p8397
stp8398
a(S'to'
p8399
(dp8400
S'NamedEntityTag'
p8401
g98
sS'CharacterOffsetEnd'
p8402
S'2231'
p8403
sS'Lemma'
p8404
S'to'
p8405
sS'PartOfSpeech'
p8406
S'TO'
p8407
sS'CharacterOffsetBegin'
p8408
S'2229'
p8409
stp8410
a(S'attach'
p8411
(dp8412
S'NamedEntityTag'
p8413
g98
sS'CharacterOffsetEnd'
p8414
S'2238'
p8415
sS'Lemma'
p8416
S'attach'
p8417
sS'PartOfSpeech'
p8418
S'VB'
p8419
sS'CharacterOffsetBegin'
p8420
S'2232'
p8421
stp8422
a(S'electrical'
p8423
(dp8424
S'NamedEntityTag'
p8425
g98
sS'CharacterOffsetEnd'
p8426
S'2249'
p8427
sS'Lemma'
p8428
S'electrical'
p8429
sS'PartOfSpeech'
p8430
S'JJ'
p8431
sS'CharacterOffsetBegin'
p8432
S'2239'
p8433
stp8434
a(S'connectors'
p8435
(dp8436
S'NamedEntityTag'
p8437
g98
sS'CharacterOffsetEnd'
p8438
S'2260'
p8439
sS'Lemma'
p8440
S'connector'
p8441
sS'PartOfSpeech'
p8442
S'NNS'
p8443
sS'CharacterOffsetBegin'
p8444
S'2250'
p8445
stp8446
a(S'and'
p8447
(dp8448
S'NamedEntityTag'
p8449
g98
sS'CharacterOffsetEnd'
p8450
S'2264'
p8451
sS'Lemma'
p8452
S'and'
p8453
sS'PartOfSpeech'
p8454
S'CC'
p8455
sS'CharacterOffsetBegin'
p8456
S'2261'
p8457
stp8458
a(S'cables'
p8459
(dp8460
S'NamedEntityTag'
p8461
g98
sS'CharacterOffsetEnd'
p8462
S'2271'
p8463
sS'Lemma'
p8464
S'cable'
p8465
sS'PartOfSpeech'
p8466
S'NNS'
p8467
sS'CharacterOffsetBegin'
p8468
S'2265'
p8469
stp8470
a(S'between'
p8471
(dp8472
S'NamedEntityTag'
p8473
g98
sS'CharacterOffsetEnd'
p8474
S'2279'
p8475
sS'Lemma'
p8476
S'between'
p8477
sS'PartOfSpeech'
p8478
S'IN'
p8479
sS'CharacterOffsetBegin'
p8480
S'2272'
p8481
stp8482
a(S'the'
p8483
(dp8484
S'NamedEntityTag'
p8485
g98
sS'CharacterOffsetEnd'
p8486
S'2283'
p8487
sS'Lemma'
p8488
S'the'
p8489
sS'PartOfSpeech'
p8490
S'DT'
p8491
sS'CharacterOffsetBegin'
p8492
S'2280'
p8493
stp8494
a(S'two'
p8495
(dp8496
S'NormalizedNamedEntityTag'
p8497
S'2.0'
p8498
sS'Lemma'
p8499
S'two'
p8500
sS'CharacterOffsetEnd'
p8501
S'2287'
p8502
sS'PartOfSpeech'
p8503
S'CD'
p8504
sS'CharacterOffsetBegin'
p8505
S'2284'
p8506
sS'NamedEntityTag'
p8507
S'NUMBER'
p8508
stp8509
a(S'components'
p8510
(dp8511
S'NamedEntityTag'
p8512
g98
sS'CharacterOffsetEnd'
p8513
S'2298'
p8514
sS'Lemma'
p8515
S'component'
p8516
sS'PartOfSpeech'
p8517
S'NNS'
p8518
sS'CharacterOffsetBegin'
p8519
S'2288'
p8520
stp8521
a(g404
(dp8522
S'NamedEntityTag'
p8523
g98
sS'CharacterOffsetEnd'
p8524
S'2299'
p8525
sS'Lemma'
p8526
g404
sS'PartOfSpeech'
p8527
g404
sS'CharacterOffsetBegin'
p8528
S'2298'
p8529
stp8530
asa(dp8531
g15
S'(ROOT (S (PP (IN In) (NP (DT all))) (, ,) (NP (CD three) (NNS spacewalks)) (VP (VBD were) (VP (VBN planned) (PP (IN for) (NP (NNP Endeavours) (JJ 12-day) (NN flight))))) (. .)))'
p8532
sg17
S'In all, three spacewalks were planned for Endeavours 12-day flight.'
p8533
sg19
(lp8534
(S'root'
p8535
S'ROOT'
p8536
S'planned'
p8537
tp8538
a(S'prep_in'
p8539
S'planned'
p8540
S'all'
p8541
tp8542
a(S'num'
p8543
S'spacewalks'
p8544
S'three'
p8545
tp8546
a(S'nsubjpass'
p8547
S'planned'
p8548
S'spacewalks'
p8549
tp8550
a(S'auxpass'
p8551
S'planned'
p8552
S'were'
p8553
tp8554
a(S'nn'
p8555
S'flight'
p8556
S'Endeavours'
p8557
tp8558
a(S'amod'
p8559
S'flight'
p8560
S'12-day'
p8561
tp8562
a(S'prep_for'
p8563
S'planned'
p8564
S'flight'
p8565
tp8566
asg61
(lp8567
(g8535
S'ROOT-0'
p8568
S'planned-7'
p8569
tp8570
a(g8539
S'planned-7'
p8571
S'all-2'
p8572
tp8573
a(g8543
S'spacewalks-5'
p8574
S'three-4'
p8575
tp8576
a(g8547
S'planned-7'
p8577
S'spacewalks-5'
p8578
tp8579
a(g8551
S'planned-7'
p8580
S'were-6'
p8581
tp8582
a(g8555
S'flight-11'
p8583
S'Endeavours-9'
p8584
tp8585
a(g8559
S'flight-11'
p8586
S'12-day-10'
p8587
tp8588
a(g8563
S'planned-7'
p8589
S'flight-11'
p8590
tp8591
asg93
(lp8592
(S'In'
p8593
(dp8594
S'NamedEntityTag'
p8595
g98
sS'CharacterOffsetEnd'
p8596
S'2302'
p8597
sS'Lemma'
p8598
S'in'
p8599
sS'PartOfSpeech'
p8600
S'IN'
p8601
sS'CharacterOffsetBegin'
p8602
S'2300'
p8603
stp8604
a(S'all'
p8605
(dp8606
S'NamedEntityTag'
p8607
g98
sS'CharacterOffsetEnd'
p8608
S'2306'
p8609
sS'Lemma'
p8610
S'all'
p8611
sS'PartOfSpeech'
p8612
S'DT'
p8613
sS'CharacterOffsetBegin'
p8614
S'2303'
p8615
stp8616
a(g1427
(dp8617
S'NamedEntityTag'
p8618
g98
sS'CharacterOffsetEnd'
p8619
S'2307'
p8620
sS'Lemma'
p8621
g1427
sS'PartOfSpeech'
p8622
g1427
sS'CharacterOffsetBegin'
p8623
S'2306'
p8624
stp8625
a(S'three'
p8626
(dp8627
S'NormalizedNamedEntityTag'
p8628
S'3.0'
p8629
sS'Lemma'
p8630
S'three'
p8631
sS'CharacterOffsetEnd'
p8632
S'2313'
p8633
sS'PartOfSpeech'
p8634
S'CD'
p8635
sS'CharacterOffsetBegin'
p8636
S'2308'
p8637
sS'NamedEntityTag'
p8638
S'NUMBER'
p8639
stp8640
a(S'spacewalks'
p8641
(dp8642
S'NamedEntityTag'
p8643
g98
sS'CharacterOffsetEnd'
p8644
S'2324'
p8645
sS'Lemma'
p8646
S'spacewalk'
p8647
sS'PartOfSpeech'
p8648
S'NNS'
p8649
sS'CharacterOffsetBegin'
p8650
S'2314'
p8651
stp8652
a(S'were'
p8653
(dp8654
S'NamedEntityTag'
p8655
g98
sS'CharacterOffsetEnd'
p8656
S'2329'
p8657
sS'Lemma'
p8658
S'be'
p8659
sS'PartOfSpeech'
p8660
S'VBD'
p8661
sS'CharacterOffsetBegin'
p8662
S'2325'
p8663
stp8664
a(S'planned'
p8665
(dp8666
S'NamedEntityTag'
p8667
g98
sS'CharacterOffsetEnd'
p8668
S'2337'
p8669
sS'Lemma'
p8670
S'plan'
p8671
sS'PartOfSpeech'
p8672
S'VBN'
p8673
sS'CharacterOffsetBegin'
p8674
S'2330'
p8675
stp8676
a(S'for'
p8677
(dp8678
S'NamedEntityTag'
p8679
g98
sS'CharacterOffsetEnd'
p8680
S'2341'
p8681
sS'Lemma'
p8682
S'for'
p8683
sS'PartOfSpeech'
p8684
S'IN'
p8685
sS'CharacterOffsetBegin'
p8686
S'2338'
p8687
stp8688
a(S'Endeavours'
p8689
(dp8690
S'NamedEntityTag'
p8691
g98
sS'CharacterOffsetEnd'
p8692
S'2352'
p8693
sS'Lemma'
p8694
S'Endeavours'
p8695
sS'PartOfSpeech'
p8696
S'NNP'
p8697
sS'CharacterOffsetBegin'
p8698
S'2342'
p8699
stp8700
a(S'12-day'
p8701
(dp8702
S'NormalizedNamedEntityTag'
p8703
S'P12D'
p8704
sS'Timex'
p8705
S'<TIMEX3 tid="t13" type="DURATION" value="P12D">12-day</TIMEX3>'
p8706
sS'Lemma'
p8707
S'12-day'
p8708
sS'CharacterOffsetEnd'
p8709
S'2359'
p8710
sS'PartOfSpeech'
p8711
S'JJ'
p8712
sS'CharacterOffsetBegin'
p8713
S'2353'
p8714
sS'NamedEntityTag'
p8715
S'DURATION'
p8716
stp8717
a(S'flight'
p8718
(dp8719
S'NamedEntityTag'
p8720
g98
sS'CharacterOffsetEnd'
p8721
S'2366'
p8722
sS'Lemma'
p8723
S'flight'
p8724
sS'PartOfSpeech'
p8725
S'NN'
p8726
sS'CharacterOffsetBegin'
p8727
S'2360'
p8728
stp8729
a(g404
(dp8730
S'NamedEntityTag'
p8731
g98
sS'CharacterOffsetEnd'
p8732
S'2367'
p8733
sS'Lemma'
p8734
g404
sS'PartOfSpeech'
p8735
g404
sS'CharacterOffsetBegin'
p8736
S'2366'
p8737
stp8738
asa(dp8739
g15
S'(ROOT (S (NP (NNP NASA)) (VP (VBZ estimates) (SBAR (S (NP (NP (CD 43) (JJR more) (NNS launches)) (CC and) (NP (QP (CD 159) (JJR more)) (NNS spacewalks))) (VP (MD will) (VP (VB be) (VP (VBN needed) (PP (IN after) (NP (DT this) (NN mission))) (S (VP (TO to) (VP (VB assemble) (NP (DT the) (JJ entire) (VBG orbiting) (NN complex))))))))))) (. .)))'
p8740
sg17
S'NASA estimates 43 more launches and 159 more spacewalks will be needed after this mission to assemble the entire orbiting complex.'
p8741
sg19
(lp8742
(S'root'
p8743
S'ROOT'
p8744
S'estimates'
p8745
tp8746
a(S'nsubj'
p8747
S'estimates'
p8748
S'NASA'
p8749
tp8750
a(S'num'
p8751
S'launches'
p8752
S'43'
p8753
tp8754
a(S'amod'
p8755
S'launches'
p8756
S'more'
p8757
tp8758
a(S'nsubjpass'
p8759
S'needed'
p8760
S'launches'
p8761
tp8762
a(S'num'
p8763
S'spacewalks'
p8764
S'159'
p8765
tp8766
a(S'quantmod'
p8767
S'159'
p8768
S'more'
p8769
tp8770
a(S'conj_and'
p8771
S'launches'
p8772
S'spacewalks'
p8773
tp8774
a(S'aux'
p8775
S'needed'
p8776
S'will'
p8777
tp8778
a(S'auxpass'
p8779
S'needed'
p8780
S'be'
p8781
tp8782
a(S'ccomp'
p8783
S'estimates'
p8784
S'needed'
p8785
tp8786
a(S'det'
p8787
S'mission'
p8788
S'this'
p8789
tp8790
a(S'prep_after'
p8791
S'needed'
p8792
S'mission'
p8793
tp8794
a(S'aux'
p8795
S'assemble'
p8796
S'to'
p8797
tp8798
a(S'xcomp'
p8799
S'needed'
p8800
S'assemble'
p8801
tp8802
a(S'det'
p8803
S'complex'
p8804
S'the'
p8805
tp8806
a(S'amod'
p8807
S'complex'
p8808
S'entire'
p8809
tp8810
a(S'amod'
p8811
S'complex'
p8812
S'orbiting'
p8813
tp8814
a(S'dobj'
p8815
S'assemble'
p8816
S'complex'
p8817
tp8818
asg61
(lp8819
(g8743
S'ROOT-0'
p8820
S'estimates-2'
p8821
tp8822
a(g8747
S'estimates-2'
p8823
S'NASA-1'
p8824
tp8825
a(g8751
S'launches-5'
p8826
S'43-3'
p8827
tp8828
a(g8755
S'launches-5'
p8829
S'more-4'
p8830
tp8831
a(g8759
S'needed-12'
p8832
S'launches-5'
p8833
tp8834
a(g8763
S'spacewalks-9'
p8835
S'159-7'
p8836
tp8837
a(g8767
S'159-7'
p8838
S'more-8'
p8839
tp8840
a(g8771
S'launches-5'
p8841
S'spacewalks-9'
p8842
tp8843
a(g8775
S'needed-12'
p8844
S'will-10'
p8845
tp8846
a(g8779
S'needed-12'
p8847
S'be-11'
p8848
tp8849
a(g8783
S'estimates-2'
p8850
S'needed-12'
p8851
tp8852
a(g8787
S'mission-15'
p8853
S'this-14'
p8854
tp8855
a(g8791
S'needed-12'
p8856
S'mission-15'
p8857
tp8858
a(g8795
S'assemble-17'
p8859
S'to-16'
p8860
tp8861
a(g8799
S'needed-12'
p8862
S'assemble-17'
p8863
tp8864
a(g8803
S'complex-21'
p8865
S'the-18'
p8866
tp8867
a(g8807
S'complex-21'
p8868
S'entire-19'
p8869
tp8870
a(g8811
S'complex-21'
p8871
S'orbiting-20'
p8872
tp8873
a(g8815
S'assemble-17'
p8874
S'complex-21'
p8875
tp8876
asg93
(lp8877
(S'NASA'
p8878
(dp8879
S'NamedEntityTag'
p8880
S'ORGANIZATION'
p8881
sS'CharacterOffsetEnd'
p8882
S'2372'
p8883
sS'Lemma'
p8884
S'NASA'
p8885
sS'PartOfSpeech'
p8886
S'NNP'
p8887
sS'CharacterOffsetBegin'
p8888
S'2368'
p8889
stp8890
a(S'estimates'
p8891
(dp8892
S'NamedEntityTag'
p8893
g98
sS'CharacterOffsetEnd'
p8894
S'2382'
p8895
sS'Lemma'
p8896
S'estimate'
p8897
sS'PartOfSpeech'
p8898
S'VBZ'
p8899
sS'CharacterOffsetBegin'
p8900
S'2373'
p8901
stp8902
a(S'43'
p8903
(dp8904
S'NormalizedNamedEntityTag'
p8905
S'43.0'
p8906
sS'Lemma'
p8907
S'43'
p8908
sS'CharacterOffsetEnd'
p8909
S'2385'
p8910
sS'PartOfSpeech'
p8911
S'CD'
p8912
sS'CharacterOffsetBegin'
p8913
S'2383'
p8914
sS'NamedEntityTag'
p8915
S'NUMBER'
p8916
stp8917
a(S'more'
p8918
(dp8919
S'NamedEntityTag'
p8920
g98
sS'CharacterOffsetEnd'
p8921
S'2390'
p8922
sS'Lemma'
p8923
S'more'
p8924
sS'PartOfSpeech'
p8925
S'JJR'
p8926
sS'CharacterOffsetBegin'
p8927
S'2386'
p8928
stp8929
a(S'launches'
p8930
(dp8931
S'NamedEntityTag'
p8932
g98
sS'CharacterOffsetEnd'
p8933
S'2399'
p8934
sS'Lemma'
p8935
S'launch'
p8936
sS'PartOfSpeech'
p8937
S'NNS'
p8938
sS'CharacterOffsetBegin'
p8939
S'2391'
p8940
stp8941
a(S'and'
p8942
(dp8943
S'NamedEntityTag'
p8944
g98
sS'CharacterOffsetEnd'
p8945
S'2403'
p8946
sS'Lemma'
p8947
S'and'
p8948
sS'PartOfSpeech'
p8949
S'CC'
p8950
sS'CharacterOffsetBegin'
p8951
S'2400'
p8952
stp8953
a(S'159'
p8954
(dp8955
S'NormalizedNamedEntityTag'
p8956
S'159.0'
p8957
sS'Lemma'
p8958
S'159'
p8959
sS'CharacterOffsetEnd'
p8960
S'2407'
p8961
sS'PartOfSpeech'
p8962
S'CD'
p8963
sS'CharacterOffsetBegin'
p8964
S'2404'
p8965
sS'NamedEntityTag'
p8966
S'NUMBER'
p8967
stp8968
a(S'more'
p8969
(dp8970
S'NamedEntityTag'
p8971
g98
sS'CharacterOffsetEnd'
p8972
S'2412'
p8973
sS'Lemma'
p8974
S'more'
p8975
sS'PartOfSpeech'
p8976
S'JJR'
p8977
sS'CharacterOffsetBegin'
p8978
S'2408'
p8979
stp8980
a(S'spacewalks'
p8981
(dp8982
S'NamedEntityTag'
p8983
g98
sS'CharacterOffsetEnd'
p8984
S'2423'
p8985
sS'Lemma'
p8986
S'spacewalk'
p8987
sS'PartOfSpeech'
p8988
S'NNS'
p8989
sS'CharacterOffsetBegin'
p8990
S'2413'
p8991
stp8992
a(S'will'
p8993
(dp8994
S'NamedEntityTag'
p8995
g98
sS'CharacterOffsetEnd'
p8996
S'2428'
p8997
sS'Lemma'
p8998
S'will'
p8999
sS'PartOfSpeech'
p9000
S'MD'
p9001
sS'CharacterOffsetBegin'
p9002
S'2424'
p9003
stp9004
a(S'be'
p9005
(dp9006
S'NamedEntityTag'
p9007
g98
sS'CharacterOffsetEnd'
p9008
S'2431'
p9009
sS'Lemma'
p9010
S'be'
p9011
sS'PartOfSpeech'
p9012
S'VB'
p9013
sS'CharacterOffsetBegin'
p9014
S'2429'
p9015
stp9016
a(S'needed'
p9017
(dp9018
S'NamedEntityTag'
p9019
g98
sS'CharacterOffsetEnd'
p9020
S'2438'
p9021
sS'Lemma'
p9022
S'need'
p9023
sS'PartOfSpeech'
p9024
S'VBN'
p9025
sS'CharacterOffsetBegin'
p9026
S'2432'
p9027
stp9028
a(S'after'
p9029
(dp9030
S'NamedEntityTag'
p9031
g98
sS'CharacterOffsetEnd'
p9032
S'2444'
p9033
sS'Lemma'
p9034
S'after'
p9035
sS'PartOfSpeech'
p9036
S'IN'
p9037
sS'CharacterOffsetBegin'
p9038
S'2439'
p9039
stp9040
a(S'this'
p9041
(dp9042
S'NamedEntityTag'
p9043
g98
sS'CharacterOffsetEnd'
p9044
S'2449'
p9045
sS'Lemma'
p9046
S'this'
p9047
sS'PartOfSpeech'
p9048
S'DT'
p9049
sS'CharacterOffsetBegin'
p9050
S'2445'
p9051
stp9052
a(S'mission'
p9053
(dp9054
S'NamedEntityTag'
p9055
g98
sS'CharacterOffsetEnd'
p9056
S'2457'
p9057
sS'Lemma'
p9058
S'mission'
p9059
sS'PartOfSpeech'
p9060
S'NN'
p9061
sS'CharacterOffsetBegin'
p9062
S'2450'
p9063
stp9064
a(S'to'
p9065
(dp9066
S'NamedEntityTag'
p9067
g98
sS'CharacterOffsetEnd'
p9068
S'2460'
p9069
sS'Lemma'
p9070
S'to'
p9071
sS'PartOfSpeech'
p9072
S'TO'
p9073
sS'CharacterOffsetBegin'
p9074
S'2458'
p9075
stp9076
a(S'assemble'
p9077
(dp9078
S'NamedEntityTag'
p9079
g98
sS'CharacterOffsetEnd'
p9080
S'2469'
p9081
sS'Lemma'
p9082
S'assemble'
p9083
sS'PartOfSpeech'
p9084
S'VB'
p9085
sS'CharacterOffsetBegin'
p9086
S'2461'
p9087
stp9088
a(S'the'
p9089
(dp9090
S'NamedEntityTag'
p9091
g98
sS'CharacterOffsetEnd'
p9092
S'2473'
p9093
sS'Lemma'
p9094
S'the'
p9095
sS'PartOfSpeech'
p9096
S'DT'
p9097
sS'CharacterOffsetBegin'
p9098
S'2470'
p9099
stp9100
a(S'entire'
p9101
(dp9102
S'NamedEntityTag'
p9103
g98
sS'CharacterOffsetEnd'
p9104
S'2480'
p9105
sS'Lemma'
p9106
S'entire'
p9107
sS'PartOfSpeech'
p9108
S'JJ'
p9109
sS'CharacterOffsetBegin'
p9110
S'2474'
p9111
stp9112
a(S'orbiting'
p9113
(dp9114
S'NamedEntityTag'
p9115
g98
sS'CharacterOffsetEnd'
p9116
S'2489'
p9117
sS'Lemma'
p9118
S'orbit'
p9119
sS'PartOfSpeech'
p9120
S'VBG'
p9121
sS'CharacterOffsetBegin'
p9122
S'2481'
p9123
stp9124
a(S'complex'
p9125
(dp9126
S'NamedEntityTag'
p9127
g98
sS'CharacterOffsetEnd'
p9128
S'2497'
p9129
sS'Lemma'
p9130
S'complex'
p9131
sS'PartOfSpeech'
p9132
S'NN'
p9133
sS'CharacterOffsetBegin'
p9134
S'2490'
p9135
stp9136
a(g404
(dp9137
S'NamedEntityTag'
p9138
g98
sS'CharacterOffsetEnd'
p9139
S'2498'
p9140
sS'Lemma'
p9141
g404
sS'PartOfSpeech'
p9142
g404
sS'CharacterOffsetBegin'
p9143
S'2497'
p9144
stp9145
asa(dp9146
g15
S'(ROOT (S (SBAR (RB Once) (S (VP (VBN completed)))) (, ,) (NP (DT the) (JJ 16-nation) (NN space) (NN station)) (VP (MD will) (VP (VB have) (NP (NP (DT a) (NN mass)) (PP (IN of) (NP (QP (CD 1) (CD million)) (NNS pounds))))) (, ,) (VP (VB be) (ADJP (ADJP (JJR longer)) (PP (PP (IN than) (NP (DT a) (NN football) (NN field))) (, ,) (CC and) (ADVP (NP (NN house)) (IN up)) (PP (TO to) (NP (NP (CD seven) (NNS astronauts)) (CC and) (NP (NNS cosmonauts)))))))) (. .)))'
p9147
sg17
S'Once completed, the 16-nation space station will have a mass of 1 million pounds, be longer than a football field, and house up to seven astronauts and cosmonauts.'
p9148
sg19
(lp9149
(S'root'
p9150
S'ROOT'
p9151
S'have'
p9152
tp9153
a(S'advmod'
p9154
S'completed'
p9155
S'Once'
p9156
tp9157
a(S'advcl'
p9158
S'have'
p9159
S'completed'
p9160
tp9161
a(S'det'
p9162
S'station'
p9163
S'the'
p9164
tp9165
a(S'amod'
p9166
S'station'
p9167
S'16-nation'
p9168
tp9169
a(S'nn'
p9170
S'station'
p9171
S'space'
p9172
tp9173
a(S'nsubj'
p9174
S'have'
p9175
S'station'
p9176
tp9177
a(S'aux'
p9178
S'have'
p9179
S'will'
p9180
tp9181
a(S'det'
p9182
S'mass'
p9183
g2528
tp9184
a(S'dobj'
p9185
S'have'
p9186
S'mass'
p9187
tp9188
a(S'number'
p9189
S'million'
p9190
g106
tp9191
a(S'num'
p9192
S'pounds'
p9193
S'million'
p9194
tp9195
a(S'prep_of'
p9196
S'mass'
p9197
S'pounds'
p9198
tp9199
a(S'cop'
p9200
S'longer'
p9201
S'be'
p9202
tp9203
a(S'dep'
p9204
S'have'
p9205
S'longer'
p9206
tp9207
a(S'conj_and'
p9208
S'longer'
p9209
S'longer'
p9210
tp9211
a(S'conj_and'
p9212
S'longer'
p9213
S'longer'
p9214
tp9215
a(S'det'
p9216
S'field'
p9217
g2528
tp9218
a(S'nn'
p9219
S'field'
p9220
S'football'
p9221
tp9222
a(S'prep_than'
p9223
S'longer'
p9224
S'field'
p9225
tp9226
a(S'prep_up'
p9227
S'longer'
p9228
S'field'
p9229
tp9230
a(S'npadvmod'
p9231
S'longer'
p9232
S'house'
p9233
tp9234
a(S'num'
p9235
S'astronauts'
p9236
S'seven'
p9237
tp9238
a(S'prep_to'
p9239
S'longer'
p9240
S'astronauts'
p9241
tp9242
a(S'conj_and'
p9243
S'astronauts'
p9244
S'cosmonauts'
p9245
tp9246
asg61
(lp9247
(g9150
S'ROOT-0'
p9248
S'have-9'
p9249
tp9250
a(g9154
S'completed-2'
p9251
S'Once-1'
p9252
tp9253
a(g9158
S'have-9'
p9254
S'completed-2'
p9255
tp9256
a(g9162
S'station-7'
p9257
S'the-4'
p9258
tp9259
a(g9166
S'station-7'
p9260
S'16-nation-5'
p9261
tp9262
a(g9170
S'station-7'
p9263
S'space-6'
p9264
tp9265
a(g9174
S'have-9'
p9266
S'station-7'
p9267
tp9268
a(g9178
S'have-9'
p9269
S'will-8'
p9270
tp9271
a(g9182
S'mass-11'
p9272
S'a-10'
p9273
tp9274
a(g9185
S'have-9'
p9275
S'mass-11'
p9276
tp9277
a(g9189
S'million-14'
p9278
S'1-13'
p9279
tp9280
a(g9192
S'pounds-15'
p9281
S'million-14'
p9282
tp9283
a(g9196
S'mass-11'
p9284
S'pounds-15'
p9285
tp9286
a(g9200
S'longer-18'
p9287
S'be-17'
p9288
tp9289
a(g9204
S'have-9'
p9290
S'longer-18'
p9291
tp9292
a(g9208
S'longer-18'
p9293
S'longer-18'
p9294
tp9295
a(g9212
S'longer-18'
p9296
S'longer-18'
p9297
tp9298
a(g9216
S'field-22'
p9299
S'a-20'
p9300
tp9301
a(g9219
S'field-22'
p9302
S'football-21'
p9303
tp9304
a(g9223
S'longer-18'
p9305
S'field-22'
p9306
tp9307
a(g9227
S'longer-18'
p9308
S'field-22'
p9309
tp9310
a(g9231
S'longer-18'
p9311
S'house-25'
p9312
tp9313
a(g9235
S'astronauts-29'
p9314
S'seven-28'
p9315
tp9316
a(g9239
S'longer-18'
p9317
S'astronauts-29'
p9318
tp9319
a(g9243
S'astronauts-29'
p9320
S'cosmonauts-31'
p9321
tp9322
asg93
(lp9323
(S'Once'
p9324
(dp9325
S'NormalizedNamedEntityTag'
p9326
S'PAST_REF'
p9327
sS'Timex'
p9328
S'<TIMEX3 tid="t14" type="DATE" value="PAST_REF">Once</TIMEX3>'
p9329
sS'Lemma'
p9330
S'once'
p9331
sS'CharacterOffsetEnd'
p9332
S'2503'
p9333
sS'PartOfSpeech'
p9334
S'RB'
p9335
sS'CharacterOffsetBegin'
p9336
S'2499'
p9337
sS'NamedEntityTag'
p9338
S'DATE'
p9339
stp9340
a(S'completed'
p9341
(dp9342
S'NamedEntityTag'
p9343
g98
sS'CharacterOffsetEnd'
p9344
S'2513'
p9345
sS'Lemma'
p9346
S'complete'
p9347
sS'PartOfSpeech'
p9348
S'VBN'
p9349
sS'CharacterOffsetBegin'
p9350
S'2504'
p9351
stp9352
a(g1427
(dp9353
S'NamedEntityTag'
p9354
g98
sS'CharacterOffsetEnd'
p9355
S'2514'
p9356
sS'Lemma'
p9357
g1427
sS'PartOfSpeech'
p9358
g1427
sS'CharacterOffsetBegin'
p9359
S'2513'
p9360
stp9361
a(S'the'
p9362
(dp9363
S'NamedEntityTag'
p9364
g98
sS'CharacterOffsetEnd'
p9365
S'2518'
p9366
sS'Lemma'
p9367
S'the'
p9368
sS'PartOfSpeech'
p9369
S'DT'
p9370
sS'CharacterOffsetBegin'
p9371
S'2515'
p9372
stp9373
a(S'16-nation'
p9374
(dp9375
S'NamedEntityTag'
p9376
g98
sS'CharacterOffsetEnd'
p9377
S'2528'
p9378
sS'Lemma'
p9379
S'16-nation'
p9380
sS'PartOfSpeech'
p9381
S'JJ'
p9382
sS'CharacterOffsetBegin'
p9383
S'2519'
p9384
stp9385
a(S'space'
p9386
(dp9387
S'NamedEntityTag'
p9388
g98
sS'CharacterOffsetEnd'
p9389
S'2534'
p9390
sS'Lemma'
p9391
S'space'
p9392
sS'PartOfSpeech'
p9393
S'NN'
p9394
sS'CharacterOffsetBegin'
p9395
S'2529'
p9396
stp9397
a(S'station'
p9398
(dp9399
S'NamedEntityTag'
p9400
g98
sS'CharacterOffsetEnd'
p9401
S'2542'
p9402
sS'Lemma'
p9403
S'station'
p9404
sS'PartOfSpeech'
p9405
S'NN'
p9406
sS'CharacterOffsetBegin'
p9407
S'2535'
p9408
stp9409
a(S'will'
p9410
(dp9411
S'NamedEntityTag'
p9412
g98
sS'CharacterOffsetEnd'
p9413
S'2547'
p9414
sS'Lemma'
p9415
S'will'
p9416
sS'PartOfSpeech'
p9417
S'MD'
p9418
sS'CharacterOffsetBegin'
p9419
S'2543'
p9420
stp9421
a(S'have'
p9422
(dp9423
S'NamedEntityTag'
p9424
g98
sS'CharacterOffsetEnd'
p9425
S'2552'
p9426
sS'Lemma'
p9427
S'have'
p9428
sS'PartOfSpeech'
p9429
S'VB'
p9430
sS'CharacterOffsetBegin'
p9431
S'2548'
p9432
stp9433
a(g2528
(dp9434
S'NamedEntityTag'
p9435
g98
sS'CharacterOffsetEnd'
p9436
S'2554'
p9437
sS'Lemma'
p9438
g2528
sS'PartOfSpeech'
p9439
S'DT'
p9440
sS'CharacterOffsetBegin'
p9441
S'2553'
p9442
stp9443
a(S'mass'
p9444
(dp9445
S'NamedEntityTag'
p9446
g98
sS'CharacterOffsetEnd'
p9447
S'2559'
p9448
sS'Lemma'
p9449
S'mass'
p9450
sS'PartOfSpeech'
p9451
S'NN'
p9452
sS'CharacterOffsetBegin'
p9453
S'2555'
p9454
stp9455
a(S'of'
p9456
(dp9457
S'NamedEntityTag'
p9458
g98
sS'CharacterOffsetEnd'
p9459
S'2562'
p9460
sS'Lemma'
p9461
S'of'
p9462
sS'PartOfSpeech'
p9463
S'IN'
p9464
sS'CharacterOffsetBegin'
p9465
S'2560'
p9466
stp9467
a(g106
(dp9468
S'NormalizedNamedEntityTag'
p9469
S'PS1000000.0'
p9470
sS'Lemma'
p9471
g106
sS'CharacterOffsetEnd'
p9472
S'2564'
p9473
sS'PartOfSpeech'
p9474
S'CD'
p9475
sS'CharacterOffsetBegin'
p9476
S'2563'
p9477
sS'NamedEntityTag'
p9478
S'MONEY'
p9479
stp9480
a(S'million'
p9481
(dp9482
S'NormalizedNamedEntityTag'
p9483
S'PS1000000.0'
p9484
sS'Lemma'
p9485
S'million'
p9486
sS'CharacterOffsetEnd'
p9487
S'2572'
p9488
sS'PartOfSpeech'
p9489
S'CD'
p9490
sS'CharacterOffsetBegin'
p9491
S'2565'
p9492
sS'NamedEntityTag'
p9493
S'MONEY'
p9494
stp9495
a(S'pounds'
p9496
(dp9497
S'NormalizedNamedEntityTag'
p9498
S'PS1000000.0'
p9499
sS'Lemma'
p9500
S'pound'
p9501
sS'CharacterOffsetEnd'
p9502
S'2579'
p9503
sS'PartOfSpeech'
p9504
S'NNS'
p9505
sS'CharacterOffsetBegin'
p9506
S'2573'
p9507
sS'NamedEntityTag'
p9508
S'MONEY'
p9509
stp9510
a(g1427
(dp9511
S'NamedEntityTag'
p9512
g98
sS'CharacterOffsetEnd'
p9513
S'2580'
p9514
sS'Lemma'
p9515
g1427
sS'PartOfSpeech'
p9516
g1427
sS'CharacterOffsetBegin'
p9517
S'2579'
p9518
stp9519
a(S'be'
p9520
(dp9521
S'NamedEntityTag'
p9522
g98
sS'CharacterOffsetEnd'
p9523
S'2583'
p9524
sS'Lemma'
p9525
S'be'
p9526
sS'PartOfSpeech'
p9527
S'VB'
p9528
sS'CharacterOffsetBegin'
p9529
S'2581'
p9530
stp9531
a(S'longer'
p9532
(dp9533
S'NamedEntityTag'
p9534
g98
sS'CharacterOffsetEnd'
p9535
S'2590'
p9536
sS'Lemma'
p9537
S'longer'
p9538
sS'PartOfSpeech'
p9539
S'JJR'
p9540
sS'CharacterOffsetBegin'
p9541
S'2584'
p9542
stp9543
a(S'than'
p9544
(dp9545
S'NamedEntityTag'
p9546
g98
sS'CharacterOffsetEnd'
p9547
S'2595'
p9548
sS'Lemma'
p9549
S'than'
p9550
sS'PartOfSpeech'
p9551
S'IN'
p9552
sS'CharacterOffsetBegin'
p9553
S'2591'
p9554
stp9555
a(g2528
(dp9556
S'NamedEntityTag'
p9557
g98
sS'CharacterOffsetEnd'
p9558
S'2597'
p9559
sS'Lemma'
p9560
g2528
sS'PartOfSpeech'
p9561
S'DT'
p9562
sS'CharacterOffsetBegin'
p9563
S'2596'
p9564
stp9565
a(S'football'
p9566
(dp9567
S'NamedEntityTag'
p9568
g98
sS'CharacterOffsetEnd'
p9569
S'2606'
p9570
sS'Lemma'
p9571
S'football'
p9572
sS'PartOfSpeech'
p9573
S'NN'
p9574
sS'CharacterOffsetBegin'
p9575
S'2598'
p9576
stp9577
a(S'field'
p9578
(dp9579
S'NamedEntityTag'
p9580
g98
sS'CharacterOffsetEnd'
p9581
S'2612'
p9582
sS'Lemma'
p9583
S'field'
p9584
sS'PartOfSpeech'
p9585
S'NN'
p9586
sS'CharacterOffsetBegin'
p9587
S'2607'
p9588
stp9589
a(g1427
(dp9590
S'NamedEntityTag'
p9591
g98
sS'CharacterOffsetEnd'
p9592
S'2613'
p9593
sS'Lemma'
p9594
g1427
sS'PartOfSpeech'
p9595
g1427
sS'CharacterOffsetBegin'
p9596
S'2612'
p9597
stp9598
a(S'and'
p9599
(dp9600
S'NamedEntityTag'
p9601
g98
sS'CharacterOffsetEnd'
p9602
S'2617'
p9603
sS'Lemma'
p9604
S'and'
p9605
sS'PartOfSpeech'
p9606
S'CC'
p9607
sS'CharacterOffsetBegin'
p9608
S'2614'
p9609
stp9610
a(S'house'
p9611
(dp9612
S'NamedEntityTag'
p9613
g98
sS'CharacterOffsetEnd'
p9614
S'2623'
p9615
sS'Lemma'
p9616
S'house'
p9617
sS'PartOfSpeech'
p9618
S'NN'
p9619
sS'CharacterOffsetBegin'
p9620
S'2618'
p9621
stp9622
a(S'up'
p9623
(dp9624
S'NamedEntityTag'
p9625
g98
sS'CharacterOffsetEnd'
p9626
S'2626'
p9627
sS'Lemma'
p9628
S'up'
p9629
sS'PartOfSpeech'
p9630
S'IN'
p9631
sS'CharacterOffsetBegin'
p9632
S'2624'
p9633
stp9634
a(S'to'
p9635
(dp9636
S'NamedEntityTag'
p9637
g98
sS'CharacterOffsetEnd'
p9638
S'2629'
p9639
sS'Lemma'
p9640
S'to'
p9641
sS'PartOfSpeech'
p9642
S'TO'
p9643
sS'CharacterOffsetBegin'
p9644
S'2627'
p9645
stp9646
a(S'seven'
p9647
(dp9648
S''
p9649
S'7.0'
p9650
sS'NormalizedNamedEntityTag'
p9651
S'<'
p9652
sS'Lemma'
p9653
S'seven'
p9654
sS'CharacterOffsetEnd'
p9655
S'2635'
p9656
sS'PartOfSpeech'
p9657
S'CD'
p9658
sS'CharacterOffsetBegin'
p9659
S'2630'
p9660
sS'NamedEntityTag'
p9661
S'NUMBER'
p9662
stp9663
a(S'astronauts'
p9664
(dp9665
S'NamedEntityTag'
p9666
g98
sS'CharacterOffsetEnd'
p9667
S'2646'
p9668
sS'Lemma'
p9669
S'astronaut'
p9670
sS'PartOfSpeech'
p9671
S'NNS'
p9672
sS'CharacterOffsetBegin'
p9673
S'2636'
p9674
stp9675
a(S'and'
p9676
(dp9677
S'NamedEntityTag'
p9678
g98
sS'CharacterOffsetEnd'
p9679
S'2650'
p9680
sS'Lemma'
p9681
S'and'
p9682
sS'PartOfSpeech'
p9683
S'CC'
p9684
sS'CharacterOffsetBegin'
p9685
S'2647'
p9686
stp9687
a(S'cosmonauts'
p9688
(dp9689
S'NamedEntityTag'
p9690
g98
sS'CharacterOffsetEnd'
p9691
S'2661'
p9692
sS'Lemma'
p9693
S'cosmonaut'
p9694
sS'PartOfSpeech'
p9695
S'NNS'
p9696
sS'CharacterOffsetBegin'
p9697
S'2651'
p9698
stp9699
a(g404
(dp9700
S'NamedEntityTag'
p9701
g98
sS'CharacterOffsetEnd'
p9702
S'2662'
p9703
sS'Lemma'
p9704
g404
sS'PartOfSpeech'
p9705
g404
sS'CharacterOffsetBegin'
p9706
S'2661'
p9707
stp9708
asass.