(dp0
S'models'
p1
(lp2
(dp3
S'sentences'
p4
(lp5
(dp6
S'parsetree'
p7
S'(ROOT (S (NP (NNP North) (NNP Korea)) (VP (JJ =) (NP (NP (NNS B9s)) (SBAR (S (NP (QP (CD 1.1) (CD million)) (NN man) (NN military)) (VP (VBD said) (PP (IN on) (ADJP (JJ alert))) (PP (IN for) (NP (NN war))))))) (PP (IN with) (NP (NNP US))))))'
p8
sS'text'
p9
S'North Korea=B9s 1.1 million man military said on alert for war with US'
p10
sS'dependencies'
p11
(lp12
(S'root'
p13
S'ROOT'
p14
S'='
p15
tp16
a(S'nn'
p17
S'Korea'
p18
S'North'
p19
tp20
a(S'nsubj'
p21
g15
S'Korea'
p22
tp23
a(S'dobj'
p24
g15
S'B9s'
p25
tp26
a(S'number'
p27
S'million'
p28
S'1.1'
p29
tp30
a(S'num'
p31
S'military'
p32
S'million'
p33
tp34
a(S'nn'
p35
S'military'
p36
S'man'
p37
tp38
a(S'nsubj'
p39
S'said'
p40
S'military'
p41
tp42
a(S'rcmod'
p43
S'B9s'
p44
S'said'
p45
tp46
a(S'prep_on'
p47
S'said'
p48
S'alert'
p49
tp50
a(S'prep_for'
p51
S'said'
p52
S'war'
p53
tp54
a(S'prep_with'
p55
g15
S'US'
p56
tp57
asS'indexeddependencies'
p58
(lp59
(g13
S'ROOT-0'
p60
S'=-3'
p61
tp62
a(g17
S'Korea-2'
p63
S'North-1'
p64
tp65
a(g21
S'=-3'
p66
S'Korea-2'
p67
tp68
a(g24
S'=-3'
p69
S'B9s-4'
p70
tp71
a(g27
S'million-6'
p72
S'1.1-5'
p73
tp74
a(g31
S'military-8'
p75
S'million-6'
p76
tp77
a(g35
S'military-8'
p78
S'man-7'
p79
tp80
a(g39
S'said-9'
p81
S'military-8'
p82
tp83
a(g43
S'B9s-4'
p84
S'said-9'
p85
tp86
a(g47
S'said-9'
p87
S'alert-11'
p88
tp89
a(g51
S'said-9'
p90
S'war-13'
p91
tp92
a(g55
S'=-3'
p93
S'US-15'
p94
tp95
asS'words'
p96
(lp97
(S'North'
p98
(dp99
S'NamedEntityTag'
p100
S'LOCATION'
p101
sS'CharacterOffsetEnd'
p102
S'6'
p103
sS'Lemma'
p104
S'North'
p105
sS'PartOfSpeech'
p106
S'NNP'
p107
sS'CharacterOffsetBegin'
p108
S'1'
p109
stp110
a(S'Korea'
p111
(dp112
S'NamedEntityTag'
p113
S'LOCATION'
p114
sS'CharacterOffsetEnd'
p115
S'12'
p116
sS'Lemma'
p117
S'Korea'
p118
sS'PartOfSpeech'
p119
S'NNP'
p120
sS'CharacterOffsetBegin'
p121
S'7'
p122
stp123
a(S''
p124
(dp125
g124
g124
sS'Lemma'
p126
g124
sS'CharacterOffsetEnd'
p127
S'13'
p128
sS'PartOfSpeech'
p129
S'JJ'
p130
sS'CharacterOffsetBegin'
p131
S'12'
p132
sS'NamedEntityTag'
p133
S'O'
p134
stp135
a(S'B9s'
p136
(dp137
S'NamedEntityTag'
p138
g134
sS'CharacterOffsetEnd'
p139
S'16'
p140
sS'Lemma'
p141
S'b9'
p142
sS'PartOfSpeech'
p143
S'NNS'
p144
sS'CharacterOffsetBegin'
p145
S'13'
p146
stp147
a(S'1.1'
p148
(dp149
S'NormalizedNamedEntityTag'
p150
S'1100000.0'
p151
sS'Lemma'
p152
S'1.1'
p153
sS'CharacterOffsetEnd'
p154
S'20'
p155
sS'PartOfSpeech'
p156
S'CD'
p157
sS'CharacterOffsetBegin'
p158
S'17'
p159
sS'NamedEntityTag'
p160
S'NUMBER'
p161
stp162
a(S'million'
p163
(dp164
S'NormalizedNamedEntityTag'
p165
S'1100000.0'
p166
sS'Lemma'
p167
S'million'
p168
sS'CharacterOffsetEnd'
p169
S'28'
p170
sS'PartOfSpeech'
p171
S'CD'
p172
sS'CharacterOffsetBegin'
p173
S'21'
p174
sS'NamedEntityTag'
p175
S'NUMBER'
p176
stp177
a(S'man'
p178
(dp179
S'NamedEntityTag'
p180
g134
sS'CharacterOffsetEnd'
p181
S'32'
p182
sS'Lemma'
p183
S'man'
p184
sS'PartOfSpeech'
p185
S'NN'
p186
sS'CharacterOffsetBegin'
p187
S'29'
p188
stp189
a(S'military'
p190
(dp191
S'NamedEntityTag'
p192
g134
sS'CharacterOffsetEnd'
p193
S'41'
p194
sS'Lemma'
p195
S'military'
p196
sS'PartOfSpeech'
p197
S'NN'
p198
sS'CharacterOffsetBegin'
p199
S'33'
p200
stp201
a(S'said'
p202
(dp203
S'NamedEntityTag'
p204
g134
sS'CharacterOffsetEnd'
p205
S'46'
p206
sS'Lemma'
p207
S'say'
p208
sS'PartOfSpeech'
p209
S'VBD'
p210
sS'CharacterOffsetBegin'
p211
S'42'
p212
stp213
a(S'on'
p214
(dp215
S'NamedEntityTag'
p216
g134
sS'CharacterOffsetEnd'
p217
S'49'
p218
sS'Lemma'
p219
S'on'
p220
sS'PartOfSpeech'
p221
S'IN'
p222
sS'CharacterOffsetBegin'
p223
S'47'
p224
stp225
a(S'alert'
p226
(dp227
S'NamedEntityTag'
p228
g134
sS'CharacterOffsetEnd'
p229
S'55'
p230
sS'Lemma'
p231
S'alert'
p232
sS'PartOfSpeech'
p233
S'JJ'
p234
sS'CharacterOffsetBegin'
p235
S'50'
p236
stp237
a(S'for'
p238
(dp239
S'NamedEntityTag'
p240
g134
sS'CharacterOffsetEnd'
p241
S'59'
p242
sS'Lemma'
p243
S'for'
p244
sS'PartOfSpeech'
p245
S'IN'
p246
sS'CharacterOffsetBegin'
p247
S'56'
p248
stp249
a(S'war'
p250
(dp251
S'NamedEntityTag'
p252
g134
sS'CharacterOffsetEnd'
p253
S'63'
p254
sS'Lemma'
p255
S'war'
p256
sS'PartOfSpeech'
p257
S'NN'
p258
sS'CharacterOffsetBegin'
p259
S'60'
p260
stp261
a(S'with'
p262
(dp263
S'NamedEntityTag'
p264
g134
sS'CharacterOffsetEnd'
p265
S'68'
p266
sS'Lemma'
p267
S'with'
p268
sS'PartOfSpeech'
p269
S'IN'
p270
sS'CharacterOffsetBegin'
p271
S'64'
p272
stp273
a(S'US'
p274
(dp275
S'NamedEntityTag'
p276
S'LOCATION'
p277
sS'CharacterOffsetEnd'
p278
S'71'
p279
sS'Lemma'
p280
S'US'
p281
sS'PartOfSpeech'
p282
S'NNP'
p283
sS'CharacterOffsetBegin'
p284
S'69'
p285
stp286
asasa(dp287
g4
(lp288
(dp289
g7
S'(ROOT (S (NP (NNP North) (NNP Korea)) (VP (VBZ threatens) (NP (NN war)) (PP (IN against) (NP (NNP U.S.))) (SBAR (IN if) (S (NP (JJ nuclear) (NN dispute)) (VP (VBZ comes) (PP (TO to) (NP (NNS blows)))))))))'
p290
sg9
S'North Korea threatens war against U.S. if nuclear dispute comes to blows'
p291
sg11
(lp292
(S'root'
p293
S'ROOT'
p294
S'threatens'
p295
tp296
a(S'nn'
p297
S'Korea'
p298
S'North'
p299
tp300
a(S'nsubj'
p301
S'threatens'
p302
S'Korea'
p303
tp304
a(S'dobj'
p305
S'threatens'
p306
S'war'
p307
tp308
a(S'prep_against'
p309
S'threatens'
p310
S'U.S.'
p311
tp312
a(S'mark'
p313
S'comes'
p314
S'if'
p315
tp316
a(S'amod'
p317
S'dispute'
p318
S'nuclear'
p319
tp320
a(S'nsubj'
p321
S'comes'
p322
S'dispute'
p323
tp324
a(S'advcl'
p325
S'threatens'
p326
S'comes'
p327
tp328
a(S'prep_to'
p329
S'comes'
p330
S'blows'
p331
tp332
asg58
(lp333
(g293
S'ROOT-0'
p334
S'threatens-3'
p335
tp336
a(g297
S'Korea-2'
p337
S'North-1'
p338
tp339
a(g301
S'threatens-3'
p340
S'Korea-2'
p341
tp342
a(g305
S'threatens-3'
p343
S'war-4'
p344
tp345
a(g309
S'threatens-3'
p346
S'U.S.-6'
p347
tp348
a(g313
S'comes-10'
p349
S'if-7'
p350
tp351
a(g317
S'dispute-9'
p352
S'nuclear-8'
p353
tp354
a(g321
S'comes-10'
p355
S'dispute-9'
p356
tp357
a(g325
S'threatens-3'
p358
S'comes-10'
p359
tp360
a(g329
S'comes-10'
p361
S'blows-12'
p362
tp363
asg96
(lp364
(S'North'
p365
(dp366
S'NamedEntityTag'
p367
S'LOCATION'
p368
sS'CharacterOffsetEnd'
p369
g103
sS'Lemma'
p370
S'North'
p371
sS'PartOfSpeech'
p372
S'NNP'
p373
sS'CharacterOffsetBegin'
p374
g109
stp375
a(S'Korea'
p376
(dp377
S'NamedEntityTag'
p378
S'LOCATION'
p379
sS'CharacterOffsetEnd'
p380
S'12'
p381
sS'Lemma'
p382
S'Korea'
p383
sS'PartOfSpeech'
p384
S'NNP'
p385
sS'CharacterOffsetBegin'
p386
g122
stp387
a(S'threatens'
p388
(dp389
S'NamedEntityTag'
p390
g134
sS'CharacterOffsetEnd'
p391
S'22'
p392
sS'Lemma'
p393
S'threaten'
p394
sS'PartOfSpeech'
p395
S'VBZ'
p396
sS'CharacterOffsetBegin'
p397
S'13'
p398
stp399
a(S'war'
p400
(dp401
S'NamedEntityTag'
p402
g134
sS'CharacterOffsetEnd'
p403
S'26'
p404
sS'Lemma'
p405
S'war'
p406
sS'PartOfSpeech'
p407
S'NN'
p408
sS'CharacterOffsetBegin'
p409
S'23'
p410
stp411
a(S'against'
p412
(dp413
S'NamedEntityTag'
p414
g134
sS'CharacterOffsetEnd'
p415
S'34'
p416
sS'Lemma'
p417
S'against'
p418
sS'PartOfSpeech'
p419
S'IN'
p420
sS'CharacterOffsetBegin'
p421
S'27'
p422
stp423
a(S'U.S.'
p424
(dp425
S'NamedEntityTag'
p426
S'LOCATION'
p427
sS'CharacterOffsetEnd'
p428
S'39'
p429
sS'Lemma'
p430
S'U.S.'
p431
sS'PartOfSpeech'
p432
S'NNP'
p433
sS'CharacterOffsetBegin'
p434
S'35'
p435
stp436
a(S'if'
p437
(dp438
S'NamedEntityTag'
p439
g134
sS'CharacterOffsetEnd'
p440
S'42'
p441
sS'Lemma'
p442
S'if'
p443
sS'PartOfSpeech'
p444
S'IN'
p445
sS'CharacterOffsetBegin'
p446
S'40'
p447
stp448
a(S'nuclear'
p449
(dp450
S'NamedEntityTag'
p451
g134
sS'CharacterOffsetEnd'
p452
S'50'
p453
sS'Lemma'
p454
S'nuclear'
p455
sS'PartOfSpeech'
p456
S'JJ'
p457
sS'CharacterOffsetBegin'
p458
S'43'
p459
stp460
a(S'dispute'
p461
(dp462
S'NamedEntityTag'
p463
g134
sS'CharacterOffsetEnd'
p464
S'58'
p465
sS'Lemma'
p466
S'dispute'
p467
sS'PartOfSpeech'
p468
S'NN'
p469
sS'CharacterOffsetBegin'
p470
S'51'
p471
stp472
a(S'comes'
p473
(dp474
S'NamedEntityTag'
p475
g134
sS'CharacterOffsetEnd'
p476
S'64'
p477
sS'Lemma'
p478
S'come'
p479
sS'PartOfSpeech'
p480
S'VBZ'
p481
sS'CharacterOffsetBegin'
p482
S'59'
p483
stp484
a(S'to'
p485
(dp486
S'NamedEntityTag'
p487
g134
sS'CharacterOffsetEnd'
p488
S'67'
p489
sS'Lemma'
p490
S'to'
p491
sS'PartOfSpeech'
p492
S'TO'
p493
sS'CharacterOffsetBegin'
p494
S'65'
p495
stp496
a(S'blows'
p497
(dp498
S'NamedEntityTag'
p499
g134
sS'CharacterOffsetEnd'
p500
S'73'
p501
sS'Lemma'
p502
S'blow'
p503
sS'PartOfSpeech'
p504
S'NNS'
p505
sS'CharacterOffsetBegin'
p506
S'68'
p507
stp508
asasa(dp509
g4
(lp510
(dp511
g7
S'(ROOT (S (NP (NNP N.) (NNP Korea)) (VP (VBZ says) (SBAR (S (NP (NNP U.S.)) (VP (VBZ pushes) (PP (TO to) (NP (NP (NN brink)) (PP (IN of) (NP (NN war))))) (PP (IN over) (NP (NN site) (NN inspection) (CC and) (NNS talks))))))) (. .)))'
p512
sg9
S'N. Korea says U.S. pushes to brink of war over site inspection and talks.'
p513
sg11
(lp514
(S'root'
p515
S'ROOT'
p516
S'says'
p517
tp518
a(S'nn'
p519
S'Korea'
p520
S'N.'
p521
tp522
a(S'nsubj'
p523
S'says'
p524
S'Korea'
p525
tp526
a(S'nsubj'
p527
S'pushes'
p528
S'U.S.'
p529
tp530
a(S'ccomp'
p531
S'says'
p532
S'pushes'
p533
tp534
a(S'prep_to'
p535
S'pushes'
p536
S'brink'
p537
tp538
a(S'prep_of'
p539
S'brink'
p540
S'war'
p541
tp542
a(S'nn'
p543
S'inspection'
p544
S'site'
p545
tp546
a(S'prep_over'
p547
S'pushes'
p548
S'inspection'
p549
tp550
a(S'conj_and'
p551
S'inspection'
p552
S'talks'
p553
tp554
asg58
(lp555
(g515
S'ROOT-0'
p556
S'says-3'
p557
tp558
a(g519
S'Korea-2'
p559
S'N.-1'
p560
tp561
a(g523
S'says-3'
p562
S'Korea-2'
p563
tp564
a(g527
S'pushes-5'
p565
S'U.S.-4'
p566
tp567
a(g531
S'says-3'
p568
S'pushes-5'
p569
tp570
a(g535
S'pushes-5'
p571
S'brink-7'
p572
tp573
a(g539
S'brink-7'
p574
S'war-9'
p575
tp576
a(g543
S'inspection-12'
p577
S'site-11'
p578
tp579
a(g547
S'pushes-5'
p580
S'inspection-12'
p581
tp582
a(g551
S'inspection-12'
p583
S'talks-14'
p584
tp585
asg96
(lp586
(S'N.'
p587
(dp588
S'NamedEntityTag'
p589
S'LOCATION'
p590
sS'CharacterOffsetEnd'
p591
S'3'
p592
sS'Lemma'
p593
S'N.'
p594
sS'PartOfSpeech'
p595
S'NNP'
p596
sS'CharacterOffsetBegin'
p597
g109
stp598
a(S'Korea'
p599
(dp600
S'NamedEntityTag'
p601
S'LOCATION'
p602
sS'CharacterOffsetEnd'
p603
S'9'
p604
sS'Lemma'
p605
S'Korea'
p606
sS'PartOfSpeech'
p607
S'NNP'
p608
sS'CharacterOffsetBegin'
p609
S'4'
p610
stp611
a(S'says'
p612
(dp613
S'NamedEntityTag'
p614
g134
sS'CharacterOffsetEnd'
p615
S'14'
p616
sS'Lemma'
p617
S'say'
p618
sS'PartOfSpeech'
p619
S'VBZ'
p620
sS'CharacterOffsetBegin'
p621
S'10'
p622
stp623
a(S'U.S.'
p624
(dp625
S'NamedEntityTag'
p626
S'LOCATION'
p627
sS'CharacterOffsetEnd'
p628
S'19'
p629
sS'Lemma'
p630
S'U.S.'
p631
sS'PartOfSpeech'
p632
S'NNP'
p633
sS'CharacterOffsetBegin'
p634
S'15'
p635
stp636
a(S'pushes'
p637
(dp638
S'NamedEntityTag'
p639
g134
sS'CharacterOffsetEnd'
p640
S'26'
p641
sS'Lemma'
p642
S'push'
p643
sS'PartOfSpeech'
p644
S'VBZ'
p645
sS'CharacterOffsetBegin'
p646
S'20'
p647
stp648
a(S'to'
p649
(dp650
S'NamedEntityTag'
p651
g134
sS'CharacterOffsetEnd'
p652
S'29'
p653
sS'Lemma'
p654
S'to'
p655
sS'PartOfSpeech'
p656
S'TO'
p657
sS'CharacterOffsetBegin'
p658
S'27'
p659
stp660
a(S'brink'
p661
(dp662
S'NamedEntityTag'
p663
g134
sS'CharacterOffsetEnd'
p664
S'35'
p665
sS'Lemma'
p666
S'brink'
p667
sS'PartOfSpeech'
p668
S'NN'
p669
sS'CharacterOffsetBegin'
p670
S'30'
p671
stp672
a(S'of'
p673
(dp674
S'NamedEntityTag'
p675
g134
sS'CharacterOffsetEnd'
p676
S'38'
p677
sS'Lemma'
p678
S'of'
p679
sS'PartOfSpeech'
p680
S'IN'
p681
sS'CharacterOffsetBegin'
p682
S'36'
p683
stp684
a(S'war'
p685
(dp686
S'NamedEntityTag'
p687
g134
sS'CharacterOffsetEnd'
p688
S'42'
p689
sS'Lemma'
p690
S'war'
p691
sS'PartOfSpeech'
p692
S'NN'
p693
sS'CharacterOffsetBegin'
p694
S'39'
p695
stp696
a(S'over'
p697
(dp698
S'NamedEntityTag'
p699
g134
sS'CharacterOffsetEnd'
p700
S'47'
p701
sS'Lemma'
p702
S'over'
p703
sS'PartOfSpeech'
p704
S'IN'
p705
sS'CharacterOffsetBegin'
p706
S'43'
p707
stp708
a(S'site'
p709
(dp710
S'NamedEntityTag'
p711
g134
sS'CharacterOffsetEnd'
p712
S'52'
p713
sS'Lemma'
p714
S'site'
p715
sS'PartOfSpeech'
p716
S'NN'
p717
sS'CharacterOffsetBegin'
p718
S'48'
p719
stp720
a(S'inspection'
p721
(dp722
S'NamedEntityTag'
p723
g134
sS'CharacterOffsetEnd'
p724
S'63'
p725
sS'Lemma'
p726
S'inspection'
p727
sS'PartOfSpeech'
p728
S'NN'
p729
sS'CharacterOffsetBegin'
p730
S'53'
p731
stp732
a(S'and'
p733
(dp734
S'NamedEntityTag'
p735
g134
sS'CharacterOffsetEnd'
p736
S'67'
p737
sS'Lemma'
p738
S'and'
p739
sS'PartOfSpeech'
p740
S'CC'
p741
sS'CharacterOffsetBegin'
p742
S'64'
p743
stp744
a(S'talks'
p745
(dp746
S'NamedEntityTag'
p747
g134
sS'CharacterOffsetEnd'
p748
S'73'
p749
sS'Lemma'
p750
S'talk'
p751
sS'PartOfSpeech'
p752
S'NNS'
p753
sS'CharacterOffsetBegin'
p754
S'68'
p755
stp756
a(S'.'
p757
(dp758
S'NamedEntityTag'
p759
g134
sS'CharacterOffsetEnd'
p760
S'74'
p761
sS'Lemma'
p762
g757
sS'PartOfSpeech'
p763
g757
sS'CharacterOffsetBegin'
p764
S'73'
p765
stp766
asasa(dp767
g4
(lp768
(dp769
g7
S'(ROOT (NP (NP (JJ Typical) (JJ North) (JJ Korean) (NN saber-rattling)) (PP (IN as) (NP (NNP US) (NNS talks))) (PP (IN about) (NP (NP (NNS inspections)) (PP (IN near)))) (. .)))'
p770
sg9
S'Typical North Korean saber-rattling as US talks about inspections near.'
p771
sg11
(lp772
(S'root'
p773
S'ROOT'
p774
S'saber-rattling'
p775
tp776
a(S'amod'
p777
S'saber-rattling'
p778
S'Typical'
p779
tp780
a(S'amod'
p781
S'saber-rattling'
p782
S'North'
p783
tp784
a(S'amod'
p785
S'saber-rattling'
p786
S'Korean'
p787
tp788
a(S'nn'
p789
S'talks'
p790
S'US'
p791
tp792
a(S'prep_as'
p793
S'saber-rattling'
p794
S'talks'
p795
tp796
a(S'prep_about'
p797
S'saber-rattling'
p798
S'inspections'
p799
tp800
a(S'prep'
p801
S'inspections'
p802
S'near'
p803
tp804
asg58
(lp805
(g773
S'ROOT-0'
p806
S'saber-rattling-4'
p807
tp808
a(g777
S'saber-rattling-4'
p809
S'Typical-1'
p810
tp811
a(g781
S'saber-rattling-4'
p812
S'North-2'
p813
tp814
a(g785
S'saber-rattling-4'
p815
S'Korean-3'
p816
tp817
a(g789
S'talks-7'
p818
S'US-6'
p819
tp820
a(g793
S'saber-rattling-4'
p821
S'talks-7'
p822
tp823
a(g797
S'saber-rattling-4'
p824
S'inspections-9'
p825
tp826
a(g801
S'inspections-9'
p827
S'near-10'
p828
tp829
asg96
(lp830
(S'Typical'
p831
(dp832
S'NamedEntityTag'
p833
g134
sS'CharacterOffsetEnd'
p834
S'8'
p835
sS'Lemma'
p836
S'typical'
p837
sS'PartOfSpeech'
p838
S'JJ'
p839
sS'CharacterOffsetBegin'
p840
g109
stp841
a(S'North'
p842
(dp843
S'NamedEntityTag'
p844
S'MISC'
p845
sS'CharacterOffsetEnd'
p846
S'14'
p847
sS'Lemma'
p848
S'north'
p849
sS'PartOfSpeech'
p850
S'JJ'
p851
sS'CharacterOffsetBegin'
p852
g604
stp853
a(S'Korean'
p854
(dp855
S'NamedEntityTag'
p856
S'MISC'
p857
sS'CharacterOffsetEnd'
p858
S'21'
p859
sS'Lemma'
p860
S'korean'
p861
sS'PartOfSpeech'
p862
S'JJ'
p863
sS'CharacterOffsetBegin'
p864
S'15'
p865
stp866
a(S'saber-rattling'
p867
(dp868
S'NamedEntityTag'
p869
g134
sS'CharacterOffsetEnd'
p870
S'36'
p871
sS'Lemma'
p872
S'saber-rattling'
p873
sS'PartOfSpeech'
p874
S'NN'
p875
sS'CharacterOffsetBegin'
p876
S'22'
p877
stp878
a(S'as'
p879
(dp880
S'NamedEntityTag'
p881
g134
sS'CharacterOffsetEnd'
p882
S'39'
p883
sS'Lemma'
p884
S'as'
p885
sS'PartOfSpeech'
p886
S'IN'
p887
sS'CharacterOffsetBegin'
p888
S'37'
p889
stp890
a(S'US'
p891
(dp892
S'NamedEntityTag'
p893
S'LOCATION'
p894
sS'CharacterOffsetEnd'
p895
S'42'
p896
sS'Lemma'
p897
S'US'
p898
sS'PartOfSpeech'
p899
S'NNP'
p900
sS'CharacterOffsetBegin'
p901
S'40'
p902
stp903
a(S'talks'
p904
(dp905
S'NamedEntityTag'
p906
g134
sS'CharacterOffsetEnd'
p907
S'48'
p908
sS'Lemma'
p909
S'talk'
p910
sS'PartOfSpeech'
p911
S'NNS'
p912
sS'CharacterOffsetBegin'
p913
S'43'
p914
stp915
a(S'about'
p916
(dp917
S'NamedEntityTag'
p918
g134
sS'CharacterOffsetEnd'
p919
S'54'
p920
sS'Lemma'
p921
S'about'
p922
sS'PartOfSpeech'
p923
S'IN'
p924
sS'CharacterOffsetBegin'
p925
S'49'
p926
stp927
a(S'inspections'
p928
(dp929
S'NamedEntityTag'
p930
g134
sS'CharacterOffsetEnd'
p931
S'66'
p932
sS'Lemma'
p933
S'inspection'
p934
sS'PartOfSpeech'
p935
S'NNS'
p936
sS'CharacterOffsetBegin'
p937
S'55'
p938
stp939
a(S'near'
p940
(dp941
S'NamedEntityTag'
p942
g134
sS'CharacterOffsetEnd'
p943
S'71'
p944
sS'Lemma'
p945
S'near'
p946
sS'PartOfSpeech'
p947
S'IN'
p948
sS'CharacterOffsetBegin'
p949
S'67'
p950
stp951
a(g757
(dp952
S'NamedEntityTag'
p953
g134
sS'CharacterOffsetEnd'
p954
S'72'
p955
sS'Lemma'
p956
g757
sS'PartOfSpeech'
p957
g757
sS'CharacterOffsetBegin'
p958
S'71'
p959
stp960
asasasS'article'
p961
(dp962
S'coref'
p963
(lp964
(lp965
((S'Thursday'
p966
I5
I5
I35
I36
tp967
(S'Thursday'
p968
I0
I5
I5
I6
tp969
tp970
aa(lp971
((S'The United States'
p972
I3
I2
I0
I3
tp973
(S'the United States'
p974
I0
I0
I18
I21
tp975
tp976
a((S'United States'
p977
I3
I2
I1
I3
tp978
(S'the United States'
p979
I0
I0
I18
I21
tp980
tp981
a((S'the United States'
p982
I5
I5
I13
I16
tp983
(S'the United States'
p984
I0
I0
I18
I21
tp985
tp986
a((S'the United States'
p987
I11
I-1
I17
I20
tp988
(S'the United States'
p989
I0
I0
I18
I21
tp990
tp991
aa(lp992
((S'KCNA'
p993
I4
I0
I0
I1
tp994
(S'official Korean Central News Agency'
p995
I1
I6
I2
I7
tp996
tp997
a((S'KCNA'
p998
I7
I3
I23
I24
tp999
(S'official Korean Central News Agency'
p1000
I1
I6
I2
I7
tp1001
tp1002
a((S'The agency'
p1003
I8
I1
I0
I2
tp1004
(S'official Korean Central News Agency'
p1005
I1
I6
I2
I7
tp1006
tp1007
aa(lp1008
((S'it'
p1009
I2
I0
I10
I11
tp1010
(S'North Korea'
p1011
I2
I1
I0
I2
tp1012
tp1013
a((S'North Korea'
p1014
I3
I5
I4
I6
tp1015
(S'North Korea'
p1016
I2
I1
I0
I2
tp1017
tp1018
a((S'Korea'
p1019
I6
I7
I17
I18
tp1020
(S'North Korea'
p1021
I2
I1
I0
I2
tp1022
tp1023
a((S'North Korea'
p1024
I10
I2
I1
I3
tp1025
(S'North Korea'
p1026
I2
I1
I0
I2
tp1027
tp1028
a((S'North Korea'
p1029
I11
I3
I2
I4
tp1030
(S'North Korea'
p1031
I2
I1
I0
I2
tp1032
tp1033
a((S'North Korea'
p1034
I11
I3
I22
I24
tp1035
(S'North Korea'
p1036
I2
I1
I0
I2
tp1037
tp1038
a((S'its'
p1039
I12
I6
I6
I7
tp1040
(S'North Korea'
p1041
I2
I1
I0
I2
tp1042
tp1043
aa(lp1044
((S'Washington'
p1045
I9
I0
I0
I1
tp1046
(S'Washington'
p1047
I2
I5
I15
I16
tp1048
tp1049
a((S'Washington'
p1050
I10
I4
I4
I5
tp1051
(S'Washington'
p1052
I2
I5
I15
I16
tp1053
tp1054
aa(lp1055
((S'talks'
p1056
I3
I0
I10
I11
tp1057
(S'high-stake talks'
p1058
I2
I3
I12
I14
tp1059
tp1060
aa(lp1061
((S'nuclear weapons'
p1062
I6
I5
I34
I36
tp1063
(S'nuclear weapons'
p1064
I3
I7
I26
I28
tp1065
tp1066
aa(lp1067
((S'the site'
p1068
I10
I6
I15
I17
tp1069
(S'an underground North Korean site suspected of being used to produce nuclear weapons'
p1070
I3
I-1
I15
I28
tp1071
tp1072
aa(lp1073
((S'Jong'
p1074
I7
I5
I25
I26
tp1075
(S'Vice Defense Minister Jong Chang Ryol'
p1076
I5
I0
I25
I31
tp1077
tp1078
aa(lp1079
((S'long-range missiles'
p1080
I11
I7
I6
I8
tp1081
(S'long-range missiles'
p1082
I6
I8
I37
I39
tp1083
tp1084
aa(lp1085
((S'itself'
p1086
I7
I3
I13
I14
tp1087
(S'the prevailing touch-and-go situation'
p1088
I7
I4
I1
I5
tp1089
tp1090
aa(lp1091
((S'plant managers , even museum curators'
p1092
I8
I-1
I8
I14
tp1093
(S'various party officials'
p1094
I8
I6
I4
I7
tp1095
tp1096
a((S'plant managers'
p1097
I8
I-1
I8
I10
tp1098
(S'various party officials'
p1099
I8
I6
I4
I7
tp1100
tp1101
a((S'even museum curators'
p1102
I8
I3
I11
I14
tp1103
(S'various party officials'
p1104
I8
I6
I4
I7
tp1105
tp1106
a((S'themselves'
p1107
I8
I3
I23
I24
tp1108
(S'various party officials'
p1109
I8
I6
I4
I7
tp1110
tp1111
aa(lp1112
((S'Norths'
p1113
I13
I1
I1
I2
tp1114
(S'the Norths underground project'
p1115
I9
I6
I5
I9
tp1116
tp1117
aa(lp1118
((S'the rocket'
p1119
I12
I2
I11
I13
tp1120
(S'a rocket'
p1121
I11
I6
I25
I27
tp1122
tp1123
aa(lp1124
((S'It'
p1125
I14
I0
I0
I1
tp1126
(S'The Norths 1.1 million-strong military'
p1127
I13
I4
I0
I5
tp1128
tp1129
a((S'the military'
p1130
I14
I3
I22
I24
tp1131
(S'The Norths 1.1 million-strong military'
p1132
I13
I4
I0
I5
tp1133
tp1134
aasg4
(lp1135
(dp1136
g7
S'(ROOT (S (NP (NP (ADJP (JJ North) (JJ Korean)) (NN news) (NNS media)) (PP (IN on) (NP (NNP Thursday)))) (VP (VBD said) (NP (NP (DT the) (JJ communist) (NNS nations)) (SBAR (S (NP (JJ military)) (VP (VBZ is) (PP (IN on) (NP (NP (JJ full) (NN alert)) (PP (IN for) (NP (NP (NN war)) (PP (IN with) (NP (DT the) (NNP United) (NNPS States))))))) (SBAR (IN if) (S (NP (NP (DT a) (NN dispute)) (PP (IN over) (NP (JJ nuclear) (NNS inspections)))) (VP (VBZ comes) (PP (TO to) (NP (NNS blows))))))))))) (. .)))'
p1137
sg9
S'North Korean news media on Thursday said the communist nations military is on full alert for war with the United States if a dispute over nuclear inspections comes to blows.'
p1138
sg11
(lp1139
(S'root'
p1140
S'ROOT'
p1141
S'said'
p1142
tp1143
a(S'amod'
p1144
S'Korean'
p1145
S'North'
p1146
tp1147
a(S'amod'
p1148
S'media'
p1149
S'Korean'
p1150
tp1151
a(S'nn'
p1152
S'media'
p1153
S'news'
p1154
tp1155
a(S'nsubj'
p1156
S'said'
p1157
S'media'
p1158
tp1159
a(S'prep_on'
p1160
S'media'
p1161
S'Thursday'
p1162
tp1163
a(S'det'
p1164
S'nations'
p1165
S'the'
p1166
tp1167
a(S'amod'
p1168
S'nations'
p1169
S'communist'
p1170
tp1171
a(S'dobj'
p1172
S'said'
p1173
S'nations'
p1174
tp1175
a(S'nsubj'
p1176
S'is'
p1177
S'military'
p1178
tp1179
a(S'rcmod'
p1180
S'nations'
p1181
S'is'
p1182
tp1183
a(S'amod'
p1184
S'alert'
p1185
S'full'
p1186
tp1187
a(S'prep_on'
p1188
S'is'
p1189
S'alert'
p1190
tp1191
a(S'prep_for'
p1192
S'alert'
p1193
S'war'
p1194
tp1195
a(S'det'
p1196
S'States'
p1197
S'the'
p1198
tp1199
a(S'nn'
p1200
S'States'
p1201
S'United'
p1202
tp1203
a(S'prep_with'
p1204
S'war'
p1205
S'States'
p1206
tp1207
a(S'mark'
p1208
S'comes'
p1209
S'if'
p1210
tp1211
a(S'det'
p1212
S'dispute'
p1213
S'a'
p1214
tp1215
a(S'nsubj'
p1216
S'comes'
p1217
S'dispute'
p1218
tp1219
a(S'amod'
p1220
S'inspections'
p1221
S'nuclear'
p1222
tp1223
a(S'prep_over'
p1224
S'dispute'
p1225
S'inspections'
p1226
tp1227
a(S'advcl'
p1228
S'is'
p1229
S'comes'
p1230
tp1231
a(S'prep_to'
p1232
S'comes'
p1233
S'blows'
p1234
tp1235
asg58
(lp1236
(g1140
S'ROOT-0'
p1237
S'said-7'
p1238
tp1239
a(g1144
S'Korean-2'
p1240
S'North-1'
p1241
tp1242
a(g1148
S'media-4'
p1243
S'Korean-2'
p1244
tp1245
a(g1152
S'media-4'
p1246
S'news-3'
p1247
tp1248
a(g1156
S'said-7'
p1249
S'media-4'
p1250
tp1251
a(g1160
S'media-4'
p1252
S'Thursday-6'
p1253
tp1254
a(g1164
S'nations-10'
p1255
S'the-8'
p1256
tp1257
a(g1168
S'nations-10'
p1258
S'communist-9'
p1259
tp1260
a(g1172
S'said-7'
p1261
S'nations-10'
p1262
tp1263
a(g1176
S'is-12'
p1264
S'military-11'
p1265
tp1266
a(g1180
S'nations-10'
p1267
S'is-12'
p1268
tp1269
a(g1184
S'alert-15'
p1270
S'full-14'
p1271
tp1272
a(g1188
S'is-12'
p1273
S'alert-15'
p1274
tp1275
a(g1192
S'alert-15'
p1276
S'war-17'
p1277
tp1278
a(g1196
S'States-21'
p1279
S'the-19'
p1280
tp1281
a(g1200
S'States-21'
p1282
S'United-20'
p1283
tp1284
a(g1204
S'war-17'
p1285
S'States-21'
p1286
tp1287
a(g1208
S'comes-28'
p1288
S'if-22'
p1289
tp1290
a(g1212
S'dispute-24'
p1291
S'a-23'
p1292
tp1293
a(g1216
S'comes-28'
p1294
S'dispute-24'
p1295
tp1296
a(g1220
S'inspections-27'
p1297
S'nuclear-26'
p1298
tp1299
a(g1224
S'dispute-24'
p1300
S'inspections-27'
p1301
tp1302
a(g1228
S'is-12'
p1303
S'comes-28'
p1304
tp1305
a(g1232
S'comes-28'
p1306
S'blows-30'
p1307
tp1308
asg96
(lp1309
(S'North'
p1310
(dp1311
S'NamedEntityTag'
p1312
S'MISC'
p1313
sS'CharacterOffsetEnd'
p1314
S'5'
p1315
sS'Lemma'
p1316
S'north'
p1317
sS'PartOfSpeech'
p1318
S'JJ'
p1319
sS'CharacterOffsetBegin'
p1320
S'0'
p1321
stp1322
a(S'Korean'
p1323
(dp1324
S'NamedEntityTag'
p1325
S'MISC'
p1326
sS'CharacterOffsetEnd'
p1327
S'12'
p1328
sS'Lemma'
p1329
S'korean'
p1330
sS'PartOfSpeech'
p1331
S'JJ'
p1332
sS'CharacterOffsetBegin'
p1333
g103
stp1334
a(S'news'
p1335
(dp1336
S'NamedEntityTag'
p1337
g134
sS'CharacterOffsetEnd'
p1338
S'17'
p1339
sS'Lemma'
p1340
S'news'
p1341
sS'PartOfSpeech'
p1342
S'NN'
p1343
sS'CharacterOffsetBegin'
p1344
S'13'
p1345
stp1346
a(S'media'
p1347
(dp1348
S'NamedEntityTag'
p1349
g134
sS'CharacterOffsetEnd'
p1350
S'23'
p1351
sS'Lemma'
p1352
S'media'
p1353
sS'PartOfSpeech'
p1354
S'NNS'
p1355
sS'CharacterOffsetBegin'
p1356
S'18'
p1357
stp1358
a(S'on'
p1359
(dp1360
S'NamedEntityTag'
p1361
g134
sS'CharacterOffsetEnd'
p1362
S'26'
p1363
sS'Lemma'
p1364
S'on'
p1365
sS'PartOfSpeech'
p1366
S'IN'
p1367
sS'CharacterOffsetBegin'
p1368
S'24'
p1369
stp1370
a(S'Thursday'
p1371
(dp1372
S'NormalizedNamedEntityTag'
p1373
S'XXXX-WXX-4'
p1374
sS'Timex'
p1375
S'<TIMEX3 tid="t1" type="DATE" value="XXXX-WXX-4">Thursday</TIMEX3>'
p1376
sS'Lemma'
p1377
S'Thursday'
p1378
sS'CharacterOffsetEnd'
p1379
S'35'
p1380
sS'PartOfSpeech'
p1381
S'NNP'
p1382
sS'CharacterOffsetBegin'
p1383
S'27'
p1384
sS'NamedEntityTag'
p1385
S'DATE'
p1386
stp1387
a(S'said'
p1388
(dp1389
S'NamedEntityTag'
p1390
g134
sS'CharacterOffsetEnd'
p1391
S'40'
p1392
sS'Lemma'
p1393
S'say'
p1394
sS'PartOfSpeech'
p1395
S'VBD'
p1396
sS'CharacterOffsetBegin'
p1397
S'36'
p1398
stp1399
a(S'the'
p1400
(dp1401
S'NamedEntityTag'
p1402
g134
sS'CharacterOffsetEnd'
p1403
S'44'
p1404
sS'Lemma'
p1405
S'the'
p1406
sS'PartOfSpeech'
p1407
S'DT'
p1408
sS'CharacterOffsetBegin'
p1409
S'41'
p1410
stp1411
a(S'communist'
p1412
(dp1413
S'NamedEntityTag'
p1414
g134
sS'CharacterOffsetEnd'
p1415
S'54'
p1416
sS'Lemma'
p1417
S'communist'
p1418
sS'PartOfSpeech'
p1419
S'JJ'
p1420
sS'CharacterOffsetBegin'
p1421
S'45'
p1422
stp1423
a(S'nations'
p1424
(dp1425
S'NamedEntityTag'
p1426
g134
sS'CharacterOffsetEnd'
p1427
S'62'
p1428
sS'Lemma'
p1429
S'nation'
p1430
sS'PartOfSpeech'
p1431
S'NNS'
p1432
sS'CharacterOffsetBegin'
p1433
S'55'
p1434
stp1435
a(S'military'
p1436
(dp1437
S'NamedEntityTag'
p1438
g134
sS'CharacterOffsetEnd'
p1439
S'71'
p1440
sS'Lemma'
p1441
S'military'
p1442
sS'PartOfSpeech'
p1443
S'JJ'
p1444
sS'CharacterOffsetBegin'
p1445
S'63'
p1446
stp1447
a(S'is'
p1448
(dp1449
S'NamedEntityTag'
p1450
g134
sS'CharacterOffsetEnd'
p1451
S'74'
p1452
sS'Lemma'
p1453
S'be'
p1454
sS'PartOfSpeech'
p1455
S'VBZ'
p1456
sS'CharacterOffsetBegin'
p1457
S'72'
p1458
stp1459
a(S'on'
p1460
(dp1461
S'NamedEntityTag'
p1462
g134
sS'CharacterOffsetEnd'
p1463
S'77'
p1464
sS'Lemma'
p1465
S'on'
p1466
sS'PartOfSpeech'
p1467
S'IN'
p1468
sS'CharacterOffsetBegin'
p1469
S'75'
p1470
stp1471
a(S'full'
p1472
(dp1473
S'NamedEntityTag'
p1474
g134
sS'CharacterOffsetEnd'
p1475
S'82'
p1476
sS'Lemma'
p1477
S'full'
p1478
sS'PartOfSpeech'
p1479
S'JJ'
p1480
sS'CharacterOffsetBegin'
p1481
S'78'
p1482
stp1483
a(S'alert'
p1484
(dp1485
S'NamedEntityTag'
p1486
g134
sS'CharacterOffsetEnd'
p1487
S'88'
p1488
sS'Lemma'
p1489
S'alert'
p1490
sS'PartOfSpeech'
p1491
S'NN'
p1492
sS'CharacterOffsetBegin'
p1493
S'83'
p1494
stp1495
a(S'for'
p1496
(dp1497
S'NamedEntityTag'
p1498
g134
sS'CharacterOffsetEnd'
p1499
S'92'
p1500
sS'Lemma'
p1501
S'for'
p1502
sS'PartOfSpeech'
p1503
S'IN'
p1504
sS'CharacterOffsetBegin'
p1505
S'89'
p1506
stp1507
a(S'war'
p1508
(dp1509
S'NamedEntityTag'
p1510
g134
sS'CharacterOffsetEnd'
p1511
S'96'
p1512
sS'Lemma'
p1513
S'war'
p1514
sS'PartOfSpeech'
p1515
S'NN'
p1516
sS'CharacterOffsetBegin'
p1517
S'93'
p1518
stp1519
a(S'with'
p1520
(dp1521
S'NamedEntityTag'
p1522
g134
sS'CharacterOffsetEnd'
p1523
S'101'
p1524
sS'Lemma'
p1525
S'with'
p1526
sS'PartOfSpeech'
p1527
S'IN'
p1528
sS'CharacterOffsetBegin'
p1529
S'97'
p1530
stp1531
a(S'the'
p1532
(dp1533
S'NamedEntityTag'
p1534
g134
sS'CharacterOffsetEnd'
p1535
S'105'
p1536
sS'Lemma'
p1537
S'the'
p1538
sS'PartOfSpeech'
p1539
S'DT'
p1540
sS'CharacterOffsetBegin'
p1541
S'102'
p1542
stp1543
a(S'United'
p1544
(dp1545
S'NamedEntityTag'
p1546
S'LOCATION'
p1547
sS'CharacterOffsetEnd'
p1548
S'112'
p1549
sS'Lemma'
p1550
S'United'
p1551
sS'PartOfSpeech'
p1552
S'NNP'
p1553
sS'CharacterOffsetBegin'
p1554
S'106'
p1555
stp1556
a(S'States'
p1557
(dp1558
S'NamedEntityTag'
p1559
S'LOCATION'
p1560
sS'CharacterOffsetEnd'
p1561
S'119'
p1562
sS'Lemma'
p1563
S'States'
p1564
sS'PartOfSpeech'
p1565
S'NNPS'
p1566
sS'CharacterOffsetBegin'
p1567
S'113'
p1568
stp1569
a(S'if'
p1570
(dp1571
S'NamedEntityTag'
p1572
g134
sS'CharacterOffsetEnd'
p1573
S'122'
p1574
sS'Lemma'
p1575
S'if'
p1576
sS'PartOfSpeech'
p1577
S'IN'
p1578
sS'CharacterOffsetBegin'
p1579
S'120'
p1580
stp1581
a(g1214
(dp1582
S'NamedEntityTag'
p1583
g134
sS'CharacterOffsetEnd'
p1584
S'124'
p1585
sS'Lemma'
p1586
g1214
sS'PartOfSpeech'
p1587
S'DT'
p1588
sS'CharacterOffsetBegin'
p1589
S'123'
p1590
stp1591
a(S'dispute'
p1592
(dp1593
S'NamedEntityTag'
p1594
g134
sS'CharacterOffsetEnd'
p1595
S'132'
p1596
sS'Lemma'
p1597
S'dispute'
p1598
sS'PartOfSpeech'
p1599
S'NN'
p1600
sS'CharacterOffsetBegin'
p1601
S'125'
p1602
stp1603
a(S'over'
p1604
(dp1605
S'NamedEntityTag'
p1606
g134
sS'CharacterOffsetEnd'
p1607
S'137'
p1608
sS'Lemma'
p1609
S'over'
p1610
sS'PartOfSpeech'
p1611
S'IN'
p1612
sS'CharacterOffsetBegin'
p1613
S'133'
p1614
stp1615
a(S'nuclear'
p1616
(dp1617
S'NamedEntityTag'
p1618
g134
sS'CharacterOffsetEnd'
p1619
S'145'
p1620
sS'Lemma'
p1621
S'nuclear'
p1622
sS'PartOfSpeech'
p1623
S'JJ'
p1624
sS'CharacterOffsetBegin'
p1625
S'138'
p1626
stp1627
a(S'inspections'
p1628
(dp1629
S'NamedEntityTag'
p1630
g134
sS'CharacterOffsetEnd'
p1631
S'157'
p1632
sS'Lemma'
p1633
S'inspection'
p1634
sS'PartOfSpeech'
p1635
S'NNS'
p1636
sS'CharacterOffsetBegin'
p1637
S'146'
p1638
stp1639
a(S'comes'
p1640
(dp1641
S'NamedEntityTag'
p1642
g134
sS'CharacterOffsetEnd'
p1643
S'163'
p1644
sS'Lemma'
p1645
S'come'
p1646
sS'PartOfSpeech'
p1647
S'VBZ'
p1648
sS'CharacterOffsetBegin'
p1649
S'158'
p1650
stp1651
a(S'to'
p1652
(dp1653
S'NamedEntityTag'
p1654
g134
sS'CharacterOffsetEnd'
p1655
S'166'
p1656
sS'Lemma'
p1657
S'to'
p1658
sS'PartOfSpeech'
p1659
S'TO'
p1660
sS'CharacterOffsetBegin'
p1661
S'164'
p1662
stp1663
a(S'blows'
p1664
(dp1665
S'NamedEntityTag'
p1666
g134
sS'CharacterOffsetEnd'
p1667
S'172'
p1668
sS'Lemma'
p1669
S'blow'
p1670
sS'PartOfSpeech'
p1671
S'NNS'
p1672
sS'CharacterOffsetBegin'
p1673
S'167'
p1674
stp1675
a(g757
(dp1676
S'NamedEntityTag'
p1677
g134
sS'CharacterOffsetEnd'
p1678
S'173'
p1679
sS'Lemma'
p1680
g757
sS'PartOfSpeech'
p1681
g757
sS'CharacterOffsetBegin'
p1682
S'172'
p1683
stp1684
asa(dp1685
g7
S'(ROOT (S (NP (NP (DT The) (NNPS Norths)) (SBAR (S (NP (ADJP (JJ official) (JJ Korean)) (NNP Central) (NNP News) (NNP Agency)) (VP (VBD reported) (SBAR (IN that) (S (NP (NP (ADJP (JJ North) (JJ Korean)) (NNS soldiers) (CC and) (NNS people)) (PP (IN of) (NP (DT all)))) (VP (VBZ walks))))))) (PP (IN of) (NP (NN life)))) (VP (VBD were) (PP (IN on) (NP (NP (JJ full) (NN alert)) (PP (IN for) (NP (NN war)))))) (. .)))'
p1686
sg9
S'The Norths official Korean Central News Agency reported that North Korean soldiers and people of all walks of life were on full alert for war.'
p1687
sg11
(lp1688
(S'root'
p1689
S'ROOT'
p1690
S'were'
p1691
tp1692
a(S'det'
p1693
S'Norths'
p1694
S'The'
p1695
tp1696
a(S'nsubj'
p1697
S'were'
p1698
S'Norths'
p1699
tp1700
a(S'amod'
p1701
S'Korean'
p1702
S'official'
p1703
tp1704
a(S'amod'
p1705
S'Agency'
p1706
S'Korean'
p1707
tp1708
a(S'nn'
p1709
S'Agency'
p1710
S'Central'
p1711
tp1712
a(S'nn'
p1713
S'Agency'
p1714
S'News'
p1715
tp1716
a(S'nsubj'
p1717
S'reported'
p1718
S'Agency'
p1719
tp1720
a(S'rcmod'
p1721
S'Norths'
p1722
S'reported'
p1723
tp1724
a(S'mark'
p1725
S'walks'
p1726
S'that'
p1727
tp1728
a(S'amod'
p1729
S'Korean'
p1730
S'North'
p1731
tp1732
a(S'amod'
p1733
S'soldiers'
p1734
S'Korean'
p1735
tp1736
a(S'nsubj'
p1737
S'walks'
p1738
S'soldiers'
p1739
tp1740
a(S'conj_and'
p1741
S'soldiers'
p1742
S'people'
p1743
tp1744
a(S'prep_of'
p1745
S'soldiers'
p1746
S'all'
p1747
tp1748
a(S'ccomp'
p1749
S'reported'
p1750
S'walks'
p1751
tp1752
a(S'prep_of'
p1753
S'Norths'
p1754
S'life'
p1755
tp1756
a(S'amod'
p1757
S'alert'
p1758
S'full'
p1759
tp1760
a(S'prep_on'
p1761
S'were'
p1762
S'alert'
p1763
tp1764
a(S'prep_for'
p1765
S'alert'
p1766
S'war'
p1767
tp1768
asg58
(lp1769
(g1689
S'ROOT-0'
p1770
S'were-20'
p1771
tp1772
a(g1693
S'Norths-2'
p1773
S'The-1'
p1774
tp1775
a(g1697
S'were-20'
p1776
S'Norths-2'
p1777
tp1778
a(g1701
S'Korean-4'
p1779
S'official-3'
p1780
tp1781
a(g1705
S'Agency-7'
p1782
S'Korean-4'
p1783
tp1784
a(g1709
S'Agency-7'
p1785
S'Central-5'
p1786
tp1787
a(g1713
S'Agency-7'
p1788
S'News-6'
p1789
tp1790
a(g1717
S'reported-8'
p1791
S'Agency-7'
p1792
tp1793
a(g1721
S'Norths-2'
p1794
S'reported-8'
p1795
tp1796
a(g1725
S'walks-17'
p1797
S'that-9'
p1798
tp1799
a(g1729
S'Korean-11'
p1800
S'North-10'
p1801
tp1802
a(g1733
S'soldiers-12'
p1803
S'Korean-11'
p1804
tp1805
a(g1737
S'walks-17'
p1806
S'soldiers-12'
p1807
tp1808
a(g1741
S'soldiers-12'
p1809
S'people-14'
p1810
tp1811
a(g1745
S'soldiers-12'
p1812
S'all-16'
p1813
tp1814
a(g1749
S'reported-8'
p1815
S'walks-17'
p1816
tp1817
a(g1753
S'Norths-2'
p1818
S'life-19'
p1819
tp1820
a(g1757
S'alert-23'
p1821
S'full-22'
p1822
tp1823
a(g1761
S'were-20'
p1824
S'alert-23'
p1825
tp1826
a(g1765
S'alert-23'
p1827
S'war-25'
p1828
tp1829
asg96
(lp1830
(S'The'
p1831
(dp1832
S'NamedEntityTag'
p1833
g134
sS'CharacterOffsetEnd'
p1834
S'177'
p1835
sS'Lemma'
p1836
S'the'
p1837
sS'PartOfSpeech'
p1838
S'DT'
p1839
sS'CharacterOffsetBegin'
p1840
S'174'
p1841
stp1842
a(S'Norths'
p1843
(dp1844
S'NamedEntityTag'
p1845
S'MISC'
p1846
sS'CharacterOffsetEnd'
p1847
S'184'
p1848
sS'Lemma'
p1849
S'Norths'
p1850
sS'PartOfSpeech'
p1851
S'NNPS'
p1852
sS'CharacterOffsetBegin'
p1853
S'178'
p1854
stp1855
a(S'official'
p1856
(dp1857
S'NamedEntityTag'
p1858
g134
sS'CharacterOffsetEnd'
p1859
S'193'
p1860
sS'Lemma'
p1861
S'official'
p1862
sS'PartOfSpeech'
p1863
S'JJ'
p1864
sS'CharacterOffsetBegin'
p1865
S'185'
p1866
stp1867
a(S'Korean'
p1868
(dp1869
S'NamedEntityTag'
p1870
S'ORGANIZATION'
p1871
sS'CharacterOffsetEnd'
p1872
S'200'
p1873
sS'Lemma'
p1874
S'korean'
p1875
sS'PartOfSpeech'
p1876
S'JJ'
p1877
sS'CharacterOffsetBegin'
p1878
S'194'
p1879
stp1880
a(S'Central'
p1881
(dp1882
S'NamedEntityTag'
p1883
S'ORGANIZATION'
p1884
sS'CharacterOffsetEnd'
p1885
S'208'
p1886
sS'Lemma'
p1887
S'Central'
p1888
sS'PartOfSpeech'
p1889
S'NNP'
p1890
sS'CharacterOffsetBegin'
p1891
S'201'
p1892
stp1893
a(S'News'
p1894
(dp1895
S'NamedEntityTag'
p1896
S'ORGANIZATION'
p1897
sS'CharacterOffsetEnd'
p1898
S'213'
p1899
sS'Lemma'
p1900
S'News'
p1901
sS'PartOfSpeech'
p1902
S'NNP'
p1903
sS'CharacterOffsetBegin'
p1904
S'209'
p1905
stp1906
a(S'Agency'
p1907
(dp1908
S'NamedEntityTag'
p1909
S'ORGANIZATION'
p1910
sS'CharacterOffsetEnd'
p1911
S'220'
p1912
sS'Lemma'
p1913
S'Agency'
p1914
sS'PartOfSpeech'
p1915
S'NNP'
p1916
sS'CharacterOffsetBegin'
p1917
S'214'
p1918
stp1919
a(S'reported'
p1920
(dp1921
S'NamedEntityTag'
p1922
g134
sS'CharacterOffsetEnd'
p1923
S'229'
p1924
sS'Lemma'
p1925
S'report'
p1926
sS'PartOfSpeech'
p1927
S'VBD'
p1928
sS'CharacterOffsetBegin'
p1929
S'221'
p1930
stp1931
a(S'that'
p1932
(dp1933
S'NamedEntityTag'
p1934
g134
sS'CharacterOffsetEnd'
p1935
S'234'
p1936
sS'Lemma'
p1937
S'that'
p1938
sS'PartOfSpeech'
p1939
S'IN'
p1940
sS'CharacterOffsetBegin'
p1941
S'230'
p1942
stp1943
a(S'North'
p1944
(dp1945
S'NamedEntityTag'
p1946
S'MISC'
p1947
sS'CharacterOffsetEnd'
p1948
S'240'
p1949
sS'Lemma'
p1950
S'north'
p1951
sS'PartOfSpeech'
p1952
S'JJ'
p1953
sS'CharacterOffsetBegin'
p1954
S'235'
p1955
stp1956
a(S'Korean'
p1957
(dp1958
S'NamedEntityTag'
p1959
S'MISC'
p1960
sS'CharacterOffsetEnd'
p1961
S'247'
p1962
sS'Lemma'
p1963
S'korean'
p1964
sS'PartOfSpeech'
p1965
S'JJ'
p1966
sS'CharacterOffsetBegin'
p1967
S'241'
p1968
stp1969
a(S'soldiers'
p1970
(dp1971
S'NamedEntityTag'
p1972
g134
sS'CharacterOffsetEnd'
p1973
S'256'
p1974
sS'Lemma'
p1975
S'soldier'
p1976
sS'PartOfSpeech'
p1977
S'NNS'
p1978
sS'CharacterOffsetBegin'
p1979
S'248'
p1980
stp1981
a(S'and'
p1982
(dp1983
S'NamedEntityTag'
p1984
g134
sS'CharacterOffsetEnd'
p1985
S'260'
p1986
sS'Lemma'
p1987
S'and'
p1988
sS'PartOfSpeech'
p1989
S'CC'
p1990
sS'CharacterOffsetBegin'
p1991
S'257'
p1992
stp1993
a(S'people'
p1994
(dp1995
S'NamedEntityTag'
p1996
g134
sS'CharacterOffsetEnd'
p1997
S'267'
p1998
sS'Lemma'
p1999
S'people'
p2000
sS'PartOfSpeech'
p2001
S'NNS'
p2002
sS'CharacterOffsetBegin'
p2003
S'261'
p2004
stp2005
a(S'of'
p2006
(dp2007
S'NamedEntityTag'
p2008
g134
sS'CharacterOffsetEnd'
p2009
S'270'
p2010
sS'Lemma'
p2011
S'of'
p2012
sS'PartOfSpeech'
p2013
S'IN'
p2014
sS'CharacterOffsetBegin'
p2015
S'268'
p2016
stp2017
a(S'all'
p2018
(dp2019
S'NamedEntityTag'
p2020
g134
sS'CharacterOffsetEnd'
p2021
S'274'
p2022
sS'Lemma'
p2023
S'all'
p2024
sS'PartOfSpeech'
p2025
S'DT'
p2026
sS'CharacterOffsetBegin'
p2027
S'271'
p2028
stp2029
a(S'walks'
p2030
(dp2031
S'NamedEntityTag'
p2032
g134
sS'CharacterOffsetEnd'
p2033
S'280'
p2034
sS'Lemma'
p2035
S'walk'
p2036
sS'PartOfSpeech'
p2037
S'VBZ'
p2038
sS'CharacterOffsetBegin'
p2039
S'275'
p2040
stp2041
a(S'of'
p2042
(dp2043
S'NamedEntityTag'
p2044
g134
sS'CharacterOffsetEnd'
p2045
S'283'
p2046
sS'Lemma'
p2047
S'of'
p2048
sS'PartOfSpeech'
p2049
S'IN'
p2050
sS'CharacterOffsetBegin'
p2051
S'281'
p2052
stp2053
a(S'life'
p2054
(dp2055
S'NamedEntityTag'
p2056
g134
sS'CharacterOffsetEnd'
p2057
S'288'
p2058
sS'Lemma'
p2059
S'life'
p2060
sS'PartOfSpeech'
p2061
S'NN'
p2062
sS'CharacterOffsetBegin'
p2063
S'284'
p2064
stp2065
a(S'were'
p2066
(dp2067
S'NamedEntityTag'
p2068
g134
sS'CharacterOffsetEnd'
p2069
S'293'
p2070
sS'Lemma'
p2071
S'be'
p2072
sS'PartOfSpeech'
p2073
S'VBD'
p2074
sS'CharacterOffsetBegin'
p2075
S'289'
p2076
stp2077
a(S'on'
p2078
(dp2079
S'NamedEntityTag'
p2080
g134
sS'CharacterOffsetEnd'
p2081
S'296'
p2082
sS'Lemma'
p2083
S'on'
p2084
sS'PartOfSpeech'
p2085
S'IN'
p2086
sS'CharacterOffsetBegin'
p2087
S'294'
p2088
stp2089
a(S'full'
p2090
(dp2091
S'NamedEntityTag'
p2092
g134
sS'CharacterOffsetEnd'
p2093
S'301'
p2094
sS'Lemma'
p2095
S'full'
p2096
sS'PartOfSpeech'
p2097
S'JJ'
p2098
sS'CharacterOffsetBegin'
p2099
S'297'
p2100
stp2101
a(S'alert'
p2102
(dp2103
S'NamedEntityTag'
p2104
g134
sS'CharacterOffsetEnd'
p2105
S'307'
p2106
sS'Lemma'
p2107
S'alert'
p2108
sS'PartOfSpeech'
p2109
S'NN'
p2110
sS'CharacterOffsetBegin'
p2111
S'302'
p2112
stp2113
a(S'for'
p2114
(dp2115
S'NamedEntityTag'
p2116
g134
sS'CharacterOffsetEnd'
p2117
S'311'
p2118
sS'Lemma'
p2119
S'for'
p2120
sS'PartOfSpeech'
p2121
S'IN'
p2122
sS'CharacterOffsetBegin'
p2123
S'308'
p2124
stp2125
a(S'war'
p2126
(dp2127
S'NamedEntityTag'
p2128
g134
sS'CharacterOffsetEnd'
p2129
S'315'
p2130
sS'Lemma'
p2131
S'war'
p2132
sS'PartOfSpeech'
p2133
S'NN'
p2134
sS'CharacterOffsetBegin'
p2135
S'312'
p2136
stp2137
a(g757
(dp2138
S'NamedEntityTag'
p2139
g134
sS'CharacterOffsetEnd'
p2140
S'316'
p2141
sS'Lemma'
p2142
g757
sS'PartOfSpeech'
p2143
g757
sS'CharacterOffsetBegin'
p2144
S'315'
p2145
stp2146
asa(dp2147
g7
S'(ROOT (S (NP (NNP North) (NNP Korea)) (ADVP (RB typically)) (VP (VBZ sends) (PRT (RP out)) (NP (NP (JJ belligerent) (NN rhetoric)) (, ,) (SBAR (WHADVP (RB especially) (WRB when)) (S (NP (PRP it)) (VP (VBZ enters) (NP (JJ high-stake) (NNS talks)) (PP (IN with) (NP (NNP Washington)))))))) (. .)))'
p2148
sg9
S'North Korea typically sends out belligerent rhetoric, especially when it enters high-stake talks with Washington.'
p2149
sg11
(lp2150
(S'root'
p2151
S'ROOT'
p2152
S'sends'
p2153
tp2154
a(S'nn'
p2155
S'Korea'
p2156
S'North'
p2157
tp2158
a(S'nsubj'
p2159
S'sends'
p2160
S'Korea'
p2161
tp2162
a(S'advmod'
p2163
S'sends'
p2164
S'typically'
p2165
tp2166
a(S'prt'
p2167
S'sends'
p2168
S'out'
p2169
tp2170
a(S'amod'
p2171
S'rhetoric'
p2172
S'belligerent'
p2173
tp2174
a(S'dobj'
p2175
S'sends'
p2176
S'rhetoric'
p2177
tp2178
a(S'advmod'
p2179
S'when'
p2180
S'especially'
p2181
tp2182
a(S'advmod'
p2183
S'enters'
p2184
S'when'
p2185
tp2186
a(S'nsubj'
p2187
S'enters'
p2188
S'it'
p2189
tp2190
a(S'rcmod'
p2191
S'rhetoric'
p2192
S'enters'
p2193
tp2194
a(S'amod'
p2195
S'talks'
p2196
S'high-stake'
p2197
tp2198
a(S'dobj'
p2199
S'enters'
p2200
S'talks'
p2201
tp2202
a(S'prep_with'
p2203
S'enters'
p2204
S'Washington'
p2205
tp2206
asg58
(lp2207
(g2151
S'ROOT-0'
p2208
S'sends-4'
p2209
tp2210
a(g2155
S'Korea-2'
p2211
S'North-1'
p2212
tp2213
a(g2159
S'sends-4'
p2214
S'Korea-2'
p2215
tp2216
a(g2163
S'sends-4'
p2217
S'typically-3'
p2218
tp2219
a(g2167
S'sends-4'
p2220
S'out-5'
p2221
tp2222
a(g2171
S'rhetoric-7'
p2223
S'belligerent-6'
p2224
tp2225
a(g2175
S'sends-4'
p2226
S'rhetoric-7'
p2227
tp2228
a(g2179
S'when-10'
p2229
S'especially-9'
p2230
tp2231
a(g2183
S'enters-12'
p2232
S'when-10'
p2233
tp2234
a(g2187
S'enters-12'
p2235
S'it-11'
p2236
tp2237
a(g2191
S'rhetoric-7'
p2238
S'enters-12'
p2239
tp2240
a(g2195
S'talks-14'
p2241
S'high-stake-13'
p2242
tp2243
a(g2199
S'enters-12'
p2244
S'talks-14'
p2245
tp2246
a(g2203
S'enters-12'
p2247
S'Washington-16'
p2248
tp2249
asg96
(lp2250
(S'North'
p2251
(dp2252
S'NamedEntityTag'
p2253
S'LOCATION'
p2254
sS'CharacterOffsetEnd'
p2255
S'322'
p2256
sS'Lemma'
p2257
S'North'
p2258
sS'PartOfSpeech'
p2259
S'NNP'
p2260
sS'CharacterOffsetBegin'
p2261
S'317'
p2262
stp2263
a(S'Korea'
p2264
(dp2265
S'NamedEntityTag'
p2266
S'LOCATION'
p2267
sS'CharacterOffsetEnd'
p2268
S'328'
p2269
sS'Lemma'
p2270
S'Korea'
p2271
sS'PartOfSpeech'
p2272
S'NNP'
p2273
sS'CharacterOffsetBegin'
p2274
S'323'
p2275
stp2276
a(S'typically'
p2277
(dp2278
S'NamedEntityTag'
p2279
g134
sS'CharacterOffsetEnd'
p2280
S'338'
p2281
sS'Lemma'
p2282
S'typically'
p2283
sS'PartOfSpeech'
p2284
S'RB'
p2285
sS'CharacterOffsetBegin'
p2286
S'329'
p2287
stp2288
a(S'sends'
p2289
(dp2290
S'NamedEntityTag'
p2291
g134
sS'CharacterOffsetEnd'
p2292
S'344'
p2293
sS'Lemma'
p2294
S'send'
p2295
sS'PartOfSpeech'
p2296
S'VBZ'
p2297
sS'CharacterOffsetBegin'
p2298
S'339'
p2299
stp2300
a(S'out'
p2301
(dp2302
S'NamedEntityTag'
p2303
g134
sS'CharacterOffsetEnd'
p2304
S'348'
p2305
sS'Lemma'
p2306
S'out'
p2307
sS'PartOfSpeech'
p2308
S'RP'
p2309
sS'CharacterOffsetBegin'
p2310
S'345'
p2311
stp2312
a(S'belligerent'
p2313
(dp2314
S'NamedEntityTag'
p2315
g134
sS'CharacterOffsetEnd'
p2316
S'360'
p2317
sS'Lemma'
p2318
S'belligerent'
p2319
sS'PartOfSpeech'
p2320
S'JJ'
p2321
sS'CharacterOffsetBegin'
p2322
S'349'
p2323
stp2324
a(S'rhetoric'
p2325
(dp2326
S'NamedEntityTag'
p2327
g134
sS'CharacterOffsetEnd'
p2328
S'369'
p2329
sS'Lemma'
p2330
S'rhetoric'
p2331
sS'PartOfSpeech'
p2332
S'NN'
p2333
sS'CharacterOffsetBegin'
p2334
S'361'
p2335
stp2336
a(S','
p2337
(dp2338
S'NamedEntityTag'
p2339
g134
sS'CharacterOffsetEnd'
p2340
S'370'
p2341
sS'Lemma'
p2342
g2337
sS'PartOfSpeech'
p2343
g2337
sS'CharacterOffsetBegin'
p2344
S'369'
p2345
stp2346
a(S'especially'
p2347
(dp2348
S'NamedEntityTag'
p2349
g134
sS'CharacterOffsetEnd'
p2350
S'381'
p2351
sS'Lemma'
p2352
S'especially'
p2353
sS'PartOfSpeech'
p2354
S'RB'
p2355
sS'CharacterOffsetBegin'
p2356
S'371'
p2357
stp2358
a(S'when'
p2359
(dp2360
S'NamedEntityTag'
p2361
g134
sS'CharacterOffsetEnd'
p2362
S'386'
p2363
sS'Lemma'
p2364
S'when'
p2365
sS'PartOfSpeech'
p2366
S'WRB'
p2367
sS'CharacterOffsetBegin'
p2368
S'382'
p2369
stp2370
a(S'it'
p2371
(dp2372
S'NamedEntityTag'
p2373
g134
sS'CharacterOffsetEnd'
p2374
S'389'
p2375
sS'Lemma'
p2376
S'it'
p2377
sS'PartOfSpeech'
p2378
S'PRP'
p2379
sS'CharacterOffsetBegin'
p2380
S'387'
p2381
stp2382
a(S'enters'
p2383
(dp2384
S'NamedEntityTag'
p2385
g134
sS'CharacterOffsetEnd'
p2386
S'396'
p2387
sS'Lemma'
p2388
S'enter'
p2389
sS'PartOfSpeech'
p2390
S'VBZ'
p2391
sS'CharacterOffsetBegin'
p2392
S'390'
p2393
stp2394
a(S'high-stake'
p2395
(dp2396
S'NamedEntityTag'
p2397
g134
sS'CharacterOffsetEnd'
p2398
S'407'
p2399
sS'Lemma'
p2400
S'high-stake'
p2401
sS'PartOfSpeech'
p2402
S'JJ'
p2403
sS'CharacterOffsetBegin'
p2404
S'397'
p2405
stp2406
a(S'talks'
p2407
(dp2408
S'NamedEntityTag'
p2409
g134
sS'CharacterOffsetEnd'
p2410
S'413'
p2411
sS'Lemma'
p2412
S'talk'
p2413
sS'PartOfSpeech'
p2414
S'NNS'
p2415
sS'CharacterOffsetBegin'
p2416
S'408'
p2417
stp2418
a(S'with'
p2419
(dp2420
S'NamedEntityTag'
p2421
g134
sS'CharacterOffsetEnd'
p2422
S'418'
p2423
sS'Lemma'
p2424
S'with'
p2425
sS'PartOfSpeech'
p2426
S'IN'
p2427
sS'CharacterOffsetBegin'
p2428
S'414'
p2429
stp2430
a(S'Washington'
p2431
(dp2432
S'NamedEntityTag'
p2433
S'LOCATION'
p2434
sS'CharacterOffsetEnd'
p2435
S'429'
p2436
sS'Lemma'
p2437
S'Washington'
p2438
sS'PartOfSpeech'
p2439
S'NNP'
p2440
sS'CharacterOffsetBegin'
p2441
S'419'
p2442
stp2443
a(g757
(dp2444
S'NamedEntityTag'
p2445
g134
sS'CharacterOffsetEnd'
p2446
S'430'
p2447
sS'Lemma'
p2448
g757
sS'PartOfSpeech'
p2449
g757
sS'CharacterOffsetBegin'
p2450
S'429'
p2451
stp2452
asa(dp2453
g7
S'(ROOT (S (NP (NP (DT The) (NNP United) (NNPS States)) (CC and) (NP (NNP North) (NNP Korea))) (VP (VBP are) (VP (VBN set) (S (VP (TO to) (VP (VB resume) (NP (NNS talks)) (NP-TMP (NNP Friday)) (PP (IN about) (NP (NP (NNS inspections)) (PP (IN of) (NP (NP (DT an) (JJ underground) (ADJP (JJ North) (JJ Korean)) (NN site)) (VP (VBN suspected) (PP (IN of) (S (VP (VBG being) (VP (VBN used) (S (VP (TO to) (VP (VB produce) (NP (JJ nuclear) (NNS weapons))))))))))))))))))) (. .)))'
p2454
sg9
S'The United States and North Korea are set to resume talks Friday about inspections of an underground North Korean site suspected of being used to produce nuclear weapons.'
p2455
sg11
(lp2456
(S'root'
p2457
S'ROOT'
p2458
S'set'
p2459
tp2460
a(S'det'
p2461
S'States'
p2462
S'The'
p2463
tp2464
a(S'nn'
p2465
S'States'
p2466
S'United'
p2467
tp2468
a(S'nsubjpass'
p2469
S'set'
p2470
S'States'
p2471
tp2472
a(S'nn'
p2473
S'Korea'
p2474
S'North'
p2475
tp2476
a(S'conj_and'
p2477
S'States'
p2478
S'Korea'
p2479
tp2480
a(S'auxpass'
p2481
S'set'
p2482
S'are'
p2483
tp2484
a(S'aux'
p2485
S'resume'
p2486
S'to'
p2487
tp2488
a(S'xcomp'
p2489
S'set'
p2490
S'resume'
p2491
tp2492
a(S'dobj'
p2493
S'resume'
p2494
S'talks'
p2495
tp2496
a(S'tmod'
p2497
S'resume'
p2498
S'Friday'
p2499
tp2500
a(S'prep_about'
p2501
S'resume'
p2502
S'inspections'
p2503
tp2504
a(S'det'
p2505
S'site'
p2506
S'an'
p2507
tp2508
a(S'amod'
p2509
S'site'
p2510
S'underground'
p2511
tp2512
a(S'amod'
p2513
S'Korean'
p2514
S'North'
p2515
tp2516
a(S'amod'
p2517
S'site'
p2518
S'Korean'
p2519
tp2520
a(S'prep_of'
p2521
S'inspections'
p2522
S'site'
p2523
tp2524
a(S'partmod'
p2525
S'site'
p2526
S'suspected'
p2527
tp2528
a(S'auxpass'
p2529
S'used'
p2530
S'being'
p2531
tp2532
a(S'prepc_of'
p2533
S'suspected'
p2534
S'used'
p2535
tp2536
a(S'aux'
p2537
S'produce'
p2538
S'to'
p2539
tp2540
a(S'xcomp'
p2541
S'used'
p2542
S'produce'
p2543
tp2544
a(S'amod'
p2545
S'weapons'
p2546
S'nuclear'
p2547
tp2548
a(S'dobj'
p2549
S'produce'
p2550
S'weapons'
p2551
tp2552
asg58
(lp2553
(g2457
S'ROOT-0'
p2554
S'set-8'
p2555
tp2556
a(g2461
S'States-3'
p2557
S'The-1'
p2558
tp2559
a(g2465
S'States-3'
p2560
S'United-2'
p2561
tp2562
a(g2469
S'set-8'
p2563
S'States-3'
p2564
tp2565
a(g2473
S'Korea-6'
p2566
S'North-5'
p2567
tp2568
a(g2477
S'States-3'
p2569
S'Korea-6'
p2570
tp2571
a(g2481
S'set-8'
p2572
S'are-7'
p2573
tp2574
a(g2485
S'resume-10'
p2575
S'to-9'
p2576
tp2577
a(g2489
S'set-8'
p2578
S'resume-10'
p2579
tp2580
a(g2493
S'resume-10'
p2581
S'talks-11'
p2582
tp2583
a(g2497
S'resume-10'
p2584
S'Friday-12'
p2585
tp2586
a(g2501
S'resume-10'
p2587
S'inspections-14'
p2588
tp2589
a(g2505
S'site-20'
p2590
S'an-16'
p2591
tp2592
a(g2509
S'site-20'
p2593
S'underground-17'
p2594
tp2595
a(g2513
S'Korean-19'
p2596
S'North-18'
p2597
tp2598
a(g2517
S'site-20'
p2599
S'Korean-19'
p2600
tp2601
a(g2521
S'inspections-14'
p2602
S'site-20'
p2603
tp2604
a(g2525
S'site-20'
p2605
S'suspected-21'
p2606
tp2607
a(g2529
S'used-24'
p2608
S'being-23'
p2609
tp2610
a(g2533
S'suspected-21'
p2611
S'used-24'
p2612
tp2613
a(g2537
S'produce-26'
p2614
S'to-25'
p2615
tp2616
a(g2541
S'used-24'
p2617
S'produce-26'
p2618
tp2619
a(g2545
S'weapons-28'
p2620
S'nuclear-27'
p2621
tp2622
a(g2549
S'produce-26'
p2623
S'weapons-28'
p2624
tp2625
asg96
(lp2626
(S'The'
p2627
(dp2628
S'NamedEntityTag'
p2629
g134
sS'CharacterOffsetEnd'
p2630
S'434'
p2631
sS'Lemma'
p2632
S'the'
p2633
sS'PartOfSpeech'
p2634
S'DT'
p2635
sS'CharacterOffsetBegin'
p2636
S'431'
p2637
stp2638
a(S'United'
p2639
(dp2640
S'NamedEntityTag'
p2641
S'LOCATION'
p2642
sS'CharacterOffsetEnd'
p2643
S'441'
p2644
sS'Lemma'
p2645
S'United'
p2646
sS'PartOfSpeech'
p2647
S'NNP'
p2648
sS'CharacterOffsetBegin'
p2649
S'435'
p2650
stp2651
a(S'States'
p2652
(dp2653
S'NamedEntityTag'
p2654
S'LOCATION'
p2655
sS'CharacterOffsetEnd'
p2656
S'448'
p2657
sS'Lemma'
p2658
S'States'
p2659
sS'PartOfSpeech'
p2660
S'NNPS'
p2661
sS'CharacterOffsetBegin'
p2662
S'442'
p2663
stp2664
a(S'and'
p2665
(dp2666
S'NamedEntityTag'
p2667
g134
sS'CharacterOffsetEnd'
p2668
S'452'
p2669
sS'Lemma'
p2670
S'and'
p2671
sS'PartOfSpeech'
p2672
S'CC'
p2673
sS'CharacterOffsetBegin'
p2674
S'449'
p2675
stp2676
a(S'North'
p2677
(dp2678
S'NamedEntityTag'
p2679
S'LOCATION'
p2680
sS'CharacterOffsetEnd'
p2681
S'458'
p2682
sS'Lemma'
p2683
S'North'
p2684
sS'PartOfSpeech'
p2685
S'NNP'
p2686
sS'CharacterOffsetBegin'
p2687
S'453'
p2688
stp2689
a(S'Korea'
p2690
(dp2691
S'NamedEntityTag'
p2692
S'LOCATION'
p2693
sS'CharacterOffsetEnd'
p2694
S'464'
p2695
sS'Lemma'
p2696
S'Korea'
p2697
sS'PartOfSpeech'
p2698
S'NNP'
p2699
sS'CharacterOffsetBegin'
p2700
S'459'
p2701
stp2702
a(S'are'
p2703
(dp2704
S'NamedEntityTag'
p2705
g134
sS'CharacterOffsetEnd'
p2706
S'468'
p2707
sS'Lemma'
p2708
S'be'
p2709
sS'PartOfSpeech'
p2710
S'VBP'
p2711
sS'CharacterOffsetBegin'
p2712
S'465'
p2713
stp2714
a(S'set'
p2715
(dp2716
S'NamedEntityTag'
p2717
g134
sS'CharacterOffsetEnd'
p2718
S'472'
p2719
sS'Lemma'
p2720
S'set'
p2721
sS'PartOfSpeech'
p2722
S'VBN'
p2723
sS'CharacterOffsetBegin'
p2724
S'469'
p2725
stp2726
a(S'to'
p2727
(dp2728
S'NamedEntityTag'
p2729
g134
sS'CharacterOffsetEnd'
p2730
S'475'
p2731
sS'Lemma'
p2732
S'to'
p2733
sS'PartOfSpeech'
p2734
S'TO'
p2735
sS'CharacterOffsetBegin'
p2736
S'473'
p2737
stp2738
a(S'resume'
p2739
(dp2740
S'NamedEntityTag'
p2741
g134
sS'CharacterOffsetEnd'
p2742
S'482'
p2743
sS'Lemma'
p2744
S'resume'
p2745
sS'PartOfSpeech'
p2746
S'VB'
p2747
sS'CharacterOffsetBegin'
p2748
S'476'
p2749
stp2750
a(S'talks'
p2751
(dp2752
S'NamedEntityTag'
p2753
g134
sS'CharacterOffsetEnd'
p2754
S'488'
p2755
sS'Lemma'
p2756
S'talk'
p2757
sS'PartOfSpeech'
p2758
S'NNS'
p2759
sS'CharacterOffsetBegin'
p2760
S'483'
p2761
stp2762
a(S'Friday'
p2763
(dp2764
S'NormalizedNamedEntityTag'
p2765
S'XXXX-WXX-5'
p2766
sS'Timex'
p2767
S'<TIMEX3 tid="t2" type="DATE" value="XXXX-WXX-5">Friday</TIMEX3>'
p2768
sS'Lemma'
p2769
S'Friday'
p2770
sS'CharacterOffsetEnd'
p2771
S'495'
p2772
sS'PartOfSpeech'
p2773
S'NNP'
p2774
sS'CharacterOffsetBegin'
p2775
S'489'
p2776
sS'NamedEntityTag'
p2777
S'DATE'
p2778
stp2779
a(S'about'
p2780
(dp2781
S'NamedEntityTag'
p2782
g134
sS'CharacterOffsetEnd'
p2783
S'501'
p2784
sS'Lemma'
p2785
S'about'
p2786
sS'PartOfSpeech'
p2787
S'IN'
p2788
sS'CharacterOffsetBegin'
p2789
S'496'
p2790
stp2791
a(S'inspections'
p2792
(dp2793
S'NamedEntityTag'
p2794
g134
sS'CharacterOffsetEnd'
p2795
S'513'
p2796
sS'Lemma'
p2797
S'inspection'
p2798
sS'PartOfSpeech'
p2799
S'NNS'
p2800
sS'CharacterOffsetBegin'
p2801
S'502'
p2802
stp2803
a(S'of'
p2804
(dp2805
S'NamedEntityTag'
p2806
g134
sS'CharacterOffsetEnd'
p2807
S'516'
p2808
sS'Lemma'
p2809
S'of'
p2810
sS'PartOfSpeech'
p2811
S'IN'
p2812
sS'CharacterOffsetBegin'
p2813
S'514'
p2814
stp2815
a(S'an'
p2816
(dp2817
S'NamedEntityTag'
p2818
g134
sS'CharacterOffsetEnd'
p2819
S'519'
p2820
sS'Lemma'
p2821
g1214
sS'PartOfSpeech'
p2822
S'DT'
p2823
sS'CharacterOffsetBegin'
p2824
S'517'
p2825
stp2826
a(S'underground'
p2827
(dp2828
S'NamedEntityTag'
p2829
g134
sS'CharacterOffsetEnd'
p2830
S'531'
p2831
sS'Lemma'
p2832
S'underground'
p2833
sS'PartOfSpeech'
p2834
S'JJ'
p2835
sS'CharacterOffsetBegin'
p2836
S'520'
p2837
stp2838
a(S'North'
p2839
(dp2840
S'NamedEntityTag'
p2841
S'MISC'
p2842
sS'CharacterOffsetEnd'
p2843
S'537'
p2844
sS'Lemma'
p2845
S'north'
p2846
sS'PartOfSpeech'
p2847
S'JJ'
p2848
sS'CharacterOffsetBegin'
p2849
S'532'
p2850
stp2851
a(S'Korean'
p2852
(dp2853
S'NamedEntityTag'
p2854
S'MISC'
p2855
sS'CharacterOffsetEnd'
p2856
S'544'
p2857
sS'Lemma'
p2858
S'korean'
p2859
sS'PartOfSpeech'
p2860
S'JJ'
p2861
sS'CharacterOffsetBegin'
p2862
S'538'
p2863
stp2864
a(S'site'
p2865
(dp2866
S'NamedEntityTag'
p2867
g134
sS'CharacterOffsetEnd'
p2868
S'549'
p2869
sS'Lemma'
p2870
S'site'
p2871
sS'PartOfSpeech'
p2872
S'NN'
p2873
sS'CharacterOffsetBegin'
p2874
S'545'
p2875
stp2876
a(S'suspected'
p2877
(dp2878
S'NamedEntityTag'
p2879
g134
sS'CharacterOffsetEnd'
p2880
S'559'
p2881
sS'Lemma'
p2882
S'suspect'
p2883
sS'PartOfSpeech'
p2884
S'VBN'
p2885
sS'CharacterOffsetBegin'
p2886
S'550'
p2887
stp2888
a(S'of'
p2889
(dp2890
S'NamedEntityTag'
p2891
g134
sS'CharacterOffsetEnd'
p2892
S'562'
p2893
sS'Lemma'
p2894
S'of'
p2895
sS'PartOfSpeech'
p2896
S'IN'
p2897
sS'CharacterOffsetBegin'
p2898
S'560'
p2899
stp2900
a(S'being'
p2901
(dp2902
S'NamedEntityTag'
p2903
g134
sS'CharacterOffsetEnd'
p2904
S'568'
p2905
sS'Lemma'
p2906
S'be'
p2907
sS'PartOfSpeech'
p2908
S'VBG'
p2909
sS'CharacterOffsetBegin'
p2910
S'563'
p2911
stp2912
a(S'used'
p2913
(dp2914
S'NamedEntityTag'
p2915
g134
sS'CharacterOffsetEnd'
p2916
S'573'
p2917
sS'Lemma'
p2918
S'use'
p2919
sS'PartOfSpeech'
p2920
S'VBN'
p2921
sS'CharacterOffsetBegin'
p2922
S'569'
p2923
stp2924
a(S'to'
p2925
(dp2926
S'NamedEntityTag'
p2927
g134
sS'CharacterOffsetEnd'
p2928
S'576'
p2929
sS'Lemma'
p2930
S'to'
p2931
sS'PartOfSpeech'
p2932
S'TO'
p2933
sS'CharacterOffsetBegin'
p2934
S'574'
p2935
stp2936
a(S'produce'
p2937
(dp2938
S'NamedEntityTag'
p2939
g134
sS'CharacterOffsetEnd'
p2940
S'584'
p2941
sS'Lemma'
p2942
S'produce'
p2943
sS'PartOfSpeech'
p2944
S'VB'
p2945
sS'CharacterOffsetBegin'
p2946
S'577'
p2947
stp2948
a(S'nuclear'
p2949
(dp2950
S'NamedEntityTag'
p2951
g134
sS'CharacterOffsetEnd'
p2952
S'592'
p2953
sS'Lemma'
p2954
S'nuclear'
p2955
sS'PartOfSpeech'
p2956
S'JJ'
p2957
sS'CharacterOffsetBegin'
p2958
S'585'
p2959
stp2960
a(S'weapons'
p2961
(dp2962
S'NamedEntityTag'
p2963
g134
sS'CharacterOffsetEnd'
p2964
S'600'
p2965
sS'Lemma'
p2966
S'weapon'
p2967
sS'PartOfSpeech'
p2968
S'NNS'
p2969
sS'CharacterOffsetBegin'
p2970
S'593'
p2971
stp2972
a(g757
(dp2973
S'NamedEntityTag'
p2974
g134
sS'CharacterOffsetEnd'
p2975
S'601'
p2976
sS'Lemma'
p2977
g757
sS'PartOfSpeech'
p2978
g757
sS'CharacterOffsetBegin'
p2979
S'600'
p2980
stp2981
asa(dp2982
g7
S'(ROOT (S (NP (NNP KCNA) (NNS broadcasts)) (VP (VBD brimmed) (PP (IN with) (NP (JJ anti-American) (NN saber-rattling)))) (. .)))'
p2983
sg9
S'KCNA broadcasts brimmed with anti-American saber-rattling.'
p2984
sg11
(lp2985
(S'root'
p2986
S'ROOT'
p2987
S'brimmed'
p2988
tp2989
a(S'nn'
p2990
S'broadcasts'
p2991
S'KCNA'
p2992
tp2993
a(S'nsubj'
p2994
S'brimmed'
p2995
S'broadcasts'
p2996
tp2997
a(S'amod'
p2998
S'saber-rattling'
p2999
S'anti-American'
p3000
tp3001
a(S'prep_with'
p3002
S'brimmed'
p3003
S'saber-rattling'
p3004
tp3005
asg58
(lp3006
(g2986
S'ROOT-0'
p3007
S'brimmed-3'
p3008
tp3009
a(g2990
S'broadcasts-2'
p3010
S'KCNA-1'
p3011
tp3012
a(g2994
S'brimmed-3'
p3013
S'broadcasts-2'
p3014
tp3015
a(g2998
S'saber-rattling-6'
p3016
S'anti-American-5'
p3017
tp3018
a(g3002
S'brimmed-3'
p3019
S'saber-rattling-6'
p3020
tp3021
asg96
(lp3022
(S'KCNA'
p3023
(dp3024
S'NamedEntityTag'
p3025
S'ORGANIZATION'
p3026
sS'CharacterOffsetEnd'
p3027
S'606'
p3028
sS'Lemma'
p3029
S'KCNA'
p3030
sS'PartOfSpeech'
p3031
S'NNP'
p3032
sS'CharacterOffsetBegin'
p3033
S'602'
p3034
stp3035
a(S'broadcasts'
p3036
(dp3037
S'NamedEntityTag'
p3038
g134
sS'CharacterOffsetEnd'
p3039
S'617'
p3040
sS'Lemma'
p3041
S'broadcast'
p3042
sS'PartOfSpeech'
p3043
S'NNS'
p3044
sS'CharacterOffsetBegin'
p3045
S'607'
p3046
stp3047
a(S'brimmed'
p3048
(dp3049
S'NamedEntityTag'
p3050
g134
sS'CharacterOffsetEnd'
p3051
S'625'
p3052
sS'Lemma'
p3053
S'brim'
p3054
sS'PartOfSpeech'
p3055
S'VBD'
p3056
sS'CharacterOffsetBegin'
p3057
S'618'
p3058
stp3059
a(S'with'
p3060
(dp3061
S'NamedEntityTag'
p3062
g134
sS'CharacterOffsetEnd'
p3063
S'630'
p3064
sS'Lemma'
p3065
S'with'
p3066
sS'PartOfSpeech'
p3067
S'IN'
p3068
sS'CharacterOffsetBegin'
p3069
S'626'
p3070
stp3071
a(S'anti-American'
p3072
(dp3073
S'NamedEntityTag'
p3074
g134
sS'CharacterOffsetEnd'
p3075
S'644'
p3076
sS'Lemma'
p3077
S'anti-american'
p3078
sS'PartOfSpeech'
p3079
S'JJ'
p3080
sS'CharacterOffsetBegin'
p3081
S'631'
p3082
stp3083
a(S'saber-rattling'
p3084
(dp3085
S'NamedEntityTag'
p3086
g134
sS'CharacterOffsetEnd'
p3087
S'659'
p3088
sS'Lemma'
p3089
S'saber-rattling'
p3090
sS'PartOfSpeech'
p3091
S'NN'
p3092
sS'CharacterOffsetBegin'
p3093
S'645'
p3094
stp3095
a(g757
(dp3096
S'NamedEntityTag'
p3097
g134
sS'CharacterOffsetEnd'
p3098
S'660'
p3099
sS'Lemma'
p3100
g757
sS'PartOfSpeech'
p3101
g757
sS'CharacterOffsetBegin'
p3102
S'659'
p3103
stp3104
asa(dp3105
g7
S'(ROOT (S (S (NP (PRP$ Our) (NNP Peoples) (NNP Army)) (VP (MD will) (VP (VB blow) (PRT (RP up)) (NP (NP (DT the) (NNP U.S.) (NN territory)) (PP (IN as) (NP (DT a) (JJ whole)))) (SBAR (IN if) (S (NP (DT the) (NNP United) (NNPS States)) (VP (VBZ starts) (NP (NP (DT a) (NN war)) (PP (IN on) (NP (DT the) (JJ divided) (JJ Korean) (NNP Peninsula)))))))))) (, ,) (NP (NNP Vice) (NNP Defense) (NNP Minister) (NNP Jong) (NNP Chang) (NNP Ryol)) (VP (VBD was) (VP (VBN quoted) (PP (IN as) (S (VP (VBG saying) (NP-TMP (NNP Thursday))))))) (. .)))'
p3106
sg9
S'Our Peoples Army will blow up the U.S. territory as a whole if the United States starts a war on the divided Korean Peninsula, Vice Defense Minister Jong Chang Ryol was quoted as saying Thursday.'
p3107
sg11
(lp3108
(S'root'
p3109
S'ROOT'
p3110
S'quoted'
p3111
tp3112
a(S'poss'
p3113
S'Army'
p3114
S'Our'
p3115
tp3116
a(S'nn'
p3117
S'Army'
p3118
S'Peoples'
p3119
tp3120
a(S'nsubj'
p3121
S'blow'
p3122
S'Army'
p3123
tp3124
a(S'aux'
p3125
S'blow'
p3126
S'will'
p3127
tp3128
a(S'ccomp'
p3129
S'quoted'
p3130
S'blow'
p3131
tp3132
a(S'prt'
p3133
S'blow'
p3134
S'up'
p3135
tp3136
a(S'det'
p3137
S'territory'
p3138
S'the'
p3139
tp3140
a(S'nn'
p3141
S'territory'
p3142
S'U.S.'
p3143
tp3144
a(S'dobj'
p3145
S'blow'
p3146
S'territory'
p3147
tp3148
a(S'det'
p3149
S'whole'
p3150
g1214
tp3151
a(S'prep_as'
p3152
S'territory'
p3153
S'whole'
p3154
tp3155
a(S'mark'
p3156
S'starts'
p3157
S'if'
p3158
tp3159
a(S'det'
p3160
S'States'
p3161
S'the'
p3162
tp3163
a(S'nn'
p3164
S'States'
p3165
S'United'
p3166
tp3167
a(S'nsubj'
p3168
S'starts'
p3169
S'States'
p3170
tp3171
a(S'advcl'
p3172
S'blow'
p3173
S'starts'
p3174
tp3175
a(S'det'
p3176
S'war'
p3177
g1214
tp3178
a(S'dobj'
p3179
S'starts'
p3180
S'war'
p3181
tp3182
a(S'det'
p3183
S'Peninsula'
p3184
S'the'
p3185
tp3186
a(S'amod'
p3187
S'Peninsula'
p3188
S'divided'
p3189
tp3190
a(S'amod'
p3191
S'Peninsula'
p3192
S'Korean'
p3193
tp3194
a(S'prep_on'
p3195
S'war'
p3196
S'Peninsula'
p3197
tp3198
a(S'nn'
p3199
S'Ryol'
p3200
S'Vice'
p3201
tp3202
a(S'nn'
p3203
S'Ryol'
p3204
S'Defense'
p3205
tp3206
a(S'nn'
p3207
S'Ryol'
p3208
S'Minister'
p3209
tp3210
a(S'nn'
p3211
S'Ryol'
p3212
S'Jong'
p3213
tp3214
a(S'nn'
p3215
S'Ryol'
p3216
S'Chang'
p3217
tp3218
a(S'nsubjpass'
p3219
S'quoted'
p3220
S'Ryol'
p3221
tp3222
a(S'auxpass'
p3223
S'quoted'
p3224
S'was'
p3225
tp3226
a(S'prepc_as'
p3227
S'quoted'
p3228
S'saying'
p3229
tp3230
a(S'tmod'
p3231
S'saying'
p3232
S'Thursday'
p3233
tp3234
asg58
(lp3235
(g3109
S'ROOT-0'
p3236
S'quoted-33'
p3237
tp3238
a(g3113
S'Army-3'
p3239
S'Our-1'
p3240
tp3241
a(g3117
S'Army-3'
p3242
S'Peoples-2'
p3243
tp3244
a(g3121
S'blow-5'
p3245
S'Army-3'
p3246
tp3247
a(g3125
S'blow-5'
p3248
S'will-4'
p3249
tp3250
a(g3129
S'quoted-33'
p3251
S'blow-5'
p3252
tp3253
a(g3133
S'blow-5'
p3254
S'up-6'
p3255
tp3256
a(g3137
S'territory-9'
p3257
S'the-7'
p3258
tp3259
a(g3141
S'territory-9'
p3260
S'U.S.-8'
p3261
tp3262
a(g3145
S'blow-5'
p3263
S'territory-9'
p3264
tp3265
a(g3149
S'whole-12'
p3266
S'a-11'
p3267
tp3268
a(g3152
S'territory-9'
p3269
S'whole-12'
p3270
tp3271
a(g3156
S'starts-17'
p3272
S'if-13'
p3273
tp3274
a(g3160
S'States-16'
p3275
S'the-14'
p3276
tp3277
a(g3164
S'States-16'
p3278
S'United-15'
p3279
tp3280
a(g3168
S'starts-17'
p3281
S'States-16'
p3282
tp3283
a(g3172
S'blow-5'
p3284
S'starts-17'
p3285
tp3286
a(g3176
S'war-19'
p3287
S'a-18'
p3288
tp3289
a(g3179
S'starts-17'
p3290
S'war-19'
p3291
tp3292
a(g3183
S'Peninsula-24'
p3293
S'the-21'
p3294
tp3295
a(g3187
S'Peninsula-24'
p3296
S'divided-22'
p3297
tp3298
a(g3191
S'Peninsula-24'
p3299
S'Korean-23'
p3300
tp3301
a(g3195
S'war-19'
p3302
S'Peninsula-24'
p3303
tp3304
a(g3199
S'Ryol-31'
p3305
S'Vice-26'
p3306
tp3307
a(g3203
S'Ryol-31'
p3308
S'Defense-27'
p3309
tp3310
a(g3207
S'Ryol-31'
p3311
S'Minister-28'
p3312
tp3313
a(g3211
S'Ryol-31'
p3314
S'Jong-29'
p3315
tp3316
a(g3215
S'Ryol-31'
p3317
S'Chang-30'
p3318
tp3319
a(g3219
S'quoted-33'
p3320
S'Ryol-31'
p3321
tp3322
a(g3223
S'quoted-33'
p3323
S'was-32'
p3324
tp3325
a(g3227
S'quoted-33'
p3326
S'saying-35'
p3327
tp3328
a(g3231
S'saying-35'
p3329
S'Thursday-36'
p3330
tp3331
asg96
(lp3332
(S'Our'
p3333
(dp3334
S'NamedEntityTag'
p3335
g134
sS'CharacterOffsetEnd'
p3336
S'664'
p3337
sS'Lemma'
p3338
S'we'
p3339
sS'PartOfSpeech'
p3340
S'PRP$'
p3341
sS'CharacterOffsetBegin'
p3342
S'661'
p3343
stp3344
a(S'Peoples'
p3345
(dp3346
S'NamedEntityTag'
p3347
g134
sS'CharacterOffsetEnd'
p3348
S'672'
p3349
sS'Lemma'
p3350
S'Peoples'
p3351
sS'PartOfSpeech'
p3352
S'NNP'
p3353
sS'CharacterOffsetBegin'
p3354
S'665'
p3355
stp3356
a(S'Army'
p3357
(dp3358
S'NamedEntityTag'
p3359
g134
sS'CharacterOffsetEnd'
p3360
S'677'
p3361
sS'Lemma'
p3362
S'Army'
p3363
sS'PartOfSpeech'
p3364
S'NNP'
p3365
sS'CharacterOffsetBegin'
p3366
S'673'
p3367
stp3368
a(S'will'
p3369
(dp3370
S'NamedEntityTag'
p3371
g134
sS'CharacterOffsetEnd'
p3372
S'682'
p3373
sS'Lemma'
p3374
S'will'
p3375
sS'PartOfSpeech'
p3376
S'MD'
p3377
sS'CharacterOffsetBegin'
p3378
S'678'
p3379
stp3380
a(S'blow'
p3381
(dp3382
S'NamedEntityTag'
p3383
g134
sS'CharacterOffsetEnd'
p3384
S'687'
p3385
sS'Lemma'
p3386
S'blow'
p3387
sS'PartOfSpeech'
p3388
S'VB'
p3389
sS'CharacterOffsetBegin'
p3390
S'683'
p3391
stp3392
a(S'up'
p3393
(dp3394
S'NamedEntityTag'
p3395
g134
sS'CharacterOffsetEnd'
p3396
S'690'
p3397
sS'Lemma'
p3398
S'up'
p3399
sS'PartOfSpeech'
p3400
S'RP'
p3401
sS'CharacterOffsetBegin'
p3402
S'688'
p3403
stp3404
a(S'the'
p3405
(dp3406
S'NamedEntityTag'
p3407
g134
sS'CharacterOffsetEnd'
p3408
S'694'
p3409
sS'Lemma'
p3410
S'the'
p3411
sS'PartOfSpeech'
p3412
S'DT'
p3413
sS'CharacterOffsetBegin'
p3414
S'691'
p3415
stp3416
a(S'U.S.'
p3417
(dp3418
S'NamedEntityTag'
p3419
S'LOCATION'
p3420
sS'CharacterOffsetEnd'
p3421
S'699'
p3422
sS'Lemma'
p3423
S'U.S.'
p3424
sS'PartOfSpeech'
p3425
S'NNP'
p3426
sS'CharacterOffsetBegin'
p3427
S'695'
p3428
stp3429
a(S'territory'
p3430
(dp3431
S'NamedEntityTag'
p3432
g134
sS'CharacterOffsetEnd'
p3433
S'709'
p3434
sS'Lemma'
p3435
S'territory'
p3436
sS'PartOfSpeech'
p3437
S'NN'
p3438
sS'CharacterOffsetBegin'
p3439
S'700'
p3440
stp3441
a(S'as'
p3442
(dp3443
S'NamedEntityTag'
p3444
g134
sS'CharacterOffsetEnd'
p3445
S'712'
p3446
sS'Lemma'
p3447
S'as'
p3448
sS'PartOfSpeech'
p3449
S'IN'
p3450
sS'CharacterOffsetBegin'
p3451
S'710'
p3452
stp3453
a(g1214
(dp3454
S'NamedEntityTag'
p3455
g134
sS'CharacterOffsetEnd'
p3456
S'714'
p3457
sS'Lemma'
p3458
g1214
sS'PartOfSpeech'
p3459
S'DT'
p3460
sS'CharacterOffsetBegin'
p3461
S'713'
p3462
stp3463
a(S'whole'
p3464
(dp3465
S'NamedEntityTag'
p3466
g134
sS'CharacterOffsetEnd'
p3467
S'720'
p3468
sS'Lemma'
p3469
S'whole'
p3470
sS'PartOfSpeech'
p3471
S'JJ'
p3472
sS'CharacterOffsetBegin'
p3473
S'715'
p3474
stp3475
a(S'if'
p3476
(dp3477
S'NamedEntityTag'
p3478
g134
sS'CharacterOffsetEnd'
p3479
S'723'
p3480
sS'Lemma'
p3481
S'if'
p3482
sS'PartOfSpeech'
p3483
S'IN'
p3484
sS'CharacterOffsetBegin'
p3485
S'721'
p3486
stp3487
a(S'the'
p3488
(dp3489
S'NamedEntityTag'
p3490
g134
sS'CharacterOffsetEnd'
p3491
S'727'
p3492
sS'Lemma'
p3493
S'the'
p3494
sS'PartOfSpeech'
p3495
S'DT'
p3496
sS'CharacterOffsetBegin'
p3497
S'724'
p3498
stp3499
a(S'United'
p3500
(dp3501
S'NamedEntityTag'
p3502
S'LOCATION'
p3503
sS'CharacterOffsetEnd'
p3504
S'734'
p3505
sS'Lemma'
p3506
S'United'
p3507
sS'PartOfSpeech'
p3508
S'NNP'
p3509
sS'CharacterOffsetBegin'
p3510
S'728'
p3511
stp3512
a(S'States'
p3513
(dp3514
S'NamedEntityTag'
p3515
S'LOCATION'
p3516
sS'CharacterOffsetEnd'
p3517
S'741'
p3518
sS'Lemma'
p3519
S'States'
p3520
sS'PartOfSpeech'
p3521
S'NNPS'
p3522
sS'CharacterOffsetBegin'
p3523
S'735'
p3524
stp3525
a(S'starts'
p3526
(dp3527
S'NamedEntityTag'
p3528
g134
sS'CharacterOffsetEnd'
p3529
S'748'
p3530
sS'Lemma'
p3531
S'start'
p3532
sS'PartOfSpeech'
p3533
S'VBZ'
p3534
sS'CharacterOffsetBegin'
p3535
S'742'
p3536
stp3537
a(g1214
(dp3538
S'NamedEntityTag'
p3539
g134
sS'CharacterOffsetEnd'
p3540
S'750'
p3541
sS'Lemma'
p3542
g1214
sS'PartOfSpeech'
p3543
S'DT'
p3544
sS'CharacterOffsetBegin'
p3545
S'749'
p3546
stp3547
a(S'war'
p3548
(dp3549
S'NamedEntityTag'
p3550
g134
sS'CharacterOffsetEnd'
p3551
S'754'
p3552
sS'Lemma'
p3553
S'war'
p3554
sS'PartOfSpeech'
p3555
S'NN'
p3556
sS'CharacterOffsetBegin'
p3557
S'751'
p3558
stp3559
a(S'on'
p3560
(dp3561
S'NamedEntityTag'
p3562
g134
sS'CharacterOffsetEnd'
p3563
S'757'
p3564
sS'Lemma'
p3565
S'on'
p3566
sS'PartOfSpeech'
p3567
S'IN'
p3568
sS'CharacterOffsetBegin'
p3569
S'755'
p3570
stp3571
a(S'the'
p3572
(dp3573
S'NamedEntityTag'
p3574
g134
sS'CharacterOffsetEnd'
p3575
S'761'
p3576
sS'Lemma'
p3577
S'the'
p3578
sS'PartOfSpeech'
p3579
S'DT'
p3580
sS'CharacterOffsetBegin'
p3581
S'758'
p3582
stp3583
a(S'divided'
p3584
(dp3585
S'NamedEntityTag'
p3586
g134
sS'CharacterOffsetEnd'
p3587
S'769'
p3588
sS'Lemma'
p3589
S'divided'
p3590
sS'PartOfSpeech'
p3591
S'JJ'
p3592
sS'CharacterOffsetBegin'
p3593
S'762'
p3594
stp3595
a(S'Korean'
p3596
(dp3597
S'NamedEntityTag'
p3598
S'LOCATION'
p3599
sS'CharacterOffsetEnd'
p3600
S'776'
p3601
sS'Lemma'
p3602
S'korean'
p3603
sS'PartOfSpeech'
p3604
S'JJ'
p3605
sS'CharacterOffsetBegin'
p3606
S'770'
p3607
stp3608
a(S'Peninsula'
p3609
(dp3610
S'NamedEntityTag'
p3611
S'LOCATION'
p3612
sS'CharacterOffsetEnd'
p3613
S'786'
p3614
sS'Lemma'
p3615
S'Peninsula'
p3616
sS'PartOfSpeech'
p3617
S'NNP'
p3618
sS'CharacterOffsetBegin'
p3619
S'777'
p3620
stp3621
a(g2337
(dp3622
S'NamedEntityTag'
p3623
g134
sS'CharacterOffsetEnd'
p3624
S'787'
p3625
sS'Lemma'
p3626
g2337
sS'PartOfSpeech'
p3627
g2337
sS'CharacterOffsetBegin'
p3628
S'786'
p3629
stp3630
a(S'Vice'
p3631
(dp3632
S'NamedEntityTag'
p3633
g134
sS'CharacterOffsetEnd'
p3634
S'792'
p3635
sS'Lemma'
p3636
S'Vice'
p3637
sS'PartOfSpeech'
p3638
S'NNP'
p3639
sS'CharacterOffsetBegin'
p3640
S'788'
p3641
stp3642
a(S'Defense'
p3643
(dp3644
S'NamedEntityTag'
p3645
g134
sS'CharacterOffsetEnd'
p3646
S'800'
p3647
sS'Lemma'
p3648
S'Defense'
p3649
sS'PartOfSpeech'
p3650
S'NNP'
p3651
sS'CharacterOffsetBegin'
p3652
S'793'
p3653
stp3654
a(S'Minister'
p3655
(dp3656
S'NamedEntityTag'
p3657
g134
sS'CharacterOffsetEnd'
p3658
S'809'
p3659
sS'Lemma'
p3660
S'Minister'
p3661
sS'PartOfSpeech'
p3662
S'NNP'
p3663
sS'CharacterOffsetBegin'
p3664
S'801'
p3665
stp3666
a(S'Jong'
p3667
(dp3668
S'NamedEntityTag'
p3669
S'PERSON'
p3670
sS'CharacterOffsetEnd'
p3671
S'814'
p3672
sS'Lemma'
p3673
S'Jong'
p3674
sS'PartOfSpeech'
p3675
S'NNP'
p3676
sS'CharacterOffsetBegin'
p3677
S'810'
p3678
stp3679
a(S'Chang'
p3680
(dp3681
S'NamedEntityTag'
p3682
S'PERSON'
p3683
sS'CharacterOffsetEnd'
p3684
S'820'
p3685
sS'Lemma'
p3686
S'Chang'
p3687
sS'PartOfSpeech'
p3688
S'NNP'
p3689
sS'CharacterOffsetBegin'
p3690
S'815'
p3691
stp3692
a(S'Ryol'
p3693
(dp3694
S'NamedEntityTag'
p3695
S'PERSON'
p3696
sS'CharacterOffsetEnd'
p3697
S'825'
p3698
sS'Lemma'
p3699
S'Ryol'
p3700
sS'PartOfSpeech'
p3701
S'NNP'
p3702
sS'CharacterOffsetBegin'
p3703
S'821'
p3704
stp3705
a(S'was'
p3706
(dp3707
S'NamedEntityTag'
p3708
g134
sS'CharacterOffsetEnd'
p3709
S'829'
p3710
sS'Lemma'
p3711
S'be'
p3712
sS'PartOfSpeech'
p3713
S'VBD'
p3714
sS'CharacterOffsetBegin'
p3715
S'826'
p3716
stp3717
a(S'quoted'
p3718
(dp3719
S'NamedEntityTag'
p3720
g134
sS'CharacterOffsetEnd'
p3721
S'836'
p3722
sS'Lemma'
p3723
S'quote'
p3724
sS'PartOfSpeech'
p3725
S'VBN'
p3726
sS'CharacterOffsetBegin'
p3727
S'830'
p3728
stp3729
a(S'as'
p3730
(dp3731
S'NamedEntityTag'
p3732
g134
sS'CharacterOffsetEnd'
p3733
S'839'
p3734
sS'Lemma'
p3735
S'as'
p3736
sS'PartOfSpeech'
p3737
S'IN'
p3738
sS'CharacterOffsetBegin'
p3739
S'837'
p3740
stp3741
a(S'saying'
p3742
(dp3743
S'NamedEntityTag'
p3744
g134
sS'CharacterOffsetEnd'
p3745
S'846'
p3746
sS'Lemma'
p3747
S'say'
p3748
sS'PartOfSpeech'
p3749
S'VBG'
p3750
sS'CharacterOffsetBegin'
p3751
S'840'
p3752
stp3753
a(S'Thursday'
p3754
(dp3755
S'NormalizedNamedEntityTag'
p3756
S'XXXX-WXX-4'
p3757
sS'Timex'
p3758
S'<TIMEX3 tid="t1" type="DATE" value="XXXX-WXX-4">Thursday</TIMEX3>'
p3759
sS'Lemma'
p3760
S'Thursday'
p3761
sS'CharacterOffsetEnd'
p3762
S'855'
p3763
sS'PartOfSpeech'
p3764
S'NNP'
p3765
sS'CharacterOffsetBegin'
p3766
S'847'
p3767
sS'NamedEntityTag'
p3768
S'DATE'
p3769
stp3770
a(g757
(dp3771
S'NamedEntityTag'
p3772
g134
sS'CharacterOffsetEnd'
p3773
S'856'
p3774
sS'Lemma'
p3775
g757
sS'PartOfSpeech'
p3776
g757
sS'CharacterOffsetBegin'
p3777
S'855'
p3778
stp3779
asa(dp3780
g7
S'(ROOT (S (NP (NP (DT The) (JJ general) (NN staff)) (PP (IN of) (NP (DT the) (ADJP (JJ North) (JJ Korean)) (JJ military)))) (VP (VBN accused) (NP (NP (NNP Washington)) (PP (IN on) (NP (NP (NNP Wednesday)) (PP (IN of) (S (VP (VBG pushing) (NP (NP (DT the) (NN situation)) (PP (IN in) (NP (NNP Korea)))) (PP (TO to) (NP (NP (DT the) (NN brink)) (PP (IN of) (NP (NN war))))) (PP (IN by) (S (VP (VBG demanding) (NP (NP (NNS inspections) (CC and) (NNS talks)) (VP (VBN aimed) (PP (IN at) (S (VP (VBG preventing) (NP (NNP Pyongyang)) (PP (IN from) (S (VP (VBG developing) (NP (NP (JJ nuclear) (NNS weapons)) (CC and) (NP (JJ long-range) (NNS missiles))))))))))))))))))))) (. .)))'
p3781
sg9
S'The general staff of the North Korean military accused Washington on Wednesday of pushing the situation in Korea to the brink of war by demanding inspections and talks aimed at preventing Pyongyang from developing nuclear weapons and long-range missiles.'
p3782
sg11
(lp3783
(S'root'
p3784
S'ROOT'
p3785
S'accused'
p3786
tp3787
a(S'det'
p3788
S'staff'
p3789
S'The'
p3790
tp3791
a(S'amod'
p3792
S'staff'
p3793
S'general'
p3794
tp3795
a(S'nsubj'
p3796
S'accused'
p3797
S'staff'
p3798
tp3799
a(S'det'
p3800
S'Korean'
p3801
S'the'
p3802
tp3803
a(S'amod'
p3804
S'Korean'
p3805
S'North'
p3806
tp3807
a(S'prep_of'
p3808
S'staff'
p3809
S'Korean'
p3810
tp3811
a(S'amod'
p3812
S'Korean'
p3813
S'military'
p3814
tp3815
a(S'dobj'
p3816
S'accused'
p3817
S'Washington'
p3818
tp3819
a(S'prep_on'
p3820
S'Washington'
p3821
S'Wednesday'
p3822
tp3823
a(S'prepc_of'
p3824
S'Wednesday'
p3825
S'pushing'
p3826
tp3827
a(S'det'
p3828
S'situation'
p3829
S'the'
p3830
tp3831
a(S'dobj'
p3832
S'pushing'
p3833
S'situation'
p3834
tp3835
a(S'prep_in'
p3836
S'situation'
p3837
S'Korea'
p3838
tp3839
a(S'det'
p3840
S'brink'
p3841
S'the'
p3842
tp3843
a(S'prep_to'
p3844
S'pushing'
p3845
S'brink'
p3846
tp3847
a(S'prep_of'
p3848
S'brink'
p3849
S'war'
p3850
tp3851
a(S'prepc_by'
p3852
S'pushing'
p3853
S'demanding'
p3854
tp3855
a(S'dobj'
p3856
S'demanding'
p3857
S'inspections'
p3858
tp3859
a(S'conj_and'
p3860
S'inspections'
p3861
S'talks'
p3862
tp3863
a(S'partmod'
p3864
S'inspections'
p3865
S'aimed'
p3866
tp3867
a(S'prepc_at'
p3868
S'aimed'
p3869
S'preventing'
p3870
tp3871
a(S'dobj'
p3872
S'preventing'
p3873
S'Pyongyang'
p3874
tp3875
a(S'prepc_from'
p3876
S'preventing'
p3877
S'developing'
p3878
tp3879
a(S'amod'
p3880
S'weapons'
p3881
S'nuclear'
p3882
tp3883
a(S'dobj'
p3884
S'developing'
p3885
S'weapons'
p3886
tp3887
a(S'amod'
p3888
S'missiles'
p3889
S'long-range'
p3890
tp3891
a(S'conj_and'
p3892
S'weapons'
p3893
S'missiles'
p3894
tp3895
asg58
(lp3896
(g3784
S'ROOT-0'
p3897
S'accused-9'
p3898
tp3899
a(g3788
S'staff-3'
p3900
S'The-1'
p3901
tp3902
a(g3792
S'staff-3'
p3903
S'general-2'
p3904
tp3905
a(g3796
S'accused-9'
p3906
S'staff-3'
p3907
tp3908
a(g3800
S'Korean-7'
p3909
S'the-5'
p3910
tp3911
a(g3804
S'Korean-7'
p3912
S'North-6'
p3913
tp3914
a(g3808
S'staff-3'
p3915
S'Korean-7'
p3916
tp3917
a(g3812
S'Korean-7'
p3918
S'military-8'
p3919
tp3920
a(g3816
S'accused-9'
p3921
S'Washington-10'
p3922
tp3923
a(g3820
S'Washington-10'
p3924
S'Wednesday-12'
p3925
tp3926
a(g3824
S'Wednesday-12'
p3927
S'pushing-14'
p3928
tp3929
a(g3828
S'situation-16'
p3930
S'the-15'
p3931
tp3932
a(g3832
S'pushing-14'
p3933
S'situation-16'
p3934
tp3935
a(g3836
S'situation-16'
p3936
S'Korea-18'
p3937
tp3938
a(g3840
S'brink-21'
p3939
S'the-20'
p3940
tp3941
a(g3844
S'pushing-14'
p3942
S'brink-21'
p3943
tp3944
a(g3848
S'brink-21'
p3945
S'war-23'
p3946
tp3947
a(g3852
S'pushing-14'
p3948
S'demanding-25'
p3949
tp3950
a(g3856
S'demanding-25'
p3951
S'inspections-26'
p3952
tp3953
a(g3860
S'inspections-26'
p3954
S'talks-28'
p3955
tp3956
a(g3864
S'inspections-26'
p3957
S'aimed-29'
p3958
tp3959
a(g3868
S'aimed-29'
p3960
S'preventing-31'
p3961
tp3962
a(g3872
S'preventing-31'
p3963
S'Pyongyang-32'
p3964
tp3965
a(g3876
S'preventing-31'
p3966
S'developing-34'
p3967
tp3968
a(g3880
S'weapons-36'
p3969
S'nuclear-35'
p3970
tp3971
a(g3884
S'developing-34'
p3972
S'weapons-36'
p3973
tp3974
a(g3888
S'missiles-39'
p3975
S'long-range-38'
p3976
tp3977
a(g3892
S'weapons-36'
p3978
S'missiles-39'
p3979
tp3980
asg96
(lp3981
(S'The'
p3982
(dp3983
S'NamedEntityTag'
p3984
g134
sS'CharacterOffsetEnd'
p3985
S'860'
p3986
sS'Lemma'
p3987
S'the'
p3988
sS'PartOfSpeech'
p3989
S'DT'
p3990
sS'CharacterOffsetBegin'
p3991
S'857'
p3992
stp3993
a(S'general'
p3994
(dp3995
S'NamedEntityTag'
p3996
g134
sS'CharacterOffsetEnd'
p3997
S'868'
p3998
sS'Lemma'
p3999
S'general'
p4000
sS'PartOfSpeech'
p4001
S'JJ'
p4002
sS'CharacterOffsetBegin'
p4003
S'861'
p4004
stp4005
a(S'staff'
p4006
(dp4007
S'NamedEntityTag'
p4008
g134
sS'CharacterOffsetEnd'
p4009
S'874'
p4010
sS'Lemma'
p4011
S'staff'
p4012
sS'PartOfSpeech'
p4013
S'NN'
p4014
sS'CharacterOffsetBegin'
p4015
S'869'
p4016
stp4017
a(S'of'
p4018
(dp4019
S'NamedEntityTag'
p4020
g134
sS'CharacterOffsetEnd'
p4021
S'877'
p4022
sS'Lemma'
p4023
S'of'
p4024
sS'PartOfSpeech'
p4025
S'IN'
p4026
sS'CharacterOffsetBegin'
p4027
S'875'
p4028
stp4029
a(S'the'
p4030
(dp4031
S'NamedEntityTag'
p4032
g134
sS'CharacterOffsetEnd'
p4033
S'881'
p4034
sS'Lemma'
p4035
S'the'
p4036
sS'PartOfSpeech'
p4037
S'DT'
p4038
sS'CharacterOffsetBegin'
p4039
S'878'
p4040
stp4041
a(S'North'
p4042
(dp4043
S'NamedEntityTag'
p4044
S'MISC'
p4045
sS'CharacterOffsetEnd'
p4046
S'887'
p4047
sS'Lemma'
p4048
S'north'
p4049
sS'PartOfSpeech'
p4050
S'JJ'
p4051
sS'CharacterOffsetBegin'
p4052
S'882'
p4053
stp4054
a(S'Korean'
p4055
(dp4056
S'NamedEntityTag'
p4057
S'MISC'
p4058
sS'CharacterOffsetEnd'
p4059
S'894'
p4060
sS'Lemma'
p4061
S'korean'
p4062
sS'PartOfSpeech'
p4063
S'JJ'
p4064
sS'CharacterOffsetBegin'
p4065
S'888'
p4066
stp4067
a(S'military'
p4068
(dp4069
S'NamedEntityTag'
p4070
g134
sS'CharacterOffsetEnd'
p4071
S'903'
p4072
sS'Lemma'
p4073
S'military'
p4074
sS'PartOfSpeech'
p4075
S'JJ'
p4076
sS'CharacterOffsetBegin'
p4077
S'895'
p4078
stp4079
a(S'accused'
p4080
(dp4081
S'NamedEntityTag'
p4082
g134
sS'CharacterOffsetEnd'
p4083
S'911'
p4084
sS'Lemma'
p4085
S'accuse'
p4086
sS'PartOfSpeech'
p4087
S'VBN'
p4088
sS'CharacterOffsetBegin'
p4089
S'904'
p4090
stp4091
a(S'Washington'
p4092
(dp4093
S'NamedEntityTag'
p4094
S'LOCATION'
p4095
sS'CharacterOffsetEnd'
p4096
S'922'
p4097
sS'Lemma'
p4098
S'Washington'
p4099
sS'PartOfSpeech'
p4100
S'NNP'
p4101
sS'CharacterOffsetBegin'
p4102
S'912'
p4103
stp4104
a(S'on'
p4105
(dp4106
S'NamedEntityTag'
p4107
g134
sS'CharacterOffsetEnd'
p4108
S'925'
p4109
sS'Lemma'
p4110
S'on'
p4111
sS'PartOfSpeech'
p4112
S'IN'
p4113
sS'CharacterOffsetBegin'
p4114
S'923'
p4115
stp4116
a(S'Wednesday'
p4117
(dp4118
S'NormalizedNamedEntityTag'
p4119
S'XXXX-WXX-3'
p4120
sS'Timex'
p4121
S'<TIMEX3 tid="t3" type="DATE" value="XXXX-WXX-3">Wednesday</TIMEX3>'
p4122
sS'Lemma'
p4123
S'Wednesday'
p4124
sS'CharacterOffsetEnd'
p4125
S'935'
p4126
sS'PartOfSpeech'
p4127
S'NNP'
p4128
sS'CharacterOffsetBegin'
p4129
S'926'
p4130
sS'NamedEntityTag'
p4131
S'DATE'
p4132
stp4133
a(S'of'
p4134
(dp4135
S'NamedEntityTag'
p4136
g134
sS'CharacterOffsetEnd'
p4137
S'938'
p4138
sS'Lemma'
p4139
S'of'
p4140
sS'PartOfSpeech'
p4141
S'IN'
p4142
sS'CharacterOffsetBegin'
p4143
S'936'
p4144
stp4145
a(S'pushing'
p4146
(dp4147
S'NamedEntityTag'
p4148
g134
sS'CharacterOffsetEnd'
p4149
S'946'
p4150
sS'Lemma'
p4151
S'push'
p4152
sS'PartOfSpeech'
p4153
S'VBG'
p4154
sS'CharacterOffsetBegin'
p4155
S'939'
p4156
stp4157
a(S'the'
p4158
(dp4159
S'NamedEntityTag'
p4160
g134
sS'CharacterOffsetEnd'
p4161
S'950'
p4162
sS'Lemma'
p4163
S'the'
p4164
sS'PartOfSpeech'
p4165
S'DT'
p4166
sS'CharacterOffsetBegin'
p4167
S'947'
p4168
stp4169
a(S'situation'
p4170
(dp4171
S'NamedEntityTag'
p4172
g134
sS'CharacterOffsetEnd'
p4173
S'960'
p4174
sS'Lemma'
p4175
S'situation'
p4176
sS'PartOfSpeech'
p4177
S'NN'
p4178
sS'CharacterOffsetBegin'
p4179
S'951'
p4180
stp4181
a(S'in'
p4182
(dp4183
S'NamedEntityTag'
p4184
g134
sS'CharacterOffsetEnd'
p4185
S'963'
p4186
sS'Lemma'
p4187
S'in'
p4188
sS'PartOfSpeech'
p4189
S'IN'
p4190
sS'CharacterOffsetBegin'
p4191
S'961'
p4192
stp4193
a(S'Korea'
p4194
(dp4195
S'NamedEntityTag'
p4196
S'LOCATION'
p4197
sS'CharacterOffsetEnd'
p4198
S'969'
p4199
sS'Lemma'
p4200
S'Korea'
p4201
sS'PartOfSpeech'
p4202
S'NNP'
p4203
sS'CharacterOffsetBegin'
p4204
S'964'
p4205
stp4206
a(S'to'
p4207
(dp4208
S'NamedEntityTag'
p4209
g134
sS'CharacterOffsetEnd'
p4210
S'972'
p4211
sS'Lemma'
p4212
S'to'
p4213
sS'PartOfSpeech'
p4214
S'TO'
p4215
sS'CharacterOffsetBegin'
p4216
S'970'
p4217
stp4218
a(S'the'
p4219
(dp4220
S'NamedEntityTag'
p4221
g134
sS'CharacterOffsetEnd'
p4222
S'976'
p4223
sS'Lemma'
p4224
S'the'
p4225
sS'PartOfSpeech'
p4226
S'DT'
p4227
sS'CharacterOffsetBegin'
p4228
S'973'
p4229
stp4230
a(S'brink'
p4231
(dp4232
S'NamedEntityTag'
p4233
g134
sS'CharacterOffsetEnd'
p4234
S'982'
p4235
sS'Lemma'
p4236
S'brink'
p4237
sS'PartOfSpeech'
p4238
S'NN'
p4239
sS'CharacterOffsetBegin'
p4240
S'977'
p4241
stp4242
a(S'of'
p4243
(dp4244
S'NamedEntityTag'
p4245
g134
sS'CharacterOffsetEnd'
p4246
S'985'
p4247
sS'Lemma'
p4248
S'of'
p4249
sS'PartOfSpeech'
p4250
S'IN'
p4251
sS'CharacterOffsetBegin'
p4252
S'983'
p4253
stp4254
a(S'war'
p4255
(dp4256
S'NamedEntityTag'
p4257
g134
sS'CharacterOffsetEnd'
p4258
S'989'
p4259
sS'Lemma'
p4260
S'war'
p4261
sS'PartOfSpeech'
p4262
S'NN'
p4263
sS'CharacterOffsetBegin'
p4264
S'986'
p4265
stp4266
a(S'by'
p4267
(dp4268
S'NamedEntityTag'
p4269
g134
sS'CharacterOffsetEnd'
p4270
S'992'
p4271
sS'Lemma'
p4272
S'by'
p4273
sS'PartOfSpeech'
p4274
S'IN'
p4275
sS'CharacterOffsetBegin'
p4276
S'990'
p4277
stp4278
a(S'demanding'
p4279
(dp4280
S'NamedEntityTag'
p4281
g134
sS'CharacterOffsetEnd'
p4282
S'1002'
p4283
sS'Lemma'
p4284
S'demand'
p4285
sS'PartOfSpeech'
p4286
S'VBG'
p4287
sS'CharacterOffsetBegin'
p4288
S'993'
p4289
stp4290
a(S'inspections'
p4291
(dp4292
S'NamedEntityTag'
p4293
g134
sS'CharacterOffsetEnd'
p4294
S'1014'
p4295
sS'Lemma'
p4296
S'inspection'
p4297
sS'PartOfSpeech'
p4298
S'NNS'
p4299
sS'CharacterOffsetBegin'
p4300
S'1003'
p4301
stp4302
a(S'and'
p4303
(dp4304
S'NamedEntityTag'
p4305
g134
sS'CharacterOffsetEnd'
p4306
S'1018'
p4307
sS'Lemma'
p4308
S'and'
p4309
sS'PartOfSpeech'
p4310
S'CC'
p4311
sS'CharacterOffsetBegin'
p4312
S'1015'
p4313
stp4314
a(S'talks'
p4315
(dp4316
S'NamedEntityTag'
p4317
g134
sS'CharacterOffsetEnd'
p4318
S'1024'
p4319
sS'Lemma'
p4320
S'talk'
p4321
sS'PartOfSpeech'
p4322
S'NNS'
p4323
sS'CharacterOffsetBegin'
p4324
S'1019'
p4325
stp4326
a(S'aimed'
p4327
(dp4328
S'NamedEntityTag'
p4329
g134
sS'CharacterOffsetEnd'
p4330
S'1030'
p4331
sS'Lemma'
p4332
S'aim'
p4333
sS'PartOfSpeech'
p4334
S'VBN'
p4335
sS'CharacterOffsetBegin'
p4336
S'1025'
p4337
stp4338
a(S'at'
p4339
(dp4340
S'NamedEntityTag'
p4341
g134
sS'CharacterOffsetEnd'
p4342
S'1033'
p4343
sS'Lemma'
p4344
S'at'
p4345
sS'PartOfSpeech'
p4346
S'IN'
p4347
sS'CharacterOffsetBegin'
p4348
S'1031'
p4349
stp4350
a(S'preventing'
p4351
(dp4352
S'NamedEntityTag'
p4353
g134
sS'CharacterOffsetEnd'
p4354
S'1044'
p4355
sS'Lemma'
p4356
S'prevent'
p4357
sS'PartOfSpeech'
p4358
S'VBG'
p4359
sS'CharacterOffsetBegin'
p4360
S'1034'
p4361
stp4362
a(S'Pyongyang'
p4363
(dp4364
S'NamedEntityTag'
p4365
S'LOCATION'
p4366
sS'CharacterOffsetEnd'
p4367
S'1054'
p4368
sS'Lemma'
p4369
S'Pyongyang'
p4370
sS'PartOfSpeech'
p4371
S'NNP'
p4372
sS'CharacterOffsetBegin'
p4373
S'1045'
p4374
stp4375
a(S'from'
p4376
(dp4377
S'NamedEntityTag'
p4378
g134
sS'CharacterOffsetEnd'
p4379
S'1059'
p4380
sS'Lemma'
p4381
S'from'
p4382
sS'PartOfSpeech'
p4383
S'IN'
p4384
sS'CharacterOffsetBegin'
p4385
S'1055'
p4386
stp4387
a(S'developing'
p4388
(dp4389
S'NamedEntityTag'
p4390
g134
sS'CharacterOffsetEnd'
p4391
S'1070'
p4392
sS'Lemma'
p4393
S'develop'
p4394
sS'PartOfSpeech'
p4395
S'VBG'
p4396
sS'CharacterOffsetBegin'
p4397
S'1060'
p4398
stp4399
a(S'nuclear'
p4400
(dp4401
S'NamedEntityTag'
p4402
g134
sS'CharacterOffsetEnd'
p4403
S'1078'
p4404
sS'Lemma'
p4405
S'nuclear'
p4406
sS'PartOfSpeech'
p4407
S'JJ'
p4408
sS'CharacterOffsetBegin'
p4409
S'1071'
p4410
stp4411
a(S'weapons'
p4412
(dp4413
S'NamedEntityTag'
p4414
g134
sS'CharacterOffsetEnd'
p4415
S'1086'
p4416
sS'Lemma'
p4417
S'weapon'
p4418
sS'PartOfSpeech'
p4419
S'NNS'
p4420
sS'CharacterOffsetBegin'
p4421
S'1079'
p4422
stp4423
a(S'and'
p4424
(dp4425
S'NamedEntityTag'
p4426
g134
sS'CharacterOffsetEnd'
p4427
S'1090'
p4428
sS'Lemma'
p4429
S'and'
p4430
sS'PartOfSpeech'
p4431
S'CC'
p4432
sS'CharacterOffsetBegin'
p4433
S'1087'
p4434
stp4435
a(S'long-range'
p4436
(dp4437
S'NamedEntityTag'
p4438
g134
sS'CharacterOffsetEnd'
p4439
S'1101'
p4440
sS'Lemma'
p4441
S'long-range'
p4442
sS'PartOfSpeech'
p4443
S'JJ'
p4444
sS'CharacterOffsetBegin'
p4445
S'1091'
p4446
stp4447
a(S'missiles'
p4448
(dp4449
S'NamedEntityTag'
p4450
g134
sS'CharacterOffsetEnd'
p4451
S'1110'
p4452
sS'Lemma'
p4453
S'missile'
p4454
sS'PartOfSpeech'
p4455
S'NNS'
p4456
sS'CharacterOffsetBegin'
p4457
S'1102'
p4458
stp4459
a(g757
(dp4460
S'NamedEntityTag'
p4461
g134
sS'CharacterOffsetEnd'
p4462
S'1111'
p4463
sS'Lemma'
p4464
g757
sS'PartOfSpeech'
p4465
g757
sS'CharacterOffsetBegin'
p4466
S'1110'
p4467
stp4468
asa(dp4469
g7
S'(ROOT (S (PP (IN Under) (NP (NP (DT the) (VBG prevailing) (JJ touch-and-go) (NN situation)) (, ,) (NP (DT the) (ADJP (JJ Korean) (SBAR (S (NP (NNPS Peoples) (NNP Army)) (VP (VBZ is) (ADVP (RB now)) (VP (VBG bracing) (NP (PRP itself)) (PP (IN for) (NP (NP (DT a) (NN fight)) (PP (IN against) (NP (DT the) (NNP U.S.) (NN imperialist)))))))))) (NNS aggressors)))) (, ,) (NP (NNP KCNA)) (VP (VBD quoted) (NP (NNP Jong)) (PP (IN as) (S (VP (VBG saying))))) (. .)))'
p4470
sg9
S'Under the prevailing touch-and-go situation, the Korean Peoples Army is now bracing itself for a fight against the U.S. imperialist aggressors, KCNA quoted Jong as saying.'
p4471
sg11
(lp4472
(S'root'
p4473
S'ROOT'
p4474
S'quoted'
p4475
tp4476
a(S'det'
p4477
S'situation'
p4478
S'the'
p4479
tp4480
a(S'amod'
p4481
S'situation'
p4482
S'prevailing'
p4483
tp4484
a(S'amod'
p4485
S'situation'
p4486
S'touch-and-go'
p4487
tp4488
a(S'prep_under'
p4489
S'quoted'
p4490
S'situation'
p4491
tp4492
a(S'det'
p4493
S'aggressors'
p4494
S'the'
p4495
tp4496
a(S'amod'
p4497
S'aggressors'
p4498
S'Korean'
p4499
tp4500
a(S'nn'
p4501
S'Army'
p4502
S'Peoples'
p4503
tp4504
a(S'nsubj'
p4505
S'bracing'
p4506
S'Army'
p4507
tp4508
a(S'aux'
p4509
S'bracing'
p4510
S'is'
p4511
tp4512
a(S'advmod'
p4513
S'bracing'
p4514
S'now'
p4515
tp4516
a(S'ccomp'
p4517
S'Korean'
p4518
S'bracing'
p4519
tp4520
a(S'dobj'
p4521
S'bracing'
p4522
S'itself'
p4523
tp4524
a(S'det'
p4525
S'fight'
p4526
g1214
tp4527
a(S'prep_for'
p4528
S'bracing'
p4529
S'fight'
p4530
tp4531
a(S'det'
p4532
S'imperialist'
p4533
S'the'
p4534
tp4535
a(S'nn'
p4536
S'imperialist'
p4537
S'U.S.'
p4538
tp4539
a(S'prep_against'
p4540
S'fight'
p4541
S'imperialist'
p4542
tp4543
a(S'appos'
p4544
S'situation'
p4545
S'aggressors'
p4546
tp4547
a(S'nsubj'
p4548
S'quoted'
p4549
S'KCNA'
p4550
tp4551
a(S'dobj'
p4552
S'quoted'
p4553
S'Jong'
p4554
tp4555
a(S'prepc_as'
p4556
S'quoted'
p4557
S'saying'
p4558
tp4559
asg58
(lp4560
(g4473
S'ROOT-0'
p4561
S'quoted-25'
p4562
tp4563
a(g4477
S'situation-5'
p4564
S'the-2'
p4565
tp4566
a(g4481
S'situation-5'
p4567
S'prevailing-3'
p4568
tp4569
a(g4485
S'situation-5'
p4570
S'touch-and-go-4'
p4571
tp4572
a(g4489
S'quoted-25'
p4573
S'situation-5'
p4574
tp4575
a(g4493
S'aggressors-22'
p4576
S'the-7'
p4577
tp4578
a(g4497
S'aggressors-22'
p4579
S'Korean-8'
p4580
tp4581
a(g4501
S'Army-10'
p4582
S'Peoples-9'
p4583
tp4584
a(g4505
S'bracing-13'
p4585
S'Army-10'
p4586
tp4587
a(g4509
S'bracing-13'
p4588
S'is-11'
p4589
tp4590
a(g4513
S'bracing-13'
p4591
S'now-12'
p4592
tp4593
a(g4517
S'Korean-8'
p4594
S'bracing-13'
p4595
tp4596
a(g4521
S'bracing-13'
p4597
S'itself-14'
p4598
tp4599
a(g4525
S'fight-17'
p4600
S'a-16'
p4601
tp4602
a(g4528
S'bracing-13'
p4603
S'fight-17'
p4604
tp4605
a(g4532
S'imperialist-21'
p4606
S'the-19'
p4607
tp4608
a(g4536
S'imperialist-21'
p4609
S'U.S.-20'
p4610
tp4611
a(g4540
S'fight-17'
p4612
S'imperialist-21'
p4613
tp4614
a(g4544
S'situation-5'
p4615
S'aggressors-22'
p4616
tp4617
a(g4548
S'quoted-25'
p4618
S'KCNA-24'
p4619
tp4620
a(g4552
S'quoted-25'
p4621
S'Jong-26'
p4622
tp4623
a(g4556
S'quoted-25'
p4624
S'saying-28'
p4625
tp4626
asg96
(lp4627
(S'Under'
p4628
(dp4629
S'NamedEntityTag'
p4630
g134
sS'CharacterOffsetEnd'
p4631
S'1117'
p4632
sS'Lemma'
p4633
S'under'
p4634
sS'PartOfSpeech'
p4635
S'IN'
p4636
sS'CharacterOffsetBegin'
p4637
S'1112'
p4638
stp4639
a(S'the'
p4640
(dp4641
S'NamedEntityTag'
p4642
g134
sS'CharacterOffsetEnd'
p4643
S'1121'
p4644
sS'Lemma'
p4645
S'the'
p4646
sS'PartOfSpeech'
p4647
S'DT'
p4648
sS'CharacterOffsetBegin'
p4649
S'1118'
p4650
stp4651
a(S'prevailing'
p4652
(dp4653
S'NamedEntityTag'
p4654
g134
sS'CharacterOffsetEnd'
p4655
S'1132'
p4656
sS'Lemma'
p4657
S'prevail'
p4658
sS'PartOfSpeech'
p4659
S'VBG'
p4660
sS'CharacterOffsetBegin'
p4661
S'1122'
p4662
stp4663
a(S'touch-and-go'
p4664
(dp4665
S'NamedEntityTag'
p4666
g134
sS'CharacterOffsetEnd'
p4667
S'1145'
p4668
sS'Lemma'
p4669
S'touch-and-go'
p4670
sS'PartOfSpeech'
p4671
S'JJ'
p4672
sS'CharacterOffsetBegin'
p4673
S'1133'
p4674
stp4675
a(S'situation'
p4676
(dp4677
S'NamedEntityTag'
p4678
g134
sS'CharacterOffsetEnd'
p4679
S'1155'
p4680
sS'Lemma'
p4681
S'situation'
p4682
sS'PartOfSpeech'
p4683
S'NN'
p4684
sS'CharacterOffsetBegin'
p4685
S'1146'
p4686
stp4687
a(g2337
(dp4688
S'NamedEntityTag'
p4689
g134
sS'CharacterOffsetEnd'
p4690
S'1156'
p4691
sS'Lemma'
p4692
g2337
sS'PartOfSpeech'
p4693
g2337
sS'CharacterOffsetBegin'
p4694
S'1155'
p4695
stp4696
a(S'the'
p4697
(dp4698
S'NamedEntityTag'
p4699
g134
sS'CharacterOffsetEnd'
p4700
S'1160'
p4701
sS'Lemma'
p4702
S'the'
p4703
sS'PartOfSpeech'
p4704
S'DT'
p4705
sS'CharacterOffsetBegin'
p4706
S'1157'
p4707
stp4708
a(S'Korean'
p4709
(dp4710
S'NamedEntityTag'
p4711
S'ORGANIZATION'
p4712
sS'CharacterOffsetEnd'
p4713
S'1167'
p4714
sS'Lemma'
p4715
S'korean'
p4716
sS'PartOfSpeech'
p4717
S'JJ'
p4718
sS'CharacterOffsetBegin'
p4719
S'1161'
p4720
stp4721
a(S'Peoples'
p4722
(dp4723
S'NamedEntityTag'
p4724
S'ORGANIZATION'
p4725
sS'CharacterOffsetEnd'
p4726
S'1175'
p4727
sS'Lemma'
p4728
S'Peoples'
p4729
sS'PartOfSpeech'
p4730
S'NNPS'
p4731
sS'CharacterOffsetBegin'
p4732
S'1168'
p4733
stp4734
a(S'Army'
p4735
(dp4736
S'NamedEntityTag'
p4737
S'ORGANIZATION'
p4738
sS'CharacterOffsetEnd'
p4739
S'1180'
p4740
sS'Lemma'
p4741
S'Army'
p4742
sS'PartOfSpeech'
p4743
S'NNP'
p4744
sS'CharacterOffsetBegin'
p4745
S'1176'
p4746
stp4747
a(S'is'
p4748
(dp4749
S'NamedEntityTag'
p4750
g134
sS'CharacterOffsetEnd'
p4751
S'1183'
p4752
sS'Lemma'
p4753
S'be'
p4754
sS'PartOfSpeech'
p4755
S'VBZ'
p4756
sS'CharacterOffsetBegin'
p4757
S'1181'
p4758
stp4759
a(S'now'
p4760
(dp4761
S'NormalizedNamedEntityTag'
p4762
S'PRESENT_REF'
p4763
sS'Timex'
p4764
S'<TIMEX3 tid="t4" type="DATE" value="PRESENT_REF">now</TIMEX3>'
p4765
sS'Lemma'
p4766
S'now'
p4767
sS'CharacterOffsetEnd'
p4768
S'1187'
p4769
sS'PartOfSpeech'
p4770
S'RB'
p4771
sS'CharacterOffsetBegin'
p4772
S'1184'
p4773
sS'NamedEntityTag'
p4774
S'DATE'
p4775
stp4776
a(S'bracing'
p4777
(dp4778
S'NamedEntityTag'
p4779
g134
sS'CharacterOffsetEnd'
p4780
S'1195'
p4781
sS'Lemma'
p4782
S'brace'
p4783
sS'PartOfSpeech'
p4784
S'VBG'
p4785
sS'CharacterOffsetBegin'
p4786
S'1188'
p4787
stp4788
a(S'itself'
p4789
(dp4790
S'NamedEntityTag'
p4791
g134
sS'CharacterOffsetEnd'
p4792
S'1202'
p4793
sS'Lemma'
p4794
S'itself'
p4795
sS'PartOfSpeech'
p4796
S'PRP'
p4797
sS'CharacterOffsetBegin'
p4798
S'1196'
p4799
stp4800
a(S'for'
p4801
(dp4802
S'NamedEntityTag'
p4803
g134
sS'CharacterOffsetEnd'
p4804
S'1206'
p4805
sS'Lemma'
p4806
S'for'
p4807
sS'PartOfSpeech'
p4808
S'IN'
p4809
sS'CharacterOffsetBegin'
p4810
S'1203'
p4811
stp4812
a(g1214
(dp4813
S'NamedEntityTag'
p4814
g134
sS'CharacterOffsetEnd'
p4815
S'1208'
p4816
sS'Lemma'
p4817
g1214
sS'PartOfSpeech'
p4818
S'DT'
p4819
sS'CharacterOffsetBegin'
p4820
S'1207'
p4821
stp4822
a(S'fight'
p4823
(dp4824
S'NamedEntityTag'
p4825
g134
sS'CharacterOffsetEnd'
p4826
S'1214'
p4827
sS'Lemma'
p4828
S'fight'
p4829
sS'PartOfSpeech'
p4830
S'NN'
p4831
sS'CharacterOffsetBegin'
p4832
S'1209'
p4833
stp4834
a(S'against'
p4835
(dp4836
S'NamedEntityTag'
p4837
g134
sS'CharacterOffsetEnd'
p4838
S'1222'
p4839
sS'Lemma'
p4840
S'against'
p4841
sS'PartOfSpeech'
p4842
S'IN'
p4843
sS'CharacterOffsetBegin'
p4844
S'1215'
p4845
stp4846
a(S'the'
p4847
(dp4848
S'NamedEntityTag'
p4849
g134
sS'CharacterOffsetEnd'
p4850
S'1226'
p4851
sS'Lemma'
p4852
S'the'
p4853
sS'PartOfSpeech'
p4854
S'DT'
p4855
sS'CharacterOffsetBegin'
p4856
S'1223'
p4857
stp4858
a(S'U.S.'
p4859
(dp4860
S'NamedEntityTag'
p4861
S'LOCATION'
p4862
sS'CharacterOffsetEnd'
p4863
S'1231'
p4864
sS'Lemma'
p4865
S'U.S.'
p4866
sS'PartOfSpeech'
p4867
S'NNP'
p4868
sS'CharacterOffsetBegin'
p4869
S'1227'
p4870
stp4871
a(S'imperialist'
p4872
(dp4873
S'NamedEntityTag'
p4874
g134
sS'CharacterOffsetEnd'
p4875
S'1243'
p4876
sS'Lemma'
p4877
S'imperialist'
p4878
sS'PartOfSpeech'
p4879
S'NN'
p4880
sS'CharacterOffsetBegin'
p4881
S'1232'
p4882
stp4883
a(S'aggressors'
p4884
(dp4885
S'NamedEntityTag'
p4886
g134
sS'CharacterOffsetEnd'
p4887
S'1254'
p4888
sS'Lemma'
p4889
S'aggressor'
p4890
sS'PartOfSpeech'
p4891
S'NNS'
p4892
sS'CharacterOffsetBegin'
p4893
S'1244'
p4894
stp4895
a(g2337
(dp4896
S'NamedEntityTag'
p4897
g134
sS'CharacterOffsetEnd'
p4898
S'1255'
p4899
sS'Lemma'
p4900
g2337
sS'PartOfSpeech'
p4901
g2337
sS'CharacterOffsetBegin'
p4902
S'1254'
p4903
stp4904
a(S'KCNA'
p4905
(dp4906
S'NamedEntityTag'
p4907
S'ORGANIZATION'
p4908
sS'CharacterOffsetEnd'
p4909
S'1260'
p4910
sS'Lemma'
p4911
S'KCNA'
p4912
sS'PartOfSpeech'
p4913
S'NNP'
p4914
sS'CharacterOffsetBegin'
p4915
S'1256'
p4916
stp4917
a(S'quoted'
p4918
(dp4919
S'NamedEntityTag'
p4920
g134
sS'CharacterOffsetEnd'
p4921
S'1267'
p4922
sS'Lemma'
p4923
S'quote'
p4924
sS'PartOfSpeech'
p4925
S'VBD'
p4926
sS'CharacterOffsetBegin'
p4927
S'1261'
p4928
stp4929
a(S'Jong'
p4930
(dp4931
S'NamedEntityTag'
p4932
S'PERSON'
p4933
sS'CharacterOffsetEnd'
p4934
S'1272'
p4935
sS'Lemma'
p4936
S'Jong'
p4937
sS'PartOfSpeech'
p4938
S'NNP'
p4939
sS'CharacterOffsetBegin'
p4940
S'1268'
p4941
stp4942
a(S'as'
p4943
(dp4944
S'NamedEntityTag'
p4945
g134
sS'CharacterOffsetEnd'
p4946
S'1275'
p4947
sS'Lemma'
p4948
S'as'
p4949
sS'PartOfSpeech'
p4950
S'IN'
p4951
sS'CharacterOffsetBegin'
p4952
S'1273'
p4953
stp4954
a(S'saying'
p4955
(dp4956
S'NamedEntityTag'
p4957
g134
sS'CharacterOffsetEnd'
p4958
S'1282'
p4959
sS'Lemma'
p4960
S'say'
p4961
sS'PartOfSpeech'
p4962
S'VBG'
p4963
sS'CharacterOffsetBegin'
p4964
S'1276'
p4965
stp4966
a(g757
(dp4967
S'NamedEntityTag'
p4968
g134
sS'CharacterOffsetEnd'
p4969
S'1283'
p4970
sS'Lemma'
p4971
g757
sS'PartOfSpeech'
p4972
g757
sS'CharacterOffsetBegin'
p4973
S'1282'
p4974
stp4975
asa(dp4976
g7
S'(ROOT (S (NP (DT The) (NN agency)) (ADVP (RB also)) (VP (VBD quoted) (NP (NP (JJ various) (NN party) (NNS officials)) (, ,) (NP (NP (NN plant) (NNS managers)) (, ,) (NP (RB even) (NN museum) (NNS curators)))) (PP (IN as) (S (VP (VP (VBG pledging) (NP (DT a) (JJ thousandfold) (NN revenge))) (CC or) (VP (VBG vowing) (S (VP (TO to) (VP (VB arm) (NP (PRP themselves)) (PP (PP (IN with) (NP (NP (DT the) (NN spirit)) (PP (IN of) (NP (JJ human) (NNS bombs))))) (CC and) (PP (IN of) (NP (JJ suicidal) (NN attack)))))))))))) (. .)))'
p4977
sg9
S'The agency also quoted various party officials, plant managers, even museum curators as pledging a thousandfold revenge or vowing to arm themselves with the spirit of human bombs and of suicidal attack.'
p4978
sg11
(lp4979
(S'root'
p4980
S'ROOT'
p4981
S'quoted'
p4982
tp4983
a(S'det'
p4984
S'agency'
p4985
S'The'
p4986
tp4987
a(S'nsubj'
p4988
S'quoted'
p4989
S'agency'
p4990
tp4991
a(S'advmod'
p4992
S'quoted'
p4993
S'also'
p4994
tp4995
a(S'amod'
p4996
S'officials'
p4997
S'various'
p4998
tp4999
a(S'nn'
p5000
S'officials'
p5001
S'party'
p5002
tp5003
a(S'dobj'
p5004
S'quoted'
p5005
S'officials'
p5006
tp5007
a(S'nn'
p5008
S'managers'
p5009
S'plant'
p5010
tp5011
a(S'appos'
p5012
S'officials'
p5013
S'managers'
p5014
tp5015
a(S'advmod'
p5016
S'curators'
p5017
S'even'
p5018
tp5019
a(S'nn'
p5020
S'curators'
p5021
S'museum'
p5022
tp5023
a(S'appos'
p5024
S'managers'
p5025
S'curators'
p5026
tp5027
a(S'prepc_as'
p5028
S'quoted'
p5029
S'pledging'
p5030
tp5031
a(S'det'
p5032
S'revenge'
p5033
g1214
tp5034
a(S'amod'
p5035
S'revenge'
p5036
S'thousandfold'
p5037
tp5038
a(S'dobj'
p5039
S'pledging'
p5040
S'revenge'
p5041
tp5042
a(S'conj_or'
p5043
S'pledging'
p5044
S'vowing'
p5045
tp5046
a(S'aux'
p5047
S'arm'
p5048
S'to'
p5049
tp5050
a(S'xcomp'
p5051
S'vowing'
p5052
S'arm'
p5053
tp5054
a(S'conj_and'
p5055
S'arm'
p5056
S'arm'
p5057
tp5058
a(S'dobj'
p5059
S'arm'
p5060
S'themselves'
p5061
tp5062
a(S'det'
p5063
S'spirit'
p5064
S'the'
p5065
tp5066
a(S'prep_with'
p5067
S'arm'
p5068
S'spirit'
p5069
tp5070
a(S'amod'
p5071
S'bombs'
p5072
S'human'
p5073
tp5074
a(S'prep_of'
p5075
S'spirit'
p5076
S'bombs'
p5077
tp5078
a(S'amod'
p5079
S'attack'
p5080
S'suicidal'
p5081
tp5082
a(S'prep_of'
p5083
S'arm'
p5084
S'attack'
p5085
tp5086
asg58
(lp5087
(g4980
S'ROOT-0'
p5088
S'quoted-4'
p5089
tp5090
a(g4984
S'agency-2'
p5091
S'The-1'
p5092
tp5093
a(g4988
S'quoted-4'
p5094
S'agency-2'
p5095
tp5096
a(g4992
S'quoted-4'
p5097
S'also-3'
p5098
tp5099
a(g4996
S'officials-7'
p5100
S'various-5'
p5101
tp5102
a(g5000
S'officials-7'
p5103
S'party-6'
p5104
tp5105
a(g5004
S'quoted-4'
p5106
S'officials-7'
p5107
tp5108
a(g5008
S'managers-10'
p5109
S'plant-9'
p5110
tp5111
a(g5012
S'officials-7'
p5112
S'managers-10'
p5113
tp5114
a(g5016
S'curators-14'
p5115
S'even-12'
p5116
tp5117
a(g5020
S'curators-14'
p5118
S'museum-13'
p5119
tp5120
a(g5024
S'managers-10'
p5121
S'curators-14'
p5122
tp5123
a(g5028
S'quoted-4'
p5124
S'pledging-16'
p5125
tp5126
a(g5032
S'revenge-19'
p5127
S'a-17'
p5128
tp5129
a(g5035
S'revenge-19'
p5130
S'thousandfold-18'
p5131
tp5132
a(g5039
S'pledging-16'
p5133
S'revenge-19'
p5134
tp5135
a(g5043
S'pledging-16'
p5136
S'vowing-21'
p5137
tp5138
a(g5047
S'arm-23'
p5139
S'to-22'
p5140
tp5141
a(g5051
S'vowing-21'
p5142
S'arm-23'
p5143
tp5144
a(g5055
S'arm-23'
p5145
S'arm-23'
p5146
tp5147
a(g5059
S'arm-23'
p5148
S'themselves-24'
p5149
tp5150
a(g5063
S'spirit-27'
p5151
S'the-26'
p5152
tp5153
a(g5067
S'arm-23'
p5154
S'spirit-27'
p5155
tp5156
a(g5071
S'bombs-30'
p5157
S'human-29'
p5158
tp5159
a(g5075
S'spirit-27'
p5160
S'bombs-30'
p5161
tp5162
a(g5079
S'attack-34'
p5163
S'suicidal-33'
p5164
tp5165
a(g5083
S'arm-23'
p5166
S'attack-34'
p5167
tp5168
asg96
(lp5169
(S'The'
p5170
(dp5171
S'NamedEntityTag'
p5172
g134
sS'CharacterOffsetEnd'
p5173
S'1287'
p5174
sS'Lemma'
p5175
S'the'
p5176
sS'PartOfSpeech'
p5177
S'DT'
p5178
sS'CharacterOffsetBegin'
p5179
S'1284'
p5180
stp5181
a(S'agency'
p5182
(dp5183
S'NamedEntityTag'
p5184
g134
sS'CharacterOffsetEnd'
p5185
S'1294'
p5186
sS'Lemma'
p5187
S'agency'
p5188
sS'PartOfSpeech'
p5189
S'NN'
p5190
sS'CharacterOffsetBegin'
p5191
S'1288'
p5192
stp5193
a(S'also'
p5194
(dp5195
S'NamedEntityTag'
p5196
g134
sS'CharacterOffsetEnd'
p5197
S'1299'
p5198
sS'Lemma'
p5199
S'also'
p5200
sS'PartOfSpeech'
p5201
S'RB'
p5202
sS'CharacterOffsetBegin'
p5203
S'1295'
p5204
stp5205
a(S'quoted'
p5206
(dp5207
S'NamedEntityTag'
p5208
g134
sS'CharacterOffsetEnd'
p5209
S'1306'
p5210
sS'Lemma'
p5211
S'quote'
p5212
sS'PartOfSpeech'
p5213
S'VBD'
p5214
sS'CharacterOffsetBegin'
p5215
S'1300'
p5216
stp5217
a(S'various'
p5218
(dp5219
S'NamedEntityTag'
p5220
g134
sS'CharacterOffsetEnd'
p5221
S'1314'
p5222
sS'Lemma'
p5223
S'various'
p5224
sS'PartOfSpeech'
p5225
S'JJ'
p5226
sS'CharacterOffsetBegin'
p5227
S'1307'
p5228
stp5229
a(S'party'
p5230
(dp5231
S'NamedEntityTag'
p5232
g134
sS'CharacterOffsetEnd'
p5233
S'1320'
p5234
sS'Lemma'
p5235
S'party'
p5236
sS'PartOfSpeech'
p5237
S'NN'
p5238
sS'CharacterOffsetBegin'
p5239
S'1315'
p5240
stp5241
a(S'officials'
p5242
(dp5243
S'NamedEntityTag'
p5244
g134
sS'CharacterOffsetEnd'
p5245
S'1330'
p5246
sS'Lemma'
p5247
S'official'
p5248
sS'PartOfSpeech'
p5249
S'NNS'
p5250
sS'CharacterOffsetBegin'
p5251
S'1321'
p5252
stp5253
a(g2337
(dp5254
S'NamedEntityTag'
p5255
g134
sS'CharacterOffsetEnd'
p5256
S'1331'
p5257
sS'Lemma'
p5258
g2337
sS'PartOfSpeech'
p5259
g2337
sS'CharacterOffsetBegin'
p5260
S'1330'
p5261
stp5262
a(S'plant'
p5263
(dp5264
S'NamedEntityTag'
p5265
g134
sS'CharacterOffsetEnd'
p5266
S'1337'
p5267
sS'Lemma'
p5268
S'plant'
p5269
sS'PartOfSpeech'
p5270
S'NN'
p5271
sS'CharacterOffsetBegin'
p5272
S'1332'
p5273
stp5274
a(S'managers'
p5275
(dp5276
S'NamedEntityTag'
p5277
g134
sS'CharacterOffsetEnd'
p5278
S'1346'
p5279
sS'Lemma'
p5280
S'manager'
p5281
sS'PartOfSpeech'
p5282
S'NNS'
p5283
sS'CharacterOffsetBegin'
p5284
S'1338'
p5285
stp5286
a(g2337
(dp5287
S'NamedEntityTag'
p5288
g134
sS'CharacterOffsetEnd'
p5289
S'1347'
p5290
sS'Lemma'
p5291
g2337
sS'PartOfSpeech'
p5292
g2337
sS'CharacterOffsetBegin'
p5293
S'1346'
p5294
stp5295
a(S'even'
p5296
(dp5297
S'NamedEntityTag'
p5298
g134
sS'CharacterOffsetEnd'
p5299
S'1352'
p5300
sS'Lemma'
p5301
S'even'
p5302
sS'PartOfSpeech'
p5303
S'RB'
p5304
sS'CharacterOffsetBegin'
p5305
S'1348'
p5306
stp5307
a(S'museum'
p5308
(dp5309
S'NamedEntityTag'
p5310
g134
sS'CharacterOffsetEnd'
p5311
S'1359'
p5312
sS'Lemma'
p5313
S'museum'
p5314
sS'PartOfSpeech'
p5315
S'NN'
p5316
sS'CharacterOffsetBegin'
p5317
S'1353'
p5318
stp5319
a(S'curators'
p5320
(dp5321
S'NamedEntityTag'
p5322
g134
sS'CharacterOffsetEnd'
p5323
S'1368'
p5324
sS'Lemma'
p5325
S'curator'
p5326
sS'PartOfSpeech'
p5327
S'NNS'
p5328
sS'CharacterOffsetBegin'
p5329
S'1360'
p5330
stp5331
a(S'as'
p5332
(dp5333
S'NamedEntityTag'
p5334
g134
sS'CharacterOffsetEnd'
p5335
S'1371'
p5336
sS'Lemma'
p5337
S'as'
p5338
sS'PartOfSpeech'
p5339
S'IN'
p5340
sS'CharacterOffsetBegin'
p5341
S'1369'
p5342
stp5343
a(S'pledging'
p5344
(dp5345
S'NamedEntityTag'
p5346
g134
sS'CharacterOffsetEnd'
p5347
S'1380'
p5348
sS'Lemma'
p5349
S'pledge'
p5350
sS'PartOfSpeech'
p5351
S'VBG'
p5352
sS'CharacterOffsetBegin'
p5353
S'1372'
p5354
stp5355
a(g1214
(dp5356
S'NamedEntityTag'
p5357
g134
sS'CharacterOffsetEnd'
p5358
S'1382'
p5359
sS'Lemma'
p5360
g1214
sS'PartOfSpeech'
p5361
S'DT'
p5362
sS'CharacterOffsetBegin'
p5363
S'1381'
p5364
stp5365
a(S'thousandfold'
p5366
(dp5367
S'NamedEntityTag'
p5368
g134
sS'CharacterOffsetEnd'
p5369
S'1395'
p5370
sS'Lemma'
p5371
S'thousandfold'
p5372
sS'PartOfSpeech'
p5373
S'JJ'
p5374
sS'CharacterOffsetBegin'
p5375
S'1383'
p5376
stp5377
a(S'revenge'
p5378
(dp5379
S'NamedEntityTag'
p5380
g134
sS'CharacterOffsetEnd'
p5381
S'1403'
p5382
sS'Lemma'
p5383
S'revenge'
p5384
sS'PartOfSpeech'
p5385
S'NN'
p5386
sS'CharacterOffsetBegin'
p5387
S'1396'
p5388
stp5389
a(S'or'
p5390
(dp5391
S'NamedEntityTag'
p5392
g134
sS'CharacterOffsetEnd'
p5393
S'1406'
p5394
sS'Lemma'
p5395
S'or'
p5396
sS'PartOfSpeech'
p5397
S'CC'
p5398
sS'CharacterOffsetBegin'
p5399
S'1404'
p5400
stp5401
a(S'vowing'
p5402
(dp5403
S'NamedEntityTag'
p5404
g134
sS'CharacterOffsetEnd'
p5405
S'1413'
p5406
sS'Lemma'
p5407
S'vow'
p5408
sS'PartOfSpeech'
p5409
S'VBG'
p5410
sS'CharacterOffsetBegin'
p5411
S'1407'
p5412
stp5413
a(S'to'
p5414
(dp5415
S'NamedEntityTag'
p5416
g134
sS'CharacterOffsetEnd'
p5417
S'1416'
p5418
sS'Lemma'
p5419
S'to'
p5420
sS'PartOfSpeech'
p5421
S'TO'
p5422
sS'CharacterOffsetBegin'
p5423
S'1414'
p5424
stp5425
a(S'arm'
p5426
(dp5427
S'NamedEntityTag'
p5428
g134
sS'CharacterOffsetEnd'
p5429
S'1420'
p5430
sS'Lemma'
p5431
S'arm'
p5432
sS'PartOfSpeech'
p5433
S'VB'
p5434
sS'CharacterOffsetBegin'
p5435
S'1417'
p5436
stp5437
a(S'themselves'
p5438
(dp5439
S'NamedEntityTag'
p5440
g134
sS'CharacterOffsetEnd'
p5441
S'1431'
p5442
sS'Lemma'
p5443
S'themselves'
p5444
sS'PartOfSpeech'
p5445
S'PRP'
p5446
sS'CharacterOffsetBegin'
p5447
S'1421'
p5448
stp5449
a(S'with'
p5450
(dp5451
S'NamedEntityTag'
p5452
g134
sS'CharacterOffsetEnd'
p5453
S'1436'
p5454
sS'Lemma'
p5455
S'with'
p5456
sS'PartOfSpeech'
p5457
S'IN'
p5458
sS'CharacterOffsetBegin'
p5459
S'1432'
p5460
stp5461
a(S'the'
p5462
(dp5463
S'NamedEntityTag'
p5464
g134
sS'CharacterOffsetEnd'
p5465
S'1440'
p5466
sS'Lemma'
p5467
S'the'
p5468
sS'PartOfSpeech'
p5469
S'DT'
p5470
sS'CharacterOffsetBegin'
p5471
S'1437'
p5472
stp5473
a(S'spirit'
p5474
(dp5475
S'NamedEntityTag'
p5476
g134
sS'CharacterOffsetEnd'
p5477
S'1447'
p5478
sS'Lemma'
p5479
S'spirit'
p5480
sS'PartOfSpeech'
p5481
S'NN'
p5482
sS'CharacterOffsetBegin'
p5483
S'1441'
p5484
stp5485
a(S'of'
p5486
(dp5487
S'NamedEntityTag'
p5488
g134
sS'CharacterOffsetEnd'
p5489
S'1450'
p5490
sS'Lemma'
p5491
S'of'
p5492
sS'PartOfSpeech'
p5493
S'IN'
p5494
sS'CharacterOffsetBegin'
p5495
S'1448'
p5496
stp5497
a(S'human'
p5498
(dp5499
S'NamedEntityTag'
p5500
g134
sS'CharacterOffsetEnd'
p5501
S'1456'
p5502
sS'Lemma'
p5503
S'human'
p5504
sS'PartOfSpeech'
p5505
S'JJ'
p5506
sS'CharacterOffsetBegin'
p5507
S'1451'
p5508
stp5509
a(S'bombs'
p5510
(dp5511
S'NamedEntityTag'
p5512
g134
sS'CharacterOffsetEnd'
p5513
S'1462'
p5514
sS'Lemma'
p5515
S'bomb'
p5516
sS'PartOfSpeech'
p5517
S'NNS'
p5518
sS'CharacterOffsetBegin'
p5519
S'1457'
p5520
stp5521
a(S'and'
p5522
(dp5523
S'NamedEntityTag'
p5524
g134
sS'CharacterOffsetEnd'
p5525
S'1466'
p5526
sS'Lemma'
p5527
S'and'
p5528
sS'PartOfSpeech'
p5529
S'CC'
p5530
sS'CharacterOffsetBegin'
p5531
S'1463'
p5532
stp5533
a(S'of'
p5534
(dp5535
S'NamedEntityTag'
p5536
g134
sS'CharacterOffsetEnd'
p5537
S'1469'
p5538
sS'Lemma'
p5539
S'of'
p5540
sS'PartOfSpeech'
p5541
S'IN'
p5542
sS'CharacterOffsetBegin'
p5543
S'1467'
p5544
stp5545
a(S'suicidal'
p5546
(dp5547
S'NamedEntityTag'
p5548
g134
sS'CharacterOffsetEnd'
p5549
S'1478'
p5550
sS'Lemma'
p5551
S'suicidal'
p5552
sS'PartOfSpeech'
p5553
S'JJ'
p5554
sS'CharacterOffsetBegin'
p5555
S'1470'
p5556
stp5557
a(S'attack'
p5558
(dp5559
S'NamedEntityTag'
p5560
g134
sS'CharacterOffsetEnd'
p5561
S'1485'
p5562
sS'Lemma'
p5563
S'attack'
p5564
sS'PartOfSpeech'
p5565
S'NN'
p5566
sS'CharacterOffsetBegin'
p5567
S'1479'
p5568
stp5569
a(g757
(dp5570
S'NamedEntityTag'
p5571
g134
sS'CharacterOffsetEnd'
p5572
S'1486'
p5573
sS'Lemma'
p5574
g757
sS'PartOfSpeech'
p5575
g757
sS'CharacterOffsetBegin'
p5576
S'1485'
p5577
stp5578
asa(dp5579
g7
S'(ROOT (S (NP (NNP Washington)) (VP (VBZ demands) (NP (NP (JJ unconditional) (NNS inspections)) (PP (IN of) (NP (NP (DT the) (NNPS Norths)) (NP (JJ underground) (NN project)))))) (. .)))'
p5580
sg9
S'Washington demands unconditional inspections of the Norths underground project.'
p5581
sg11
(lp5582
(S'root'
p5583
S'ROOT'
p5584
S'demands'
p5585
tp5586
a(S'nsubj'
p5587
S'demands'
p5588
S'Washington'
p5589
tp5590
a(S'amod'
p5591
S'inspections'
p5592
S'unconditional'
p5593
tp5594
a(S'dobj'
p5595
S'demands'
p5596
S'inspections'
p5597
tp5598
a(S'det'
p5599
S'Norths'
p5600
S'the'
p5601
tp5602
a(S'prep_of'
p5603
S'inspections'
p5604
S'Norths'
p5605
tp5606
a(S'amod'
p5607
S'project'
p5608
S'underground'
p5609
tp5610
a(S'dep'
p5611
S'Norths'
p5612
S'project'
p5613
tp5614
asg58
(lp5615
(g5583
S'ROOT-0'
p5616
S'demands-2'
p5617
tp5618
a(g5587
S'demands-2'
p5619
S'Washington-1'
p5620
tp5621
a(g5591
S'inspections-4'
p5622
S'unconditional-3'
p5623
tp5624
a(g5595
S'demands-2'
p5625
S'inspections-4'
p5626
tp5627
a(g5599
S'Norths-7'
p5628
S'the-6'
p5629
tp5630
a(g5603
S'inspections-4'
p5631
S'Norths-7'
p5632
tp5633
a(g5607
S'project-9'
p5634
S'underground-8'
p5635
tp5636
a(g5611
S'Norths-7'
p5637
S'project-9'
p5638
tp5639
asg96
(lp5640
(S'Washington'
p5641
(dp5642
S'NamedEntityTag'
p5643
S'LOCATION'
p5644
sS'CharacterOffsetEnd'
p5645
S'1497'
p5646
sS'Lemma'
p5647
S'Washington'
p5648
sS'PartOfSpeech'
p5649
S'NNP'
p5650
sS'CharacterOffsetBegin'
p5651
S'1487'
p5652
stp5653
a(S'demands'
p5654
(dp5655
S'NamedEntityTag'
p5656
g134
sS'CharacterOffsetEnd'
p5657
S'1505'
p5658
sS'Lemma'
p5659
S'demand'
p5660
sS'PartOfSpeech'
p5661
S'VBZ'
p5662
sS'CharacterOffsetBegin'
p5663
S'1498'
p5664
stp5665
a(S'unconditional'
p5666
(dp5667
S'NamedEntityTag'
p5668
g134
sS'CharacterOffsetEnd'
p5669
S'1519'
p5670
sS'Lemma'
p5671
S'unconditional'
p5672
sS'PartOfSpeech'
p5673
S'JJ'
p5674
sS'CharacterOffsetBegin'
p5675
S'1506'
p5676
stp5677
a(S'inspections'
p5678
(dp5679
S'NamedEntityTag'
p5680
g134
sS'CharacterOffsetEnd'
p5681
S'1531'
p5682
sS'Lemma'
p5683
S'inspection'
p5684
sS'PartOfSpeech'
p5685
S'NNS'
p5686
sS'CharacterOffsetBegin'
p5687
S'1520'
p5688
stp5689
a(S'of'
p5690
(dp5691
S'NamedEntityTag'
p5692
g134
sS'CharacterOffsetEnd'
p5693
S'1534'
p5694
sS'Lemma'
p5695
S'of'
p5696
sS'PartOfSpeech'
p5697
S'IN'
p5698
sS'CharacterOffsetBegin'
p5699
S'1532'
p5700
stp5701
a(S'the'
p5702
(dp5703
S'NamedEntityTag'
p5704
g134
sS'CharacterOffsetEnd'
p5705
S'1538'
p5706
sS'Lemma'
p5707
S'the'
p5708
sS'PartOfSpeech'
p5709
S'DT'
p5710
sS'CharacterOffsetBegin'
p5711
S'1535'
p5712
stp5713
a(S'Norths'
p5714
(dp5715
S'NamedEntityTag'
p5716
S'MISC'
p5717
sS'CharacterOffsetEnd'
p5718
S'1545'
p5719
sS'Lemma'
p5720
S'Norths'
p5721
sS'PartOfSpeech'
p5722
S'NNPS'
p5723
sS'CharacterOffsetBegin'
p5724
S'1539'
p5725
stp5726
a(S'underground'
p5727
(dp5728
S'NamedEntityTag'
p5729
g134
sS'CharacterOffsetEnd'
p5730
S'1557'
p5731
sS'Lemma'
p5732
S'underground'
p5733
sS'PartOfSpeech'
p5734
S'JJ'
p5735
sS'CharacterOffsetBegin'
p5736
S'1546'
p5737
stp5738
a(S'project'
p5739
(dp5740
S'NamedEntityTag'
p5741
g134
sS'CharacterOffsetEnd'
p5742
S'1565'
p5743
sS'Lemma'
p5744
S'project'
p5745
sS'PartOfSpeech'
p5746
S'NN'
p5747
sS'CharacterOffsetBegin'
p5748
S'1558'
p5749
stp5750
a(g757
(dp5751
S'NamedEntityTag'
p5752
g134
sS'CharacterOffsetEnd'
p5753
S'1566'
p5754
sS'Lemma'
p5755
g757
sS'PartOfSpeech'
p5756
g757
sS'CharacterOffsetBegin'
p5757
S'1565'
p5758
stp5759
asa(dp5760
g7
S'(ROOT (S (CC But) (NP (NNP North) (NNP Korea)) (VP (VBD asked) (S (NP (NNP Washington)) (VP (TO to) (VP (VB pay) (NP (NNS dlrs)) (NP (QP (CD 300) (CD million))) (PP (IN for) (NP (DT the) (NN right) (S (VP (TO to) (VP (VB inspect) (NP (DT the) (NN site))))))))))) (. .)))'
p5761
sg9
S'But North Korea asked Washington to pay dlrs 300 million for the right to inspect the site.'
p5762
sg11
(lp5763
(S'root'
p5764
S'ROOT'
p5765
S'asked'
p5766
tp5767
a(S'cc'
p5768
S'asked'
p5769
S'But'
p5770
tp5771
a(S'nn'
p5772
S'Korea'
p5773
S'North'
p5774
tp5775
a(S'nsubj'
p5776
S'asked'
p5777
S'Korea'
p5778
tp5779
a(S'nsubj'
p5780
S'pay'
p5781
S'Washington'
p5782
tp5783
a(S'aux'
p5784
S'pay'
p5785
S'to'
p5786
tp5787
a(S'xcomp'
p5788
S'asked'
p5789
S'pay'
p5790
tp5791
a(S'iobj'
p5792
S'pay'
p5793
S'dlrs'
p5794
tp5795
a(S'number'
p5796
S'million'
p5797
S'300'
p5798
tp5799
a(S'dobj'
p5800
S'pay'
p5801
S'million'
p5802
tp5803
a(S'det'
p5804
S'right'
p5805
S'the'
p5806
tp5807
a(S'prep_for'
p5808
S'pay'
p5809
S'right'
p5810
tp5811
a(S'aux'
p5812
S'inspect'
p5813
S'to'
p5814
tp5815
a(S'infmod'
p5816
S'right'
p5817
S'inspect'
p5818
tp5819
a(S'det'
p5820
S'site'
p5821
S'the'
p5822
tp5823
a(S'dobj'
p5824
S'inspect'
p5825
S'site'
p5826
tp5827
asg58
(lp5828
(g5764
S'ROOT-0'
p5829
S'asked-4'
p5830
tp5831
a(g5768
S'asked-4'
p5832
S'But-1'
p5833
tp5834
a(g5772
S'Korea-3'
p5835
S'North-2'
p5836
tp5837
a(g5776
S'asked-4'
p5838
S'Korea-3'
p5839
tp5840
a(g5780
S'pay-7'
p5841
S'Washington-5'
p5842
tp5843
a(g5784
S'pay-7'
p5844
S'to-6'
p5845
tp5846
a(g5788
S'asked-4'
p5847
S'pay-7'
p5848
tp5849
a(g5792
S'pay-7'
p5850
S'dlrs-8'
p5851
tp5852
a(g5796
S'million-10'
p5853
S'300-9'
p5854
tp5855
a(g5800
S'pay-7'
p5856
S'million-10'
p5857
tp5858
a(g5804
S'right-13'
p5859
S'the-12'
p5860
tp5861
a(g5808
S'pay-7'
p5862
S'right-13'
p5863
tp5864
a(g5812
S'inspect-15'
p5865
S'to-14'
p5866
tp5867
a(g5816
S'right-13'
p5868
S'inspect-15'
p5869
tp5870
a(g5820
S'site-17'
p5871
S'the-16'
p5872
tp5873
a(g5824
S'inspect-15'
p5874
S'site-17'
p5875
tp5876
asg96
(lp5877
(S'But'
p5878
(dp5879
S'NamedEntityTag'
p5880
g134
sS'CharacterOffsetEnd'
p5881
S'1570'
p5882
sS'Lemma'
p5883
S'but'
p5884
sS'PartOfSpeech'
p5885
S'CC'
p5886
sS'CharacterOffsetBegin'
p5887
S'1567'
p5888
stp5889
a(S'North'
p5890
(dp5891
S'NamedEntityTag'
p5892
S'LOCATION'
p5893
sS'CharacterOffsetEnd'
p5894
S'1576'
p5895
sS'Lemma'
p5896
S'North'
p5897
sS'PartOfSpeech'
p5898
S'NNP'
p5899
sS'CharacterOffsetBegin'
p5900
S'1571'
p5901
stp5902
a(S'Korea'
p5903
(dp5904
S'NamedEntityTag'
p5905
S'LOCATION'
p5906
sS'CharacterOffsetEnd'
p5907
S'1582'
p5908
sS'Lemma'
p5909
S'Korea'
p5910
sS'PartOfSpeech'
p5911
S'NNP'
p5912
sS'CharacterOffsetBegin'
p5913
S'1577'
p5914
stp5915
a(S'asked'
p5916
(dp5917
S'NamedEntityTag'
p5918
g134
sS'CharacterOffsetEnd'
p5919
S'1588'
p5920
sS'Lemma'
p5921
S'ask'
p5922
sS'PartOfSpeech'
p5923
S'VBD'
p5924
sS'CharacterOffsetBegin'
p5925
S'1583'
p5926
stp5927
a(S'Washington'
p5928
(dp5929
S'NamedEntityTag'
p5930
S'LOCATION'
p5931
sS'CharacterOffsetEnd'
p5932
S'1599'
p5933
sS'Lemma'
p5934
S'Washington'
p5935
sS'PartOfSpeech'
p5936
S'NNP'
p5937
sS'CharacterOffsetBegin'
p5938
S'1589'
p5939
stp5940
a(S'to'
p5941
(dp5942
S'NamedEntityTag'
p5943
g134
sS'CharacterOffsetEnd'
p5944
S'1602'
p5945
sS'Lemma'
p5946
S'to'
p5947
sS'PartOfSpeech'
p5948
S'TO'
p5949
sS'CharacterOffsetBegin'
p5950
S'1600'
p5951
stp5952
a(S'pay'
p5953
(dp5954
S'NamedEntityTag'
p5955
g134
sS'CharacterOffsetEnd'
p5956
S'1606'
p5957
sS'Lemma'
p5958
S'pay'
p5959
sS'PartOfSpeech'
p5960
S'VB'
p5961
sS'CharacterOffsetBegin'
p5962
S'1603'
p5963
stp5964
a(S'dlrs'
p5965
(dp5966
S'NamedEntityTag'
p5967
g134
sS'CharacterOffsetEnd'
p5968
S'1611'
p5969
sS'Lemma'
p5970
S'dlr'
p5971
sS'PartOfSpeech'
p5972
S'NNS'
p5973
sS'CharacterOffsetBegin'
p5974
S'1607'
p5975
stp5976
a(S'300'
p5977
(dp5978
S'NormalizedNamedEntityTag'
p5979
S'$3.0E8'
p5980
sS'Lemma'
p5981
S'300'
p5982
sS'CharacterOffsetEnd'
p5983
S'1615'
p5984
sS'PartOfSpeech'
p5985
S'CD'
p5986
sS'CharacterOffsetBegin'
p5987
S'1612'
p5988
sS'NamedEntityTag'
p5989
S'MONEY'
p5990
stp5991
a(S'million'
p5992
(dp5993
S'NormalizedNamedEntityTag'
p5994
S'$3.0E8'
p5995
sS'Lemma'
p5996
S'million'
p5997
sS'CharacterOffsetEnd'
p5998
S'1623'
p5999
sS'PartOfSpeech'
p6000
S'CD'
p6001
sS'CharacterOffsetBegin'
p6002
S'1616'
p6003
sS'NamedEntityTag'
p6004
S'MONEY'
p6005
stp6006
a(S'for'
p6007
(dp6008
S'NamedEntityTag'
p6009
g134
sS'CharacterOffsetEnd'
p6010
S'1627'
p6011
sS'Lemma'
p6012
S'for'
p6013
sS'PartOfSpeech'
p6014
S'IN'
p6015
sS'CharacterOffsetBegin'
p6016
S'1624'
p6017
stp6018
a(S'the'
p6019
(dp6020
S'NamedEntityTag'
p6021
g134
sS'CharacterOffsetEnd'
p6022
S'1631'
p6023
sS'Lemma'
p6024
S'the'
p6025
sS'PartOfSpeech'
p6026
S'DT'
p6027
sS'CharacterOffsetBegin'
p6028
S'1628'
p6029
stp6030
a(S'right'
p6031
(dp6032
S'NamedEntityTag'
p6033
g134
sS'CharacterOffsetEnd'
p6034
S'1637'
p6035
sS'Lemma'
p6036
S'right'
p6037
sS'PartOfSpeech'
p6038
S'NN'
p6039
sS'CharacterOffsetBegin'
p6040
S'1632'
p6041
stp6042
a(S'to'
p6043
(dp6044
S'NamedEntityTag'
p6045
g134
sS'CharacterOffsetEnd'
p6046
S'1640'
p6047
sS'Lemma'
p6048
S'to'
p6049
sS'PartOfSpeech'
p6050
S'TO'
p6051
sS'CharacterOffsetBegin'
p6052
S'1638'
p6053
stp6054
a(S'inspect'
p6055
(dp6056
S'NamedEntityTag'
p6057
g134
sS'CharacterOffsetEnd'
p6058
S'1648'
p6059
sS'Lemma'
p6060
S'inspect'
p6061
sS'PartOfSpeech'
p6062
S'VB'
p6063
sS'CharacterOffsetBegin'
p6064
S'1641'
p6065
stp6066
a(S'the'
p6067
(dp6068
S'NamedEntityTag'
p6069
g134
sS'CharacterOffsetEnd'
p6070
S'1652'
p6071
sS'Lemma'
p6072
S'the'
p6073
sS'PartOfSpeech'
p6074
S'DT'
p6075
sS'CharacterOffsetBegin'
p6076
S'1649'
p6077
stp6078
a(S'site'
p6079
(dp6080
S'NamedEntityTag'
p6081
g134
sS'CharacterOffsetEnd'
p6082
S'1657'
p6083
sS'Lemma'
p6084
S'site'
p6085
sS'PartOfSpeech'
p6086
S'NN'
p6087
sS'CharacterOffsetBegin'
p6088
S'1653'
p6089
stp6090
a(g757
(dp6091
S'NamedEntityTag'
p6092
g134
sS'CharacterOffsetEnd'
p6093
S'1658'
p6094
sS'Lemma'
p6095
g757
sS'PartOfSpeech'
p6096
g757
sS'CharacterOffsetBegin'
p6097
S'1657'
p6098
stp6099
asa(dp6100
g7
S'(ROOT (S (NP (NP (NNS Concerns)) (SBAR (WHNP (WDT that)) (S (NP (NNP North) (NNP Korea)) (VP (VBD was) (VP (VBG developing) (S (NP (JJ long-range) (NNS missiles)) (ADJP (JJ capable) (PP (IN of) (S (VP (VBG striking) (NP (NP (NP (DT all)) (PP (IN of) (NP (NNP Japan)))) (CC and) (NP (NP (NNS parts)) (PP (IN of) (NP (DT the) (NNP United) (NNPS States))))))))))))))) (VP (VBD escalated) (SBAR (WHADVP (WRB when)) (S (NP (NNP North) (NNP Korea)) (VP (VBD fired) (NP (DT a) (NN rocket)) (PP (IN on) (NP (NNP Aug) (CD 31))))))) (. .)))'
p6101
sg9
S'Concerns that North Korea was developing long-range missiles capable of striking all of Japan and parts of the United States escalated when North Korea fired a rocket on Aug 31.'
p6102
sg11
(lp6103
(S'root'
p6104
S'ROOT'
p6105
S'escalated'
p6106
tp6107
a(S'nsubj'
p6108
S'escalated'
p6109
S'Concerns'
p6110
tp6111
a(S'dobj'
p6112
S'developing'
p6113
S'that'
p6114
tp6115
a(S'nn'
p6116
S'Korea'
p6117
S'North'
p6118
tp6119
a(S'nsubj'
p6120
S'developing'
p6121
S'Korea'
p6122
tp6123
a(S'aux'
p6124
S'developing'
p6125
S'was'
p6126
tp6127
a(S'rcmod'
p6128
S'Concerns'
p6129
S'developing'
p6130
tp6131
a(S'amod'
p6132
S'missiles'
p6133
S'long-range'
p6134
tp6135
a(S'nsubj'
p6136
S'capable'
p6137
S'missiles'
p6138
tp6139
a(S'xcomp'
p6140
S'developing'
p6141
S'capable'
p6142
tp6143
a(S'prepc_of'
p6144
S'capable'
p6145
S'striking'
p6146
tp6147
a(S'dobj'
p6148
S'striking'
p6149
S'all'
p6150
tp6151
a(S'prep_of'
p6152
S'all'
p6153
S'Japan'
p6154
tp6155
a(S'conj_and'
p6156
S'all'
p6157
S'parts'
p6158
tp6159
a(S'det'
p6160
S'States'
p6161
S'the'
p6162
tp6163
a(S'nn'
p6164
S'States'
p6165
S'United'
p6166
tp6167
a(S'prep_of'
p6168
S'parts'
p6169
S'States'
p6170
tp6171
a(S'advmod'
p6172
S'fired'
p6173
S'when'
p6174
tp6175
a(S'nn'
p6176
S'Korea'
p6177
S'North'
p6178
tp6179
a(S'nsubj'
p6180
S'fired'
p6181
S'Korea'
p6182
tp6183
a(S'advcl'
p6184
S'escalated'
p6185
S'fired'
p6186
tp6187
a(S'det'
p6188
S'rocket'
p6189
g1214
tp6190
a(S'dobj'
p6191
S'fired'
p6192
S'rocket'
p6193
tp6194
a(S'prep_on'
p6195
S'fired'
p6196
S'Aug'
p6197
tp6198
a(S'num'
p6199
S'Aug'
p6200
S'31'
p6201
tp6202
asg58
(lp6203
(g6104
S'ROOT-0'
p6204
S'escalated-21'
p6205
tp6206
a(g6108
S'escalated-21'
p6207
S'Concerns-1'
p6208
tp6209
a(g6112
S'developing-6'
p6210
S'that-2'
p6211
tp6212
a(g6116
S'Korea-4'
p6213
S'North-3'
p6214
tp6215
a(g6120
S'developing-6'
p6216
S'Korea-4'
p6217
tp6218
a(g6124
S'developing-6'
p6219
S'was-5'
p6220
tp6221
a(g6128
S'Concerns-1'
p6222
S'developing-6'
p6223
tp6224
a(g6132
S'missiles-8'
p6225
S'long-range-7'
p6226
tp6227
a(g6136
S'capable-9'
p6228
S'missiles-8'
p6229
tp6230
a(g6140
S'developing-6'
p6231
S'capable-9'
p6232
tp6233
a(g6144
S'capable-9'
p6234
S'striking-11'
p6235
tp6236
a(g6148
S'striking-11'
p6237
S'all-12'
p6238
tp6239
a(g6152
S'all-12'
p6240
S'Japan-14'
p6241
tp6242
a(g6156
S'all-12'
p6243
S'parts-16'
p6244
tp6245
a(g6160
S'States-20'
p6246
S'the-18'
p6247
tp6248
a(g6164
S'States-20'
p6249
S'United-19'
p6250
tp6251
a(g6168
S'parts-16'
p6252
S'States-20'
p6253
tp6254
a(g6172
S'fired-25'
p6255
S'when-22'
p6256
tp6257
a(g6176
S'Korea-24'
p6258
S'North-23'
p6259
tp6260
a(g6180
S'fired-25'
p6261
S'Korea-24'
p6262
tp6263
a(g6184
S'escalated-21'
p6264
S'fired-25'
p6265
tp6266
a(g6188
S'rocket-27'
p6267
S'a-26'
p6268
tp6269
a(g6191
S'fired-25'
p6270
S'rocket-27'
p6271
tp6272
a(g6195
S'fired-25'
p6273
S'Aug-29'
p6274
tp6275
a(g6199
S'Aug-29'
p6276
S'31-30'
p6277
tp6278
asg96
(lp6279
(S'Concerns'
p6280
(dp6281
S'NamedEntityTag'
p6282
g134
sS'CharacterOffsetEnd'
p6283
S'1667'
p6284
sS'Lemma'
p6285
S'concern'
p6286
sS'PartOfSpeech'
p6287
S'NNS'
p6288
sS'CharacterOffsetBegin'
p6289
S'1659'
p6290
stp6291
a(S'that'
p6292
(dp6293
S'NamedEntityTag'
p6294
g134
sS'CharacterOffsetEnd'
p6295
S'1672'
p6296
sS'Lemma'
p6297
S'that'
p6298
sS'PartOfSpeech'
p6299
S'WDT'
p6300
sS'CharacterOffsetBegin'
p6301
S'1668'
p6302
stp6303
a(S'North'
p6304
(dp6305
S'NamedEntityTag'
p6306
S'LOCATION'
p6307
sS'CharacterOffsetEnd'
p6308
S'1678'
p6309
sS'Lemma'
p6310
S'North'
p6311
sS'PartOfSpeech'
p6312
S'NNP'
p6313
sS'CharacterOffsetBegin'
p6314
S'1673'
p6315
stp6316
a(S'Korea'
p6317
(dp6318
S'NamedEntityTag'
p6319
S'LOCATION'
p6320
sS'CharacterOffsetEnd'
p6321
S'1684'
p6322
sS'Lemma'
p6323
S'Korea'
p6324
sS'PartOfSpeech'
p6325
S'NNP'
p6326
sS'CharacterOffsetBegin'
p6327
S'1679'
p6328
stp6329
a(S'was'
p6330
(dp6331
S'NamedEntityTag'
p6332
g134
sS'CharacterOffsetEnd'
p6333
S'1688'
p6334
sS'Lemma'
p6335
S'be'
p6336
sS'PartOfSpeech'
p6337
S'VBD'
p6338
sS'CharacterOffsetBegin'
p6339
S'1685'
p6340
stp6341
a(S'developing'
p6342
(dp6343
S'NamedEntityTag'
p6344
g134
sS'CharacterOffsetEnd'
p6345
S'1699'
p6346
sS'Lemma'
p6347
S'develop'
p6348
sS'PartOfSpeech'
p6349
S'VBG'
p6350
sS'CharacterOffsetBegin'
p6351
S'1689'
p6352
stp6353
a(S'long-range'
p6354
(dp6355
S'NamedEntityTag'
p6356
g134
sS'CharacterOffsetEnd'
p6357
S'1710'
p6358
sS'Lemma'
p6359
S'long-range'
p6360
sS'PartOfSpeech'
p6361
S'JJ'
p6362
sS'CharacterOffsetBegin'
p6363
S'1700'
p6364
stp6365
a(S'missiles'
p6366
(dp6367
S'NamedEntityTag'
p6368
g134
sS'CharacterOffsetEnd'
p6369
S'1719'
p6370
sS'Lemma'
p6371
S'missile'
p6372
sS'PartOfSpeech'
p6373
S'NNS'
p6374
sS'CharacterOffsetBegin'
p6375
S'1711'
p6376
stp6377
a(S'capable'
p6378
(dp6379
S'NamedEntityTag'
p6380
g134
sS'CharacterOffsetEnd'
p6381
S'1727'
p6382
sS'Lemma'
p6383
S'capable'
p6384
sS'PartOfSpeech'
p6385
S'JJ'
p6386
sS'CharacterOffsetBegin'
p6387
S'1720'
p6388
stp6389
a(S'of'
p6390
(dp6391
S'NamedEntityTag'
p6392
g134
sS'CharacterOffsetEnd'
p6393
S'1730'
p6394
sS'Lemma'
p6395
S'of'
p6396
sS'PartOfSpeech'
p6397
S'IN'
p6398
sS'CharacterOffsetBegin'
p6399
S'1728'
p6400
stp6401
a(S'striking'
p6402
(dp6403
S'NamedEntityTag'
p6404
g134
sS'CharacterOffsetEnd'
p6405
S'1739'
p6406
sS'Lemma'
p6407
S'strike'
p6408
sS'PartOfSpeech'
p6409
S'VBG'
p6410
sS'CharacterOffsetBegin'
p6411
S'1731'
p6412
stp6413
a(S'all'
p6414
(dp6415
S'NamedEntityTag'
p6416
g134
sS'CharacterOffsetEnd'
p6417
S'1743'
p6418
sS'Lemma'
p6419
S'all'
p6420
sS'PartOfSpeech'
p6421
S'DT'
p6422
sS'CharacterOffsetBegin'
p6423
S'1740'
p6424
stp6425
a(S'of'
p6426
(dp6427
S'NamedEntityTag'
p6428
g134
sS'CharacterOffsetEnd'
p6429
S'1746'
p6430
sS'Lemma'
p6431
S'of'
p6432
sS'PartOfSpeech'
p6433
S'IN'
p6434
sS'CharacterOffsetBegin'
p6435
S'1744'
p6436
stp6437
a(S'Japan'
p6438
(dp6439
S'NamedEntityTag'
p6440
S'LOCATION'
p6441
sS'CharacterOffsetEnd'
p6442
S'1752'
p6443
sS'Lemma'
p6444
S'Japan'
p6445
sS'PartOfSpeech'
p6446
S'NNP'
p6447
sS'CharacterOffsetBegin'
p6448
S'1747'
p6449
stp6450
a(S'and'
p6451
(dp6452
S'NamedEntityTag'
p6453
g134
sS'CharacterOffsetEnd'
p6454
S'1756'
p6455
sS'Lemma'
p6456
S'and'
p6457
sS'PartOfSpeech'
p6458
S'CC'
p6459
sS'CharacterOffsetBegin'
p6460
S'1753'
p6461
stp6462
a(S'parts'
p6463
(dp6464
S'NamedEntityTag'
p6465
g134
sS'CharacterOffsetEnd'
p6466
S'1762'
p6467
sS'Lemma'
p6468
S'part'
p6469
sS'PartOfSpeech'
p6470
S'NNS'
p6471
sS'CharacterOffsetBegin'
p6472
S'1757'
p6473
stp6474
a(S'of'
p6475
(dp6476
S'NamedEntityTag'
p6477
g134
sS'CharacterOffsetEnd'
p6478
S'1765'
p6479
sS'Lemma'
p6480
S'of'
p6481
sS'PartOfSpeech'
p6482
S'IN'
p6483
sS'CharacterOffsetBegin'
p6484
S'1763'
p6485
stp6486
a(S'the'
p6487
(dp6488
S'NamedEntityTag'
p6489
g134
sS'CharacterOffsetEnd'
p6490
S'1769'
p6491
sS'Lemma'
p6492
S'the'
p6493
sS'PartOfSpeech'
p6494
S'DT'
p6495
sS'CharacterOffsetBegin'
p6496
S'1766'
p6497
stp6498
a(S'United'
p6499
(dp6500
S'NamedEntityTag'
p6501
S'LOCATION'
p6502
sS'CharacterOffsetEnd'
p6503
S'1776'
p6504
sS'Lemma'
p6505
S'United'
p6506
sS'PartOfSpeech'
p6507
S'NNP'
p6508
sS'CharacterOffsetBegin'
p6509
S'1770'
p6510
stp6511
a(S'States'
p6512
(dp6513
S'NamedEntityTag'
p6514
S'LOCATION'
p6515
sS'CharacterOffsetEnd'
p6516
S'1783'
p6517
sS'Lemma'
p6518
S'States'
p6519
sS'PartOfSpeech'
p6520
S'NNPS'
p6521
sS'CharacterOffsetBegin'
p6522
S'1777'
p6523
stp6524
a(S'escalated'
p6525
(dp6526
S'NamedEntityTag'
p6527
g134
sS'CharacterOffsetEnd'
p6528
S'1793'
p6529
sS'Lemma'
p6530
S'escalate'
p6531
sS'PartOfSpeech'
p6532
S'VBD'
p6533
sS'CharacterOffsetBegin'
p6534
S'1784'
p6535
stp6536
a(S'when'
p6537
(dp6538
S'NamedEntityTag'
p6539
g134
sS'CharacterOffsetEnd'
p6540
S'1798'
p6541
sS'Lemma'
p6542
S'when'
p6543
sS'PartOfSpeech'
p6544
S'WRB'
p6545
sS'CharacterOffsetBegin'
p6546
S'1794'
p6547
stp6548
a(S'North'
p6549
(dp6550
S'NamedEntityTag'
p6551
S'LOCATION'
p6552
sS'CharacterOffsetEnd'
p6553
S'1804'
p6554
sS'Lemma'
p6555
S'North'
p6556
sS'PartOfSpeech'
p6557
S'NNP'
p6558
sS'CharacterOffsetBegin'
p6559
S'1799'
p6560
stp6561
a(S'Korea'
p6562
(dp6563
S'NamedEntityTag'
p6564
S'LOCATION'
p6565
sS'CharacterOffsetEnd'
p6566
S'1810'
p6567
sS'Lemma'
p6568
S'Korea'
p6569
sS'PartOfSpeech'
p6570
S'NNP'
p6571
sS'CharacterOffsetBegin'
p6572
S'1805'
p6573
stp6574
a(S'fired'
p6575
(dp6576
S'NamedEntityTag'
p6577
g134
sS'CharacterOffsetEnd'
p6578
S'1816'
p6579
sS'Lemma'
p6580
S'fire'
p6581
sS'PartOfSpeech'
p6582
S'VBD'
p6583
sS'CharacterOffsetBegin'
p6584
S'1811'
p6585
stp6586
a(g1214
(dp6587
S'NamedEntityTag'
p6588
g134
sS'CharacterOffsetEnd'
p6589
S'1818'
p6590
sS'Lemma'
p6591
g1214
sS'PartOfSpeech'
p6592
S'DT'
p6593
sS'CharacterOffsetBegin'
p6594
S'1817'
p6595
stp6596
a(S'rocket'
p6597
(dp6598
S'NamedEntityTag'
p6599
g134
sS'CharacterOffsetEnd'
p6600
S'1825'
p6601
sS'Lemma'
p6602
S'rocket'
p6603
sS'PartOfSpeech'
p6604
S'NN'
p6605
sS'CharacterOffsetBegin'
p6606
S'1819'
p6607
stp6608
a(S'on'
p6609
(dp6610
S'NamedEntityTag'
p6611
g134
sS'CharacterOffsetEnd'
p6612
S'1828'
p6613
sS'Lemma'
p6614
S'on'
p6615
sS'PartOfSpeech'
p6616
S'IN'
p6617
sS'CharacterOffsetBegin'
p6618
S'1826'
p6619
stp6620
a(S'Aug'
p6621
(dp6622
S'NormalizedNamedEntityTag'
p6623
S'XXXX-08-31'
p6624
sS'Timex'
p6625
S'<TIMEX3 tid="t5" type="DATE" value="XXXX-08-31">Aug 31</TIMEX3>'
p6626
sS'Lemma'
p6627
S'Aug'
p6628
sS'CharacterOffsetEnd'
p6629
S'1832'
p6630
sS'PartOfSpeech'
p6631
S'NNP'
p6632
sS'CharacterOffsetBegin'
p6633
S'1829'
p6634
sS'NamedEntityTag'
p6635
S'DATE'
p6636
stp6637
a(S'31'
p6638
(dp6639
S'NormalizedNamedEntityTag'
p6640
S'XXXX-08-31'
p6641
sS'Timex'
p6642
S'<TIMEX3 tid="t5" type="DATE" value="XXXX-08-31">Aug 31</TIMEX3>'
p6643
sS'Lemma'
p6644
S'31'
p6645
sS'CharacterOffsetEnd'
p6646
S'1835'
p6647
sS'PartOfSpeech'
p6648
S'CD'
p6649
sS'CharacterOffsetBegin'
p6650
S'1833'
p6651
sS'NamedEntityTag'
p6652
S'DATE'
p6653
stp6654
a(g757
(dp6655
S'NamedEntityTag'
p6656
g134
sS'CharacterOffsetEnd'
p6657
S'1836'
p6658
sS'Lemma'
p6659
g757
sS'PartOfSpeech'
p6660
g757
sS'CharacterOffsetBegin'
p6661
S'1835'
p6662
stp6663
asa(dp6664
g7
S'(ROOT (S (S (VP (VBN Believed) (S (VP (TO to) (VP (VB be) (NP (NP (DT a) (NN test)) (PP (IN of) (NP (PRP$ its) (NNP Taepo) (NNP Dong) (NN missile))))))))) (, ,) (NP (DT the) (NN rocket)) (VP (VP (VBD flew) (PP (IN over) (NP (NNP Japan)))) (CC and) (VP (VBD landed) (PP (IN in) (NP (DT the) (NNP Pacific) (NNP Ocean))))) (. .)))'
p6665
sg9
S'Believed to be a test of its Taepo Dong missile, the rocket flew over Japan and landed in the Pacific Ocean.'
p6666
sg11
(lp6667
(S'root'
p6668
S'ROOT'
p6669
S'flew'
p6670
tp6671
a(S'partmod'
p6672
S'flew'
p6673
S'Believed'
p6674
tp6675
a(S'aux'
p6676
S'test'
p6677
S'to'
p6678
tp6679
a(S'cop'
p6680
S'test'
p6681
S'be'
p6682
tp6683
a(S'det'
p6684
S'test'
p6685
g1214
tp6686
a(S'xcomp'
p6687
S'Believed'
p6688
S'test'
p6689
tp6690
a(S'poss'
p6691
S'missile'
p6692
S'its'
p6693
tp6694
a(S'nn'
p6695
S'missile'
p6696
S'Taepo'
p6697
tp6698
a(S'nn'
p6699
S'missile'
p6700
S'Dong'
p6701
tp6702
a(S'prep_of'
p6703
S'test'
p6704
S'missile'
p6705
tp6706
a(S'det'
p6707
S'rocket'
p6708
S'the'
p6709
tp6710
a(S'nsubj'
p6711
S'flew'
p6712
S'rocket'
p6713
tp6714
a(S'prep_over'
p6715
S'flew'
p6716
S'Japan'
p6717
tp6718
a(S'conj_and'
p6719
S'flew'
p6720
S'landed'
p6721
tp6722
a(S'det'
p6723
S'Ocean'
p6724
S'the'
p6725
tp6726
a(S'nn'
p6727
S'Ocean'
p6728
S'Pacific'
p6729
tp6730
a(S'prep_in'
p6731
S'landed'
p6732
S'Ocean'
p6733
tp6734
asg58
(lp6735
(g6668
S'ROOT-0'
p6736
S'flew-14'
p6737
tp6738
a(g6672
S'flew-14'
p6739
S'Believed-1'
p6740
tp6741
a(g6676
S'test-5'
p6742
S'to-2'
p6743
tp6744
a(g6680
S'test-5'
p6745
S'be-3'
p6746
tp6747
a(g6684
S'test-5'
p6748
S'a-4'
p6749
tp6750
a(g6687
S'Believed-1'
p6751
S'test-5'
p6752
tp6753
a(g6691
S'missile-10'
p6754
S'its-7'
p6755
tp6756
a(g6695
S'missile-10'
p6757
S'Taepo-8'
p6758
tp6759
a(g6699
S'missile-10'
p6760
S'Dong-9'
p6761
tp6762
a(g6703
S'test-5'
p6763
S'missile-10'
p6764
tp6765
a(g6707
S'rocket-13'
p6766
S'the-12'
p6767
tp6768
a(g6711
S'flew-14'
p6769
S'rocket-13'
p6770
tp6771
a(g6715
S'flew-14'
p6772
S'Japan-16'
p6773
tp6774
a(g6719
S'flew-14'
p6775
S'landed-18'
p6776
tp6777
a(g6723
S'Ocean-22'
p6778
S'the-20'
p6779
tp6780
a(g6727
S'Ocean-22'
p6781
S'Pacific-21'
p6782
tp6783
a(g6731
S'landed-18'
p6784
S'Ocean-22'
p6785
tp6786
asg96
(lp6787
(S'Believed'
p6788
(dp6789
S'NamedEntityTag'
p6790
g134
sS'CharacterOffsetEnd'
p6791
S'1845'
p6792
sS'Lemma'
p6793
S'believe'
p6794
sS'PartOfSpeech'
p6795
S'VBN'
p6796
sS'CharacterOffsetBegin'
p6797
S'1837'
p6798
stp6799
a(S'to'
p6800
(dp6801
S'NamedEntityTag'
p6802
g134
sS'CharacterOffsetEnd'
p6803
S'1848'
p6804
sS'Lemma'
p6805
S'to'
p6806
sS'PartOfSpeech'
p6807
S'TO'
p6808
sS'CharacterOffsetBegin'
p6809
S'1846'
p6810
stp6811
a(S'be'
p6812
(dp6813
S'NamedEntityTag'
p6814
g134
sS'CharacterOffsetEnd'
p6815
S'1851'
p6816
sS'Lemma'
p6817
S'be'
p6818
sS'PartOfSpeech'
p6819
S'VB'
p6820
sS'CharacterOffsetBegin'
p6821
S'1849'
p6822
stp6823
a(g1214
(dp6824
S'NamedEntityTag'
p6825
g134
sS'CharacterOffsetEnd'
p6826
S'1853'
p6827
sS'Lemma'
p6828
g1214
sS'PartOfSpeech'
p6829
S'DT'
p6830
sS'CharacterOffsetBegin'
p6831
S'1852'
p6832
stp6833
a(S'test'
p6834
(dp6835
S'NamedEntityTag'
p6836
g134
sS'CharacterOffsetEnd'
p6837
S'1858'
p6838
sS'Lemma'
p6839
S'test'
p6840
sS'PartOfSpeech'
p6841
S'NN'
p6842
sS'CharacterOffsetBegin'
p6843
S'1854'
p6844
stp6845
a(S'of'
p6846
(dp6847
S'NamedEntityTag'
p6848
g134
sS'CharacterOffsetEnd'
p6849
S'1861'
p6850
sS'Lemma'
p6851
S'of'
p6852
sS'PartOfSpeech'
p6853
S'IN'
p6854
sS'CharacterOffsetBegin'
p6855
S'1859'
p6856
stp6857
a(S'its'
p6858
(dp6859
S'NamedEntityTag'
p6860
g134
sS'CharacterOffsetEnd'
p6861
S'1865'
p6862
sS'Lemma'
p6863
S'its'
p6864
sS'PartOfSpeech'
p6865
S'PRP$'
p6866
sS'CharacterOffsetBegin'
p6867
S'1862'
p6868
stp6869
a(S'Taepo'
p6870
(dp6871
S'NamedEntityTag'
p6872
S'PERSON'
p6873
sS'CharacterOffsetEnd'
p6874
S'1871'
p6875
sS'Lemma'
p6876
S'Taepo'
p6877
sS'PartOfSpeech'
p6878
S'NNP'
p6879
sS'CharacterOffsetBegin'
p6880
S'1866'
p6881
stp6882
a(S'Dong'
p6883
(dp6884
S'NamedEntityTag'
p6885
S'PERSON'
p6886
sS'CharacterOffsetEnd'
p6887
S'1876'
p6888
sS'Lemma'
p6889
S'Dong'
p6890
sS'PartOfSpeech'
p6891
S'NNP'
p6892
sS'CharacterOffsetBegin'
p6893
S'1872'
p6894
stp6895
a(S'missile'
p6896
(dp6897
S'NamedEntityTag'
p6898
g134
sS'CharacterOffsetEnd'
p6899
S'1884'
p6900
sS'Lemma'
p6901
S'missile'
p6902
sS'PartOfSpeech'
p6903
S'NN'
p6904
sS'CharacterOffsetBegin'
p6905
S'1877'
p6906
stp6907
a(g2337
(dp6908
S'NamedEntityTag'
p6909
g134
sS'CharacterOffsetEnd'
p6910
S'1885'
p6911
sS'Lemma'
p6912
g2337
sS'PartOfSpeech'
p6913
g2337
sS'CharacterOffsetBegin'
p6914
S'1884'
p6915
stp6916
a(S'the'
p6917
(dp6918
S'NamedEntityTag'
p6919
g134
sS'CharacterOffsetEnd'
p6920
S'1889'
p6921
sS'Lemma'
p6922
S'the'
p6923
sS'PartOfSpeech'
p6924
S'DT'
p6925
sS'CharacterOffsetBegin'
p6926
S'1886'
p6927
stp6928
a(S'rocket'
p6929
(dp6930
S'NamedEntityTag'
p6931
g134
sS'CharacterOffsetEnd'
p6932
S'1896'
p6933
sS'Lemma'
p6934
S'rocket'
p6935
sS'PartOfSpeech'
p6936
S'NN'
p6937
sS'CharacterOffsetBegin'
p6938
S'1890'
p6939
stp6940
a(S'flew'
p6941
(dp6942
S'NamedEntityTag'
p6943
g134
sS'CharacterOffsetEnd'
p6944
S'1901'
p6945
sS'Lemma'
p6946
S'fly'
p6947
sS'PartOfSpeech'
p6948
S'VBD'
p6949
sS'CharacterOffsetBegin'
p6950
S'1897'
p6951
stp6952
a(S'over'
p6953
(dp6954
S'NamedEntityTag'
p6955
g134
sS'CharacterOffsetEnd'
p6956
S'1906'
p6957
sS'Lemma'
p6958
S'over'
p6959
sS'PartOfSpeech'
p6960
S'IN'
p6961
sS'CharacterOffsetBegin'
p6962
S'1902'
p6963
stp6964
a(S'Japan'
p6965
(dp6966
S'NamedEntityTag'
p6967
S'LOCATION'
p6968
sS'CharacterOffsetEnd'
p6969
S'1912'
p6970
sS'Lemma'
p6971
S'Japan'
p6972
sS'PartOfSpeech'
p6973
S'NNP'
p6974
sS'CharacterOffsetBegin'
p6975
S'1907'
p6976
stp6977
a(S'and'
p6978
(dp6979
S'NamedEntityTag'
p6980
g134
sS'CharacterOffsetEnd'
p6981
S'1916'
p6982
sS'Lemma'
p6983
S'and'
p6984
sS'PartOfSpeech'
p6985
S'CC'
p6986
sS'CharacterOffsetBegin'
p6987
S'1913'
p6988
stp6989
a(S'landed'
p6990
(dp6991
S'NamedEntityTag'
p6992
g134
sS'CharacterOffsetEnd'
p6993
S'1923'
p6994
sS'Lemma'
p6995
S'land'
p6996
sS'PartOfSpeech'
p6997
S'VBD'
p6998
sS'CharacterOffsetBegin'
p6999
S'1917'
p7000
stp7001
a(S'in'
p7002
(dp7003
S'NamedEntityTag'
p7004
g134
sS'CharacterOffsetEnd'
p7005
S'1926'
p7006
sS'Lemma'
p7007
S'in'
p7008
sS'PartOfSpeech'
p7009
S'IN'
p7010
sS'CharacterOffsetBegin'
p7011
S'1924'
p7012
stp7013
a(S'the'
p7014
(dp7015
S'NamedEntityTag'
p7016
g134
sS'CharacterOffsetEnd'
p7017
S'1930'
p7018
sS'Lemma'
p7019
S'the'
p7020
sS'PartOfSpeech'
p7021
S'DT'
p7022
sS'CharacterOffsetBegin'
p7023
S'1927'
p7024
stp7025
a(S'Pacific'
p7026
(dp7027
S'NamedEntityTag'
p7028
S'LOCATION'
p7029
sS'CharacterOffsetEnd'
p7030
S'1938'
p7031
sS'Lemma'
p7032
S'Pacific'
p7033
sS'PartOfSpeech'
p7034
S'NNP'
p7035
sS'CharacterOffsetBegin'
p7036
S'1931'
p7037
stp7038
a(S'Ocean'
p7039
(dp7040
S'NamedEntityTag'
p7041
S'LOCATION'
p7042
sS'CharacterOffsetEnd'
p7043
S'1944'
p7044
sS'Lemma'
p7045
S'Ocean'
p7046
sS'PartOfSpeech'
p7047
S'NNP'
p7048
sS'CharacterOffsetBegin'
p7049
S'1939'
p7050
stp7051
a(g757
(dp7052
S'NamedEntityTag'
p7053
g134
sS'CharacterOffsetEnd'
p7054
S'1945'
p7055
sS'Lemma'
p7056
g757
sS'PartOfSpeech'
p7057
g757
sS'CharacterOffsetBegin'
p7058
S'1944'
p7059
stp7060
asa(dp7061
g7
S'(ROOT (S (NP (DT The) (ADJP (JJ Norths) (NP-TMP (CD 1.1))) (JJ million-strong) (NN military)) (VP (VBZ is) (NP (NP (DT the) (NNS worlds)) (ADJP (RB fifth) (JJS largest)))) (. .)))'
p7062
sg9
S'The Norths 1.1 million-strong military is the worlds fifth largest.'
p7063
sg11
(lp7064
(S'root'
p7065
S'ROOT'
p7066
S'worlds'
p7067
tp7068
a(S'det'
p7069
S'military'
p7070
S'The'
p7071
tp7072
a(S'amod'
p7073
S'military'
p7074
S'Norths'
p7075
tp7076
a(S'tmod'
p7077
S'Norths'
p7078
S'1.1'
p7079
tp7080
a(S'amod'
p7081
S'military'
p7082
S'million-strong'
p7083
tp7084
a(S'nsubj'
p7085
S'worlds'
p7086
S'military'
p7087
tp7088
a(S'cop'
p7089
S'worlds'
p7090
S'is'
p7091
tp7092
a(S'det'
p7093
S'worlds'
p7094
S'the'
p7095
tp7096
a(S'advmod'
p7097
S'largest'
p7098
S'fifth'
p7099
tp7100
a(S'amod'
p7101
S'worlds'
p7102
S'largest'
p7103
tp7104
asg58
(lp7105
(g7065
S'ROOT-0'
p7106
S'worlds-8'
p7107
tp7108
a(g7069
S'military-5'
p7109
S'The-1'
p7110
tp7111
a(g7073
S'military-5'
p7112
S'Norths-2'
p7113
tp7114
a(g7077
S'Norths-2'
p7115
S'1.1-3'
p7116
tp7117
a(g7081
S'military-5'
p7118
S'million-strong-4'
p7119
tp7120
a(g7085
S'worlds-8'
p7121
S'military-5'
p7122
tp7123
a(g7089
S'worlds-8'
p7124
S'is-6'
p7125
tp7126
a(g7093
S'worlds-8'
p7127
S'the-7'
p7128
tp7129
a(g7097
S'largest-10'
p7130
S'fifth-9'
p7131
tp7132
a(g7101
S'worlds-8'
p7133
S'largest-10'
p7134
tp7135
asg96
(lp7136
(S'The'
p7137
(dp7138
S'NamedEntityTag'
p7139
g134
sS'CharacterOffsetEnd'
p7140
S'1949'
p7141
sS'Lemma'
p7142
S'the'
p7143
sS'PartOfSpeech'
p7144
S'DT'
p7145
sS'CharacterOffsetBegin'
p7146
S'1946'
p7147
stp7148
a(S'Norths'
p7149
(dp7150
S'NamedEntityTag'
p7151
S'MISC'
p7152
sS'CharacterOffsetEnd'
p7153
S'1956'
p7154
sS'Lemma'
p7155
S'norths'
p7156
sS'PartOfSpeech'
p7157
S'JJ'
p7158
sS'CharacterOffsetBegin'
p7159
S'1950'
p7160
stp7161
a(S'1.1'
p7162
(dp7163
S'NormalizedNamedEntityTag'
p7164
S'1.1'
p7165
sS'Lemma'
p7166
S'1.1'
p7167
sS'CharacterOffsetEnd'
p7168
S'1960'
p7169
sS'PartOfSpeech'
p7170
S'CD'
p7171
sS'CharacterOffsetBegin'
p7172
S'1957'
p7173
sS'NamedEntityTag'
p7174
S'NUMBER'
p7175
stp7176
a(S'million-strong'
p7177
(dp7178
S'NamedEntityTag'
p7179
g134
sS'CharacterOffsetEnd'
p7180
S'1975'
p7181
sS'Lemma'
p7182
S'million-strong'
p7183
sS'PartOfSpeech'
p7184
S'JJ'
p7185
sS'CharacterOffsetBegin'
p7186
S'1961'
p7187
stp7188
a(S'military'
p7189
(dp7190
S'NamedEntityTag'
p7191
g134
sS'CharacterOffsetEnd'
p7192
S'1984'
p7193
sS'Lemma'
p7194
S'military'
p7195
sS'PartOfSpeech'
p7196
S'NN'
p7197
sS'CharacterOffsetBegin'
p7198
S'1976'
p7199
stp7200
a(S'is'
p7201
(dp7202
S'NamedEntityTag'
p7203
g134
sS'CharacterOffsetEnd'
p7204
S'1987'
p7205
sS'Lemma'
p7206
S'be'
p7207
sS'PartOfSpeech'
p7208
S'VBZ'
p7209
sS'CharacterOffsetBegin'
p7210
S'1985'
p7211
stp7212
a(S'the'
p7213
(dp7214
S'NamedEntityTag'
p7215
g134
sS'CharacterOffsetEnd'
p7216
S'1991'
p7217
sS'Lemma'
p7218
S'the'
p7219
sS'PartOfSpeech'
p7220
S'DT'
p7221
sS'CharacterOffsetBegin'
p7222
S'1988'
p7223
stp7224
a(S'worlds'
p7225
(dp7226
S'NamedEntityTag'
p7227
g134
sS'CharacterOffsetEnd'
p7228
S'1998'
p7229
sS'Lemma'
p7230
S'world'
p7231
sS'PartOfSpeech'
p7232
S'NNS'
p7233
sS'CharacterOffsetBegin'
p7234
S'1992'
p7235
stp7236
a(S'fifth'
p7237
(dp7238
S'NormalizedNamedEntityTag'
p7239
S'5.0'
p7240
sS'Lemma'
p7241
S'fifth'
p7242
sS'CharacterOffsetEnd'
p7243
S'2004'
p7244
sS'PartOfSpeech'
p7245
S'RB'
p7246
sS'CharacterOffsetBegin'
p7247
S'1999'
p7248
sS'NamedEntityTag'
p7249
S'ORDINAL'
p7250
stp7251
a(S'largest'
p7252
(dp7253
S'NamedEntityTag'
p7254
g134
sS'CharacterOffsetEnd'
p7255
S'2012'
p7256
sS'Lemma'
p7257
S'largest'
p7258
sS'PartOfSpeech'
p7259
S'JJS'
p7260
sS'CharacterOffsetBegin'
p7261
S'2005'
p7262
stp7263
a(g757
(dp7264
S'NamedEntityTag'
p7265
g134
sS'CharacterOffsetEnd'
p7266
S'2013'
p7267
sS'Lemma'
p7268
g757
sS'PartOfSpeech'
p7269
g757
sS'CharacterOffsetBegin'
p7270
S'2012'
p7271
stp7272
asa(dp7273
g7
S'(ROOT (S (NP (PRP It)) (VP (VBZ forms) (NP (NP (DT the) (NN backbone)) (PP (IN of) (NP (DT the) (ADJP (JJ North) (JJ Korean)) (NN government)))) (, ,) (PP (IN with) (NP (NP (NN leader) (NNP Kim) (NNP Jong) (NNP Il)) (VP (VBG ruling) (NP (DT the) (NN country)) (PP (IN as) (NP (NP (DT the) (NN head)) (PP (IN of) (NP (DT the) (NN military))))))))) (. .)))'
p7274
sg9
S'It forms the backbone of the North Korean government, with leader Kim Jong Il ruling the country as the head of the military.'
p7275
sg11
(lp7276
(S'root'
p7277
S'ROOT'
p7278
S'forms'
p7279
tp7280
a(S'nsubj'
p7281
S'forms'
p7282
S'It'
p7283
tp7284
a(S'det'
p7285
S'backbone'
p7286
S'the'
p7287
tp7288
a(S'dobj'
p7289
S'forms'
p7290
S'backbone'
p7291
tp7292
a(S'det'
p7293
S'government'
p7294
S'the'
p7295
tp7296
a(S'amod'
p7297
S'Korean'
p7298
S'North'
p7299
tp7300
a(S'amod'
p7301
S'government'
p7302
S'Korean'
p7303
tp7304
a(S'prep_of'
p7305
S'backbone'
p7306
S'government'
p7307
tp7308
a(S'nn'
p7309
S'Il'
p7310
S'leader'
p7311
tp7312
a(S'nn'
p7313
S'Il'
p7314
S'Kim'
p7315
tp7316
a(S'nn'
p7317
S'Il'
p7318
S'Jong'
p7319
tp7320
a(S'prep_with'
p7321
S'forms'
p7322
S'Il'
p7323
tp7324
a(S'partmod'
p7325
S'Il'
p7326
S'ruling'
p7327
tp7328
a(S'det'
p7329
S'country'
p7330
S'the'
p7331
tp7332
a(S'dobj'
p7333
S'ruling'
p7334
S'country'
p7335
tp7336
a(S'det'
p7337
S'head'
p7338
S'the'
p7339
tp7340
a(S'prep_as'
p7341
S'ruling'
p7342
S'head'
p7343
tp7344
a(S'det'
p7345
S'military'
p7346
S'the'
p7347
tp7348
a(S'prep_of'
p7349
S'head'
p7350
S'military'
p7351
tp7352
asg58
(lp7353
(g7277
S'ROOT-0'
p7354
S'forms-2'
p7355
tp7356
a(g7281
S'forms-2'
p7357
S'It-1'
p7358
tp7359
a(g7285
S'backbone-4'
p7360
S'the-3'
p7361
tp7362
a(g7289
S'forms-2'
p7363
S'backbone-4'
p7364
tp7365
a(g7293
S'government-9'
p7366
S'the-6'
p7367
tp7368
a(g7297
S'Korean-8'
p7369
S'North-7'
p7370
tp7371
a(g7301
S'government-9'
p7372
S'Korean-8'
p7373
tp7374
a(g7305
S'backbone-4'
p7375
S'government-9'
p7376
tp7377
a(g7309
S'Il-15'
p7378
S'leader-12'
p7379
tp7380
a(g7313
S'Il-15'
p7381
S'Kim-13'
p7382
tp7383
a(g7317
S'Il-15'
p7384
S'Jong-14'
p7385
tp7386
a(g7321
S'forms-2'
p7387
S'Il-15'
p7388
tp7389
a(g7325
S'Il-15'
p7390
S'ruling-16'
p7391
tp7392
a(g7329
S'country-18'
p7393
S'the-17'
p7394
tp7395
a(g7333
S'ruling-16'
p7396
S'country-18'
p7397
tp7398
a(g7337
S'head-21'
p7399
S'the-20'
p7400
tp7401
a(g7341
S'ruling-16'
p7402
S'head-21'
p7403
tp7404
a(g7345
S'military-24'
p7405
S'the-23'
p7406
tp7407
a(g7349
S'head-21'
p7408
S'military-24'
p7409
tp7410
asg96
(lp7411
(S'It'
p7412
(dp7413
S'NamedEntityTag'
p7414
g134
sS'CharacterOffsetEnd'
p7415
S'2016'
p7416
sS'Lemma'
p7417
S'it'
p7418
sS'PartOfSpeech'
p7419
S'PRP'
p7420
sS'CharacterOffsetBegin'
p7421
S'2014'
p7422
stp7423
a(S'forms'
p7424
(dp7425
S'NamedEntityTag'
p7426
g134
sS'CharacterOffsetEnd'
p7427
S'2022'
p7428
sS'Lemma'
p7429
S'form'
p7430
sS'PartOfSpeech'
p7431
S'VBZ'
p7432
sS'CharacterOffsetBegin'
p7433
S'2017'
p7434
stp7435
a(S'the'
p7436
(dp7437
S'NamedEntityTag'
p7438
g134
sS'CharacterOffsetEnd'
p7439
S'2026'
p7440
sS'Lemma'
p7441
S'the'
p7442
sS'PartOfSpeech'
p7443
S'DT'
p7444
sS'CharacterOffsetBegin'
p7445
S'2023'
p7446
stp7447
a(S'backbone'
p7448
(dp7449
S'NamedEntityTag'
p7450
g134
sS'CharacterOffsetEnd'
p7451
S'2035'
p7452
sS'Lemma'
p7453
S'backbone'
p7454
sS'PartOfSpeech'
p7455
S'NN'
p7456
sS'CharacterOffsetBegin'
p7457
S'2027'
p7458
stp7459
a(S'of'
p7460
(dp7461
S'NamedEntityTag'
p7462
g134
sS'CharacterOffsetEnd'
p7463
S'2038'
p7464
sS'Lemma'
p7465
S'of'
p7466
sS'PartOfSpeech'
p7467
S'IN'
p7468
sS'CharacterOffsetBegin'
p7469
S'2036'
p7470
stp7471
a(S'the'
p7472
(dp7473
S'NamedEntityTag'
p7474
g134
sS'CharacterOffsetEnd'
p7475
S'2042'
p7476
sS'Lemma'
p7477
S'the'
p7478
sS'PartOfSpeech'
p7479
S'DT'
p7480
sS'CharacterOffsetBegin'
p7481
S'2039'
p7482
stp7483
a(S'North'
p7484
(dp7485
S'NamedEntityTag'
p7486
S'LOCATION'
p7487
sS'CharacterOffsetEnd'
p7488
S'2048'
p7489
sS'Lemma'
p7490
S'north'
p7491
sS'PartOfSpeech'
p7492
S'JJ'
p7493
sS'CharacterOffsetBegin'
p7494
S'2043'
p7495
stp7496
a(S'Korean'
p7497
(dp7498
S'NamedEntityTag'
p7499
S'LOCATION'
p7500
sS'CharacterOffsetEnd'
p7501
S'2055'
p7502
sS'Lemma'
p7503
S'korean'
p7504
sS'PartOfSpeech'
p7505
S'JJ'
p7506
sS'CharacterOffsetBegin'
p7507
S'2049'
p7508
stp7509
a(S'government'
p7510
(dp7511
S'NamedEntityTag'
p7512
g134
sS'CharacterOffsetEnd'
p7513
S'2066'
p7514
sS'Lemma'
p7515
S'government'
p7516
sS'PartOfSpeech'
p7517
S'NN'
p7518
sS'CharacterOffsetBegin'
p7519
S'2056'
p7520
stp7521
a(g2337
(dp7522
S'NamedEntityTag'
p7523
g134
sS'CharacterOffsetEnd'
p7524
S'2067'
p7525
sS'Lemma'
p7526
g2337
sS'PartOfSpeech'
p7527
g2337
sS'CharacterOffsetBegin'
p7528
S'2066'
p7529
stp7530
a(S'with'
p7531
(dp7532
S'NamedEntityTag'
p7533
g134
sS'CharacterOffsetEnd'
p7534
S'2072'
p7535
sS'Lemma'
p7536
S'with'
p7537
sS'PartOfSpeech'
p7538
S'IN'
p7539
sS'CharacterOffsetBegin'
p7540
S'2068'
p7541
stp7542
a(S'leader'
p7543
(dp7544
S'NamedEntityTag'
p7545
g134
sS'CharacterOffsetEnd'
p7546
S'2079'
p7547
sS'Lemma'
p7548
S'leader'
p7549
sS'PartOfSpeech'
p7550
S'NN'
p7551
sS'CharacterOffsetBegin'
p7552
S'2073'
p7553
stp7554
a(S'Kim'
p7555
(dp7556
S'NamedEntityTag'
p7557
S'PERSON'
p7558
sS'CharacterOffsetEnd'
p7559
S'2083'
p7560
sS'Lemma'
p7561
S'Kim'
p7562
sS'PartOfSpeech'
p7563
S'NNP'
p7564
sS'CharacterOffsetBegin'
p7565
S'2080'
p7566
stp7567
a(S'Jong'
p7568
(dp7569
S'NamedEntityTag'
p7570
S'PERSON'
p7571
sS'CharacterOffsetEnd'
p7572
S'2088'
p7573
sS'Lemma'
p7574
S'Jong'
p7575
sS'PartOfSpeech'
p7576
S'NNP'
p7577
sS'CharacterOffsetBegin'
p7578
S'2084'
p7579
stp7580
a(S'Il'
p7581
(dp7582
S'NamedEntityTag'
p7583
S'PERSON'
p7584
sS'CharacterOffsetEnd'
p7585
S'2091'
p7586
sS'Lemma'
p7587
S'Il'
p7588
sS'PartOfSpeech'
p7589
S'NNP'
p7590
sS'CharacterOffsetBegin'
p7591
S'2089'
p7592
stp7593
a(S'ruling'
p7594
(dp7595
S'NamedEntityTag'
p7596
g134
sS'CharacterOffsetEnd'
p7597
S'2098'
p7598
sS'Lemma'
p7599
S'rule'
p7600
sS'PartOfSpeech'
p7601
S'VBG'
p7602
sS'CharacterOffsetBegin'
p7603
S'2092'
p7604
stp7605
a(S'the'
p7606
(dp7607
S'NamedEntityTag'
p7608
g134
sS'CharacterOffsetEnd'
p7609
S'2102'
p7610
sS'Lemma'
p7611
S'the'
p7612
sS'PartOfSpeech'
p7613
S'DT'
p7614
sS'CharacterOffsetBegin'
p7615
S'2099'
p7616
stp7617
a(S'country'
p7618
(dp7619
S'NamedEntityTag'
p7620
g134
sS'CharacterOffsetEnd'
p7621
S'2110'
p7622
sS'Lemma'
p7623
S'country'
p7624
sS'PartOfSpeech'
p7625
S'NN'
p7626
sS'CharacterOffsetBegin'
p7627
S'2103'
p7628
stp7629
a(S'as'
p7630
(dp7631
S'NamedEntityTag'
p7632
g134
sS'CharacterOffsetEnd'
p7633
S'2113'
p7634
sS'Lemma'
p7635
S'as'
p7636
sS'PartOfSpeech'
p7637
S'IN'
p7638
sS'CharacterOffsetBegin'
p7639
S'2111'
p7640
stp7641
a(S'the'
p7642
(dp7643
S'NamedEntityTag'
p7644
g134
sS'CharacterOffsetEnd'
p7645
S'2117'
p7646
sS'Lemma'
p7647
S'the'
p7648
sS'PartOfSpeech'
p7649
S'DT'
p7650
sS'CharacterOffsetBegin'
p7651
S'2114'
p7652
stp7653
a(S'head'
p7654
(dp7655
S'NamedEntityTag'
p7656
g134
sS'CharacterOffsetEnd'
p7657
S'2122'
p7658
sS'Lemma'
p7659
S'head'
p7660
sS'PartOfSpeech'
p7661
S'NN'
p7662
sS'CharacterOffsetBegin'
p7663
S'2118'
p7664
stp7665
a(S'of'
p7666
(dp7667
S'NamedEntityTag'
p7668
g134
sS'CharacterOffsetEnd'
p7669
S'2125'
p7670
sS'Lemma'
p7671
S'of'
p7672
sS'PartOfSpeech'
p7673
S'IN'
p7674
sS'CharacterOffsetBegin'
p7675
S'2123'
p7676
stp7677
a(S'the'
p7678
(dp7679
S'NamedEntityTag'
p7680
g134
sS'CharacterOffsetEnd'
p7681
S'2129'
p7682
sS'Lemma'
p7683
S'the'
p7684
sS'PartOfSpeech'
p7685
S'DT'
p7686
sS'CharacterOffsetBegin'
p7687
S'2126'
p7688
stp7689
a(S'military'
p7690
(dp7691
S'NamedEntityTag'
p7692
g134
sS'CharacterOffsetEnd'
p7693
S'2138'
p7694
sS'Lemma'
p7695
S'military'
p7696
sS'PartOfSpeech'
p7697
S'NN'
p7698
sS'CharacterOffsetBegin'
p7699
S'2130'
p7700
stp7701
a(g757
(dp7702
S'NamedEntityTag'
p7703
g134
sS'CharacterOffsetEnd'
p7704
S'2139'
p7705
sS'Lemma'
p7706
g757
sS'PartOfSpeech'
p7707
g757
sS'CharacterOffsetBegin'
p7708
S'2138'
p7709
stp7710
asass.