(dp0
S'models'
p1
(lp2
(dp3
S'sentences'
p4
(lp5
(dp6
S'parsetree'
p7
S'(ROOT (FRAG (NP (JJ Brazilian) (NNS Officials)) (S (VP (VB Give) (NP (NNS Reassurances)) (, ,) (NP (JJ Few) (NNS Details)) (PP (IN on) (S (NP (NNP Deficit)) (VP (VBG Cutting) (NP (NN Plan)))))))))'
p8
sS'text'
p9
S'Brazilian Officials Give Reassurances, Few Details on Deficit Cutting Plan'
p10
sS'dependencies'
p11
(lp12
(S'root'
p13
S'ROOT'
p14
S'Officials'
p15
tp16
a(S'amod'
p17
S'Officials'
p18
S'Brazilian'
p19
tp20
a(S'dep'
p21
S'Officials'
p22
S'Give'
p23
tp24
a(S'dobj'
p25
S'Give'
p26
S'Reassurances'
p27
tp28
a(S'amod'
p29
S'Details'
p30
S'Few'
p31
tp32
a(S'dobj'
p33
S'Give'
p34
S'Details'
p35
tp36
a(S'nsubj'
p37
S'Cutting'
p38
S'Deficit'
p39
tp40
a(S'prepc_on'
p41
S'Give'
p42
S'Cutting'
p43
tp44
a(S'dobj'
p45
S'Cutting'
p46
S'Plan'
p47
tp48
asS'indexeddependencies'
p49
(lp50
(g13
S'ROOT-0'
p51
S'Officials-2'
p52
tp53
a(g17
S'Officials-2'
p54
S'Brazilian-1'
p55
tp56
a(g21
S'Officials-2'
p57
S'Give-3'
p58
tp59
a(g25
S'Give-3'
p60
S'Reassurances-4'
p61
tp62
a(g29
S'Details-7'
p63
S'Few-6'
p64
tp65
a(g33
S'Give-3'
p66
S'Details-7'
p67
tp68
a(g37
S'Cutting-10'
p69
S'Deficit-9'
p70
tp71
a(g41
S'Give-3'
p72
S'Cutting-10'
p73
tp74
a(g45
S'Cutting-10'
p75
S'Plan-11'
p76
tp77
asS'words'
p78
(lp79
(S'Brazilian'
p80
(dp81
S'NamedEntityTag'
p82
S'MISC'
p83
sS'CharacterOffsetEnd'
p84
S'10'
p85
sS'Lemma'
p86
S'brazilian'
p87
sS'PartOfSpeech'
p88
S'JJ'
p89
sS'CharacterOffsetBegin'
p90
S'1'
p91
stp92
a(S'Officials'
p93
(dp94
S'NamedEntityTag'
p95
S'MISC'
p96
sS'CharacterOffsetEnd'
p97
S'20'
p98
sS'Lemma'
p99
S'official'
p100
sS'PartOfSpeech'
p101
S'NNS'
p102
sS'CharacterOffsetBegin'
p103
S'11'
p104
stp105
a(S'Give'
p106
(dp107
S'NamedEntityTag'
p108
S'MISC'
p109
sS'CharacterOffsetEnd'
p110
S'25'
p111
sS'Lemma'
p112
S'give'
p113
sS'PartOfSpeech'
p114
S'VB'
p115
sS'CharacterOffsetBegin'
p116
S'21'
p117
stp118
a(S'Reassurances'
p119
(dp120
S'NamedEntityTag'
p121
S'MISC'
p122
sS'CharacterOffsetEnd'
p123
S'38'
p124
sS'Lemma'
p125
S'reassurance'
p126
sS'PartOfSpeech'
p127
S'NNS'
p128
sS'CharacterOffsetBegin'
p129
S'26'
p130
stp131
a(S','
p132
(dp133
S'NamedEntityTag'
p134
S'O'
p135
sS'CharacterOffsetEnd'
p136
S'39'
p137
sS'Lemma'
p138
g132
sS'PartOfSpeech'
p139
g132
sS'CharacterOffsetBegin'
p140
S'38'
p141
stp142
a(S'Few'
p143
(dp144
S'NamedEntityTag'
p145
g135
sS'CharacterOffsetEnd'
p146
S'43'
p147
sS'Lemma'
p148
S'few'
p149
sS'PartOfSpeech'
p150
S'JJ'
p151
sS'CharacterOffsetBegin'
p152
S'40'
p153
stp154
a(S'Details'
p155
(dp156
S'NamedEntityTag'
p157
g135
sS'CharacterOffsetEnd'
p158
S'51'
p159
sS'Lemma'
p160
S'detail'
p161
sS'PartOfSpeech'
p162
S'NNS'
p163
sS'CharacterOffsetBegin'
p164
S'44'
p165
stp166
a(S'on'
p167
(dp168
S'NamedEntityTag'
p169
g135
sS'CharacterOffsetEnd'
p170
S'54'
p171
sS'Lemma'
p172
S'on'
p173
sS'PartOfSpeech'
p174
S'IN'
p175
sS'CharacterOffsetBegin'
p176
S'52'
p177
stp178
a(S'Deficit'
p179
(dp180
S'NamedEntityTag'
p181
g135
sS'CharacterOffsetEnd'
p182
S'62'
p183
sS'Lemma'
p184
S'Deficit'
p185
sS'PartOfSpeech'
p186
S'NNP'
p187
sS'CharacterOffsetBegin'
p188
S'55'
p189
stp190
a(S'Cutting'
p191
(dp192
S'NamedEntityTag'
p193
g135
sS'CharacterOffsetEnd'
p194
S'70'
p195
sS'Lemma'
p196
S'cut'
p197
sS'PartOfSpeech'
p198
S'VBG'
p199
sS'CharacterOffsetBegin'
p200
S'63'
p201
stp202
a(S'Plan'
p203
(dp204
S'NamedEntityTag'
p205
g135
sS'CharacterOffsetEnd'
p206
S'75'
p207
sS'Lemma'
p208
S'plan'
p209
sS'PartOfSpeech'
p210
S'NN'
p211
sS'CharacterOffsetBegin'
p212
S'71'
p213
stp214
asasa(dp215
g4
(lp216
(dp217
g7
S'(ROOT (FRAG (NP (NNP Brazil)) (: :) (S (NP (JJ up-coming) (NNS votes)) (VP (VBP delay) (S (NP (JJ real) (NNS actions)) (VP (TO to) (VP (VB contain) (NP (JJ economic) (NN collapse))))))) (. .)))'
p218
sg9
S'Brazil: up-coming votes delay real actions to contain economic collapse.'
p219
sg11
(lp220
(S'root'
p221
S'ROOT'
p222
S'Brazil'
p223
tp224
a(S'amod'
p225
S'votes'
p226
S'up-coming'
p227
tp228
a(S'nsubj'
p229
S'delay'
p230
S'votes'
p231
tp232
a(S'dep'
p233
S'Brazil'
p234
S'delay'
p235
tp236
a(S'amod'
p237
S'actions'
p238
S'real'
p239
tp240
a(S'nsubj'
p241
S'contain'
p242
S'actions'
p243
tp244
a(S'aux'
p245
S'contain'
p246
S'to'
p247
tp248
a(S'xcomp'
p249
S'delay'
p250
S'contain'
p251
tp252
a(S'amod'
p253
S'collapse'
p254
S'economic'
p255
tp256
a(S'dobj'
p257
S'contain'
p258
S'collapse'
p259
tp260
asg49
(lp261
(g221
S'ROOT-0'
p262
S'Brazil-1'
p263
tp264
a(g225
S'votes-4'
p265
S'up-coming-3'
p266
tp267
a(g229
S'delay-5'
p268
S'votes-4'
p269
tp270
a(g233
S'Brazil-1'
p271
S'delay-5'
p272
tp273
a(g237
S'actions-7'
p274
S'real-6'
p275
tp276
a(g241
S'contain-9'
p277
S'actions-7'
p278
tp279
a(g245
S'contain-9'
p280
S'to-8'
p281
tp282
a(g249
S'delay-5'
p283
S'contain-9'
p284
tp285
a(g253
S'collapse-11'
p286
S'economic-10'
p287
tp288
a(g257
S'contain-9'
p289
S'collapse-11'
p290
tp291
asg78
(lp292
(S'Brazil'
p293
(dp294
S'NamedEntityTag'
p295
S'LOCATION'
p296
sS'CharacterOffsetEnd'
p297
S'7'
p298
sS'Lemma'
p299
S'Brazil'
p300
sS'PartOfSpeech'
p301
S'NNP'
p302
sS'CharacterOffsetBegin'
p303
g91
stp304
a(S':'
p305
(dp306
S'NamedEntityTag'
p307
g135
sS'CharacterOffsetEnd'
p308
S'8'
p309
sS'Lemma'
p310
g305
sS'PartOfSpeech'
p311
g305
sS'CharacterOffsetBegin'
p312
g298
stp313
a(S'up-coming'
p314
(dp315
S'NamedEntityTag'
p316
g135
sS'CharacterOffsetEnd'
p317
S'18'
p318
sS'Lemma'
p319
S'up-coming'
p320
sS'PartOfSpeech'
p321
S'JJ'
p322
sS'CharacterOffsetBegin'
p323
S'9'
p324
stp325
a(S'votes'
p326
(dp327
S'NamedEntityTag'
p328
g135
sS'CharacterOffsetEnd'
p329
S'24'
p330
sS'Lemma'
p331
S'vote'
p332
sS'PartOfSpeech'
p333
S'NNS'
p334
sS'CharacterOffsetBegin'
p335
S'19'
p336
stp337
a(S'delay'
p338
(dp339
S'NamedEntityTag'
p340
g135
sS'CharacterOffsetEnd'
p341
S'30'
p342
sS'Lemma'
p343
S'delay'
p344
sS'PartOfSpeech'
p345
S'VBP'
p346
sS'CharacterOffsetBegin'
p347
S'25'
p348
stp349
a(S'real'
p350
(dp351
S'NamedEntityTag'
p352
g135
sS'CharacterOffsetEnd'
p353
S'35'
p354
sS'Lemma'
p355
S'real'
p356
sS'PartOfSpeech'
p357
S'JJ'
p358
sS'CharacterOffsetBegin'
p359
S'31'
p360
stp361
a(S'actions'
p362
(dp363
S'NamedEntityTag'
p364
g135
sS'CharacterOffsetEnd'
p365
S'43'
p366
sS'Lemma'
p367
S'action'
p368
sS'PartOfSpeech'
p369
S'NNS'
p370
sS'CharacterOffsetBegin'
p371
S'36'
p372
stp373
a(S'to'
p374
(dp375
S'NamedEntityTag'
p376
g135
sS'CharacterOffsetEnd'
p377
S'46'
p378
sS'Lemma'
p379
S'to'
p380
sS'PartOfSpeech'
p381
S'TO'
p382
sS'CharacterOffsetBegin'
p383
S'44'
p384
stp385
a(S'contain'
p386
(dp387
S'NamedEntityTag'
p388
g135
sS'CharacterOffsetEnd'
p389
S'54'
p390
sS'Lemma'
p391
S'contain'
p392
sS'PartOfSpeech'
p393
S'VB'
p394
sS'CharacterOffsetBegin'
p395
S'47'
p396
stp397
a(S'economic'
p398
(dp399
S'NamedEntityTag'
p400
g135
sS'CharacterOffsetEnd'
p401
S'63'
p402
sS'Lemma'
p403
S'economic'
p404
sS'PartOfSpeech'
p405
S'JJ'
p406
sS'CharacterOffsetBegin'
p407
S'55'
p408
stp409
a(S'collapse'
p410
(dp411
S'NamedEntityTag'
p412
g135
sS'CharacterOffsetEnd'
p413
S'72'
p414
sS'Lemma'
p415
S'collapse'
p416
sS'PartOfSpeech'
p417
S'NN'
p418
sS'CharacterOffsetBegin'
p419
S'64'
p420
stp421
a(S'.'
p422
(dp423
S'NamedEntityTag'
p424
g135
sS'CharacterOffsetEnd'
p425
S'73'
p426
sS'Lemma'
p427
g422
sS'PartOfSpeech'
p428
g422
sS'CharacterOffsetBegin'
p429
S'72'
p430
stp431
asasa(dp432
S'coref'
p433
(lp434
(lp435
((S'Brazil'
p436
I0
I5
I5
I6
tp437
(S'Brazil'
p438
I0
I0
I0
I1
tp439
tp440
aasg4
(lp441
(dp442
g7
S"(ROOT (S (NP (NNP Brazil) (, ,) (NNP IMF)) (VP (NN talk) (: ;) (S (NP (NNP Brazil)) (VP (VBZ does) (RB n't) (VP (VB give) (NP (JJ concrete) (NNS measures)) (S (VP (TO to) (VP (VB reduce) (NP (NNS deficits))))))))) (. .)))"
p443
sg9
S"Brazil, IMF talk; Brazil doesn't give concrete measures to reduce deficits."
p444
sg11
(lp445
(S'root'
p446
S'ROOT'
p447
S'talk'
p448
tp449
a(S'nn'
p450
S'IMF'
p451
S'Brazil'
p452
tp453
a(S'nsubj'
p454
S'talk'
p455
S'IMF'
p456
tp457
a(S'nsubj'
p458
S'give'
p459
S'Brazil'
p460
tp461
a(S'aux'
p462
S'give'
p463
S'does'
p464
tp465
a(S'neg'
p466
S'give'
p467
S"n't"
p468
tp469
a(S'ccomp'
p470
S'talk'
p471
S'give'
p472
tp473
a(S'amod'
p474
S'measures'
p475
S'concrete'
p476
tp477
a(S'dobj'
p478
S'give'
p479
S'measures'
p480
tp481
a(S'aux'
p482
S'reduce'
p483
S'to'
p484
tp485
a(S'xcomp'
p486
S'give'
p487
S'reduce'
p488
tp489
a(S'dobj'
p490
S'reduce'
p491
S'deficits'
p492
tp493
asg49
(lp494
(g446
S'ROOT-0'
p495
S'talk-4'
p496
tp497
a(g450
S'IMF-3'
p498
S'Brazil-1'
p499
tp500
a(g454
S'talk-4'
p501
S'IMF-3'
p502
tp503
a(g458
S'give-9'
p504
S'Brazil-6'
p505
tp506
a(g462
S'give-9'
p507
S'does-7'
p508
tp509
a(g466
S'give-9'
p510
S"n't-8"
p511
tp512
a(g470
S'talk-4'
p513
S'give-9'
p514
tp515
a(g474
S'measures-11'
p516
S'concrete-10'
p517
tp518
a(g478
S'give-9'
p519
S'measures-11'
p520
tp521
a(g482
S'reduce-13'
p522
S'to-12'
p523
tp524
a(g486
S'give-9'
p525
S'reduce-13'
p526
tp527
a(g490
S'reduce-13'
p528
S'deficits-14'
p529
tp530
asg78
(lp531
(S'Brazil'
p532
(dp533
S'NamedEntityTag'
p534
S'LOCATION'
p535
sS'CharacterOffsetEnd'
p536
g298
sS'Lemma'
p537
S'Brazil'
p538
sS'PartOfSpeech'
p539
S'NNP'
p540
sS'CharacterOffsetBegin'
p541
g91
stp542
a(g132
(dp543
S'NamedEntityTag'
p544
g135
sS'CharacterOffsetEnd'
p545
g309
sS'Lemma'
p546
g132
sS'PartOfSpeech'
p547
g132
sS'CharacterOffsetBegin'
p548
g298
stp549
a(S'IMF'
p550
(dp551
S'NamedEntityTag'
p552
S'ORGANIZATION'
p553
sS'CharacterOffsetEnd'
p554
S'12'
p555
sS'Lemma'
p556
S'IMF'
p557
sS'PartOfSpeech'
p558
S'NNP'
p559
sS'CharacterOffsetBegin'
p560
g324
stp561
a(S'talk'
p562
(dp563
S'NamedEntityTag'
p564
g135
sS'CharacterOffsetEnd'
p565
S'17'
p566
sS'Lemma'
p567
S'talk'
p568
sS'PartOfSpeech'
p569
S'NN'
p570
sS'CharacterOffsetBegin'
p571
S'13'
p572
stp573
a(S';'
p574
(dp575
S'NamedEntityTag'
p576
g135
sS'CharacterOffsetEnd'
p577
S'18'
p578
sS'Lemma'
p579
g574
sS'PartOfSpeech'
p580
g305
sS'CharacterOffsetBegin'
p581
S'17'
p582
stp583
a(S'Brazil'
p584
(dp585
S'NamedEntityTag'
p586
S'LOCATION'
p587
sS'CharacterOffsetEnd'
p588
S'25'
p589
sS'Lemma'
p590
S'Brazil'
p591
sS'PartOfSpeech'
p592
S'NNP'
p593
sS'CharacterOffsetBegin'
p594
S'19'
p595
stp596
a(S'does'
p597
(dp598
S'NamedEntityTag'
p599
g135
sS'CharacterOffsetEnd'
p600
S'30'
p601
sS'Lemma'
p602
S'do'
p603
sS'PartOfSpeech'
p604
S'VBZ'
p605
sS'CharacterOffsetBegin'
p606
S'26'
p607
stp608
a(S"n't"
p609
(dp610
S'NamedEntityTag'
p611
g135
sS'CharacterOffsetEnd'
p612
S'33'
p613
sS'Lemma'
p614
S'not'
p615
sS'PartOfSpeech'
p616
S'RB'
p617
sS'CharacterOffsetBegin'
p618
S'30'
p619
stp620
a(S'give'
p621
(dp622
S'NamedEntityTag'
p623
g135
sS'CharacterOffsetEnd'
p624
S'38'
p625
sS'Lemma'
p626
S'give'
p627
sS'PartOfSpeech'
p628
S'VB'
p629
sS'CharacterOffsetBegin'
p630
S'34'
p631
stp632
a(S'concrete'
p633
(dp634
S'NamedEntityTag'
p635
g135
sS'CharacterOffsetEnd'
p636
S'47'
p637
sS'Lemma'
p638
S'concrete'
p639
sS'PartOfSpeech'
p640
S'JJ'
p641
sS'CharacterOffsetBegin'
p642
S'39'
p643
stp644
a(S'measures'
p645
(dp646
S'NamedEntityTag'
p647
g135
sS'CharacterOffsetEnd'
p648
S'56'
p649
sS'Lemma'
p650
S'measure'
p651
sS'PartOfSpeech'
p652
S'NNS'
p653
sS'CharacterOffsetBegin'
p654
S'48'
p655
stp656
a(S'to'
p657
(dp658
S'NamedEntityTag'
p659
g135
sS'CharacterOffsetEnd'
p660
S'59'
p661
sS'Lemma'
p662
S'to'
p663
sS'PartOfSpeech'
p664
S'TO'
p665
sS'CharacterOffsetBegin'
p666
S'57'
p667
stp668
a(S'reduce'
p669
(dp670
S'NamedEntityTag'
p671
g135
sS'CharacterOffsetEnd'
p672
S'66'
p673
sS'Lemma'
p674
S'reduce'
p675
sS'PartOfSpeech'
p676
S'VB'
p677
sS'CharacterOffsetBegin'
p678
S'60'
p679
stp680
a(S'deficits'
p681
(dp682
S'NamedEntityTag'
p683
g135
sS'CharacterOffsetEnd'
p684
S'75'
p685
sS'Lemma'
p686
S'deficit'
p687
sS'PartOfSpeech'
p688
S'NNS'
p689
sS'CharacterOffsetBegin'
p690
S'67'
p691
stp692
a(g422
(dp693
S'NamedEntityTag'
p694
g135
sS'CharacterOffsetEnd'
p695
S'76'
p696
sS'Lemma'
p697
g422
sS'PartOfSpeech'
p698
g422
sS'CharacterOffsetBegin'
p699
S'75'
p700
stp701
asasa(dp702
g4
(lp703
(dp704
g7
S'(ROOT (S (NP (NP (NNP Brazil)) (, ,) (VP (VBG facing) (NP (NNS elections))) (, ,)) (VP (VBZ seeks) (S (VP (TO to) (VP (VB assure) (NP (NP (NNS markets)) (SBAR (WHNP (WDT that)) (S (NP (NN deficit)) (VP (VBZ cuts) (S (VP (VBG coming)))))))))))))'
p705
sg9
S'Brazil, facing elections, seeks to assure markets that deficit cuts coming'
p706
sg11
(lp707
(S'root'
p708
S'ROOT'
p709
S'seeks'
p710
tp711
a(S'nsubj'
p712
S'seeks'
p713
S'Brazil'
p714
tp715
a(S'partmod'
p716
S'Brazil'
p717
S'facing'
p718
tp719
a(S'dobj'
p720
S'facing'
p721
S'elections'
p722
tp723
a(S'aux'
p724
S'assure'
p725
S'to'
p726
tp727
a(S'xcomp'
p728
S'seeks'
p729
S'assure'
p730
tp731
a(S'dobj'
p732
S'assure'
p733
S'markets'
p734
tp735
a(S'dobj'
p736
S'cuts'
p737
S'that'
p738
tp739
a(S'nsubj'
p740
S'cuts'
p741
S'deficit'
p742
tp743
a(S'rcmod'
p744
S'markets'
p745
S'cuts'
p746
tp747
a(S'xcomp'
p748
S'cuts'
p749
S'coming'
p750
tp751
asg49
(lp752
(g708
S'ROOT-0'
p753
S'seeks-6'
p754
tp755
a(g712
S'seeks-6'
p756
S'Brazil-1'
p757
tp758
a(g716
S'Brazil-1'
p759
S'facing-3'
p760
tp761
a(g720
S'facing-3'
p762
S'elections-4'
p763
tp764
a(g724
S'assure-8'
p765
S'to-7'
p766
tp767
a(g728
S'seeks-6'
p768
S'assure-8'
p769
tp770
a(g732
S'assure-8'
p771
S'markets-9'
p772
tp773
a(g736
S'cuts-12'
p774
S'that-10'
p775
tp776
a(g740
S'cuts-12'
p777
S'deficit-11'
p778
tp779
a(g744
S'markets-9'
p780
S'cuts-12'
p781
tp782
a(g748
S'cuts-12'
p783
S'coming-13'
p784
tp785
asg78
(lp786
(S'Brazil'
p787
(dp788
S'NamedEntityTag'
p789
S'LOCATION'
p790
sS'CharacterOffsetEnd'
p791
g298
sS'Lemma'
p792
S'Brazil'
p793
sS'PartOfSpeech'
p794
S'NNP'
p795
sS'CharacterOffsetBegin'
p796
g91
stp797
a(g132
(dp798
S'NamedEntityTag'
p799
g135
sS'CharacterOffsetEnd'
p800
g309
sS'Lemma'
p801
g132
sS'PartOfSpeech'
p802
g132
sS'CharacterOffsetBegin'
p803
g298
stp804
a(S'facing'
p805
(dp806
S'NamedEntityTag'
p807
g135
sS'CharacterOffsetEnd'
p808
S'15'
p809
sS'Lemma'
p810
S'face'
p811
sS'PartOfSpeech'
p812
S'VBG'
p813
sS'CharacterOffsetBegin'
p814
g324
stp815
a(S'elections'
p816
(dp817
S'NamedEntityTag'
p818
g135
sS'CharacterOffsetEnd'
p819
S'25'
p820
sS'Lemma'
p821
S'election'
p822
sS'PartOfSpeech'
p823
S'NNS'
p824
sS'CharacterOffsetBegin'
p825
S'16'
p826
stp827
a(g132
(dp828
S'NamedEntityTag'
p829
g135
sS'CharacterOffsetEnd'
p830
S'26'
p831
sS'Lemma'
p832
g132
sS'PartOfSpeech'
p833
g132
sS'CharacterOffsetBegin'
p834
S'25'
p835
stp836
a(S'seeks'
p837
(dp838
S'NamedEntityTag'
p839
g135
sS'CharacterOffsetEnd'
p840
S'32'
p841
sS'Lemma'
p842
S'seek'
p843
sS'PartOfSpeech'
p844
S'VBZ'
p845
sS'CharacterOffsetBegin'
p846
S'27'
p847
stp848
a(S'to'
p849
(dp850
S'NamedEntityTag'
p851
g135
sS'CharacterOffsetEnd'
p852
S'35'
p853
sS'Lemma'
p854
S'to'
p855
sS'PartOfSpeech'
p856
S'TO'
p857
sS'CharacterOffsetBegin'
p858
S'33'
p859
stp860
a(S'assure'
p861
(dp862
S'NamedEntityTag'
p863
g135
sS'CharacterOffsetEnd'
p864
S'42'
p865
sS'Lemma'
p866
S'assure'
p867
sS'PartOfSpeech'
p868
S'VB'
p869
sS'CharacterOffsetBegin'
p870
S'36'
p871
stp872
a(S'markets'
p873
(dp874
S'NamedEntityTag'
p875
g135
sS'CharacterOffsetEnd'
p876
S'50'
p877
sS'Lemma'
p878
S'market'
p879
sS'PartOfSpeech'
p880
S'NNS'
p881
sS'CharacterOffsetBegin'
p882
S'43'
p883
stp884
a(S'that'
p885
(dp886
S'NamedEntityTag'
p887
g135
sS'CharacterOffsetEnd'
p888
S'55'
p889
sS'Lemma'
p890
S'that'
p891
sS'PartOfSpeech'
p892
S'WDT'
p893
sS'CharacterOffsetBegin'
p894
S'51'
p895
stp896
a(S'deficit'
p897
(dp898
S'NamedEntityTag'
p899
g135
sS'CharacterOffsetEnd'
p900
S'63'
p901
sS'Lemma'
p902
S'deficit'
p903
sS'PartOfSpeech'
p904
S'NN'
p905
sS'CharacterOffsetBegin'
p906
S'56'
p907
stp908
a(S'cuts'
p909
(dp910
S'NamedEntityTag'
p911
g135
sS'CharacterOffsetEnd'
p912
S'68'
p913
sS'Lemma'
p914
S'cut'
p915
sS'PartOfSpeech'
p916
S'VBZ'
p917
sS'CharacterOffsetBegin'
p918
S'64'
p919
stp920
a(S'coming'
p921
(dp922
S'NamedEntityTag'
p923
g135
sS'CharacterOffsetEnd'
p924
S'75'
p925
sS'Lemma'
p926
S'come'
p927
sS'PartOfSpeech'
p928
S'VBG'
p929
sS'CharacterOffsetBegin'
p930
S'69'
p931
stp932
asasasS'article'
p933
(dp934
g433
(lp935
(lp936
((S'their'
p937
I0
I0
I20
I21
tp938
(S'Brazilian officials'
p939
I0
I1
I0
I2
tp940
tp941
aa(lp942
((S'representatives of the International Monetary Fund'
p943
I0
I8
I8
I14
tp944
(S'the International Monetary Fund'
p945
I0
I3
I10
I14
tp946
tp947
a((S'the IMF'
p948
I5
I1
I20
I22
tp949
(S'the International Monetary Fund'
p950
I0
I3
I10
I14
tp951
tp952
a((S'IMF'
p953
I5
I1
I21
I22
tp954
(S'the International Monetary Fund'
p955
I0
I3
I10
I14
tp956
tp957
a((S'IMF'
p958
I13
I8
I38
I39
tp959
(S'the International Monetary Fund'
p960
I0
I3
I10
I14
tp961
tp962
a((S'the IMF'
p963
I15
I2
I21
I23
tp964
(S'the International Monetary Fund'
p965
I0
I3
I10
I14
tp966
tp967
a((S'the We'
p968
I16
I4
I3
I5
tp969
(S'the International Monetary Fund'
p970
I0
I3
I10
I14
tp971
tp972
aa(lp973
((S'the measures'
p974
I10
I8
I7
I9
tp975
(S'concrete measures'
p976
I0
I6
I25
I27
tp977
tp978
aa(lp979
((S'Washington'
p980
I4
I7
I7
I8
tp981
(S'Washington'
p982
I1
I1
I1
I2
tp983
tp984
a((S'Washington'
p985
I7
I3
I3
I4
tp986
(S'Washington'
p987
I1
I1
I1
I2
tp988
tp989
a((S'Washington'
p990
I12
I2
I2
I3
tp991
(S'Washington'
p992
I1
I1
I1
I2
tp993
tp994
a((S'It'
p995
I13
I0
I0
I1
tp996
(S'Washington'
p997
I1
I1
I1
I2
tp998
tp999
aa(lp1000
((S'executive secretary of the Brazilian Finance Ministry'
p1001
I1
I7
I6
I13
tp1002
(S'Pedro Parente'
p1003
I1
I4
I3
I5
tp1004
tp1005
a((S'he'
p1006
I2
I3
I13
I14
tp1007
(S'Pedro Parente'
p1008
I1
I4
I3
I5
tp1009
tp1010
a((S'Parente'
p1011
I12
I4
I4
I5
tp1012
(S'Pedro Parente'
p1013
I1
I4
I3
I5
tp1014
tp1015
aa(lp1016
((S'Finance Ministry'
p1017
I5
I6
I25
I27
tp1018
(S'Brazilian Finance Ministry'
p1019
I1
I2
I10
I13
tp1020
tp1021
aa(lp1022
((S'Brasilia'
p1023
I4
I5
I5
I6
tp1024
(S'Brasilia'
p1025
I2
I1
I21
I22
tp1026
tp1027
a((S'Brasilia'
p1028
I9
I0
I10
I11
tp1029
(S'Brasilia'
p1030
I2
I1
I21
I22
tp1031
tp1032
a((S'Brasilia'
p1033
I10
I1
I1
I2
tp1034
(S'Brasilia'
p1035
I2
I1
I21
I22
tp1036
tp1037
aa(lp1038
((S'Cardoso'
p1039
I3
I3
I3
I4
tp1040
(S'Fernando Henrique Cardoso'
p1041
I2
I8
I16
I19
tp1042
tp1043
a((S'Cardoso'
p1044
I9
I8
I8
I9
tp1045
(S'Fernando Henrique Cardoso'
p1046
I2
I8
I16
I19
tp1047
tp1048
a((S'Cardoso'
p1049
I9
I1
I21
I22
tp1050
(S'Fernando Henrique Cardoso'
p1051
I2
I8
I16
I19
tp1052
tp1053
aa(lp1054
((S'the elections'
p1055
I17
I2
I31
I33
tp1056
(S'the elections'
p1057
I3
I8
I27
I29
tp1058
tp1059
aa(lp1060
((S'Brazil'
p1061
I7
I3
I13
I14
tp1062
(S'the Brazilian'
p1063
I5
I4
I23
I25
tp1064
tp1065
a((S'Brazil'
p1066
I8
I5
I5
I6
tp1067
(S'the Brazilian'
p1068
I5
I4
I23
I25
tp1069
tp1070
a((S'Brazil'
p1071
I12
I7
I7
I8
tp1072
(S'the Brazilian'
p1073
I5
I4
I23
I25
tp1074
tp1075
a((S'that Brazil'
p1076
I13
I0
I19
I21
tp1077
(S'the Brazilian'
p1078
I5
I4
I23
I25
tp1079
tp1080
aa(lp1081
((S'its'
p1082
I7
I7
I17
I18
tp1083
(S'a collapse of Brazil'
p1084
I7
I1
I10
I14
tp1085
tp1086
aa(lp1087
((S'officials'
p1088
I10
I3
I3
I4
tp1089
(S'government officials'
p1090
I9
I5
I4
I6
tp1091
tp1092
aa(lp1093
((S'1999'
p1094
I12
I7
I17
I18
tp1095
(S'1999'
p1096
I11
I7
I7
I8
tp1097
tp1098
aa(lp1099
((S'The fund'
p1100
I11
I1
I0
I2
tp1101
(S'the Fiscal Stabilization Fund'
p1102
I10
I5
I32
I36
tp1103
tp1104
aa(lp1105
((S'he'
p1106
I15
I5
I35
I36
tp1107
(S'Ernest Brown'
p1108
I15
I1
I0
I2
tp1109
tp1110
a((S'Brown'
p1111
I16
I0
I10
I11
tp1112
(S'Ernest Brown'
p1113
I15
I1
I0
I2
tp1114
tp1115
aa(lp1116
((S'he'
p1117
I17
I8
I18
I19
tp1118
(S'a pope'
p1119
I17
I-1
I8
I10
tp1120
tp1121
a((S'the pope'
p1122
I17
I7
I26
I28
tp1123
(S'a pope'
p1124
I17
I-1
I8
I10
tp1125
tp1126
aasg4
(lp1127
(dp1128
g7
S'(ROOT (S (NP (JJ Brazilian) (NNS officials)) (VP (VBD ended) (NP (NP (CD four) (NNS days)) (PP (IN of) (NP (NNS meetings)))) (PP (IN with) (NP (NP (NNS representatives)) (PP (IN of) (NP (DT the) (NNP International) (NNP Monetary) (NNP Fund))))) (PP (IN on) (NP (NNP Tuesday))) (PP (IN without) (S (VP (VBG living) (PRT (RP up)) (PP (TO to) (NP (PRP$ their) (JJ public) (NN pledge) (S (VP (TO to) (VP (VB announce) (NP (JJ concrete) (NNS measures)) (S (VP (TO to) (VP (VB reduce) (NP (NN government) (NNS deficits)))))))))))))) (. .)))'
p1129
sg9
S'Brazilian officials ended four days of meetings with representatives of the International Monetary Fund on Tuesday without living up to their public pledge to announce concrete measures to reduce government deficits.'
p1130
sg11
(lp1131
(S'root'
p1132
S'ROOT'
p1133
S'ended'
p1134
tp1135
a(S'amod'
p1136
S'officials'
p1137
S'Brazilian'
p1138
tp1139
a(S'nsubj'
p1140
S'ended'
p1141
S'officials'
p1142
tp1143
a(S'num'
p1144
S'days'
p1145
S'four'
p1146
tp1147
a(S'dobj'
p1148
S'ended'
p1149
S'days'
p1150
tp1151
a(S'prep_of'
p1152
S'days'
p1153
S'meetings'
p1154
tp1155
a(S'prep_with'
p1156
S'ended'
p1157
S'representatives'
p1158
tp1159
a(S'det'
p1160
S'Fund'
p1161
S'the'
p1162
tp1163
a(S'nn'
p1164
S'Fund'
p1165
S'International'
p1166
tp1167
a(S'nn'
p1168
S'Fund'
p1169
S'Monetary'
p1170
tp1171
a(S'prep_of'
p1172
S'representatives'
p1173
S'Fund'
p1174
tp1175
a(S'prep_on'
p1176
S'ended'
p1177
S'Tuesday'
p1178
tp1179
a(S'prepc_without'
p1180
S'ended'
p1181
S'living'
p1182
tp1183
a(S'prt'
p1184
S'living'
p1185
S'up'
p1186
tp1187
a(S'poss'
p1188
S'pledge'
p1189
S'their'
p1190
tp1191
a(S'amod'
p1192
S'pledge'
p1193
S'public'
p1194
tp1195
a(S'prep_to'
p1196
S'living'
p1197
S'pledge'
p1198
tp1199
a(S'aux'
p1200
S'announce'
p1201
S'to'
p1202
tp1203
a(S'infmod'
p1204
S'pledge'
p1205
S'announce'
p1206
tp1207
a(S'amod'
p1208
S'measures'
p1209
S'concrete'
p1210
tp1211
a(S'dobj'
p1212
S'announce'
p1213
S'measures'
p1214
tp1215
a(S'aux'
p1216
S'reduce'
p1217
S'to'
p1218
tp1219
a(S'xcomp'
p1220
S'announce'
p1221
S'reduce'
p1222
tp1223
a(S'nn'
p1224
S'deficits'
p1225
S'government'
p1226
tp1227
a(S'dobj'
p1228
S'reduce'
p1229
S'deficits'
p1230
tp1231
asg49
(lp1232
(g1132
S'ROOT-0'
p1233
S'ended-3'
p1234
tp1235
a(g1136
S'officials-2'
p1236
S'Brazilian-1'
p1237
tp1238
a(g1140
S'ended-3'
p1239
S'officials-2'
p1240
tp1241
a(g1144
S'days-5'
p1242
S'four-4'
p1243
tp1244
a(g1148
S'ended-3'
p1245
S'days-5'
p1246
tp1247
a(g1152
S'days-5'
p1248
S'meetings-7'
p1249
tp1250
a(g1156
S'ended-3'
p1251
S'representatives-9'
p1252
tp1253
a(g1160
S'Fund-14'
p1254
S'the-11'
p1255
tp1256
a(g1164
S'Fund-14'
p1257
S'International-12'
p1258
tp1259
a(g1168
S'Fund-14'
p1260
S'Monetary-13'
p1261
tp1262
a(g1172
S'representatives-9'
p1263
S'Fund-14'
p1264
tp1265
a(g1176
S'ended-3'
p1266
S'Tuesday-16'
p1267
tp1268
a(g1180
S'ended-3'
p1269
S'living-18'
p1270
tp1271
a(g1184
S'living-18'
p1272
S'up-19'
p1273
tp1274
a(g1188
S'pledge-23'
p1275
S'their-21'
p1276
tp1277
a(g1192
S'pledge-23'
p1278
S'public-22'
p1279
tp1280
a(g1196
S'living-18'
p1281
S'pledge-23'
p1282
tp1283
a(g1200
S'announce-25'
p1284
S'to-24'
p1285
tp1286
a(g1204
S'pledge-23'
p1287
S'announce-25'
p1288
tp1289
a(g1208
S'measures-27'
p1290
S'concrete-26'
p1291
tp1292
a(g1212
S'announce-25'
p1293
S'measures-27'
p1294
tp1295
a(g1216
S'reduce-29'
p1296
S'to-28'
p1297
tp1298
a(g1220
S'announce-25'
p1299
S'reduce-29'
p1300
tp1301
a(g1224
S'deficits-31'
p1302
S'government-30'
p1303
tp1304
a(g1228
S'reduce-29'
p1305
S'deficits-31'
p1306
tp1307
asg78
(lp1308
(S'Brazilian'
p1309
(dp1310
S'NamedEntityTag'
p1311
S'MISC'
p1312
sS'CharacterOffsetEnd'
p1313
g324
sS'Lemma'
p1314
S'brazilian'
p1315
sS'PartOfSpeech'
p1316
S'JJ'
p1317
sS'CharacterOffsetBegin'
p1318
S'0'
p1319
stp1320
a(S'officials'
p1321
(dp1322
S'NamedEntityTag'
p1323
g135
sS'CharacterOffsetEnd'
p1324
S'19'
p1325
sS'Lemma'
p1326
S'official'
p1327
sS'PartOfSpeech'
p1328
S'NNS'
p1329
sS'CharacterOffsetBegin'
p1330
S'10'
p1331
stp1332
a(S'ended'
p1333
(dp1334
S'NamedEntityTag'
p1335
g135
sS'CharacterOffsetEnd'
p1336
S'25'
p1337
sS'Lemma'
p1338
S'end'
p1339
sS'PartOfSpeech'
p1340
S'VBD'
p1341
sS'CharacterOffsetBegin'
p1342
S'20'
p1343
stp1344
a(S'four'
p1345
(dp1346
S'NormalizedNamedEntityTag'
p1347
S'P4D'
p1348
sS'Timex'
p1349
S'<TIMEX3 tid="t1" type="DURATION" value="P4D">four days</TIMEX3>'
p1350
sS'Lemma'
p1351
S'four'
p1352
sS'CharacterOffsetEnd'
p1353
S'30'
p1354
sS'PartOfSpeech'
p1355
S'CD'
p1356
sS'CharacterOffsetBegin'
p1357
S'26'
p1358
sS'NamedEntityTag'
p1359
S'DURATION'
p1360
stp1361
a(S'days'
p1362
(dp1363
S'NormalizedNamedEntityTag'
p1364
S'P4D'
p1365
sS'Timex'
p1366
S'<TIMEX3 tid="t1" type="DURATION" value="P4D">four days</TIMEX3>'
p1367
sS'Lemma'
p1368
S'day'
p1369
sS'CharacterOffsetEnd'
p1370
S'35'
p1371
sS'PartOfSpeech'
p1372
S'NNS'
p1373
sS'CharacterOffsetBegin'
p1374
S'31'
p1375
sS'NamedEntityTag'
p1376
S'DURATION'
p1377
stp1378
a(S'of'
p1379
(dp1380
S'NamedEntityTag'
p1381
g135
sS'CharacterOffsetEnd'
p1382
S'38'
p1383
sS'Lemma'
p1384
S'of'
p1385
sS'PartOfSpeech'
p1386
S'IN'
p1387
sS'CharacterOffsetBegin'
p1388
S'36'
p1389
stp1390
a(S'meetings'
p1391
(dp1392
S'NamedEntityTag'
p1393
g135
sS'CharacterOffsetEnd'
p1394
S'47'
p1395
sS'Lemma'
p1396
S'meeting'
p1397
sS'PartOfSpeech'
p1398
S'NNS'
p1399
sS'CharacterOffsetBegin'
p1400
S'39'
p1401
stp1402
a(S'with'
p1403
(dp1404
S'NamedEntityTag'
p1405
g135
sS'CharacterOffsetEnd'
p1406
S'52'
p1407
sS'Lemma'
p1408
S'with'
p1409
sS'PartOfSpeech'
p1410
S'IN'
p1411
sS'CharacterOffsetBegin'
p1412
S'48'
p1413
stp1414
a(S'representatives'
p1415
(dp1416
S'NamedEntityTag'
p1417
g135
sS'CharacterOffsetEnd'
p1418
S'68'
p1419
sS'Lemma'
p1420
S'representative'
p1421
sS'PartOfSpeech'
p1422
S'NNS'
p1423
sS'CharacterOffsetBegin'
p1424
S'53'
p1425
stp1426
a(S'of'
p1427
(dp1428
S'NamedEntityTag'
p1429
g135
sS'CharacterOffsetEnd'
p1430
S'71'
p1431
sS'Lemma'
p1432
S'of'
p1433
sS'PartOfSpeech'
p1434
S'IN'
p1435
sS'CharacterOffsetBegin'
p1436
S'69'
p1437
stp1438
a(S'the'
p1439
(dp1440
S'NamedEntityTag'
p1441
g135
sS'CharacterOffsetEnd'
p1442
S'75'
p1443
sS'Lemma'
p1444
S'the'
p1445
sS'PartOfSpeech'
p1446
S'DT'
p1447
sS'CharacterOffsetBegin'
p1448
S'72'
p1449
stp1450
a(S'International'
p1451
(dp1452
S'NamedEntityTag'
p1453
S'ORGANIZATION'
p1454
sS'CharacterOffsetEnd'
p1455
S'89'
p1456
sS'Lemma'
p1457
S'International'
p1458
sS'PartOfSpeech'
p1459
S'NNP'
p1460
sS'CharacterOffsetBegin'
p1461
S'76'
p1462
stp1463
a(S'Monetary'
p1464
(dp1465
S'NamedEntityTag'
p1466
S'ORGANIZATION'
p1467
sS'CharacterOffsetEnd'
p1468
S'98'
p1469
sS'Lemma'
p1470
S'Monetary'
p1471
sS'PartOfSpeech'
p1472
S'NNP'
p1473
sS'CharacterOffsetBegin'
p1474
S'90'
p1475
stp1476
a(S'Fund'
p1477
(dp1478
S'NamedEntityTag'
p1479
S'ORGANIZATION'
p1480
sS'CharacterOffsetEnd'
p1481
S'103'
p1482
sS'Lemma'
p1483
S'Fund'
p1484
sS'PartOfSpeech'
p1485
S'NNP'
p1486
sS'CharacterOffsetBegin'
p1487
S'99'
p1488
stp1489
a(S'on'
p1490
(dp1491
S'NamedEntityTag'
p1492
g135
sS'CharacterOffsetEnd'
p1493
S'106'
p1494
sS'Lemma'
p1495
S'on'
p1496
sS'PartOfSpeech'
p1497
S'IN'
p1498
sS'CharacterOffsetBegin'
p1499
S'104'
p1500
stp1501
a(S'Tuesday'
p1502
(dp1503
S'NormalizedNamedEntityTag'
p1504
S'XXXX-WXX-2'
p1505
sS'Timex'
p1506
S'<TIMEX3 tid="t2" type="DATE" value="XXXX-WXX-2">Tuesday</TIMEX3>'
p1507
sS'Lemma'
p1508
S'Tuesday'
p1509
sS'CharacterOffsetEnd'
p1510
S'114'
p1511
sS'PartOfSpeech'
p1512
S'NNP'
p1513
sS'CharacterOffsetBegin'
p1514
S'107'
p1515
sS'NamedEntityTag'
p1516
S'DATE'
p1517
stp1518
a(S'without'
p1519
(dp1520
S'NamedEntityTag'
p1521
g135
sS'CharacterOffsetEnd'
p1522
S'122'
p1523
sS'Lemma'
p1524
S'without'
p1525
sS'PartOfSpeech'
p1526
S'IN'
p1527
sS'CharacterOffsetBegin'
p1528
S'115'
p1529
stp1530
a(S'living'
p1531
(dp1532
S'NamedEntityTag'
p1533
g135
sS'CharacterOffsetEnd'
p1534
S'129'
p1535
sS'Lemma'
p1536
S'live'
p1537
sS'PartOfSpeech'
p1538
S'VBG'
p1539
sS'CharacterOffsetBegin'
p1540
S'123'
p1541
stp1542
a(S'up'
p1543
(dp1544
S'NamedEntityTag'
p1545
g135
sS'CharacterOffsetEnd'
p1546
S'132'
p1547
sS'Lemma'
p1548
S'up'
p1549
sS'PartOfSpeech'
p1550
S'RP'
p1551
sS'CharacterOffsetBegin'
p1552
S'130'
p1553
stp1554
a(S'to'
p1555
(dp1556
S'NamedEntityTag'
p1557
g135
sS'CharacterOffsetEnd'
p1558
S'135'
p1559
sS'Lemma'
p1560
S'to'
p1561
sS'PartOfSpeech'
p1562
S'TO'
p1563
sS'CharacterOffsetBegin'
p1564
S'133'
p1565
stp1566
a(S'their'
p1567
(dp1568
S'NamedEntityTag'
p1569
g135
sS'CharacterOffsetEnd'
p1570
S'141'
p1571
sS'Lemma'
p1572
S'they'
p1573
sS'PartOfSpeech'
p1574
S'PRP$'
p1575
sS'CharacterOffsetBegin'
p1576
S'136'
p1577
stp1578
a(S'public'
p1579
(dp1580
S'NamedEntityTag'
p1581
g135
sS'CharacterOffsetEnd'
p1582
S'148'
p1583
sS'Lemma'
p1584
S'public'
p1585
sS'PartOfSpeech'
p1586
S'JJ'
p1587
sS'CharacterOffsetBegin'
p1588
S'142'
p1589
stp1590
a(S'pledge'
p1591
(dp1592
S'NamedEntityTag'
p1593
g135
sS'CharacterOffsetEnd'
p1594
S'155'
p1595
sS'Lemma'
p1596
S'pledge'
p1597
sS'PartOfSpeech'
p1598
S'NN'
p1599
sS'CharacterOffsetBegin'
p1600
S'149'
p1601
stp1602
a(S'to'
p1603
(dp1604
S'NamedEntityTag'
p1605
g135
sS'CharacterOffsetEnd'
p1606
S'158'
p1607
sS'Lemma'
p1608
S'to'
p1609
sS'PartOfSpeech'
p1610
S'TO'
p1611
sS'CharacterOffsetBegin'
p1612
S'156'
p1613
stp1614
a(S'announce'
p1615
(dp1616
S'NamedEntityTag'
p1617
g135
sS'CharacterOffsetEnd'
p1618
S'167'
p1619
sS'Lemma'
p1620
S'announce'
p1621
sS'PartOfSpeech'
p1622
S'VB'
p1623
sS'CharacterOffsetBegin'
p1624
S'159'
p1625
stp1626
a(S'concrete'
p1627
(dp1628
S'NamedEntityTag'
p1629
g135
sS'CharacterOffsetEnd'
p1630
S'176'
p1631
sS'Lemma'
p1632
S'concrete'
p1633
sS'PartOfSpeech'
p1634
S'JJ'
p1635
sS'CharacterOffsetBegin'
p1636
S'168'
p1637
stp1638
a(S'measures'
p1639
(dp1640
S'NamedEntityTag'
p1641
g135
sS'CharacterOffsetEnd'
p1642
S'185'
p1643
sS'Lemma'
p1644
S'measure'
p1645
sS'PartOfSpeech'
p1646
S'NNS'
p1647
sS'CharacterOffsetBegin'
p1648
S'177'
p1649
stp1650
a(S'to'
p1651
(dp1652
S'NamedEntityTag'
p1653
g135
sS'CharacterOffsetEnd'
p1654
S'188'
p1655
sS'Lemma'
p1656
S'to'
p1657
sS'PartOfSpeech'
p1658
S'TO'
p1659
sS'CharacterOffsetBegin'
p1660
S'186'
p1661
stp1662
a(S'reduce'
p1663
(dp1664
S'NamedEntityTag'
p1665
g135
sS'CharacterOffsetEnd'
p1666
S'195'
p1667
sS'Lemma'
p1668
S'reduce'
p1669
sS'PartOfSpeech'
p1670
S'VB'
p1671
sS'CharacterOffsetBegin'
p1672
S'189'
p1673
stp1674
a(S'government'
p1675
(dp1676
S'NamedEntityTag'
p1677
g135
sS'CharacterOffsetEnd'
p1678
S'206'
p1679
sS'Lemma'
p1680
S'government'
p1681
sS'PartOfSpeech'
p1682
S'NN'
p1683
sS'CharacterOffsetBegin'
p1684
S'196'
p1685
stp1686
a(S'deficits'
p1687
(dp1688
S'NamedEntityTag'
p1689
g135
sS'CharacterOffsetEnd'
p1690
S'215'
p1691
sS'Lemma'
p1692
S'deficit'
p1693
sS'PartOfSpeech'
p1694
S'NNS'
p1695
sS'CharacterOffsetBegin'
p1696
S'207'
p1697
stp1698
a(g422
(dp1699
S'NamedEntityTag'
p1700
g135
sS'CharacterOffsetEnd'
p1701
S'216'
p1702
sS'Lemma'
p1703
g422
sS'PartOfSpeech'
p1704
g422
sS'CharacterOffsetBegin'
p1705
S'215'
p1706
stp1707
asa(dp1708
g7
S'(ROOT (S (PP (IN In) (NP (NNP Washington))) (, ,) (NP (NP (NNP Pedro) (NNP Parente)) (, ,) (NP (NP (NN executive) (NN secretary)) (PP (IN of) (NP (DT the) (JJ Brazilian) (NNP Finance) (NNP Ministry)))) (, ,)) (VP (VBD offered) (NP (NP (RB only) (NNS details)) (PP (IN on) (NP (NNS Brazils) (NNS plans)))) (PP (IN for) (S (VP (VBG raising) (NP (DT a) (JJ primary) (NN account) (NN surplus)) (PP (IN over) (NP (DT the) (JJ next) (CD three) (NNS years))))))) (. .)))'
p1709
sg9
S'In Washington, Pedro Parente, executive secretary of the Brazilian Finance Ministry, offered only details on Brazils plans for raising a primary account surplus over the next three years.'
p1710
sg11
(lp1711
(S'root'
p1712
S'ROOT'
p1713
S'offered'
p1714
tp1715
a(S'prep_in'
p1716
S'offered'
p1717
S'Washington'
p1718
tp1719
a(S'nn'
p1720
S'Parente'
p1721
S'Pedro'
p1722
tp1723
a(S'nsubj'
p1724
S'offered'
p1725
S'Parente'
p1726
tp1727
a(S'nn'
p1728
S'secretary'
p1729
S'executive'
p1730
tp1731
a(S'appos'
p1732
S'Parente'
p1733
S'secretary'
p1734
tp1735
a(S'det'
p1736
S'Ministry'
p1737
S'the'
p1738
tp1739
a(S'amod'
p1740
S'Ministry'
p1741
S'Brazilian'
p1742
tp1743
a(S'nn'
p1744
S'Ministry'
p1745
S'Finance'
p1746
tp1747
a(S'prep_of'
p1748
S'secretary'
p1749
S'Ministry'
p1750
tp1751
a(S'advmod'
p1752
S'details'
p1753
S'only'
p1754
tp1755
a(S'dobj'
p1756
S'offered'
p1757
S'details'
p1758
tp1759
a(S'nn'
p1760
S'plans'
p1761
S'Brazils'
p1762
tp1763
a(S'prep_on'
p1764
S'details'
p1765
S'plans'
p1766
tp1767
a(S'prepc_for'
p1768
S'offered'
p1769
S'raising'
p1770
tp1771
a(S'det'
p1772
S'surplus'
p1773
S'a'
p1774
tp1775
a(S'amod'
p1776
S'surplus'
p1777
S'primary'
p1778
tp1779
a(S'nn'
p1780
S'surplus'
p1781
S'account'
p1782
tp1783
a(S'dobj'
p1784
S'raising'
p1785
S'surplus'
p1786
tp1787
a(S'det'
p1788
S'years'
p1789
S'the'
p1790
tp1791
a(S'amod'
p1792
S'years'
p1793
S'next'
p1794
tp1795
a(S'num'
p1796
S'years'
p1797
S'three'
p1798
tp1799
a(S'prep_over'
p1800
S'raising'
p1801
S'years'
p1802
tp1803
asg49
(lp1804
(g1712
S'ROOT-0'
p1805
S'offered-15'
p1806
tp1807
a(g1716
S'offered-15'
p1808
S'Washington-2'
p1809
tp1810
a(g1720
S'Parente-5'
p1811
S'Pedro-4'
p1812
tp1813
a(g1724
S'offered-15'
p1814
S'Parente-5'
p1815
tp1816
a(g1728
S'secretary-8'
p1817
S'executive-7'
p1818
tp1819
a(g1732
S'Parente-5'
p1820
S'secretary-8'
p1821
tp1822
a(g1736
S'Ministry-13'
p1823
S'the-10'
p1824
tp1825
a(g1740
S'Ministry-13'
p1826
S'Brazilian-11'
p1827
tp1828
a(g1744
S'Ministry-13'
p1829
S'Finance-12'
p1830
tp1831
a(g1748
S'secretary-8'
p1832
S'Ministry-13'
p1833
tp1834
a(g1752
S'details-17'
p1835
S'only-16'
p1836
tp1837
a(g1756
S'offered-15'
p1838
S'details-17'
p1839
tp1840
a(g1760
S'plans-20'
p1841
S'Brazils-19'
p1842
tp1843
a(g1764
S'details-17'
p1844
S'plans-20'
p1845
tp1846
a(g1768
S'offered-15'
p1847
S'raising-22'
p1848
tp1849
a(g1772
S'surplus-26'
p1850
S'a-23'
p1851
tp1852
a(g1776
S'surplus-26'
p1853
S'primary-24'
p1854
tp1855
a(g1780
S'surplus-26'
p1856
S'account-25'
p1857
tp1858
a(g1784
S'raising-22'
p1859
S'surplus-26'
p1860
tp1861
a(g1788
S'years-31'
p1862
S'the-28'
p1863
tp1864
a(g1792
S'years-31'
p1865
S'next-29'
p1866
tp1867
a(g1796
S'years-31'
p1868
S'three-30'
p1869
tp1870
a(g1800
S'raising-22'
p1871
S'years-31'
p1872
tp1873
asg78
(lp1874
(S'In'
p1875
(dp1876
S'NamedEntityTag'
p1877
g135
sS'CharacterOffsetEnd'
p1878
S'219'
p1879
sS'Lemma'
p1880
S'in'
p1881
sS'PartOfSpeech'
p1882
S'IN'
p1883
sS'CharacterOffsetBegin'
p1884
S'217'
p1885
stp1886
a(S'Washington'
p1887
(dp1888
S'NamedEntityTag'
p1889
S'LOCATION'
p1890
sS'CharacterOffsetEnd'
p1891
S'230'
p1892
sS'Lemma'
p1893
S'Washington'
p1894
sS'PartOfSpeech'
p1895
S'NNP'
p1896
sS'CharacterOffsetBegin'
p1897
S'220'
p1898
stp1899
a(g132
(dp1900
S'NamedEntityTag'
p1901
g135
sS'CharacterOffsetEnd'
p1902
S'231'
p1903
sS'Lemma'
p1904
g132
sS'PartOfSpeech'
p1905
g132
sS'CharacterOffsetBegin'
p1906
S'230'
p1907
stp1908
a(S'Pedro'
p1909
(dp1910
S'NamedEntityTag'
p1911
S'PERSON'
p1912
sS'CharacterOffsetEnd'
p1913
S'237'
p1914
sS'Lemma'
p1915
S'Pedro'
p1916
sS'PartOfSpeech'
p1917
S'NNP'
p1918
sS'CharacterOffsetBegin'
p1919
S'232'
p1920
stp1921
a(S'Parente'
p1922
(dp1923
S'NamedEntityTag'
p1924
S'PERSON'
p1925
sS'CharacterOffsetEnd'
p1926
S'245'
p1927
sS'Lemma'
p1928
S'Parente'
p1929
sS'PartOfSpeech'
p1930
S'NNP'
p1931
sS'CharacterOffsetBegin'
p1932
S'238'
p1933
stp1934
a(g132
(dp1935
S'NamedEntityTag'
p1936
g135
sS'CharacterOffsetEnd'
p1937
S'246'
p1938
sS'Lemma'
p1939
g132
sS'PartOfSpeech'
p1940
g132
sS'CharacterOffsetBegin'
p1941
S'245'
p1942
stp1943
a(S'executive'
p1944
(dp1945
S'NamedEntityTag'
p1946
g135
sS'CharacterOffsetEnd'
p1947
S'256'
p1948
sS'Lemma'
p1949
S'executive'
p1950
sS'PartOfSpeech'
p1951
S'NN'
p1952
sS'CharacterOffsetBegin'
p1953
S'247'
p1954
stp1955
a(S'secretary'
p1956
(dp1957
S'NamedEntityTag'
p1958
g135
sS'CharacterOffsetEnd'
p1959
S'266'
p1960
sS'Lemma'
p1961
S'secretary'
p1962
sS'PartOfSpeech'
p1963
S'NN'
p1964
sS'CharacterOffsetBegin'
p1965
S'257'
p1966
stp1967
a(S'of'
p1968
(dp1969
S'NamedEntityTag'
p1970
g135
sS'CharacterOffsetEnd'
p1971
S'269'
p1972
sS'Lemma'
p1973
S'of'
p1974
sS'PartOfSpeech'
p1975
S'IN'
p1976
sS'CharacterOffsetBegin'
p1977
S'267'
p1978
stp1979
a(S'the'
p1980
(dp1981
S'NamedEntityTag'
p1982
g135
sS'CharacterOffsetEnd'
p1983
S'273'
p1984
sS'Lemma'
p1985
S'the'
p1986
sS'PartOfSpeech'
p1987
S'DT'
p1988
sS'CharacterOffsetBegin'
p1989
S'270'
p1990
stp1991
a(S'Brazilian'
p1992
(dp1993
S'NamedEntityTag'
p1994
S'ORGANIZATION'
p1995
sS'CharacterOffsetEnd'
p1996
S'283'
p1997
sS'Lemma'
p1998
S'brazilian'
p1999
sS'PartOfSpeech'
p2000
S'JJ'
p2001
sS'CharacterOffsetBegin'
p2002
S'274'
p2003
stp2004
a(S'Finance'
p2005
(dp2006
S'NamedEntityTag'
p2007
S'ORGANIZATION'
p2008
sS'CharacterOffsetEnd'
p2009
S'291'
p2010
sS'Lemma'
p2011
S'Finance'
p2012
sS'PartOfSpeech'
p2013
S'NNP'
p2014
sS'CharacterOffsetBegin'
p2015
S'284'
p2016
stp2017
a(S'Ministry'
p2018
(dp2019
S'NamedEntityTag'
p2020
S'ORGANIZATION'
p2021
sS'CharacterOffsetEnd'
p2022
S'300'
p2023
sS'Lemma'
p2024
S'Ministry'
p2025
sS'PartOfSpeech'
p2026
S'NNP'
p2027
sS'CharacterOffsetBegin'
p2028
S'292'
p2029
stp2030
a(g132
(dp2031
S'NamedEntityTag'
p2032
g135
sS'CharacterOffsetEnd'
p2033
S'301'
p2034
sS'Lemma'
p2035
g132
sS'PartOfSpeech'
p2036
g132
sS'CharacterOffsetBegin'
p2037
S'300'
p2038
stp2039
a(S'offered'
p2040
(dp2041
S'NamedEntityTag'
p2042
g135
sS'CharacterOffsetEnd'
p2043
S'309'
p2044
sS'Lemma'
p2045
S'offer'
p2046
sS'PartOfSpeech'
p2047
S'VBD'
p2048
sS'CharacterOffsetBegin'
p2049
S'302'
p2050
stp2051
a(S'only'
p2052
(dp2053
S'NamedEntityTag'
p2054
g135
sS'CharacterOffsetEnd'
p2055
S'314'
p2056
sS'Lemma'
p2057
S'only'
p2058
sS'PartOfSpeech'
p2059
S'RB'
p2060
sS'CharacterOffsetBegin'
p2061
S'310'
p2062
stp2063
a(S'details'
p2064
(dp2065
S'NamedEntityTag'
p2066
g135
sS'CharacterOffsetEnd'
p2067
S'322'
p2068
sS'Lemma'
p2069
S'detail'
p2070
sS'PartOfSpeech'
p2071
S'NNS'
p2072
sS'CharacterOffsetBegin'
p2073
S'315'
p2074
stp2075
a(S'on'
p2076
(dp2077
S'NamedEntityTag'
p2078
g135
sS'CharacterOffsetEnd'
p2079
S'325'
p2080
sS'Lemma'
p2081
S'on'
p2082
sS'PartOfSpeech'
p2083
S'IN'
p2084
sS'CharacterOffsetBegin'
p2085
S'323'
p2086
stp2087
a(S'Brazils'
p2088
(dp2089
S'NamedEntityTag'
p2090
S'MISC'
p2091
sS'CharacterOffsetEnd'
p2092
S'333'
p2093
sS'Lemma'
p2094
S'brazil'
p2095
sS'PartOfSpeech'
p2096
S'NNS'
p2097
sS'CharacterOffsetBegin'
p2098
S'326'
p2099
stp2100
a(S'plans'
p2101
(dp2102
S'NamedEntityTag'
p2103
g135
sS'CharacterOffsetEnd'
p2104
S'339'
p2105
sS'Lemma'
p2106
S'plan'
p2107
sS'PartOfSpeech'
p2108
S'NNS'
p2109
sS'CharacterOffsetBegin'
p2110
S'334'
p2111
stp2112
a(S'for'
p2113
(dp2114
S'NamedEntityTag'
p2115
g135
sS'CharacterOffsetEnd'
p2116
S'343'
p2117
sS'Lemma'
p2118
S'for'
p2119
sS'PartOfSpeech'
p2120
S'IN'
p2121
sS'CharacterOffsetBegin'
p2122
S'340'
p2123
stp2124
a(S'raising'
p2125
(dp2126
S'NamedEntityTag'
p2127
g135
sS'CharacterOffsetEnd'
p2128
S'351'
p2129
sS'Lemma'
p2130
S'raise'
p2131
sS'PartOfSpeech'
p2132
S'VBG'
p2133
sS'CharacterOffsetBegin'
p2134
S'344'
p2135
stp2136
a(g1774
(dp2137
S'NamedEntityTag'
p2138
g135
sS'CharacterOffsetEnd'
p2139
S'353'
p2140
sS'Lemma'
p2141
g1774
sS'PartOfSpeech'
p2142
S'DT'
p2143
sS'CharacterOffsetBegin'
p2144
S'352'
p2145
stp2146
a(S'primary'
p2147
(dp2148
S'NamedEntityTag'
p2149
g135
sS'CharacterOffsetEnd'
p2150
S'361'
p2151
sS'Lemma'
p2152
S'primary'
p2153
sS'PartOfSpeech'
p2154
S'JJ'
p2155
sS'CharacterOffsetBegin'
p2156
S'354'
p2157
stp2158
a(S'account'
p2159
(dp2160
S'NamedEntityTag'
p2161
g135
sS'CharacterOffsetEnd'
p2162
S'369'
p2163
sS'Lemma'
p2164
S'account'
p2165
sS'PartOfSpeech'
p2166
S'NN'
p2167
sS'CharacterOffsetBegin'
p2168
S'362'
p2169
stp2170
a(S'surplus'
p2171
(dp2172
S'NamedEntityTag'
p2173
g135
sS'CharacterOffsetEnd'
p2174
S'377'
p2175
sS'Lemma'
p2176
S'surplus'
p2177
sS'PartOfSpeech'
p2178
S'NN'
p2179
sS'CharacterOffsetBegin'
p2180
S'370'
p2181
stp2182
a(S'over'
p2183
(dp2184
S'NamedEntityTag'
p2185
g135
sS'CharacterOffsetEnd'
p2186
S'382'
p2187
sS'Lemma'
p2188
S'over'
p2189
sS'PartOfSpeech'
p2190
S'IN'
p2191
sS'CharacterOffsetBegin'
p2192
S'378'
p2193
stp2194
a(S'the'
p2195
(dp2196
S'NormalizedNamedEntityTag'
p2197
S'P3Y'
p2198
sS'Timex'
p2199
S'<TIMEX3 beginPoint="t0" endPoint="t3" tid="t4" type="DURATION" value="P3Y">the next three years</TIMEX3>'
p2200
sS'Lemma'
p2201
S'the'
p2202
sS'CharacterOffsetEnd'
p2203
S'386'
p2204
sS'PartOfSpeech'
p2205
S'DT'
p2206
sS'CharacterOffsetBegin'
p2207
S'383'
p2208
sS'NamedEntityTag'
p2209
S'DURATION'
p2210
stp2211
a(S'next'
p2212
(dp2213
S'NormalizedNamedEntityTag'
p2214
S'P3Y'
p2215
sS'Timex'
p2216
S'<TIMEX3 beginPoint="t0" endPoint="t3" tid="t4" type="DURATION" value="P3Y">the next three years</TIMEX3>'
p2217
sS'Lemma'
p2218
S'next'
p2219
sS'CharacterOffsetEnd'
p2220
S'391'
p2221
sS'PartOfSpeech'
p2222
S'JJ'
p2223
sS'CharacterOffsetBegin'
p2224
S'387'
p2225
sS'NamedEntityTag'
p2226
S'DURATION'
p2227
stp2228
a(S'three'
p2229
(dp2230
S'NormalizedNamedEntityTag'
p2231
S'P3Y'
p2232
sS'Timex'
p2233
S'<TIMEX3 beginPoint="t0" endPoint="t3" tid="t4" type="DURATION" value="P3Y">the next three years</TIMEX3>'
p2234
sS'Lemma'
p2235
S'three'
p2236
sS'CharacterOffsetEnd'
p2237
S'397'
p2238
sS'PartOfSpeech'
p2239
S'CD'
p2240
sS'CharacterOffsetBegin'
p2241
S'392'
p2242
sS'NamedEntityTag'
p2243
S'DURATION'
p2244
stp2245
a(S'years'
p2246
(dp2247
S'NormalizedNamedEntityTag'
p2248
S'P3Y'
p2249
sS'Timex'
p2250
S'<TIMEX3 beginPoint="t0" endPoint="t3" tid="t4" type="DURATION" value="P3Y">the next three years</TIMEX3>'
p2251
sS'Lemma'
p2252
S'year'
p2253
sS'CharacterOffsetEnd'
p2254
S'403'
p2255
sS'PartOfSpeech'
p2256
S'NNS'
p2257
sS'CharacterOffsetBegin'
p2258
S'398'
p2259
sS'NamedEntityTag'
p2260
S'DURATION'
p2261
stp2262
a(g422
(dp2263
S'NamedEntityTag'
p2264
g135
sS'CharacterOffsetEnd'
p2265
S'404'
p2266
sS'Lemma'
p2267
g422
sS'PartOfSpeech'
p2268
g422
sS'CharacterOffsetBegin'
p2269
S'403'
p2270
stp2271
asa(dp2272
g7
S'(ROOT (S (SBAR (IN With) (S (NP (RB only) (CD five) (NNS days)) (VP (TO to) (VP (VB go) (PP (IN before) (NP (NP (JJ gubernatorial) (NNS runoffs)) (PP (IN on) (NP (NNP Sunday))))))))) (, ,) (NP (CC neither) (NP (PRP he)) (CC nor) (NP (NNP President) (NNP Fernando) (NNP Henrique) (NNP Cardoso))) (PRN (, ,) (PP (IN in) (NP (NNP Brasilia))) (, ,)) (VP (VBD said) (SBAR (WHADVP (WRB how)) (S (NP (DT the) (NN government)) (VP (VBD planned) (S (VP (TO to) (VP (VB achieve) (NP (DT the) (NNS savings))))))))) (. .)))'
p2273
sg9
S'With only five days to go before gubernatorial runoffs on Sunday, neither he nor President Fernando Henrique Cardoso, in Brasilia, said how the government planned to achieve the savings.'
p2274
sg11
(lp2275
(S'root'
p2276
S'ROOT'
p2277
S'said'
p2278
tp2279
a(S'mark'
p2280
S'go'
p2281
S'With'
p2282
tp2283
a(S'advmod'
p2284
S'days'
p2285
S'only'
p2286
tp2287
a(S'num'
p2288
S'days'
p2289
S'five'
p2290
tp2291
a(S'nsubj'
p2292
S'go'
p2293
S'days'
p2294
tp2295
a(S'aux'
p2296
S'go'
p2297
S'to'
p2298
tp2299
a(S'advcl'
p2300
S'said'
p2301
S'go'
p2302
tp2303
a(S'amod'
p2304
S'runoffs'
p2305
S'gubernatorial'
p2306
tp2307
a(S'prep_before'
p2308
S'go'
p2309
S'runoffs'
p2310
tp2311
a(S'prep_on'
p2312
S'runoffs'
p2313
S'Sunday'
p2314
tp2315
a(S'preconj'
p2316
S'he'
p2317
S'neither'
p2318
tp2319
a(S'nsubj'
p2320
S'said'
p2321
S'he'
p2322
tp2323
a(S'nn'
p2324
S'Cardoso'
p2325
S'President'
p2326
tp2327
a(S'nn'
p2328
S'Cardoso'
p2329
S'Fernando'
p2330
tp2331
a(S'nn'
p2332
S'Cardoso'
p2333
S'Henrique'
p2334
tp2335
a(S'conj_nor'
p2336
S'he'
p2337
S'Cardoso'
p2338
tp2339
a(S'dep'
p2340
S'said'
p2341
S'in'
p2342
tp2343
a(S'pobj'
p2344
S'in'
p2345
S'Brasilia'
p2346
tp2347
a(S'advmod'
p2348
S'planned'
p2349
S'how'
p2350
tp2351
a(S'det'
p2352
S'government'
p2353
S'the'
p2354
tp2355
a(S'nsubj'
p2356
S'planned'
p2357
S'government'
p2358
tp2359
a(S'ccomp'
p2360
S'said'
p2361
S'planned'
p2362
tp2363
a(S'aux'
p2364
S'achieve'
p2365
S'to'
p2366
tp2367
a(S'xcomp'
p2368
S'planned'
p2369
S'achieve'
p2370
tp2371
a(S'det'
p2372
S'savings'
p2373
S'the'
p2374
tp2375
a(S'dobj'
p2376
S'achieve'
p2377
S'savings'
p2378
tp2379
asg49
(lp2380
(g2276
S'ROOT-0'
p2381
S'said-24'
p2382
tp2383
a(g2280
S'go-6'
p2384
S'With-1'
p2385
tp2386
a(g2284
S'days-4'
p2387
S'only-2'
p2388
tp2389
a(g2288
S'days-4'
p2390
S'five-3'
p2391
tp2392
a(g2292
S'go-6'
p2393
S'days-4'
p2394
tp2395
a(g2296
S'go-6'
p2396
S'to-5'
p2397
tp2398
a(g2300
S'said-24'
p2399
S'go-6'
p2400
tp2401
a(g2304
S'runoffs-9'
p2402
S'gubernatorial-8'
p2403
tp2404
a(g2308
S'go-6'
p2405
S'runoffs-9'
p2406
tp2407
a(g2312
S'runoffs-9'
p2408
S'Sunday-11'
p2409
tp2410
a(g2316
S'he-14'
p2411
S'neither-13'
p2412
tp2413
a(g2320
S'said-24'
p2414
S'he-14'
p2415
tp2416
a(g2324
S'Cardoso-19'
p2417
S'President-16'
p2418
tp2419
a(g2328
S'Cardoso-19'
p2420
S'Fernando-17'
p2421
tp2422
a(g2332
S'Cardoso-19'
p2423
S'Henrique-18'
p2424
tp2425
a(g2336
S'he-14'
p2426
S'Cardoso-19'
p2427
tp2428
a(g2340
S'said-24'
p2429
S'in-21'
p2430
tp2431
a(g2344
S'in-21'
p2432
S'Brasilia-22'
p2433
tp2434
a(g2348
S'planned-28'
p2435
S'how-25'
p2436
tp2437
a(g2352
S'government-27'
p2438
S'the-26'
p2439
tp2440
a(g2356
S'planned-28'
p2441
S'government-27'
p2442
tp2443
a(g2360
S'said-24'
p2444
S'planned-28'
p2445
tp2446
a(g2364
S'achieve-30'
p2447
S'to-29'
p2448
tp2449
a(g2368
S'planned-28'
p2450
S'achieve-30'
p2451
tp2452
a(g2372
S'savings-32'
p2453
S'the-31'
p2454
tp2455
a(g2376
S'achieve-30'
p2456
S'savings-32'
p2457
tp2458
asg78
(lp2459
(S'With'
p2460
(dp2461
S'NamedEntityTag'
p2462
g135
sS'CharacterOffsetEnd'
p2463
S'409'
p2464
sS'Lemma'
p2465
S'with'
p2466
sS'PartOfSpeech'
p2467
S'IN'
p2468
sS'CharacterOffsetBegin'
p2469
S'405'
p2470
stp2471
a(S'only'
p2472
(dp2473
S'NamedEntityTag'
p2474
g135
sS'CharacterOffsetEnd'
p2475
S'414'
p2476
sS'Lemma'
p2477
S'only'
p2478
sS'PartOfSpeech'
p2479
S'RB'
p2480
sS'CharacterOffsetBegin'
p2481
S'410'
p2482
stp2483
a(S'five'
p2484
(dp2485
S'NormalizedNamedEntityTag'
p2486
S'P5D'
p2487
sS'Timex'
p2488
S'<TIMEX3 tid="t5" type="DURATION" value="P5D">five days</TIMEX3>'
p2489
sS'Lemma'
p2490
S'five'
p2491
sS'CharacterOffsetEnd'
p2492
S'419'
p2493
sS'PartOfSpeech'
p2494
S'CD'
p2495
sS'CharacterOffsetBegin'
p2496
S'415'
p2497
sS'NamedEntityTag'
p2498
S'DURATION'
p2499
stp2500
a(S'days'
p2501
(dp2502
S'NormalizedNamedEntityTag'
p2503
S'P5D'
p2504
sS'Timex'
p2505
S'<TIMEX3 tid="t5" type="DURATION" value="P5D">five days</TIMEX3>'
p2506
sS'Lemma'
p2507
S'day'
p2508
sS'CharacterOffsetEnd'
p2509
S'424'
p2510
sS'PartOfSpeech'
p2511
S'NNS'
p2512
sS'CharacterOffsetBegin'
p2513
S'420'
p2514
sS'NamedEntityTag'
p2515
S'DURATION'
p2516
stp2517
a(S'to'
p2518
(dp2519
S'NamedEntityTag'
p2520
g135
sS'CharacterOffsetEnd'
p2521
S'427'
p2522
sS'Lemma'
p2523
S'to'
p2524
sS'PartOfSpeech'
p2525
S'TO'
p2526
sS'CharacterOffsetBegin'
p2527
S'425'
p2528
stp2529
a(S'go'
p2530
(dp2531
S'NamedEntityTag'
p2532
g135
sS'CharacterOffsetEnd'
p2533
S'430'
p2534
sS'Lemma'
p2535
S'go'
p2536
sS'PartOfSpeech'
p2537
S'VB'
p2538
sS'CharacterOffsetBegin'
p2539
S'428'
p2540
stp2541
a(S'before'
p2542
(dp2543
S'NamedEntityTag'
p2544
g135
sS'CharacterOffsetEnd'
p2545
S'437'
p2546
sS'Lemma'
p2547
S'before'
p2548
sS'PartOfSpeech'
p2549
S'IN'
p2550
sS'CharacterOffsetBegin'
p2551
S'431'
p2552
stp2553
a(S'gubernatorial'
p2554
(dp2555
S'NamedEntityTag'
p2556
g135
sS'CharacterOffsetEnd'
p2557
S'451'
p2558
sS'Lemma'
p2559
S'gubernatorial'
p2560
sS'PartOfSpeech'
p2561
S'JJ'
p2562
sS'CharacterOffsetBegin'
p2563
S'438'
p2564
stp2565
a(S'runoffs'
p2566
(dp2567
S'NamedEntityTag'
p2568
g135
sS'CharacterOffsetEnd'
p2569
S'459'
p2570
sS'Lemma'
p2571
S'runoff'
p2572
sS'PartOfSpeech'
p2573
S'NNS'
p2574
sS'CharacterOffsetBegin'
p2575
S'452'
p2576
stp2577
a(S'on'
p2578
(dp2579
S'NamedEntityTag'
p2580
g135
sS'CharacterOffsetEnd'
p2581
S'462'
p2582
sS'Lemma'
p2583
S'on'
p2584
sS'PartOfSpeech'
p2585
S'IN'
p2586
sS'CharacterOffsetBegin'
p2587
S'460'
p2588
stp2589
a(S'Sunday'
p2590
(dp2591
S'NormalizedNamedEntityTag'
p2592
S'XXXX-WXX-7'
p2593
sS'Timex'
p2594
S'<TIMEX3 tid="t6" type="DATE" value="XXXX-WXX-7">Sunday</TIMEX3>'
p2595
sS'Lemma'
p2596
S'Sunday'
p2597
sS'CharacterOffsetEnd'
p2598
S'469'
p2599
sS'PartOfSpeech'
p2600
S'NNP'
p2601
sS'CharacterOffsetBegin'
p2602
S'463'
p2603
sS'NamedEntityTag'
p2604
S'DATE'
p2605
stp2606
a(g132
(dp2607
S'NamedEntityTag'
p2608
g135
sS'CharacterOffsetEnd'
p2609
S'470'
p2610
sS'Lemma'
p2611
g132
sS'PartOfSpeech'
p2612
g132
sS'CharacterOffsetBegin'
p2613
S'469'
p2614
stp2615
a(S'neither'
p2616
(dp2617
S'NamedEntityTag'
p2618
g135
sS'CharacterOffsetEnd'
p2619
S'478'
p2620
sS'Lemma'
p2621
S'neither'
p2622
sS'PartOfSpeech'
p2623
S'CC'
p2624
sS'CharacterOffsetBegin'
p2625
S'471'
p2626
stp2627
a(S'he'
p2628
(dp2629
S'NamedEntityTag'
p2630
g135
sS'CharacterOffsetEnd'
p2631
S'481'
p2632
sS'Lemma'
p2633
S'he'
p2634
sS'PartOfSpeech'
p2635
S'PRP'
p2636
sS'CharacterOffsetBegin'
p2637
S'479'
p2638
stp2639
a(S'nor'
p2640
(dp2641
S'NamedEntityTag'
p2642
g135
sS'CharacterOffsetEnd'
p2643
S'485'
p2644
sS'Lemma'
p2645
S'nor'
p2646
sS'PartOfSpeech'
p2647
S'CC'
p2648
sS'CharacterOffsetBegin'
p2649
S'482'
p2650
stp2651
a(S'President'
p2652
(dp2653
S'NamedEntityTag'
p2654
g135
sS'CharacterOffsetEnd'
p2655
S'495'
p2656
sS'Lemma'
p2657
S'President'
p2658
sS'PartOfSpeech'
p2659
S'NNP'
p2660
sS'CharacterOffsetBegin'
p2661
S'486'
p2662
stp2663
a(S'Fernando'
p2664
(dp2665
S'NamedEntityTag'
p2666
S'PERSON'
p2667
sS'CharacterOffsetEnd'
p2668
S'504'
p2669
sS'Lemma'
p2670
S'Fernando'
p2671
sS'PartOfSpeech'
p2672
S'NNP'
p2673
sS'CharacterOffsetBegin'
p2674
S'496'
p2675
stp2676
a(S'Henrique'
p2677
(dp2678
S'NamedEntityTag'
p2679
S'PERSON'
p2680
sS'CharacterOffsetEnd'
p2681
S'513'
p2682
sS'Lemma'
p2683
S'Henrique'
p2684
sS'PartOfSpeech'
p2685
S'NNP'
p2686
sS'CharacterOffsetBegin'
p2687
S'505'
p2688
stp2689
a(S'Cardoso'
p2690
(dp2691
S'NamedEntityTag'
p2692
S'PERSON'
p2693
sS'CharacterOffsetEnd'
p2694
S'521'
p2695
sS'Lemma'
p2696
S'Cardoso'
p2697
sS'PartOfSpeech'
p2698
S'NNP'
p2699
sS'CharacterOffsetBegin'
p2700
S'514'
p2701
stp2702
a(g132
(dp2703
S'NamedEntityTag'
p2704
g135
sS'CharacterOffsetEnd'
p2705
S'522'
p2706
sS'Lemma'
p2707
g132
sS'PartOfSpeech'
p2708
g132
sS'CharacterOffsetBegin'
p2709
S'521'
p2710
stp2711
a(S'in'
p2712
(dp2713
S'NamedEntityTag'
p2714
g135
sS'CharacterOffsetEnd'
p2715
S'525'
p2716
sS'Lemma'
p2717
S'in'
p2718
sS'PartOfSpeech'
p2719
S'IN'
p2720
sS'CharacterOffsetBegin'
p2721
S'523'
p2722
stp2723
a(S'Brasilia'
p2724
(dp2725
S'NamedEntityTag'
p2726
S'LOCATION'
p2727
sS'CharacterOffsetEnd'
p2728
S'534'
p2729
sS'Lemma'
p2730
S'Brasilia'
p2731
sS'PartOfSpeech'
p2732
S'NNP'
p2733
sS'CharacterOffsetBegin'
p2734
S'526'
p2735
stp2736
a(g132
(dp2737
S'NamedEntityTag'
p2738
g135
sS'CharacterOffsetEnd'
p2739
S'535'
p2740
sS'Lemma'
p2741
g132
sS'PartOfSpeech'
p2742
g132
sS'CharacterOffsetBegin'
p2743
S'534'
p2744
stp2745
a(S'said'
p2746
(dp2747
S'NamedEntityTag'
p2748
g135
sS'CharacterOffsetEnd'
p2749
S'540'
p2750
sS'Lemma'
p2751
S'say'
p2752
sS'PartOfSpeech'
p2753
S'VBD'
p2754
sS'CharacterOffsetBegin'
p2755
S'536'
p2756
stp2757
a(S'how'
p2758
(dp2759
S'NamedEntityTag'
p2760
g135
sS'CharacterOffsetEnd'
p2761
S'544'
p2762
sS'Lemma'
p2763
S'how'
p2764
sS'PartOfSpeech'
p2765
S'WRB'
p2766
sS'CharacterOffsetBegin'
p2767
S'541'
p2768
stp2769
a(S'the'
p2770
(dp2771
S'NamedEntityTag'
p2772
g135
sS'CharacterOffsetEnd'
p2773
S'548'
p2774
sS'Lemma'
p2775
S'the'
p2776
sS'PartOfSpeech'
p2777
S'DT'
p2778
sS'CharacterOffsetBegin'
p2779
S'545'
p2780
stp2781
a(S'government'
p2782
(dp2783
S'NamedEntityTag'
p2784
g135
sS'CharacterOffsetEnd'
p2785
S'559'
p2786
sS'Lemma'
p2787
S'government'
p2788
sS'PartOfSpeech'
p2789
S'NN'
p2790
sS'CharacterOffsetBegin'
p2791
S'549'
p2792
stp2793
a(S'planned'
p2794
(dp2795
S'NamedEntityTag'
p2796
g135
sS'CharacterOffsetEnd'
p2797
S'567'
p2798
sS'Lemma'
p2799
S'plan'
p2800
sS'PartOfSpeech'
p2801
S'VBD'
p2802
sS'CharacterOffsetBegin'
p2803
S'560'
p2804
stp2805
a(S'to'
p2806
(dp2807
S'NamedEntityTag'
p2808
g135
sS'CharacterOffsetEnd'
p2809
S'570'
p2810
sS'Lemma'
p2811
S'to'
p2812
sS'PartOfSpeech'
p2813
S'TO'
p2814
sS'CharacterOffsetBegin'
p2815
S'568'
p2816
stp2817
a(S'achieve'
p2818
(dp2819
S'NamedEntityTag'
p2820
g135
sS'CharacterOffsetEnd'
p2821
S'578'
p2822
sS'Lemma'
p2823
S'achieve'
p2824
sS'PartOfSpeech'
p2825
S'VB'
p2826
sS'CharacterOffsetBegin'
p2827
S'571'
p2828
stp2829
a(S'the'
p2830
(dp2831
S'NamedEntityTag'
p2832
g135
sS'CharacterOffsetEnd'
p2833
S'582'
p2834
sS'Lemma'
p2835
S'the'
p2836
sS'PartOfSpeech'
p2837
S'DT'
p2838
sS'CharacterOffsetBegin'
p2839
S'579'
p2840
stp2841
a(S'savings'
p2842
(dp2843
S'NamedEntityTag'
p2844
g135
sS'CharacterOffsetEnd'
p2845
S'590'
p2846
sS'Lemma'
p2847
S'savings'
p2848
sS'PartOfSpeech'
p2849
S'NNS'
p2850
sS'CharacterOffsetBegin'
p2851
S'583'
p2852
stp2853
a(g422
(dp2854
S'NamedEntityTag'
p2855
g135
sS'CharacterOffsetEnd'
p2856
S'591'
p2857
sS'Lemma'
p2858
g422
sS'PartOfSpeech'
p2859
g422
sS'CharacterOffsetBegin'
p2860
S'590'
p2861
stp2862
asa(dp2863
g7
S'(ROOT (S (S (NP (NP (JJ Important) (NNS allies)) (PP (IN of) (NP (NNP Cardoso)))) (VP (VBP are) (VP (VBG lagging) (PP (IN behind) (PP (IN in) (NP (CD three) (JJ key) (NNS states))))))) (, ,) (CC and) (S (PP (IN despite) (NP (NP (DT the) (NN government)) (VP (VBZ promises)))) (, ,) (NP (NN market) (NNS analysts)) (VP (VBD did) (RB not) (VP (VB expect) (NP (DT an) (NN announcement)) (PP (IN until) (PP (IN after) (NP (DT the) (NNS elections))))))) (. .)))'
p2864
sg9
S'Important allies of Cardoso are lagging behind in three key states, and despite the government promises, market analysts did not expect an announcement until after the elections.'
p2865
sg11
(lp2866
(S'root'
p2867
S'ROOT'
p2868
S'lagging'
p2869
tp2870
a(S'amod'
p2871
S'allies'
p2872
S'Important'
p2873
tp2874
a(S'nsubj'
p2875
S'lagging'
p2876
S'allies'
p2877
tp2878
a(S'prep_of'
p2879
S'allies'
p2880
S'Cardoso'
p2881
tp2882
a(S'aux'
p2883
S'lagging'
p2884
S'are'
p2885
tp2886
a(S'prep'
p2887
S'lagging'
p2888
S'behind'
p2889
tp2890
a(S'pcomp'
p2891
S'behind'
p2892
S'in'
p2893
tp2894
a(S'num'
p2895
S'states'
p2896
S'three'
p2897
tp2898
a(S'amod'
p2899
S'states'
p2900
S'key'
p2901
tp2902
a(S'pobj'
p2903
S'in'
p2904
S'states'
p2905
tp2906
a(S'det'
p2907
S'government'
p2908
S'the'
p2909
tp2910
a(S'prep_despite'
p2911
S'expect'
p2912
S'government'
p2913
tp2914
a(S'dep'
p2915
S'government'
p2916
S'promises'
p2917
tp2918
a(S'nn'
p2919
S'analysts'
p2920
S'market'
p2921
tp2922
a(S'nsubj'
p2923
S'expect'
p2924
S'analysts'
p2925
tp2926
a(S'aux'
p2927
S'expect'
p2928
S'did'
p2929
tp2930
a(S'neg'
p2931
S'expect'
p2932
S'not'
p2933
tp2934
a(S'conj_and'
p2935
S'lagging'
p2936
S'expect'
p2937
tp2938
a(S'det'
p2939
S'announcement'
p2940
S'an'
p2941
tp2942
a(S'dobj'
p2943
S'expect'
p2944
S'announcement'
p2945
tp2946
a(S'prep'
p2947
S'expect'
p2948
S'until'
p2949
tp2950
a(S'pcomp'
p2951
S'until'
p2952
S'after'
p2953
tp2954
a(S'det'
p2955
S'elections'
p2956
S'the'
p2957
tp2958
a(S'pobj'
p2959
S'after'
p2960
S'elections'
p2961
tp2962
asg49
(lp2963
(g2867
S'ROOT-0'
p2964
S'lagging-6'
p2965
tp2966
a(g2871
S'allies-2'
p2967
S'Important-1'
p2968
tp2969
a(g2875
S'lagging-6'
p2970
S'allies-2'
p2971
tp2972
a(g2879
S'allies-2'
p2973
S'Cardoso-4'
p2974
tp2975
a(g2883
S'lagging-6'
p2976
S'are-5'
p2977
tp2978
a(g2887
S'lagging-6'
p2979
S'behind-7'
p2980
tp2981
a(g2891
S'behind-7'
p2982
S'in-8'
p2983
tp2984
a(g2895
S'states-11'
p2985
S'three-9'
p2986
tp2987
a(g2899
S'states-11'
p2988
S'key-10'
p2989
tp2990
a(g2903
S'in-8'
p2991
S'states-11'
p2992
tp2993
a(g2907
S'government-16'
p2994
S'the-15'
p2995
tp2996
a(g2911
S'expect-23'
p2997
S'government-16'
p2998
tp2999
a(g2915
S'government-16'
p3000
S'promises-17'
p3001
tp3002
a(g2919
S'analysts-20'
p3003
S'market-19'
p3004
tp3005
a(g2923
S'expect-23'
p3006
S'analysts-20'
p3007
tp3008
a(g2927
S'expect-23'
p3009
S'did-21'
p3010
tp3011
a(g2931
S'expect-23'
p3012
S'not-22'
p3013
tp3014
a(g2935
S'lagging-6'
p3015
S'expect-23'
p3016
tp3017
a(g2939
S'announcement-25'
p3018
S'an-24'
p3019
tp3020
a(g2943
S'expect-23'
p3021
S'announcement-25'
p3022
tp3023
a(g2947
S'expect-23'
p3024
S'until-26'
p3025
tp3026
a(g2951
S'until-26'
p3027
S'after-27'
p3028
tp3029
a(g2955
S'elections-29'
p3030
S'the-28'
p3031
tp3032
a(g2959
S'after-27'
p3033
S'elections-29'
p3034
tp3035
asg78
(lp3036
(S'Important'
p3037
(dp3038
S'NamedEntityTag'
p3039
g135
sS'CharacterOffsetEnd'
p3040
S'601'
p3041
sS'Lemma'
p3042
S'important'
p3043
sS'PartOfSpeech'
p3044
S'JJ'
p3045
sS'CharacterOffsetBegin'
p3046
S'592'
p3047
stp3048
a(S'allies'
p3049
(dp3050
S'NamedEntityTag'
p3051
g135
sS'CharacterOffsetEnd'
p3052
S'608'
p3053
sS'Lemma'
p3054
S'ally'
p3055
sS'PartOfSpeech'
p3056
S'NNS'
p3057
sS'CharacterOffsetBegin'
p3058
S'602'
p3059
stp3060
a(S'of'
p3061
(dp3062
S'NamedEntityTag'
p3063
g135
sS'CharacterOffsetEnd'
p3064
S'611'
p3065
sS'Lemma'
p3066
S'of'
p3067
sS'PartOfSpeech'
p3068
S'IN'
p3069
sS'CharacterOffsetBegin'
p3070
S'609'
p3071
stp3072
a(S'Cardoso'
p3073
(dp3074
S'NamedEntityTag'
p3075
S'PERSON'
p3076
sS'CharacterOffsetEnd'
p3077
S'619'
p3078
sS'Lemma'
p3079
S'Cardoso'
p3080
sS'PartOfSpeech'
p3081
S'NNP'
p3082
sS'CharacterOffsetBegin'
p3083
S'612'
p3084
stp3085
a(S'are'
p3086
(dp3087
S'NamedEntityTag'
p3088
g135
sS'CharacterOffsetEnd'
p3089
S'623'
p3090
sS'Lemma'
p3091
S'be'
p3092
sS'PartOfSpeech'
p3093
S'VBP'
p3094
sS'CharacterOffsetBegin'
p3095
S'620'
p3096
stp3097
a(S'lagging'
p3098
(dp3099
S'NamedEntityTag'
p3100
g135
sS'CharacterOffsetEnd'
p3101
S'631'
p3102
sS'Lemma'
p3103
S'lag'
p3104
sS'PartOfSpeech'
p3105
S'VBG'
p3106
sS'CharacterOffsetBegin'
p3107
S'624'
p3108
stp3109
a(S'behind'
p3110
(dp3111
S'NamedEntityTag'
p3112
g135
sS'CharacterOffsetEnd'
p3113
S'638'
p3114
sS'Lemma'
p3115
S'behind'
p3116
sS'PartOfSpeech'
p3117
S'IN'
p3118
sS'CharacterOffsetBegin'
p3119
S'632'
p3120
stp3121
a(S'in'
p3122
(dp3123
S'NamedEntityTag'
p3124
g135
sS'CharacterOffsetEnd'
p3125
S'641'
p3126
sS'Lemma'
p3127
S'in'
p3128
sS'PartOfSpeech'
p3129
S'IN'
p3130
sS'CharacterOffsetBegin'
p3131
S'639'
p3132
stp3133
a(S'three'
p3134
(dp3135
S'NormalizedNamedEntityTag'
p3136
S'3.0'
p3137
sS'Lemma'
p3138
S'three'
p3139
sS'CharacterOffsetEnd'
p3140
S'647'
p3141
sS'PartOfSpeech'
p3142
S'CD'
p3143
sS'CharacterOffsetBegin'
p3144
S'642'
p3145
sS'NamedEntityTag'
p3146
S'NUMBER'
p3147
stp3148
a(S'key'
p3149
(dp3150
S'NamedEntityTag'
p3151
g135
sS'CharacterOffsetEnd'
p3152
S'651'
p3153
sS'Lemma'
p3154
S'key'
p3155
sS'PartOfSpeech'
p3156
S'JJ'
p3157
sS'CharacterOffsetBegin'
p3158
S'648'
p3159
stp3160
a(S'states'
p3161
(dp3162
S'NamedEntityTag'
p3163
g135
sS'CharacterOffsetEnd'
p3164
S'658'
p3165
sS'Lemma'
p3166
S'state'
p3167
sS'PartOfSpeech'
p3168
S'NNS'
p3169
sS'CharacterOffsetBegin'
p3170
S'652'
p3171
stp3172
a(g132
(dp3173
S'NamedEntityTag'
p3174
g135
sS'CharacterOffsetEnd'
p3175
S'659'
p3176
sS'Lemma'
p3177
g132
sS'PartOfSpeech'
p3178
g132
sS'CharacterOffsetBegin'
p3179
S'658'
p3180
stp3181
a(S'and'
p3182
(dp3183
S'NamedEntityTag'
p3184
g135
sS'CharacterOffsetEnd'
p3185
S'663'
p3186
sS'Lemma'
p3187
S'and'
p3188
sS'PartOfSpeech'
p3189
S'CC'
p3190
sS'CharacterOffsetBegin'
p3191
S'660'
p3192
stp3193
a(S'despite'
p3194
(dp3195
S'NamedEntityTag'
p3196
g135
sS'CharacterOffsetEnd'
p3197
S'671'
p3198
sS'Lemma'
p3199
S'despite'
p3200
sS'PartOfSpeech'
p3201
S'IN'
p3202
sS'CharacterOffsetBegin'
p3203
S'664'
p3204
stp3205
a(S'the'
p3206
(dp3207
S'NamedEntityTag'
p3208
g135
sS'CharacterOffsetEnd'
p3209
S'675'
p3210
sS'Lemma'
p3211
S'the'
p3212
sS'PartOfSpeech'
p3213
S'DT'
p3214
sS'CharacterOffsetBegin'
p3215
S'672'
p3216
stp3217
a(S'government'
p3218
(dp3219
S'NamedEntityTag'
p3220
g135
sS'CharacterOffsetEnd'
p3221
S'686'
p3222
sS'Lemma'
p3223
S'government'
p3224
sS'PartOfSpeech'
p3225
S'NN'
p3226
sS'CharacterOffsetBegin'
p3227
S'676'
p3228
stp3229
a(S'promises'
p3230
(dp3231
S'NamedEntityTag'
p3232
g135
sS'CharacterOffsetEnd'
p3233
S'695'
p3234
sS'Lemma'
p3235
S'promise'
p3236
sS'PartOfSpeech'
p3237
S'VBZ'
p3238
sS'CharacterOffsetBegin'
p3239
S'687'
p3240
stp3241
a(g132
(dp3242
S'NamedEntityTag'
p3243
g135
sS'CharacterOffsetEnd'
p3244
S'696'
p3245
sS'Lemma'
p3246
g132
sS'PartOfSpeech'
p3247
g132
sS'CharacterOffsetBegin'
p3248
S'695'
p3249
stp3250
a(S'market'
p3251
(dp3252
S'NamedEntityTag'
p3253
g135
sS'CharacterOffsetEnd'
p3254
S'703'
p3255
sS'Lemma'
p3256
S'market'
p3257
sS'PartOfSpeech'
p3258
S'NN'
p3259
sS'CharacterOffsetBegin'
p3260
S'697'
p3261
stp3262
a(S'analysts'
p3263
(dp3264
S'NamedEntityTag'
p3265
g135
sS'CharacterOffsetEnd'
p3266
S'712'
p3267
sS'Lemma'
p3268
S'analyst'
p3269
sS'PartOfSpeech'
p3270
S'NNS'
p3271
sS'CharacterOffsetBegin'
p3272
S'704'
p3273
stp3274
a(S'did'
p3275
(dp3276
S'NamedEntityTag'
p3277
g135
sS'CharacterOffsetEnd'
p3278
S'716'
p3279
sS'Lemma'
p3280
S'do'
p3281
sS'PartOfSpeech'
p3282
S'VBD'
p3283
sS'CharacterOffsetBegin'
p3284
S'713'
p3285
stp3286
a(S'not'
p3287
(dp3288
S'NamedEntityTag'
p3289
g135
sS'CharacterOffsetEnd'
p3290
S'720'
p3291
sS'Lemma'
p3292
S'not'
p3293
sS'PartOfSpeech'
p3294
S'RB'
p3295
sS'CharacterOffsetBegin'
p3296
S'717'
p3297
stp3298
a(S'expect'
p3299
(dp3300
S'NamedEntityTag'
p3301
g135
sS'CharacterOffsetEnd'
p3302
S'727'
p3303
sS'Lemma'
p3304
S'expect'
p3305
sS'PartOfSpeech'
p3306
S'VB'
p3307
sS'CharacterOffsetBegin'
p3308
S'721'
p3309
stp3310
a(S'an'
p3311
(dp3312
S'NamedEntityTag'
p3313
g135
sS'CharacterOffsetEnd'
p3314
S'730'
p3315
sS'Lemma'
p3316
g1774
sS'PartOfSpeech'
p3317
S'DT'
p3318
sS'CharacterOffsetBegin'
p3319
S'728'
p3320
stp3321
a(S'announcement'
p3322
(dp3323
S'NamedEntityTag'
p3324
g135
sS'CharacterOffsetEnd'
p3325
S'743'
p3326
sS'Lemma'
p3327
S'announcement'
p3328
sS'PartOfSpeech'
p3329
S'NN'
p3330
sS'CharacterOffsetBegin'
p3331
S'731'
p3332
stp3333
a(S'until'
p3334
(dp3335
S'NamedEntityTag'
p3336
g135
sS'CharacterOffsetEnd'
p3337
S'749'
p3338
sS'Lemma'
p3339
S'until'
p3340
sS'PartOfSpeech'
p3341
S'IN'
p3342
sS'CharacterOffsetBegin'
p3343
S'744'
p3344
stp3345
a(S'after'
p3346
(dp3347
S'NamedEntityTag'
p3348
g135
sS'CharacterOffsetEnd'
p3349
S'755'
p3350
sS'Lemma'
p3351
S'after'
p3352
sS'PartOfSpeech'
p3353
S'IN'
p3354
sS'CharacterOffsetBegin'
p3355
S'750'
p3356
stp3357
a(S'the'
p3358
(dp3359
S'NamedEntityTag'
p3360
g135
sS'CharacterOffsetEnd'
p3361
S'759'
p3362
sS'Lemma'
p3363
S'the'
p3364
sS'PartOfSpeech'
p3365
S'DT'
p3366
sS'CharacterOffsetBegin'
p3367
S'756'
p3368
stp3369
a(S'elections'
p3370
(dp3371
S'NamedEntityTag'
p3372
g135
sS'CharacterOffsetEnd'
p3373
S'769'
p3374
sS'Lemma'
p3375
S'election'
p3376
sS'PartOfSpeech'
p3377
S'NNS'
p3378
sS'CharacterOffsetBegin'
p3379
S'760'
p3380
stp3381
a(g422
(dp3382
S'NamedEntityTag'
p3383
g135
sS'CharacterOffsetEnd'
p3384
S'770'
p3385
sS'Lemma'
p3386
g422
sS'PartOfSpeech'
p3387
g422
sS'CharacterOffsetBegin'
p3388
S'769'
p3389
stp3390
asa(dp3391
g7
S'(ROOT (S (ADVP (RB Instead)) (, ,) (NP (NP (DT the) (NN strategy)) (PP (IN in) (NP (NNP Brasilia) (CC and) (NNP Washington)))) (VP (VBD appeared) (S (VP (TO to) (VP (VB focus) (PP (IN on) (S (VP (VBG reassuring) (NP (NP (DT the) (NNS markets)) (SBAR (WHNP (WDT that)) (S (VP (VBP work) (PP (IN on) (S (VP (VBG cutting) (SBAR (S (NP (DT the) (NN deficit)) (VP (VBD was) (VP (VBG going) (ADVP (RB forward)) (, ,) (PP (IN without) (S (VP (VBG providing) (NP (NN fodder)) (PP (IN for) (NP (NP (NNS opponents)) (PP (IN in) (NP (JJ domestic) (NNS elections)))))))))))))))))))))))))) (. .)))'
p3392
sg9
S'Instead, the strategy in Brasilia and Washington appeared to focus on reassuring the markets that work on cutting the deficit was going forward, without providing fodder for opponents in domestic elections.'
p3393
sg11
(lp3394
(S'root'
p3395
S'ROOT'
p3396
S'appeared'
p3397
tp3398
a(S'advmod'
p3399
S'appeared'
p3400
S'Instead'
p3401
tp3402
a(S'det'
p3403
S'strategy'
p3404
S'the'
p3405
tp3406
a(S'nsubj'
p3407
S'appeared'
p3408
S'strategy'
p3409
tp3410
a(S'prep_in'
p3411
S'strategy'
p3412
S'Brasilia'
p3413
tp3414
a(S'conj_and'
p3415
S'Brasilia'
p3416
S'Washington'
p3417
tp3418
a(S'aux'
p3419
S'focus'
p3420
S'to'
p3421
tp3422
a(S'xcomp'
p3423
S'appeared'
p3424
S'focus'
p3425
tp3426
a(S'prepc_on'
p3427
S'focus'
p3428
S'reassuring'
p3429
tp3430
a(S'det'
p3431
S'markets'
p3432
S'the'
p3433
tp3434
a(S'dobj'
p3435
S'reassuring'
p3436
S'markets'
p3437
tp3438
a(S'nsubj'
p3439
S'work'
p3440
S'that'
p3441
tp3442
a(S'rcmod'
p3443
S'markets'
p3444
S'work'
p3445
tp3446
a(S'prepc_on'
p3447
S'work'
p3448
S'cutting'
p3449
tp3450
a(S'det'
p3451
S'deficit'
p3452
S'the'
p3453
tp3454
a(S'nsubj'
p3455
S'going'
p3456
S'deficit'
p3457
tp3458
a(S'aux'
p3459
S'going'
p3460
S'was'
p3461
tp3462
a(S'ccomp'
p3463
S'cutting'
p3464
S'going'
p3465
tp3466
a(S'advmod'
p3467
S'going'
p3468
S'forward'
p3469
tp3470
a(S'prepc_without'
p3471
S'going'
p3472
S'providing'
p3473
tp3474
a(S'dobj'
p3475
S'providing'
p3476
S'fodder'
p3477
tp3478
a(S'prep_for'
p3479
S'providing'
p3480
S'opponents'
p3481
tp3482
a(S'amod'
p3483
S'elections'
p3484
S'domestic'
p3485
tp3486
a(S'prep_in'
p3487
S'opponents'
p3488
S'elections'
p3489
tp3490
asg49
(lp3491
(g3395
S'ROOT-0'
p3492
S'appeared-9'
p3493
tp3494
a(g3399
S'appeared-9'
p3495
S'Instead-1'
p3496
tp3497
a(g3403
S'strategy-4'
p3498
S'the-3'
p3499
tp3500
a(g3407
S'appeared-9'
p3501
S'strategy-4'
p3502
tp3503
a(g3411
S'strategy-4'
p3504
S'Brasilia-6'
p3505
tp3506
a(g3415
S'Brasilia-6'
p3507
S'Washington-8'
p3508
tp3509
a(g3419
S'focus-11'
p3510
S'to-10'
p3511
tp3512
a(g3423
S'appeared-9'
p3513
S'focus-11'
p3514
tp3515
a(g3427
S'focus-11'
p3516
S'reassuring-13'
p3517
tp3518
a(g3431
S'markets-15'
p3519
S'the-14'
p3520
tp3521
a(g3435
S'reassuring-13'
p3522
S'markets-15'
p3523
tp3524
a(g3439
S'work-17'
p3525
S'that-16'
p3526
tp3527
a(g3443
S'markets-15'
p3528
S'work-17'
p3529
tp3530
a(g3447
S'work-17'
p3531
S'cutting-19'
p3532
tp3533
a(g3451
S'deficit-21'
p3534
S'the-20'
p3535
tp3536
a(g3455
S'going-23'
p3537
S'deficit-21'
p3538
tp3539
a(g3459
S'going-23'
p3540
S'was-22'
p3541
tp3542
a(g3463
S'cutting-19'
p3543
S'going-23'
p3544
tp3545
a(g3467
S'going-23'
p3546
S'forward-24'
p3547
tp3548
a(g3471
S'going-23'
p3549
S'providing-27'
p3550
tp3551
a(g3475
S'providing-27'
p3552
S'fodder-28'
p3553
tp3554
a(g3479
S'providing-27'
p3555
S'opponents-30'
p3556
tp3557
a(g3483
S'elections-33'
p3558
S'domestic-32'
p3559
tp3560
a(g3487
S'opponents-30'
p3561
S'elections-33'
p3562
tp3563
asg78
(lp3564
(S'Instead'
p3565
(dp3566
S'NamedEntityTag'
p3567
g135
sS'CharacterOffsetEnd'
p3568
S'778'
p3569
sS'Lemma'
p3570
S'instead'
p3571
sS'PartOfSpeech'
p3572
S'RB'
p3573
sS'CharacterOffsetBegin'
p3574
S'771'
p3575
stp3576
a(g132
(dp3577
S'NamedEntityTag'
p3578
g135
sS'CharacterOffsetEnd'
p3579
S'779'
p3580
sS'Lemma'
p3581
g132
sS'PartOfSpeech'
p3582
g132
sS'CharacterOffsetBegin'
p3583
S'778'
p3584
stp3585
a(S'the'
p3586
(dp3587
S'NamedEntityTag'
p3588
g135
sS'CharacterOffsetEnd'
p3589
S'783'
p3590
sS'Lemma'
p3591
S'the'
p3592
sS'PartOfSpeech'
p3593
S'DT'
p3594
sS'CharacterOffsetBegin'
p3595
S'780'
p3596
stp3597
a(S'strategy'
p3598
(dp3599
S'NamedEntityTag'
p3600
g135
sS'CharacterOffsetEnd'
p3601
S'792'
p3602
sS'Lemma'
p3603
S'strategy'
p3604
sS'PartOfSpeech'
p3605
S'NN'
p3606
sS'CharacterOffsetBegin'
p3607
S'784'
p3608
stp3609
a(S'in'
p3610
(dp3611
S'NamedEntityTag'
p3612
g135
sS'CharacterOffsetEnd'
p3613
S'795'
p3614
sS'Lemma'
p3615
S'in'
p3616
sS'PartOfSpeech'
p3617
S'IN'
p3618
sS'CharacterOffsetBegin'
p3619
S'793'
p3620
stp3621
a(S'Brasilia'
p3622
(dp3623
S'NamedEntityTag'
p3624
S'LOCATION'
p3625
sS'CharacterOffsetEnd'
p3626
S'804'
p3627
sS'Lemma'
p3628
S'Brasilia'
p3629
sS'PartOfSpeech'
p3630
S'NNP'
p3631
sS'CharacterOffsetBegin'
p3632
S'796'
p3633
stp3634
a(S'and'
p3635
(dp3636
S'NamedEntityTag'
p3637
g135
sS'CharacterOffsetEnd'
p3638
S'808'
p3639
sS'Lemma'
p3640
S'and'
p3641
sS'PartOfSpeech'
p3642
S'CC'
p3643
sS'CharacterOffsetBegin'
p3644
S'805'
p3645
stp3646
a(S'Washington'
p3647
(dp3648
S'NamedEntityTag'
p3649
S'LOCATION'
p3650
sS'CharacterOffsetEnd'
p3651
S'819'
p3652
sS'Lemma'
p3653
S'Washington'
p3654
sS'PartOfSpeech'
p3655
S'NNP'
p3656
sS'CharacterOffsetBegin'
p3657
S'809'
p3658
stp3659
a(S'appeared'
p3660
(dp3661
S'NamedEntityTag'
p3662
g135
sS'CharacterOffsetEnd'
p3663
S'828'
p3664
sS'Lemma'
p3665
S'appear'
p3666
sS'PartOfSpeech'
p3667
S'VBD'
p3668
sS'CharacterOffsetBegin'
p3669
S'820'
p3670
stp3671
a(S'to'
p3672
(dp3673
S'NamedEntityTag'
p3674
g135
sS'CharacterOffsetEnd'
p3675
S'831'
p3676
sS'Lemma'
p3677
S'to'
p3678
sS'PartOfSpeech'
p3679
S'TO'
p3680
sS'CharacterOffsetBegin'
p3681
S'829'
p3682
stp3683
a(S'focus'
p3684
(dp3685
S'NamedEntityTag'
p3686
g135
sS'CharacterOffsetEnd'
p3687
S'837'
p3688
sS'Lemma'
p3689
S'focus'
p3690
sS'PartOfSpeech'
p3691
S'VB'
p3692
sS'CharacterOffsetBegin'
p3693
S'832'
p3694
stp3695
a(S'on'
p3696
(dp3697
S'NamedEntityTag'
p3698
g135
sS'CharacterOffsetEnd'
p3699
S'840'
p3700
sS'Lemma'
p3701
S'on'
p3702
sS'PartOfSpeech'
p3703
S'IN'
p3704
sS'CharacterOffsetBegin'
p3705
S'838'
p3706
stp3707
a(S'reassuring'
p3708
(dp3709
S'NamedEntityTag'
p3710
g135
sS'CharacterOffsetEnd'
p3711
S'851'
p3712
sS'Lemma'
p3713
S'reassure'
p3714
sS'PartOfSpeech'
p3715
S'VBG'
p3716
sS'CharacterOffsetBegin'
p3717
S'841'
p3718
stp3719
a(S'the'
p3720
(dp3721
S'NamedEntityTag'
p3722
g135
sS'CharacterOffsetEnd'
p3723
S'855'
p3724
sS'Lemma'
p3725
S'the'
p3726
sS'PartOfSpeech'
p3727
S'DT'
p3728
sS'CharacterOffsetBegin'
p3729
S'852'
p3730
stp3731
a(S'markets'
p3732
(dp3733
S'NamedEntityTag'
p3734
g135
sS'CharacterOffsetEnd'
p3735
S'863'
p3736
sS'Lemma'
p3737
S'market'
p3738
sS'PartOfSpeech'
p3739
S'NNS'
p3740
sS'CharacterOffsetBegin'
p3741
S'856'
p3742
stp3743
a(S'that'
p3744
(dp3745
S'NamedEntityTag'
p3746
g135
sS'CharacterOffsetEnd'
p3747
S'868'
p3748
sS'Lemma'
p3749
S'that'
p3750
sS'PartOfSpeech'
p3751
S'WDT'
p3752
sS'CharacterOffsetBegin'
p3753
S'864'
p3754
stp3755
a(S'work'
p3756
(dp3757
S'NamedEntityTag'
p3758
g135
sS'CharacterOffsetEnd'
p3759
S'873'
p3760
sS'Lemma'
p3761
S'work'
p3762
sS'PartOfSpeech'
p3763
S'VBP'
p3764
sS'CharacterOffsetBegin'
p3765
S'869'
p3766
stp3767
a(S'on'
p3768
(dp3769
S'NamedEntityTag'
p3770
g135
sS'CharacterOffsetEnd'
p3771
S'876'
p3772
sS'Lemma'
p3773
S'on'
p3774
sS'PartOfSpeech'
p3775
S'IN'
p3776
sS'CharacterOffsetBegin'
p3777
S'874'
p3778
stp3779
a(S'cutting'
p3780
(dp3781
S'NamedEntityTag'
p3782
g135
sS'CharacterOffsetEnd'
p3783
S'884'
p3784
sS'Lemma'
p3785
S'cut'
p3786
sS'PartOfSpeech'
p3787
S'VBG'
p3788
sS'CharacterOffsetBegin'
p3789
S'877'
p3790
stp3791
a(S'the'
p3792
(dp3793
S'NamedEntityTag'
p3794
g135
sS'CharacterOffsetEnd'
p3795
S'888'
p3796
sS'Lemma'
p3797
S'the'
p3798
sS'PartOfSpeech'
p3799
S'DT'
p3800
sS'CharacterOffsetBegin'
p3801
S'885'
p3802
stp3803
a(S'deficit'
p3804
(dp3805
S'NamedEntityTag'
p3806
g135
sS'CharacterOffsetEnd'
p3807
S'896'
p3808
sS'Lemma'
p3809
S'deficit'
p3810
sS'PartOfSpeech'
p3811
S'NN'
p3812
sS'CharacterOffsetBegin'
p3813
S'889'
p3814
stp3815
a(S'was'
p3816
(dp3817
S'NamedEntityTag'
p3818
g135
sS'CharacterOffsetEnd'
p3819
S'900'
p3820
sS'Lemma'
p3821
S'be'
p3822
sS'PartOfSpeech'
p3823
S'VBD'
p3824
sS'CharacterOffsetBegin'
p3825
S'897'
p3826
stp3827
a(S'going'
p3828
(dp3829
S'NamedEntityTag'
p3830
g135
sS'CharacterOffsetEnd'
p3831
S'906'
p3832
sS'Lemma'
p3833
S'go'
p3834
sS'PartOfSpeech'
p3835
S'VBG'
p3836
sS'CharacterOffsetBegin'
p3837
S'901'
p3838
stp3839
a(S'forward'
p3840
(dp3841
S'NamedEntityTag'
p3842
g135
sS'CharacterOffsetEnd'
p3843
S'914'
p3844
sS'Lemma'
p3845
S'forward'
p3846
sS'PartOfSpeech'
p3847
S'RB'
p3848
sS'CharacterOffsetBegin'
p3849
S'907'
p3850
stp3851
a(g132
(dp3852
S'NamedEntityTag'
p3853
g135
sS'CharacterOffsetEnd'
p3854
S'915'
p3855
sS'Lemma'
p3856
g132
sS'PartOfSpeech'
p3857
g132
sS'CharacterOffsetBegin'
p3858
S'914'
p3859
stp3860
a(S'without'
p3861
(dp3862
S'NamedEntityTag'
p3863
g135
sS'CharacterOffsetEnd'
p3864
S'923'
p3865
sS'Lemma'
p3866
S'without'
p3867
sS'PartOfSpeech'
p3868
S'IN'
p3869
sS'CharacterOffsetBegin'
p3870
S'916'
p3871
stp3872
a(S'providing'
p3873
(dp3874
S'NamedEntityTag'
p3875
g135
sS'CharacterOffsetEnd'
p3876
S'933'
p3877
sS'Lemma'
p3878
S'provide'
p3879
sS'PartOfSpeech'
p3880
S'VBG'
p3881
sS'CharacterOffsetBegin'
p3882
S'924'
p3883
stp3884
a(S'fodder'
p3885
(dp3886
S'NamedEntityTag'
p3887
g135
sS'CharacterOffsetEnd'
p3888
S'940'
p3889
sS'Lemma'
p3890
S'fodder'
p3891
sS'PartOfSpeech'
p3892
S'NN'
p3893
sS'CharacterOffsetBegin'
p3894
S'934'
p3895
stp3896
a(S'for'
p3897
(dp3898
S'NamedEntityTag'
p3899
g135
sS'CharacterOffsetEnd'
p3900
S'944'
p3901
sS'Lemma'
p3902
S'for'
p3903
sS'PartOfSpeech'
p3904
S'IN'
p3905
sS'CharacterOffsetBegin'
p3906
S'941'
p3907
stp3908
a(S'opponents'
p3909
(dp3910
S'NamedEntityTag'
p3911
g135
sS'CharacterOffsetEnd'
p3912
S'954'
p3913
sS'Lemma'
p3914
S'opponent'
p3915
sS'PartOfSpeech'
p3916
S'NNS'
p3917
sS'CharacterOffsetBegin'
p3918
S'945'
p3919
stp3920
a(S'in'
p3921
(dp3922
S'NamedEntityTag'
p3923
g135
sS'CharacterOffsetEnd'
p3924
S'957'
p3925
sS'Lemma'
p3926
S'in'
p3927
sS'PartOfSpeech'
p3928
S'IN'
p3929
sS'CharacterOffsetBegin'
p3930
S'955'
p3931
stp3932
a(S'domestic'
p3933
(dp3934
S'NamedEntityTag'
p3935
g135
sS'CharacterOffsetEnd'
p3936
S'966'
p3937
sS'Lemma'
p3938
S'domestic'
p3939
sS'PartOfSpeech'
p3940
S'JJ'
p3941
sS'CharacterOffsetBegin'
p3942
S'958'
p3943
stp3944
a(S'elections'
p3945
(dp3946
S'NamedEntityTag'
p3947
g135
sS'CharacterOffsetEnd'
p3948
S'976'
p3949
sS'Lemma'
p3950
S'election'
p3951
sS'PartOfSpeech'
p3952
S'NNS'
p3953
sS'CharacterOffsetBegin'
p3954
S'967'
p3955
stp3956
a(g422
(dp3957
S'NamedEntityTag'
p3958
g135
sS'CharacterOffsetEnd'
p3959
S'977'
p3960
sS'Lemma'
p3961
g422
sS'PartOfSpeech'
p3962
g422
sS'CharacterOffsetBegin'
p3963
S'976'
p3964
stp3965
asa(dp3966
g7
S'(ROOT (SINV (S (NP (DT The) (NNS discussions)) (VP (VBP continue) (PP (IN with) (NP (NP (DT the) (NN objective)) (PP (IN of) (S (VP (VBG reaching) (NP (NN agreement)) (ADVP (RB soon)) (PP (IN on) (NP (DT the) (JJ detailed) (NN program)))))))))) (, ,) (VP (VBD said) (NP (DT a) (JJ joint) (NN statement)) (PP (IN by) (NP (NP (DT the) (NNP IMF)) (CC and) (NP (DT the) (JJ Brazilian))))) (NP (NNP Finance) (NNP Ministry)) (. .)))'
p3967
sg9
S'The discussions continue with the objective of reaching agreement soon on the detailed program, said a joint statement by the IMF and the Brazilian Finance Ministry.'
p3968
sg11
(lp3969
(S'root'
p3970
S'ROOT'
p3971
S'said'
p3972
tp3973
a(S'det'
p3974
S'discussions'
p3975
S'The'
p3976
tp3977
a(S'nsubj'
p3978
S'continue'
p3979
S'discussions'
p3980
tp3981
a(S'ccomp'
p3982
S'said'
p3983
S'continue'
p3984
tp3985
a(S'det'
p3986
S'objective'
p3987
S'the'
p3988
tp3989
a(S'prep_with'
p3990
S'continue'
p3991
S'objective'
p3992
tp3993
a(S'prepc_of'
p3994
S'objective'
p3995
S'reaching'
p3996
tp3997
a(S'dobj'
p3998
S'reaching'
p3999
S'agreement'
p4000
tp4001
a(S'advmod'
p4002
S'reaching'
p4003
S'soon'
p4004
tp4005
a(S'det'
p4006
S'program'
p4007
S'the'
p4008
tp4009
a(S'amod'
p4010
S'program'
p4011
S'detailed'
p4012
tp4013
a(S'prep_on'
p4014
S'reaching'
p4015
S'program'
p4016
tp4017
a(S'det'
p4018
S'statement'
p4019
g1774
tp4020
a(S'amod'
p4021
S'statement'
p4022
S'joint'
p4023
tp4024
a(S'dobj'
p4025
S'said'
p4026
S'statement'
p4027
tp4028
a(S'det'
p4029
S'IMF'
p4030
S'the'
p4031
tp4032
a(S'prep_by'
p4033
S'said'
p4034
S'IMF'
p4035
tp4036
a(S'det'
p4037
S'Brazilian'
p4038
S'the'
p4039
tp4040
a(S'conj_and'
p4041
S'IMF'
p4042
S'Brazilian'
p4043
tp4044
a(S'nn'
p4045
S'Ministry'
p4046
S'Finance'
p4047
tp4048
a(S'nsubj'
p4049
S'said'
p4050
S'Ministry'
p4051
tp4052
asg49
(lp4053
(g3970
S'ROOT-0'
p4054
S'said-16'
p4055
tp4056
a(g3974
S'discussions-2'
p4057
S'The-1'
p4058
tp4059
a(g3978
S'continue-3'
p4060
S'discussions-2'
p4061
tp4062
a(g3982
S'said-16'
p4063
S'continue-3'
p4064
tp4065
a(g3986
S'objective-6'
p4066
S'the-5'
p4067
tp4068
a(g3990
S'continue-3'
p4069
S'objective-6'
p4070
tp4071
a(g3994
S'objective-6'
p4072
S'reaching-8'
p4073
tp4074
a(g3998
S'reaching-8'
p4075
S'agreement-9'
p4076
tp4077
a(g4002
S'reaching-8'
p4078
S'soon-10'
p4079
tp4080
a(g4006
S'program-14'
p4081
S'the-12'
p4082
tp4083
a(g4010
S'program-14'
p4084
S'detailed-13'
p4085
tp4086
a(g4014
S'reaching-8'
p4087
S'program-14'
p4088
tp4089
a(g4018
S'statement-19'
p4090
S'a-17'
p4091
tp4092
a(g4021
S'statement-19'
p4093
S'joint-18'
p4094
tp4095
a(g4025
S'said-16'
p4096
S'statement-19'
p4097
tp4098
a(g4029
S'IMF-22'
p4099
S'the-21'
p4100
tp4101
a(g4033
S'said-16'
p4102
S'IMF-22'
p4103
tp4104
a(g4037
S'Brazilian-25'
p4105
S'the-24'
p4106
tp4107
a(g4041
S'IMF-22'
p4108
S'Brazilian-25'
p4109
tp4110
a(g4045
S'Ministry-27'
p4111
S'Finance-26'
p4112
tp4113
a(g4049
S'said-16'
p4114
S'Ministry-27'
p4115
tp4116
asg78
(lp4117
(S'The'
p4118
(dp4119
S'NamedEntityTag'
p4120
g135
sS'CharacterOffsetEnd'
p4121
S'981'
p4122
sS'Lemma'
p4123
S'the'
p4124
sS'PartOfSpeech'
p4125
S'DT'
p4126
sS'CharacterOffsetBegin'
p4127
S'978'
p4128
stp4129
a(S'discussions'
p4130
(dp4131
S'NamedEntityTag'
p4132
g135
sS'CharacterOffsetEnd'
p4133
S'993'
p4134
sS'Lemma'
p4135
S'discussion'
p4136
sS'PartOfSpeech'
p4137
S'NNS'
p4138
sS'CharacterOffsetBegin'
p4139
S'982'
p4140
stp4141
a(S'continue'
p4142
(dp4143
S'NamedEntityTag'
p4144
g135
sS'CharacterOffsetEnd'
p4145
S'1002'
p4146
sS'Lemma'
p4147
S'continue'
p4148
sS'PartOfSpeech'
p4149
S'VBP'
p4150
sS'CharacterOffsetBegin'
p4151
S'994'
p4152
stp4153
a(S'with'
p4154
(dp4155
S'NamedEntityTag'
p4156
g135
sS'CharacterOffsetEnd'
p4157
S'1007'
p4158
sS'Lemma'
p4159
S'with'
p4160
sS'PartOfSpeech'
p4161
S'IN'
p4162
sS'CharacterOffsetBegin'
p4163
S'1003'
p4164
stp4165
a(S'the'
p4166
(dp4167
S'NamedEntityTag'
p4168
g135
sS'CharacterOffsetEnd'
p4169
S'1011'
p4170
sS'Lemma'
p4171
S'the'
p4172
sS'PartOfSpeech'
p4173
S'DT'
p4174
sS'CharacterOffsetBegin'
p4175
S'1008'
p4176
stp4177
a(S'objective'
p4178
(dp4179
S'NamedEntityTag'
p4180
g135
sS'CharacterOffsetEnd'
p4181
S'1021'
p4182
sS'Lemma'
p4183
S'objective'
p4184
sS'PartOfSpeech'
p4185
S'NN'
p4186
sS'CharacterOffsetBegin'
p4187
S'1012'
p4188
stp4189
a(S'of'
p4190
(dp4191
S'NamedEntityTag'
p4192
g135
sS'CharacterOffsetEnd'
p4193
S'1024'
p4194
sS'Lemma'
p4195
S'of'
p4196
sS'PartOfSpeech'
p4197
S'IN'
p4198
sS'CharacterOffsetBegin'
p4199
S'1022'
p4200
stp4201
a(S'reaching'
p4202
(dp4203
S'NamedEntityTag'
p4204
g135
sS'CharacterOffsetEnd'
p4205
S'1033'
p4206
sS'Lemma'
p4207
S'reach'
p4208
sS'PartOfSpeech'
p4209
S'VBG'
p4210
sS'CharacterOffsetBegin'
p4211
S'1025'
p4212
stp4213
a(S'agreement'
p4214
(dp4215
S'NamedEntityTag'
p4216
g135
sS'CharacterOffsetEnd'
p4217
S'1043'
p4218
sS'Lemma'
p4219
S'agreement'
p4220
sS'PartOfSpeech'
p4221
S'NN'
p4222
sS'CharacterOffsetBegin'
p4223
S'1034'
p4224
stp4225
a(S'soon'
p4226
(dp4227
S'NamedEntityTag'
p4228
g135
sS'CharacterOffsetEnd'
p4229
S'1048'
p4230
sS'Lemma'
p4231
S'soon'
p4232
sS'PartOfSpeech'
p4233
S'RB'
p4234
sS'CharacterOffsetBegin'
p4235
S'1044'
p4236
stp4237
a(S'on'
p4238
(dp4239
S'NamedEntityTag'
p4240
g135
sS'CharacterOffsetEnd'
p4241
S'1051'
p4242
sS'Lemma'
p4243
S'on'
p4244
sS'PartOfSpeech'
p4245
S'IN'
p4246
sS'CharacterOffsetBegin'
p4247
S'1049'
p4248
stp4249
a(S'the'
p4250
(dp4251
S'NamedEntityTag'
p4252
g135
sS'CharacterOffsetEnd'
p4253
S'1055'
p4254
sS'Lemma'
p4255
S'the'
p4256
sS'PartOfSpeech'
p4257
S'DT'
p4258
sS'CharacterOffsetBegin'
p4259
S'1052'
p4260
stp4261
a(S'detailed'
p4262
(dp4263
S'NamedEntityTag'
p4264
g135
sS'CharacterOffsetEnd'
p4265
S'1064'
p4266
sS'Lemma'
p4267
S'detailed'
p4268
sS'PartOfSpeech'
p4269
S'JJ'
p4270
sS'CharacterOffsetBegin'
p4271
S'1056'
p4272
stp4273
a(S'program'
p4274
(dp4275
S'NamedEntityTag'
p4276
g135
sS'CharacterOffsetEnd'
p4277
S'1072'
p4278
sS'Lemma'
p4279
S'program'
p4280
sS'PartOfSpeech'
p4281
S'NN'
p4282
sS'CharacterOffsetBegin'
p4283
S'1065'
p4284
stp4285
a(g132
(dp4286
S'NamedEntityTag'
p4287
g135
sS'CharacterOffsetEnd'
p4288
S'1073'
p4289
sS'Lemma'
p4290
g132
sS'PartOfSpeech'
p4291
g132
sS'CharacterOffsetBegin'
p4292
S'1072'
p4293
stp4294
a(S'said'
p4295
(dp4296
S'NamedEntityTag'
p4297
g135
sS'CharacterOffsetEnd'
p4298
S'1078'
p4299
sS'Lemma'
p4300
S'say'
p4301
sS'PartOfSpeech'
p4302
S'VBD'
p4303
sS'CharacterOffsetBegin'
p4304
S'1074'
p4305
stp4306
a(g1774
(dp4307
S'NamedEntityTag'
p4308
g135
sS'CharacterOffsetEnd'
p4309
S'1080'
p4310
sS'Lemma'
p4311
g1774
sS'PartOfSpeech'
p4312
S'DT'
p4313
sS'CharacterOffsetBegin'
p4314
S'1079'
p4315
stp4316
a(S'joint'
p4317
(dp4318
S'NamedEntityTag'
p4319
g135
sS'CharacterOffsetEnd'
p4320
S'1086'
p4321
sS'Lemma'
p4322
S'joint'
p4323
sS'PartOfSpeech'
p4324
S'JJ'
p4325
sS'CharacterOffsetBegin'
p4326
S'1081'
p4327
stp4328
a(S'statement'
p4329
(dp4330
S'NamedEntityTag'
p4331
g135
sS'CharacterOffsetEnd'
p4332
S'1096'
p4333
sS'Lemma'
p4334
S'statement'
p4335
sS'PartOfSpeech'
p4336
S'NN'
p4337
sS'CharacterOffsetBegin'
p4338
S'1087'
p4339
stp4340
a(S'by'
p4341
(dp4342
S'NamedEntityTag'
p4343
g135
sS'CharacterOffsetEnd'
p4344
S'1099'
p4345
sS'Lemma'
p4346
S'by'
p4347
sS'PartOfSpeech'
p4348
S'IN'
p4349
sS'CharacterOffsetBegin'
p4350
S'1097'
p4351
stp4352
a(S'the'
p4353
(dp4354
S'NamedEntityTag'
p4355
g135
sS'CharacterOffsetEnd'
p4356
S'1103'
p4357
sS'Lemma'
p4358
S'the'
p4359
sS'PartOfSpeech'
p4360
S'DT'
p4361
sS'CharacterOffsetBegin'
p4362
S'1100'
p4363
stp4364
a(S'IMF'
p4365
(dp4366
S'NamedEntityTag'
p4367
S'ORGANIZATION'
p4368
sS'CharacterOffsetEnd'
p4369
S'1107'
p4370
sS'Lemma'
p4371
S'IMF'
p4372
sS'PartOfSpeech'
p4373
S'NNP'
p4374
sS'CharacterOffsetBegin'
p4375
S'1104'
p4376
stp4377
a(S'and'
p4378
(dp4379
S'NamedEntityTag'
p4380
g135
sS'CharacterOffsetEnd'
p4381
S'1111'
p4382
sS'Lemma'
p4383
S'and'
p4384
sS'PartOfSpeech'
p4385
S'CC'
p4386
sS'CharacterOffsetBegin'
p4387
S'1108'
p4388
stp4389
a(S'the'
p4390
(dp4391
S'NamedEntityTag'
p4392
g135
sS'CharacterOffsetEnd'
p4393
S'1115'
p4394
sS'Lemma'
p4395
S'the'
p4396
sS'PartOfSpeech'
p4397
S'DT'
p4398
sS'CharacterOffsetBegin'
p4399
S'1112'
p4400
stp4401
a(S'Brazilian'
p4402
(dp4403
S'NamedEntityTag'
p4404
S'MISC'
p4405
sS'CharacterOffsetEnd'
p4406
S'1125'
p4407
sS'Lemma'
p4408
S'brazilian'
p4409
sS'PartOfSpeech'
p4410
S'JJ'
p4411
sS'CharacterOffsetBegin'
p4412
S'1116'
p4413
stp4414
a(S'Finance'
p4415
(dp4416
S'NamedEntityTag'
p4417
S'ORGANIZATION'
p4418
sS'CharacterOffsetEnd'
p4419
S'1133'
p4420
sS'Lemma'
p4421
S'Finance'
p4422
sS'PartOfSpeech'
p4423
S'NNP'
p4424
sS'CharacterOffsetBegin'
p4425
S'1126'
p4426
stp4427
a(S'Ministry'
p4428
(dp4429
S'NamedEntityTag'
p4430
S'ORGANIZATION'
p4431
sS'CharacterOffsetEnd'
p4432
S'1142'
p4433
sS'Lemma'
p4434
S'Ministry'
p4435
sS'PartOfSpeech'
p4436
S'NNP'
p4437
sS'CharacterOffsetBegin'
p4438
S'1134'
p4439
stp4440
a(g422
(dp4441
S'NamedEntityTag'
p4442
g135
sS'CharacterOffsetEnd'
p4443
S'1143'
p4444
sS'Lemma'
p4445
g422
sS'PartOfSpeech'
p4446
g422
sS'CharacterOffsetBegin'
p4447
S'1142'
p4448
stp4449
asa(dp4450
g7
S'(ROOT (S (PP (IN Because) (PP (IN of) (NP (NNP Brazils) (JJ enormous) (NNS deficits)))) (, ,) (NP (NP (DT the) (NN collapse)) (PP (IN of) (NP (VBG emerging) (NNS markets)))) (VP (VBZ has) (VP (VBN hit) (NP (DT the) (NN nation)) (ADVP (RB particularly)) (ADVP (RB hard)) (, ,) (S (VP (VP (VBG draining) (NP (JJ foreign) (NN currency) (NNS reserves))) (CC and) (VP (VBG pushing) (NP (NP (DT the) (NN economy)) (PP (IN toward) (NP (NN recession))))))))) (. .)))'
p4451
sg9
S'Because of Brazils enormous deficits, the collapse of emerging markets has hit the nation particularly hard, draining foreign currency reserves and pushing the economy toward recession.'
p4452
sg11
(lp4453
(S'root'
p4454
S'ROOT'
p4455
S'hit'
p4456
tp4457
a(S'prepc_because_of'
p4458
S'hit'
p4459
S'of'
p4460
tp4461
a(S'nn'
p4462
S'deficits'
p4463
S'Brazils'
p4464
tp4465
a(S'amod'
p4466
S'deficits'
p4467
S'enormous'
p4468
tp4469
a(S'pobj'
p4470
S'hit'
p4471
S'deficits'
p4472
tp4473
a(S'det'
p4474
S'collapse'
p4475
S'the'
p4476
tp4477
a(S'nsubj'
p4478
S'hit'
p4479
S'collapse'
p4480
tp4481
a(S'amod'
p4482
S'markets'
p4483
S'emerging'
p4484
tp4485
a(S'prep_of'
p4486
S'collapse'
p4487
S'markets'
p4488
tp4489
a(S'aux'
p4490
S'hit'
p4491
S'has'
p4492
tp4493
a(S'det'
p4494
S'nation'
p4495
S'the'
p4496
tp4497
a(S'dobj'
p4498
S'hit'
p4499
S'nation'
p4500
tp4501
a(S'advmod'
p4502
S'hit'
p4503
S'particularly'
p4504
tp4505
a(S'advmod'
p4506
S'hit'
p4507
S'hard'
p4508
tp4509
a(S'dep'
p4510
S'hit'
p4511
S'draining'
p4512
tp4513
a(S'amod'
p4514
S'reserves'
p4515
S'foreign'
p4516
tp4517
a(S'nn'
p4518
S'reserves'
p4519
S'currency'
p4520
tp4521
a(S'dobj'
p4522
S'draining'
p4523
S'reserves'
p4524
tp4525
a(S'conj_and'
p4526
S'draining'
p4527
S'pushing'
p4528
tp4529
a(S'det'
p4530
S'economy'
p4531
S'the'
p4532
tp4533
a(S'dobj'
p4534
S'pushing'
p4535
S'economy'
p4536
tp4537
a(S'prep_toward'
p4538
S'economy'
p4539
S'recession'
p4540
tp4541
asg49
(lp4542
(g4454
S'ROOT-0'
p4543
S'hit-13'
p4544
tp4545
a(g4458
S'hit-13'
p4546
S'of-2'
p4547
tp4548
a(g4462
S'deficits-5'
p4549
S'Brazils-3'
p4550
tp4551
a(g4466
S'deficits-5'
p4552
S'enormous-4'
p4553
tp4554
a(g4470
S'hit-13'
p4555
S'deficits-5'
p4556
tp4557
a(g4474
S'collapse-8'
p4558
S'the-7'
p4559
tp4560
a(g4478
S'hit-13'
p4561
S'collapse-8'
p4562
tp4563
a(g4482
S'markets-11'
p4564
S'emerging-10'
p4565
tp4566
a(g4486
S'collapse-8'
p4567
S'markets-11'
p4568
tp4569
a(g4490
S'hit-13'
p4570
S'has-12'
p4571
tp4572
a(g4494
S'nation-15'
p4573
S'the-14'
p4574
tp4575
a(g4498
S'hit-13'
p4576
S'nation-15'
p4577
tp4578
a(g4502
S'hit-13'
p4579
S'particularly-16'
p4580
tp4581
a(g4506
S'hit-13'
p4582
S'hard-17'
p4583
tp4584
a(g4510
S'hit-13'
p4585
S'draining-19'
p4586
tp4587
a(g4514
S'reserves-22'
p4588
S'foreign-20'
p4589
tp4590
a(g4518
S'reserves-22'
p4591
S'currency-21'
p4592
tp4593
a(g4522
S'draining-19'
p4594
S'reserves-22'
p4595
tp4596
a(g4526
S'draining-19'
p4597
S'pushing-24'
p4598
tp4599
a(g4530
S'economy-26'
p4600
S'the-25'
p4601
tp4602
a(g4534
S'pushing-24'
p4603
S'economy-26'
p4604
tp4605
a(g4538
S'economy-26'
p4606
S'recession-28'
p4607
tp4608
asg78
(lp4609
(S'Because'
p4610
(dp4611
S'NamedEntityTag'
p4612
g135
sS'CharacterOffsetEnd'
p4613
S'1151'
p4614
sS'Lemma'
p4615
S'because'
p4616
sS'PartOfSpeech'
p4617
S'IN'
p4618
sS'CharacterOffsetBegin'
p4619
S'1144'
p4620
stp4621
a(S'of'
p4622
(dp4623
S'NamedEntityTag'
p4624
g135
sS'CharacterOffsetEnd'
p4625
S'1154'
p4626
sS'Lemma'
p4627
S'of'
p4628
sS'PartOfSpeech'
p4629
S'IN'
p4630
sS'CharacterOffsetBegin'
p4631
S'1152'
p4632
stp4633
a(S'Brazils'
p4634
(dp4635
S'NamedEntityTag'
p4636
g135
sS'CharacterOffsetEnd'
p4637
S'1162'
p4638
sS'Lemma'
p4639
S'Brazils'
p4640
sS'PartOfSpeech'
p4641
S'NNP'
p4642
sS'CharacterOffsetBegin'
p4643
S'1155'
p4644
stp4645
a(S'enormous'
p4646
(dp4647
S'NamedEntityTag'
p4648
g135
sS'CharacterOffsetEnd'
p4649
S'1171'
p4650
sS'Lemma'
p4651
S'enormous'
p4652
sS'PartOfSpeech'
p4653
S'JJ'
p4654
sS'CharacterOffsetBegin'
p4655
S'1163'
p4656
stp4657
a(S'deficits'
p4658
(dp4659
S'NamedEntityTag'
p4660
g135
sS'CharacterOffsetEnd'
p4661
S'1180'
p4662
sS'Lemma'
p4663
S'deficit'
p4664
sS'PartOfSpeech'
p4665
S'NNS'
p4666
sS'CharacterOffsetBegin'
p4667
S'1172'
p4668
stp4669
a(g132
(dp4670
S'NamedEntityTag'
p4671
g135
sS'CharacterOffsetEnd'
p4672
S'1181'
p4673
sS'Lemma'
p4674
g132
sS'PartOfSpeech'
p4675
g132
sS'CharacterOffsetBegin'
p4676
S'1180'
p4677
stp4678
a(S'the'
p4679
(dp4680
S'NamedEntityTag'
p4681
g135
sS'CharacterOffsetEnd'
p4682
S'1185'
p4683
sS'Lemma'
p4684
S'the'
p4685
sS'PartOfSpeech'
p4686
S'DT'
p4687
sS'CharacterOffsetBegin'
p4688
S'1182'
p4689
stp4690
a(S'collapse'
p4691
(dp4692
S'NamedEntityTag'
p4693
g135
sS'CharacterOffsetEnd'
p4694
S'1194'
p4695
sS'Lemma'
p4696
S'collapse'
p4697
sS'PartOfSpeech'
p4698
S'NN'
p4699
sS'CharacterOffsetBegin'
p4700
S'1186'
p4701
stp4702
a(S'of'
p4703
(dp4704
S'NamedEntityTag'
p4705
g135
sS'CharacterOffsetEnd'
p4706
S'1197'
p4707
sS'Lemma'
p4708
S'of'
p4709
sS'PartOfSpeech'
p4710
S'IN'
p4711
sS'CharacterOffsetBegin'
p4712
S'1195'
p4713
stp4714
a(S'emerging'
p4715
(dp4716
S'NamedEntityTag'
p4717
g135
sS'CharacterOffsetEnd'
p4718
S'1206'
p4719
sS'Lemma'
p4720
S'emerge'
p4721
sS'PartOfSpeech'
p4722
S'VBG'
p4723
sS'CharacterOffsetBegin'
p4724
S'1198'
p4725
stp4726
a(S'markets'
p4727
(dp4728
S'NamedEntityTag'
p4729
g135
sS'CharacterOffsetEnd'
p4730
S'1214'
p4731
sS'Lemma'
p4732
S'market'
p4733
sS'PartOfSpeech'
p4734
S'NNS'
p4735
sS'CharacterOffsetBegin'
p4736
S'1207'
p4737
stp4738
a(S'has'
p4739
(dp4740
S'NamedEntityTag'
p4741
g135
sS'CharacterOffsetEnd'
p4742
S'1218'
p4743
sS'Lemma'
p4744
S'have'
p4745
sS'PartOfSpeech'
p4746
S'VBZ'
p4747
sS'CharacterOffsetBegin'
p4748
S'1215'
p4749
stp4750
a(S'hit'
p4751
(dp4752
S'NamedEntityTag'
p4753
g135
sS'CharacterOffsetEnd'
p4754
S'1222'
p4755
sS'Lemma'
p4756
S'hit'
p4757
sS'PartOfSpeech'
p4758
S'VBN'
p4759
sS'CharacterOffsetBegin'
p4760
S'1219'
p4761
stp4762
a(S'the'
p4763
(dp4764
S'NamedEntityTag'
p4765
g135
sS'CharacterOffsetEnd'
p4766
S'1226'
p4767
sS'Lemma'
p4768
S'the'
p4769
sS'PartOfSpeech'
p4770
S'DT'
p4771
sS'CharacterOffsetBegin'
p4772
S'1223'
p4773
stp4774
a(S'nation'
p4775
(dp4776
S'NamedEntityTag'
p4777
g135
sS'CharacterOffsetEnd'
p4778
S'1233'
p4779
sS'Lemma'
p4780
S'nation'
p4781
sS'PartOfSpeech'
p4782
S'NN'
p4783
sS'CharacterOffsetBegin'
p4784
S'1227'
p4785
stp4786
a(S'particularly'
p4787
(dp4788
S'NamedEntityTag'
p4789
g135
sS'CharacterOffsetEnd'
p4790
S'1246'
p4791
sS'Lemma'
p4792
S'particularly'
p4793
sS'PartOfSpeech'
p4794
S'RB'
p4795
sS'CharacterOffsetBegin'
p4796
S'1234'
p4797
stp4798
a(S'hard'
p4799
(dp4800
S'NamedEntityTag'
p4801
g135
sS'CharacterOffsetEnd'
p4802
S'1251'
p4803
sS'Lemma'
p4804
S'hard'
p4805
sS'PartOfSpeech'
p4806
S'RB'
p4807
sS'CharacterOffsetBegin'
p4808
S'1247'
p4809
stp4810
a(g132
(dp4811
S'NamedEntityTag'
p4812
g135
sS'CharacterOffsetEnd'
p4813
S'1252'
p4814
sS'Lemma'
p4815
g132
sS'PartOfSpeech'
p4816
g132
sS'CharacterOffsetBegin'
p4817
S'1251'
p4818
stp4819
a(S'draining'
p4820
(dp4821
S'NamedEntityTag'
p4822
g135
sS'CharacterOffsetEnd'
p4823
S'1261'
p4824
sS'Lemma'
p4825
S'drain'
p4826
sS'PartOfSpeech'
p4827
S'VBG'
p4828
sS'CharacterOffsetBegin'
p4829
S'1253'
p4830
stp4831
a(S'foreign'
p4832
(dp4833
S'NamedEntityTag'
p4834
g135
sS'CharacterOffsetEnd'
p4835
S'1269'
p4836
sS'Lemma'
p4837
S'foreign'
p4838
sS'PartOfSpeech'
p4839
S'JJ'
p4840
sS'CharacterOffsetBegin'
p4841
S'1262'
p4842
stp4843
a(S'currency'
p4844
(dp4845
S'NamedEntityTag'
p4846
g135
sS'CharacterOffsetEnd'
p4847
S'1278'
p4848
sS'Lemma'
p4849
S'currency'
p4850
sS'PartOfSpeech'
p4851
S'NN'
p4852
sS'CharacterOffsetBegin'
p4853
S'1270'
p4854
stp4855
a(S'reserves'
p4856
(dp4857
S'NamedEntityTag'
p4858
g135
sS'CharacterOffsetEnd'
p4859
S'1287'
p4860
sS'Lemma'
p4861
S'reserve'
p4862
sS'PartOfSpeech'
p4863
S'NNS'
p4864
sS'CharacterOffsetBegin'
p4865
S'1279'
p4866
stp4867
a(S'and'
p4868
(dp4869
S'NamedEntityTag'
p4870
g135
sS'CharacterOffsetEnd'
p4871
S'1291'
p4872
sS'Lemma'
p4873
S'and'
p4874
sS'PartOfSpeech'
p4875
S'CC'
p4876
sS'CharacterOffsetBegin'
p4877
S'1288'
p4878
stp4879
a(S'pushing'
p4880
(dp4881
S'NamedEntityTag'
p4882
g135
sS'CharacterOffsetEnd'
p4883
S'1299'
p4884
sS'Lemma'
p4885
S'push'
p4886
sS'PartOfSpeech'
p4887
S'VBG'
p4888
sS'CharacterOffsetBegin'
p4889
S'1292'
p4890
stp4891
a(S'the'
p4892
(dp4893
S'NamedEntityTag'
p4894
g135
sS'CharacterOffsetEnd'
p4895
S'1303'
p4896
sS'Lemma'
p4897
S'the'
p4898
sS'PartOfSpeech'
p4899
S'DT'
p4900
sS'CharacterOffsetBegin'
p4901
S'1300'
p4902
stp4903
a(S'economy'
p4904
(dp4905
S'NamedEntityTag'
p4906
g135
sS'CharacterOffsetEnd'
p4907
S'1311'
p4908
sS'Lemma'
p4909
S'economy'
p4910
sS'PartOfSpeech'
p4911
S'NN'
p4912
sS'CharacterOffsetBegin'
p4913
S'1304'
p4914
stp4915
a(S'toward'
p4916
(dp4917
S'NamedEntityTag'
p4918
g135
sS'CharacterOffsetEnd'
p4919
S'1318'
p4920
sS'Lemma'
p4921
S'toward'
p4922
sS'PartOfSpeech'
p4923
S'IN'
p4924
sS'CharacterOffsetBegin'
p4925
S'1312'
p4926
stp4927
a(S'recession'
p4928
(dp4929
S'NamedEntityTag'
p4930
g135
sS'CharacterOffsetEnd'
p4931
S'1328'
p4932
sS'Lemma'
p4933
S'recession'
p4934
sS'PartOfSpeech'
p4935
S'NN'
p4936
sS'CharacterOffsetBegin'
p4937
S'1319'
p4938
stp4939
a(g422
(dp4940
S'NamedEntityTag'
p4941
g135
sS'CharacterOffsetEnd'
p4942
S'1329'
p4943
sS'Lemma'
p4944
g422
sS'PartOfSpeech'
p4945
g422
sS'CharacterOffsetBegin'
p4946
S'1328'
p4947
stp4948
asa(dp4949
g7
S'(ROOT (S (NP (NP (NNP Finance) (NNS officials)) (PP (PP (IN in) (NP (NNP Washington))) (CC and) (PP (IN around) (NP (DT the) (NN world))))) (VP (NN fear) (SBAR (IN that) (S (NP (NP (DT a) (NN collapse)) (PP (IN of) (NP (NNP Brazil)))) (, ,) (PP (IN because) (PP (IN of) (NP (NP (PRP$ its) (NN size) (CC and) (NNS links)) (PP (TO to) (NP (JJ other) (NNS economies)))))) (, ,) (VP (MD would) (VP (VB worsen) (NP (JJ financial) (NN instability)) (PP (IN throughout) (NP (DT the) (NN hemisphere)))))))) (. .)))'
p4950
sg9
S'Finance officials in Washington and around the world fear that a collapse of Brazil, because of its size and links to other economies, would worsen financial instability throughout the hemisphere.'
p4951
sg11
(lp4952
(S'root'
p4953
S'ROOT'
p4954
S'fear'
p4955
tp4956
a(S'nn'
p4957
S'officials'
p4958
S'Finance'
p4959
tp4960
a(S'conj_and'
p4961
S'officials'
p4962
S'officials'
p4963
tp4964
a(S'nsubj'
p4965
S'fear'
p4966
S'officials'
p4967
tp4968
a(S'prep_in'
p4969
S'officials'
p4970
S'Washington'
p4971
tp4972
a(S'det'
p4973
S'world'
p4974
S'the'
p4975
tp4976
a(S'prep_around'
p4977
S'officials'
p4978
S'world'
p4979
tp4980
a(S'mark'
p4981
S'worsen'
p4982
S'that'
p4983
tp4984
a(S'det'
p4985
S'collapse'
p4986
g1774
tp4987
a(S'nsubj'
p4988
S'worsen'
p4989
S'collapse'
p4990
tp4991
a(S'prep_of'
p4992
S'collapse'
p4993
S'Brazil'
p4994
tp4995
a(S'prepc_because_of'
p4996
S'worsen'
p4997
S'of'
p4998
tp4999
a(S'poss'
p5000
S'size'
p5001
S'its'
p5002
tp5003
a(S'pobj'
p5004
S'worsen'
p5005
S'size'
p5006
tp5007
a(S'conj_and'
p5008
S'size'
p5009
S'links'
p5010
tp5011
a(S'amod'
p5012
S'economies'
p5013
S'other'
p5014
tp5015
a(S'prep_to'
p5016
S'size'
p5017
S'economies'
p5018
tp5019
a(S'aux'
p5020
S'worsen'
p5021
S'would'
p5022
tp5023
a(S'ccomp'
p5024
S'fear'
p5025
S'worsen'
p5026
tp5027
a(S'amod'
p5028
S'instability'
p5029
S'financial'
p5030
tp5031
a(S'dobj'
p5032
S'worsen'
p5033
S'instability'
p5034
tp5035
a(S'det'
p5036
S'hemisphere'
p5037
S'the'
p5038
tp5039
a(S'prep_throughout'
p5040
S'worsen'
p5041
S'hemisphere'
p5042
tp5043
asg49
(lp5044
(g4953
S'ROOT-0'
p5045
S'fear-9'
p5046
tp5047
a(g4957
S'officials-2'
p5048
S'Finance-1'
p5049
tp5050
a(g4961
S'officials-2'
p5051
S'officials-2'
p5052
tp5053
a(g4965
S'fear-9'
p5054
S'officials-2'
p5055
tp5056
a(g4969
S'officials-2'
p5057
S'Washington-4'
p5058
tp5059
a(g4973
S'world-8'
p5060
S'the-7'
p5061
tp5062
a(g4977
S'officials-2'
p5063
S'world-8'
p5064
tp5065
a(g4981
S'worsen-27'
p5066
S'that-10'
p5067
tp5068
a(g4985
S'collapse-12'
p5069
S'a-11'
p5070
tp5071
a(g4988
S'worsen-27'
p5072
S'collapse-12'
p5073
tp5074
a(g4992
S'collapse-12'
p5075
S'Brazil-14'
p5076
tp5077
a(g4996
S'worsen-27'
p5078
S'of-17'
p5079
tp5080
a(g5000
S'size-19'
p5081
S'its-18'
p5082
tp5083
a(g5004
S'worsen-27'
p5084
S'size-19'
p5085
tp5086
a(g5008
S'size-19'
p5087
S'links-21'
p5088
tp5089
a(g5012
S'economies-24'
p5090
S'other-23'
p5091
tp5092
a(g5016
S'size-19'
p5093
S'economies-24'
p5094
tp5095
a(g5020
S'worsen-27'
p5096
S'would-26'
p5097
tp5098
a(g5024
S'fear-9'
p5099
S'worsen-27'
p5100
tp5101
a(g5028
S'instability-29'
p5102
S'financial-28'
p5103
tp5104
a(g5032
S'worsen-27'
p5105
S'instability-29'
p5106
tp5107
a(g5036
S'hemisphere-32'
p5108
S'the-31'
p5109
tp5110
a(g5040
S'worsen-27'
p5111
S'hemisphere-32'
p5112
tp5113
asg78
(lp5114
(S'Finance'
p5115
(dp5116
S'NamedEntityTag'
p5117
g135
sS'CharacterOffsetEnd'
p5118
S'1337'
p5119
sS'Lemma'
p5120
S'Finance'
p5121
sS'PartOfSpeech'
p5122
S'NNP'
p5123
sS'CharacterOffsetBegin'
p5124
S'1330'
p5125
stp5126
a(S'officials'
p5127
(dp5128
S'NamedEntityTag'
p5129
g135
sS'CharacterOffsetEnd'
p5130
S'1347'
p5131
sS'Lemma'
p5132
S'official'
p5133
sS'PartOfSpeech'
p5134
S'NNS'
p5135
sS'CharacterOffsetBegin'
p5136
S'1338'
p5137
stp5138
a(S'in'
p5139
(dp5140
S'NamedEntityTag'
p5141
g135
sS'CharacterOffsetEnd'
p5142
S'1350'
p5143
sS'Lemma'
p5144
S'in'
p5145
sS'PartOfSpeech'
p5146
S'IN'
p5147
sS'CharacterOffsetBegin'
p5148
S'1348'
p5149
stp5150
a(S'Washington'
p5151
(dp5152
S'NamedEntityTag'
p5153
S'LOCATION'
p5154
sS'CharacterOffsetEnd'
p5155
S'1361'
p5156
sS'Lemma'
p5157
S'Washington'
p5158
sS'PartOfSpeech'
p5159
S'NNP'
p5160
sS'CharacterOffsetBegin'
p5161
S'1351'
p5162
stp5163
a(S'and'
p5164
(dp5165
S'NamedEntityTag'
p5166
g135
sS'CharacterOffsetEnd'
p5167
S'1365'
p5168
sS'Lemma'
p5169
S'and'
p5170
sS'PartOfSpeech'
p5171
S'CC'
p5172
sS'CharacterOffsetBegin'
p5173
S'1362'
p5174
stp5175
a(S'around'
p5176
(dp5177
S'NamedEntityTag'
p5178
g135
sS'CharacterOffsetEnd'
p5179
S'1372'
p5180
sS'Lemma'
p5181
S'around'
p5182
sS'PartOfSpeech'
p5183
S'IN'
p5184
sS'CharacterOffsetBegin'
p5185
S'1366'
p5186
stp5187
a(S'the'
p5188
(dp5189
S'NamedEntityTag'
p5190
g135
sS'CharacterOffsetEnd'
p5191
S'1376'
p5192
sS'Lemma'
p5193
S'the'
p5194
sS'PartOfSpeech'
p5195
S'DT'
p5196
sS'CharacterOffsetBegin'
p5197
S'1373'
p5198
stp5199
a(S'world'
p5200
(dp5201
S'NamedEntityTag'
p5202
g135
sS'CharacterOffsetEnd'
p5203
S'1382'
p5204
sS'Lemma'
p5205
S'world'
p5206
sS'PartOfSpeech'
p5207
S'NN'
p5208
sS'CharacterOffsetBegin'
p5209
S'1377'
p5210
stp5211
a(S'fear'
p5212
(dp5213
S'NamedEntityTag'
p5214
g135
sS'CharacterOffsetEnd'
p5215
S'1387'
p5216
sS'Lemma'
p5217
S'fear'
p5218
sS'PartOfSpeech'
p5219
S'NN'
p5220
sS'CharacterOffsetBegin'
p5221
S'1383'
p5222
stp5223
a(S'that'
p5224
(dp5225
S'NamedEntityTag'
p5226
g135
sS'CharacterOffsetEnd'
p5227
S'1392'
p5228
sS'Lemma'
p5229
S'that'
p5230
sS'PartOfSpeech'
p5231
S'IN'
p5232
sS'CharacterOffsetBegin'
p5233
S'1388'
p5234
stp5235
a(g1774
(dp5236
S'NamedEntityTag'
p5237
g135
sS'CharacterOffsetEnd'
p5238
S'1394'
p5239
sS'Lemma'
p5240
g1774
sS'PartOfSpeech'
p5241
S'DT'
p5242
sS'CharacterOffsetBegin'
p5243
S'1393'
p5244
stp5245
a(S'collapse'
p5246
(dp5247
S'NamedEntityTag'
p5248
g135
sS'CharacterOffsetEnd'
p5249
S'1403'
p5250
sS'Lemma'
p5251
S'collapse'
p5252
sS'PartOfSpeech'
p5253
S'NN'
p5254
sS'CharacterOffsetBegin'
p5255
S'1395'
p5256
stp5257
a(S'of'
p5258
(dp5259
S'NamedEntityTag'
p5260
g135
sS'CharacterOffsetEnd'
p5261
S'1406'
p5262
sS'Lemma'
p5263
S'of'
p5264
sS'PartOfSpeech'
p5265
S'IN'
p5266
sS'CharacterOffsetBegin'
p5267
S'1404'
p5268
stp5269
a(S'Brazil'
p5270
(dp5271
S'NamedEntityTag'
p5272
S'LOCATION'
p5273
sS'CharacterOffsetEnd'
p5274
S'1413'
p5275
sS'Lemma'
p5276
S'Brazil'
p5277
sS'PartOfSpeech'
p5278
S'NNP'
p5279
sS'CharacterOffsetBegin'
p5280
S'1407'
p5281
stp5282
a(g132
(dp5283
S'NamedEntityTag'
p5284
g135
sS'CharacterOffsetEnd'
p5285
S'1414'
p5286
sS'Lemma'
p5287
g132
sS'PartOfSpeech'
p5288
g132
sS'CharacterOffsetBegin'
p5289
S'1413'
p5290
stp5291
a(S'because'
p5292
(dp5293
S'NamedEntityTag'
p5294
g135
sS'CharacterOffsetEnd'
p5295
S'1422'
p5296
sS'Lemma'
p5297
S'because'
p5298
sS'PartOfSpeech'
p5299
S'IN'
p5300
sS'CharacterOffsetBegin'
p5301
S'1415'
p5302
stp5303
a(S'of'
p5304
(dp5305
S'NamedEntityTag'
p5306
g135
sS'CharacterOffsetEnd'
p5307
S'1425'
p5308
sS'Lemma'
p5309
S'of'
p5310
sS'PartOfSpeech'
p5311
S'IN'
p5312
sS'CharacterOffsetBegin'
p5313
S'1423'
p5314
stp5315
a(S'its'
p5316
(dp5317
S'NamedEntityTag'
p5318
g135
sS'CharacterOffsetEnd'
p5319
S'1429'
p5320
sS'Lemma'
p5321
S'its'
p5322
sS'PartOfSpeech'
p5323
S'PRP$'
p5324
sS'CharacterOffsetBegin'
p5325
S'1426'
p5326
stp5327
a(S'size'
p5328
(dp5329
S'NamedEntityTag'
p5330
g135
sS'CharacterOffsetEnd'
p5331
S'1434'
p5332
sS'Lemma'
p5333
S'size'
p5334
sS'PartOfSpeech'
p5335
S'NN'
p5336
sS'CharacterOffsetBegin'
p5337
S'1430'
p5338
stp5339
a(S'and'
p5340
(dp5341
S'NamedEntityTag'
p5342
g135
sS'CharacterOffsetEnd'
p5343
S'1438'
p5344
sS'Lemma'
p5345
S'and'
p5346
sS'PartOfSpeech'
p5347
S'CC'
p5348
sS'CharacterOffsetBegin'
p5349
S'1435'
p5350
stp5351
a(S'links'
p5352
(dp5353
S'NamedEntityTag'
p5354
g135
sS'CharacterOffsetEnd'
p5355
S'1444'
p5356
sS'Lemma'
p5357
S'link'
p5358
sS'PartOfSpeech'
p5359
S'NNS'
p5360
sS'CharacterOffsetBegin'
p5361
S'1439'
p5362
stp5363
a(S'to'
p5364
(dp5365
S'NamedEntityTag'
p5366
g135
sS'CharacterOffsetEnd'
p5367
S'1447'
p5368
sS'Lemma'
p5369
S'to'
p5370
sS'PartOfSpeech'
p5371
S'TO'
p5372
sS'CharacterOffsetBegin'
p5373
S'1445'
p5374
stp5375
a(S'other'
p5376
(dp5377
S'NamedEntityTag'
p5378
g135
sS'CharacterOffsetEnd'
p5379
S'1453'
p5380
sS'Lemma'
p5381
S'other'
p5382
sS'PartOfSpeech'
p5383
S'JJ'
p5384
sS'CharacterOffsetBegin'
p5385
S'1448'
p5386
stp5387
a(S'economies'
p5388
(dp5389
S'NamedEntityTag'
p5390
g135
sS'CharacterOffsetEnd'
p5391
S'1463'
p5392
sS'Lemma'
p5393
S'economy'
p5394
sS'PartOfSpeech'
p5395
S'NNS'
p5396
sS'CharacterOffsetBegin'
p5397
S'1454'
p5398
stp5399
a(g132
(dp5400
S'NamedEntityTag'
p5401
g135
sS'CharacterOffsetEnd'
p5402
S'1464'
p5403
sS'Lemma'
p5404
g132
sS'PartOfSpeech'
p5405
g132
sS'CharacterOffsetBegin'
p5406
S'1463'
p5407
stp5408
a(S'would'
p5409
(dp5410
S'NamedEntityTag'
p5411
g135
sS'CharacterOffsetEnd'
p5412
S'1470'
p5413
sS'Lemma'
p5414
S'would'
p5415
sS'PartOfSpeech'
p5416
S'MD'
p5417
sS'CharacterOffsetBegin'
p5418
S'1465'
p5419
stp5420
a(S'worsen'
p5421
(dp5422
S'NamedEntityTag'
p5423
g135
sS'CharacterOffsetEnd'
p5424
S'1477'
p5425
sS'Lemma'
p5426
S'worsen'
p5427
sS'PartOfSpeech'
p5428
S'VB'
p5429
sS'CharacterOffsetBegin'
p5430
S'1471'
p5431
stp5432
a(S'financial'
p5433
(dp5434
S'NamedEntityTag'
p5435
g135
sS'CharacterOffsetEnd'
p5436
S'1487'
p5437
sS'Lemma'
p5438
S'financial'
p5439
sS'PartOfSpeech'
p5440
S'JJ'
p5441
sS'CharacterOffsetBegin'
p5442
S'1478'
p5443
stp5444
a(S'instability'
p5445
(dp5446
S'NamedEntityTag'
p5447
g135
sS'CharacterOffsetEnd'
p5448
S'1499'
p5449
sS'Lemma'
p5450
S'instability'
p5451
sS'PartOfSpeech'
p5452
S'NN'
p5453
sS'CharacterOffsetBegin'
p5454
S'1488'
p5455
stp5456
a(S'throughout'
p5457
(dp5458
S'NamedEntityTag'
p5459
g135
sS'CharacterOffsetEnd'
p5460
S'1510'
p5461
sS'Lemma'
p5462
S'throughout'
p5463
sS'PartOfSpeech'
p5464
S'IN'
p5465
sS'CharacterOffsetBegin'
p5466
S'1500'
p5467
stp5468
a(S'the'
p5469
(dp5470
S'NamedEntityTag'
p5471
g135
sS'CharacterOffsetEnd'
p5472
S'1514'
p5473
sS'Lemma'
p5474
S'the'
p5475
sS'PartOfSpeech'
p5476
S'DT'
p5477
sS'CharacterOffsetBegin'
p5478
S'1511'
p5479
stp5480
a(S'hemisphere'
p5481
(dp5482
S'NamedEntityTag'
p5483
g135
sS'CharacterOffsetEnd'
p5484
S'1525'
p5485
sS'Lemma'
p5486
S'hemisphere'
p5487
sS'PartOfSpeech'
p5488
S'NN'
p5489
sS'CharacterOffsetBegin'
p5490
S'1515'
p5491
stp5492
a(g422
(dp5493
S'NamedEntityTag'
p5494
g135
sS'CharacterOffsetEnd'
p5495
S'1526'
p5496
sS'Lemma'
p5497
g422
sS'PartOfSpeech'
p5498
g422
sS'CharacterOffsetBegin'
p5499
S'1525'
p5500
stp5501
asa(dp5502
g7
S'(ROOT (S (PP (IN With) (NP (QP (CD 160) (CD million)) (NNS people))) (, ,) (NP (NNP Brazil)) (VP (VP (VBZ represents) (S (NP (DT the) (NNS worlds)) (NP (JJ ninth-largest) (NN economy)))) (CC and) (VP (VBZ is) (NP (NP (DT the) (JJ financial) (NN engine)) (PP (IN of) (NP (NNP Latin) (NNP America)))))) (. .)))'
p5503
sg9
S'With 160 million people, Brazil represents the worlds ninth-largest economy and is the financial engine of Latin America.'
p5504
sg11
(lp5505
(S'root'
p5506
S'ROOT'
p5507
S'represents'
p5508
tp5509
a(S'number'
p5510
S'million'
p5511
S'160'
p5512
tp5513
a(S'num'
p5514
S'people'
p5515
S'million'
p5516
tp5517
a(S'prep_with'
p5518
S'represents'
p5519
S'people'
p5520
tp5521
a(S'nsubj'
p5522
S'represents'
p5523
S'Brazil'
p5524
tp5525
a(S'det'
p5526
S'worlds'
p5527
S'the'
p5528
tp5529
a(S'nsubj'
p5530
S'economy'
p5531
S'worlds'
p5532
tp5533
a(S'amod'
p5534
S'economy'
p5535
S'ninth-largest'
p5536
tp5537
a(S'xcomp'
p5538
S'represents'
p5539
S'economy'
p5540
tp5541
a(S'cop'
p5542
S'engine'
p5543
S'is'
p5544
tp5545
a(S'det'
p5546
S'engine'
p5547
S'the'
p5548
tp5549
a(S'amod'
p5550
S'engine'
p5551
S'financial'
p5552
tp5553
a(S'conj_and'
p5554
S'represents'
p5555
S'engine'
p5556
tp5557
a(S'nn'
p5558
S'America'
p5559
S'Latin'
p5560
tp5561
a(S'prep_of'
p5562
S'engine'
p5563
S'America'
p5564
tp5565
asg49
(lp5566
(g5506
S'ROOT-0'
p5567
S'represents-7'
p5568
tp5569
a(g5510
S'million-3'
p5570
S'160-2'
p5571
tp5572
a(g5514
S'people-4'
p5573
S'million-3'
p5574
tp5575
a(g5518
S'represents-7'
p5576
S'people-4'
p5577
tp5578
a(g5522
S'represents-7'
p5579
S'Brazil-6'
p5580
tp5581
a(g5526
S'worlds-9'
p5582
S'the-8'
p5583
tp5584
a(g5530
S'economy-11'
p5585
S'worlds-9'
p5586
tp5587
a(g5534
S'economy-11'
p5588
S'ninth-largest-10'
p5589
tp5590
a(g5538
S'represents-7'
p5591
S'economy-11'
p5592
tp5593
a(g5542
S'engine-16'
p5594
S'is-13'
p5595
tp5596
a(g5546
S'engine-16'
p5597
S'the-14'
p5598
tp5599
a(g5550
S'engine-16'
p5600
S'financial-15'
p5601
tp5602
a(g5554
S'represents-7'
p5603
S'engine-16'
p5604
tp5605
a(g5558
S'America-19'
p5606
S'Latin-18'
p5607
tp5608
a(g5562
S'engine-16'
p5609
S'America-19'
p5610
tp5611
asg78
(lp5612
(S'With'
p5613
(dp5614
S'NamedEntityTag'
p5615
g135
sS'CharacterOffsetEnd'
p5616
S'1531'
p5617
sS'Lemma'
p5618
S'with'
p5619
sS'PartOfSpeech'
p5620
S'IN'
p5621
sS'CharacterOffsetBegin'
p5622
S'1527'
p5623
stp5624
a(S'160'
p5625
(dp5626
S'NormalizedNamedEntityTag'
p5627
S'1.6E8'
p5628
sS'Lemma'
p5629
S'160'
p5630
sS'CharacterOffsetEnd'
p5631
S'1535'
p5632
sS'PartOfSpeech'
p5633
S'CD'
p5634
sS'CharacterOffsetBegin'
p5635
S'1532'
p5636
sS'NamedEntityTag'
p5637
S'NUMBER'
p5638
stp5639
a(S'million'
p5640
(dp5641
S'NormalizedNamedEntityTag'
p5642
S'1.6E8'
p5643
sS'Lemma'
p5644
S'million'
p5645
sS'CharacterOffsetEnd'
p5646
S'1543'
p5647
sS'PartOfSpeech'
p5648
S'CD'
p5649
sS'CharacterOffsetBegin'
p5650
S'1536'
p5651
sS'NamedEntityTag'
p5652
S'NUMBER'
p5653
stp5654
a(S'people'
p5655
(dp5656
S'NamedEntityTag'
p5657
g135
sS'CharacterOffsetEnd'
p5658
S'1550'
p5659
sS'Lemma'
p5660
S'people'
p5661
sS'PartOfSpeech'
p5662
S'NNS'
p5663
sS'CharacterOffsetBegin'
p5664
S'1544'
p5665
stp5666
a(g132
(dp5667
S'NamedEntityTag'
p5668
g135
sS'CharacterOffsetEnd'
p5669
S'1551'
p5670
sS'Lemma'
p5671
g132
sS'PartOfSpeech'
p5672
g132
sS'CharacterOffsetBegin'
p5673
S'1550'
p5674
stp5675
a(S'Brazil'
p5676
(dp5677
S'NamedEntityTag'
p5678
S'LOCATION'
p5679
sS'CharacterOffsetEnd'
p5680
S'1558'
p5681
sS'Lemma'
p5682
S'Brazil'
p5683
sS'PartOfSpeech'
p5684
S'NNP'
p5685
sS'CharacterOffsetBegin'
p5686
S'1552'
p5687
stp5688
a(S'represents'
p5689
(dp5690
S'NamedEntityTag'
p5691
g135
sS'CharacterOffsetEnd'
p5692
S'1569'
p5693
sS'Lemma'
p5694
S'represent'
p5695
sS'PartOfSpeech'
p5696
S'VBZ'
p5697
sS'CharacterOffsetBegin'
p5698
S'1559'
p5699
stp5700
a(S'the'
p5701
(dp5702
S'NamedEntityTag'
p5703
g135
sS'CharacterOffsetEnd'
p5704
S'1573'
p5705
sS'Lemma'
p5706
S'the'
p5707
sS'PartOfSpeech'
p5708
S'DT'
p5709
sS'CharacterOffsetBegin'
p5710
S'1570'
p5711
stp5712
a(S'worlds'
p5713
(dp5714
S'NamedEntityTag'
p5715
g135
sS'CharacterOffsetEnd'
p5716
S'1580'
p5717
sS'Lemma'
p5718
S'world'
p5719
sS'PartOfSpeech'
p5720
S'NNS'
p5721
sS'CharacterOffsetBegin'
p5722
S'1574'
p5723
stp5724
a(S'ninth-largest'
p5725
(dp5726
S'NamedEntityTag'
p5727
g135
sS'CharacterOffsetEnd'
p5728
S'1594'
p5729
sS'Lemma'
p5730
S'ninth-largest'
p5731
sS'PartOfSpeech'
p5732
S'JJ'
p5733
sS'CharacterOffsetBegin'
p5734
S'1581'
p5735
stp5736
a(S'economy'
p5737
(dp5738
S'NamedEntityTag'
p5739
g135
sS'CharacterOffsetEnd'
p5740
S'1602'
p5741
sS'Lemma'
p5742
S'economy'
p5743
sS'PartOfSpeech'
p5744
S'NN'
p5745
sS'CharacterOffsetBegin'
p5746
S'1595'
p5747
stp5748
a(S'and'
p5749
(dp5750
S'NamedEntityTag'
p5751
g135
sS'CharacterOffsetEnd'
p5752
S'1606'
p5753
sS'Lemma'
p5754
S'and'
p5755
sS'PartOfSpeech'
p5756
S'CC'
p5757
sS'CharacterOffsetBegin'
p5758
S'1603'
p5759
stp5760
a(S'is'
p5761
(dp5762
S'NamedEntityTag'
p5763
g135
sS'CharacterOffsetEnd'
p5764
S'1609'
p5765
sS'Lemma'
p5766
S'be'
p5767
sS'PartOfSpeech'
p5768
S'VBZ'
p5769
sS'CharacterOffsetBegin'
p5770
S'1607'
p5771
stp5772
a(S'the'
p5773
(dp5774
S'NamedEntityTag'
p5775
g135
sS'CharacterOffsetEnd'
p5776
S'1613'
p5777
sS'Lemma'
p5778
S'the'
p5779
sS'PartOfSpeech'
p5780
S'DT'
p5781
sS'CharacterOffsetBegin'
p5782
S'1610'
p5783
stp5784
a(S'financial'
p5785
(dp5786
S'NamedEntityTag'
p5787
g135
sS'CharacterOffsetEnd'
p5788
S'1623'
p5789
sS'Lemma'
p5790
S'financial'
p5791
sS'PartOfSpeech'
p5792
S'JJ'
p5793
sS'CharacterOffsetBegin'
p5794
S'1614'
p5795
stp5796
a(S'engine'
p5797
(dp5798
S'NamedEntityTag'
p5799
g135
sS'CharacterOffsetEnd'
p5800
S'1630'
p5801
sS'Lemma'
p5802
S'engine'
p5803
sS'PartOfSpeech'
p5804
S'NN'
p5805
sS'CharacterOffsetBegin'
p5806
S'1624'
p5807
stp5808
a(S'of'
p5809
(dp5810
S'NamedEntityTag'
p5811
g135
sS'CharacterOffsetEnd'
p5812
S'1633'
p5813
sS'Lemma'
p5814
S'of'
p5815
sS'PartOfSpeech'
p5816
S'IN'
p5817
sS'CharacterOffsetBegin'
p5818
S'1631'
p5819
stp5820
a(S'Latin'
p5821
(dp5822
S'NamedEntityTag'
p5823
S'LOCATION'
p5824
sS'CharacterOffsetEnd'
p5825
S'1639'
p5826
sS'Lemma'
p5827
S'Latin'
p5828
sS'PartOfSpeech'
p5829
S'NNP'
p5830
sS'CharacterOffsetBegin'
p5831
S'1634'
p5832
stp5833
a(S'America'
p5834
(dp5835
S'NamedEntityTag'
p5836
S'LOCATION'
p5837
sS'CharacterOffsetEnd'
p5838
S'1647'
p5839
sS'Lemma'
p5840
S'America'
p5841
sS'PartOfSpeech'
p5842
S'NNP'
p5843
sS'CharacterOffsetBegin'
p5844
S'1640'
p5845
stp5846
a(g422
(dp5847
S'NamedEntityTag'
p5848
g135
sS'CharacterOffsetEnd'
p5849
S'1648'
p5850
sS'Lemma'
p5851
g422
sS'PartOfSpeech'
p5852
g422
sS'CharacterOffsetBegin'
p5853
S'1647'
p5854
stp5855
asa(dp5856
g7
S'(ROOT (S (PP (IN Throughout) (NP (DT the) (NN day))) (, ,) (NP (NN government) (NNS officials)) (VP (VP (VBD met) (PP (IN with) (NP (NNP Cardoso))) (PP (IN in) (NP (NNP Brasilia)))) (CC and) (VP (VBD were) (VP (VBN expected) (S (VP (TO to) (VP (VB fine-tune) (NP (NP (DT a) (JJ three-year) (NN austerity) (NN package)) (SBAR (WHNP (WDT that)) (S (NP (NNP Cardoso)) (VP (VBD was) (S (VP (TO to) (VP (VB discuss) (PP (IN with) (NP (JJ congressional) (NN party) (NNS leaders))) (PP (IN on) (NP (NNP Wednesday))) (NP-TMP (NN morning))))))))))))))) (. .)))'
p5857
sg9
S'Throughout the day, government officials met with Cardoso in Brasilia and were expected to fine-tune a three-year austerity package that Cardoso was to discuss with congressional party leaders on Wednesday morning.'
p5858
sg11
(lp5859
(S'root'
p5860
S'ROOT'
p5861
S'met'
p5862
tp5863
a(S'det'
p5864
S'day'
p5865
S'the'
p5866
tp5867
a(S'prep_throughout'
p5868
S'met'
p5869
S'day'
p5870
tp5871
a(S'nn'
p5872
S'officials'
p5873
S'government'
p5874
tp5875
a(S'nsubj'
p5876
S'met'
p5877
S'officials'
p5878
tp5879
a(S'prep_with'
p5880
S'met'
p5881
S'Cardoso'
p5882
tp5883
a(S'prep_in'
p5884
S'met'
p5885
S'Brasilia'
p5886
tp5887
a(S'auxpass'
p5888
S'expected'
p5889
S'were'
p5890
tp5891
a(S'conj_and'
p5892
S'met'
p5893
S'expected'
p5894
tp5895
a(S'aux'
p5896
S'fine-tune'
p5897
S'to'
p5898
tp5899
a(S'xcomp'
p5900
S'expected'
p5901
S'fine-tune'
p5902
tp5903
a(S'det'
p5904
S'package'
p5905
g1774
tp5906
a(S'amod'
p5907
S'package'
p5908
S'three-year'
p5909
tp5910
a(S'nn'
p5911
S'package'
p5912
S'austerity'
p5913
tp5914
a(S'dobj'
p5915
S'fine-tune'
p5916
S'package'
p5917
tp5918
a(S'dobj'
p5919
S'was'
p5920
S'that'
p5921
tp5922
a(S'nsubj'
p5923
S'was'
p5924
S'Cardoso'
p5925
tp5926
a(S'rcmod'
p5927
S'package'
p5928
S'was'
p5929
tp5930
a(S'aux'
p5931
S'discuss'
p5932
S'to'
p5933
tp5934
a(S'xcomp'
p5935
S'was'
p5936
S'discuss'
p5937
tp5938
a(S'amod'
p5939
S'leaders'
p5940
S'congressional'
p5941
tp5942
a(S'nn'
p5943
S'leaders'
p5944
S'party'
p5945
tp5946
a(S'prep_with'
p5947
S'discuss'
p5948
S'leaders'
p5949
tp5950
a(S'prep_on'
p5951
S'discuss'
p5952
S'Wednesday'
p5953
tp5954
a(S'tmod'
p5955
S'discuss'
p5956
S'morning'
p5957
tp5958
asg49
(lp5959
(g5860
S'ROOT-0'
p5960
S'met-7'
p5961
tp5962
a(g5864
S'day-3'
p5963
S'the-2'
p5964
tp5965
a(g5868
S'met-7'
p5966
S'day-3'
p5967
tp5968
a(g5872
S'officials-6'
p5969
S'government-5'
p5970
tp5971
a(g5876
S'met-7'
p5972
S'officials-6'
p5973
tp5974
a(g5880
S'met-7'
p5975
S'Cardoso-9'
p5976
tp5977
a(g5884
S'met-7'
p5978
S'Brasilia-11'
p5979
tp5980
a(g5888
S'expected-14'
p5981
S'were-13'
p5982
tp5983
a(g5892
S'met-7'
p5984
S'expected-14'
p5985
tp5986
a(g5896
S'fine-tune-16'
p5987
S'to-15'
p5988
tp5989
a(g5900
S'expected-14'
p5990
S'fine-tune-16'
p5991
tp5992
a(g5904
S'package-20'
p5993
S'a-17'
p5994
tp5995
a(g5907
S'package-20'
p5996
S'three-year-18'
p5997
tp5998
a(g5911
S'package-20'
p5999
S'austerity-19'
p6000
tp6001
a(g5915
S'fine-tune-16'
p6002
S'package-20'
p6003
tp6004
a(g5919
S'was-23'
p6005
S'that-21'
p6006
tp6007
a(g5923
S'was-23'
p6008
S'Cardoso-22'
p6009
tp6010
a(g5927
S'package-20'
p6011
S'was-23'
p6012
tp6013
a(g5931
S'discuss-25'
p6014
S'to-24'
p6015
tp6016
a(g5935
S'was-23'
p6017
S'discuss-25'
p6018
tp6019
a(g5939
S'leaders-29'
p6020
S'congressional-27'
p6021
tp6022
a(g5943
S'leaders-29'
p6023
S'party-28'
p6024
tp6025
a(g5947
S'discuss-25'
p6026
S'leaders-29'
p6027
tp6028
a(g5951
S'discuss-25'
p6029
S'Wednesday-31'
p6030
tp6031
a(g5955
S'discuss-25'
p6032
S'morning-32'
p6033
tp6034
asg78
(lp6035
(S'Throughout'
p6036
(dp6037
S'NamedEntityTag'
p6038
g135
sS'CharacterOffsetEnd'
p6039
S'1659'
p6040
sS'Lemma'
p6041
S'throughout'
p6042
sS'PartOfSpeech'
p6043
S'IN'
p6044
sS'CharacterOffsetBegin'
p6045
S'1649'
p6046
stp6047
a(S'the'
p6048
(dp6049
S'NormalizedNamedEntityTag'
p6050
S'THIS'
p6051
sS'Timex'
p6052
S'<TIMEX3 alt_value="THIS P1D" anchorTimeID="t0" temporalFunction="true" tid="t7" type="DATE" valueFromFunction="tf0">the day</TIMEX3>'
p6053
sS'Lemma'
p6054
S'the'
p6055
sS'CharacterOffsetEnd'
p6056
S'1663'
p6057
sS'PartOfSpeech'
p6058
S'DT'
p6059
sS'CharacterOffsetBegin'
p6060
S'1660'
p6061
sS'NamedEntityTag'
p6062
S'DATE'
p6063
stp6064
a(S'day'
p6065
(dp6066
S'NormalizedNamedEntityTag'
p6067
S'THIS'
p6068
sS'Timex'
p6069
S'<TIMEX3 alt_value="THIS P1D" anchorTimeID="t0" temporalFunction="true" tid="t7" type="DATE" valueFromFunction="tf0">the day</TIMEX3>'
p6070
sS'Lemma'
p6071
S'day'
p6072
sS'CharacterOffsetEnd'
p6073
S'1667'
p6074
sS'PartOfSpeech'
p6075
S'NN'
p6076
sS'CharacterOffsetBegin'
p6077
S'1664'
p6078
sS'NamedEntityTag'
p6079
S'DATE'
p6080
stp6081
a(g132
(dp6082
S'NamedEntityTag'
p6083
g135
sS'CharacterOffsetEnd'
p6084
S'1668'
p6085
sS'Lemma'
p6086
g132
sS'PartOfSpeech'
p6087
g132
sS'CharacterOffsetBegin'
p6088
S'1667'
p6089
stp6090
a(S'government'
p6091
(dp6092
S'NamedEntityTag'
p6093
g135
sS'CharacterOffsetEnd'
p6094
S'1679'
p6095
sS'Lemma'
p6096
S'government'
p6097
sS'PartOfSpeech'
p6098
S'NN'
p6099
sS'CharacterOffsetBegin'
p6100
S'1669'
p6101
stp6102
a(S'officials'
p6103
(dp6104
S'NamedEntityTag'
p6105
g135
sS'CharacterOffsetEnd'
p6106
S'1689'
p6107
sS'Lemma'
p6108
S'official'
p6109
sS'PartOfSpeech'
p6110
S'NNS'
p6111
sS'CharacterOffsetBegin'
p6112
S'1680'
p6113
stp6114
a(S'met'
p6115
(dp6116
S'NamedEntityTag'
p6117
g135
sS'CharacterOffsetEnd'
p6118
S'1693'
p6119
sS'Lemma'
p6120
S'meet'
p6121
sS'PartOfSpeech'
p6122
S'VBD'
p6123
sS'CharacterOffsetBegin'
p6124
S'1690'
p6125
stp6126
a(S'with'
p6127
(dp6128
S'NamedEntityTag'
p6129
g135
sS'CharacterOffsetEnd'
p6130
S'1698'
p6131
sS'Lemma'
p6132
S'with'
p6133
sS'PartOfSpeech'
p6134
S'IN'
p6135
sS'CharacterOffsetBegin'
p6136
S'1694'
p6137
stp6138
a(S'Cardoso'
p6139
(dp6140
S'NamedEntityTag'
p6141
S'PERSON'
p6142
sS'CharacterOffsetEnd'
p6143
S'1706'
p6144
sS'Lemma'
p6145
S'Cardoso'
p6146
sS'PartOfSpeech'
p6147
S'NNP'
p6148
sS'CharacterOffsetBegin'
p6149
S'1699'
p6150
stp6151
a(S'in'
p6152
(dp6153
S'NamedEntityTag'
p6154
g135
sS'CharacterOffsetEnd'
p6155
S'1709'
p6156
sS'Lemma'
p6157
S'in'
p6158
sS'PartOfSpeech'
p6159
S'IN'
p6160
sS'CharacterOffsetBegin'
p6161
S'1707'
p6162
stp6163
a(S'Brasilia'
p6164
(dp6165
S'NamedEntityTag'
p6166
S'LOCATION'
p6167
sS'CharacterOffsetEnd'
p6168
S'1718'
p6169
sS'Lemma'
p6170
S'Brasilia'
p6171
sS'PartOfSpeech'
p6172
S'NNP'
p6173
sS'CharacterOffsetBegin'
p6174
S'1710'
p6175
stp6176
a(S'and'
p6177
(dp6178
S'NamedEntityTag'
p6179
g135
sS'CharacterOffsetEnd'
p6180
S'1722'
p6181
sS'Lemma'
p6182
S'and'
p6183
sS'PartOfSpeech'
p6184
S'CC'
p6185
sS'CharacterOffsetBegin'
p6186
S'1719'
p6187
stp6188
a(S'were'
p6189
(dp6190
S'NamedEntityTag'
p6191
g135
sS'CharacterOffsetEnd'
p6192
S'1727'
p6193
sS'Lemma'
p6194
S'be'
p6195
sS'PartOfSpeech'
p6196
S'VBD'
p6197
sS'CharacterOffsetBegin'
p6198
S'1723'
p6199
stp6200
a(S'expected'
p6201
(dp6202
S'NamedEntityTag'
p6203
g135
sS'CharacterOffsetEnd'
p6204
S'1736'
p6205
sS'Lemma'
p6206
S'expect'
p6207
sS'PartOfSpeech'
p6208
S'VBN'
p6209
sS'CharacterOffsetBegin'
p6210
S'1728'
p6211
stp6212
a(S'to'
p6213
(dp6214
S'NamedEntityTag'
p6215
g135
sS'CharacterOffsetEnd'
p6216
S'1739'
p6217
sS'Lemma'
p6218
S'to'
p6219
sS'PartOfSpeech'
p6220
S'TO'
p6221
sS'CharacterOffsetBegin'
p6222
S'1737'
p6223
stp6224
a(S'fine-tune'
p6225
(dp6226
S'NamedEntityTag'
p6227
g135
sS'CharacterOffsetEnd'
p6228
S'1749'
p6229
sS'Lemma'
p6230
S'fine-tune'
p6231
sS'PartOfSpeech'
p6232
S'VB'
p6233
sS'CharacterOffsetBegin'
p6234
S'1740'
p6235
stp6236
a(g1774
(dp6237
S'NamedEntityTag'
p6238
g135
sS'CharacterOffsetEnd'
p6239
S'1751'
p6240
sS'Lemma'
p6241
g1774
sS'PartOfSpeech'
p6242
S'DT'
p6243
sS'CharacterOffsetBegin'
p6244
S'1750'
p6245
stp6246
a(S'three-year'
p6247
(dp6248
S'NormalizedNamedEntityTag'
p6249
S'P3Y'
p6250
sS'Timex'
p6251
S'<TIMEX3 tid="t8" type="DURATION" value="P3Y">three-year</TIMEX3>'
p6252
sS'Lemma'
p6253
S'three-year'
p6254
sS'CharacterOffsetEnd'
p6255
S'1762'
p6256
sS'PartOfSpeech'
p6257
S'JJ'
p6258
sS'CharacterOffsetBegin'
p6259
S'1752'
p6260
sS'NamedEntityTag'
p6261
S'DURATION'
p6262
stp6263
a(S'austerity'
p6264
(dp6265
S'NamedEntityTag'
p6266
g135
sS'CharacterOffsetEnd'
p6267
S'1772'
p6268
sS'Lemma'
p6269
S'austerity'
p6270
sS'PartOfSpeech'
p6271
S'NN'
p6272
sS'CharacterOffsetBegin'
p6273
S'1763'
p6274
stp6275
a(S'package'
p6276
(dp6277
S'NamedEntityTag'
p6278
g135
sS'CharacterOffsetEnd'
p6279
S'1780'
p6280
sS'Lemma'
p6281
S'package'
p6282
sS'PartOfSpeech'
p6283
S'NN'
p6284
sS'CharacterOffsetBegin'
p6285
S'1773'
p6286
stp6287
a(S'that'
p6288
(dp6289
S'NamedEntityTag'
p6290
g135
sS'CharacterOffsetEnd'
p6291
S'1785'
p6292
sS'Lemma'
p6293
S'that'
p6294
sS'PartOfSpeech'
p6295
S'WDT'
p6296
sS'CharacterOffsetBegin'
p6297
S'1781'
p6298
stp6299
a(S'Cardoso'
p6300
(dp6301
S'NamedEntityTag'
p6302
S'PERSON'
p6303
sS'CharacterOffsetEnd'
p6304
S'1793'
p6305
sS'Lemma'
p6306
S'Cardoso'
p6307
sS'PartOfSpeech'
p6308
S'NNP'
p6309
sS'CharacterOffsetBegin'
p6310
S'1786'
p6311
stp6312
a(S'was'
p6313
(dp6314
S'NamedEntityTag'
p6315
g135
sS'CharacterOffsetEnd'
p6316
S'1797'
p6317
sS'Lemma'
p6318
S'be'
p6319
sS'PartOfSpeech'
p6320
S'VBD'
p6321
sS'CharacterOffsetBegin'
p6322
S'1794'
p6323
stp6324
a(S'to'
p6325
(dp6326
S'NamedEntityTag'
p6327
g135
sS'CharacterOffsetEnd'
p6328
S'1800'
p6329
sS'Lemma'
p6330
S'to'
p6331
sS'PartOfSpeech'
p6332
S'TO'
p6333
sS'CharacterOffsetBegin'
p6334
S'1798'
p6335
stp6336
a(S'discuss'
p6337
(dp6338
S'NamedEntityTag'
p6339
g135
sS'CharacterOffsetEnd'
p6340
S'1808'
p6341
sS'Lemma'
p6342
S'discuss'
p6343
sS'PartOfSpeech'
p6344
S'VB'
p6345
sS'CharacterOffsetBegin'
p6346
S'1801'
p6347
stp6348
a(S'with'
p6349
(dp6350
S'NamedEntityTag'
p6351
g135
sS'CharacterOffsetEnd'
p6352
S'1813'
p6353
sS'Lemma'
p6354
S'with'
p6355
sS'PartOfSpeech'
p6356
S'IN'
p6357
sS'CharacterOffsetBegin'
p6358
S'1809'
p6359
stp6360
a(S'congressional'
p6361
(dp6362
S'NamedEntityTag'
p6363
g135
sS'CharacterOffsetEnd'
p6364
S'1827'
p6365
sS'Lemma'
p6366
S'congressional'
p6367
sS'PartOfSpeech'
p6368
S'JJ'
p6369
sS'CharacterOffsetBegin'
p6370
S'1814'
p6371
stp6372
a(S'party'
p6373
(dp6374
S'NamedEntityTag'
p6375
g135
sS'CharacterOffsetEnd'
p6376
S'1833'
p6377
sS'Lemma'
p6378
S'party'
p6379
sS'PartOfSpeech'
p6380
S'NN'
p6381
sS'CharacterOffsetBegin'
p6382
S'1828'
p6383
stp6384
a(S'leaders'
p6385
(dp6386
S'NamedEntityTag'
p6387
g135
sS'CharacterOffsetEnd'
p6388
S'1841'
p6389
sS'Lemma'
p6390
S'leader'
p6391
sS'PartOfSpeech'
p6392
S'NNS'
p6393
sS'CharacterOffsetBegin'
p6394
S'1834'
p6395
stp6396
a(S'on'
p6397
(dp6398
S'NamedEntityTag'
p6399
g135
sS'CharacterOffsetEnd'
p6400
S'1844'
p6401
sS'Lemma'
p6402
S'on'
p6403
sS'PartOfSpeech'
p6404
S'IN'
p6405
sS'CharacterOffsetBegin'
p6406
S'1842'
p6407
stp6408
a(S'Wednesday'
p6409
(dp6410
S'NormalizedNamedEntityTag'
p6411
S'XXXX-WXX-3TMO'
p6412
sS'Timex'
p6413
S'<TIMEX3 tid="t9" type="TIME" value="XXXX-WXX-3TMO">Wednesday morning</TIMEX3>'
p6414
sS'Lemma'
p6415
S'Wednesday'
p6416
sS'CharacterOffsetEnd'
p6417
S'1854'
p6418
sS'PartOfSpeech'
p6419
S'NNP'
p6420
sS'CharacterOffsetBegin'
p6421
S'1845'
p6422
sS'NamedEntityTag'
p6423
S'DATE'
p6424
stp6425
a(S'morning'
p6426
(dp6427
S'NormalizedNamedEntityTag'
p6428
S'XXXX-WXX-3TMO'
p6429
sS'Timex'
p6430
S'<TIMEX3 tid="t9" type="TIME" value="XXXX-WXX-3TMO">Wednesday morning</TIMEX3>'
p6431
sS'Lemma'
p6432
S'morning'
p6433
sS'CharacterOffsetEnd'
p6434
S'1862'
p6435
sS'PartOfSpeech'
p6436
S'NN'
p6437
sS'CharacterOffsetBegin'
p6438
S'1855'
p6439
sS'NamedEntityTag'
p6440
S'TIME'
p6441
stp6442
a(g422
(dp6443
S'NamedEntityTag'
p6444
g135
sS'CharacterOffsetEnd'
p6445
S'1863'
p6446
sS'Lemma'
p6447
g422
sS'PartOfSpeech'
p6448
g422
sS'CharacterOffsetBegin'
p6449
S'1862'
p6450
stp6451
asa(dp6452
g7
S'(ROOT (S (PP (IN In) (NP (NNP Brasilia))) (, ,) (NP (NNS officials)) (VP (VBD said) (SBAR (IN that) (S (PP (IN among) (NP (DT the) (NNS measures))) (VP (VP (VBG being) (VP (VBN considered) (SBAR (S (VP (VBD were) (NP (NP (DT a) (NN tax) (NN increase)) (PP (IN on) (NP (JJ financial) (NNS transactions))))))))) (, ,) (PP (TO to) (NP (NP (NNS three-tenths)) (PP (IN of) (NP (NP (DT a) (NN percent)) (PP (IN from) (NP (NP (NNS two-tenths)) (PP (IN of) (NP (DT a) (NN percent))))))))) (, ,) (CC and) (VP (VBG extending) (NP (NP (DT the) (JJ Fiscal) (NNP Stabilization) (NNP Fund)) (, ,) (SBAR (WHNP (WDT which)) (S (VP (VBZ sets) (ADVP (RB aside)) (NP (NP (CD 20) (NN percent)) (PP (IN of) (NP (NP (DT all) (NNS taxes)) (VP (VBN collected) (PP (IN for) (NP (JJ presidential) (JJ discretionary) (NN spending)))))))))))))))) (. .)))'
p6453
sg9
S'In Brasilia, officials said that among the measures being considered were a tax increase on financial transactions, to three-tenths of a percent from two-tenths of a percent, and extending the Fiscal Stabilization Fund, which sets aside 20 percent of all taxes collected for presidential discretionary spending.'
p6454
sg11
(lp6455
(S'root'
p6456
S'ROOT'
p6457
S'said'
p6458
tp6459
a(S'prep_in'
p6460
S'said'
p6461
S'Brasilia'
p6462
tp6463
a(S'nsubj'
p6464
S'said'
p6465
S'officials'
p6466
tp6467
a(S'mark'
p6468
S'considered'
p6469
S'that'
p6470
tp6471
a(S'det'
p6472
S'measures'
p6473
S'the'
p6474
tp6475
a(S'prep_among'
p6476
S'considered'
p6477
S'measures'
p6478
tp6479
a(S'auxpass'
p6480
S'considered'
p6481
S'being'
p6482
tp6483
a(S'ccomp'
p6484
S'said'
p6485
S'considered'
p6486
tp6487
a(S'cop'
p6488
S'increase'
p6489
S'were'
p6490
tp6491
a(S'det'
p6492
S'increase'
p6493
g1774
tp6494
a(S'nn'
p6495
S'increase'
p6496
S'tax'
p6497
tp6498
a(S'ccomp'
p6499
S'considered'
p6500
S'increase'
p6501
tp6502
a(S'amod'
p6503
S'transactions'
p6504
S'financial'
p6505
tp6506
a(S'prep_on'
p6507
S'increase'
p6508
S'transactions'
p6509
tp6510
a(S'conj_and'
p6511
S'considered'
p6512
S'to'
p6513
tp6514
a(S'pobj'
p6515
S'to'
p6516
S'three-tenths'
p6517
tp6518
a(S'det'
p6519
S'percent'
p6520
g1774
tp6521
a(S'prep_of'
p6522
S'three-tenths'
p6523
S'percent'
p6524
tp6525
a(S'prep_from'
p6526
S'percent'
p6527
S'two-tenths'
p6528
tp6529
a(S'det'
p6530
S'percent'
p6531
g1774
tp6532
a(S'prep_of'
p6533
S'two-tenths'
p6534
S'percent'
p6535
tp6536
a(S'conj_and'
p6537
S'considered'
p6538
S'extending'
p6539
tp6540
a(S'det'
p6541
S'Fund'
p6542
S'the'
p6543
tp6544
a(S'amod'
p6545
S'Fund'
p6546
S'Fiscal'
p6547
tp6548
a(S'nn'
p6549
S'Fund'
p6550
S'Stabilization'
p6551
tp6552
a(S'dobj'
p6553
S'extending'
p6554
S'Fund'
p6555
tp6556
a(S'nsubj'
p6557
S'sets'
p6558
S'which'
p6559
tp6560
a(S'rcmod'
p6561
S'Fund'
p6562
S'sets'
p6563
tp6564
a(S'advmod'
p6565
S'sets'
p6566
S'aside'
p6567
tp6568
a(S'num'
p6569
S'percent'
p6570
S'20'
p6571
tp6572
a(S'dobj'
p6573
S'sets'
p6574
S'percent'
p6575
tp6576
a(S'det'
p6577
S'taxes'
p6578
S'all'
p6579
tp6580
a(S'prep_of'
p6581
S'percent'
p6582
S'taxes'
p6583
tp6584
a(S'partmod'
p6585
S'taxes'
p6586
S'collected'
p6587
tp6588
a(S'amod'
p6589
S'spending'
p6590
S'presidential'
p6591
tp6592
a(S'amod'
p6593
S'spending'
p6594
S'discretionary'
p6595
tp6596
a(S'prep_for'
p6597
S'collected'
p6598
S'spending'
p6599
tp6600
asg49
(lp6601
(g6456
S'ROOT-0'
p6602
S'said-5'
p6603
tp6604
a(g6460
S'said-5'
p6605
S'Brasilia-2'
p6606
tp6607
a(g6464
S'said-5'
p6608
S'officials-4'
p6609
tp6610
a(g6468
S'considered-11'
p6611
S'that-6'
p6612
tp6613
a(g6472
S'measures-9'
p6614
S'the-8'
p6615
tp6616
a(g6476
S'considered-11'
p6617
S'measures-9'
p6618
tp6619
a(g6480
S'considered-11'
p6620
S'being-10'
p6621
tp6622
a(g6484
S'said-5'
p6623
S'considered-11'
p6624
tp6625
a(g6488
S'increase-15'
p6626
S'were-12'
p6627
tp6628
a(g6492
S'increase-15'
p6629
S'a-13'
p6630
tp6631
a(g6495
S'increase-15'
p6632
S'tax-14'
p6633
tp6634
a(g6499
S'considered-11'
p6635
S'increase-15'
p6636
tp6637
a(g6503
S'transactions-18'
p6638
S'financial-17'
p6639
tp6640
a(g6507
S'increase-15'
p6641
S'transactions-18'
p6642
tp6643
a(g6511
S'considered-11'
p6644
S'to-20'
p6645
tp6646
a(g6515
S'to-20'
p6647
S'three-tenths-21'
p6648
tp6649
a(g6519
S'percent-24'
p6650
S'a-23'
p6651
tp6652
a(g6522
S'three-tenths-21'
p6653
S'percent-24'
p6654
tp6655
a(g6526
S'percent-24'
p6656
S'two-tenths-26'
p6657
tp6658
a(g6530
S'percent-29'
p6659
S'a-28'
p6660
tp6661
a(g6533
S'two-tenths-26'
p6662
S'percent-29'
p6663
tp6664
a(g6537
S'considered-11'
p6665
S'extending-32'
p6666
tp6667
a(g6541
S'Fund-36'
p6668
S'the-33'
p6669
tp6670
a(g6545
S'Fund-36'
p6671
S'Fiscal-34'
p6672
tp6673
a(g6549
S'Fund-36'
p6674
S'Stabilization-35'
p6675
tp6676
a(g6553
S'extending-32'
p6677
S'Fund-36'
p6678
tp6679
a(g6557
S'sets-39'
p6680
S'which-38'
p6681
tp6682
a(g6561
S'Fund-36'
p6683
S'sets-39'
p6684
tp6685
a(g6565
S'sets-39'
p6686
S'aside-40'
p6687
tp6688
a(g6569
S'percent-42'
p6689
S'20-41'
p6690
tp6691
a(g6573
S'sets-39'
p6692
S'percent-42'
p6693
tp6694
a(g6577
S'taxes-45'
p6695
S'all-44'
p6696
tp6697
a(g6581
S'percent-42'
p6698
S'taxes-45'
p6699
tp6700
a(g6585
S'taxes-45'
p6701
S'collected-46'
p6702
tp6703
a(g6589
S'spending-50'
p6704
S'presidential-48'
p6705
tp6706
a(g6593
S'spending-50'
p6707
S'discretionary-49'
p6708
tp6709
a(g6597
S'collected-46'
p6710
S'spending-50'
p6711
tp6712
asg78
(lp6713
(S'In'
p6714
(dp6715
S'NamedEntityTag'
p6716
g135
sS'CharacterOffsetEnd'
p6717
S'1866'
p6718
sS'Lemma'
p6719
S'in'
p6720
sS'PartOfSpeech'
p6721
S'IN'
p6722
sS'CharacterOffsetBegin'
p6723
S'1864'
p6724
stp6725
a(S'Brasilia'
p6726
(dp6727
S'NamedEntityTag'
p6728
S'LOCATION'
p6729
sS'CharacterOffsetEnd'
p6730
S'1875'
p6731
sS'Lemma'
p6732
S'Brasilia'
p6733
sS'PartOfSpeech'
p6734
S'NNP'
p6735
sS'CharacterOffsetBegin'
p6736
S'1867'
p6737
stp6738
a(g132
(dp6739
S'NamedEntityTag'
p6740
g135
sS'CharacterOffsetEnd'
p6741
S'1876'
p6742
sS'Lemma'
p6743
g132
sS'PartOfSpeech'
p6744
g132
sS'CharacterOffsetBegin'
p6745
S'1875'
p6746
stp6747
a(S'officials'
p6748
(dp6749
S'NamedEntityTag'
p6750
g135
sS'CharacterOffsetEnd'
p6751
S'1886'
p6752
sS'Lemma'
p6753
S'official'
p6754
sS'PartOfSpeech'
p6755
S'NNS'
p6756
sS'CharacterOffsetBegin'
p6757
S'1877'
p6758
stp6759
a(S'said'
p6760
(dp6761
S'NamedEntityTag'
p6762
g135
sS'CharacterOffsetEnd'
p6763
S'1891'
p6764
sS'Lemma'
p6765
S'say'
p6766
sS'PartOfSpeech'
p6767
S'VBD'
p6768
sS'CharacterOffsetBegin'
p6769
S'1887'
p6770
stp6771
a(S'that'
p6772
(dp6773
S'NamedEntityTag'
p6774
g135
sS'CharacterOffsetEnd'
p6775
S'1896'
p6776
sS'Lemma'
p6777
S'that'
p6778
sS'PartOfSpeech'
p6779
S'IN'
p6780
sS'CharacterOffsetBegin'
p6781
S'1892'
p6782
stp6783
a(S'among'
p6784
(dp6785
S'NamedEntityTag'
p6786
g135
sS'CharacterOffsetEnd'
p6787
S'1902'
p6788
sS'Lemma'
p6789
S'among'
p6790
sS'PartOfSpeech'
p6791
S'IN'
p6792
sS'CharacterOffsetBegin'
p6793
S'1897'
p6794
stp6795
a(S'the'
p6796
(dp6797
S'NamedEntityTag'
p6798
g135
sS'CharacterOffsetEnd'
p6799
S'1906'
p6800
sS'Lemma'
p6801
S'the'
p6802
sS'PartOfSpeech'
p6803
S'DT'
p6804
sS'CharacterOffsetBegin'
p6805
S'1903'
p6806
stp6807
a(S'measures'
p6808
(dp6809
S'NamedEntityTag'
p6810
g135
sS'CharacterOffsetEnd'
p6811
S'1915'
p6812
sS'Lemma'
p6813
S'measure'
p6814
sS'PartOfSpeech'
p6815
S'NNS'
p6816
sS'CharacterOffsetBegin'
p6817
S'1907'
p6818
stp6819
a(S'being'
p6820
(dp6821
S'NamedEntityTag'
p6822
g135
sS'CharacterOffsetEnd'
p6823
S'1921'
p6824
sS'Lemma'
p6825
S'be'
p6826
sS'PartOfSpeech'
p6827
S'VBG'
p6828
sS'CharacterOffsetBegin'
p6829
S'1916'
p6830
stp6831
a(S'considered'
p6832
(dp6833
S'NamedEntityTag'
p6834
g135
sS'CharacterOffsetEnd'
p6835
S'1932'
p6836
sS'Lemma'
p6837
S'consider'
p6838
sS'PartOfSpeech'
p6839
S'VBN'
p6840
sS'CharacterOffsetBegin'
p6841
S'1922'
p6842
stp6843
a(S'were'
p6844
(dp6845
S'NamedEntityTag'
p6846
g135
sS'CharacterOffsetEnd'
p6847
S'1937'
p6848
sS'Lemma'
p6849
S'be'
p6850
sS'PartOfSpeech'
p6851
S'VBD'
p6852
sS'CharacterOffsetBegin'
p6853
S'1933'
p6854
stp6855
a(g1774
(dp6856
S'NamedEntityTag'
p6857
g135
sS'CharacterOffsetEnd'
p6858
S'1939'
p6859
sS'Lemma'
p6860
g1774
sS'PartOfSpeech'
p6861
S'DT'
p6862
sS'CharacterOffsetBegin'
p6863
S'1938'
p6864
stp6865
a(S'tax'
p6866
(dp6867
S'NamedEntityTag'
p6868
g135
sS'CharacterOffsetEnd'
p6869
S'1943'
p6870
sS'Lemma'
p6871
S'tax'
p6872
sS'PartOfSpeech'
p6873
S'NN'
p6874
sS'CharacterOffsetBegin'
p6875
S'1940'
p6876
stp6877
a(S'increase'
p6878
(dp6879
S'NamedEntityTag'
p6880
g135
sS'CharacterOffsetEnd'
p6881
S'1952'
p6882
sS'Lemma'
p6883
S'increase'
p6884
sS'PartOfSpeech'
p6885
S'NN'
p6886
sS'CharacterOffsetBegin'
p6887
S'1944'
p6888
stp6889
a(S'on'
p6890
(dp6891
S'NamedEntityTag'
p6892
g135
sS'CharacterOffsetEnd'
p6893
S'1955'
p6894
sS'Lemma'
p6895
S'on'
p6896
sS'PartOfSpeech'
p6897
S'IN'
p6898
sS'CharacterOffsetBegin'
p6899
S'1953'
p6900
stp6901
a(S'financial'
p6902
(dp6903
S'NamedEntityTag'
p6904
g135
sS'CharacterOffsetEnd'
p6905
S'1965'
p6906
sS'Lemma'
p6907
S'financial'
p6908
sS'PartOfSpeech'
p6909
S'JJ'
p6910
sS'CharacterOffsetBegin'
p6911
S'1956'
p6912
stp6913
a(S'transactions'
p6914
(dp6915
S'NamedEntityTag'
p6916
g135
sS'CharacterOffsetEnd'
p6917
S'1978'
p6918
sS'Lemma'
p6919
S'transaction'
p6920
sS'PartOfSpeech'
p6921
S'NNS'
p6922
sS'CharacterOffsetBegin'
p6923
S'1966'
p6924
stp6925
a(g132
(dp6926
S'NamedEntityTag'
p6927
g135
sS'CharacterOffsetEnd'
p6928
S'1979'
p6929
sS'Lemma'
p6930
g132
sS'PartOfSpeech'
p6931
g132
sS'CharacterOffsetBegin'
p6932
S'1978'
p6933
stp6934
a(S'to'
p6935
(dp6936
S'NamedEntityTag'
p6937
g135
sS'CharacterOffsetEnd'
p6938
S'1982'
p6939
sS'Lemma'
p6940
S'to'
p6941
sS'PartOfSpeech'
p6942
S'TO'
p6943
sS'CharacterOffsetBegin'
p6944
S'1980'
p6945
stp6946
a(S'three-tenths'
p6947
(dp6948
S'NamedEntityTag'
p6949
g135
sS'CharacterOffsetEnd'
p6950
S'1995'
p6951
sS'Lemma'
p6952
S'three-tenth'
p6953
sS'PartOfSpeech'
p6954
S'NNS'
p6955
sS'CharacterOffsetBegin'
p6956
S'1983'
p6957
stp6958
a(S'of'
p6959
(dp6960
S'NamedEntityTag'
p6961
g135
sS'CharacterOffsetEnd'
p6962
S'1998'
p6963
sS'Lemma'
p6964
S'of'
p6965
sS'PartOfSpeech'
p6966
S'IN'
p6967
sS'CharacterOffsetBegin'
p6968
S'1996'
p6969
stp6970
a(g1774
(dp6971
S'NamedEntityTag'
p6972
g135
sS'CharacterOffsetEnd'
p6973
S'2000'
p6974
sS'Lemma'
p6975
g1774
sS'PartOfSpeech'
p6976
S'DT'
p6977
sS'CharacterOffsetBegin'
p6978
S'1999'
p6979
stp6980
a(S'percent'
p6981
(dp6982
S'NamedEntityTag'
p6983
g135
sS'CharacterOffsetEnd'
p6984
S'2008'
p6985
sS'Lemma'
p6986
S'percent'
p6987
sS'PartOfSpeech'
p6988
S'NN'
p6989
sS'CharacterOffsetBegin'
p6990
S'2001'
p6991
stp6992
a(S'from'
p6993
(dp6994
S'NamedEntityTag'
p6995
g135
sS'CharacterOffsetEnd'
p6996
S'2013'
p6997
sS'Lemma'
p6998
S'from'
p6999
sS'PartOfSpeech'
p7000
S'IN'
p7001
sS'CharacterOffsetBegin'
p7002
S'2009'
p7003
stp7004
a(S'two-tenths'
p7005
(dp7006
S'NamedEntityTag'
p7007
g135
sS'CharacterOffsetEnd'
p7008
S'2024'
p7009
sS'Lemma'
p7010
S'two-tenth'
p7011
sS'PartOfSpeech'
p7012
S'NNS'
p7013
sS'CharacterOffsetBegin'
p7014
S'2014'
p7015
stp7016
a(S'of'
p7017
(dp7018
S'NamedEntityTag'
p7019
g135
sS'CharacterOffsetEnd'
p7020
S'2027'
p7021
sS'Lemma'
p7022
S'of'
p7023
sS'PartOfSpeech'
p7024
S'IN'
p7025
sS'CharacterOffsetBegin'
p7026
S'2025'
p7027
stp7028
a(g1774
(dp7029
S'NamedEntityTag'
p7030
g135
sS'CharacterOffsetEnd'
p7031
S'2029'
p7032
sS'Lemma'
p7033
g1774
sS'PartOfSpeech'
p7034
S'DT'
p7035
sS'CharacterOffsetBegin'
p7036
S'2028'
p7037
stp7038
a(S'percent'
p7039
(dp7040
S'NamedEntityTag'
p7041
g135
sS'CharacterOffsetEnd'
p7042
S'2037'
p7043
sS'Lemma'
p7044
S'percent'
p7045
sS'PartOfSpeech'
p7046
S'NN'
p7047
sS'CharacterOffsetBegin'
p7048
S'2030'
p7049
stp7050
a(g132
(dp7051
S'NamedEntityTag'
p7052
g135
sS'CharacterOffsetEnd'
p7053
S'2038'
p7054
sS'Lemma'
p7055
g132
sS'PartOfSpeech'
p7056
g132
sS'CharacterOffsetBegin'
p7057
S'2037'
p7058
stp7059
a(S'and'
p7060
(dp7061
S'NamedEntityTag'
p7062
g135
sS'CharacterOffsetEnd'
p7063
S'2042'
p7064
sS'Lemma'
p7065
S'and'
p7066
sS'PartOfSpeech'
p7067
S'CC'
p7068
sS'CharacterOffsetBegin'
p7069
S'2039'
p7070
stp7071
a(S'extending'
p7072
(dp7073
S'NamedEntityTag'
p7074
g135
sS'CharacterOffsetEnd'
p7075
S'2052'
p7076
sS'Lemma'
p7077
S'extend'
p7078
sS'PartOfSpeech'
p7079
S'VBG'
p7080
sS'CharacterOffsetBegin'
p7081
S'2043'
p7082
stp7083
a(S'the'
p7084
(dp7085
S'NamedEntityTag'
p7086
g135
sS'CharacterOffsetEnd'
p7087
S'2056'
p7088
sS'Lemma'
p7089
S'the'
p7090
sS'PartOfSpeech'
p7091
S'DT'
p7092
sS'CharacterOffsetBegin'
p7093
S'2053'
p7094
stp7095
a(S'Fiscal'
p7096
(dp7097
S'NamedEntityTag'
p7098
g135
sS'CharacterOffsetEnd'
p7099
S'2063'
p7100
sS'Lemma'
p7101
S'fiscal'
p7102
sS'PartOfSpeech'
p7103
S'JJ'
p7104
sS'CharacterOffsetBegin'
p7105
S'2057'
p7106
stp7107
a(S'Stabilization'
p7108
(dp7109
S'NamedEntityTag'
p7110
g135
sS'CharacterOffsetEnd'
p7111
S'2077'
p7112
sS'Lemma'
p7113
S'Stabilization'
p7114
sS'PartOfSpeech'
p7115
S'NNP'
p7116
sS'CharacterOffsetBegin'
p7117
S'2064'
p7118
stp7119
a(S'Fund'
p7120
(dp7121
S'NamedEntityTag'
p7122
g135
sS'CharacterOffsetEnd'
p7123
S'2082'
p7124
sS'Lemma'
p7125
S'Fund'
p7126
sS'PartOfSpeech'
p7127
S'NNP'
p7128
sS'CharacterOffsetBegin'
p7129
S'2078'
p7130
stp7131
a(g132
(dp7132
S'NamedEntityTag'
p7133
g135
sS'CharacterOffsetEnd'
p7134
S'2083'
p7135
sS'Lemma'
p7136
g132
sS'PartOfSpeech'
p7137
g132
sS'CharacterOffsetBegin'
p7138
S'2082'
p7139
stp7140
a(S'which'
p7141
(dp7142
S'NamedEntityTag'
p7143
g135
sS'CharacterOffsetEnd'
p7144
S'2089'
p7145
sS'Lemma'
p7146
S'which'
p7147
sS'PartOfSpeech'
p7148
S'WDT'
p7149
sS'CharacterOffsetBegin'
p7150
S'2084'
p7151
stp7152
a(S'sets'
p7153
(dp7154
S'NamedEntityTag'
p7155
g135
sS'CharacterOffsetEnd'
p7156
S'2094'
p7157
sS'Lemma'
p7158
S'set'
p7159
sS'PartOfSpeech'
p7160
S'VBZ'
p7161
sS'CharacterOffsetBegin'
p7162
S'2090'
p7163
stp7164
a(S'aside'
p7165
(dp7166
S'NamedEntityTag'
p7167
g135
sS'CharacterOffsetEnd'
p7168
S'2100'
p7169
sS'Lemma'
p7170
S'aside'
p7171
sS'PartOfSpeech'
p7172
S'RB'
p7173
sS'CharacterOffsetBegin'
p7174
S'2095'
p7175
stp7176
a(S'20'
p7177
(dp7178
S'NormalizedNamedEntityTag'
p7179
S'%20.0'
p7180
sS'Lemma'
p7181
S'20'
p7182
sS'CharacterOffsetEnd'
p7183
S'2103'
p7184
sS'PartOfSpeech'
p7185
S'CD'
p7186
sS'CharacterOffsetBegin'
p7187
S'2101'
p7188
sS'NamedEntityTag'
p7189
S'PERCENT'
p7190
stp7191
a(S'percent'
p7192
(dp7193
S'NormalizedNamedEntityTag'
p7194
S'%20.0'
p7195
sS'Lemma'
p7196
S'percent'
p7197
sS'CharacterOffsetEnd'
p7198
S'2111'
p7199
sS'PartOfSpeech'
p7200
S'NN'
p7201
sS'CharacterOffsetBegin'
p7202
S'2104'
p7203
sS'NamedEntityTag'
p7204
S'PERCENT'
p7205
stp7206
a(S'of'
p7207
(dp7208
S'NamedEntityTag'
p7209
g135
sS'CharacterOffsetEnd'
p7210
S'2114'
p7211
sS'Lemma'
p7212
S'of'
p7213
sS'PartOfSpeech'
p7214
S'IN'
p7215
sS'CharacterOffsetBegin'
p7216
S'2112'
p7217
stp7218
a(S'all'
p7219
(dp7220
S'NamedEntityTag'
p7221
g135
sS'CharacterOffsetEnd'
p7222
S'2118'
p7223
sS'Lemma'
p7224
S'all'
p7225
sS'PartOfSpeech'
p7226
S'DT'
p7227
sS'CharacterOffsetBegin'
p7228
S'2115'
p7229
stp7230
a(S'taxes'
p7231
(dp7232
S'NamedEntityTag'
p7233
g135
sS'CharacterOffsetEnd'
p7234
S'2124'
p7235
sS'Lemma'
p7236
S'tax'
p7237
sS'PartOfSpeech'
p7238
S'NNS'
p7239
sS'CharacterOffsetBegin'
p7240
S'2119'
p7241
stp7242
a(S'collected'
p7243
(dp7244
S'NamedEntityTag'
p7245
g135
sS'CharacterOffsetEnd'
p7246
S'2134'
p7247
sS'Lemma'
p7248
S'collect'
p7249
sS'PartOfSpeech'
p7250
S'VBN'
p7251
sS'CharacterOffsetBegin'
p7252
S'2125'
p7253
stp7254
a(S'for'
p7255
(dp7256
S'NamedEntityTag'
p7257
g135
sS'CharacterOffsetEnd'
p7258
S'2138'
p7259
sS'Lemma'
p7260
S'for'
p7261
sS'PartOfSpeech'
p7262
S'IN'
p7263
sS'CharacterOffsetBegin'
p7264
S'2135'
p7265
stp7266
a(S'presidential'
p7267
(dp7268
S'NamedEntityTag'
p7269
g135
sS'CharacterOffsetEnd'
p7270
S'2151'
p7271
sS'Lemma'
p7272
S'presidential'
p7273
sS'PartOfSpeech'
p7274
S'JJ'
p7275
sS'CharacterOffsetBegin'
p7276
S'2139'
p7277
stp7278
a(S'discretionary'
p7279
(dp7280
S'NamedEntityTag'
p7281
g135
sS'CharacterOffsetEnd'
p7282
S'2165'
p7283
sS'Lemma'
p7284
S'discretionary'
p7285
sS'PartOfSpeech'
p7286
S'JJ'
p7287
sS'CharacterOffsetBegin'
p7288
S'2152'
p7289
stp7290
a(S'spending'
p7291
(dp7292
S'NamedEntityTag'
p7293
g135
sS'CharacterOffsetEnd'
p7294
S'2174'
p7295
sS'Lemma'
p7296
S'spending'
p7297
sS'PartOfSpeech'
p7298
S'NN'
p7299
sS'CharacterOffsetBegin'
p7300
S'2166'
p7301
stp7302
a(g422
(dp7303
S'NamedEntityTag'
p7304
g135
sS'CharacterOffsetEnd'
p7305
S'2175'
p7306
sS'Lemma'
p7307
g422
sS'PartOfSpeech'
p7308
g422
sS'CharacterOffsetBegin'
p7309
S'2174'
p7310
stp7311
asa(dp7312
g7
S'(ROOT (S (NP (DT The) (NN fund)) (VP (VBD was) (S (VP (TO to) (VP (VB have) (VP (VBN expired) (PP (IN by) (NP (CD 1999)))))))) (. .)))'
p7313
sg9
S'The fund was to have expired by 1999.'
p7314
sg11
(lp7315
(S'root'
p7316
S'ROOT'
p7317
S'was'
p7318
tp7319
a(S'det'
p7320
S'fund'
p7321
S'The'
p7322
tp7323
a(S'nsubj'
p7324
S'was'
p7325
S'fund'
p7326
tp7327
a(S'aux'
p7328
S'expired'
p7329
S'to'
p7330
tp7331
a(S'aux'
p7332
S'expired'
p7333
S'have'
p7334
tp7335
a(S'xcomp'
p7336
S'was'
p7337
S'expired'
p7338
tp7339
a(S'prep_by'
p7340
S'expired'
p7341
S'1999'
p7342
tp7343
asg49
(lp7344
(g7316
S'ROOT-0'
p7345
S'was-3'
p7346
tp7347
a(g7320
S'fund-2'
p7348
S'The-1'
p7349
tp7350
a(g7324
S'was-3'
p7351
S'fund-2'
p7352
tp7353
a(g7328
S'expired-6'
p7354
S'to-4'
p7355
tp7356
a(g7332
S'expired-6'
p7357
S'have-5'
p7358
tp7359
a(g7336
S'was-3'
p7360
S'expired-6'
p7361
tp7362
a(g7340
S'expired-6'
p7363
S'1999-8'
p7364
tp7365
asg78
(lp7366
(S'The'
p7367
(dp7368
S'NamedEntityTag'
p7369
g135
sS'CharacterOffsetEnd'
p7370
S'2179'
p7371
sS'Lemma'
p7372
S'the'
p7373
sS'PartOfSpeech'
p7374
S'DT'
p7375
sS'CharacterOffsetBegin'
p7376
S'2176'
p7377
stp7378
a(S'fund'
p7379
(dp7380
S'NamedEntityTag'
p7381
g135
sS'CharacterOffsetEnd'
p7382
S'2184'
p7383
sS'Lemma'
p7384
S'fund'
p7385
sS'PartOfSpeech'
p7386
S'NN'
p7387
sS'CharacterOffsetBegin'
p7388
S'2180'
p7389
stp7390
a(S'was'
p7391
(dp7392
S'NamedEntityTag'
p7393
g135
sS'CharacterOffsetEnd'
p7394
S'2188'
p7395
sS'Lemma'
p7396
S'be'
p7397
sS'PartOfSpeech'
p7398
S'VBD'
p7399
sS'CharacterOffsetBegin'
p7400
S'2185'
p7401
stp7402
a(S'to'
p7403
(dp7404
S'NamedEntityTag'
p7405
g135
sS'CharacterOffsetEnd'
p7406
S'2191'
p7407
sS'Lemma'
p7408
S'to'
p7409
sS'PartOfSpeech'
p7410
S'TO'
p7411
sS'CharacterOffsetBegin'
p7412
S'2189'
p7413
stp7414
a(S'have'
p7415
(dp7416
S'NamedEntityTag'
p7417
g135
sS'CharacterOffsetEnd'
p7418
S'2196'
p7419
sS'Lemma'
p7420
S'have'
p7421
sS'PartOfSpeech'
p7422
S'VB'
p7423
sS'CharacterOffsetBegin'
p7424
S'2192'
p7425
stp7426
a(S'expired'
p7427
(dp7428
S'NamedEntityTag'
p7429
g135
sS'CharacterOffsetEnd'
p7430
S'2204'
p7431
sS'Lemma'
p7432
S'expire'
p7433
sS'PartOfSpeech'
p7434
S'VBN'
p7435
sS'CharacterOffsetBegin'
p7436
S'2197'
p7437
stp7438
a(S'by'
p7439
(dp7440
S'NamedEntityTag'
p7441
g135
sS'CharacterOffsetEnd'
p7442
S'2207'
p7443
sS'Lemma'
p7444
S'by'
p7445
sS'PartOfSpeech'
p7446
S'IN'
p7447
sS'CharacterOffsetBegin'
p7448
S'2205'
p7449
stp7450
a(S'1999'
p7451
(dp7452
S'NormalizedNamedEntityTag'
p7453
S'1999'
p7454
sS'Timex'
p7455
S'<TIMEX3 tid="t10" type="DATE" value="1999">1999</TIMEX3>'
p7456
sS'Lemma'
p7457
S'1999'
p7458
sS'CharacterOffsetEnd'
p7459
S'2212'
p7460
sS'PartOfSpeech'
p7461
S'CD'
p7462
sS'CharacterOffsetBegin'
p7463
S'2208'
p7464
sS'NamedEntityTag'
p7465
S'DATE'
p7466
stp7467
a(g422
(dp7468
S'NamedEntityTag'
p7469
g135
sS'CharacterOffsetEnd'
p7470
S'2213'
p7471
sS'Lemma'
p7472
g422
sS'PartOfSpeech'
p7473
g422
sS'CharacterOffsetBegin'
p7474
S'2212'
p7475
stp7476
asa(dp7477
g7
S'(ROOT (S (S (VP (VBG Speaking) (PP (IN in) (NP (NNP Washington))))) (, ,) (NP (NNP Parente)) (VP (VBD said) (SBAR (IN that) (S (NP (NNP Brazil)) (VP (MD would) (VP (VB aim) (PP (IN toward) (NP (NP (DT a) (NN surplus)) (PP (IN of) (NP (NP (NP (CD 2.6) (NN percent)) (PP (IN in) (NP (CD 1999)))) (, ,) (NP (NP (CD 2.8) (NN percent)) (PP (IN in) (NP (CD 2000)))) (CC and) (NP (NP (CD 3) (NN percent)) (PP (IN in) (NP (CD 2001))))))))))))) (. .)))'
p7478
sg9
S'Speaking in Washington, Parente said that Brazil would aim toward a surplus of 2.6 percent in 1999, 2.8 percent in 2000 and 3 percent in 2001.'
p7479
sg11
(lp7480
(S'root'
p7481
S'ROOT'
p7482
S'said'
p7483
tp7484
a(S'partmod'
p7485
S'said'
p7486
S'Speaking'
p7487
tp7488
a(S'prep_in'
p7489
S'Speaking'
p7490
S'Washington'
p7491
tp7492
a(S'nsubj'
p7493
S'said'
p7494
S'Parente'
p7495
tp7496
a(S'mark'
p7497
S'aim'
p7498
S'that'
p7499
tp7500
a(S'nsubj'
p7501
S'aim'
p7502
S'Brazil'
p7503
tp7504
a(S'aux'
p7505
S'aim'
p7506
S'would'
p7507
tp7508
a(S'ccomp'
p7509
S'said'
p7510
S'aim'
p7511
tp7512
a(S'det'
p7513
S'surplus'
p7514
g1774
tp7515
a(S'prep_toward'
p7516
S'aim'
p7517
S'surplus'
p7518
tp7519
a(S'num'
p7520
S'percent'
p7521
S'2.6'
p7522
tp7523
a(S'prep_of'
p7524
S'surplus'
p7525
S'percent'
p7526
tp7527
a(S'prep_in'
p7528
S'percent'
p7529
S'1999'
p7530
tp7531
a(S'num'
p7532
S'percent'
p7533
S'2.8'
p7534
tp7535
a(S'conj_and'
p7536
S'percent'
p7537
S'percent'
p7538
tp7539
a(S'prep_in'
p7540
S'percent'
p7541
S'2000'
p7542
tp7543
a(S'num'
p7544
S'percent'
p7545
S'3'
p7546
tp7547
a(S'conj_and'
p7548
S'percent'
p7549
S'percent'
p7550
tp7551
a(S'prep_in'
p7552
S'percent'
p7553
S'2001'
p7554
tp7555
asg49
(lp7556
(g7481
S'ROOT-0'
p7557
S'said-6'
p7558
tp7559
a(g7485
S'said-6'
p7560
S'Speaking-1'
p7561
tp7562
a(g7489
S'Speaking-1'
p7563
S'Washington-3'
p7564
tp7565
a(g7493
S'said-6'
p7566
S'Parente-5'
p7567
tp7568
a(g7497
S'aim-10'
p7569
S'that-7'
p7570
tp7571
a(g7501
S'aim-10'
p7572
S'Brazil-8'
p7573
tp7574
a(g7505
S'aim-10'
p7575
S'would-9'
p7576
tp7577
a(g7509
S'said-6'
p7578
S'aim-10'
p7579
tp7580
a(g7513
S'surplus-13'
p7581
S'a-12'
p7582
tp7583
a(g7516
S'aim-10'
p7584
S'surplus-13'
p7585
tp7586
a(g7520
S'percent-16'
p7587
S'2.6-15'
p7588
tp7589
a(g7524
S'surplus-13'
p7590
S'percent-16'
p7591
tp7592
a(g7528
S'percent-16'
p7593
S'1999-18'
p7594
tp7595
a(g7532
S'percent-21'
p7596
S'2.8-20'
p7597
tp7598
a(g7536
S'percent-16'
p7599
S'percent-21'
p7600
tp7601
a(g7540
S'percent-21'
p7602
S'2000-23'
p7603
tp7604
a(g7544
S'percent-26'
p7605
S'3-25'
p7606
tp7607
a(g7548
S'percent-16'
p7608
S'percent-26'
p7609
tp7610
a(g7552
S'percent-26'
p7611
S'2001-28'
p7612
tp7613
asg78
(lp7614
(S'Speaking'
p7615
(dp7616
S'NamedEntityTag'
p7617
g135
sS'CharacterOffsetEnd'
p7618
S'2222'
p7619
sS'Lemma'
p7620
S'speak'
p7621
sS'PartOfSpeech'
p7622
S'VBG'
p7623
sS'CharacterOffsetBegin'
p7624
S'2214'
p7625
stp7626
a(S'in'
p7627
(dp7628
S'NamedEntityTag'
p7629
g135
sS'CharacterOffsetEnd'
p7630
S'2225'
p7631
sS'Lemma'
p7632
S'in'
p7633
sS'PartOfSpeech'
p7634
S'IN'
p7635
sS'CharacterOffsetBegin'
p7636
S'2223'
p7637
stp7638
a(S'Washington'
p7639
(dp7640
S'NamedEntityTag'
p7641
S'LOCATION'
p7642
sS'CharacterOffsetEnd'
p7643
S'2236'
p7644
sS'Lemma'
p7645
S'Washington'
p7646
sS'PartOfSpeech'
p7647
S'NNP'
p7648
sS'CharacterOffsetBegin'
p7649
S'2226'
p7650
stp7651
a(g132
(dp7652
S'NamedEntityTag'
p7653
g135
sS'CharacterOffsetEnd'
p7654
S'2237'
p7655
sS'Lemma'
p7656
g132
sS'PartOfSpeech'
p7657
g132
sS'CharacterOffsetBegin'
p7658
S'2236'
p7659
stp7660
a(S'Parente'
p7661
(dp7662
S'NamedEntityTag'
p7663
S'PERSON'
p7664
sS'CharacterOffsetEnd'
p7665
S'2245'
p7666
sS'Lemma'
p7667
S'Parente'
p7668
sS'PartOfSpeech'
p7669
S'NNP'
p7670
sS'CharacterOffsetBegin'
p7671
S'2238'
p7672
stp7673
a(S'said'
p7674
(dp7675
S'NamedEntityTag'
p7676
g135
sS'CharacterOffsetEnd'
p7677
S'2250'
p7678
sS'Lemma'
p7679
S'say'
p7680
sS'PartOfSpeech'
p7681
S'VBD'
p7682
sS'CharacterOffsetBegin'
p7683
S'2246'
p7684
stp7685
a(S'that'
p7686
(dp7687
S'NamedEntityTag'
p7688
g135
sS'CharacterOffsetEnd'
p7689
S'2255'
p7690
sS'Lemma'
p7691
S'that'
p7692
sS'PartOfSpeech'
p7693
S'IN'
p7694
sS'CharacterOffsetBegin'
p7695
S'2251'
p7696
stp7697
a(S'Brazil'
p7698
(dp7699
S'NamedEntityTag'
p7700
S'LOCATION'
p7701
sS'CharacterOffsetEnd'
p7702
S'2262'
p7703
sS'Lemma'
p7704
S'Brazil'
p7705
sS'PartOfSpeech'
p7706
S'NNP'
p7707
sS'CharacterOffsetBegin'
p7708
S'2256'
p7709
stp7710
a(S'would'
p7711
(dp7712
S'NamedEntityTag'
p7713
g135
sS'CharacterOffsetEnd'
p7714
S'2268'
p7715
sS'Lemma'
p7716
S'would'
p7717
sS'PartOfSpeech'
p7718
S'MD'
p7719
sS'CharacterOffsetBegin'
p7720
S'2263'
p7721
stp7722
a(S'aim'
p7723
(dp7724
S'NamedEntityTag'
p7725
g135
sS'CharacterOffsetEnd'
p7726
S'2272'
p7727
sS'Lemma'
p7728
S'aim'
p7729
sS'PartOfSpeech'
p7730
S'VB'
p7731
sS'CharacterOffsetBegin'
p7732
S'2269'
p7733
stp7734
a(S'toward'
p7735
(dp7736
S'NamedEntityTag'
p7737
g135
sS'CharacterOffsetEnd'
p7738
S'2279'
p7739
sS'Lemma'
p7740
S'toward'
p7741
sS'PartOfSpeech'
p7742
S'IN'
p7743
sS'CharacterOffsetBegin'
p7744
S'2273'
p7745
stp7746
a(g1774
(dp7747
S'NamedEntityTag'
p7748
g135
sS'CharacterOffsetEnd'
p7749
S'2281'
p7750
sS'Lemma'
p7751
g1774
sS'PartOfSpeech'
p7752
S'DT'
p7753
sS'CharacterOffsetBegin'
p7754
S'2280'
p7755
stp7756
a(S'surplus'
p7757
(dp7758
S'NamedEntityTag'
p7759
g135
sS'CharacterOffsetEnd'
p7760
S'2289'
p7761
sS'Lemma'
p7762
S'surplus'
p7763
sS'PartOfSpeech'
p7764
S'NN'
p7765
sS'CharacterOffsetBegin'
p7766
S'2282'
p7767
stp7768
a(S'of'
p7769
(dp7770
S'NamedEntityTag'
p7771
g135
sS'CharacterOffsetEnd'
p7772
S'2292'
p7773
sS'Lemma'
p7774
S'of'
p7775
sS'PartOfSpeech'
p7776
S'IN'
p7777
sS'CharacterOffsetBegin'
p7778
S'2290'
p7779
stp7780
a(S'2.6'
p7781
(dp7782
S'NormalizedNamedEntityTag'
p7783
S'%2.6'
p7784
sS'Lemma'
p7785
S'2.6'
p7786
sS'CharacterOffsetEnd'
p7787
S'2296'
p7788
sS'PartOfSpeech'
p7789
S'CD'
p7790
sS'CharacterOffsetBegin'
p7791
S'2293'
p7792
sS'NamedEntityTag'
p7793
S'PERCENT'
p7794
stp7795
a(S'percent'
p7796
(dp7797
S'NormalizedNamedEntityTag'
p7798
S'%2.6'
p7799
sS'Lemma'
p7800
S'percent'
p7801
sS'CharacterOffsetEnd'
p7802
S'2304'
p7803
sS'PartOfSpeech'
p7804
S'NN'
p7805
sS'CharacterOffsetBegin'
p7806
S'2297'
p7807
sS'NamedEntityTag'
p7808
S'PERCENT'
p7809
stp7810
a(S'in'
p7811
(dp7812
S'NamedEntityTag'
p7813
g135
sS'CharacterOffsetEnd'
p7814
S'2307'
p7815
sS'Lemma'
p7816
S'in'
p7817
sS'PartOfSpeech'
p7818
S'IN'
p7819
sS'CharacterOffsetBegin'
p7820
S'2305'
p7821
stp7822
a(S'1999'
p7823
(dp7824
S'NormalizedNamedEntityTag'
p7825
S'1999'
p7826
sS'Timex'
p7827
S'<TIMEX3 tid="t11" type="DATE" value="1999">1999</TIMEX3>'
p7828
sS'Lemma'
p7829
S'1999'
p7830
sS'CharacterOffsetEnd'
p7831
S'2312'
p7832
sS'PartOfSpeech'
p7833
S'CD'
p7834
sS'CharacterOffsetBegin'
p7835
S'2308'
p7836
sS'NamedEntityTag'
p7837
S'DATE'
p7838
stp7839
a(g132
(dp7840
S'NamedEntityTag'
p7841
g135
sS'CharacterOffsetEnd'
p7842
S'2313'
p7843
sS'Lemma'
p7844
g132
sS'PartOfSpeech'
p7845
g132
sS'CharacterOffsetBegin'
p7846
S'2312'
p7847
stp7848
a(S'2.8'
p7849
(dp7850
S'NormalizedNamedEntityTag'
p7851
S'%2.8'
p7852
sS'Lemma'
p7853
S'2.8'
p7854
sS'CharacterOffsetEnd'
p7855
S'2317'
p7856
sS'PartOfSpeech'
p7857
S'CD'
p7858
sS'CharacterOffsetBegin'
p7859
S'2314'
p7860
sS'NamedEntityTag'
p7861
S'PERCENT'
p7862
stp7863
a(S'percent'
p7864
(dp7865
S'NormalizedNamedEntityTag'
p7866
S'%2.8'
p7867
sS'Lemma'
p7868
S'percent'
p7869
sS'CharacterOffsetEnd'
p7870
S'2325'
p7871
sS'PartOfSpeech'
p7872
S'NN'
p7873
sS'CharacterOffsetBegin'
p7874
S'2318'
p7875
sS'NamedEntityTag'
p7876
S'PERCENT'
p7877
stp7878
a(S'in'
p7879
(dp7880
S'NamedEntityTag'
p7881
g135
sS'CharacterOffsetEnd'
p7882
S'2328'
p7883
sS'Lemma'
p7884
S'in'
p7885
sS'PartOfSpeech'
p7886
S'IN'
p7887
sS'CharacterOffsetBegin'
p7888
S'2326'
p7889
stp7890
a(S'2000'
p7891
(dp7892
S'NormalizedNamedEntityTag'
p7893
S'2000'
p7894
sS'Timex'
p7895
S'<TIMEX3 tid="t12" type="DATE" value="2000">2000</TIMEX3>'
p7896
sS'Lemma'
p7897
S'2000'
p7898
sS'CharacterOffsetEnd'
p7899
S'2333'
p7900
sS'PartOfSpeech'
p7901
S'CD'
p7902
sS'CharacterOffsetBegin'
p7903
S'2329'
p7904
sS'NamedEntityTag'
p7905
S'DATE'
p7906
stp7907
a(S'and'
p7908
(dp7909
S'NamedEntityTag'
p7910
g135
sS'CharacterOffsetEnd'
p7911
S'2337'
p7912
sS'Lemma'
p7913
S'and'
p7914
sS'PartOfSpeech'
p7915
S'CC'
p7916
sS'CharacterOffsetBegin'
p7917
S'2334'
p7918
stp7919
a(g7546
(dp7920
S'NormalizedNamedEntityTag'
p7921
S'%3.0'
p7922
sS'Lemma'
p7923
g7546
sS'CharacterOffsetEnd'
p7924
S'2339'
p7925
sS'PartOfSpeech'
p7926
S'CD'
p7927
sS'CharacterOffsetBegin'
p7928
S'2338'
p7929
sS'NamedEntityTag'
p7930
S'PERCENT'
p7931
stp7932
a(S'percent'
p7933
(dp7934
S'NormalizedNamedEntityTag'
p7935
S'%3.0'
p7936
sS'Lemma'
p7937
S'percent'
p7938
sS'CharacterOffsetEnd'
p7939
S'2347'
p7940
sS'PartOfSpeech'
p7941
S'NN'
p7942
sS'CharacterOffsetBegin'
p7943
S'2340'
p7944
sS'NamedEntityTag'
p7945
S'PERCENT'
p7946
stp7947
a(S'in'
p7948
(dp7949
S'NamedEntityTag'
p7950
g135
sS'CharacterOffsetEnd'
p7951
S'2350'
p7952
sS'Lemma'
p7953
S'in'
p7954
sS'PartOfSpeech'
p7955
S'IN'
p7956
sS'CharacterOffsetBegin'
p7957
S'2348'
p7958
stp7959
a(S'2001'
p7960
(dp7961
S'NormalizedNamedEntityTag'
p7962
S'2001'
p7963
sS'Timex'
p7964
S'<TIMEX3 tid="t13" type="DATE" value="2001">2001</TIMEX3>'
p7965
sS'Lemma'
p7966
S'2001'
p7967
sS'CharacterOffsetEnd'
p7968
S'2355'
p7969
sS'PartOfSpeech'
p7970
S'CD'
p7971
sS'CharacterOffsetBegin'
p7972
S'2351'
p7973
sS'NamedEntityTag'
p7974
S'DATE'
p7975
stp7976
a(g422
(dp7977
S'NamedEntityTag'
p7978
g135
sS'CharacterOffsetEnd'
p7979
S'2356'
p7980
sS'Lemma'
p7981
g422
sS'PartOfSpeech'
p7982
g422
sS'CharacterOffsetBegin'
p7983
S'2355'
p7984
stp7985
asa(dp7986
g7
S'(ROOT (S (NP (PRP It)) (VP (VBD had) (ADVP (RB already)) (VP (VBN been) (VP (VBN announced) (, ,) (PP (IN at) (NP (NP (DT the) (NAC (NN end) (PP (IN of) (NP (DT the) (NNS IMFs)))) (JJ annual) (NN meeting)) (PP (IN in) (NP (NP (NNP Washington)) (ADVP (NP (CD two) (NNS weeks)) (IN ago)))) (SBAR (S (NP (DT that) (NNP Brazil)) (VP (MD would) (VP (VB have) (S (VP (TO to) (VP (VB reach) (NP (NP (DT a) (JJ primary) (NN account) (NN surplus)) (PP (IN of) (NP (CD 2.5) (NN percent)))) (PP (TO to) (NP (CD 3) (NN percent)))))) (S (VP (TO to) (VP (VB qualify) (PP (IN for) (NP (NNP IMF) (NN aid))))))))))))))) (. .)))'
p7987
sg9
S'It had already been announced, at the end of the IMFs annual meeting in Washington two weeks ago that Brazil would have to reach a primary account surplus of 2.5 percent to 3 percent to qualify for IMF aid.'
p7988
sg11
(lp7989
(S'root'
p7990
S'ROOT'
p7991
S'announced'
p7992
tp7993
a(S'nsubjpass'
p7994
S'announced'
p7995
S'It'
p7996
tp7997
a(S'aux'
p7998
S'announced'
p7999
S'had'
p8000
tp8001
a(S'advmod'
p8002
S'announced'
p8003
S'already'
p8004
tp8005
a(S'auxpass'
p8006
S'announced'
p8007
S'been'
p8008
tp8009
a(S'det'
p8010
S'meeting'
p8011
S'the'
p8012
tp8013
a(S'dep'
p8014
S'meeting'
p8015
S'end'
p8016
tp8017
a(S'det'
p8018
S'IMFs'
p8019
S'the'
p8020
tp8021
a(S'prep_of'
p8022
S'end'
p8023
S'IMFs'
p8024
tp8025
a(S'amod'
p8026
S'meeting'
p8027
S'annual'
p8028
tp8029
a(S'prep_at'
p8030
S'announced'
p8031
S'meeting'
p8032
tp8033
a(S'prep_in'
p8034
S'meeting'
p8035
S'Washington'
p8036
tp8037
a(S'num'
p8038
S'weeks'
p8039
S'two'
p8040
tp8041
a(S'npadvmod'
p8042
S'ago'
p8043
S'weeks'
p8044
tp8045
a(S'advmod'
p8046
S'Washington'
p8047
S'ago'
p8048
tp8049
a(S'det'
p8050
S'Brazil'
p8051
S'that'
p8052
tp8053
a(S'nsubj'
p8054
S'have'
p8055
S'Brazil'
p8056
tp8057
a(S'aux'
p8058
S'have'
p8059
S'would'
p8060
tp8061
a(S'rcmod'
p8062
S'meeting'
p8063
S'have'
p8064
tp8065
a(S'aux'
p8066
S'reach'
p8067
S'to'
p8068
tp8069
a(S'xcomp'
p8070
S'have'
p8071
S'reach'
p8072
tp8073
a(S'det'
p8074
S'surplus'
p8075
g1774
tp8076
a(S'amod'
p8077
S'surplus'
p8078
S'primary'
p8079
tp8080
a(S'nn'
p8081
S'surplus'
p8082
S'account'
p8083
tp8084
a(S'dobj'
p8085
S'reach'
p8086
S'surplus'
p8087
tp8088
a(S'num'
p8089
S'percent'
p8090
S'2.5'
p8091
tp8092
a(S'prep_of'
p8093
S'surplus'
p8094
S'percent'
p8095
tp8096
a(S'num'
p8097
S'percent'
p8098
g7546
tp8099
a(S'prep_to'
p8100
S'reach'
p8101
S'percent'
p8102
tp8103
a(S'aux'
p8104
S'qualify'
p8105
S'to'
p8106
tp8107
a(S'xcomp'
p8108
S'have'
p8109
S'qualify'
p8110
tp8111
a(S'nn'
p8112
S'aid'
p8113
S'IMF'
p8114
tp8115
a(S'prep_for'
p8116
S'qualify'
p8117
S'aid'
p8118
tp8119
asg49
(lp8120
(g7990
S'ROOT-0'
p8121
S'announced-5'
p8122
tp8123
a(g7994
S'announced-5'
p8124
S'It-1'
p8125
tp8126
a(g7998
S'announced-5'
p8127
S'had-2'
p8128
tp8129
a(g8002
S'announced-5'
p8130
S'already-3'
p8131
tp8132
a(g8006
S'announced-5'
p8133
S'been-4'
p8134
tp8135
a(g8010
S'meeting-14'
p8136
S'the-8'
p8137
tp8138
a(g8014
S'meeting-14'
p8139
S'end-9'
p8140
tp8141
a(g8018
S'IMFs-12'
p8142
S'the-11'
p8143
tp8144
a(g8022
S'end-9'
p8145
S'IMFs-12'
p8146
tp8147
a(g8026
S'meeting-14'
p8148
S'annual-13'
p8149
tp8150
a(g8030
S'announced-5'
p8151
S'meeting-14'
p8152
tp8153
a(g8034
S'meeting-14'
p8154
S'Washington-16'
p8155
tp8156
a(g8038
S'weeks-18'
p8157
S'two-17'
p8158
tp8159
a(g8042
S'ago-19'
p8160
S'weeks-18'
p8161
tp8162
a(g8046
S'Washington-16'
p8163
S'ago-19'
p8164
tp8165
a(g8050
S'Brazil-21'
p8166
S'that-20'
p8167
tp8168
a(g8054
S'have-23'
p8169
S'Brazil-21'
p8170
tp8171
a(g8058
S'have-23'
p8172
S'would-22'
p8173
tp8174
a(g8062
S'meeting-14'
p8175
S'have-23'
p8176
tp8177
a(g8066
S'reach-25'
p8178
S'to-24'
p8179
tp8180
a(g8070
S'have-23'
p8181
S'reach-25'
p8182
tp8183
a(g8074
S'surplus-29'
p8184
S'a-26'
p8185
tp8186
a(g8077
S'surplus-29'
p8187
S'primary-27'
p8188
tp8189
a(g8081
S'surplus-29'
p8190
S'account-28'
p8191
tp8192
a(g8085
S'reach-25'
p8193
S'surplus-29'
p8194
tp8195
a(g8089
S'percent-32'
p8196
S'2.5-31'
p8197
tp8198
a(g8093
S'surplus-29'
p8199
S'percent-32'
p8200
tp8201
a(g8097
S'percent-35'
p8202
S'3-34'
p8203
tp8204
a(g8100
S'reach-25'
p8205
S'percent-35'
p8206
tp8207
a(g8104
S'qualify-37'
p8208
S'to-36'
p8209
tp8210
a(g8108
S'have-23'
p8211
S'qualify-37'
p8212
tp8213
a(g8112
S'aid-40'
p8214
S'IMF-39'
p8215
tp8216
a(g8116
S'qualify-37'
p8217
S'aid-40'
p8218
tp8219
asg78
(lp8220
(S'It'
p8221
(dp8222
S'NamedEntityTag'
p8223
g135
sS'CharacterOffsetEnd'
p8224
S'2359'
p8225
sS'Lemma'
p8226
S'it'
p8227
sS'PartOfSpeech'
p8228
S'PRP'
p8229
sS'CharacterOffsetBegin'
p8230
S'2357'
p8231
stp8232
a(S'had'
p8233
(dp8234
S'NamedEntityTag'
p8235
g135
sS'CharacterOffsetEnd'
p8236
S'2363'
p8237
sS'Lemma'
p8238
S'have'
p8239
sS'PartOfSpeech'
p8240
S'VBD'
p8241
sS'CharacterOffsetBegin'
p8242
S'2360'
p8243
stp8244
a(S'already'
p8245
(dp8246
S'NamedEntityTag'
p8247
g135
sS'CharacterOffsetEnd'
p8248
S'2371'
p8249
sS'Lemma'
p8250
S'already'
p8251
sS'PartOfSpeech'
p8252
S'RB'
p8253
sS'CharacterOffsetBegin'
p8254
S'2364'
p8255
stp8256
a(S'been'
p8257
(dp8258
S'NamedEntityTag'
p8259
g135
sS'CharacterOffsetEnd'
p8260
S'2376'
p8261
sS'Lemma'
p8262
S'be'
p8263
sS'PartOfSpeech'
p8264
S'VBN'
p8265
sS'CharacterOffsetBegin'
p8266
S'2372'
p8267
stp8268
a(S'announced'
p8269
(dp8270
S'NamedEntityTag'
p8271
g135
sS'CharacterOffsetEnd'
p8272
S'2386'
p8273
sS'Lemma'
p8274
S'announce'
p8275
sS'PartOfSpeech'
p8276
S'VBN'
p8277
sS'CharacterOffsetBegin'
p8278
S'2377'
p8279
stp8280
a(g132
(dp8281
S'NamedEntityTag'
p8282
g135
sS'CharacterOffsetEnd'
p8283
S'2387'
p8284
sS'Lemma'
p8285
g132
sS'PartOfSpeech'
p8286
g132
sS'CharacterOffsetBegin'
p8287
S'2386'
p8288
stp8289
a(S'at'
p8290
(dp8291
S'NamedEntityTag'
p8292
g135
sS'CharacterOffsetEnd'
p8293
S'2390'
p8294
sS'Lemma'
p8295
S'at'
p8296
sS'PartOfSpeech'
p8297
S'IN'
p8298
sS'CharacterOffsetBegin'
p8299
S'2388'
p8300
stp8301
a(S'the'
p8302
(dp8303
S'NamedEntityTag'
p8304
g135
sS'CharacterOffsetEnd'
p8305
S'2394'
p8306
sS'Lemma'
p8307
S'the'
p8308
sS'PartOfSpeech'
p8309
S'DT'
p8310
sS'CharacterOffsetBegin'
p8311
S'2391'
p8312
stp8313
a(S'end'
p8314
(dp8315
S'NamedEntityTag'
p8316
g135
sS'CharacterOffsetEnd'
p8317
S'2398'
p8318
sS'Lemma'
p8319
S'end'
p8320
sS'PartOfSpeech'
p8321
S'NN'
p8322
sS'CharacterOffsetBegin'
p8323
S'2395'
p8324
stp8325
a(S'of'
p8326
(dp8327
S'NamedEntityTag'
p8328
g135
sS'CharacterOffsetEnd'
p8329
S'2401'
p8330
sS'Lemma'
p8331
S'of'
p8332
sS'PartOfSpeech'
p8333
S'IN'
p8334
sS'CharacterOffsetBegin'
p8335
S'2399'
p8336
stp8337
a(S'the'
p8338
(dp8339
S'NamedEntityTag'
p8340
g135
sS'CharacterOffsetEnd'
p8341
S'2405'
p8342
sS'Lemma'
p8343
S'the'
p8344
sS'PartOfSpeech'
p8345
S'DT'
p8346
sS'CharacterOffsetBegin'
p8347
S'2402'
p8348
stp8349
a(S'IMFs'
p8350
(dp8351
S'NamedEntityTag'
p8352
S'MISC'
p8353
sS'CharacterOffsetEnd'
p8354
S'2410'
p8355
sS'Lemma'
p8356
S'imf'
p8357
sS'PartOfSpeech'
p8358
S'NNS'
p8359
sS'CharacterOffsetBegin'
p8360
S'2406'
p8361
stp8362
a(S'annual'
p8363
(dp8364
S'Timex'
p8365
S'<TIMEX3 freq="P1X" periodicity="P1Y" quant="EVERY" tid="t14" type="SET" value="P1Y">annual</TIMEX3>'
p8366
sS'Lemma'
p8367
S'annual'
p8368
sS'CharacterOffsetEnd'
p8369
S'2417'
p8370
sS'PartOfSpeech'
p8371
S'JJ'
p8372
sS'CharacterOffsetBegin'
p8373
S'2411'
p8374
sS'NamedEntityTag'
p8375
S'SET'
p8376
stp8377
a(S'meeting'
p8378
(dp8379
S'NamedEntityTag'
p8380
g135
sS'CharacterOffsetEnd'
p8381
S'2425'
p8382
sS'Lemma'
p8383
S'meeting'
p8384
sS'PartOfSpeech'
p8385
S'NN'
p8386
sS'CharacterOffsetBegin'
p8387
S'2418'
p8388
stp8389
a(S'in'
p8390
(dp8391
S'NamedEntityTag'
p8392
g135
sS'CharacterOffsetEnd'
p8393
S'2428'
p8394
sS'Lemma'
p8395
S'in'
p8396
sS'PartOfSpeech'
p8397
S'IN'
p8398
sS'CharacterOffsetBegin'
p8399
S'2426'
p8400
stp8401
a(S'Washington'
p8402
(dp8403
S'NamedEntityTag'
p8404
S'LOCATION'
p8405
sS'CharacterOffsetEnd'
p8406
S'2439'
p8407
sS'Lemma'
p8408
S'Washington'
p8409
sS'PartOfSpeech'
p8410
S'NNP'
p8411
sS'CharacterOffsetBegin'
p8412
S'2429'
p8413
stp8414
a(S'two'
p8415
(dp8416
S'NormalizedNamedEntityTag'
p8417
S'OFFSET'
p8418
sS'Timex'
p8419
S'<TIMEX3 alt_value="OFFSET P-2W" anchorTimeID="t0" temporalFunction="true" tid="t15" type="DATE" valueFromFunction="tf1">two weeks ago</TIMEX3>'
p8420
sS'Lemma'
p8421
S'two'
p8422
sS'CharacterOffsetEnd'
p8423
S'2443'
p8424
sS'PartOfSpeech'
p8425
S'CD'
p8426
sS'CharacterOffsetBegin'
p8427
S'2440'
p8428
sS'NamedEntityTag'
p8429
S'DATE'
p8430
stp8431
a(S'weeks'
p8432
(dp8433
S'NormalizedNamedEntityTag'
p8434
S'OFFSET'
p8435
sS'Timex'
p8436
S'<TIMEX3 alt_value="OFFSET P-2W" anchorTimeID="t0" temporalFunction="true" tid="t15" type="DATE" valueFromFunction="tf1">two weeks ago</TIMEX3>'
p8437
sS'Lemma'
p8438
S'week'
p8439
sS'CharacterOffsetEnd'
p8440
S'2449'
p8441
sS'PartOfSpeech'
p8442
S'NNS'
p8443
sS'CharacterOffsetBegin'
p8444
S'2444'
p8445
sS'NamedEntityTag'
p8446
S'DATE'
p8447
stp8448
a(S'ago'
p8449
(dp8450
S'NormalizedNamedEntityTag'
p8451
S'OFFSET'
p8452
sS'Timex'
p8453
S'<TIMEX3 alt_value="OFFSET P-2W" anchorTimeID="t0" temporalFunction="true" tid="t15" type="DATE" valueFromFunction="tf1">two weeks ago</TIMEX3>'
p8454
sS'Lemma'
p8455
S'ago'
p8456
sS'CharacterOffsetEnd'
p8457
S'2453'
p8458
sS'PartOfSpeech'
p8459
S'IN'
p8460
sS'CharacterOffsetBegin'
p8461
S'2450'
p8462
sS'NamedEntityTag'
p8463
S'DATE'
p8464
stp8465
a(S'that'
p8466
(dp8467
S'NamedEntityTag'
p8468
g135
sS'CharacterOffsetEnd'
p8469
S'2458'
p8470
sS'Lemma'
p8471
S'that'
p8472
sS'PartOfSpeech'
p8473
S'DT'
p8474
sS'CharacterOffsetBegin'
p8475
S'2454'
p8476
stp8477
a(S'Brazil'
p8478
(dp8479
S'NamedEntityTag'
p8480
S'LOCATION'
p8481
sS'CharacterOffsetEnd'
p8482
S'2465'
p8483
sS'Lemma'
p8484
S'Brazil'
p8485
sS'PartOfSpeech'
p8486
S'NNP'
p8487
sS'CharacterOffsetBegin'
p8488
S'2459'
p8489
stp8490
a(S'would'
p8491
(dp8492
S'NamedEntityTag'
p8493
g135
sS'CharacterOffsetEnd'
p8494
S'2471'
p8495
sS'Lemma'
p8496
S'would'
p8497
sS'PartOfSpeech'
p8498
S'MD'
p8499
sS'CharacterOffsetBegin'
p8500
S'2466'
p8501
stp8502
a(S'have'
p8503
(dp8504
S'NamedEntityTag'
p8505
g135
sS'CharacterOffsetEnd'
p8506
S'2476'
p8507
sS'Lemma'
p8508
S'have'
p8509
sS'PartOfSpeech'
p8510
S'VB'
p8511
sS'CharacterOffsetBegin'
p8512
S'2472'
p8513
stp8514
a(S'to'
p8515
(dp8516
S'NamedEntityTag'
p8517
g135
sS'CharacterOffsetEnd'
p8518
S'2479'
p8519
sS'Lemma'
p8520
S'to'
p8521
sS'PartOfSpeech'
p8522
S'TO'
p8523
sS'CharacterOffsetBegin'
p8524
S'2477'
p8525
stp8526
a(S'reach'
p8527
(dp8528
S'NamedEntityTag'
p8529
g135
sS'CharacterOffsetEnd'
p8530
S'2485'
p8531
sS'Lemma'
p8532
S'reach'
p8533
sS'PartOfSpeech'
p8534
S'VB'
p8535
sS'CharacterOffsetBegin'
p8536
S'2480'
p8537
stp8538
a(g1774
(dp8539
S'NamedEntityTag'
p8540
g135
sS'CharacterOffsetEnd'
p8541
S'2487'
p8542
sS'Lemma'
p8543
g1774
sS'PartOfSpeech'
p8544
S'DT'
p8545
sS'CharacterOffsetBegin'
p8546
S'2486'
p8547
stp8548
a(S'primary'
p8549
(dp8550
S'NamedEntityTag'
p8551
g135
sS'CharacterOffsetEnd'
p8552
S'2495'
p8553
sS'Lemma'
p8554
S'primary'
p8555
sS'PartOfSpeech'
p8556
S'JJ'
p8557
sS'CharacterOffsetBegin'
p8558
S'2488'
p8559
stp8560
a(S'account'
p8561
(dp8562
S'NamedEntityTag'
p8563
g135
sS'CharacterOffsetEnd'
p8564
S'2503'
p8565
sS'Lemma'
p8566
S'account'
p8567
sS'PartOfSpeech'
p8568
S'NN'
p8569
sS'CharacterOffsetBegin'
p8570
S'2496'
p8571
stp8572
a(S'surplus'
p8573
(dp8574
S'NamedEntityTag'
p8575
g135
sS'CharacterOffsetEnd'
p8576
S'2511'
p8577
sS'Lemma'
p8578
S'surplus'
p8579
sS'PartOfSpeech'
p8580
S'NN'
p8581
sS'CharacterOffsetBegin'
p8582
S'2504'
p8583
stp8584
a(S'of'
p8585
(dp8586
S'NamedEntityTag'
p8587
g135
sS'CharacterOffsetEnd'
p8588
S'2514'
p8589
sS'Lemma'
p8590
S'of'
p8591
sS'PartOfSpeech'
p8592
S'IN'
p8593
sS'CharacterOffsetBegin'
p8594
S'2512'
p8595
stp8596
a(S'2.5'
p8597
(dp8598
S'NormalizedNamedEntityTag'
p8599
S'%2.5'
p8600
sS'Lemma'
p8601
S'2.5'
p8602
sS'CharacterOffsetEnd'
p8603
S'2518'
p8604
sS'PartOfSpeech'
p8605
S'CD'
p8606
sS'CharacterOffsetBegin'
p8607
S'2515'
p8608
sS'NamedEntityTag'
p8609
S'PERCENT'
p8610
stp8611
a(S'percent'
p8612
(dp8613
S'NormalizedNamedEntityTag'
p8614
S'%2.5'
p8615
sS'Lemma'
p8616
S'percent'
p8617
sS'CharacterOffsetEnd'
p8618
S'2526'
p8619
sS'PartOfSpeech'
p8620
S'NN'
p8621
sS'CharacterOffsetBegin'
p8622
S'2519'
p8623
sS'NamedEntityTag'
p8624
S'PERCENT'
p8625
stp8626
a(S'to'
p8627
(dp8628
S'NamedEntityTag'
p8629
g135
sS'CharacterOffsetEnd'
p8630
S'2529'
p8631
sS'Lemma'
p8632
S'to'
p8633
sS'PartOfSpeech'
p8634
S'TO'
p8635
sS'CharacterOffsetBegin'
p8636
S'2527'
p8637
stp8638
a(g7546
(dp8639
S'NormalizedNamedEntityTag'
p8640
S'%3.0'
p8641
sS'Lemma'
p8642
g7546
sS'CharacterOffsetEnd'
p8643
S'2531'
p8644
sS'PartOfSpeech'
p8645
S'CD'
p8646
sS'CharacterOffsetBegin'
p8647
S'2530'
p8648
sS'NamedEntityTag'
p8649
S'PERCENT'
p8650
stp8651
a(S'percent'
p8652
(dp8653
S'NormalizedNamedEntityTag'
p8654
S'%3.0'
p8655
sS'Lemma'
p8656
S'percent'
p8657
sS'CharacterOffsetEnd'
p8658
S'2539'
p8659
sS'PartOfSpeech'
p8660
S'NN'
p8661
sS'CharacterOffsetBegin'
p8662
S'2532'
p8663
sS'NamedEntityTag'
p8664
S'PERCENT'
p8665
stp8666
a(S'to'
p8667
(dp8668
S'NamedEntityTag'
p8669
g135
sS'CharacterOffsetEnd'
p8670
S'2542'
p8671
sS'Lemma'
p8672
S'to'
p8673
sS'PartOfSpeech'
p8674
S'TO'
p8675
sS'CharacterOffsetBegin'
p8676
S'2540'
p8677
stp8678
a(S'qualify'
p8679
(dp8680
S'NamedEntityTag'
p8681
g135
sS'CharacterOffsetEnd'
p8682
S'2550'
p8683
sS'Lemma'
p8684
S'qualify'
p8685
sS'PartOfSpeech'
p8686
S'VB'
p8687
sS'CharacterOffsetBegin'
p8688
S'2543'
p8689
stp8690
a(S'for'
p8691
(dp8692
S'NamedEntityTag'
p8693
g135
sS'CharacterOffsetEnd'
p8694
S'2554'
p8695
sS'Lemma'
p8696
S'for'
p8697
sS'PartOfSpeech'
p8698
S'IN'
p8699
sS'CharacterOffsetBegin'
p8700
S'2551'
p8701
stp8702
a(S'IMF'
p8703
(dp8704
S'NamedEntityTag'
p8705
S'ORGANIZATION'
p8706
sS'CharacterOffsetEnd'
p8707
S'2558'
p8708
sS'Lemma'
p8709
S'IMF'
p8710
sS'PartOfSpeech'
p8711
S'NNP'
p8712
sS'CharacterOffsetBegin'
p8713
S'2555'
p8714
stp8715
a(S'aid'
p8716
(dp8717
S'NamedEntityTag'
p8718
g135
sS'CharacterOffsetEnd'
p8719
S'2562'
p8720
sS'Lemma'
p8721
S'aid'
p8722
sS'PartOfSpeech'
p8723
S'NN'
p8724
sS'CharacterOffsetBegin'
p8725
S'2559'
p8726
stp8727
a(g422
(dp8728
S'NamedEntityTag'
p8729
g135
sS'CharacterOffsetEnd'
p8730
S'2563'
p8731
sS'Lemma'
p8732
g422
sS'PartOfSpeech'
p8733
g422
sS'CharacterOffsetBegin'
p8734
S'2562'
p8735
stp8736
asa(dp8737
g7
S'(ROOT (S (NP (DT The) (JJ primary) (NN account)) (VP (VBZ covers) (NP (NN government) (NNS expenses)) (, ,) (PP (IN without) (NP (NP (NN interest) (NNS payments)) (PP (IN on) (NP (NN debt)))))) (. .)))'
p8738
sg9
S'The primary account covers government expenses, without interest payments on debt.'
p8739
sg11
(lp8740
(S'root'
p8741
S'ROOT'
p8742
S'covers'
p8743
tp8744
a(S'det'
p8745
S'account'
p8746
S'The'
p8747
tp8748
a(S'amod'
p8749
S'account'
p8750
S'primary'
p8751
tp8752
a(S'nsubj'
p8753
S'covers'
p8754
S'account'
p8755
tp8756
a(S'nn'
p8757
S'expenses'
p8758
S'government'
p8759
tp8760
a(S'dobj'
p8761
S'covers'
p8762
S'expenses'
p8763
tp8764
a(S'nn'
p8765
S'payments'
p8766
S'interest'
p8767
tp8768
a(S'prep_without'
p8769
S'covers'
p8770
S'payments'
p8771
tp8772
a(S'prep_on'
p8773
S'payments'
p8774
S'debt'
p8775
tp8776
asg49
(lp8777
(g8741
S'ROOT-0'
p8778
S'covers-4'
p8779
tp8780
a(g8745
S'account-3'
p8781
S'The-1'
p8782
tp8783
a(g8749
S'account-3'
p8784
S'primary-2'
p8785
tp8786
a(g8753
S'covers-4'
p8787
S'account-3'
p8788
tp8789
a(g8757
S'expenses-6'
p8790
S'government-5'
p8791
tp8792
a(g8761
S'covers-4'
p8793
S'expenses-6'
p8794
tp8795
a(g8765
S'payments-10'
p8796
S'interest-9'
p8797
tp8798
a(g8769
S'covers-4'
p8799
S'payments-10'
p8800
tp8801
a(g8773
S'payments-10'
p8802
S'debt-12'
p8803
tp8804
asg78
(lp8805
(S'The'
p8806
(dp8807
S'NamedEntityTag'
p8808
g135
sS'CharacterOffsetEnd'
p8809
S'2567'
p8810
sS'Lemma'
p8811
S'the'
p8812
sS'PartOfSpeech'
p8813
S'DT'
p8814
sS'CharacterOffsetBegin'
p8815
S'2564'
p8816
stp8817
a(S'primary'
p8818
(dp8819
S'NamedEntityTag'
p8820
g135
sS'CharacterOffsetEnd'
p8821
S'2575'
p8822
sS'Lemma'
p8823
S'primary'
p8824
sS'PartOfSpeech'
p8825
S'JJ'
p8826
sS'CharacterOffsetBegin'
p8827
S'2568'
p8828
stp8829
a(S'account'
p8830
(dp8831
S'NamedEntityTag'
p8832
g135
sS'CharacterOffsetEnd'
p8833
S'2583'
p8834
sS'Lemma'
p8835
S'account'
p8836
sS'PartOfSpeech'
p8837
S'NN'
p8838
sS'CharacterOffsetBegin'
p8839
S'2576'
p8840
stp8841
a(S'covers'
p8842
(dp8843
S'NamedEntityTag'
p8844
g135
sS'CharacterOffsetEnd'
p8845
S'2590'
p8846
sS'Lemma'
p8847
S'cover'
p8848
sS'PartOfSpeech'
p8849
S'VBZ'
p8850
sS'CharacterOffsetBegin'
p8851
S'2584'
p8852
stp8853
a(S'government'
p8854
(dp8855
S'NamedEntityTag'
p8856
g135
sS'CharacterOffsetEnd'
p8857
S'2601'
p8858
sS'Lemma'
p8859
S'government'
p8860
sS'PartOfSpeech'
p8861
S'NN'
p8862
sS'CharacterOffsetBegin'
p8863
S'2591'
p8864
stp8865
a(S'expenses'
p8866
(dp8867
S'NamedEntityTag'
p8868
g135
sS'CharacterOffsetEnd'
p8869
S'2610'
p8870
sS'Lemma'
p8871
S'expense'
p8872
sS'PartOfSpeech'
p8873
S'NNS'
p8874
sS'CharacterOffsetBegin'
p8875
S'2602'
p8876
stp8877
a(g132
(dp8878
S'NamedEntityTag'
p8879
g135
sS'CharacterOffsetEnd'
p8880
S'2611'
p8881
sS'Lemma'
p8882
g132
sS'PartOfSpeech'
p8883
g132
sS'CharacterOffsetBegin'
p8884
S'2610'
p8885
stp8886
a(S'without'
p8887
(dp8888
S'NamedEntityTag'
p8889
g135
sS'CharacterOffsetEnd'
p8890
S'2619'
p8891
sS'Lemma'
p8892
S'without'
p8893
sS'PartOfSpeech'
p8894
S'IN'
p8895
sS'CharacterOffsetBegin'
p8896
S'2612'
p8897
stp8898
a(S'interest'
p8899
(dp8900
S'NamedEntityTag'
p8901
g135
sS'CharacterOffsetEnd'
p8902
S'2628'
p8903
sS'Lemma'
p8904
S'interest'
p8905
sS'PartOfSpeech'
p8906
S'NN'
p8907
sS'CharacterOffsetBegin'
p8908
S'2620'
p8909
stp8910
a(S'payments'
p8911
(dp8912
S'NamedEntityTag'
p8913
g135
sS'CharacterOffsetEnd'
p8914
S'2637'
p8915
sS'Lemma'
p8916
S'payment'
p8917
sS'PartOfSpeech'
p8918
S'NNS'
p8919
sS'CharacterOffsetBegin'
p8920
S'2629'
p8921
stp8922
a(S'on'
p8923
(dp8924
S'NamedEntityTag'
p8925
g135
sS'CharacterOffsetEnd'
p8926
S'2640'
p8927
sS'Lemma'
p8928
S'on'
p8929
sS'PartOfSpeech'
p8930
S'IN'
p8931
sS'CharacterOffsetBegin'
p8932
S'2638'
p8933
stp8934
a(S'debt'
p8935
(dp8936
S'NamedEntityTag'
p8937
g135
sS'CharacterOffsetEnd'
p8938
S'2645'
p8939
sS'Lemma'
p8940
S'debt'
p8941
sS'PartOfSpeech'
p8942
S'NN'
p8943
sS'CharacterOffsetBegin'
p8944
S'2641'
p8945
stp8946
a(g422
(dp8947
S'NamedEntityTag'
p8948
g135
sS'CharacterOffsetEnd'
p8949
S'2646'
p8950
sS'Lemma'
p8951
g422
sS'PartOfSpeech'
p8952
g422
sS'CharacterOffsetBegin'
p8953
S'2645'
p8954
stp8955
asa(dp8956
g7
S'(ROOT (S (NP (NP (NNP Ernest) (NNP Brown)) (, ,) (NP (NP (JJ senior) (NN economist)) (PP (IN for) (NP (NP (NNP Latin) (NNP America)) (PP (IN at) (NP (NNP Morgan) (NNP Stanley) (NNP Dean) (NNP Witter)))))) (, ,)) (VP (VBD said) (NP (NNS signs)) (SBAR (SBAR (IN that) (S (NP (NP (DT the) (JJ Brazilian) (NN government)) (CC and) (NP (DT the) (NNP IMF))) (VP (VBD were) (VP (VBG moving) (ADVP (JJR closer) (PP (TO to) (NP (NP (DT an) (NN aid) (NN package)) (SBAR (S (VP (VBD were) (ADJP (VBG reassuring)))))))))))) (, ,) (CC and) (SBAR (IN that) (S (NP (PRP he)) (VP (VBD did) (RB not) (VP (VB expect) (ADJP (ADJP (RB much) (JJR more)) (PP (IN than) (NP (NN reassurance)))) (PP (IN until) (NP (JJ next) (NN week))))))))) (. .)))'
p8957
sg9
S'Ernest Brown, senior economist for Latin America at Morgan Stanley Dean Witter, said signs that the Brazilian government and the IMF were moving closer to an aid package were reassuring, and that he did not expect much more than reassurance until next week.'
p8958
sg11
(lp8959
(S'root'
p8960
S'ROOT'
p8961
S'said'
p8962
tp8963
a(S'nn'
p8964
S'Brown'
p8965
S'Ernest'
p8966
tp8967
a(S'nsubj'
p8968
S'said'
p8969
S'Brown'
p8970
tp8971
a(S'amod'
p8972
S'economist'
p8973
S'senior'
p8974
tp8975
a(S'appos'
p8976
S'Brown'
p8977
S'economist'
p8978
tp8979
a(S'nn'
p8980
S'America'
p8981
S'Latin'
p8982
tp8983
a(S'prep_for'
p8984
S'economist'
p8985
S'America'
p8986
tp8987
a(S'nn'
p8988
S'Witter'
p8989
S'Morgan'
p8990
tp8991
a(S'nn'
p8992
S'Witter'
p8993
S'Stanley'
p8994
tp8995
a(S'nn'
p8996
S'Witter'
p8997
S'Dean'
p8998
tp8999
a(S'prep_at'
p9000
S'America'
p9001
S'Witter'
p9002
tp9003
a(S'dobj'
p9004
S'said'
p9005
S'signs'
p9006
tp9007
a(S'mark'
p9008
S'moving'
p9009
S'that'
p9010
tp9011
a(S'det'
p9012
S'government'
p9013
S'the'
p9014
tp9015
a(S'amod'
p9016
S'government'
p9017
S'Brazilian'
p9018
tp9019
a(S'nsubj'
p9020
S'moving'
p9021
S'government'
p9022
tp9023
a(S'det'
p9024
S'IMF'
p9025
S'the'
p9026
tp9027
a(S'conj_and'
p9028
S'government'
p9029
S'IMF'
p9030
tp9031
a(S'aux'
p9032
S'moving'
p9033
S'were'
p9034
tp9035
a(S'ccomp'
p9036
S'said'
p9037
S'moving'
p9038
tp9039
a(S'advmod'
p9040
S'moving'
p9041
S'closer'
p9042
tp9043
a(S'det'
p9044
S'package'
p9045
S'an'
p9046
tp9047
a(S'nn'
p9048
S'package'
p9049
S'aid'
p9050
tp9051
a(S'prep_to'
p9052
S'closer'
p9053
S'package'
p9054
tp9055
a(S'cop'
p9056
S'reassuring'
p9057
S'were'
p9058
tp9059
a(S'rcmod'
p9060
S'package'
p9061
S'reassuring'
p9062
tp9063
a(S'mark'
p9064
S'expect'
p9065
S'that'
p9066
tp9067
a(S'nsubj'
p9068
S'expect'
p9069
S'he'
p9070
tp9071
a(S'aux'
p9072
S'expect'
p9073
S'did'
p9074
tp9075
a(S'neg'
p9076
S'expect'
p9077
S'not'
p9078
tp9079
a(S'conj_and'
p9080
S'moving'
p9081
S'expect'
p9082
tp9083
a(S'advmod'
p9084
S'more'
p9085
S'much'
p9086
tp9087
a(S'acomp'
p9088
S'expect'
p9089
S'more'
p9090
tp9091
a(S'prep_than'
p9092
S'more'
p9093
S'reassurance'
p9094
tp9095
a(S'amod'
p9096
S'week'
p9097
S'next'
p9098
tp9099
a(S'prep_until'
p9100
S'expect'
p9101
S'week'
p9102
tp9103
asg49
(lp9104
(g8960
S'ROOT-0'
p9105
S'said-15'
p9106
tp9107
a(g8964
S'Brown-2'
p9108
S'Ernest-1'
p9109
tp9110
a(g8968
S'said-15'
p9111
S'Brown-2'
p9112
tp9113
a(g8972
S'economist-5'
p9114
S'senior-4'
p9115
tp9116
a(g8976
S'Brown-2'
p9117
S'economist-5'
p9118
tp9119
a(g8980
S'America-8'
p9120
S'Latin-7'
p9121
tp9122
a(g8984
S'economist-5'
p9123
S'America-8'
p9124
tp9125
a(g8988
S'Witter-13'
p9126
S'Morgan-10'
p9127
tp9128
a(g8992
S'Witter-13'
p9129
S'Stanley-11'
p9130
tp9131
a(g8996
S'Witter-13'
p9132
S'Dean-12'
p9133
tp9134
a(g9000
S'America-8'
p9135
S'Witter-13'
p9136
tp9137
a(g9004
S'said-15'
p9138
S'signs-16'
p9139
tp9140
a(g9008
S'moving-25'
p9141
S'that-17'
p9142
tp9143
a(g9012
S'government-20'
p9144
S'the-18'
p9145
tp9146
a(g9016
S'government-20'
p9147
S'Brazilian-19'
p9148
tp9149
a(g9020
S'moving-25'
p9150
S'government-20'
p9151
tp9152
a(g9024
S'IMF-23'
p9153
S'the-22'
p9154
tp9155
a(g9028
S'government-20'
p9156
S'IMF-23'
p9157
tp9158
a(g9032
S'moving-25'
p9159
S'were-24'
p9160
tp9161
a(g9036
S'said-15'
p9162
S'moving-25'
p9163
tp9164
a(g9040
S'moving-25'
p9165
S'closer-26'
p9166
tp9167
a(g9044
S'package-30'
p9168
S'an-28'
p9169
tp9170
a(g9048
S'package-30'
p9171
S'aid-29'
p9172
tp9173
a(g9052
S'closer-26'
p9174
S'package-30'
p9175
tp9176
a(g9056
S'reassuring-32'
p9177
S'were-31'
p9178
tp9179
a(g9060
S'package-30'
p9180
S'reassuring-32'
p9181
tp9182
a(g9064
S'expect-39'
p9183
S'that-35'
p9184
tp9185
a(g9068
S'expect-39'
p9186
S'he-36'
p9187
tp9188
a(g9072
S'expect-39'
p9189
S'did-37'
p9190
tp9191
a(g9076
S'expect-39'
p9192
S'not-38'
p9193
tp9194
a(g9080
S'moving-25'
p9195
S'expect-39'
p9196
tp9197
a(g9084
S'more-41'
p9198
S'much-40'
p9199
tp9200
a(g9088
S'expect-39'
p9201
S'more-41'
p9202
tp9203
a(g9092
S'more-41'
p9204
S'reassurance-43'
p9205
tp9206
a(g9096
S'week-46'
p9207
S'next-45'
p9208
tp9209
a(g9100
S'expect-39'
p9210
S'week-46'
p9211
tp9212
asg78
(lp9213
(S'Ernest'
p9214
(dp9215
S'NamedEntityTag'
p9216
S'PERSON'
p9217
sS'CharacterOffsetEnd'
p9218
S'2653'
p9219
sS'Lemma'
p9220
S'Ernest'
p9221
sS'PartOfSpeech'
p9222
S'NNP'
p9223
sS'CharacterOffsetBegin'
p9224
S'2647'
p9225
stp9226
a(S'Brown'
p9227
(dp9228
S'NamedEntityTag'
p9229
S'PERSON'
p9230
sS'CharacterOffsetEnd'
p9231
S'2659'
p9232
sS'Lemma'
p9233
S'Brown'
p9234
sS'PartOfSpeech'
p9235
S'NNP'
p9236
sS'CharacterOffsetBegin'
p9237
S'2654'
p9238
stp9239
a(g132
(dp9240
S'NamedEntityTag'
p9241
g135
sS'CharacterOffsetEnd'
p9242
S'2660'
p9243
sS'Lemma'
p9244
g132
sS'PartOfSpeech'
p9245
g132
sS'CharacterOffsetBegin'
p9246
S'2659'
p9247
stp9248
a(S'senior'
p9249
(dp9250
S'NamedEntityTag'
p9251
g135
sS'CharacterOffsetEnd'
p9252
S'2667'
p9253
sS'Lemma'
p9254
S'senior'
p9255
sS'PartOfSpeech'
p9256
S'JJ'
p9257
sS'CharacterOffsetBegin'
p9258
S'2661'
p9259
stp9260
a(S'economist'
p9261
(dp9262
S'NamedEntityTag'
p9263
g135
sS'CharacterOffsetEnd'
p9264
S'2677'
p9265
sS'Lemma'
p9266
S'economist'
p9267
sS'PartOfSpeech'
p9268
S'NN'
p9269
sS'CharacterOffsetBegin'
p9270
S'2668'
p9271
stp9272
a(S'for'
p9273
(dp9274
S'NamedEntityTag'
p9275
g135
sS'CharacterOffsetEnd'
p9276
S'2681'
p9277
sS'Lemma'
p9278
S'for'
p9279
sS'PartOfSpeech'
p9280
S'IN'
p9281
sS'CharacterOffsetBegin'
p9282
S'2678'
p9283
stp9284
a(S'Latin'
p9285
(dp9286
S'NamedEntityTag'
p9287
S'LOCATION'
p9288
sS'CharacterOffsetEnd'
p9289
S'2687'
p9290
sS'Lemma'
p9291
S'Latin'
p9292
sS'PartOfSpeech'
p9293
S'NNP'
p9294
sS'CharacterOffsetBegin'
p9295
S'2682'
p9296
stp9297
a(S'America'
p9298
(dp9299
S'NamedEntityTag'
p9300
S'LOCATION'
p9301
sS'CharacterOffsetEnd'
p9302
S'2695'
p9303
sS'Lemma'
p9304
S'America'
p9305
sS'PartOfSpeech'
p9306
S'NNP'
p9307
sS'CharacterOffsetBegin'
p9308
S'2688'
p9309
stp9310
a(S'at'
p9311
(dp9312
S'NamedEntityTag'
p9313
g135
sS'CharacterOffsetEnd'
p9314
S'2698'
p9315
sS'Lemma'
p9316
S'at'
p9317
sS'PartOfSpeech'
p9318
S'IN'
p9319
sS'CharacterOffsetBegin'
p9320
S'2696'
p9321
stp9322
a(S'Morgan'
p9323
(dp9324
S'NamedEntityTag'
p9325
S'ORGANIZATION'
p9326
sS'CharacterOffsetEnd'
p9327
S'2705'
p9328
sS'Lemma'
p9329
S'Morgan'
p9330
sS'PartOfSpeech'
p9331
S'NNP'
p9332
sS'CharacterOffsetBegin'
p9333
S'2699'
p9334
stp9335
a(S'Stanley'
p9336
(dp9337
S'NamedEntityTag'
p9338
S'ORGANIZATION'
p9339
sS'CharacterOffsetEnd'
p9340
S'2713'
p9341
sS'Lemma'
p9342
S'Stanley'
p9343
sS'PartOfSpeech'
p9344
S'NNP'
p9345
sS'CharacterOffsetBegin'
p9346
S'2706'
p9347
stp9348
a(S'Dean'
p9349
(dp9350
S'NamedEntityTag'
p9351
S'ORGANIZATION'
p9352
sS'CharacterOffsetEnd'
p9353
S'2718'
p9354
sS'Lemma'
p9355
S'Dean'
p9356
sS'PartOfSpeech'
p9357
S'NNP'
p9358
sS'CharacterOffsetBegin'
p9359
S'2714'
p9360
stp9361
a(S'Witter'
p9362
(dp9363
S'NamedEntityTag'
p9364
S'ORGANIZATION'
p9365
sS'CharacterOffsetEnd'
p9366
S'2725'
p9367
sS'Lemma'
p9368
S'Witter'
p9369
sS'PartOfSpeech'
p9370
S'NNP'
p9371
sS'CharacterOffsetBegin'
p9372
S'2719'
p9373
stp9374
a(g132
(dp9375
S'NamedEntityTag'
p9376
g135
sS'CharacterOffsetEnd'
p9377
S'2726'
p9378
sS'Lemma'
p9379
g132
sS'PartOfSpeech'
p9380
g132
sS'CharacterOffsetBegin'
p9381
S'2725'
p9382
stp9383
a(S'said'
p9384
(dp9385
S'NamedEntityTag'
p9386
g135
sS'CharacterOffsetEnd'
p9387
S'2731'
p9388
sS'Lemma'
p9389
S'say'
p9390
sS'PartOfSpeech'
p9391
S'VBD'
p9392
sS'CharacterOffsetBegin'
p9393
S'2727'
p9394
stp9395
a(S'signs'
p9396
(dp9397
S'NamedEntityTag'
p9398
g135
sS'CharacterOffsetEnd'
p9399
S'2737'
p9400
sS'Lemma'
p9401
S'sign'
p9402
sS'PartOfSpeech'
p9403
S'NNS'
p9404
sS'CharacterOffsetBegin'
p9405
S'2732'
p9406
stp9407
a(S'that'
p9408
(dp9409
S'NamedEntityTag'
p9410
g135
sS'CharacterOffsetEnd'
p9411
S'2742'
p9412
sS'Lemma'
p9413
S'that'
p9414
sS'PartOfSpeech'
p9415
S'IN'
p9416
sS'CharacterOffsetBegin'
p9417
S'2738'
p9418
stp9419
a(S'the'
p9420
(dp9421
S'NamedEntityTag'
p9422
g135
sS'CharacterOffsetEnd'
p9423
S'2746'
p9424
sS'Lemma'
p9425
S'the'
p9426
sS'PartOfSpeech'
p9427
S'DT'
p9428
sS'CharacterOffsetBegin'
p9429
S'2743'
p9430
stp9431
a(S'Brazilian'
p9432
(dp9433
S'NamedEntityTag'
p9434
S'MISC'
p9435
sS'CharacterOffsetEnd'
p9436
S'2756'
p9437
sS'Lemma'
p9438
S'brazilian'
p9439
sS'PartOfSpeech'
p9440
S'JJ'
p9441
sS'CharacterOffsetBegin'
p9442
S'2747'
p9443
stp9444
a(S'government'
p9445
(dp9446
S'NamedEntityTag'
p9447
g135
sS'CharacterOffsetEnd'
p9448
S'2767'
p9449
sS'Lemma'
p9450
S'government'
p9451
sS'PartOfSpeech'
p9452
S'NN'
p9453
sS'CharacterOffsetBegin'
p9454
S'2757'
p9455
stp9456
a(S'and'
p9457
(dp9458
S'NamedEntityTag'
p9459
g135
sS'CharacterOffsetEnd'
p9460
S'2771'
p9461
sS'Lemma'
p9462
S'and'
p9463
sS'PartOfSpeech'
p9464
S'CC'
p9465
sS'CharacterOffsetBegin'
p9466
S'2768'
p9467
stp9468
a(S'the'
p9469
(dp9470
S'NamedEntityTag'
p9471
g135
sS'CharacterOffsetEnd'
p9472
S'2775'
p9473
sS'Lemma'
p9474
S'the'
p9475
sS'PartOfSpeech'
p9476
S'DT'
p9477
sS'CharacterOffsetBegin'
p9478
S'2772'
p9479
stp9480
a(S'IMF'
p9481
(dp9482
S'NamedEntityTag'
p9483
S'ORGANIZATION'
p9484
sS'CharacterOffsetEnd'
p9485
S'2779'
p9486
sS'Lemma'
p9487
S'IMF'
p9488
sS'PartOfSpeech'
p9489
S'NNP'
p9490
sS'CharacterOffsetBegin'
p9491
S'2776'
p9492
stp9493
a(S'were'
p9494
(dp9495
S'NamedEntityTag'
p9496
g135
sS'CharacterOffsetEnd'
p9497
S'2784'
p9498
sS'Lemma'
p9499
S'be'
p9500
sS'PartOfSpeech'
p9501
S'VBD'
p9502
sS'CharacterOffsetBegin'
p9503
S'2780'
p9504
stp9505
a(S'moving'
p9506
(dp9507
S'NamedEntityTag'
p9508
g135
sS'CharacterOffsetEnd'
p9509
S'2791'
p9510
sS'Lemma'
p9511
S'move'
p9512
sS'PartOfSpeech'
p9513
S'VBG'
p9514
sS'CharacterOffsetBegin'
p9515
S'2785'
p9516
stp9517
a(S'closer'
p9518
(dp9519
S'NamedEntityTag'
p9520
g135
sS'CharacterOffsetEnd'
p9521
S'2798'
p9522
sS'Lemma'
p9523
S'closer'
p9524
sS'PartOfSpeech'
p9525
S'JJR'
p9526
sS'CharacterOffsetBegin'
p9527
S'2792'
p9528
stp9529
a(S'to'
p9530
(dp9531
S'NamedEntityTag'
p9532
g135
sS'CharacterOffsetEnd'
p9533
S'2801'
p9534
sS'Lemma'
p9535
S'to'
p9536
sS'PartOfSpeech'
p9537
S'TO'
p9538
sS'CharacterOffsetBegin'
p9539
S'2799'
p9540
stp9541
a(S'an'
p9542
(dp9543
S'NamedEntityTag'
p9544
g135
sS'CharacterOffsetEnd'
p9545
S'2804'
p9546
sS'Lemma'
p9547
g1774
sS'PartOfSpeech'
p9548
S'DT'
p9549
sS'CharacterOffsetBegin'
p9550
S'2802'
p9551
stp9552
a(S'aid'
p9553
(dp9554
S'NamedEntityTag'
p9555
g135
sS'CharacterOffsetEnd'
p9556
S'2808'
p9557
sS'Lemma'
p9558
S'aid'
p9559
sS'PartOfSpeech'
p9560
S'NN'
p9561
sS'CharacterOffsetBegin'
p9562
S'2805'
p9563
stp9564
a(S'package'
p9565
(dp9566
S'NamedEntityTag'
p9567
g135
sS'CharacterOffsetEnd'
p9568
S'2816'
p9569
sS'Lemma'
p9570
S'package'
p9571
sS'PartOfSpeech'
p9572
S'NN'
p9573
sS'CharacterOffsetBegin'
p9574
S'2809'
p9575
stp9576
a(S'were'
p9577
(dp9578
S'NamedEntityTag'
p9579
g135
sS'CharacterOffsetEnd'
p9580
S'2821'
p9581
sS'Lemma'
p9582
S'be'
p9583
sS'PartOfSpeech'
p9584
S'VBD'
p9585
sS'CharacterOffsetBegin'
p9586
S'2817'
p9587
stp9588
a(S'reassuring'
p9589
(dp9590
S'NamedEntityTag'
p9591
g135
sS'CharacterOffsetEnd'
p9592
S'2832'
p9593
sS'Lemma'
p9594
S'reassure'
p9595
sS'PartOfSpeech'
p9596
S'VBG'
p9597
sS'CharacterOffsetBegin'
p9598
S'2822'
p9599
stp9600
a(g132
(dp9601
S'NamedEntityTag'
p9602
g135
sS'CharacterOffsetEnd'
p9603
S'2833'
p9604
sS'Lemma'
p9605
g132
sS'PartOfSpeech'
p9606
g132
sS'CharacterOffsetBegin'
p9607
S'2832'
p9608
stp9609
a(S'and'
p9610
(dp9611
S'NamedEntityTag'
p9612
g135
sS'CharacterOffsetEnd'
p9613
S'2837'
p9614
sS'Lemma'
p9615
S'and'
p9616
sS'PartOfSpeech'
p9617
S'CC'
p9618
sS'CharacterOffsetBegin'
p9619
S'2834'
p9620
stp9621
a(S'that'
p9622
(dp9623
S'NamedEntityTag'
p9624
g135
sS'CharacterOffsetEnd'
p9625
S'2842'
p9626
sS'Lemma'
p9627
S'that'
p9628
sS'PartOfSpeech'
p9629
S'IN'
p9630
sS'CharacterOffsetBegin'
p9631
S'2838'
p9632
stp9633
a(S'he'
p9634
(dp9635
S'NamedEntityTag'
p9636
g135
sS'CharacterOffsetEnd'
p9637
S'2845'
p9638
sS'Lemma'
p9639
S'he'
p9640
sS'PartOfSpeech'
p9641
S'PRP'
p9642
sS'CharacterOffsetBegin'
p9643
S'2843'
p9644
stp9645
a(S'did'
p9646
(dp9647
S'NamedEntityTag'
p9648
g135
sS'CharacterOffsetEnd'
p9649
S'2849'
p9650
sS'Lemma'
p9651
S'do'
p9652
sS'PartOfSpeech'
p9653
S'VBD'
p9654
sS'CharacterOffsetBegin'
p9655
S'2846'
p9656
stp9657
a(S'not'
p9658
(dp9659
S'NamedEntityTag'
p9660
g135
sS'CharacterOffsetEnd'
p9661
S'2853'
p9662
sS'Lemma'
p9663
S'not'
p9664
sS'PartOfSpeech'
p9665
S'RB'
p9666
sS'CharacterOffsetBegin'
p9667
S'2850'
p9668
stp9669
a(S'expect'
p9670
(dp9671
S'NamedEntityTag'
p9672
g135
sS'CharacterOffsetEnd'
p9673
S'2860'
p9674
sS'Lemma'
p9675
S'expect'
p9676
sS'PartOfSpeech'
p9677
S'VB'
p9678
sS'CharacterOffsetBegin'
p9679
S'2854'
p9680
stp9681
a(S'much'
p9682
(dp9683
S'NamedEntityTag'
p9684
g135
sS'CharacterOffsetEnd'
p9685
S'2865'
p9686
sS'Lemma'
p9687
S'much'
p9688
sS'PartOfSpeech'
p9689
S'RB'
p9690
sS'CharacterOffsetBegin'
p9691
S'2861'
p9692
stp9693
a(S'more'
p9694
(dp9695
S'NamedEntityTag'
p9696
g135
sS'CharacterOffsetEnd'
p9697
S'2870'
p9698
sS'Lemma'
p9699
S'more'
p9700
sS'PartOfSpeech'
p9701
S'JJR'
p9702
sS'CharacterOffsetBegin'
p9703
S'2866'
p9704
stp9705
a(S'than'
p9706
(dp9707
S'NamedEntityTag'
p9708
g135
sS'CharacterOffsetEnd'
p9709
S'2875'
p9710
sS'Lemma'
p9711
S'than'
p9712
sS'PartOfSpeech'
p9713
S'IN'
p9714
sS'CharacterOffsetBegin'
p9715
S'2871'
p9716
stp9717
a(S'reassurance'
p9718
(dp9719
S'NamedEntityTag'
p9720
g135
sS'CharacterOffsetEnd'
p9721
S'2887'
p9722
sS'Lemma'
p9723
S'reassurance'
p9724
sS'PartOfSpeech'
p9725
S'NN'
p9726
sS'CharacterOffsetBegin'
p9727
S'2876'
p9728
stp9729
a(S'until'
p9730
(dp9731
S'NamedEntityTag'
p9732
g135
sS'CharacterOffsetEnd'
p9733
S'2893'
p9734
sS'Lemma'
p9735
S'until'
p9736
sS'PartOfSpeech'
p9737
S'IN'
p9738
sS'CharacterOffsetBegin'
p9739
S'2888'
p9740
stp9741
a(S'next'
p9742
(dp9743
S'NormalizedNamedEntityTag'
p9744
S'THIS'
p9745
sS'Timex'
p9746
S'<TIMEX3 alt_value="THIS P1W OFFSET P1W" anchorTimeID="t17" temporalFunction="true" tid="t16" type="DATE" valueFromFunction="tf2">next week</TIMEX3>'
p9747
sS'Lemma'
p9748
S'next'
p9749
sS'CharacterOffsetEnd'
p9750
S'2898'
p9751
sS'PartOfSpeech'
p9752
S'JJ'
p9753
sS'CharacterOffsetBegin'
p9754
S'2894'
p9755
sS'NamedEntityTag'
p9756
S'DATE'
p9757
stp9758
a(S'week'
p9759
(dp9760
S'NormalizedNamedEntityTag'
p9761
S'THIS'
p9762
sS'Timex'
p9763
S'<TIMEX3 alt_value="THIS P1W OFFSET P1W" anchorTimeID="t17" temporalFunction="true" tid="t16" type="DATE" valueFromFunction="tf2">next week</TIMEX3>'
p9764
sS'Lemma'
p9765
S'week'
p9766
sS'CharacterOffsetEnd'
p9767
S'2903'
p9768
sS'PartOfSpeech'
p9769
S'NN'
p9770
sS'CharacterOffsetBegin'
p9771
S'2899'
p9772
sS'NamedEntityTag'
p9773
S'DATE'
p9774
stp9775
a(g422
(dp9776
S'NamedEntityTag'
p9777
g135
sS'CharacterOffsetEnd'
p9778
S'2904'
p9779
sS'Lemma'
p9780
g422
sS'PartOfSpeech'
p9781
g422
sS'CharacterOffsetBegin'
p9782
S'2903'
p9783
stp9784
asa(dp9785
g7
S'(ROOT (S (S (NP (PRP I)) (VP (VBP call) (NP (NP (DT this)) (SBAR (S (NP (DT the) (PRP We)) (VP (VBP have) (NP (DT a) (NN pope) (NN scenario)))))))) (, ,) (NP (NNP Brown)) (VP (VBD said)) (. .)))'
p9786
sg9
S'I call this the We have a pope scenario, Brown said.'
p9787
sg11
(lp9788
(S'root'
p9789
S'ROOT'
p9790
S'said'
p9791
tp9792
a(S'nsubj'
p9793
S'call'
p9794
S'I'
p9795
tp9796
a(S'ccomp'
p9797
S'said'
p9798
S'call'
p9799
tp9800
a(S'dobj'
p9801
S'call'
p9802
S'this'
p9803
tp9804
a(S'det'
p9805
S'We'
p9806
S'the'
p9807
tp9808
a(S'nsubj'
p9809
S'have'
p9810
S'We'
p9811
tp9812
a(S'rcmod'
p9813
S'this'
p9814
S'have'
p9815
tp9816
a(S'det'
p9817
S'scenario'
p9818
g1774
tp9819
a(S'nn'
p9820
S'scenario'
p9821
S'pope'
p9822
tp9823
a(S'dobj'
p9824
S'have'
p9825
S'scenario'
p9826
tp9827
a(S'nsubj'
p9828
S'said'
p9829
S'Brown'
p9830
tp9831
asg49
(lp9832
(g9789
S'ROOT-0'
p9833
S'said-12'
p9834
tp9835
a(g9793
S'call-2'
p9836
S'I-1'
p9837
tp9838
a(g9797
S'said-12'
p9839
S'call-2'
p9840
tp9841
a(g9801
S'call-2'
p9842
S'this-3'
p9843
tp9844
a(g9805
S'We-5'
p9845
S'the-4'
p9846
tp9847
a(g9809
S'have-6'
p9848
S'We-5'
p9849
tp9850
a(g9813
S'this-3'
p9851
S'have-6'
p9852
tp9853
a(g9817
S'scenario-9'
p9854
S'a-7'
p9855
tp9856
a(g9820
S'scenario-9'
p9857
S'pope-8'
p9858
tp9859
a(g9824
S'have-6'
p9860
S'scenario-9'
p9861
tp9862
a(g9828
S'said-12'
p9863
S'Brown-11'
p9864
tp9865
asg78
(lp9866
(g9795
(dp9867
S'NamedEntityTag'
p9868
g135
sS'CharacterOffsetEnd'
p9869
S'2906'
p9870
sS'Lemma'
p9871
g9795
sS'PartOfSpeech'
p9872
S'PRP'
p9873
sS'CharacterOffsetBegin'
p9874
S'2905'
p9875
stp9876
a(S'call'
p9877
(dp9878
S'NamedEntityTag'
p9879
g135
sS'CharacterOffsetEnd'
p9880
S'2911'
p9881
sS'Lemma'
p9882
S'call'
p9883
sS'PartOfSpeech'
p9884
S'VBP'
p9885
sS'CharacterOffsetBegin'
p9886
S'2907'
p9887
stp9888
a(S'this'
p9889
(dp9890
S'NamedEntityTag'
p9891
g135
sS'CharacterOffsetEnd'
p9892
S'2916'
p9893
sS'Lemma'
p9894
S'this'
p9895
sS'PartOfSpeech'
p9896
S'DT'
p9897
sS'CharacterOffsetBegin'
p9898
S'2912'
p9899
stp9900
a(S'the'
p9901
(dp9902
S'NamedEntityTag'
p9903
g135
sS'CharacterOffsetEnd'
p9904
S'2920'
p9905
sS'Lemma'
p9906
S'the'
p9907
sS'PartOfSpeech'
p9908
S'DT'
p9909
sS'CharacterOffsetBegin'
p9910
S'2917'
p9911
stp9912
a(S'We'
p9913
(dp9914
S'NamedEntityTag'
p9915
g135
sS'CharacterOffsetEnd'
p9916
S'2923'
p9917
sS'Lemma'
p9918
S'we'
p9919
sS'PartOfSpeech'
p9920
S'PRP'
p9921
sS'CharacterOffsetBegin'
p9922
S'2921'
p9923
stp9924
a(S'have'
p9925
(dp9926
S'NamedEntityTag'
p9927
g135
sS'CharacterOffsetEnd'
p9928
S'2928'
p9929
sS'Lemma'
p9930
S'have'
p9931
sS'PartOfSpeech'
p9932
S'VBP'
p9933
sS'CharacterOffsetBegin'
p9934
S'2924'
p9935
stp9936
a(g1774
(dp9937
S'NamedEntityTag'
p9938
g135
sS'CharacterOffsetEnd'
p9939
S'2930'
p9940
sS'Lemma'
p9941
g1774
sS'PartOfSpeech'
p9942
S'DT'
p9943
sS'CharacterOffsetBegin'
p9944
S'2929'
p9945
stp9946
a(S'pope'
p9947
(dp9948
S'NamedEntityTag'
p9949
g135
sS'CharacterOffsetEnd'
p9950
S'2935'
p9951
sS'Lemma'
p9952
S'pope'
p9953
sS'PartOfSpeech'
p9954
S'NN'
p9955
sS'CharacterOffsetBegin'
p9956
S'2931'
p9957
stp9958
a(S'scenario'
p9959
(dp9960
S'NamedEntityTag'
p9961
g135
sS'CharacterOffsetEnd'
p9962
S'2944'
p9963
sS'Lemma'
p9964
S'scenario'
p9965
sS'PartOfSpeech'
p9966
S'NN'
p9967
sS'CharacterOffsetBegin'
p9968
S'2936'
p9969
stp9970
a(g132
(dp9971
S'NamedEntityTag'
p9972
g135
sS'CharacterOffsetEnd'
p9973
S'2945'
p9974
sS'Lemma'
p9975
g132
sS'PartOfSpeech'
p9976
g132
sS'CharacterOffsetBegin'
p9977
S'2944'
p9978
stp9979
a(S'Brown'
p9980
(dp9981
S'NamedEntityTag'
p9982
S'PERSON'
p9983
sS'CharacterOffsetEnd'
p9984
S'2951'
p9985
sS'Lemma'
p9986
S'Brown'
p9987
sS'PartOfSpeech'
p9988
S'NNP'
p9989
sS'CharacterOffsetBegin'
p9990
S'2946'
p9991
stp9992
a(S'said'
p9993
(dp9994
S'NamedEntityTag'
p9995
g135
sS'CharacterOffsetEnd'
p9996
S'2956'
p9997
sS'Lemma'
p9998
S'say'
p9999
sS'PartOfSpeech'
p10000
S'VBD'
p10001
sS'CharacterOffsetBegin'
p10002
S'2952'
p10003
stp10004
a(g422
(dp10005
S'NamedEntityTag'
p10006
g135
sS'CharacterOffsetEnd'
p10007
S'2957'
p10008
sS'Lemma'
p10009
g422
sS'PartOfSpeech'
p10010
g422
sS'CharacterOffsetBegin'
p10011
S'2956'
p10012
stp10013
asa(dp10014
g7
S'(ROOT (NP (NP (NNP Youre)) (VP (ADVP (RB just)) (VBG going) (S (VP (TO to) (VP (VP (VB hear) (SBAR (IN that) (S (NP (PRP we)) (VP (VBP have) (NP (DT a) (NN pope)))))) (, ,) (VP (ADVP (RB maybe)) (VB see) (NP (NP (DT the) (JJ white) (NN smoke) (VBG rising)) (PRN (, ,) (S (NP (PRP he)) (VP (VBD said))) (, ,)))) (CC and) (VP (RB not) (VB figure) (PRT (RP out))) (SBAR (WHNP (WP who)) (S (NP (DT the) (NN pope)) (VP (VBZ is) (PP (IN until) (PP (IN after) (NP (DT the) (NNS elections))))))))))) (. .)))'
p10015
sg9
S'Youre just going to hear that we have a pope, maybe see the white smoke rising, he said, and not figure out who the pope is until after the elections.'
p10016
sg11
(lp10017
(S'root'
p10018
S'ROOT'
p10019
S'Youre'
p10020
tp10021
a(S'advmod'
p10022
S'going'
p10023
S'just'
p10024
tp10025
a(S'partmod'
p10026
S'Youre'
p10027
S'going'
p10028
tp10029
a(S'aux'
p10030
S'hear'
p10031
S'to'
p10032
tp10033
a(S'xcomp'
p10034
S'going'
p10035
S'hear'
p10036
tp10037
a(S'mark'
p10038
S'have'
p10039
S'that'
p10040
tp10041
a(S'nsubj'
p10042
S'have'
p10043
S'we'
p10044
tp10045
a(S'ccomp'
p10046
S'hear'
p10047
S'have'
p10048
tp10049
a(S'det'
p10050
S'pope'
p10051
g1774
tp10052
a(S'dobj'
p10053
S'have'
p10054
S'pope'
p10055
tp10056
a(S'advmod'
p10057
S'see'
p10058
S'maybe'
p10059
tp10060
a(S'conj_and'
p10061
S'hear'
p10062
S'see'
p10063
tp10064
a(S'det'
p10065
S'smoke'
p10066
S'the'
p10067
tp10068
a(S'amod'
p10069
S'smoke'
p10070
S'white'
p10071
tp10072
a(S'dobj'
p10073
S'see'
p10074
S'smoke'
p10075
tp10076
a(S'amod'
p10077
S'smoke'
p10078
S'rising'
p10079
tp10080
a(S'nsubj'
p10081
S'said'
p10082
S'he'
p10083
tp10084
a(S'dep'
p10085
S'smoke'
p10086
S'said'
p10087
tp10088
a(S'neg'
p10089
S'figure'
p10090
S'not'
p10091
tp10092
a(S'conj_and'
p10093
S'hear'
p10094
S'figure'
p10095
tp10096
a(S'prt'
p10097
S'figure'
p10098
S'out'
p10099
tp10100
a(S'dobj'
p10101
S'is'
p10102
S'who'
p10103
tp10104
a(S'det'
p10105
S'pope'
p10106
S'the'
p10107
tp10108
a(S'nsubj'
p10109
S'is'
p10110
S'pope'
p10111
tp10112
a(S'ccomp'
p10113
S'hear'
p10114
S'is'
p10115
tp10116
a(S'prep'
p10117
S'is'
p10118
S'until'
p10119
tp10120
a(S'pcomp'
p10121
S'until'
p10122
S'after'
p10123
tp10124
a(S'det'
p10125
S'elections'
p10126
S'the'
p10127
tp10128
a(S'pobj'
p10129
S'after'
p10130
S'elections'
p10131
tp10132
asg49
(lp10133
(g10018
S'ROOT-0'
p10134
S'Youre-1'
p10135
tp10136
a(g10022
S'going-3'
p10137
S'just-2'
p10138
tp10139
a(g10026
S'Youre-1'
p10140
S'going-3'
p10141
tp10142
a(g10030
S'hear-5'
p10143
S'to-4'
p10144
tp10145
a(g10034
S'going-3'
p10146
S'hear-5'
p10147
tp10148
a(g10038
S'have-8'
p10149
S'that-6'
p10150
tp10151
a(g10042
S'have-8'
p10152
S'we-7'
p10153
tp10154
a(g10046
S'hear-5'
p10155
S'have-8'
p10156
tp10157
a(g10050
S'pope-10'
p10158
S'a-9'
p10159
tp10160
a(g10053
S'have-8'
p10161
S'pope-10'
p10162
tp10163
a(g10057
S'see-13'
p10164
S'maybe-12'
p10165
tp10166
a(g10061
S'hear-5'
p10167
S'see-13'
p10168
tp10169
a(g10065
S'smoke-16'
p10170
S'the-14'
p10171
tp10172
a(g10069
S'smoke-16'
p10173
S'white-15'
p10174
tp10175
a(g10073
S'see-13'
p10176
S'smoke-16'
p10177
tp10178
a(g10077
S'smoke-16'
p10179
S'rising-17'
p10180
tp10181
a(g10081
S'said-20'
p10182
S'he-19'
p10183
tp10184
a(g10085
S'smoke-16'
p10185
S'said-20'
p10186
tp10187
a(g10089
S'figure-24'
p10188
S'not-23'
p10189
tp10190
a(g10093
S'hear-5'
p10191
S'figure-24'
p10192
tp10193
a(g10097
S'figure-24'
p10194
S'out-25'
p10195
tp10196
a(g10101
S'is-29'
p10197
S'who-26'
p10198
tp10199
a(g10105
S'pope-28'
p10200
S'the-27'
p10201
tp10202
a(g10109
S'is-29'
p10203
S'pope-28'
p10204
tp10205
a(g10113
S'hear-5'
p10206
S'is-29'
p10207
tp10208
a(g10117
S'is-29'
p10209
S'until-30'
p10210
tp10211
a(g10121
S'until-30'
p10212
S'after-31'
p10213
tp10214
a(g10125
S'elections-33'
p10215
S'the-32'
p10216
tp10217
a(g10129
S'after-31'
p10218
S'elections-33'
p10219
tp10220
asg78
(lp10221
(S'Youre'
p10222
(dp10223
S'NamedEntityTag'
p10224
g135
sS'CharacterOffsetEnd'
p10225
S'2963'
p10226
sS'Lemma'
p10227
S'Youre'
p10228
sS'PartOfSpeech'
p10229
S'NNP'
p10230
sS'CharacterOffsetBegin'
p10231
S'2958'
p10232
stp10233
a(S'just'
p10234
(dp10235
S'NamedEntityTag'
p10236
g135
sS'CharacterOffsetEnd'
p10237
S'2968'
p10238
sS'Lemma'
p10239
S'just'
p10240
sS'PartOfSpeech'
p10241
S'RB'
p10242
sS'CharacterOffsetBegin'
p10243
S'2964'
p10244
stp10245
a(S'going'
p10246
(dp10247
S'NamedEntityTag'
p10248
g135
sS'CharacterOffsetEnd'
p10249
S'2974'
p10250
sS'Lemma'
p10251
S'go'
p10252
sS'PartOfSpeech'
p10253
S'VBG'
p10254
sS'CharacterOffsetBegin'
p10255
S'2969'
p10256
stp10257
a(S'to'
p10258
(dp10259
S'NamedEntityTag'
p10260
g135
sS'CharacterOffsetEnd'
p10261
S'2977'
p10262
sS'Lemma'
p10263
S'to'
p10264
sS'PartOfSpeech'
p10265
S'TO'
p10266
sS'CharacterOffsetBegin'
p10267
S'2975'
p10268
stp10269
a(S'hear'
p10270
(dp10271
S'NamedEntityTag'
p10272
g135
sS'CharacterOffsetEnd'
p10273
S'2982'
p10274
sS'Lemma'
p10275
S'hear'
p10276
sS'PartOfSpeech'
p10277
S'VB'
p10278
sS'CharacterOffsetBegin'
p10279
S'2978'
p10280
stp10281
a(S'that'
p10282
(dp10283
S'NamedEntityTag'
p10284
g135
sS'CharacterOffsetEnd'
p10285
S'2987'
p10286
sS'Lemma'
p10287
S'that'
p10288
sS'PartOfSpeech'
p10289
S'IN'
p10290
sS'CharacterOffsetBegin'
p10291
S'2983'
p10292
stp10293
a(S'we'
p10294
(dp10295
S'NamedEntityTag'
p10296
g135
sS'CharacterOffsetEnd'
p10297
S'2990'
p10298
sS'Lemma'
p10299
S'we'
p10300
sS'PartOfSpeech'
p10301
S'PRP'
p10302
sS'CharacterOffsetBegin'
p10303
S'2988'
p10304
stp10305
a(S'have'
p10306
(dp10307
S'NamedEntityTag'
p10308
g135
sS'CharacterOffsetEnd'
p10309
S'2995'
p10310
sS'Lemma'
p10311
S'have'
p10312
sS'PartOfSpeech'
p10313
S'VBP'
p10314
sS'CharacterOffsetBegin'
p10315
S'2991'
p10316
stp10317
a(g1774
(dp10318
S'NamedEntityTag'
p10319
g135
sS'CharacterOffsetEnd'
p10320
S'2997'
p10321
sS'Lemma'
p10322
g1774
sS'PartOfSpeech'
p10323
S'DT'
p10324
sS'CharacterOffsetBegin'
p10325
S'2996'
p10326
stp10327
a(S'pope'
p10328
(dp10329
S'NamedEntityTag'
p10330
g135
sS'CharacterOffsetEnd'
p10331
S'3002'
p10332
sS'Lemma'
p10333
S'pope'
p10334
sS'PartOfSpeech'
p10335
S'NN'
p10336
sS'CharacterOffsetBegin'
p10337
S'2998'
p10338
stp10339
a(g132
(dp10340
S'NamedEntityTag'
p10341
g135
sS'CharacterOffsetEnd'
p10342
S'3003'
p10343
sS'Lemma'
p10344
g132
sS'PartOfSpeech'
p10345
g132
sS'CharacterOffsetBegin'
p10346
S'3002'
p10347
stp10348
a(S'maybe'
p10349
(dp10350
S'NamedEntityTag'
p10351
g135
sS'CharacterOffsetEnd'
p10352
S'3009'
p10353
sS'Lemma'
p10354
S'maybe'
p10355
sS'PartOfSpeech'
p10356
S'RB'
p10357
sS'CharacterOffsetBegin'
p10358
S'3004'
p10359
stp10360
a(S'see'
p10361
(dp10362
S'NamedEntityTag'
p10363
g135
sS'CharacterOffsetEnd'
p10364
S'3013'
p10365
sS'Lemma'
p10366
S'see'
p10367
sS'PartOfSpeech'
p10368
S'VB'
p10369
sS'CharacterOffsetBegin'
p10370
S'3010'
p10371
stp10372
a(S'the'
p10373
(dp10374
S'NamedEntityTag'
p10375
g135
sS'CharacterOffsetEnd'
p10376
S'3017'
p10377
sS'Lemma'
p10378
S'the'
p10379
sS'PartOfSpeech'
p10380
S'DT'
p10381
sS'CharacterOffsetBegin'
p10382
S'3014'
p10383
stp10384
a(S'white'
p10385
(dp10386
S'NamedEntityTag'
p10387
g135
sS'CharacterOffsetEnd'
p10388
S'3023'
p10389
sS'Lemma'
p10390
S'white'
p10391
sS'PartOfSpeech'
p10392
S'JJ'
p10393
sS'CharacterOffsetBegin'
p10394
S'3018'
p10395
stp10396
a(S'smoke'
p10397
(dp10398
S'NamedEntityTag'
p10399
g135
sS'CharacterOffsetEnd'
p10400
S'3029'
p10401
sS'Lemma'
p10402
S'smoke'
p10403
sS'PartOfSpeech'
p10404
S'NN'
p10405
sS'CharacterOffsetBegin'
p10406
S'3024'
p10407
stp10408
a(S'rising'
p10409
(dp10410
S'NamedEntityTag'
p10411
g135
sS'CharacterOffsetEnd'
p10412
S'3036'
p10413
sS'Lemma'
p10414
S'rise'
p10415
sS'PartOfSpeech'
p10416
S'VBG'
p10417
sS'CharacterOffsetBegin'
p10418
S'3030'
p10419
stp10420
a(g132
(dp10421
S'NamedEntityTag'
p10422
g135
sS'CharacterOffsetEnd'
p10423
S'3037'
p10424
sS'Lemma'
p10425
g132
sS'PartOfSpeech'
p10426
g132
sS'CharacterOffsetBegin'
p10427
S'3036'
p10428
stp10429
a(S'he'
p10430
(dp10431
S'NamedEntityTag'
p10432
g135
sS'CharacterOffsetEnd'
p10433
S'3040'
p10434
sS'Lemma'
p10435
S'he'
p10436
sS'PartOfSpeech'
p10437
S'PRP'
p10438
sS'CharacterOffsetBegin'
p10439
S'3038'
p10440
stp10441
a(S'said'
p10442
(dp10443
S'NamedEntityTag'
p10444
g135
sS'CharacterOffsetEnd'
p10445
S'3045'
p10446
sS'Lemma'
p10447
S'say'
p10448
sS'PartOfSpeech'
p10449
S'VBD'
p10450
sS'CharacterOffsetBegin'
p10451
S'3041'
p10452
stp10453
a(g132
(dp10454
S'NamedEntityTag'
p10455
g135
sS'CharacterOffsetEnd'
p10456
S'3046'
p10457
sS'Lemma'
p10458
g132
sS'PartOfSpeech'
p10459
g132
sS'CharacterOffsetBegin'
p10460
S'3045'
p10461
stp10462
a(S'and'
p10463
(dp10464
S'NamedEntityTag'
p10465
g135
sS'CharacterOffsetEnd'
p10466
S'3050'
p10467
sS'Lemma'
p10468
S'and'
p10469
sS'PartOfSpeech'
p10470
S'CC'
p10471
sS'CharacterOffsetBegin'
p10472
S'3047'
p10473
stp10474
a(S'not'
p10475
(dp10476
S'NamedEntityTag'
p10477
g135
sS'CharacterOffsetEnd'
p10478
S'3054'
p10479
sS'Lemma'
p10480
S'not'
p10481
sS'PartOfSpeech'
p10482
S'RB'
p10483
sS'CharacterOffsetBegin'
p10484
S'3051'
p10485
stp10486
a(S'figure'
p10487
(dp10488
S'NamedEntityTag'
p10489
g135
sS'CharacterOffsetEnd'
p10490
S'3061'
p10491
sS'Lemma'
p10492
S'figure'
p10493
sS'PartOfSpeech'
p10494
S'VB'
p10495
sS'CharacterOffsetBegin'
p10496
S'3055'
p10497
stp10498
a(S'out'
p10499
(dp10500
S'NamedEntityTag'
p10501
g135
sS'CharacterOffsetEnd'
p10502
S'3065'
p10503
sS'Lemma'
p10504
S'out'
p10505
sS'PartOfSpeech'
p10506
S'RP'
p10507
sS'CharacterOffsetBegin'
p10508
S'3062'
p10509
stp10510
a(S'who'
p10511
(dp10512
S'NamedEntityTag'
p10513
g135
sS'CharacterOffsetEnd'
p10514
S'3069'
p10515
sS'Lemma'
p10516
S'who'
p10517
sS'PartOfSpeech'
p10518
S'WP'
p10519
sS'CharacterOffsetBegin'
p10520
S'3066'
p10521
stp10522
a(S'the'
p10523
(dp10524
S'NamedEntityTag'
p10525
g135
sS'CharacterOffsetEnd'
p10526
S'3073'
p10527
sS'Lemma'
p10528
S'the'
p10529
sS'PartOfSpeech'
p10530
S'DT'
p10531
sS'CharacterOffsetBegin'
p10532
S'3070'
p10533
stp10534
a(S'pope'
p10535
(dp10536
S'NamedEntityTag'
p10537
g135
sS'CharacterOffsetEnd'
p10538
S'3078'
p10539
sS'Lemma'
p10540
S'pope'
p10541
sS'PartOfSpeech'
p10542
S'NN'
p10543
sS'CharacterOffsetBegin'
p10544
S'3074'
p10545
stp10546
a(S'is'
p10547
(dp10548
S'NamedEntityTag'
p10549
g135
sS'CharacterOffsetEnd'
p10550
S'3081'
p10551
sS'Lemma'
p10552
S'be'
p10553
sS'PartOfSpeech'
p10554
S'VBZ'
p10555
sS'CharacterOffsetBegin'
p10556
S'3079'
p10557
stp10558
a(S'until'
p10559
(dp10560
S'NamedEntityTag'
p10561
g135
sS'CharacterOffsetEnd'
p10562
S'3087'
p10563
sS'Lemma'
p10564
S'until'
p10565
sS'PartOfSpeech'
p10566
S'IN'
p10567
sS'CharacterOffsetBegin'
p10568
S'3082'
p10569
stp10570
a(S'after'
p10571
(dp10572
S'NamedEntityTag'
p10573
g135
sS'CharacterOffsetEnd'
p10574
S'3093'
p10575
sS'Lemma'
p10576
S'after'
p10577
sS'PartOfSpeech'
p10578
S'IN'
p10579
sS'CharacterOffsetBegin'
p10580
S'3088'
p10581
stp10582
a(S'the'
p10583
(dp10584
S'NamedEntityTag'
p10585
g135
sS'CharacterOffsetEnd'
p10586
S'3097'
p10587
sS'Lemma'
p10588
S'the'
p10589
sS'PartOfSpeech'
p10590
S'DT'
p10591
sS'CharacterOffsetBegin'
p10592
S'3094'
p10593
stp10594
a(S'elections'
p10595
(dp10596
S'NamedEntityTag'
p10597
g135
sS'CharacterOffsetEnd'
p10598
S'3107'
p10599
sS'Lemma'
p10600
S'election'
p10601
sS'PartOfSpeech'
p10602
S'NNS'
p10603
sS'CharacterOffsetBegin'
p10604
S'3098'
p10605
stp10606
a(g422
(dp10607
S'NamedEntityTag'
p10608
g135
sS'CharacterOffsetEnd'
p10609
S'3108'
p10610
sS'Lemma'
p10611
g422
sS'PartOfSpeech'
p10612
g422
sS'CharacterOffsetBegin'
p10613
S'3107'
p10614
stp10615
asass.