(dp0
S'models'
p1
(lp2
(dp3
S'sentences'
p4
(lp5
(dp6
S'parsetree'
p7
S'(ROOT (S (NP (CD 2) (NN Endeavor) (NNS astronauts)) (VP (VBP go) (PP (IN on) (NP (JJ 2nd) (NN spacewalk))) (S (VP (TO to) (VP (VB work) (PP (IN on) (NP (NN space) (NN station) (NNS modules))))))) (. .)))'
p8
sS'text'
p9
S'2 Endeavor astronauts go on 2nd spacewalk to work on space station modules.'
p10
sS'dependencies'
p11
(lp12
(S'root'
p13
S'ROOT'
p14
S'go'
p15
tp16
a(S'num'
p17
S'astronauts'
p18
S'2'
p19
tp20
a(S'nn'
p21
S'astronauts'
p22
S'Endeavor'
p23
tp24
a(S'nsubj'
p25
S'go'
p26
S'astronauts'
p27
tp28
a(S'amod'
p29
S'spacewalk'
p30
S'2nd'
p31
tp32
a(S'prep_on'
p33
S'go'
p34
S'spacewalk'
p35
tp36
a(S'aux'
p37
S'work'
p38
S'to'
p39
tp40
a(S'xcomp'
p41
S'go'
p42
S'work'
p43
tp44
a(S'nn'
p45
S'modules'
p46
S'space'
p47
tp48
a(S'nn'
p49
S'modules'
p50
S'station'
p51
tp52
a(S'prep_on'
p53
S'work'
p54
S'modules'
p55
tp56
asS'indexeddependencies'
p57
(lp58
(g13
S'ROOT-0'
p59
S'go-4'
p60
tp61
a(g17
S'astronauts-3'
p62
S'2-1'
p63
tp64
a(g21
S'astronauts-3'
p65
S'Endeavor-2'
p66
tp67
a(g25
S'go-4'
p68
S'astronauts-3'
p69
tp70
a(g29
S'spacewalk-7'
p71
S'2nd-6'
p72
tp73
a(g33
S'go-4'
p74
S'spacewalk-7'
p75
tp76
a(g37
S'work-9'
p77
S'to-8'
p78
tp79
a(g41
S'go-4'
p80
S'work-9'
p81
tp82
a(g45
S'modules-13'
p83
S'space-11'
p84
tp85
a(g49
S'modules-13'
p86
S'station-12'
p87
tp88
a(g53
S'work-9'
p89
S'modules-13'
p90
tp91
asS'words'
p92
(lp93
(g19
(dp94
S'NormalizedNamedEntityTag'
p95
S'2.0'
p96
sS'Lemma'
p97
g19
sS'CharacterOffsetEnd'
p98
g19
sS'PartOfSpeech'
p99
S'CD'
p100
sS'CharacterOffsetBegin'
p101
S'1'
p102
sS'NamedEntityTag'
p103
S'NUMBER'
p104
stp105
a(S'Endeavor'
p106
(dp107
S'NamedEntityTag'
p108
S'O'
p109
sS'CharacterOffsetEnd'
p110
S'11'
p111
sS'Lemma'
p112
S'endeavor'
p113
sS'PartOfSpeech'
p114
S'NN'
p115
sS'CharacterOffsetBegin'
p116
S'3'
p117
stp118
a(S'astronauts'
p119
(dp120
S'NamedEntityTag'
p121
g109
sS'CharacterOffsetEnd'
p122
S'22'
p123
sS'Lemma'
p124
S'astronaut'
p125
sS'PartOfSpeech'
p126
S'NNS'
p127
sS'CharacterOffsetBegin'
p128
S'12'
p129
stp130
a(S'go'
p131
(dp132
S'NamedEntityTag'
p133
g109
sS'CharacterOffsetEnd'
p134
S'25'
p135
sS'Lemma'
p136
S'go'
p137
sS'PartOfSpeech'
p138
S'VBP'
p139
sS'CharacterOffsetBegin'
p140
S'23'
p141
stp142
a(S'on'
p143
(dp144
S'NamedEntityTag'
p145
g109
sS'CharacterOffsetEnd'
p146
S'28'
p147
sS'Lemma'
p148
S'on'
p149
sS'PartOfSpeech'
p150
S'IN'
p151
sS'CharacterOffsetBegin'
p152
S'26'
p153
stp154
a(S'2nd'
p155
(dp156
S'NormalizedNamedEntityTag'
p157
S'2.0'
p158
sS'Lemma'
p159
S'2nd'
p160
sS'CharacterOffsetEnd'
p161
S'32'
p162
sS'PartOfSpeech'
p163
S'JJ'
p164
sS'CharacterOffsetBegin'
p165
S'29'
p166
sS'NamedEntityTag'
p167
S'ORDINAL'
p168
stp169
a(S'spacewalk'
p170
(dp171
S'NamedEntityTag'
p172
g109
sS'CharacterOffsetEnd'
p173
S'42'
p174
sS'Lemma'
p175
S'spacewalk'
p176
sS'PartOfSpeech'
p177
S'NN'
p178
sS'CharacterOffsetBegin'
p179
S'33'
p180
stp181
a(S'to'
p182
(dp183
S'NamedEntityTag'
p184
g109
sS'CharacterOffsetEnd'
p185
S'45'
p186
sS'Lemma'
p187
S'to'
p188
sS'PartOfSpeech'
p189
S'TO'
p190
sS'CharacterOffsetBegin'
p191
S'43'
p192
stp193
a(S'work'
p194
(dp195
S'NamedEntityTag'
p196
g109
sS'CharacterOffsetEnd'
p197
S'50'
p198
sS'Lemma'
p199
S'work'
p200
sS'PartOfSpeech'
p201
S'VB'
p202
sS'CharacterOffsetBegin'
p203
S'46'
p204
stp205
a(S'on'
p206
(dp207
S'NamedEntityTag'
p208
g109
sS'CharacterOffsetEnd'
p209
S'53'
p210
sS'Lemma'
p211
S'on'
p212
sS'PartOfSpeech'
p213
S'IN'
p214
sS'CharacterOffsetBegin'
p215
S'51'
p216
stp217
a(S'space'
p218
(dp219
S'NamedEntityTag'
p220
g109
sS'CharacterOffsetEnd'
p221
S'59'
p222
sS'Lemma'
p223
S'space'
p224
sS'PartOfSpeech'
p225
S'NN'
p226
sS'CharacterOffsetBegin'
p227
S'54'
p228
stp229
a(S'station'
p230
(dp231
S'NamedEntityTag'
p232
g109
sS'CharacterOffsetEnd'
p233
S'67'
p234
sS'Lemma'
p235
S'station'
p236
sS'PartOfSpeech'
p237
S'NN'
p238
sS'CharacterOffsetBegin'
p239
S'60'
p240
stp241
a(S'modules'
p242
(dp243
S'NamedEntityTag'
p244
g109
sS'CharacterOffsetEnd'
p245
S'75'
p246
sS'Lemma'
p247
S'module'
p248
sS'PartOfSpeech'
p249
S'NNS'
p250
sS'CharacterOffsetBegin'
p251
S'68'
p252
stp253
a(S'.'
p254
(dp255
S'NamedEntityTag'
p256
g109
sS'CharacterOffsetEnd'
p257
S'76'
p258
sS'Lemma'
p259
g254
sS'PartOfSpeech'
p260
g254
sS'CharacterOffsetBegin'
p261
S'75'
p262
stp263
asasa(dp264
S'coref'
p265
(lp266
(lp267
((S'antennas'
p268
I0
I7
I7
I8
tp269
(S'40 electrical connections'
p270
I0
I1
I9
I12
tp271
tp272
aasg4
(lp273
(dp274
g7
S'(ROOT (S (NP (NP (NNS Astronauts)) (, ,) (NP (NNP Newman) (, ,) (NNP Ross)) (, ,)) (VP (VBP attach) (NP (NP (NNS antennas)) (, ,) (NP (CD 40) (JJ electrical) (NNS connections))))))'
p275
sg9
S'Astronauts, Newman, Ross, attach antennas, 40 electrical connections'
p276
sg11
(lp277
(S'root'
p278
S'ROOT'
p279
S'attach'
p280
tp281
a(S'nsubj'
p282
S'attach'
p283
S'Astronauts'
p284
tp285
a(S'nn'
p286
S'Ross'
p287
S'Newman'
p288
tp289
a(S'appos'
p290
S'Astronauts'
p291
S'Ross'
p292
tp293
a(S'dobj'
p294
S'attach'
p295
S'antennas'
p296
tp297
a(S'num'
p298
S'connections'
p299
S'40'
p300
tp301
a(S'amod'
p302
S'connections'
p303
S'electrical'
p304
tp305
a(S'appos'
p306
S'antennas'
p307
S'connections'
p308
tp309
asg57
(lp310
(g278
S'ROOT-0'
p311
S'attach-7'
p312
tp313
a(g282
S'attach-7'
p314
S'Astronauts-1'
p315
tp316
a(g286
S'Ross-5'
p317
S'Newman-3'
p318
tp319
a(g290
S'Astronauts-1'
p320
S'Ross-5'
p321
tp322
a(g294
S'attach-7'
p323
S'antennas-8'
p324
tp325
a(g298
S'connections-12'
p326
S'40-10'
p327
tp328
a(g302
S'connections-12'
p329
S'electrical-11'
p330
tp331
a(g306
S'antennas-8'
p332
S'connections-12'
p333
tp334
asg92
(lp335
(S'Astronauts'
p336
(dp337
S'NamedEntityTag'
p338
g109
sS'CharacterOffsetEnd'
p339
S'11'
p340
sS'Lemma'
p341
S'astronaut'
p342
sS'PartOfSpeech'
p343
S'NNS'
p344
sS'CharacterOffsetBegin'
p345
g102
stp346
a(S','
p347
(dp348
S'NamedEntityTag'
p349
g109
sS'CharacterOffsetEnd'
p350
S'12'
p351
sS'Lemma'
p352
g347
sS'PartOfSpeech'
p353
g347
sS'CharacterOffsetBegin'
p354
S'11'
p355
stp356
a(S'Newman'
p357
(dp358
S'NamedEntityTag'
p359
S'PERSON'
p360
sS'CharacterOffsetEnd'
p361
S'19'
p362
sS'Lemma'
p363
S'Newman'
p364
sS'PartOfSpeech'
p365
S'NNP'
p366
sS'CharacterOffsetBegin'
p367
S'13'
p368
stp369
a(g347
(dp370
S'NamedEntityTag'
p371
g109
sS'CharacterOffsetEnd'
p372
S'20'
p373
sS'Lemma'
p374
g347
sS'PartOfSpeech'
p375
g347
sS'CharacterOffsetBegin'
p376
S'19'
p377
stp378
a(S'Ross'
p379
(dp380
S'NamedEntityTag'
p381
S'PERSON'
p382
sS'CharacterOffsetEnd'
p383
S'25'
p384
sS'Lemma'
p385
S'Ross'
p386
sS'PartOfSpeech'
p387
S'NNP'
p388
sS'CharacterOffsetBegin'
p389
S'21'
p390
stp391
a(g347
(dp392
S'NamedEntityTag'
p393
g109
sS'CharacterOffsetEnd'
p394
S'26'
p395
sS'Lemma'
p396
g347
sS'PartOfSpeech'
p397
g347
sS'CharacterOffsetBegin'
p398
S'25'
p399
stp400
a(S'attach'
p401
(dp402
S'NamedEntityTag'
p403
g109
sS'CharacterOffsetEnd'
p404
S'33'
p405
sS'Lemma'
p406
S'attach'
p407
sS'PartOfSpeech'
p408
S'VBP'
p409
sS'CharacterOffsetBegin'
p410
S'27'
p411
stp412
a(S'antennas'
p413
(dp414
S'NamedEntityTag'
p415
g109
sS'CharacterOffsetEnd'
p416
S'42'
p417
sS'Lemma'
p418
S'antenna'
p419
sS'PartOfSpeech'
p420
S'NNS'
p421
sS'CharacterOffsetBegin'
p422
S'34'
p423
stp424
a(g347
(dp425
S'NamedEntityTag'
p426
g109
sS'CharacterOffsetEnd'
p427
S'43'
p428
sS'Lemma'
p429
g347
sS'PartOfSpeech'
p430
g347
sS'CharacterOffsetBegin'
p431
S'42'
p432
stp433
a(S'40'
p434
(dp435
S'NormalizedNamedEntityTag'
p436
S'40.0'
p437
sS'Lemma'
p438
S'40'
p439
sS'CharacterOffsetEnd'
p440
S'46'
p441
sS'PartOfSpeech'
p442
S'CD'
p443
sS'CharacterOffsetBegin'
p444
S'44'
p445
sS'NamedEntityTag'
p446
S'NUMBER'
p447
stp448
a(S'electrical'
p449
(dp450
S'NamedEntityTag'
p451
g109
sS'CharacterOffsetEnd'
p452
S'57'
p453
sS'Lemma'
p454
S'electrical'
p455
sS'PartOfSpeech'
p456
S'JJ'
p457
sS'CharacterOffsetBegin'
p458
S'47'
p459
stp460
a(S'connections'
p461
(dp462
S'NamedEntityTag'
p463
g109
sS'CharacterOffsetEnd'
p464
S'69'
p465
sS'Lemma'
p466
S'connection'
p467
sS'PartOfSpeech'
p468
S'NNS'
p469
sS'CharacterOffsetBegin'
p470
S'58'
p471
stp472
asasa(dp473
g265
(lp474
(lp475
((S'Unity chamber'
p476
I0
I6
I5
I7
tp477
(S'fix Russian antenna'
p478
I0
I0
I8
I11
tp479
tp480
aasg4
(lp481
(dp482
g7
S'(ROOT (S (NP (NNS Astronauts)) (VP (TO to) (VP (VB install) (NP (NNS antennas)) (PP (IN on) (NP (NP (NNP Unity) (NN chamber)) (, ,) (NP (NN fix) (JJ Russian) (NN antenna))))))))'
p483
sg9
S'Astronauts to install antennas on Unity chamber, fix Russian antenna'
p484
sg11
(lp485
(S'root'
p486
S'ROOT'
p487
S'install'
p488
tp489
a(S'nsubj'
p490
S'install'
p491
S'Astronauts'
p492
tp493
a(S'aux'
p494
S'install'
p495
S'to'
p496
tp497
a(S'dobj'
p498
S'install'
p499
S'antennas'
p500
tp501
a(S'nn'
p502
S'chamber'
p503
S'Unity'
p504
tp505
a(S'prep_on'
p506
S'install'
p507
S'chamber'
p508
tp509
a(S'nn'
p510
S'antenna'
p511
S'fix'
p512
tp513
a(S'amod'
p514
S'antenna'
p515
S'Russian'
p516
tp517
a(S'appos'
p518
S'chamber'
p519
S'antenna'
p520
tp521
asg57
(lp522
(g486
S'ROOT-0'
p523
S'install-3'
p524
tp525
a(g490
S'install-3'
p526
S'Astronauts-1'
p527
tp528
a(g494
S'install-3'
p529
S'to-2'
p530
tp531
a(g498
S'install-3'
p532
S'antennas-4'
p533
tp534
a(g502
S'chamber-7'
p535
S'Unity-6'
p536
tp537
a(g506
S'install-3'
p538
S'chamber-7'
p539
tp540
a(g510
S'antenna-11'
p541
S'fix-9'
p542
tp543
a(g514
S'antenna-11'
p544
S'Russian-10'
p545
tp546
a(g518
S'chamber-7'
p547
S'antenna-11'
p548
tp549
asg92
(lp550
(S'Astronauts'
p551
(dp552
S'NamedEntityTag'
p553
g109
sS'CharacterOffsetEnd'
p554
S'11'
p555
sS'Lemma'
p556
S'astronaut'
p557
sS'PartOfSpeech'
p558
S'NNS'
p559
sS'CharacterOffsetBegin'
p560
g102
stp561
a(S'to'
p562
(dp563
S'NamedEntityTag'
p564
g109
sS'CharacterOffsetEnd'
p565
S'14'
p566
sS'Lemma'
p567
S'to'
p568
sS'PartOfSpeech'
p569
S'TO'
p570
sS'CharacterOffsetBegin'
p571
S'12'
p572
stp573
a(S'install'
p574
(dp575
S'NamedEntityTag'
p576
g109
sS'CharacterOffsetEnd'
p577
S'22'
p578
sS'Lemma'
p579
S'install'
p580
sS'PartOfSpeech'
p581
S'VB'
p582
sS'CharacterOffsetBegin'
p583
S'15'
p584
stp585
a(S'antennas'
p586
(dp587
S'NamedEntityTag'
p588
g109
sS'CharacterOffsetEnd'
p589
S'31'
p590
sS'Lemma'
p591
S'antenna'
p592
sS'PartOfSpeech'
p593
S'NNS'
p594
sS'CharacterOffsetBegin'
p595
S'23'
p596
stp597
a(S'on'
p598
(dp599
S'NamedEntityTag'
p600
g109
sS'CharacterOffsetEnd'
p601
S'34'
p602
sS'Lemma'
p603
S'on'
p604
sS'PartOfSpeech'
p605
S'IN'
p606
sS'CharacterOffsetBegin'
p607
S'32'
p608
stp609
a(S'Unity'
p610
(dp611
S'NamedEntityTag'
p612
g109
sS'CharacterOffsetEnd'
p613
S'40'
p614
sS'Lemma'
p615
S'Unity'
p616
sS'PartOfSpeech'
p617
S'NNP'
p618
sS'CharacterOffsetBegin'
p619
S'35'
p620
stp621
a(S'chamber'
p622
(dp623
S'NamedEntityTag'
p624
g109
sS'CharacterOffsetEnd'
p625
S'48'
p626
sS'Lemma'
p627
S'chamber'
p628
sS'PartOfSpeech'
p629
S'NN'
p630
sS'CharacterOffsetBegin'
p631
S'41'
p632
stp633
a(g347
(dp634
S'NamedEntityTag'
p635
g109
sS'CharacterOffsetEnd'
p636
S'49'
p637
sS'Lemma'
p638
g347
sS'PartOfSpeech'
p639
g347
sS'CharacterOffsetBegin'
p640
S'48'
p641
stp642
a(S'fix'
p643
(dp644
S'NamedEntityTag'
p645
g109
sS'CharacterOffsetEnd'
p646
S'53'
p647
sS'Lemma'
p648
S'fix'
p649
sS'PartOfSpeech'
p650
S'NN'
p651
sS'CharacterOffsetBegin'
p652
S'50'
p653
stp654
a(S'Russian'
p655
(dp656
S'NamedEntityTag'
p657
S'MISC'
p658
sS'CharacterOffsetEnd'
p659
S'61'
p660
sS'Lemma'
p661
S'russian'
p662
sS'PartOfSpeech'
p663
S'JJ'
p664
sS'CharacterOffsetBegin'
p665
S'54'
p666
stp667
a(S'antenna'
p668
(dp669
S'NamedEntityTag'
p670
g109
sS'CharacterOffsetEnd'
p671
S'69'
p672
sS'Lemma'
p673
S'antenna'
p674
sS'PartOfSpeech'
p675
S'NN'
p676
sS'CharacterOffsetBegin'
p677
S'62'
p678
stp679
asasa(dp680
g4
(lp681
(dp682
g7
S'(ROOT (FRAG (NP (JJ 2nd) (JJ 2-man) (NN spacewalk)) (S (VP (TO to) (VP (VB attach) (NP (NNP Unity) (NNS antennas)) (, ,) (S (ADJP (JJ open)) (SBAR (SINV (VP (VBD stuck)) (NP (NNP Zarya) (NN antenna))))))))))'
p683
sg9
S'2nd 2-man spacewalk to attach Unity antennas, open stuck Zarya antenna'
p684
sg11
(lp685
(S'root'
p686
S'ROOT'
p687
S'spacewalk'
p688
tp689
a(S'amod'
p690
S'spacewalk'
p691
S'2nd'
p692
tp693
a(S'amod'
p694
S'spacewalk'
p695
S'2-man'
p696
tp697
a(S'aux'
p698
S'attach'
p699
S'to'
p700
tp701
a(S'dep'
p702
S'spacewalk'
p703
S'attach'
p704
tp705
a(S'nn'
p706
S'antennas'
p707
S'Unity'
p708
tp709
a(S'dobj'
p710
S'attach'
p711
S'antennas'
p712
tp713
a(S'dep'
p714
S'stuck'
p715
S'open'
p716
tp717
a(S'dep'
p718
S'attach'
p719
S'stuck'
p720
tp721
a(S'nn'
p722
S'antenna'
p723
S'Zarya'
p724
tp725
a(S'nsubj'
p726
S'stuck'
p727
S'antenna'
p728
tp729
asg57
(lp730
(g686
S'ROOT-0'
p731
S'spacewalk-3'
p732
tp733
a(g690
S'spacewalk-3'
p734
S'2nd-1'
p735
tp736
a(g694
S'spacewalk-3'
p737
S'2-man-2'
p738
tp739
a(g698
S'attach-5'
p740
S'to-4'
p741
tp742
a(g702
S'spacewalk-3'
p743
S'attach-5'
p744
tp745
a(g706
S'antennas-7'
p746
S'Unity-6'
p747
tp748
a(g710
S'attach-5'
p749
S'antennas-7'
p750
tp751
a(g714
S'stuck-10'
p752
S'open-9'
p753
tp754
a(g718
S'attach-5'
p755
S'stuck-10'
p756
tp757
a(g722
S'antenna-12'
p758
S'Zarya-11'
p759
tp760
a(g726
S'stuck-10'
p761
S'antenna-12'
p762
tp763
asg92
(lp764
(S'2nd'
p765
(dp766
S'NormalizedNamedEntityTag'
p767
S'2.0'
p768
sS'Lemma'
p769
S'2nd'
p770
sS'CharacterOffsetEnd'
p771
S'4'
p772
sS'PartOfSpeech'
p773
S'JJ'
p774
sS'CharacterOffsetBegin'
p775
g102
sS'NamedEntityTag'
p776
S'ORDINAL'
p777
stp778
a(S'2-man'
p779
(dp780
S'NamedEntityTag'
p781
g109
sS'CharacterOffsetEnd'
p782
S'10'
p783
sS'Lemma'
p784
S'2-man'
p785
sS'PartOfSpeech'
p786
S'JJ'
p787
sS'CharacterOffsetBegin'
p788
S'5'
p789
stp790
a(S'spacewalk'
p791
(dp792
S'NamedEntityTag'
p793
g109
sS'CharacterOffsetEnd'
p794
S'20'
p795
sS'Lemma'
p796
S'spacewalk'
p797
sS'PartOfSpeech'
p798
S'NN'
p799
sS'CharacterOffsetBegin'
p800
S'11'
p801
stp802
a(S'to'
p803
(dp804
S'NamedEntityTag'
p805
g109
sS'CharacterOffsetEnd'
p806
S'23'
p807
sS'Lemma'
p808
S'to'
p809
sS'PartOfSpeech'
p810
S'TO'
p811
sS'CharacterOffsetBegin'
p812
S'21'
p813
stp814
a(S'attach'
p815
(dp816
S'NamedEntityTag'
p817
g109
sS'CharacterOffsetEnd'
p818
S'30'
p819
sS'Lemma'
p820
S'attach'
p821
sS'PartOfSpeech'
p822
S'VB'
p823
sS'CharacterOffsetBegin'
p824
S'24'
p825
stp826
a(S'Unity'
p827
(dp828
S'NamedEntityTag'
p829
g109
sS'CharacterOffsetEnd'
p830
S'36'
p831
sS'Lemma'
p832
S'Unity'
p833
sS'PartOfSpeech'
p834
S'NNP'
p835
sS'CharacterOffsetBegin'
p836
S'31'
p837
stp838
a(S'antennas'
p839
(dp840
S'NamedEntityTag'
p841
g109
sS'CharacterOffsetEnd'
p842
S'45'
p843
sS'Lemma'
p844
S'antenna'
p845
sS'PartOfSpeech'
p846
S'NNS'
p847
sS'CharacterOffsetBegin'
p848
S'37'
p849
stp850
a(g347
(dp851
S'NamedEntityTag'
p852
g109
sS'CharacterOffsetEnd'
p853
S'46'
p854
sS'Lemma'
p855
g347
sS'PartOfSpeech'
p856
g347
sS'CharacterOffsetBegin'
p857
S'45'
p858
stp859
a(S'open'
p860
(dp861
S'NamedEntityTag'
p862
g109
sS'CharacterOffsetEnd'
p863
S'51'
p864
sS'Lemma'
p865
S'open'
p866
sS'PartOfSpeech'
p867
S'JJ'
p868
sS'CharacterOffsetBegin'
p869
S'47'
p870
stp871
a(S'stuck'
p872
(dp873
S'NamedEntityTag'
p874
g109
sS'CharacterOffsetEnd'
p875
S'57'
p876
sS'Lemma'
p877
S'stick'
p878
sS'PartOfSpeech'
p879
S'VBD'
p880
sS'CharacterOffsetBegin'
p881
S'52'
p882
stp883
a(S'Zarya'
p884
(dp885
S'NamedEntityTag'
p886
g109
sS'CharacterOffsetEnd'
p887
S'63'
p888
sS'Lemma'
p889
S'Zarya'
p890
sS'PartOfSpeech'
p891
S'NNP'
p892
sS'CharacterOffsetBegin'
p893
S'58'
p894
stp895
a(S'antenna'
p896
(dp897
S'NamedEntityTag'
p898
g109
sS'CharacterOffsetEnd'
p899
S'71'
p900
sS'Lemma'
p901
S'antenna'
p902
sS'PartOfSpeech'
p903
S'NN'
p904
sS'CharacterOffsetBegin'
p905
S'64'
p906
stp907
asasasS'article'
p908
(dp909
g265
(lp910
(lp911
((S'two'
p912
I2
I7
I7
I8
tp913
(S'Two'
p914
I0
I0
I0
I1
tp915
tp916
a((S'two'
p917
I5
I8
I8
I9
tp918
(S'Two'
p919
I0
I0
I0
I1
tp920
tp921
aa(lp922
((S'Wednesday'
p923
I9
I8
I8
I9
tp924
(S'Wednesday'
p925
I0
I8
I8
I9
tp926
tp927
aa(lp928
((S'the space station'
p929
I2
I-1
I17
I20
tp930
(S'the international space station under construction'
p931
I0
I6
I13
I19
tp932
tp933
aa(lp934
((S'Ross'
p935
I4
I8
I18
I19
tp936
(S'Jerry Ross'
p937
I1
I8
I7
I9
tp938
tp939
a((S'Ross'
p940
I9
I4
I4
I5
tp941
(S'Jerry Ross'
p942
I1
I8
I7
I9
tp943
tp944
a((S'Ross'
p945
I15
I3
I13
I14
tp946
(S'Jerry Ross'
p947
I1
I8
I7
I9
tp948
tp949
aa(lp950
((S'Newman'
p951
I4
I0
I20
I21
tp952
(S'James Newman'
p953
I1
I1
I10
I12
tp954
tp955
a((S'Newman'
p956
I9
I6
I6
I7
tp957
(S'James Newman'
p958
I1
I1
I10
I12
tp959
tp960
a((S'Newman'
p961
I10
I-1
I9
I10
tp962
(S'James Newman'
p963
I1
I1
I10
I12
tp964
tp965
a((S'him'
p966
I12
I3
I23
I24
tp967
(S'James Newman'
p968
I1
I1
I10
I12
tp969
tp970
a((S'he'
p971
I12
I5
I25
I26
tp972
(S'James Newman'
p973
I1
I1
I10
I12
tp974
tp975
a((S'Newman'
p976
I13
I0
I0
I1
tp977
(S'James Newman'
p978
I1
I1
I10
I12
tp979
tp980
a((S'Newman'
p981
I15
I5
I15
I16
tp982
(S'James Newman'
p983
I1
I1
I10
I12
tp984
tp985
a((S'Newman'
p986
I16
I0
I0
I1
tp987
(S'James Newman'
p988
I1
I1
I10
I12
tp989
tp990
a((S'his'
p991
I17
I8
I8
I9
tp992
(S'James Newman'
p993
I1
I1
I10
I12
tp994
tp995
a((S'Newman'
p996
I17
I3
I23
I24
tp997
(S'James Newman'
p998
I1
I1
I10
I12
tp999
tp1000
aa(lp1001
((S'Their'
p1002
I2
I0
I0
I1
tp1003
(S'Jerry Ross and James Newman'
p1004
I1
I8
I7
I12
tp1005
tp1006
a((S'Their'
p1007
I3
I0
I0
I1
tp1008
(S'Jerry Ross and James Newman'
p1009
I1
I8
I7
I12
tp1010
tp1011
a((S'Ross and Newman'
p1012
I4
I8
I18
I21
tp1013
(S'Jerry Ross and James Newman'
p1014
I1
I8
I7
I12
tp1015
tp1016
a((S'Ross and Newman'
p1017
I9
I4
I4
I7
tp1018
(S'Jerry Ross and James Newman'
p1019
I1
I8
I7
I12
tp1020
tp1021
a((S'Ross and Newman'
p1022
I15
I3
I13
I16
tp1023
(S'Jerry Ross and James Newman'
p1024
I1
I8
I7
I12
tp1025
tp1026
aa(lp1027
((S'the American-made side of the space station'
p1028
I2
I5
I13
I20
tp1029
(S'Unity'
p1030
I2
I1
I11
I12
tp1031
tp1032
a((S'Unity'
p1033
I4
I-1
I29
I30
tp1034
(S'Unity'
p1035
I2
I1
I11
I12
tp1036
tp1037
a((S'Unity'
p1038
I5
I4
I14
I15
tp1039
(S'Unity'
p1040
I2
I1
I11
I12
tp1041
tp1042
a((S'Unity'
p1043
I6
I5
I15
I16
tp1044
(S'Unity'
p1045
I2
I1
I11
I12
tp1046
tp1047
a((S'Unity'
p1048
I8
I2
I12
I13
tp1049
(S'Unity'
p1050
I2
I1
I11
I12
tp1051
tp1052
a((S'Unity'
p1053
I9
I2
I22
I23
tp1054
(S'Unity'
p1055
I2
I1
I11
I12
tp1056
tp1057
aa(lp1058
((S'time permitting'
p1059
I3
I4
I4
I6
tp1060
(S'Their other job'
p1061
I3
I2
I0
I3
tp1062
tp1063
a((S'the job'
p1064
I13
I8
I7
I9
tp1065
(S'Their other job'
p1066
I3
I2
I0
I3
tp1067
tp1068
aa(lp1069
((S'the Russian-built control module'
p1070
I3
I2
I19
I23
tp1071
(S'Zarya'
p1072
I3
I7
I17
I18
tp1073
tp1074
a((S'Zarya'
p1075
I4
I7
I27
I28
tp1076
(S'Zarya'
p1077
I3
I7
I17
I18
tp1078
tp1079
a((S'Zarya'
p1080
I16
I8
I8
I9
tp1081
(S'Zarya'
p1082
I3
I7
I17
I18
tp1083
tp1084
aa(lp1085
((S'the spacewalk'
p1086
I10
I6
I5
I7
tp1087
(S'The planned seven-hour spacewalk'
p1088
I4
I3
I0
I4
tp1089
tp1090
aa(lp1091
((S'the antennas'
p1092
I6
I4
I3
I5
tp1093
(S'two suitcase-size antennas'
p1094
I5
I0
I8
I11
tp1095
tp1096
a((S'the antennas'
p1097
I8
I7
I6
I8
tp1098
(S'two suitcase-size antennas'
p1099
I5
I0
I8
I11
tp1100
tp1101
aa(lp1102
((S'them'
p1103
I5
I7
I17
I18
tp1104
(S'the men'
p1105
I5
I5
I4
I6
tp1106
tp1107
aa(lp1108
((S'Mission Control'
p1109
I10
I1
I0
I2
tp1110
(S'NASAs Mission Control'
p1111
I6
I-1
I17
I20
tp1112
tp1113
a((S'NASA'
p1114
I17
I0
I10
I11
tp1115
(S'NASAs Mission Control'
p1116
I6
I-1
I17
I20
tp1117
tp1118
aa(lp1119
((S'Flight controllers'
p1120
I11
I1
I0
I2
tp1121
(S'U.S. flight controllers'
p1122
I7
I4
I2
I5
tp1123
tp1124
aa(lp1125
((S'The antenna'
p1126
I12
I1
I0
I2
tp1127
(S'the Zarya antenna'
p1128
I10
I7
I15
I18
tp1129
tp1130
a((S'The antenna'
p1131
I14
I1
I0
I2
tp1132
(S'the Zarya antenna'
p1133
I10
I7
I15
I18
tp1134
tp1135
aa(lp1136
((S'This'
p1137
I17
I0
I0
I1
tp1138
(S'the sixth spacewalk for Ross during his 18-year NASA career'
p1139
I17
I4
I2
I12
tp1140
tp1141
a((S'the sixth spacewalk for Ross during his 18-year NASA career , the most by an American , and the third for Newman'
p1142
I17
I4
I2
I24
tp1143
(S'the sixth spacewalk for Ross during his 18-year NASA career'
p1144
I17
I4
I2
I12
tp1145
tp1146
aasg4
(lp1147
(dp1148
g7
S'(ROOT (S (NP (CD Two) (NNS astronauts)) (VP (VBD ventured) (ADVP (ADVP (RB back) (RB out)) (PP (IN on) (NP (DT another) (NN spacewalk)))) (NP-TMP (NNP Wednesday)) (S (VP (TO to) (VP (VB attach) (NP (NNS antennas)) (PP (TO to) (NP (NP (DT the) (JJ international) (NN space) (NN station)) (PP (IN under) (NP (NN construction))))) (PP (NP (QP (RB nearly) (CD 250)) (NNS miles)) (IN above) (NP (NNP Earth))))))) (. .)))'
p1149
sg9
S'Two astronauts ventured back out on another spacewalk Wednesday to attach antennas to the international space station under construction nearly 250 miles above Earth.'
p1150
sg11
(lp1151
(S'root'
p1152
S'ROOT'
p1153
S'ventured'
p1154
tp1155
a(S'num'
p1156
S'astronauts'
p1157
S'Two'
p1158
tp1159
a(S'nsubj'
p1160
S'ventured'
p1161
S'astronauts'
p1162
tp1163
a(S'advmod'
p1164
S'out'
p1165
S'back'
p1166
tp1167
a(S'advmod'
p1168
S'ventured'
p1169
S'out'
p1170
tp1171
a(S'det'
p1172
S'spacewalk'
p1173
S'another'
p1174
tp1175
a(S'prep_on'
p1176
S'out'
p1177
S'spacewalk'
p1178
tp1179
a(S'tmod'
p1180
S'ventured'
p1181
S'Wednesday'
p1182
tp1183
a(S'aux'
p1184
S'attach'
p1185
S'to'
p1186
tp1187
a(S'xcomp'
p1188
S'ventured'
p1189
S'attach'
p1190
tp1191
a(S'dobj'
p1192
S'attach'
p1193
S'antennas'
p1194
tp1195
a(S'det'
p1196
S'station'
p1197
S'the'
p1198
tp1199
a(S'amod'
p1200
S'station'
p1201
S'international'
p1202
tp1203
a(S'nn'
p1204
S'station'
p1205
S'space'
p1206
tp1207
a(S'prep_to'
p1208
S'attach'
p1209
S'station'
p1210
tp1211
a(S'prep_under'
p1212
S'station'
p1213
S'construction'
p1214
tp1215
a(S'quantmod'
p1216
S'250'
p1217
S'nearly'
p1218
tp1219
a(S'num'
p1220
S'miles'
p1221
S'250'
p1222
tp1223
a(S'npadvmod'
p1224
S'attach'
p1225
S'miles'
p1226
tp1227
a(S'prep_above'
p1228
S'attach'
p1229
S'Earth'
p1230
tp1231
asg57
(lp1232
(g1152
S'ROOT-0'
p1233
S'ventured-3'
p1234
tp1235
a(g1156
S'astronauts-2'
p1236
S'Two-1'
p1237
tp1238
a(g1160
S'ventured-3'
p1239
S'astronauts-2'
p1240
tp1241
a(g1164
S'out-5'
p1242
S'back-4'
p1243
tp1244
a(g1168
S'ventured-3'
p1245
S'out-5'
p1246
tp1247
a(g1172
S'spacewalk-8'
p1248
S'another-7'
p1249
tp1250
a(g1176
S'out-5'
p1251
S'spacewalk-8'
p1252
tp1253
a(g1180
S'ventured-3'
p1254
S'Wednesday-9'
p1255
tp1256
a(g1184
S'attach-11'
p1257
S'to-10'
p1258
tp1259
a(g1188
S'ventured-3'
p1260
S'attach-11'
p1261
tp1262
a(g1192
S'attach-11'
p1263
S'antennas-12'
p1264
tp1265
a(g1196
S'station-17'
p1266
S'the-14'
p1267
tp1268
a(g1200
S'station-17'
p1269
S'international-15'
p1270
tp1271
a(g1204
S'station-17'
p1272
S'space-16'
p1273
tp1274
a(g1208
S'attach-11'
p1275
S'station-17'
p1276
tp1277
a(g1212
S'station-17'
p1278
S'construction-19'
p1279
tp1280
a(g1216
S'250-21'
p1281
S'nearly-20'
p1282
tp1283
a(g1220
S'miles-22'
p1284
S'250-21'
p1285
tp1286
a(g1224
S'attach-11'
p1287
S'miles-22'
p1288
tp1289
a(g1228
S'attach-11'
p1290
S'Earth-24'
p1291
tp1292
asg92
(lp1293
(S'Two'
p1294
(dp1295
S'NormalizedNamedEntityTag'
p1296
S'2.0'
p1297
sS'Lemma'
p1298
S'two'
p1299
sS'CharacterOffsetEnd'
p1300
g117
sS'PartOfSpeech'
p1301
S'CD'
p1302
sS'CharacterOffsetBegin'
p1303
S'0'
p1304
sS'NamedEntityTag'
p1305
S'NUMBER'
p1306
stp1307
a(S'astronauts'
p1308
(dp1309
S'NamedEntityTag'
p1310
g109
sS'CharacterOffsetEnd'
p1311
S'14'
p1312
sS'Lemma'
p1313
S'astronaut'
p1314
sS'PartOfSpeech'
p1315
S'NNS'
p1316
sS'CharacterOffsetBegin'
p1317
g772
stp1318
a(S'ventured'
p1319
(dp1320
S'NamedEntityTag'
p1321
g109
sS'CharacterOffsetEnd'
p1322
S'23'
p1323
sS'Lemma'
p1324
S'venture'
p1325
sS'PartOfSpeech'
p1326
S'VBD'
p1327
sS'CharacterOffsetBegin'
p1328
S'15'
p1329
stp1330
a(S'back'
p1331
(dp1332
S'NamedEntityTag'
p1333
g109
sS'CharacterOffsetEnd'
p1334
S'28'
p1335
sS'Lemma'
p1336
S'back'
p1337
sS'PartOfSpeech'
p1338
S'RB'
p1339
sS'CharacterOffsetBegin'
p1340
S'24'
p1341
stp1342
a(S'out'
p1343
(dp1344
S'NamedEntityTag'
p1345
g109
sS'CharacterOffsetEnd'
p1346
S'32'
p1347
sS'Lemma'
p1348
S'out'
p1349
sS'PartOfSpeech'
p1350
S'RB'
p1351
sS'CharacterOffsetBegin'
p1352
S'29'
p1353
stp1354
a(S'on'
p1355
(dp1356
S'NamedEntityTag'
p1357
g109
sS'CharacterOffsetEnd'
p1358
S'35'
p1359
sS'Lemma'
p1360
S'on'
p1361
sS'PartOfSpeech'
p1362
S'IN'
p1363
sS'CharacterOffsetBegin'
p1364
S'33'
p1365
stp1366
a(S'another'
p1367
(dp1368
S'NamedEntityTag'
p1369
g109
sS'CharacterOffsetEnd'
p1370
S'43'
p1371
sS'Lemma'
p1372
S'another'
p1373
sS'PartOfSpeech'
p1374
S'DT'
p1375
sS'CharacterOffsetBegin'
p1376
S'36'
p1377
stp1378
a(S'spacewalk'
p1379
(dp1380
S'NamedEntityTag'
p1381
g109
sS'CharacterOffsetEnd'
p1382
S'53'
p1383
sS'Lemma'
p1384
S'spacewalk'
p1385
sS'PartOfSpeech'
p1386
S'NN'
p1387
sS'CharacterOffsetBegin'
p1388
S'44'
p1389
stp1390
a(S'Wednesday'
p1391
(dp1392
S'NormalizedNamedEntityTag'
p1393
S'XXXX-WXX-3'
p1394
sS'Timex'
p1395
S'<TIMEX3 tid="t1" type="DATE" value="XXXX-WXX-3">Wednesday</TIMEX3>'
p1396
sS'Lemma'
p1397
S'Wednesday'
p1398
sS'CharacterOffsetEnd'
p1399
S'63'
p1400
sS'PartOfSpeech'
p1401
S'NNP'
p1402
sS'CharacterOffsetBegin'
p1403
S'54'
p1404
sS'NamedEntityTag'
p1405
S'DATE'
p1406
stp1407
a(S'to'
p1408
(dp1409
S'NamedEntityTag'
p1410
g109
sS'CharacterOffsetEnd'
p1411
S'66'
p1412
sS'Lemma'
p1413
S'to'
p1414
sS'PartOfSpeech'
p1415
S'TO'
p1416
sS'CharacterOffsetBegin'
p1417
S'64'
p1418
stp1419
a(S'attach'
p1420
(dp1421
S'NamedEntityTag'
p1422
g109
sS'CharacterOffsetEnd'
p1423
S'73'
p1424
sS'Lemma'
p1425
S'attach'
p1426
sS'PartOfSpeech'
p1427
S'VB'
p1428
sS'CharacterOffsetBegin'
p1429
S'67'
p1430
stp1431
a(S'antennas'
p1432
(dp1433
S'NamedEntityTag'
p1434
g109
sS'CharacterOffsetEnd'
p1435
S'82'
p1436
sS'Lemma'
p1437
S'antenna'
p1438
sS'PartOfSpeech'
p1439
S'NNS'
p1440
sS'CharacterOffsetBegin'
p1441
S'74'
p1442
stp1443
a(S'to'
p1444
(dp1445
S'NamedEntityTag'
p1446
g109
sS'CharacterOffsetEnd'
p1447
S'85'
p1448
sS'Lemma'
p1449
S'to'
p1450
sS'PartOfSpeech'
p1451
S'TO'
p1452
sS'CharacterOffsetBegin'
p1453
S'83'
p1454
stp1455
a(S'the'
p1456
(dp1457
S'NamedEntityTag'
p1458
g109
sS'CharacterOffsetEnd'
p1459
S'89'
p1460
sS'Lemma'
p1461
S'the'
p1462
sS'PartOfSpeech'
p1463
S'DT'
p1464
sS'CharacterOffsetBegin'
p1465
S'86'
p1466
stp1467
a(S'international'
p1468
(dp1469
S'NamedEntityTag'
p1470
g109
sS'CharacterOffsetEnd'
p1471
S'103'
p1472
sS'Lemma'
p1473
S'international'
p1474
sS'PartOfSpeech'
p1475
S'JJ'
p1476
sS'CharacterOffsetBegin'
p1477
S'90'
p1478
stp1479
a(S'space'
p1480
(dp1481
S'NamedEntityTag'
p1482
g109
sS'CharacterOffsetEnd'
p1483
S'109'
p1484
sS'Lemma'
p1485
S'space'
p1486
sS'PartOfSpeech'
p1487
S'NN'
p1488
sS'CharacterOffsetBegin'
p1489
S'104'
p1490
stp1491
a(S'station'
p1492
(dp1493
S'NamedEntityTag'
p1494
g109
sS'CharacterOffsetEnd'
p1495
S'117'
p1496
sS'Lemma'
p1497
S'station'
p1498
sS'PartOfSpeech'
p1499
S'NN'
p1500
sS'CharacterOffsetBegin'
p1501
S'110'
p1502
stp1503
a(S'under'
p1504
(dp1505
S'NamedEntityTag'
p1506
g109
sS'CharacterOffsetEnd'
p1507
S'123'
p1508
sS'Lemma'
p1509
S'under'
p1510
sS'PartOfSpeech'
p1511
S'IN'
p1512
sS'CharacterOffsetBegin'
p1513
S'118'
p1514
stp1515
a(S'construction'
p1516
(dp1517
S'NamedEntityTag'
p1518
g109
sS'CharacterOffsetEnd'
p1519
S'136'
p1520
sS'Lemma'
p1521
S'construction'
p1522
sS'PartOfSpeech'
p1523
S'NN'
p1524
sS'CharacterOffsetBegin'
p1525
S'124'
p1526
stp1527
a(S'nearly'
p1528
(dp1529
S'NamedEntityTag'
p1530
g109
sS'CharacterOffsetEnd'
p1531
S'143'
p1532
sS'Lemma'
p1533
S'nearly'
p1534
sS'PartOfSpeech'
p1535
S'RB'
p1536
sS'CharacterOffsetBegin'
p1537
S'137'
p1538
stp1539
a(S'250'
p1540
(dp1541
S'NormalizedNamedEntityTag'
p1542
S'~250.0'
p1543
sS'Lemma'
p1544
S'250'
p1545
sS'CharacterOffsetEnd'
p1546
S'147'
p1547
sS'PartOfSpeech'
p1548
S'CD'
p1549
sS'CharacterOffsetBegin'
p1550
S'144'
p1551
sS'NamedEntityTag'
p1552
S'NUMBER'
p1553
stp1554
a(S'miles'
p1555
(dp1556
S'NamedEntityTag'
p1557
g109
sS'CharacterOffsetEnd'
p1558
S'153'
p1559
sS'Lemma'
p1560
S'mile'
p1561
sS'PartOfSpeech'
p1562
S'NNS'
p1563
sS'CharacterOffsetBegin'
p1564
S'148'
p1565
stp1566
a(S'above'
p1567
(dp1568
S'NamedEntityTag'
p1569
g109
sS'CharacterOffsetEnd'
p1570
S'159'
p1571
sS'Lemma'
p1572
S'above'
p1573
sS'PartOfSpeech'
p1574
S'IN'
p1575
sS'CharacterOffsetBegin'
p1576
S'154'
p1577
stp1578
a(S'Earth'
p1579
(dp1580
S'NamedEntityTag'
p1581
S'LOCATION'
p1582
sS'CharacterOffsetEnd'
p1583
S'165'
p1584
sS'Lemma'
p1585
S'Earth'
p1586
sS'PartOfSpeech'
p1587
S'NNP'
p1588
sS'CharacterOffsetBegin'
p1589
S'160'
p1590
stp1591
a(g254
(dp1592
S'NamedEntityTag'
p1593
g109
sS'CharacterOffsetEnd'
p1594
S'166'
p1595
sS'Lemma'
p1596
g254
sS'PartOfSpeech'
p1597
g254
sS'CharacterOffsetBegin'
p1598
S'165'
p1599
stp1600
asa(dp1601
g7
S'(ROOT (S (PP (IN For) (NP (DT the) (JJ second) (NN time))) (NP-TMP (DT this) (NN week)) (, ,) (NP (NP (NNP Jerry) (NNP Ross)) (CC and) (NP (NNP James) (NNP Newman))) (VP (VBD floated) (PRT (RP out)) (NP (NP (DT the) (NN hatch)) (PP (IN of) (NP (DT the) (NN shuttle) (NNP Endeavour)))) (S (VP (TO to) (VP (VB work) (PP (IN on) (NP (NP (DT the) (JJ seven-story) (, ,) (JJ 35-ton) (NN station)) (VP (VBG taking) (NP (NP (NN shape)) (PP (IN in) (NP (DT the) (JJ open) (NN cargo) (NN bay))))))))))) (. .)))'
p1602
sg9
S'For the second time this week, Jerry Ross and James Newman floated out the hatch of the shuttle Endeavour to work on the seven-story, 35-ton station taking shape in the open cargo bay.'
p1603
sg11
(lp1604
(S'root'
p1605
S'ROOT'
p1606
S'floated'
p1607
tp1608
a(S'det'
p1609
S'time'
p1610
S'the'
p1611
tp1612
a(S'amod'
p1613
S'time'
p1614
S'second'
p1615
tp1616
a(S'prep_for'
p1617
S'floated'
p1618
S'time'
p1619
tp1620
a(S'det'
p1621
S'week'
p1622
S'this'
p1623
tp1624
a(S'tmod'
p1625
S'floated'
p1626
S'week'
p1627
tp1628
a(S'nn'
p1629
S'Ross'
p1630
S'Jerry'
p1631
tp1632
a(S'nsubj'
p1633
S'floated'
p1634
S'Ross'
p1635
tp1636
a(S'nn'
p1637
S'Newman'
p1638
S'James'
p1639
tp1640
a(S'conj_and'
p1641
S'Ross'
p1642
S'Newman'
p1643
tp1644
a(S'prt'
p1645
S'floated'
p1646
S'out'
p1647
tp1648
a(S'det'
p1649
S'hatch'
p1650
S'the'
p1651
tp1652
a(S'dobj'
p1653
S'floated'
p1654
S'hatch'
p1655
tp1656
a(S'det'
p1657
S'Endeavour'
p1658
S'the'
p1659
tp1660
a(S'nn'
p1661
S'Endeavour'
p1662
S'shuttle'
p1663
tp1664
a(S'prep_of'
p1665
S'hatch'
p1666
S'Endeavour'
p1667
tp1668
a(S'aux'
p1669
S'work'
p1670
S'to'
p1671
tp1672
a(S'xcomp'
p1673
S'floated'
p1674
S'work'
p1675
tp1676
a(S'det'
p1677
S'station'
p1678
S'the'
p1679
tp1680
a(S'amod'
p1681
S'station'
p1682
S'seven-story'
p1683
tp1684
a(S'amod'
p1685
S'station'
p1686
S'35-ton'
p1687
tp1688
a(S'prep_on'
p1689
S'work'
p1690
S'station'
p1691
tp1692
a(S'partmod'
p1693
S'station'
p1694
S'taking'
p1695
tp1696
a(S'dobj'
p1697
S'taking'
p1698
S'shape'
p1699
tp1700
a(S'det'
p1701
S'bay'
p1702
S'the'
p1703
tp1704
a(S'amod'
p1705
S'bay'
p1706
S'open'
p1707
tp1708
a(S'nn'
p1709
S'bay'
p1710
S'cargo'
p1711
tp1712
a(S'prep_in'
p1713
S'shape'
p1714
S'bay'
p1715
tp1716
asg57
(lp1717
(g1605
S'ROOT-0'
p1718
S'floated-13'
p1719
tp1720
a(g1609
S'time-4'
p1721
S'the-2'
p1722
tp1723
a(g1613
S'time-4'
p1724
S'second-3'
p1725
tp1726
a(g1617
S'floated-13'
p1727
S'time-4'
p1728
tp1729
a(g1621
S'week-6'
p1730
S'this-5'
p1731
tp1732
a(g1625
S'floated-13'
p1733
S'week-6'
p1734
tp1735
a(g1629
S'Ross-9'
p1736
S'Jerry-8'
p1737
tp1738
a(g1633
S'floated-13'
p1739
S'Ross-9'
p1740
tp1741
a(g1637
S'Newman-12'
p1742
S'James-11'
p1743
tp1744
a(g1641
S'Ross-9'
p1745
S'Newman-12'
p1746
tp1747
a(g1645
S'floated-13'
p1748
S'out-14'
p1749
tp1750
a(g1649
S'hatch-16'
p1751
S'the-15'
p1752
tp1753
a(g1653
S'floated-13'
p1754
S'hatch-16'
p1755
tp1756
a(g1657
S'Endeavour-20'
p1757
S'the-18'
p1758
tp1759
a(g1661
S'Endeavour-20'
p1760
S'shuttle-19'
p1761
tp1762
a(g1665
S'hatch-16'
p1763
S'Endeavour-20'
p1764
tp1765
a(g1669
S'work-22'
p1766
S'to-21'
p1767
tp1768
a(g1673
S'floated-13'
p1769
S'work-22'
p1770
tp1771
a(g1677
S'station-28'
p1772
S'the-24'
p1773
tp1774
a(g1681
S'station-28'
p1775
S'seven-story-25'
p1776
tp1777
a(g1685
S'station-28'
p1778
S'35-ton-27'
p1779
tp1780
a(g1689
S'work-22'
p1781
S'station-28'
p1782
tp1783
a(g1693
S'station-28'
p1784
S'taking-29'
p1785
tp1786
a(g1697
S'taking-29'
p1787
S'shape-30'
p1788
tp1789
a(g1701
S'bay-35'
p1790
S'the-32'
p1791
tp1792
a(g1705
S'bay-35'
p1793
S'open-33'
p1794
tp1795
a(g1709
S'bay-35'
p1796
S'cargo-34'
p1797
tp1798
a(g1713
S'shape-30'
p1799
S'bay-35'
p1800
tp1801
asg92
(lp1802
(S'For'
p1803
(dp1804
S'NamedEntityTag'
p1805
g109
sS'CharacterOffsetEnd'
p1806
S'170'
p1807
sS'Lemma'
p1808
S'for'
p1809
sS'PartOfSpeech'
p1810
S'IN'
p1811
sS'CharacterOffsetBegin'
p1812
S'167'
p1813
stp1814
a(S'the'
p1815
(dp1816
S'NamedEntityTag'
p1817
g109
sS'CharacterOffsetEnd'
p1818
S'174'
p1819
sS'Lemma'
p1820
S'the'
p1821
sS'PartOfSpeech'
p1822
S'DT'
p1823
sS'CharacterOffsetBegin'
p1824
S'171'
p1825
stp1826
a(S'second'
p1827
(dp1828
S'NormalizedNamedEntityTag'
p1829
S'2.0'
p1830
sS'Lemma'
p1831
S'second'
p1832
sS'CharacterOffsetEnd'
p1833
S'181'
p1834
sS'PartOfSpeech'
p1835
S'JJ'
p1836
sS'CharacterOffsetBegin'
p1837
S'175'
p1838
sS'NamedEntityTag'
p1839
S'ORDINAL'
p1840
stp1841
a(S'time'
p1842
(dp1843
S'NamedEntityTag'
p1844
g109
sS'CharacterOffsetEnd'
p1845
S'186'
p1846
sS'Lemma'
p1847
S'time'
p1848
sS'PartOfSpeech'
p1849
S'NN'
p1850
sS'CharacterOffsetBegin'
p1851
S'182'
p1852
stp1853
a(S'this'
p1854
(dp1855
S'NormalizedNamedEntityTag'
p1856
S'THIS'
p1857
sS'Timex'
p1858
S'<TIMEX3 alt_value="THIS P1W" anchorTimeID="t0" temporalFunction="true" tid="t2" type="DATE" valueFromFunction="tf0">this week</TIMEX3>'
p1859
sS'Lemma'
p1860
S'this'
p1861
sS'CharacterOffsetEnd'
p1862
S'191'
p1863
sS'PartOfSpeech'
p1864
S'DT'
p1865
sS'CharacterOffsetBegin'
p1866
S'187'
p1867
sS'NamedEntityTag'
p1868
S'DATE'
p1869
stp1870
a(S'week'
p1871
(dp1872
S'NormalizedNamedEntityTag'
p1873
S'THIS'
p1874
sS'Timex'
p1875
S'<TIMEX3 alt_value="THIS P1W" anchorTimeID="t0" temporalFunction="true" tid="t2" type="DATE" valueFromFunction="tf0">this week</TIMEX3>'
p1876
sS'Lemma'
p1877
S'week'
p1878
sS'CharacterOffsetEnd'
p1879
S'196'
p1880
sS'PartOfSpeech'
p1881
S'NN'
p1882
sS'CharacterOffsetBegin'
p1883
S'192'
p1884
sS'NamedEntityTag'
p1885
S'DATE'
p1886
stp1887
a(g347
(dp1888
S'NamedEntityTag'
p1889
g109
sS'CharacterOffsetEnd'
p1890
S'197'
p1891
sS'Lemma'
p1892
g347
sS'PartOfSpeech'
p1893
g347
sS'CharacterOffsetBegin'
p1894
S'196'
p1895
stp1896
a(S'Jerry'
p1897
(dp1898
S'NamedEntityTag'
p1899
S'PERSON'
p1900
sS'CharacterOffsetEnd'
p1901
S'203'
p1902
sS'Lemma'
p1903
S'Jerry'
p1904
sS'PartOfSpeech'
p1905
S'NNP'
p1906
sS'CharacterOffsetBegin'
p1907
S'198'
p1908
stp1909
a(S'Ross'
p1910
(dp1911
S'NamedEntityTag'
p1912
S'PERSON'
p1913
sS'CharacterOffsetEnd'
p1914
S'208'
p1915
sS'Lemma'
p1916
S'Ross'
p1917
sS'PartOfSpeech'
p1918
S'NNP'
p1919
sS'CharacterOffsetBegin'
p1920
S'204'
p1921
stp1922
a(S'and'
p1923
(dp1924
S'NamedEntityTag'
p1925
g109
sS'CharacterOffsetEnd'
p1926
S'212'
p1927
sS'Lemma'
p1928
S'and'
p1929
sS'PartOfSpeech'
p1930
S'CC'
p1931
sS'CharacterOffsetBegin'
p1932
S'209'
p1933
stp1934
a(S'James'
p1935
(dp1936
S'NamedEntityTag'
p1937
S'PERSON'
p1938
sS'CharacterOffsetEnd'
p1939
S'218'
p1940
sS'Lemma'
p1941
S'James'
p1942
sS'PartOfSpeech'
p1943
S'NNP'
p1944
sS'CharacterOffsetBegin'
p1945
S'213'
p1946
stp1947
a(S'Newman'
p1948
(dp1949
S'NamedEntityTag'
p1950
S'PERSON'
p1951
sS'CharacterOffsetEnd'
p1952
S'225'
p1953
sS'Lemma'
p1954
S'Newman'
p1955
sS'PartOfSpeech'
p1956
S'NNP'
p1957
sS'CharacterOffsetBegin'
p1958
S'219'
p1959
stp1960
a(S'floated'
p1961
(dp1962
S'NamedEntityTag'
p1963
g109
sS'CharacterOffsetEnd'
p1964
S'233'
p1965
sS'Lemma'
p1966
S'float'
p1967
sS'PartOfSpeech'
p1968
S'VBD'
p1969
sS'CharacterOffsetBegin'
p1970
S'226'
p1971
stp1972
a(S'out'
p1973
(dp1974
S'NamedEntityTag'
p1975
g109
sS'CharacterOffsetEnd'
p1976
S'237'
p1977
sS'Lemma'
p1978
S'out'
p1979
sS'PartOfSpeech'
p1980
S'RP'
p1981
sS'CharacterOffsetBegin'
p1982
S'234'
p1983
stp1984
a(S'the'
p1985
(dp1986
S'NamedEntityTag'
p1987
g109
sS'CharacterOffsetEnd'
p1988
S'241'
p1989
sS'Lemma'
p1990
S'the'
p1991
sS'PartOfSpeech'
p1992
S'DT'
p1993
sS'CharacterOffsetBegin'
p1994
S'238'
p1995
stp1996
a(S'hatch'
p1997
(dp1998
S'NamedEntityTag'
p1999
g109
sS'CharacterOffsetEnd'
p2000
S'247'
p2001
sS'Lemma'
p2002
S'hatch'
p2003
sS'PartOfSpeech'
p2004
S'NN'
p2005
sS'CharacterOffsetBegin'
p2006
S'242'
p2007
stp2008
a(S'of'
p2009
(dp2010
S'NamedEntityTag'
p2011
g109
sS'CharacterOffsetEnd'
p2012
S'250'
p2013
sS'Lemma'
p2014
S'of'
p2015
sS'PartOfSpeech'
p2016
S'IN'
p2017
sS'CharacterOffsetBegin'
p2018
S'248'
p2019
stp2020
a(S'the'
p2021
(dp2022
S'NamedEntityTag'
p2023
g109
sS'CharacterOffsetEnd'
p2024
S'254'
p2025
sS'Lemma'
p2026
S'the'
p2027
sS'PartOfSpeech'
p2028
S'DT'
p2029
sS'CharacterOffsetBegin'
p2030
S'251'
p2031
stp2032
a(S'shuttle'
p2033
(dp2034
S'NamedEntityTag'
p2035
g109
sS'CharacterOffsetEnd'
p2036
S'262'
p2037
sS'Lemma'
p2038
S'shuttle'
p2039
sS'PartOfSpeech'
p2040
S'NN'
p2041
sS'CharacterOffsetBegin'
p2042
S'255'
p2043
stp2044
a(S'Endeavour'
p2045
(dp2046
S'NamedEntityTag'
p2047
S'MISC'
p2048
sS'CharacterOffsetEnd'
p2049
S'272'
p2050
sS'Lemma'
p2051
S'Endeavour'
p2052
sS'PartOfSpeech'
p2053
S'NNP'
p2054
sS'CharacterOffsetBegin'
p2055
S'263'
p2056
stp2057
a(S'to'
p2058
(dp2059
S'NamedEntityTag'
p2060
g109
sS'CharacterOffsetEnd'
p2061
S'275'
p2062
sS'Lemma'
p2063
S'to'
p2064
sS'PartOfSpeech'
p2065
S'TO'
p2066
sS'CharacterOffsetBegin'
p2067
S'273'
p2068
stp2069
a(S'work'
p2070
(dp2071
S'NamedEntityTag'
p2072
g109
sS'CharacterOffsetEnd'
p2073
S'280'
p2074
sS'Lemma'
p2075
S'work'
p2076
sS'PartOfSpeech'
p2077
S'VB'
p2078
sS'CharacterOffsetBegin'
p2079
S'276'
p2080
stp2081
a(S'on'
p2082
(dp2083
S'NamedEntityTag'
p2084
g109
sS'CharacterOffsetEnd'
p2085
S'283'
p2086
sS'Lemma'
p2087
S'on'
p2088
sS'PartOfSpeech'
p2089
S'IN'
p2090
sS'CharacterOffsetBegin'
p2091
S'281'
p2092
stp2093
a(S'the'
p2094
(dp2095
S'NamedEntityTag'
p2096
g109
sS'CharacterOffsetEnd'
p2097
S'287'
p2098
sS'Lemma'
p2099
S'the'
p2100
sS'PartOfSpeech'
p2101
S'DT'
p2102
sS'CharacterOffsetBegin'
p2103
S'284'
p2104
stp2105
a(S'seven-story'
p2106
(dp2107
S'NamedEntityTag'
p2108
g109
sS'CharacterOffsetEnd'
p2109
S'299'
p2110
sS'Lemma'
p2111
S'seven-story'
p2112
sS'PartOfSpeech'
p2113
S'JJ'
p2114
sS'CharacterOffsetBegin'
p2115
S'288'
p2116
stp2117
a(g347
(dp2118
S'NamedEntityTag'
p2119
g109
sS'CharacterOffsetEnd'
p2120
S'300'
p2121
sS'Lemma'
p2122
g347
sS'PartOfSpeech'
p2123
g347
sS'CharacterOffsetBegin'
p2124
S'299'
p2125
stp2126
a(S'35-ton'
p2127
(dp2128
S'NamedEntityTag'
p2129
g109
sS'CharacterOffsetEnd'
p2130
S'307'
p2131
sS'Lemma'
p2132
S'35-ton'
p2133
sS'PartOfSpeech'
p2134
S'JJ'
p2135
sS'CharacterOffsetBegin'
p2136
S'301'
p2137
stp2138
a(S'station'
p2139
(dp2140
S'NamedEntityTag'
p2141
g109
sS'CharacterOffsetEnd'
p2142
S'315'
p2143
sS'Lemma'
p2144
S'station'
p2145
sS'PartOfSpeech'
p2146
S'NN'
p2147
sS'CharacterOffsetBegin'
p2148
S'308'
p2149
stp2150
a(S'taking'
p2151
(dp2152
S'NamedEntityTag'
p2153
g109
sS'CharacterOffsetEnd'
p2154
S'322'
p2155
sS'Lemma'
p2156
S'take'
p2157
sS'PartOfSpeech'
p2158
S'VBG'
p2159
sS'CharacterOffsetBegin'
p2160
S'316'
p2161
stp2162
a(S'shape'
p2163
(dp2164
S'NamedEntityTag'
p2165
g109
sS'CharacterOffsetEnd'
p2166
S'328'
p2167
sS'Lemma'
p2168
S'shape'
p2169
sS'PartOfSpeech'
p2170
S'NN'
p2171
sS'CharacterOffsetBegin'
p2172
S'323'
p2173
stp2174
a(S'in'
p2175
(dp2176
S'NamedEntityTag'
p2177
g109
sS'CharacterOffsetEnd'
p2178
S'331'
p2179
sS'Lemma'
p2180
S'in'
p2181
sS'PartOfSpeech'
p2182
S'IN'
p2183
sS'CharacterOffsetBegin'
p2184
S'329'
p2185
stp2186
a(S'the'
p2187
(dp2188
S'NamedEntityTag'
p2189
g109
sS'CharacterOffsetEnd'
p2190
S'335'
p2191
sS'Lemma'
p2192
S'the'
p2193
sS'PartOfSpeech'
p2194
S'DT'
p2195
sS'CharacterOffsetBegin'
p2196
S'332'
p2197
stp2198
a(S'open'
p2199
(dp2200
S'NamedEntityTag'
p2201
g109
sS'CharacterOffsetEnd'
p2202
S'340'
p2203
sS'Lemma'
p2204
S'open'
p2205
sS'PartOfSpeech'
p2206
S'JJ'
p2207
sS'CharacterOffsetBegin'
p2208
S'336'
p2209
stp2210
a(S'cargo'
p2211
(dp2212
S'NamedEntityTag'
p2213
g109
sS'CharacterOffsetEnd'
p2214
S'346'
p2215
sS'Lemma'
p2216
S'cargo'
p2217
sS'PartOfSpeech'
p2218
S'NN'
p2219
sS'CharacterOffsetBegin'
p2220
S'341'
p2221
stp2222
a(S'bay'
p2223
(dp2224
S'NamedEntityTag'
p2225
g109
sS'CharacterOffsetEnd'
p2226
S'350'
p2227
sS'Lemma'
p2228
S'bay'
p2229
sS'PartOfSpeech'
p2230
S'NN'
p2231
sS'CharacterOffsetBegin'
p2232
S'347'
p2233
stp2234
a(g254
(dp2235
S'NamedEntityTag'
p2236
g109
sS'CharacterOffsetEnd'
p2237
S'351'
p2238
sS'Lemma'
p2239
g254
sS'PartOfSpeech'
p2240
g254
sS'CharacterOffsetBegin'
p2241
S'350'
p2242
stp2243
asa(dp2244
g7
S'(ROOT (S (NP (PRP$ Their) (ADJP (NN No.) (CD 1)) (NN priority)) (VP (VBD was) (S (VP (TO to) (VP (VB attach) (NP (CD two) (JJ 100-pound) (NNS antennas)) (PP (TO to) (NP (NP (NNP Unity)) (, ,) (NP (NP (DT the) (JJ American-made) (NN side)) (PP (IN of) (NP (DT the) (NN space) (NN station)))))))))) (. .)))'
p2245
sg9
S'Their No. 1 priority was to attach two 100-pound antennas to Unity, the American-made side of the space station.'
p2246
sg11
(lp2247
(S'root'
p2248
S'ROOT'
p2249
S'was'
p2250
tp2251
a(S'poss'
p2252
S'priority'
p2253
S'Their'
p2254
tp2255
a(S'amod'
p2256
S'priority'
p2257
S'No.'
p2258
tp2259
a(S'number'
p2260
S'No.'
p2261
g102
tp2262
a(S'nsubj'
p2263
S'was'
p2264
S'priority'
p2265
tp2266
a(S'aux'
p2267
S'attach'
p2268
S'to'
p2269
tp2270
a(S'xcomp'
p2271
S'was'
p2272
S'attach'
p2273
tp2274
a(S'num'
p2275
S'antennas'
p2276
S'two'
p2277
tp2278
a(S'amod'
p2279
S'antennas'
p2280
S'100-pound'
p2281
tp2282
a(S'dobj'
p2283
S'attach'
p2284
S'antennas'
p2285
tp2286
a(S'prep_to'
p2287
S'attach'
p2288
S'Unity'
p2289
tp2290
a(S'det'
p2291
S'side'
p2292
S'the'
p2293
tp2294
a(S'amod'
p2295
S'side'
p2296
S'American-made'
p2297
tp2298
a(S'appos'
p2299
S'Unity'
p2300
S'side'
p2301
tp2302
a(S'det'
p2303
S'station'
p2304
S'the'
p2305
tp2306
a(S'nn'
p2307
S'station'
p2308
S'space'
p2309
tp2310
a(S'prep_of'
p2311
S'side'
p2312
S'station'
p2313
tp2314
asg57
(lp2315
(g2248
S'ROOT-0'
p2316
S'was-5'
p2317
tp2318
a(g2252
S'priority-4'
p2319
S'Their-1'
p2320
tp2321
a(g2256
S'priority-4'
p2322
S'No.-2'
p2323
tp2324
a(g2260
S'No.-2'
p2325
S'1-3'
p2326
tp2327
a(g2263
S'was-5'
p2328
S'priority-4'
p2329
tp2330
a(g2267
S'attach-7'
p2331
S'to-6'
p2332
tp2333
a(g2271
S'was-5'
p2334
S'attach-7'
p2335
tp2336
a(g2275
S'antennas-10'
p2337
S'two-8'
p2338
tp2339
a(g2279
S'antennas-10'
p2340
S'100-pound-9'
p2341
tp2342
a(g2283
S'attach-7'
p2343
S'antennas-10'
p2344
tp2345
a(g2287
S'attach-7'
p2346
S'Unity-12'
p2347
tp2348
a(g2291
S'side-16'
p2349
S'the-14'
p2350
tp2351
a(g2295
S'side-16'
p2352
S'American-made-15'
p2353
tp2354
a(g2299
S'Unity-12'
p2355
S'side-16'
p2356
tp2357
a(g2303
S'station-20'
p2358
S'the-18'
p2359
tp2360
a(g2307
S'station-20'
p2361
S'space-19'
p2362
tp2363
a(g2311
S'side-16'
p2364
S'station-20'
p2365
tp2366
asg92
(lp2367
(S'Their'
p2368
(dp2369
S'NamedEntityTag'
p2370
g109
sS'CharacterOffsetEnd'
p2371
S'357'
p2372
sS'Lemma'
p2373
S'they'
p2374
sS'PartOfSpeech'
p2375
S'PRP$'
p2376
sS'CharacterOffsetBegin'
p2377
S'352'
p2378
stp2379
a(S'No.'
p2380
(dp2381
S'NamedEntityTag'
p2382
g109
sS'CharacterOffsetEnd'
p2383
S'361'
p2384
sS'Lemma'
p2385
S'no.'
p2386
sS'PartOfSpeech'
p2387
S'NN'
p2388
sS'CharacterOffsetBegin'
p2389
S'358'
p2390
stp2391
a(g102
(dp2392
S'NormalizedNamedEntityTag'
p2393
S'1.0'
p2394
sS'Lemma'
p2395
g102
sS'CharacterOffsetEnd'
p2396
S'363'
p2397
sS'PartOfSpeech'
p2398
S'CD'
p2399
sS'CharacterOffsetBegin'
p2400
S'362'
p2401
sS'NamedEntityTag'
p2402
S'NUMBER'
p2403
stp2404
a(S'priority'
p2405
(dp2406
S'NamedEntityTag'
p2407
g109
sS'CharacterOffsetEnd'
p2408
S'372'
p2409
sS'Lemma'
p2410
S'priority'
p2411
sS'PartOfSpeech'
p2412
S'NN'
p2413
sS'CharacterOffsetBegin'
p2414
S'364'
p2415
stp2416
a(S'was'
p2417
(dp2418
S'NamedEntityTag'
p2419
g109
sS'CharacterOffsetEnd'
p2420
S'376'
p2421
sS'Lemma'
p2422
S'be'
p2423
sS'PartOfSpeech'
p2424
S'VBD'
p2425
sS'CharacterOffsetBegin'
p2426
S'373'
p2427
stp2428
a(S'to'
p2429
(dp2430
S'NamedEntityTag'
p2431
g109
sS'CharacterOffsetEnd'
p2432
S'379'
p2433
sS'Lemma'
p2434
S'to'
p2435
sS'PartOfSpeech'
p2436
S'TO'
p2437
sS'CharacterOffsetBegin'
p2438
S'377'
p2439
stp2440
a(S'attach'
p2441
(dp2442
S'NamedEntityTag'
p2443
g109
sS'CharacterOffsetEnd'
p2444
S'386'
p2445
sS'Lemma'
p2446
S'attach'
p2447
sS'PartOfSpeech'
p2448
S'VB'
p2449
sS'CharacterOffsetBegin'
p2450
S'380'
p2451
stp2452
a(S'two'
p2453
(dp2454
S'NormalizedNamedEntityTag'
p2455
S'2.0'
p2456
sS'Lemma'
p2457
S'two'
p2458
sS'CharacterOffsetEnd'
p2459
S'390'
p2460
sS'PartOfSpeech'
p2461
S'CD'
p2462
sS'CharacterOffsetBegin'
p2463
S'387'
p2464
sS'NamedEntityTag'
p2465
S'NUMBER'
p2466
stp2467
a(S'100-pound'
p2468
(dp2469
S'NamedEntityTag'
p2470
g109
sS'CharacterOffsetEnd'
p2471
S'400'
p2472
sS'Lemma'
p2473
S'100-pound'
p2474
sS'PartOfSpeech'
p2475
S'JJ'
p2476
sS'CharacterOffsetBegin'
p2477
S'391'
p2478
stp2479
a(S'antennas'
p2480
(dp2481
S'NamedEntityTag'
p2482
g109
sS'CharacterOffsetEnd'
p2483
S'409'
p2484
sS'Lemma'
p2485
S'antenna'
p2486
sS'PartOfSpeech'
p2487
S'NNS'
p2488
sS'CharacterOffsetBegin'
p2489
S'401'
p2490
stp2491
a(S'to'
p2492
(dp2493
S'NamedEntityTag'
p2494
g109
sS'CharacterOffsetEnd'
p2495
S'412'
p2496
sS'Lemma'
p2497
S'to'
p2498
sS'PartOfSpeech'
p2499
S'TO'
p2500
sS'CharacterOffsetBegin'
p2501
S'410'
p2502
stp2503
a(S'Unity'
p2504
(dp2505
S'NamedEntityTag'
p2506
g109
sS'CharacterOffsetEnd'
p2507
S'418'
p2508
sS'Lemma'
p2509
S'Unity'
p2510
sS'PartOfSpeech'
p2511
S'NNP'
p2512
sS'CharacterOffsetBegin'
p2513
S'413'
p2514
stp2515
a(g347
(dp2516
S'NamedEntityTag'
p2517
g109
sS'CharacterOffsetEnd'
p2518
S'419'
p2519
sS'Lemma'
p2520
g347
sS'PartOfSpeech'
p2521
g347
sS'CharacterOffsetBegin'
p2522
S'418'
p2523
stp2524
a(S'the'
p2525
(dp2526
S'NamedEntityTag'
p2527
g109
sS'CharacterOffsetEnd'
p2528
S'423'
p2529
sS'Lemma'
p2530
S'the'
p2531
sS'PartOfSpeech'
p2532
S'DT'
p2533
sS'CharacterOffsetBegin'
p2534
S'420'
p2535
stp2536
a(S'American-made'
p2537
(dp2538
S'NamedEntityTag'
p2539
S'MISC'
p2540
sS'CharacterOffsetEnd'
p2541
S'437'
p2542
sS'Lemma'
p2543
S'american-made'
p2544
sS'PartOfSpeech'
p2545
S'JJ'
p2546
sS'CharacterOffsetBegin'
p2547
S'424'
p2548
stp2549
a(S'side'
p2550
(dp2551
S'NamedEntityTag'
p2552
g109
sS'CharacterOffsetEnd'
p2553
S'442'
p2554
sS'Lemma'
p2555
S'side'
p2556
sS'PartOfSpeech'
p2557
S'NN'
p2558
sS'CharacterOffsetBegin'
p2559
S'438'
p2560
stp2561
a(S'of'
p2562
(dp2563
S'NamedEntityTag'
p2564
g109
sS'CharacterOffsetEnd'
p2565
S'445'
p2566
sS'Lemma'
p2567
S'of'
p2568
sS'PartOfSpeech'
p2569
S'IN'
p2570
sS'CharacterOffsetBegin'
p2571
S'443'
p2572
stp2573
a(S'the'
p2574
(dp2575
S'NamedEntityTag'
p2576
g109
sS'CharacterOffsetEnd'
p2577
S'449'
p2578
sS'Lemma'
p2579
S'the'
p2580
sS'PartOfSpeech'
p2581
S'DT'
p2582
sS'CharacterOffsetBegin'
p2583
S'446'
p2584
stp2585
a(S'space'
p2586
(dp2587
S'NamedEntityTag'
p2588
g109
sS'CharacterOffsetEnd'
p2589
S'455'
p2590
sS'Lemma'
p2591
S'space'
p2592
sS'PartOfSpeech'
p2593
S'NN'
p2594
sS'CharacterOffsetBegin'
p2595
S'450'
p2596
stp2597
a(S'station'
p2598
(dp2599
S'NamedEntityTag'
p2600
g109
sS'CharacterOffsetEnd'
p2601
S'463'
p2602
sS'Lemma'
p2603
S'station'
p2604
sS'PartOfSpeech'
p2605
S'NN'
p2606
sS'CharacterOffsetBegin'
p2607
S'456'
p2608
stp2609
a(g254
(dp2610
S'NamedEntityTag'
p2611
g109
sS'CharacterOffsetEnd'
p2612
S'464'
p2613
sS'Lemma'
p2614
g254
sS'PartOfSpeech'
p2615
g254
sS'CharacterOffsetBegin'
p2616
S'463'
p2617
stp2618
asa(dp2619
g7
S'(ROOT (S (S (NP (NP (PRP$ Their) (JJ other) (NN job)) (, ,) (NP (NP (NN time)) (VP (VBG permitting))) (, ,)) (VP (VBD was) (ADJP (JJR trickier)))) (: :) (S (VP (VBG trying) (S (VP (TO to) (VP (VB open) (NP (DT a) (JJ stuck) (NN antenna)) (PP (IN on) (NP (NP (NNP Zarya)) (, ,) (NP (DT the) (NN Russian-built) (NN control) (NN module))))))))) (. .)))'
p2620
sg9
S'Their other job, time permitting, was trickier: trying to open a stuck antenna on Zarya, the Russian-built control module.'
p2621
sg11
(lp2622
(S'root'
p2623
S'ROOT'
p2624
S'trickier'
p2625
tp2626
a(S'poss'
p2627
S'job'
p2628
S'Their'
p2629
tp2630
a(S'amod'
p2631
S'job'
p2632
S'other'
p2633
tp2634
a(S'nsubj'
p2635
S'trickier'
p2636
S'job'
p2637
tp2638
a(S'appos'
p2639
S'job'
p2640
S'time'
p2641
tp2642
a(S'partmod'
p2643
S'time'
p2644
S'permitting'
p2645
tp2646
a(S'cop'
p2647
S'trickier'
p2648
S'was'
p2649
tp2650
a(S'parataxis'
p2651
S'trickier'
p2652
S'trying'
p2653
tp2654
a(S'aux'
p2655
S'open'
p2656
S'to'
p2657
tp2658
a(S'xcomp'
p2659
S'trying'
p2660
S'open'
p2661
tp2662
a(S'det'
p2663
S'antenna'
p2664
S'a'
p2665
tp2666
a(S'amod'
p2667
S'antenna'
p2668
S'stuck'
p2669
tp2670
a(S'dobj'
p2671
S'open'
p2672
S'antenna'
p2673
tp2674
a(S'prep_on'
p2675
S'open'
p2676
S'Zarya'
p2677
tp2678
a(S'det'
p2679
S'module'
p2680
S'the'
p2681
tp2682
a(S'nn'
p2683
S'module'
p2684
S'Russian-built'
p2685
tp2686
a(S'nn'
p2687
S'module'
p2688
S'control'
p2689
tp2690
a(S'appos'
p2691
S'Zarya'
p2692
S'module'
p2693
tp2694
asg57
(lp2695
(g2623
S'ROOT-0'
p2696
S'trickier-9'
p2697
tp2698
a(g2627
S'job-3'
p2699
S'Their-1'
p2700
tp2701
a(g2631
S'job-3'
p2702
S'other-2'
p2703
tp2704
a(g2635
S'trickier-9'
p2705
S'job-3'
p2706
tp2707
a(g2639
S'job-3'
p2708
S'time-5'
p2709
tp2710
a(g2643
S'time-5'
p2711
S'permitting-6'
p2712
tp2713
a(g2647
S'trickier-9'
p2714
S'was-8'
p2715
tp2716
a(g2651
S'trickier-9'
p2717
S'trying-11'
p2718
tp2719
a(g2655
S'open-13'
p2720
S'to-12'
p2721
tp2722
a(g2659
S'trying-11'
p2723
S'open-13'
p2724
tp2725
a(g2663
S'antenna-16'
p2726
S'a-14'
p2727
tp2728
a(g2667
S'antenna-16'
p2729
S'stuck-15'
p2730
tp2731
a(g2671
S'open-13'
p2732
S'antenna-16'
p2733
tp2734
a(g2675
S'open-13'
p2735
S'Zarya-18'
p2736
tp2737
a(g2679
S'module-23'
p2738
S'the-20'
p2739
tp2740
a(g2683
S'module-23'
p2741
S'Russian-built-21'
p2742
tp2743
a(g2687
S'module-23'
p2744
S'control-22'
p2745
tp2746
a(g2691
S'Zarya-18'
p2747
S'module-23'
p2748
tp2749
asg92
(lp2750
(S'Their'
p2751
(dp2752
S'NamedEntityTag'
p2753
g109
sS'CharacterOffsetEnd'
p2754
S'470'
p2755
sS'Lemma'
p2756
S'they'
p2757
sS'PartOfSpeech'
p2758
S'PRP$'
p2759
sS'CharacterOffsetBegin'
p2760
S'465'
p2761
stp2762
a(S'other'
p2763
(dp2764
S'NamedEntityTag'
p2765
g109
sS'CharacterOffsetEnd'
p2766
S'476'
p2767
sS'Lemma'
p2768
S'other'
p2769
sS'PartOfSpeech'
p2770
S'JJ'
p2771
sS'CharacterOffsetBegin'
p2772
S'471'
p2773
stp2774
a(S'job'
p2775
(dp2776
S'NamedEntityTag'
p2777
g109
sS'CharacterOffsetEnd'
p2778
S'480'
p2779
sS'Lemma'
p2780
S'job'
p2781
sS'PartOfSpeech'
p2782
S'NN'
p2783
sS'CharacterOffsetBegin'
p2784
S'477'
p2785
stp2786
a(g347
(dp2787
S'NamedEntityTag'
p2788
g109
sS'CharacterOffsetEnd'
p2789
S'481'
p2790
sS'Lemma'
p2791
g347
sS'PartOfSpeech'
p2792
g347
sS'CharacterOffsetBegin'
p2793
S'480'
p2794
stp2795
a(S'time'
p2796
(dp2797
S'NamedEntityTag'
p2798
g109
sS'CharacterOffsetEnd'
p2799
S'486'
p2800
sS'Lemma'
p2801
S'time'
p2802
sS'PartOfSpeech'
p2803
S'NN'
p2804
sS'CharacterOffsetBegin'
p2805
S'482'
p2806
stp2807
a(S'permitting'
p2808
(dp2809
S'NamedEntityTag'
p2810
g109
sS'CharacterOffsetEnd'
p2811
S'497'
p2812
sS'Lemma'
p2813
S'permit'
p2814
sS'PartOfSpeech'
p2815
S'VBG'
p2816
sS'CharacterOffsetBegin'
p2817
S'487'
p2818
stp2819
a(g347
(dp2820
S'NamedEntityTag'
p2821
g109
sS'CharacterOffsetEnd'
p2822
S'498'
p2823
sS'Lemma'
p2824
g347
sS'PartOfSpeech'
p2825
g347
sS'CharacterOffsetBegin'
p2826
S'497'
p2827
stp2828
a(S'was'
p2829
(dp2830
S'NamedEntityTag'
p2831
g109
sS'CharacterOffsetEnd'
p2832
S'502'
p2833
sS'Lemma'
p2834
S'be'
p2835
sS'PartOfSpeech'
p2836
S'VBD'
p2837
sS'CharacterOffsetBegin'
p2838
S'499'
p2839
stp2840
a(S'trickier'
p2841
(dp2842
S'NamedEntityTag'
p2843
g109
sS'CharacterOffsetEnd'
p2844
S'511'
p2845
sS'Lemma'
p2846
S'trickier'
p2847
sS'PartOfSpeech'
p2848
S'JJR'
p2849
sS'CharacterOffsetBegin'
p2850
S'503'
p2851
stp2852
a(S':'
p2853
(dp2854
S'NamedEntityTag'
p2855
g109
sS'CharacterOffsetEnd'
p2856
S'512'
p2857
sS'Lemma'
p2858
g2853
sS'PartOfSpeech'
p2859
g2853
sS'CharacterOffsetBegin'
p2860
S'511'
p2861
stp2862
a(S'trying'
p2863
(dp2864
S'NamedEntityTag'
p2865
g109
sS'CharacterOffsetEnd'
p2866
S'519'
p2867
sS'Lemma'
p2868
S'try'
p2869
sS'PartOfSpeech'
p2870
S'VBG'
p2871
sS'CharacterOffsetBegin'
p2872
S'513'
p2873
stp2874
a(S'to'
p2875
(dp2876
S'NamedEntityTag'
p2877
g109
sS'CharacterOffsetEnd'
p2878
S'522'
p2879
sS'Lemma'
p2880
S'to'
p2881
sS'PartOfSpeech'
p2882
S'TO'
p2883
sS'CharacterOffsetBegin'
p2884
S'520'
p2885
stp2886
a(S'open'
p2887
(dp2888
S'NamedEntityTag'
p2889
g109
sS'CharacterOffsetEnd'
p2890
S'527'
p2891
sS'Lemma'
p2892
S'open'
p2893
sS'PartOfSpeech'
p2894
S'VB'
p2895
sS'CharacterOffsetBegin'
p2896
S'523'
p2897
stp2898
a(g2665
(dp2899
S'NamedEntityTag'
p2900
g109
sS'CharacterOffsetEnd'
p2901
S'529'
p2902
sS'Lemma'
p2903
g2665
sS'PartOfSpeech'
p2904
S'DT'
p2905
sS'CharacterOffsetBegin'
p2906
S'528'
p2907
stp2908
a(S'stuck'
p2909
(dp2910
S'NamedEntityTag'
p2911
g109
sS'CharacterOffsetEnd'
p2912
S'535'
p2913
sS'Lemma'
p2914
S'stuck'
p2915
sS'PartOfSpeech'
p2916
S'JJ'
p2917
sS'CharacterOffsetBegin'
p2918
S'530'
p2919
stp2920
a(S'antenna'
p2921
(dp2922
S'NamedEntityTag'
p2923
g109
sS'CharacterOffsetEnd'
p2924
S'543'
p2925
sS'Lemma'
p2926
S'antenna'
p2927
sS'PartOfSpeech'
p2928
S'NN'
p2929
sS'CharacterOffsetBegin'
p2930
S'536'
p2931
stp2932
a(S'on'
p2933
(dp2934
S'NamedEntityTag'
p2935
g109
sS'CharacterOffsetEnd'
p2936
S'546'
p2937
sS'Lemma'
p2938
S'on'
p2939
sS'PartOfSpeech'
p2940
S'IN'
p2941
sS'CharacterOffsetBegin'
p2942
S'544'
p2943
stp2944
a(S'Zarya'
p2945
(dp2946
S'NamedEntityTag'
p2947
g109
sS'CharacterOffsetEnd'
p2948
S'552'
p2949
sS'Lemma'
p2950
S'Zarya'
p2951
sS'PartOfSpeech'
p2952
S'NNP'
p2953
sS'CharacterOffsetBegin'
p2954
S'547'
p2955
stp2956
a(g347
(dp2957
S'NamedEntityTag'
p2958
g109
sS'CharacterOffsetEnd'
p2959
S'553'
p2960
sS'Lemma'
p2961
g347
sS'PartOfSpeech'
p2962
g347
sS'CharacterOffsetBegin'
p2963
S'552'
p2964
stp2965
a(S'the'
p2966
(dp2967
S'NamedEntityTag'
p2968
g109
sS'CharacterOffsetEnd'
p2969
S'557'
p2970
sS'Lemma'
p2971
S'the'
p2972
sS'PartOfSpeech'
p2973
S'DT'
p2974
sS'CharacterOffsetBegin'
p2975
S'554'
p2976
stp2977
a(S'Russian-built'
p2978
(dp2979
S'NamedEntityTag'
p2980
S'MISC'
p2981
sS'CharacterOffsetEnd'
p2982
S'571'
p2983
sS'Lemma'
p2984
S'russian-built'
p2985
sS'PartOfSpeech'
p2986
S'NN'
p2987
sS'CharacterOffsetBegin'
p2988
S'558'
p2989
stp2990
a(S'control'
p2991
(dp2992
S'NamedEntityTag'
p2993
g109
sS'CharacterOffsetEnd'
p2994
S'579'
p2995
sS'Lemma'
p2996
S'control'
p2997
sS'PartOfSpeech'
p2998
S'NN'
p2999
sS'CharacterOffsetBegin'
p3000
S'572'
p3001
stp3002
a(S'module'
p3003
(dp3004
S'NamedEntityTag'
p3005
g109
sS'CharacterOffsetEnd'
p3006
S'586'
p3007
sS'Lemma'
p3008
S'module'
p3009
sS'PartOfSpeech'
p3010
S'NN'
p3011
sS'CharacterOffsetBegin'
p3012
S'580'
p3013
stp3014
a(g254
(dp3015
S'NamedEntityTag'
p3016
g109
sS'CharacterOffsetEnd'
p3017
S'587'
p3018
sS'Lemma'
p3019
g254
sS'PartOfSpeech'
p3020
g254
sS'CharacterOffsetBegin'
p3021
S'586'
p3022
stp3023
asa(dp3024
g7
S'(ROOT (S (NP (DT The) (VBN planned) (JJ seven-hour) (NN spacewalk)) (VP (VBD was) (RB not) (ADJP (RB nearly) (PP (IN as) (NP (NP (ADJP (ADJP (JJ difficult)) (CC or) (ADJP (JJ crucial) (PP (IN as) (NP (NNP Monday) (NNS nights))))) (VBG outing)) (, ,) (SBAR (WHPP (IN during) (WHNP (WDT which))) (S (NP (NNP Ross) (CC and) (NNP Newman)) (VP (VBD hooked) (PRT (RP up)) (NP (NP (CD 40) (JJ electrical) (NNS connections)) (PP (IN between) (NP (NNP Zarya) (CC and) (NNP Unity))))))))))) (. .)))'
p3025
sg9
S'The planned seven-hour spacewalk was not nearly as difficult or crucial as Monday nights outing, during which Ross and Newman hooked up 40 electrical connections between Zarya and Unity.'
p3026
sg11
(lp3027
(S'root'
p3028
S'ROOT'
p3029
S'nearly'
p3030
tp3031
a(S'det'
p3032
S'spacewalk'
p3033
S'The'
p3034
tp3035
a(S'amod'
p3036
S'spacewalk'
p3037
S'planned'
p3038
tp3039
a(S'amod'
p3040
S'spacewalk'
p3041
S'seven-hour'
p3042
tp3043
a(S'nsubj'
p3044
S'nearly'
p3045
S'spacewalk'
p3046
tp3047
a(S'cop'
p3048
S'nearly'
p3049
S'was'
p3050
tp3051
a(S'neg'
p3052
S'nearly'
p3053
S'not'
p3054
tp3055
a(S'prep_as'
p3056
S'nearly'
p3057
S'difficult'
p3058
tp3059
a(S'conj_or'
p3060
S'difficult'
p3061
S'crucial'
p3062
tp3063
a(S'nn'
p3064
S'nights'
p3065
S'Monday'
p3066
tp3067
a(S'prep_as'
p3068
S'crucial'
p3069
S'nights'
p3070
tp3071
a(S'amod'
p3072
S'difficult'
p3073
S'outing'
p3074
tp3075
a(S'prep_during'
p3076
S'hooked'
p3077
S'which'
p3078
tp3079
a(S'nsubj'
p3080
S'hooked'
p3081
S'Ross'
p3082
tp3083
a(S'conj_and'
p3084
S'Ross'
p3085
S'Newman'
p3086
tp3087
a(S'rcmod'
p3088
S'difficult'
p3089
S'hooked'
p3090
tp3091
a(S'prt'
p3092
S'hooked'
p3093
S'up'
p3094
tp3095
a(S'num'
p3096
S'connections'
p3097
S'40'
p3098
tp3099
a(S'amod'
p3100
S'connections'
p3101
S'electrical'
p3102
tp3103
a(S'dobj'
p3104
S'hooked'
p3105
S'connections'
p3106
tp3107
a(S'prep_between'
p3108
S'connections'
p3109
S'Zarya'
p3110
tp3111
a(S'conj_and'
p3112
S'Zarya'
p3113
S'Unity'
p3114
tp3115
asg57
(lp3116
(g3028
S'ROOT-0'
p3117
S'nearly-7'
p3118
tp3119
a(g3032
S'spacewalk-4'
p3120
S'The-1'
p3121
tp3122
a(g3036
S'spacewalk-4'
p3123
S'planned-2'
p3124
tp3125
a(g3040
S'spacewalk-4'
p3126
S'seven-hour-3'
p3127
tp3128
a(g3044
S'nearly-7'
p3129
S'spacewalk-4'
p3130
tp3131
a(g3048
S'nearly-7'
p3132
S'was-5'
p3133
tp3134
a(g3052
S'nearly-7'
p3135
S'not-6'
p3136
tp3137
a(g3056
S'nearly-7'
p3138
S'difficult-9'
p3139
tp3140
a(g3060
S'difficult-9'
p3141
S'crucial-11'
p3142
tp3143
a(g3064
S'nights-14'
p3144
S'Monday-13'
p3145
tp3146
a(g3068
S'crucial-11'
p3147
S'nights-14'
p3148
tp3149
a(g3072
S'difficult-9'
p3150
S'outing-15'
p3151
tp3152
a(g3076
S'hooked-22'
p3153
S'which-18'
p3154
tp3155
a(g3080
S'hooked-22'
p3156
S'Ross-19'
p3157
tp3158
a(g3084
S'Ross-19'
p3159
S'Newman-21'
p3160
tp3161
a(g3088
S'difficult-9'
p3162
S'hooked-22'
p3163
tp3164
a(g3092
S'hooked-22'
p3165
S'up-23'
p3166
tp3167
a(g3096
S'connections-26'
p3168
S'40-24'
p3169
tp3170
a(g3100
S'connections-26'
p3171
S'electrical-25'
p3172
tp3173
a(g3104
S'hooked-22'
p3174
S'connections-26'
p3175
tp3176
a(g3108
S'connections-26'
p3177
S'Zarya-28'
p3178
tp3179
a(g3112
S'Zarya-28'
p3180
S'Unity-30'
p3181
tp3182
asg92
(lp3183
(S'The'
p3184
(dp3185
S'NamedEntityTag'
p3186
g109
sS'CharacterOffsetEnd'
p3187
S'591'
p3188
sS'Lemma'
p3189
S'the'
p3190
sS'PartOfSpeech'
p3191
S'DT'
p3192
sS'CharacterOffsetBegin'
p3193
S'588'
p3194
stp3195
a(S'planned'
p3196
(dp3197
S'NamedEntityTag'
p3198
g109
sS'CharacterOffsetEnd'
p3199
S'599'
p3200
sS'Lemma'
p3201
S'plan'
p3202
sS'PartOfSpeech'
p3203
S'VBN'
p3204
sS'CharacterOffsetBegin'
p3205
S'592'
p3206
stp3207
a(S'seven-hour'
p3208
(dp3209
S'NormalizedNamedEntityTag'
p3210
S'PT7H'
p3211
sS'Timex'
p3212
S'<TIMEX3 tid="t3" type="DURATION" value="PT7H">seven-hour</TIMEX3>'
p3213
sS'Lemma'
p3214
S'seven-hour'
p3215
sS'CharacterOffsetEnd'
p3216
S'610'
p3217
sS'PartOfSpeech'
p3218
S'JJ'
p3219
sS'CharacterOffsetBegin'
p3220
S'600'
p3221
sS'NamedEntityTag'
p3222
S'DURATION'
p3223
stp3224
a(S'spacewalk'
p3225
(dp3226
S'NamedEntityTag'
p3227
g109
sS'CharacterOffsetEnd'
p3228
S'620'
p3229
sS'Lemma'
p3230
S'spacewalk'
p3231
sS'PartOfSpeech'
p3232
S'NN'
p3233
sS'CharacterOffsetBegin'
p3234
S'611'
p3235
stp3236
a(S'was'
p3237
(dp3238
S'NamedEntityTag'
p3239
g109
sS'CharacterOffsetEnd'
p3240
S'624'
p3241
sS'Lemma'
p3242
S'be'
p3243
sS'PartOfSpeech'
p3244
S'VBD'
p3245
sS'CharacterOffsetBegin'
p3246
S'621'
p3247
stp3248
a(S'not'
p3249
(dp3250
S'NamedEntityTag'
p3251
g109
sS'CharacterOffsetEnd'
p3252
S'628'
p3253
sS'Lemma'
p3254
S'not'
p3255
sS'PartOfSpeech'
p3256
S'RB'
p3257
sS'CharacterOffsetBegin'
p3258
S'625'
p3259
stp3260
a(S'nearly'
p3261
(dp3262
S'NamedEntityTag'
p3263
g109
sS'CharacterOffsetEnd'
p3264
S'635'
p3265
sS'Lemma'
p3266
S'nearly'
p3267
sS'PartOfSpeech'
p3268
S'RB'
p3269
sS'CharacterOffsetBegin'
p3270
S'629'
p3271
stp3272
a(S'as'
p3273
(dp3274
S'NamedEntityTag'
p3275
g109
sS'CharacterOffsetEnd'
p3276
S'638'
p3277
sS'Lemma'
p3278
S'as'
p3279
sS'PartOfSpeech'
p3280
S'IN'
p3281
sS'CharacterOffsetBegin'
p3282
S'636'
p3283
stp3284
a(S'difficult'
p3285
(dp3286
S'NamedEntityTag'
p3287
g109
sS'CharacterOffsetEnd'
p3288
S'648'
p3289
sS'Lemma'
p3290
S'difficult'
p3291
sS'PartOfSpeech'
p3292
S'JJ'
p3293
sS'CharacterOffsetBegin'
p3294
S'639'
p3295
stp3296
a(S'or'
p3297
(dp3298
S'NamedEntityTag'
p3299
g109
sS'CharacterOffsetEnd'
p3300
S'651'
p3301
sS'Lemma'
p3302
S'or'
p3303
sS'PartOfSpeech'
p3304
S'CC'
p3305
sS'CharacterOffsetBegin'
p3306
S'649'
p3307
stp3308
a(S'crucial'
p3309
(dp3310
S'NamedEntityTag'
p3311
g109
sS'CharacterOffsetEnd'
p3312
S'659'
p3313
sS'Lemma'
p3314
S'crucial'
p3315
sS'PartOfSpeech'
p3316
S'JJ'
p3317
sS'CharacterOffsetBegin'
p3318
S'652'
p3319
stp3320
a(S'as'
p3321
(dp3322
S'NamedEntityTag'
p3323
g109
sS'CharacterOffsetEnd'
p3324
S'662'
p3325
sS'Lemma'
p3326
S'as'
p3327
sS'PartOfSpeech'
p3328
S'IN'
p3329
sS'CharacterOffsetBegin'
p3330
S'660'
p3331
stp3332
a(S'Monday'
p3333
(dp3334
S'NormalizedNamedEntityTag'
p3335
S'XXXX-WXX-1TNI'
p3336
sS'Timex'
p3337
S'<TIMEX3 tid="t4" type="TIME" value="XXXX-WXX-1TNI">Monday nights</TIMEX3>'
p3338
sS'Lemma'
p3339
S'Monday'
p3340
sS'CharacterOffsetEnd'
p3341
S'669'
p3342
sS'PartOfSpeech'
p3343
S'NNP'
p3344
sS'CharacterOffsetBegin'
p3345
S'663'
p3346
sS'NamedEntityTag'
p3347
S'DATE'
p3348
stp3349
a(S'nights'
p3350
(dp3351
S'NormalizedNamedEntityTag'
p3352
S'XXXX-WXX-1TNI'
p3353
sS'Timex'
p3354
S'<TIMEX3 tid="t4" type="TIME" value="XXXX-WXX-1TNI">Monday nights</TIMEX3>'
p3355
sS'Lemma'
p3356
S'night'
p3357
sS'CharacterOffsetEnd'
p3358
S'676'
p3359
sS'PartOfSpeech'
p3360
S'NNS'
p3361
sS'CharacterOffsetBegin'
p3362
S'670'
p3363
sS'NamedEntityTag'
p3364
S'TIME'
p3365
stp3366
a(S'outing'
p3367
(dp3368
S'NamedEntityTag'
p3369
g109
sS'CharacterOffsetEnd'
p3370
S'683'
p3371
sS'Lemma'
p3372
S'out'
p3373
sS'PartOfSpeech'
p3374
S'VBG'
p3375
sS'CharacterOffsetBegin'
p3376
S'677'
p3377
stp3378
a(g347
(dp3379
S'NamedEntityTag'
p3380
g109
sS'CharacterOffsetEnd'
p3381
S'684'
p3382
sS'Lemma'
p3383
g347
sS'PartOfSpeech'
p3384
g347
sS'CharacterOffsetBegin'
p3385
S'683'
p3386
stp3387
a(S'during'
p3388
(dp3389
S'NamedEntityTag'
p3390
g109
sS'CharacterOffsetEnd'
p3391
S'691'
p3392
sS'Lemma'
p3393
S'during'
p3394
sS'PartOfSpeech'
p3395
S'IN'
p3396
sS'CharacterOffsetBegin'
p3397
S'685'
p3398
stp3399
a(S'which'
p3400
(dp3401
S'NamedEntityTag'
p3402
g109
sS'CharacterOffsetEnd'
p3403
S'697'
p3404
sS'Lemma'
p3405
S'which'
p3406
sS'PartOfSpeech'
p3407
S'WDT'
p3408
sS'CharacterOffsetBegin'
p3409
S'692'
p3410
stp3411
a(S'Ross'
p3412
(dp3413
S'NamedEntityTag'
p3414
S'PERSON'
p3415
sS'CharacterOffsetEnd'
p3416
S'702'
p3417
sS'Lemma'
p3418
S'Ross'
p3419
sS'PartOfSpeech'
p3420
S'NNP'
p3421
sS'CharacterOffsetBegin'
p3422
S'698'
p3423
stp3424
a(S'and'
p3425
(dp3426
S'NamedEntityTag'
p3427
g109
sS'CharacterOffsetEnd'
p3428
S'706'
p3429
sS'Lemma'
p3430
S'and'
p3431
sS'PartOfSpeech'
p3432
S'CC'
p3433
sS'CharacterOffsetBegin'
p3434
S'703'
p3435
stp3436
a(S'Newman'
p3437
(dp3438
S'NamedEntityTag'
p3439
S'PERSON'
p3440
sS'CharacterOffsetEnd'
p3441
S'713'
p3442
sS'Lemma'
p3443
S'Newman'
p3444
sS'PartOfSpeech'
p3445
S'NNP'
p3446
sS'CharacterOffsetBegin'
p3447
S'707'
p3448
stp3449
a(S'hooked'
p3450
(dp3451
S'NamedEntityTag'
p3452
g109
sS'CharacterOffsetEnd'
p3453
S'720'
p3454
sS'Lemma'
p3455
S'hook'
p3456
sS'PartOfSpeech'
p3457
S'VBD'
p3458
sS'CharacterOffsetBegin'
p3459
S'714'
p3460
stp3461
a(S'up'
p3462
(dp3463
S'NamedEntityTag'
p3464
g109
sS'CharacterOffsetEnd'
p3465
S'723'
p3466
sS'Lemma'
p3467
S'up'
p3468
sS'PartOfSpeech'
p3469
S'RP'
p3470
sS'CharacterOffsetBegin'
p3471
S'721'
p3472
stp3473
a(S'40'
p3474
(dp3475
S'NormalizedNamedEntityTag'
p3476
S'40.0'
p3477
sS'Lemma'
p3478
S'40'
p3479
sS'CharacterOffsetEnd'
p3480
S'726'
p3481
sS'PartOfSpeech'
p3482
S'CD'
p3483
sS'CharacterOffsetBegin'
p3484
S'724'
p3485
sS'NamedEntityTag'
p3486
S'NUMBER'
p3487
stp3488
a(S'electrical'
p3489
(dp3490
S'NamedEntityTag'
p3491
g109
sS'CharacterOffsetEnd'
p3492
S'737'
p3493
sS'Lemma'
p3494
S'electrical'
p3495
sS'PartOfSpeech'
p3496
S'JJ'
p3497
sS'CharacterOffsetBegin'
p3498
S'727'
p3499
stp3500
a(S'connections'
p3501
(dp3502
S'NamedEntityTag'
p3503
g109
sS'CharacterOffsetEnd'
p3504
S'749'
p3505
sS'Lemma'
p3506
S'connection'
p3507
sS'PartOfSpeech'
p3508
S'NNS'
p3509
sS'CharacterOffsetBegin'
p3510
S'738'
p3511
stp3512
a(S'between'
p3513
(dp3514
S'NamedEntityTag'
p3515
g109
sS'CharacterOffsetEnd'
p3516
S'757'
p3517
sS'Lemma'
p3518
S'between'
p3519
sS'PartOfSpeech'
p3520
S'IN'
p3521
sS'CharacterOffsetBegin'
p3522
S'750'
p3523
stp3524
a(S'Zarya'
p3525
(dp3526
S'NamedEntityTag'
p3527
g109
sS'CharacterOffsetEnd'
p3528
S'763'
p3529
sS'Lemma'
p3530
S'Zarya'
p3531
sS'PartOfSpeech'
p3532
S'NNP'
p3533
sS'CharacterOffsetBegin'
p3534
S'758'
p3535
stp3536
a(S'and'
p3537
(dp3538
S'NamedEntityTag'
p3539
g109
sS'CharacterOffsetEnd'
p3540
S'767'
p3541
sS'Lemma'
p3542
S'and'
p3543
sS'PartOfSpeech'
p3544
S'CC'
p3545
sS'CharacterOffsetBegin'
p3546
S'764'
p3547
stp3548
a(S'Unity'
p3549
(dp3550
S'NamedEntityTag'
p3551
g109
sS'CharacterOffsetEnd'
p3552
S'773'
p3553
sS'Lemma'
p3554
S'Unity'
p3555
sS'PartOfSpeech'
p3556
S'NNP'
p3557
sS'CharacterOffsetBegin'
p3558
S'768'
p3559
stp3560
a(g254
(dp3561
S'NamedEntityTag'
p3562
g109
sS'CharacterOffsetEnd'
p3563
S'774'
p3564
sS'Lemma'
p3565
g254
sS'PartOfSpeech'
p3566
g254
sS'CharacterOffsetBegin'
p3567
S'773'
p3568
stp3569
asa(dp3570
g7
S'(ROOT (S (NP (DT The) (NN plan)) (VP (VBN called) (PP (IN for) (NP (DT the) (NNS men))) (S (VP (TO to) (VP (VP (VB lug) (NP (CD two) (JJ suitcase-size) (NNS antennas)) (PP (IN about) (ADVP (RB halfway))) (ADVP (RB up) (NP (NNP Unity)))) (CC and) (VP (VB install) (NP (PRP them)) (PP (IN on) (NP (NP (JJ opposite) (NNS sides)) (PP (IN of) (NP (DT the) (JJ 36-foot) (NN cylinder)))))))))) (. .)))'
p3571
sg9
S'The plan called for the men to lug two suitcase-size antennas about halfway up Unity and install them on opposite sides of the 36-foot cylinder.'
p3572
sg11
(lp3573
(S'root'
p3574
S'ROOT'
p3575
S'called'
p3576
tp3577
a(S'det'
p3578
S'plan'
p3579
S'The'
p3580
tp3581
a(S'nsubj'
p3582
S'called'
p3583
S'plan'
p3584
tp3585
a(S'det'
p3586
S'men'
p3587
S'the'
p3588
tp3589
a(S'prep_for'
p3590
S'called'
p3591
S'men'
p3592
tp3593
a(S'aux'
p3594
S'lug'
p3595
S'to'
p3596
tp3597
a(S'xcomp'
p3598
S'called'
p3599
S'lug'
p3600
tp3601
a(S'num'
p3602
S'antennas'
p3603
S'two'
p3604
tp3605
a(S'amod'
p3606
S'antennas'
p3607
S'suitcase-size'
p3608
tp3609
a(S'dobj'
p3610
S'lug'
p3611
S'antennas'
p3612
tp3613
a(S'prep'
p3614
S'lug'
p3615
S'about'
p3616
tp3617
a(S'pcomp'
p3618
S'about'
p3619
S'halfway'
p3620
tp3621
a(S'advmod'
p3622
S'lug'
p3623
S'up'
p3624
tp3625
a(S'pobj'
p3626
S'up'
p3627
S'Unity'
p3628
tp3629
a(S'conj_and'
p3630
S'lug'
p3631
S'install'
p3632
tp3633
a(S'dobj'
p3634
S'install'
p3635
S'them'
p3636
tp3637
a(S'amod'
p3638
S'sides'
p3639
S'opposite'
p3640
tp3641
a(S'prep_on'
p3642
S'install'
p3643
S'sides'
p3644
tp3645
a(S'det'
p3646
S'cylinder'
p3647
S'the'
p3648
tp3649
a(S'amod'
p3650
S'cylinder'
p3651
S'36-foot'
p3652
tp3653
a(S'prep_of'
p3654
S'sides'
p3655
S'cylinder'
p3656
tp3657
asg57
(lp3658
(g3574
S'ROOT-0'
p3659
S'called-3'
p3660
tp3661
a(g3578
S'plan-2'
p3662
S'The-1'
p3663
tp3664
a(g3582
S'called-3'
p3665
S'plan-2'
p3666
tp3667
a(g3586
S'men-6'
p3668
S'the-5'
p3669
tp3670
a(g3590
S'called-3'
p3671
S'men-6'
p3672
tp3673
a(g3594
S'lug-8'
p3674
S'to-7'
p3675
tp3676
a(g3598
S'called-3'
p3677
S'lug-8'
p3678
tp3679
a(g3602
S'antennas-11'
p3680
S'two-9'
p3681
tp3682
a(g3606
S'antennas-11'
p3683
S'suitcase-size-10'
p3684
tp3685
a(g3610
S'lug-8'
p3686
S'antennas-11'
p3687
tp3688
a(g3614
S'lug-8'
p3689
S'about-12'
p3690
tp3691
a(g3618
S'about-12'
p3692
S'halfway-13'
p3693
tp3694
a(g3622
S'lug-8'
p3695
S'up-14'
p3696
tp3697
a(g3626
S'up-14'
p3698
S'Unity-15'
p3699
tp3700
a(g3630
S'lug-8'
p3701
S'install-17'
p3702
tp3703
a(g3634
S'install-17'
p3704
S'them-18'
p3705
tp3706
a(g3638
S'sides-21'
p3707
S'opposite-20'
p3708
tp3709
a(g3642
S'install-17'
p3710
S'sides-21'
p3711
tp3712
a(g3646
S'cylinder-25'
p3713
S'the-23'
p3714
tp3715
a(g3650
S'cylinder-25'
p3716
S'36-foot-24'
p3717
tp3718
a(g3654
S'sides-21'
p3719
S'cylinder-25'
p3720
tp3721
asg92
(lp3722
(S'The'
p3723
(dp3724
S'NamedEntityTag'
p3725
g109
sS'CharacterOffsetEnd'
p3726
S'778'
p3727
sS'Lemma'
p3728
S'the'
p3729
sS'PartOfSpeech'
p3730
S'DT'
p3731
sS'CharacterOffsetBegin'
p3732
S'775'
p3733
stp3734
a(S'plan'
p3735
(dp3736
S'NamedEntityTag'
p3737
g109
sS'CharacterOffsetEnd'
p3738
S'783'
p3739
sS'Lemma'
p3740
S'plan'
p3741
sS'PartOfSpeech'
p3742
S'NN'
p3743
sS'CharacterOffsetBegin'
p3744
S'779'
p3745
stp3746
a(S'called'
p3747
(dp3748
S'NamedEntityTag'
p3749
g109
sS'CharacterOffsetEnd'
p3750
S'790'
p3751
sS'Lemma'
p3752
S'call'
p3753
sS'PartOfSpeech'
p3754
S'VBN'
p3755
sS'CharacterOffsetBegin'
p3756
S'784'
p3757
stp3758
a(S'for'
p3759
(dp3760
S'NamedEntityTag'
p3761
g109
sS'CharacterOffsetEnd'
p3762
S'794'
p3763
sS'Lemma'
p3764
S'for'
p3765
sS'PartOfSpeech'
p3766
S'IN'
p3767
sS'CharacterOffsetBegin'
p3768
S'791'
p3769
stp3770
a(S'the'
p3771
(dp3772
S'NamedEntityTag'
p3773
g109
sS'CharacterOffsetEnd'
p3774
S'798'
p3775
sS'Lemma'
p3776
S'the'
p3777
sS'PartOfSpeech'
p3778
S'DT'
p3779
sS'CharacterOffsetBegin'
p3780
S'795'
p3781
stp3782
a(S'men'
p3783
(dp3784
S'NamedEntityTag'
p3785
g109
sS'CharacterOffsetEnd'
p3786
S'802'
p3787
sS'Lemma'
p3788
S'man'
p3789
sS'PartOfSpeech'
p3790
S'NNS'
p3791
sS'CharacterOffsetBegin'
p3792
S'799'
p3793
stp3794
a(S'to'
p3795
(dp3796
S'NamedEntityTag'
p3797
g109
sS'CharacterOffsetEnd'
p3798
S'805'
p3799
sS'Lemma'
p3800
S'to'
p3801
sS'PartOfSpeech'
p3802
S'TO'
p3803
sS'CharacterOffsetBegin'
p3804
S'803'
p3805
stp3806
a(S'lug'
p3807
(dp3808
S'NamedEntityTag'
p3809
g109
sS'CharacterOffsetEnd'
p3810
S'809'
p3811
sS'Lemma'
p3812
S'lug'
p3813
sS'PartOfSpeech'
p3814
S'VB'
p3815
sS'CharacterOffsetBegin'
p3816
S'806'
p3817
stp3818
a(S'two'
p3819
(dp3820
S'NormalizedNamedEntityTag'
p3821
S'2.0'
p3822
sS'Lemma'
p3823
S'two'
p3824
sS'CharacterOffsetEnd'
p3825
S'813'
p3826
sS'PartOfSpeech'
p3827
S'CD'
p3828
sS'CharacterOffsetBegin'
p3829
S'810'
p3830
sS'NamedEntityTag'
p3831
S'NUMBER'
p3832
stp3833
a(S'suitcase-size'
p3834
(dp3835
S'NamedEntityTag'
p3836
g109
sS'CharacterOffsetEnd'
p3837
S'827'
p3838
sS'Lemma'
p3839
S'suitcase-size'
p3840
sS'PartOfSpeech'
p3841
S'JJ'
p3842
sS'CharacterOffsetBegin'
p3843
S'814'
p3844
stp3845
a(S'antennas'
p3846
(dp3847
S'NamedEntityTag'
p3848
g109
sS'CharacterOffsetEnd'
p3849
S'836'
p3850
sS'Lemma'
p3851
S'antenna'
p3852
sS'PartOfSpeech'
p3853
S'NNS'
p3854
sS'CharacterOffsetBegin'
p3855
S'828'
p3856
stp3857
a(S'about'
p3858
(dp3859
S'NamedEntityTag'
p3860
g109
sS'CharacterOffsetEnd'
p3861
S'842'
p3862
sS'Lemma'
p3863
S'about'
p3864
sS'PartOfSpeech'
p3865
S'IN'
p3866
sS'CharacterOffsetBegin'
p3867
S'837'
p3868
stp3869
a(S'halfway'
p3870
(dp3871
S'NamedEntityTag'
p3872
g109
sS'CharacterOffsetEnd'
p3873
S'850'
p3874
sS'Lemma'
p3875
S'halfway'
p3876
sS'PartOfSpeech'
p3877
S'RB'
p3878
sS'CharacterOffsetBegin'
p3879
S'843'
p3880
stp3881
a(S'up'
p3882
(dp3883
S'NamedEntityTag'
p3884
g109
sS'CharacterOffsetEnd'
p3885
S'853'
p3886
sS'Lemma'
p3887
S'up'
p3888
sS'PartOfSpeech'
p3889
S'RB'
p3890
sS'CharacterOffsetBegin'
p3891
S'851'
p3892
stp3893
a(S'Unity'
p3894
(dp3895
S'NamedEntityTag'
p3896
g109
sS'CharacterOffsetEnd'
p3897
S'859'
p3898
sS'Lemma'
p3899
S'Unity'
p3900
sS'PartOfSpeech'
p3901
S'NNP'
p3902
sS'CharacterOffsetBegin'
p3903
S'854'
p3904
stp3905
a(S'and'
p3906
(dp3907
S'NamedEntityTag'
p3908
g109
sS'CharacterOffsetEnd'
p3909
S'863'
p3910
sS'Lemma'
p3911
S'and'
p3912
sS'PartOfSpeech'
p3913
S'CC'
p3914
sS'CharacterOffsetBegin'
p3915
S'860'
p3916
stp3917
a(S'install'
p3918
(dp3919
S'NamedEntityTag'
p3920
g109
sS'CharacterOffsetEnd'
p3921
S'871'
p3922
sS'Lemma'
p3923
S'install'
p3924
sS'PartOfSpeech'
p3925
S'VB'
p3926
sS'CharacterOffsetBegin'
p3927
S'864'
p3928
stp3929
a(S'them'
p3930
(dp3931
S'NamedEntityTag'
p3932
g109
sS'CharacterOffsetEnd'
p3933
S'876'
p3934
sS'Lemma'
p3935
S'they'
p3936
sS'PartOfSpeech'
p3937
S'PRP'
p3938
sS'CharacterOffsetBegin'
p3939
S'872'
p3940
stp3941
a(S'on'
p3942
(dp3943
S'NamedEntityTag'
p3944
g109
sS'CharacterOffsetEnd'
p3945
S'879'
p3946
sS'Lemma'
p3947
S'on'
p3948
sS'PartOfSpeech'
p3949
S'IN'
p3950
sS'CharacterOffsetBegin'
p3951
S'877'
p3952
stp3953
a(S'opposite'
p3954
(dp3955
S'NamedEntityTag'
p3956
g109
sS'CharacterOffsetEnd'
p3957
S'888'
p3958
sS'Lemma'
p3959
S'opposite'
p3960
sS'PartOfSpeech'
p3961
S'JJ'
p3962
sS'CharacterOffsetBegin'
p3963
S'880'
p3964
stp3965
a(S'sides'
p3966
(dp3967
S'NamedEntityTag'
p3968
g109
sS'CharacterOffsetEnd'
p3969
S'894'
p3970
sS'Lemma'
p3971
S'side'
p3972
sS'PartOfSpeech'
p3973
S'NNS'
p3974
sS'CharacterOffsetBegin'
p3975
S'889'
p3976
stp3977
a(S'of'
p3978
(dp3979
S'NamedEntityTag'
p3980
g109
sS'CharacterOffsetEnd'
p3981
S'897'
p3982
sS'Lemma'
p3983
S'of'
p3984
sS'PartOfSpeech'
p3985
S'IN'
p3986
sS'CharacterOffsetBegin'
p3987
S'895'
p3988
stp3989
a(S'the'
p3990
(dp3991
S'NamedEntityTag'
p3992
g109
sS'CharacterOffsetEnd'
p3993
S'901'
p3994
sS'Lemma'
p3995
S'the'
p3996
sS'PartOfSpeech'
p3997
S'DT'
p3998
sS'CharacterOffsetBegin'
p3999
S'898'
p4000
stp4001
a(S'36-foot'
p4002
(dp4003
S'NamedEntityTag'
p4004
g109
sS'CharacterOffsetEnd'
p4005
S'909'
p4006
sS'Lemma'
p4007
S'36-foot'
p4008
sS'PartOfSpeech'
p4009
S'JJ'
p4010
sS'CharacterOffsetBegin'
p4011
S'902'
p4012
stp4013
a(S'cylinder'
p4014
(dp4015
S'NamedEntityTag'
p4016
g109
sS'CharacterOffsetEnd'
p4017
S'918'
p4018
sS'Lemma'
p4019
S'cylinder'
p4020
sS'PartOfSpeech'
p4021
S'NN'
p4022
sS'CharacterOffsetBegin'
p4023
S'910'
p4024
stp4025
a(g254
(dp4026
S'NamedEntityTag'
p4027
g109
sS'CharacterOffsetEnd'
p4028
S'919'
p4029
sS'Lemma'
p4030
g254
sS'PartOfSpeech'
p4031
g254
sS'CharacterOffsetBegin'
p4032
S'918'
p4033
stp4034
asa(dp4035
g7
S'(ROOT (S (SBAR (RB Once) (S (VP (VBN activated)))) (, ,) (NP (DT the) (NNS antennas)) (VP (MD will) (VP (VB provide) (NP (NP (DT a) (JJ direct) (, ,) (ADJP (RB virtually) (JJ uninterrupted)) (NN communication) (NN link)) (PP (IN between) (NP (NP (NNP Unity)) (CC and) (NP (NNP NASAs) (NNP Mission) (NNP Control))))))) (. .)))'
p4036
sg9
S'Once activated, the antennas will provide a direct, virtually uninterrupted communication link between Unity and NASAs Mission Control.'
p4037
sg11
(lp4038
(S'root'
p4039
S'ROOT'
p4040
S'provide'
p4041
tp4042
a(S'advmod'
p4043
S'activated'
p4044
S'Once'
p4045
tp4046
a(S'advcl'
p4047
S'provide'
p4048
S'activated'
p4049
tp4050
a(S'det'
p4051
S'antennas'
p4052
S'the'
p4053
tp4054
a(S'nsubj'
p4055
S'provide'
p4056
S'antennas'
p4057
tp4058
a(S'aux'
p4059
S'provide'
p4060
S'will'
p4061
tp4062
a(S'det'
p4063
S'link'
p4064
g2665
tp4065
a(S'amod'
p4066
S'link'
p4067
S'direct'
p4068
tp4069
a(S'advmod'
p4070
S'uninterrupted'
p4071
S'virtually'
p4072
tp4073
a(S'amod'
p4074
S'link'
p4075
S'uninterrupted'
p4076
tp4077
a(S'nn'
p4078
S'link'
p4079
S'communication'
p4080
tp4081
a(S'dobj'
p4082
S'provide'
p4083
S'link'
p4084
tp4085
a(S'prep_between'
p4086
S'link'
p4087
S'Unity'
p4088
tp4089
a(S'nn'
p4090
S'Control'
p4091
S'NASAs'
p4092
tp4093
a(S'nn'
p4094
S'Control'
p4095
S'Mission'
p4096
tp4097
a(S'conj_and'
p4098
S'Unity'
p4099
S'Control'
p4100
tp4101
asg57
(lp4102
(g4039
S'ROOT-0'
p4103
S'provide-7'
p4104
tp4105
a(g4043
S'activated-2'
p4106
S'Once-1'
p4107
tp4108
a(g4047
S'provide-7'
p4109
S'activated-2'
p4110
tp4111
a(g4051
S'antennas-5'
p4112
S'the-4'
p4113
tp4114
a(g4055
S'provide-7'
p4115
S'antennas-5'
p4116
tp4117
a(g4059
S'provide-7'
p4118
S'will-6'
p4119
tp4120
a(g4063
S'link-14'
p4121
S'a-8'
p4122
tp4123
a(g4066
S'link-14'
p4124
S'direct-9'
p4125
tp4126
a(g4070
S'uninterrupted-12'
p4127
S'virtually-11'
p4128
tp4129
a(g4074
S'link-14'
p4130
S'uninterrupted-12'
p4131
tp4132
a(g4078
S'link-14'
p4133
S'communication-13'
p4134
tp4135
a(g4082
S'provide-7'
p4136
S'link-14'
p4137
tp4138
a(g4086
S'link-14'
p4139
S'Unity-16'
p4140
tp4141
a(g4090
S'Control-20'
p4142
S'NASAs-18'
p4143
tp4144
a(g4094
S'Control-20'
p4145
S'Mission-19'
p4146
tp4147
a(g4098
S'Unity-16'
p4148
S'Control-20'
p4149
tp4150
asg92
(lp4151
(S'Once'
p4152
(dp4153
S'NormalizedNamedEntityTag'
p4154
S'PAST_REF'
p4155
sS'Timex'
p4156
S'<TIMEX3 tid="t5" type="DATE" value="PAST_REF">Once</TIMEX3>'
p4157
sS'Lemma'
p4158
S'once'
p4159
sS'CharacterOffsetEnd'
p4160
S'924'
p4161
sS'PartOfSpeech'
p4162
S'RB'
p4163
sS'CharacterOffsetBegin'
p4164
S'920'
p4165
sS'NamedEntityTag'
p4166
S'DATE'
p4167
stp4168
a(S'activated'
p4169
(dp4170
S'NamedEntityTag'
p4171
g109
sS'CharacterOffsetEnd'
p4172
S'934'
p4173
sS'Lemma'
p4174
S'activate'
p4175
sS'PartOfSpeech'
p4176
S'VBN'
p4177
sS'CharacterOffsetBegin'
p4178
S'925'
p4179
stp4180
a(g347
(dp4181
S'NamedEntityTag'
p4182
g109
sS'CharacterOffsetEnd'
p4183
S'935'
p4184
sS'Lemma'
p4185
g347
sS'PartOfSpeech'
p4186
g347
sS'CharacterOffsetBegin'
p4187
S'934'
p4188
stp4189
a(S'the'
p4190
(dp4191
S'NamedEntityTag'
p4192
g109
sS'CharacterOffsetEnd'
p4193
S'939'
p4194
sS'Lemma'
p4195
S'the'
p4196
sS'PartOfSpeech'
p4197
S'DT'
p4198
sS'CharacterOffsetBegin'
p4199
S'936'
p4200
stp4201
a(S'antennas'
p4202
(dp4203
S'NamedEntityTag'
p4204
g109
sS'CharacterOffsetEnd'
p4205
S'948'
p4206
sS'Lemma'
p4207
S'antenna'
p4208
sS'PartOfSpeech'
p4209
S'NNS'
p4210
sS'CharacterOffsetBegin'
p4211
S'940'
p4212
stp4213
a(S'will'
p4214
(dp4215
S'NamedEntityTag'
p4216
g109
sS'CharacterOffsetEnd'
p4217
S'953'
p4218
sS'Lemma'
p4219
S'will'
p4220
sS'PartOfSpeech'
p4221
S'MD'
p4222
sS'CharacterOffsetBegin'
p4223
S'949'
p4224
stp4225
a(S'provide'
p4226
(dp4227
S'NamedEntityTag'
p4228
g109
sS'CharacterOffsetEnd'
p4229
S'961'
p4230
sS'Lemma'
p4231
S'provide'
p4232
sS'PartOfSpeech'
p4233
S'VB'
p4234
sS'CharacterOffsetBegin'
p4235
S'954'
p4236
stp4237
a(g2665
(dp4238
S'NamedEntityTag'
p4239
g109
sS'CharacterOffsetEnd'
p4240
S'963'
p4241
sS'Lemma'
p4242
g2665
sS'PartOfSpeech'
p4243
S'DT'
p4244
sS'CharacterOffsetBegin'
p4245
S'962'
p4246
stp4247
a(S'direct'
p4248
(dp4249
S'NamedEntityTag'
p4250
g109
sS'CharacterOffsetEnd'
p4251
S'970'
p4252
sS'Lemma'
p4253
S'direct'
p4254
sS'PartOfSpeech'
p4255
S'JJ'
p4256
sS'CharacterOffsetBegin'
p4257
S'964'
p4258
stp4259
a(g347
(dp4260
S'NamedEntityTag'
p4261
g109
sS'CharacterOffsetEnd'
p4262
S'971'
p4263
sS'Lemma'
p4264
g347
sS'PartOfSpeech'
p4265
g347
sS'CharacterOffsetBegin'
p4266
S'970'
p4267
stp4268
a(S'virtually'
p4269
(dp4270
S'NamedEntityTag'
p4271
g109
sS'CharacterOffsetEnd'
p4272
S'981'
p4273
sS'Lemma'
p4274
S'virtually'
p4275
sS'PartOfSpeech'
p4276
S'RB'
p4277
sS'CharacterOffsetBegin'
p4278
S'972'
p4279
stp4280
a(S'uninterrupted'
p4281
(dp4282
S'NamedEntityTag'
p4283
g109
sS'CharacterOffsetEnd'
p4284
S'995'
p4285
sS'Lemma'
p4286
S'uninterrupted'
p4287
sS'PartOfSpeech'
p4288
S'JJ'
p4289
sS'CharacterOffsetBegin'
p4290
S'982'
p4291
stp4292
a(S'communication'
p4293
(dp4294
S'NamedEntityTag'
p4295
g109
sS'CharacterOffsetEnd'
p4296
S'1009'
p4297
sS'Lemma'
p4298
S'communication'
p4299
sS'PartOfSpeech'
p4300
S'NN'
p4301
sS'CharacterOffsetBegin'
p4302
S'996'
p4303
stp4304
a(S'link'
p4305
(dp4306
S'NamedEntityTag'
p4307
g109
sS'CharacterOffsetEnd'
p4308
S'1014'
p4309
sS'Lemma'
p4310
S'link'
p4311
sS'PartOfSpeech'
p4312
S'NN'
p4313
sS'CharacterOffsetBegin'
p4314
S'1010'
p4315
stp4316
a(S'between'
p4317
(dp4318
S'NamedEntityTag'
p4319
g109
sS'CharacterOffsetEnd'
p4320
S'1022'
p4321
sS'Lemma'
p4322
S'between'
p4323
sS'PartOfSpeech'
p4324
S'IN'
p4325
sS'CharacterOffsetBegin'
p4326
S'1015'
p4327
stp4328
a(S'Unity'
p4329
(dp4330
S'NamedEntityTag'
p4331
g109
sS'CharacterOffsetEnd'
p4332
S'1028'
p4333
sS'Lemma'
p4334
S'Unity'
p4335
sS'PartOfSpeech'
p4336
S'NNP'
p4337
sS'CharacterOffsetBegin'
p4338
S'1023'
p4339
stp4340
a(S'and'
p4341
(dp4342
S'NamedEntityTag'
p4343
g109
sS'CharacterOffsetEnd'
p4344
S'1032'
p4345
sS'Lemma'
p4346
S'and'
p4347
sS'PartOfSpeech'
p4348
S'CC'
p4349
sS'CharacterOffsetBegin'
p4350
S'1029'
p4351
stp4352
a(S'NASAs'
p4353
(dp4354
S'NamedEntityTag'
p4355
S'ORGANIZATION'
p4356
sS'CharacterOffsetEnd'
p4357
S'1038'
p4358
sS'Lemma'
p4359
S'NASAs'
p4360
sS'PartOfSpeech'
p4361
S'NNP'
p4362
sS'CharacterOffsetBegin'
p4363
S'1033'
p4364
stp4365
a(S'Mission'
p4366
(dp4367
S'NamedEntityTag'
p4368
S'ORGANIZATION'
p4369
sS'CharacterOffsetEnd'
p4370
S'1046'
p4371
sS'Lemma'
p4372
S'Mission'
p4373
sS'PartOfSpeech'
p4374
S'NNP'
p4375
sS'CharacterOffsetBegin'
p4376
S'1039'
p4377
stp4378
a(S'Control'
p4379
(dp4380
S'NamedEntityTag'
p4381
S'ORGANIZATION'
p4382
sS'CharacterOffsetEnd'
p4383
S'1054'
p4384
sS'Lemma'
p4385
S'Control'
p4386
sS'PartOfSpeech'
p4387
S'NNP'
p4388
sS'CharacterOffsetBegin'
p4389
S'1047'
p4390
stp4391
a(g254
(dp4392
S'NamedEntityTag'
p4393
g109
sS'CharacterOffsetEnd'
p4394
S'1055'
p4395
sS'Lemma'
p4396
g254
sS'PartOfSpeech'
p4397
g254
sS'CharacterOffsetBegin'
p4398
S'1054'
p4399
stp4400
asa(dp4401
g7
S'(ROOT (S (ADVP (RB Otherwise)) (, ,) (NP (NNP U.S.) (NN flight) (NNS controllers)) (VP (MD would) (VP (VB have) (S (VP (TO to) (VP (VB rely) (PP (IN on) (NP (NP (DT the) (JJ sporadic) (NN coverage)) (VP (VBN provided) (PP (IN by) (NP (JJ Russian) (NN ground) (NNS stations))))))))))) (. .)))'
p4402
sg9
S'Otherwise, U.S. flight controllers would have to rely on the sporadic coverage provided by Russian ground stations.'
p4403
sg11
(lp4404
(S'root'
p4405
S'ROOT'
p4406
S'have'
p4407
tp4408
a(S'advmod'
p4409
S'have'
p4410
S'Otherwise'
p4411
tp4412
a(S'nn'
p4413
S'controllers'
p4414
S'U.S.'
p4415
tp4416
a(S'nn'
p4417
S'controllers'
p4418
S'flight'
p4419
tp4420
a(S'nsubj'
p4421
S'have'
p4422
S'controllers'
p4423
tp4424
a(S'aux'
p4425
S'have'
p4426
S'would'
p4427
tp4428
a(S'aux'
p4429
S'rely'
p4430
S'to'
p4431
tp4432
a(S'xcomp'
p4433
S'have'
p4434
S'rely'
p4435
tp4436
a(S'det'
p4437
S'coverage'
p4438
S'the'
p4439
tp4440
a(S'amod'
p4441
S'coverage'
p4442
S'sporadic'
p4443
tp4444
a(S'prep_on'
p4445
S'rely'
p4446
S'coverage'
p4447
tp4448
a(S'partmod'
p4449
S'coverage'
p4450
S'provided'
p4451
tp4452
a(S'amod'
p4453
S'stations'
p4454
S'Russian'
p4455
tp4456
a(S'nn'
p4457
S'stations'
p4458
S'ground'
p4459
tp4460
a(S'agent'
p4461
S'provided'
p4462
S'stations'
p4463
tp4464
asg57
(lp4465
(g4405
S'ROOT-0'
p4466
S'have-7'
p4467
tp4468
a(g4409
S'have-7'
p4469
S'Otherwise-1'
p4470
tp4471
a(g4413
S'controllers-5'
p4472
S'U.S.-3'
p4473
tp4474
a(g4417
S'controllers-5'
p4475
S'flight-4'
p4476
tp4477
a(g4421
S'have-7'
p4478
S'controllers-5'
p4479
tp4480
a(g4425
S'have-7'
p4481
S'would-6'
p4482
tp4483
a(g4429
S'rely-9'
p4484
S'to-8'
p4485
tp4486
a(g4433
S'have-7'
p4487
S'rely-9'
p4488
tp4489
a(g4437
S'coverage-13'
p4490
S'the-11'
p4491
tp4492
a(g4441
S'coverage-13'
p4493
S'sporadic-12'
p4494
tp4495
a(g4445
S'rely-9'
p4496
S'coverage-13'
p4497
tp4498
a(g4449
S'coverage-13'
p4499
S'provided-14'
p4500
tp4501
a(g4453
S'stations-18'
p4502
S'Russian-16'
p4503
tp4504
a(g4457
S'stations-18'
p4505
S'ground-17'
p4506
tp4507
a(g4461
S'provided-14'
p4508
S'stations-18'
p4509
tp4510
asg92
(lp4511
(S'Otherwise'
p4512
(dp4513
S'NamedEntityTag'
p4514
g109
sS'CharacterOffsetEnd'
p4515
S'1065'
p4516
sS'Lemma'
p4517
S'otherwise'
p4518
sS'PartOfSpeech'
p4519
S'RB'
p4520
sS'CharacterOffsetBegin'
p4521
S'1056'
p4522
stp4523
a(g347
(dp4524
S'NamedEntityTag'
p4525
g109
sS'CharacterOffsetEnd'
p4526
S'1066'
p4527
sS'Lemma'
p4528
g347
sS'PartOfSpeech'
p4529
g347
sS'CharacterOffsetBegin'
p4530
S'1065'
p4531
stp4532
a(S'U.S.'
p4533
(dp4534
S'NamedEntityTag'
p4535
S'LOCATION'
p4536
sS'CharacterOffsetEnd'
p4537
S'1071'
p4538
sS'Lemma'
p4539
S'U.S.'
p4540
sS'PartOfSpeech'
p4541
S'NNP'
p4542
sS'CharacterOffsetBegin'
p4543
S'1067'
p4544
stp4545
a(S'flight'
p4546
(dp4547
S'NamedEntityTag'
p4548
g109
sS'CharacterOffsetEnd'
p4549
S'1078'
p4550
sS'Lemma'
p4551
S'flight'
p4552
sS'PartOfSpeech'
p4553
S'NN'
p4554
sS'CharacterOffsetBegin'
p4555
S'1072'
p4556
stp4557
a(S'controllers'
p4558
(dp4559
S'NamedEntityTag'
p4560
g109
sS'CharacterOffsetEnd'
p4561
S'1090'
p4562
sS'Lemma'
p4563
S'controller'
p4564
sS'PartOfSpeech'
p4565
S'NNS'
p4566
sS'CharacterOffsetBegin'
p4567
S'1079'
p4568
stp4569
a(S'would'
p4570
(dp4571
S'NamedEntityTag'
p4572
g109
sS'CharacterOffsetEnd'
p4573
S'1096'
p4574
sS'Lemma'
p4575
S'would'
p4576
sS'PartOfSpeech'
p4577
S'MD'
p4578
sS'CharacterOffsetBegin'
p4579
S'1091'
p4580
stp4581
a(S'have'
p4582
(dp4583
S'NamedEntityTag'
p4584
g109
sS'CharacterOffsetEnd'
p4585
S'1101'
p4586
sS'Lemma'
p4587
S'have'
p4588
sS'PartOfSpeech'
p4589
S'VB'
p4590
sS'CharacterOffsetBegin'
p4591
S'1097'
p4592
stp4593
a(S'to'
p4594
(dp4595
S'NamedEntityTag'
p4596
g109
sS'CharacterOffsetEnd'
p4597
S'1104'
p4598
sS'Lemma'
p4599
S'to'
p4600
sS'PartOfSpeech'
p4601
S'TO'
p4602
sS'CharacterOffsetBegin'
p4603
S'1102'
p4604
stp4605
a(S'rely'
p4606
(dp4607
S'NamedEntityTag'
p4608
g109
sS'CharacterOffsetEnd'
p4609
S'1109'
p4610
sS'Lemma'
p4611
S'rely'
p4612
sS'PartOfSpeech'
p4613
S'VB'
p4614
sS'CharacterOffsetBegin'
p4615
S'1105'
p4616
stp4617
a(S'on'
p4618
(dp4619
S'NamedEntityTag'
p4620
g109
sS'CharacterOffsetEnd'
p4621
S'1112'
p4622
sS'Lemma'
p4623
S'on'
p4624
sS'PartOfSpeech'
p4625
S'IN'
p4626
sS'CharacterOffsetBegin'
p4627
S'1110'
p4628
stp4629
a(S'the'
p4630
(dp4631
S'NamedEntityTag'
p4632
g109
sS'CharacterOffsetEnd'
p4633
S'1116'
p4634
sS'Lemma'
p4635
S'the'
p4636
sS'PartOfSpeech'
p4637
S'DT'
p4638
sS'CharacterOffsetBegin'
p4639
S'1113'
p4640
stp4641
a(S'sporadic'
p4642
(dp4643
S'NamedEntityTag'
p4644
g109
sS'CharacterOffsetEnd'
p4645
S'1125'
p4646
sS'Lemma'
p4647
S'sporadic'
p4648
sS'PartOfSpeech'
p4649
S'JJ'
p4650
sS'CharacterOffsetBegin'
p4651
S'1117'
p4652
stp4653
a(S'coverage'
p4654
(dp4655
S'NamedEntityTag'
p4656
g109
sS'CharacterOffsetEnd'
p4657
S'1134'
p4658
sS'Lemma'
p4659
S'coverage'
p4660
sS'PartOfSpeech'
p4661
S'NN'
p4662
sS'CharacterOffsetBegin'
p4663
S'1126'
p4664
stp4665
a(S'provided'
p4666
(dp4667
S'NamedEntityTag'
p4668
g109
sS'CharacterOffsetEnd'
p4669
S'1143'
p4670
sS'Lemma'
p4671
S'provide'
p4672
sS'PartOfSpeech'
p4673
S'VBN'
p4674
sS'CharacterOffsetBegin'
p4675
S'1135'
p4676
stp4677
a(S'by'
p4678
(dp4679
S'NamedEntityTag'
p4680
g109
sS'CharacterOffsetEnd'
p4681
S'1146'
p4682
sS'Lemma'
p4683
S'by'
p4684
sS'PartOfSpeech'
p4685
S'IN'
p4686
sS'CharacterOffsetBegin'
p4687
S'1144'
p4688
stp4689
a(S'Russian'
p4690
(dp4691
S'NamedEntityTag'
p4692
S'MISC'
p4693
sS'CharacterOffsetEnd'
p4694
S'1154'
p4695
sS'Lemma'
p4696
S'russian'
p4697
sS'PartOfSpeech'
p4698
S'JJ'
p4699
sS'CharacterOffsetBegin'
p4700
S'1147'
p4701
stp4702
a(S'ground'
p4703
(dp4704
S'NamedEntityTag'
p4705
g109
sS'CharacterOffsetEnd'
p4706
S'1161'
p4707
sS'Lemma'
p4708
S'ground'
p4709
sS'PartOfSpeech'
p4710
S'NN'
p4711
sS'CharacterOffsetBegin'
p4712
S'1155'
p4713
stp4714
a(S'stations'
p4715
(dp4716
S'NamedEntityTag'
p4717
g109
sS'CharacterOffsetEnd'
p4718
S'1170'
p4719
sS'Lemma'
p4720
S'station'
p4721
sS'PartOfSpeech'
p4722
S'NNS'
p4723
sS'CharacterOffsetBegin'
p4724
S'1162'
p4725
stp4726
a(g254
(dp4727
S'NamedEntityTag'
p4728
g109
sS'CharacterOffsetEnd'
p4729
S'1171'
p4730
sS'Lemma'
p4731
g254
sS'PartOfSpeech'
p4732
g254
sS'CharacterOffsetBegin'
p4733
S'1170'
p4734
stp4735
asa(dp4736
g7
S'(ROOT (S (NP (NP (DT The) (ADJP (JJ electronic) (CC and) (NN computer)) (NNS hookups)) (PP (IN for) (NP (DT the) (NNS antennas)))) (VP (MD will) (VP (VB be) (VP (VBN made) (PP (IN inside) (NP (NNP Unity))) (PP (IN on) (NP (NNP Thursday))) (, ,) (SBAR (IN after) (S (NP (DT the) (JJ entire) (NN crew)) (VP (VBZ enters) (NP (NP (DT the) (VBG orbiting) (NN station)) (PP (IN for) (NP (DT the) (JJ first) (NN time)))))))))) (. .)))'
p4737
sg9
S'The electronic and computer hookups for the antennas will be made inside Unity on Thursday, after the entire crew enters the orbiting station for the first time.'
p4738
sg11
(lp4739
(S'root'
p4740
S'ROOT'
p4741
S'made'
p4742
tp4743
a(S'det'
p4744
S'hookups'
p4745
S'The'
p4746
tp4747
a(S'amod'
p4748
S'hookups'
p4749
S'electronic'
p4750
tp4751
a(S'conj_and'
p4752
S'electronic'
p4753
S'computer'
p4754
tp4755
a(S'nsubjpass'
p4756
S'made'
p4757
S'hookups'
p4758
tp4759
a(S'det'
p4760
S'antennas'
p4761
S'the'
p4762
tp4763
a(S'prep_for'
p4764
S'hookups'
p4765
S'antennas'
p4766
tp4767
a(S'aux'
p4768
S'made'
p4769
S'will'
p4770
tp4771
a(S'auxpass'
p4772
S'made'
p4773
S'be'
p4774
tp4775
a(S'prep_inside'
p4776
S'made'
p4777
S'Unity'
p4778
tp4779
a(S'prep_on'
p4780
S'made'
p4781
S'Thursday'
p4782
tp4783
a(S'mark'
p4784
S'enters'
p4785
S'after'
p4786
tp4787
a(S'det'
p4788
S'crew'
p4789
S'the'
p4790
tp4791
a(S'amod'
p4792
S'crew'
p4793
S'entire'
p4794
tp4795
a(S'nsubj'
p4796
S'enters'
p4797
S'crew'
p4798
tp4799
a(S'advcl'
p4800
S'made'
p4801
S'enters'
p4802
tp4803
a(S'det'
p4804
S'station'
p4805
S'the'
p4806
tp4807
a(S'amod'
p4808
S'station'
p4809
S'orbiting'
p4810
tp4811
a(S'dobj'
p4812
S'enters'
p4813
S'station'
p4814
tp4815
a(S'det'
p4816
S'time'
p4817
S'the'
p4818
tp4819
a(S'amod'
p4820
S'time'
p4821
S'first'
p4822
tp4823
a(S'prep_for'
p4824
S'station'
p4825
S'time'
p4826
tp4827
asg57
(lp4828
(g4740
S'ROOT-0'
p4829
S'made-11'
p4830
tp4831
a(g4744
S'hookups-5'
p4832
S'The-1'
p4833
tp4834
a(g4748
S'hookups-5'
p4835
S'electronic-2'
p4836
tp4837
a(g4752
S'electronic-2'
p4838
S'computer-4'
p4839
tp4840
a(g4756
S'made-11'
p4841
S'hookups-5'
p4842
tp4843
a(g4760
S'antennas-8'
p4844
S'the-7'
p4845
tp4846
a(g4764
S'hookups-5'
p4847
S'antennas-8'
p4848
tp4849
a(g4768
S'made-11'
p4850
S'will-9'
p4851
tp4852
a(g4772
S'made-11'
p4853
S'be-10'
p4854
tp4855
a(g4776
S'made-11'
p4856
S'Unity-13'
p4857
tp4858
a(g4780
S'made-11'
p4859
S'Thursday-15'
p4860
tp4861
a(g4784
S'enters-21'
p4862
S'after-17'
p4863
tp4864
a(g4788
S'crew-20'
p4865
S'the-18'
p4866
tp4867
a(g4792
S'crew-20'
p4868
S'entire-19'
p4869
tp4870
a(g4796
S'enters-21'
p4871
S'crew-20'
p4872
tp4873
a(g4800
S'made-11'
p4874
S'enters-21'
p4875
tp4876
a(g4804
S'station-24'
p4877
S'the-22'
p4878
tp4879
a(g4808
S'station-24'
p4880
S'orbiting-23'
p4881
tp4882
a(g4812
S'enters-21'
p4883
S'station-24'
p4884
tp4885
a(g4816
S'time-28'
p4886
S'the-26'
p4887
tp4888
a(g4820
S'time-28'
p4889
S'first-27'
p4890
tp4891
a(g4824
S'station-24'
p4892
S'time-28'
p4893
tp4894
asg92
(lp4895
(S'The'
p4896
(dp4897
S'NamedEntityTag'
p4898
g109
sS'CharacterOffsetEnd'
p4899
S'1175'
p4900
sS'Lemma'
p4901
S'the'
p4902
sS'PartOfSpeech'
p4903
S'DT'
p4904
sS'CharacterOffsetBegin'
p4905
S'1172'
p4906
stp4907
a(S'electronic'
p4908
(dp4909
S'NamedEntityTag'
p4910
g109
sS'CharacterOffsetEnd'
p4911
S'1186'
p4912
sS'Lemma'
p4913
S'electronic'
p4914
sS'PartOfSpeech'
p4915
S'JJ'
p4916
sS'CharacterOffsetBegin'
p4917
S'1176'
p4918
stp4919
a(S'and'
p4920
(dp4921
S'NamedEntityTag'
p4922
g109
sS'CharacterOffsetEnd'
p4923
S'1190'
p4924
sS'Lemma'
p4925
S'and'
p4926
sS'PartOfSpeech'
p4927
S'CC'
p4928
sS'CharacterOffsetBegin'
p4929
S'1187'
p4930
stp4931
a(S'computer'
p4932
(dp4933
S'NamedEntityTag'
p4934
g109
sS'CharacterOffsetEnd'
p4935
S'1199'
p4936
sS'Lemma'
p4937
S'computer'
p4938
sS'PartOfSpeech'
p4939
S'NN'
p4940
sS'CharacterOffsetBegin'
p4941
S'1191'
p4942
stp4943
a(S'hookups'
p4944
(dp4945
S'NamedEntityTag'
p4946
g109
sS'CharacterOffsetEnd'
p4947
S'1207'
p4948
sS'Lemma'
p4949
S'hookup'
p4950
sS'PartOfSpeech'
p4951
S'NNS'
p4952
sS'CharacterOffsetBegin'
p4953
S'1200'
p4954
stp4955
a(S'for'
p4956
(dp4957
S'NamedEntityTag'
p4958
g109
sS'CharacterOffsetEnd'
p4959
S'1211'
p4960
sS'Lemma'
p4961
S'for'
p4962
sS'PartOfSpeech'
p4963
S'IN'
p4964
sS'CharacterOffsetBegin'
p4965
S'1208'
p4966
stp4967
a(S'the'
p4968
(dp4969
S'NamedEntityTag'
p4970
g109
sS'CharacterOffsetEnd'
p4971
S'1215'
p4972
sS'Lemma'
p4973
S'the'
p4974
sS'PartOfSpeech'
p4975
S'DT'
p4976
sS'CharacterOffsetBegin'
p4977
S'1212'
p4978
stp4979
a(S'antennas'
p4980
(dp4981
S'NamedEntityTag'
p4982
g109
sS'CharacterOffsetEnd'
p4983
S'1224'
p4984
sS'Lemma'
p4985
S'antenna'
p4986
sS'PartOfSpeech'
p4987
S'NNS'
p4988
sS'CharacterOffsetBegin'
p4989
S'1216'
p4990
stp4991
a(S'will'
p4992
(dp4993
S'NamedEntityTag'
p4994
g109
sS'CharacterOffsetEnd'
p4995
S'1229'
p4996
sS'Lemma'
p4997
S'will'
p4998
sS'PartOfSpeech'
p4999
S'MD'
p5000
sS'CharacterOffsetBegin'
p5001
S'1225'
p5002
stp5003
a(S'be'
p5004
(dp5005
S'NamedEntityTag'
p5006
g109
sS'CharacterOffsetEnd'
p5007
S'1232'
p5008
sS'Lemma'
p5009
S'be'
p5010
sS'PartOfSpeech'
p5011
S'VB'
p5012
sS'CharacterOffsetBegin'
p5013
S'1230'
p5014
stp5015
a(S'made'
p5016
(dp5017
S'NamedEntityTag'
p5018
g109
sS'CharacterOffsetEnd'
p5019
S'1237'
p5020
sS'Lemma'
p5021
S'make'
p5022
sS'PartOfSpeech'
p5023
S'VBN'
p5024
sS'CharacterOffsetBegin'
p5025
S'1233'
p5026
stp5027
a(S'inside'
p5028
(dp5029
S'NamedEntityTag'
p5030
g109
sS'CharacterOffsetEnd'
p5031
S'1244'
p5032
sS'Lemma'
p5033
S'inside'
p5034
sS'PartOfSpeech'
p5035
S'IN'
p5036
sS'CharacterOffsetBegin'
p5037
S'1238'
p5038
stp5039
a(S'Unity'
p5040
(dp5041
S'NamedEntityTag'
p5042
g109
sS'CharacterOffsetEnd'
p5043
S'1250'
p5044
sS'Lemma'
p5045
S'Unity'
p5046
sS'PartOfSpeech'
p5047
S'NNP'
p5048
sS'CharacterOffsetBegin'
p5049
S'1245'
p5050
stp5051
a(S'on'
p5052
(dp5053
S'NamedEntityTag'
p5054
g109
sS'CharacterOffsetEnd'
p5055
S'1253'
p5056
sS'Lemma'
p5057
S'on'
p5058
sS'PartOfSpeech'
p5059
S'IN'
p5060
sS'CharacterOffsetBegin'
p5061
S'1251'
p5062
stp5063
a(S'Thursday'
p5064
(dp5065
S'NormalizedNamedEntityTag'
p5066
S'XXXX-WXX-4'
p5067
sS'Timex'
p5068
S'<TIMEX3 tid="t6" type="DATE" value="XXXX-WXX-4">Thursday</TIMEX3>'
p5069
sS'Lemma'
p5070
S'Thursday'
p5071
sS'CharacterOffsetEnd'
p5072
S'1262'
p5073
sS'PartOfSpeech'
p5074
S'NNP'
p5075
sS'CharacterOffsetBegin'
p5076
S'1254'
p5077
sS'NamedEntityTag'
p5078
S'DATE'
p5079
stp5080
a(g347
(dp5081
S'NamedEntityTag'
p5082
g109
sS'CharacterOffsetEnd'
p5083
S'1263'
p5084
sS'Lemma'
p5085
g347
sS'PartOfSpeech'
p5086
g347
sS'CharacterOffsetBegin'
p5087
S'1262'
p5088
stp5089
a(S'after'
p5090
(dp5091
S'NamedEntityTag'
p5092
g109
sS'CharacterOffsetEnd'
p5093
S'1269'
p5094
sS'Lemma'
p5095
S'after'
p5096
sS'PartOfSpeech'
p5097
S'IN'
p5098
sS'CharacterOffsetBegin'
p5099
S'1264'
p5100
stp5101
a(S'the'
p5102
(dp5103
S'NamedEntityTag'
p5104
g109
sS'CharacterOffsetEnd'
p5105
S'1273'
p5106
sS'Lemma'
p5107
S'the'
p5108
sS'PartOfSpeech'
p5109
S'DT'
p5110
sS'CharacterOffsetBegin'
p5111
S'1270'
p5112
stp5113
a(S'entire'
p5114
(dp5115
S'NamedEntityTag'
p5116
g109
sS'CharacterOffsetEnd'
p5117
S'1280'
p5118
sS'Lemma'
p5119
S'entire'
p5120
sS'PartOfSpeech'
p5121
S'JJ'
p5122
sS'CharacterOffsetBegin'
p5123
S'1274'
p5124
stp5125
a(S'crew'
p5126
(dp5127
S'NamedEntityTag'
p5128
g109
sS'CharacterOffsetEnd'
p5129
S'1285'
p5130
sS'Lemma'
p5131
S'crew'
p5132
sS'PartOfSpeech'
p5133
S'NN'
p5134
sS'CharacterOffsetBegin'
p5135
S'1281'
p5136
stp5137
a(S'enters'
p5138
(dp5139
S'NamedEntityTag'
p5140
g109
sS'CharacterOffsetEnd'
p5141
S'1292'
p5142
sS'Lemma'
p5143
S'enter'
p5144
sS'PartOfSpeech'
p5145
S'VBZ'
p5146
sS'CharacterOffsetBegin'
p5147
S'1286'
p5148
stp5149
a(S'the'
p5150
(dp5151
S'NamedEntityTag'
p5152
g109
sS'CharacterOffsetEnd'
p5153
S'1296'
p5154
sS'Lemma'
p5155
S'the'
p5156
sS'PartOfSpeech'
p5157
S'DT'
p5158
sS'CharacterOffsetBegin'
p5159
S'1293'
p5160
stp5161
a(S'orbiting'
p5162
(dp5163
S'NamedEntityTag'
p5164
g109
sS'CharacterOffsetEnd'
p5165
S'1305'
p5166
sS'Lemma'
p5167
S'orbit'
p5168
sS'PartOfSpeech'
p5169
S'VBG'
p5170
sS'CharacterOffsetBegin'
p5171
S'1297'
p5172
stp5173
a(S'station'
p5174
(dp5175
S'NamedEntityTag'
p5176
g109
sS'CharacterOffsetEnd'
p5177
S'1313'
p5178
sS'Lemma'
p5179
S'station'
p5180
sS'PartOfSpeech'
p5181
S'NN'
p5182
sS'CharacterOffsetBegin'
p5183
S'1306'
p5184
stp5185
a(S'for'
p5186
(dp5187
S'NamedEntityTag'
p5188
g109
sS'CharacterOffsetEnd'
p5189
S'1317'
p5190
sS'Lemma'
p5191
S'for'
p5192
sS'PartOfSpeech'
p5193
S'IN'
p5194
sS'CharacterOffsetBegin'
p5195
S'1314'
p5196
stp5197
a(S'the'
p5198
(dp5199
S'NamedEntityTag'
p5200
g109
sS'CharacterOffsetEnd'
p5201
S'1321'
p5202
sS'Lemma'
p5203
S'the'
p5204
sS'PartOfSpeech'
p5205
S'DT'
p5206
sS'CharacterOffsetBegin'
p5207
S'1318'
p5208
stp5209
a(S'first'
p5210
(dp5211
S'NormalizedNamedEntityTag'
p5212
S'1.0'
p5213
sS'Lemma'
p5214
S'first'
p5215
sS'CharacterOffsetEnd'
p5216
S'1327'
p5217
sS'PartOfSpeech'
p5218
S'JJ'
p5219
sS'CharacterOffsetBegin'
p5220
S'1322'
p5221
sS'NamedEntityTag'
p5222
S'ORDINAL'
p5223
stp5224
a(S'time'
p5225
(dp5226
S'NamedEntityTag'
p5227
g109
sS'CharacterOffsetEnd'
p5228
S'1332'
p5229
sS'Lemma'
p5230
S'time'
p5231
sS'PartOfSpeech'
p5232
S'NN'
p5233
sS'CharacterOffsetBegin'
p5234
S'1328'
p5235
stp5236
a(g254
(dp5237
S'NamedEntityTag'
p5238
g109
sS'CharacterOffsetEnd'
p5239
S'1333'
p5240
sS'Lemma'
p5241
g254
sS'PartOfSpeech'
p5242
g254
sS'CharacterOffsetBegin'
p5243
S'1332'
p5244
stp5245
asa(dp5246
g7
S'(ROOT (S (NP (NP (JJ Other) (JJ spacewalking) (NNS chores)) (PP (IN for) (NP (NNP Ross) (CC and) (NNP Newman))) (PP (IN on) (NP (NNP Wednesday)))) (NP-TMP (NN evening)) (VP (VBD included) (SBAR (S (S (VP (VBG erecting) (NP (DT a) (NN sunshade)) (PP (IN over) (NP (DT a) (NN computer))))) (VP (VBD mounted) (PP (TO to) (NP (NP (DT the) (NN outside)) (PP (IN of) (NP (NNP Unity))))))))) (. .)))'
p5247
sg9
S'Other spacewalking chores for Ross and Newman on Wednesday evening included erecting a sunshade over a computer mounted to the outside of Unity.'
p5248
sg11
(lp5249
(S'root'
p5250
S'ROOT'
p5251
S'included'
p5252
tp5253
a(S'amod'
p5254
S'chores'
p5255
S'Other'
p5256
tp5257
a(S'amod'
p5258
S'chores'
p5259
S'spacewalking'
p5260
tp5261
a(S'nsubj'
p5262
S'included'
p5263
S'chores'
p5264
tp5265
a(S'prep_for'
p5266
S'chores'
p5267
S'Ross'
p5268
tp5269
a(S'conj_and'
p5270
S'Ross'
p5271
S'Newman'
p5272
tp5273
a(S'prep_on'
p5274
S'chores'
p5275
S'Wednesday'
p5276
tp5277
a(S'tmod'
p5278
S'included'
p5279
S'evening'
p5280
tp5281
a(S'csubj'
p5282
S'mounted'
p5283
S'erecting'
p5284
tp5285
a(S'det'
p5286
S'sunshade'
p5287
g2665
tp5288
a(S'dobj'
p5289
S'erecting'
p5290
S'sunshade'
p5291
tp5292
a(S'det'
p5293
S'computer'
p5294
g2665
tp5295
a(S'prep_over'
p5296
S'erecting'
p5297
S'computer'
p5298
tp5299
a(S'ccomp'
p5300
S'included'
p5301
S'mounted'
p5302
tp5303
a(S'det'
p5304
S'outside'
p5305
S'the'
p5306
tp5307
a(S'prep_to'
p5308
S'mounted'
p5309
S'outside'
p5310
tp5311
a(S'prep_of'
p5312
S'outside'
p5313
S'Unity'
p5314
tp5315
asg57
(lp5316
(g5250
S'ROOT-0'
p5317
S'included-11'
p5318
tp5319
a(g5254
S'chores-3'
p5320
S'Other-1'
p5321
tp5322
a(g5258
S'chores-3'
p5323
S'spacewalking-2'
p5324
tp5325
a(g5262
S'included-11'
p5326
S'chores-3'
p5327
tp5328
a(g5266
S'chores-3'
p5329
S'Ross-5'
p5330
tp5331
a(g5270
S'Ross-5'
p5332
S'Newman-7'
p5333
tp5334
a(g5274
S'chores-3'
p5335
S'Wednesday-9'
p5336
tp5337
a(g5278
S'included-11'
p5338
S'evening-10'
p5339
tp5340
a(g5282
S'mounted-18'
p5341
S'erecting-12'
p5342
tp5343
a(g5286
S'sunshade-14'
p5344
S'a-13'
p5345
tp5346
a(g5289
S'erecting-12'
p5347
S'sunshade-14'
p5348
tp5349
a(g5293
S'computer-17'
p5350
S'a-16'
p5351
tp5352
a(g5296
S'erecting-12'
p5353
S'computer-17'
p5354
tp5355
a(g5300
S'included-11'
p5356
S'mounted-18'
p5357
tp5358
a(g5304
S'outside-21'
p5359
S'the-20'
p5360
tp5361
a(g5308
S'mounted-18'
p5362
S'outside-21'
p5363
tp5364
a(g5312
S'outside-21'
p5365
S'Unity-23'
p5366
tp5367
asg92
(lp5368
(S'Other'
p5369
(dp5370
S'NamedEntityTag'
p5371
g109
sS'CharacterOffsetEnd'
p5372
S'1339'
p5373
sS'Lemma'
p5374
S'other'
p5375
sS'PartOfSpeech'
p5376
S'JJ'
p5377
sS'CharacterOffsetBegin'
p5378
S'1334'
p5379
stp5380
a(S'spacewalking'
p5381
(dp5382
S'NamedEntityTag'
p5383
g109
sS'CharacterOffsetEnd'
p5384
S'1352'
p5385
sS'Lemma'
p5386
S'spacewalking'
p5387
sS'PartOfSpeech'
p5388
S'JJ'
p5389
sS'CharacterOffsetBegin'
p5390
S'1340'
p5391
stp5392
a(S'chores'
p5393
(dp5394
S'NamedEntityTag'
p5395
g109
sS'CharacterOffsetEnd'
p5396
S'1359'
p5397
sS'Lemma'
p5398
S'chore'
p5399
sS'PartOfSpeech'
p5400
S'NNS'
p5401
sS'CharacterOffsetBegin'
p5402
S'1353'
p5403
stp5404
a(S'for'
p5405
(dp5406
S'NamedEntityTag'
p5407
g109
sS'CharacterOffsetEnd'
p5408
S'1363'
p5409
sS'Lemma'
p5410
S'for'
p5411
sS'PartOfSpeech'
p5412
S'IN'
p5413
sS'CharacterOffsetBegin'
p5414
S'1360'
p5415
stp5416
a(S'Ross'
p5417
(dp5418
S'NamedEntityTag'
p5419
S'PERSON'
p5420
sS'CharacterOffsetEnd'
p5421
S'1368'
p5422
sS'Lemma'
p5423
S'Ross'
p5424
sS'PartOfSpeech'
p5425
S'NNP'
p5426
sS'CharacterOffsetBegin'
p5427
S'1364'
p5428
stp5429
a(S'and'
p5430
(dp5431
S'NamedEntityTag'
p5432
g109
sS'CharacterOffsetEnd'
p5433
S'1372'
p5434
sS'Lemma'
p5435
S'and'
p5436
sS'PartOfSpeech'
p5437
S'CC'
p5438
sS'CharacterOffsetBegin'
p5439
S'1369'
p5440
stp5441
a(S'Newman'
p5442
(dp5443
S'NamedEntityTag'
p5444
S'PERSON'
p5445
sS'CharacterOffsetEnd'
p5446
S'1379'
p5447
sS'Lemma'
p5448
S'Newman'
p5449
sS'PartOfSpeech'
p5450
S'NNP'
p5451
sS'CharacterOffsetBegin'
p5452
S'1373'
p5453
stp5454
a(S'on'
p5455
(dp5456
S'NamedEntityTag'
p5457
g109
sS'CharacterOffsetEnd'
p5458
S'1382'
p5459
sS'Lemma'
p5460
S'on'
p5461
sS'PartOfSpeech'
p5462
S'IN'
p5463
sS'CharacterOffsetBegin'
p5464
S'1380'
p5465
stp5466
a(S'Wednesday'
p5467
(dp5468
S'NormalizedNamedEntityTag'
p5469
S'XXXX-WXX-3TEV'
p5470
sS'Timex'
p5471
S'<TIMEX3 tid="t7" type="TIME" value="XXXX-WXX-3TEV">Wednesday evening</TIMEX3>'
p5472
sS'Lemma'
p5473
S'Wednesday'
p5474
sS'CharacterOffsetEnd'
p5475
S'1392'
p5476
sS'PartOfSpeech'
p5477
S'NNP'
p5478
sS'CharacterOffsetBegin'
p5479
S'1383'
p5480
sS'NamedEntityTag'
p5481
S'DATE'
p5482
stp5483
a(S'evening'
p5484
(dp5485
S'NormalizedNamedEntityTag'
p5486
S'XXXX-WXX-3TEV'
p5487
sS'Timex'
p5488
S'<TIMEX3 tid="t7" type="TIME" value="XXXX-WXX-3TEV">Wednesday evening</TIMEX3>'
p5489
sS'Lemma'
p5490
S'evening'
p5491
sS'CharacterOffsetEnd'
p5492
S'1400'
p5493
sS'PartOfSpeech'
p5494
S'NN'
p5495
sS'CharacterOffsetBegin'
p5496
S'1393'
p5497
sS'NamedEntityTag'
p5498
S'TIME'
p5499
stp5500
a(S'included'
p5501
(dp5502
S'NamedEntityTag'
p5503
g109
sS'CharacterOffsetEnd'
p5504
S'1409'
p5505
sS'Lemma'
p5506
S'include'
p5507
sS'PartOfSpeech'
p5508
S'VBD'
p5509
sS'CharacterOffsetBegin'
p5510
S'1401'
p5511
stp5512
a(S'erecting'
p5513
(dp5514
S'NamedEntityTag'
p5515
g109
sS'CharacterOffsetEnd'
p5516
S'1418'
p5517
sS'Lemma'
p5518
S'erect'
p5519
sS'PartOfSpeech'
p5520
S'VBG'
p5521
sS'CharacterOffsetBegin'
p5522
S'1410'
p5523
stp5524
a(g2665
(dp5525
S'NamedEntityTag'
p5526
g109
sS'CharacterOffsetEnd'
p5527
S'1420'
p5528
sS'Lemma'
p5529
g2665
sS'PartOfSpeech'
p5530
S'DT'
p5531
sS'CharacterOffsetBegin'
p5532
S'1419'
p5533
stp5534
a(S'sunshade'
p5535
(dp5536
S'NamedEntityTag'
p5537
g109
sS'CharacterOffsetEnd'
p5538
S'1429'
p5539
sS'Lemma'
p5540
S'sunshade'
p5541
sS'PartOfSpeech'
p5542
S'NN'
p5543
sS'CharacterOffsetBegin'
p5544
S'1421'
p5545
stp5546
a(S'over'
p5547
(dp5548
S'NamedEntityTag'
p5549
g109
sS'CharacterOffsetEnd'
p5550
S'1434'
p5551
sS'Lemma'
p5552
S'over'
p5553
sS'PartOfSpeech'
p5554
S'IN'
p5555
sS'CharacterOffsetBegin'
p5556
S'1430'
p5557
stp5558
a(g2665
(dp5559
S'NamedEntityTag'
p5560
g109
sS'CharacterOffsetEnd'
p5561
S'1436'
p5562
sS'Lemma'
p5563
g2665
sS'PartOfSpeech'
p5564
S'DT'
p5565
sS'CharacterOffsetBegin'
p5566
S'1435'
p5567
stp5568
a(S'computer'
p5569
(dp5570
S'NamedEntityTag'
p5571
g109
sS'CharacterOffsetEnd'
p5572
S'1445'
p5573
sS'Lemma'
p5574
S'computer'
p5575
sS'PartOfSpeech'
p5576
S'NN'
p5577
sS'CharacterOffsetBegin'
p5578
S'1437'
p5579
stp5580
a(S'mounted'
p5581
(dp5582
S'NamedEntityTag'
p5583
g109
sS'CharacterOffsetEnd'
p5584
S'1453'
p5585
sS'Lemma'
p5586
S'mount'
p5587
sS'PartOfSpeech'
p5588
S'VBD'
p5589
sS'CharacterOffsetBegin'
p5590
S'1446'
p5591
stp5592
a(S'to'
p5593
(dp5594
S'NamedEntityTag'
p5595
g109
sS'CharacterOffsetEnd'
p5596
S'1456'
p5597
sS'Lemma'
p5598
S'to'
p5599
sS'PartOfSpeech'
p5600
S'TO'
p5601
sS'CharacterOffsetBegin'
p5602
S'1454'
p5603
stp5604
a(S'the'
p5605
(dp5606
S'NamedEntityTag'
p5607
g109
sS'CharacterOffsetEnd'
p5608
S'1460'
p5609
sS'Lemma'
p5610
S'the'
p5611
sS'PartOfSpeech'
p5612
S'DT'
p5613
sS'CharacterOffsetBegin'
p5614
S'1457'
p5615
stp5616
a(S'outside'
p5617
(dp5618
S'NamedEntityTag'
p5619
g109
sS'CharacterOffsetEnd'
p5620
S'1468'
p5621
sS'Lemma'
p5622
S'outside'
p5623
sS'PartOfSpeech'
p5624
S'NN'
p5625
sS'CharacterOffsetBegin'
p5626
S'1461'
p5627
stp5628
a(S'of'
p5629
(dp5630
S'NamedEntityTag'
p5631
g109
sS'CharacterOffsetEnd'
p5632
S'1471'
p5633
sS'Lemma'
p5634
S'of'
p5635
sS'PartOfSpeech'
p5636
S'IN'
p5637
sS'CharacterOffsetBegin'
p5638
S'1469'
p5639
stp5640
a(S'Unity'
p5641
(dp5642
S'NamedEntityTag'
p5643
g109
sS'CharacterOffsetEnd'
p5644
S'1477'
p5645
sS'Lemma'
p5646
S'Unity'
p5647
sS'PartOfSpeech'
p5648
S'NNP'
p5649
sS'CharacterOffsetBegin'
p5650
S'1472'
p5651
stp5652
a(g254
(dp5653
S'NamedEntityTag'
p5654
g109
sS'CharacterOffsetEnd'
p5655
S'1478'
p5656
sS'Lemma'
p5657
g254
sS'PartOfSpeech'
p5658
g254
sS'CharacterOffsetBegin'
p5659
S'1477'
p5660
stp5661
asa(dp5662
g7
S'(ROOT (S (NP (NNP Mission) (NNP Control)) (VP (VBD decided) (SBAR (RB just) (IN before) (S (NP (DT the) (NN spacewalk)) (VP (TO to) (VP (VB let) (S (NP (NNP Newman)) (VP (VB take) (NP (DT a) (NN crack)) (PP (IN at) (S (VP (VBG unjamming) (NP (DT the) (NNP Zarya) (NN antenna)))))))))))) (. .)))'
p5663
sg9
S'Mission Control decided just before the spacewalk to let Newman take a crack at unjamming the Zarya antenna.'
p5664
sg11
(lp5665
(S'root'
p5666
S'ROOT'
p5667
S'decided'
p5668
tp5669
a(S'nn'
p5670
S'Control'
p5671
S'Mission'
p5672
tp5673
a(S'nsubj'
p5674
S'decided'
p5675
S'Control'
p5676
tp5677
a(S'advmod'
p5678
S'let'
p5679
S'just'
p5680
tp5681
a(S'mark'
p5682
S'let'
p5683
S'before'
p5684
tp5685
a(S'det'
p5686
S'spacewalk'
p5687
S'the'
p5688
tp5689
a(S'nsubj'
p5690
S'let'
p5691
S'spacewalk'
p5692
tp5693
a(S'aux'
p5694
S'let'
p5695
S'to'
p5696
tp5697
a(S'advcl'
p5698
S'decided'
p5699
S'let'
p5700
tp5701
a(S'nsubj'
p5702
S'take'
p5703
S'Newman'
p5704
tp5705
a(S'ccomp'
p5706
S'let'
p5707
S'take'
p5708
tp5709
a(S'det'
p5710
S'crack'
p5711
g2665
tp5712
a(S'dobj'
p5713
S'take'
p5714
S'crack'
p5715
tp5716
a(S'prepc_at'
p5717
S'take'
p5718
S'unjamming'
p5719
tp5720
a(S'det'
p5721
S'antenna'
p5722
S'the'
p5723
tp5724
a(S'nn'
p5725
S'antenna'
p5726
S'Zarya'
p5727
tp5728
a(S'dobj'
p5729
S'unjamming'
p5730
S'antenna'
p5731
tp5732
asg57
(lp5733
(g5666
S'ROOT-0'
p5734
S'decided-3'
p5735
tp5736
a(g5670
S'Control-2'
p5737
S'Mission-1'
p5738
tp5739
a(g5674
S'decided-3'
p5740
S'Control-2'
p5741
tp5742
a(g5678
S'let-9'
p5743
S'just-4'
p5744
tp5745
a(g5682
S'let-9'
p5746
S'before-5'
p5747
tp5748
a(g5686
S'spacewalk-7'
p5749
S'the-6'
p5750
tp5751
a(g5690
S'let-9'
p5752
S'spacewalk-7'
p5753
tp5754
a(g5694
S'let-9'
p5755
S'to-8'
p5756
tp5757
a(g5698
S'decided-3'
p5758
S'let-9'
p5759
tp5760
a(g5702
S'take-11'
p5761
S'Newman-10'
p5762
tp5763
a(g5706
S'let-9'
p5764
S'take-11'
p5765
tp5766
a(g5710
S'crack-13'
p5767
S'a-12'
p5768
tp5769
a(g5713
S'take-11'
p5770
S'crack-13'
p5771
tp5772
a(g5717
S'take-11'
p5773
S'unjamming-15'
p5774
tp5775
a(g5721
S'antenna-18'
p5776
S'the-16'
p5777
tp5778
a(g5725
S'antenna-18'
p5779
S'Zarya-17'
p5780
tp5781
a(g5729
S'unjamming-15'
p5782
S'antenna-18'
p5783
tp5784
asg92
(lp5785
(S'Mission'
p5786
(dp5787
S'NamedEntityTag'
p5788
S'ORGANIZATION'
p5789
sS'CharacterOffsetEnd'
p5790
S'1486'
p5791
sS'Lemma'
p5792
S'Mission'
p5793
sS'PartOfSpeech'
p5794
S'NNP'
p5795
sS'CharacterOffsetBegin'
p5796
S'1479'
p5797
stp5798
a(S'Control'
p5799
(dp5800
S'NamedEntityTag'
p5801
S'ORGANIZATION'
p5802
sS'CharacterOffsetEnd'
p5803
S'1494'
p5804
sS'Lemma'
p5805
S'Control'
p5806
sS'PartOfSpeech'
p5807
S'NNP'
p5808
sS'CharacterOffsetBegin'
p5809
S'1487'
p5810
stp5811
a(S'decided'
p5812
(dp5813
S'NamedEntityTag'
p5814
g109
sS'CharacterOffsetEnd'
p5815
S'1502'
p5816
sS'Lemma'
p5817
S'decide'
p5818
sS'PartOfSpeech'
p5819
S'VBD'
p5820
sS'CharacterOffsetBegin'
p5821
S'1495'
p5822
stp5823
a(S'just'
p5824
(dp5825
S'NamedEntityTag'
p5826
g109
sS'CharacterOffsetEnd'
p5827
S'1507'
p5828
sS'Lemma'
p5829
S'just'
p5830
sS'PartOfSpeech'
p5831
S'RB'
p5832
sS'CharacterOffsetBegin'
p5833
S'1503'
p5834
stp5835
a(S'before'
p5836
(dp5837
S'NamedEntityTag'
p5838
g109
sS'CharacterOffsetEnd'
p5839
S'1514'
p5840
sS'Lemma'
p5841
S'before'
p5842
sS'PartOfSpeech'
p5843
S'IN'
p5844
sS'CharacterOffsetBegin'
p5845
S'1508'
p5846
stp5847
a(S'the'
p5848
(dp5849
S'NamedEntityTag'
p5850
g109
sS'CharacterOffsetEnd'
p5851
S'1518'
p5852
sS'Lemma'
p5853
S'the'
p5854
sS'PartOfSpeech'
p5855
S'DT'
p5856
sS'CharacterOffsetBegin'
p5857
S'1515'
p5858
stp5859
a(S'spacewalk'
p5860
(dp5861
S'NamedEntityTag'
p5862
g109
sS'CharacterOffsetEnd'
p5863
S'1528'
p5864
sS'Lemma'
p5865
S'spacewalk'
p5866
sS'PartOfSpeech'
p5867
S'NN'
p5868
sS'CharacterOffsetBegin'
p5869
S'1519'
p5870
stp5871
a(S'to'
p5872
(dp5873
S'NamedEntityTag'
p5874
g109
sS'CharacterOffsetEnd'
p5875
S'1531'
p5876
sS'Lemma'
p5877
S'to'
p5878
sS'PartOfSpeech'
p5879
S'TO'
p5880
sS'CharacterOffsetBegin'
p5881
S'1529'
p5882
stp5883
a(S'let'
p5884
(dp5885
S'NamedEntityTag'
p5886
g109
sS'CharacterOffsetEnd'
p5887
S'1535'
p5888
sS'Lemma'
p5889
S'let'
p5890
sS'PartOfSpeech'
p5891
S'VB'
p5892
sS'CharacterOffsetBegin'
p5893
S'1532'
p5894
stp5895
a(S'Newman'
p5896
(dp5897
S'NamedEntityTag'
p5898
S'PERSON'
p5899
sS'CharacterOffsetEnd'
p5900
S'1542'
p5901
sS'Lemma'
p5902
S'Newman'
p5903
sS'PartOfSpeech'
p5904
S'NNP'
p5905
sS'CharacterOffsetBegin'
p5906
S'1536'
p5907
stp5908
a(S'take'
p5909
(dp5910
S'NamedEntityTag'
p5911
g109
sS'CharacterOffsetEnd'
p5912
S'1547'
p5913
sS'Lemma'
p5914
S'take'
p5915
sS'PartOfSpeech'
p5916
S'VB'
p5917
sS'CharacterOffsetBegin'
p5918
S'1543'
p5919
stp5920
a(g2665
(dp5921
S'NamedEntityTag'
p5922
g109
sS'CharacterOffsetEnd'
p5923
S'1549'
p5924
sS'Lemma'
p5925
g2665
sS'PartOfSpeech'
p5926
S'DT'
p5927
sS'CharacterOffsetBegin'
p5928
S'1548'
p5929
stp5930
a(S'crack'
p5931
(dp5932
S'NamedEntityTag'
p5933
g109
sS'CharacterOffsetEnd'
p5934
S'1555'
p5935
sS'Lemma'
p5936
S'crack'
p5937
sS'PartOfSpeech'
p5938
S'NN'
p5939
sS'CharacterOffsetBegin'
p5940
S'1550'
p5941
stp5942
a(S'at'
p5943
(dp5944
S'NamedEntityTag'
p5945
g109
sS'CharacterOffsetEnd'
p5946
S'1558'
p5947
sS'Lemma'
p5948
S'at'
p5949
sS'PartOfSpeech'
p5950
S'IN'
p5951
sS'CharacterOffsetBegin'
p5952
S'1556'
p5953
stp5954
a(S'unjamming'
p5955
(dp5956
S'NamedEntityTag'
p5957
g109
sS'CharacterOffsetEnd'
p5958
S'1568'
p5959
sS'Lemma'
p5960
S'unjamm'
p5961
sS'PartOfSpeech'
p5962
S'VBG'
p5963
sS'CharacterOffsetBegin'
p5964
S'1559'
p5965
stp5966
a(S'the'
p5967
(dp5968
S'NamedEntityTag'
p5969
g109
sS'CharacterOffsetEnd'
p5970
S'1572'
p5971
sS'Lemma'
p5972
S'the'
p5973
sS'PartOfSpeech'
p5974
S'DT'
p5975
sS'CharacterOffsetBegin'
p5976
S'1569'
p5977
stp5978
a(S'Zarya'
p5979
(dp5980
S'NamedEntityTag'
p5981
g109
sS'CharacterOffsetEnd'
p5982
S'1578'
p5983
sS'Lemma'
p5984
S'Zarya'
p5985
sS'PartOfSpeech'
p5986
S'NNP'
p5987
sS'CharacterOffsetBegin'
p5988
S'1573'
p5989
stp5990
a(S'antenna'
p5991
(dp5992
S'NamedEntityTag'
p5993
g109
sS'CharacterOffsetEnd'
p5994
S'1586'
p5995
sS'Lemma'
p5996
S'antenna'
p5997
sS'PartOfSpeech'
p5998
S'NN'
p5999
sS'CharacterOffsetBegin'
p6000
S'1579'
p6001
stp6002
a(g254
(dp6003
S'NamedEntityTag'
p6004
g109
sS'CharacterOffsetEnd'
p6005
S'1587'
p6006
sS'Lemma'
p6007
g254
sS'PartOfSpeech'
p6008
g254
sS'CharacterOffsetBegin'
p6009
S'1586'
p6010
stp6011
asa(dp6012
g7
S'(ROOT (S (NP (NNP Flight) (NNS controllers)) (VP (VBD urged) (NP (NN caution))) (. .)))'
p6013
sg9
S'Flight controllers urged caution.'
p6014
sg11
(lp6015
(S'root'
p6016
S'ROOT'
p6017
S'urged'
p6018
tp6019
a(S'nn'
p6020
S'controllers'
p6021
S'Flight'
p6022
tp6023
a(S'nsubj'
p6024
S'urged'
p6025
S'controllers'
p6026
tp6027
a(S'dobj'
p6028
S'urged'
p6029
S'caution'
p6030
tp6031
asg57
(lp6032
(g6016
S'ROOT-0'
p6033
S'urged-3'
p6034
tp6035
a(g6020
S'controllers-2'
p6036
S'Flight-1'
p6037
tp6038
a(g6024
S'urged-3'
p6039
S'controllers-2'
p6040
tp6041
a(g6028
S'urged-3'
p6042
S'caution-4'
p6043
tp6044
asg92
(lp6045
(S'Flight'
p6046
(dp6047
S'NamedEntityTag'
p6048
g109
sS'CharacterOffsetEnd'
p6049
S'1594'
p6050
sS'Lemma'
p6051
S'Flight'
p6052
sS'PartOfSpeech'
p6053
S'NNP'
p6054
sS'CharacterOffsetBegin'
p6055
S'1588'
p6056
stp6057
a(S'controllers'
p6058
(dp6059
S'NamedEntityTag'
p6060
g109
sS'CharacterOffsetEnd'
p6061
S'1606'
p6062
sS'Lemma'
p6063
S'controller'
p6064
sS'PartOfSpeech'
p6065
S'NNS'
p6066
sS'CharacterOffsetBegin'
p6067
S'1595'
p6068
stp6069
a(S'urged'
p6070
(dp6071
S'NamedEntityTag'
p6072
g109
sS'CharacterOffsetEnd'
p6073
S'1612'
p6074
sS'Lemma'
p6075
S'urge'
p6076
sS'PartOfSpeech'
p6077
S'VBD'
p6078
sS'CharacterOffsetBegin'
p6079
S'1607'
p6080
stp6081
a(S'caution'
p6082
(dp6083
S'NamedEntityTag'
p6084
g109
sS'CharacterOffsetEnd'
p6085
S'1620'
p6086
sS'Lemma'
p6087
S'caution'
p6088
sS'PartOfSpeech'
p6089
S'NN'
p6090
sS'CharacterOffsetBegin'
p6091
S'1613'
p6092
stp6093
a(g254
(dp6094
S'NamedEntityTag'
p6095
g109
sS'CharacterOffsetEnd'
p6096
S'1621'
p6097
sS'Lemma'
p6098
g254
sS'PartOfSpeech'
p6099
g254
sS'CharacterOffsetBegin'
p6100
S'1620'
p6101
stp6102
asa(dp6103
g7
S'(ROOT (S (S (NP (DT The) (NN antenna)) (VP (VBD was) (VP (VBN rolled) (PRT (RP up)) (PP (IN on) (NP (DT a) (NN spool)))))) (, ,) (CC and) (S (NP (NNS engineers)) (VP (VBD worried) (SBAR (S (NP (DT the) (JJ 3-foot) (NN strip)) (VP (MD might) (VP (VB pop) (ADJP (JJ open) (PP (IN with) (NP (JJ enough) (NN force)))) (S (VP (TO to) (VP (VB hurt) (NP (PRP him)) (SBAR (IN if) (S (NP (PRP he)) (VP (VBD got) (ADVP (RB too) (RB close)))))))))))))) (. .)))'
p6104
sg9
S'The antenna was rolled up on a spool, and engineers worried the 3-foot strip might pop open with enough force to hurt him if he got too close.'
p6105
sg11
(lp6106
(S'root'
p6107
S'ROOT'
p6108
S'rolled'
p6109
tp6110
a(S'det'
p6111
S'antenna'
p6112
S'The'
p6113
tp6114
a(S'nsubjpass'
p6115
S'rolled'
p6116
S'antenna'
p6117
tp6118
a(S'auxpass'
p6119
S'rolled'
p6120
S'was'
p6121
tp6122
a(S'prt'
p6123
S'rolled'
p6124
S'up'
p6125
tp6126
a(S'det'
p6127
S'spool'
p6128
g2665
tp6129
a(S'prep_on'
p6130
S'rolled'
p6131
S'spool'
p6132
tp6133
a(S'nsubj'
p6134
S'worried'
p6135
S'engineers'
p6136
tp6137
a(S'conj_and'
p6138
S'rolled'
p6139
S'worried'
p6140
tp6141
a(S'det'
p6142
S'strip'
p6143
S'the'
p6144
tp6145
a(S'amod'
p6146
S'strip'
p6147
S'3-foot'
p6148
tp6149
a(S'nsubj'
p6150
S'pop'
p6151
S'strip'
p6152
tp6153
a(S'aux'
p6154
S'pop'
p6155
S'might'
p6156
tp6157
a(S'ccomp'
p6158
S'worried'
p6159
S'pop'
p6160
tp6161
a(S'acomp'
p6162
S'pop'
p6163
S'open'
p6164
tp6165
a(S'amod'
p6166
S'force'
p6167
S'enough'
p6168
tp6169
a(S'prep_with'
p6170
S'open'
p6171
S'force'
p6172
tp6173
a(S'aux'
p6174
S'hurt'
p6175
S'to'
p6176
tp6177
a(S'xcomp'
p6178
S'pop'
p6179
S'hurt'
p6180
tp6181
a(S'dobj'
p6182
S'hurt'
p6183
S'him'
p6184
tp6185
a(S'mark'
p6186
S'got'
p6187
S'if'
p6188
tp6189
a(S'nsubj'
p6190
S'got'
p6191
S'he'
p6192
tp6193
a(S'advcl'
p6194
S'hurt'
p6195
S'got'
p6196
tp6197
a(S'advmod'
p6198
S'close'
p6199
S'too'
p6200
tp6201
a(S'advmod'
p6202
S'got'
p6203
S'close'
p6204
tp6205
asg57
(lp6206
(g6107
S'ROOT-0'
p6207
S'rolled-4'
p6208
tp6209
a(g6111
S'antenna-2'
p6210
S'The-1'
p6211
tp6212
a(g6115
S'rolled-4'
p6213
S'antenna-2'
p6214
tp6215
a(g6119
S'rolled-4'
p6216
S'was-3'
p6217
tp6218
a(g6123
S'rolled-4'
p6219
S'up-5'
p6220
tp6221
a(g6127
S'spool-8'
p6222
S'a-7'
p6223
tp6224
a(g6130
S'rolled-4'
p6225
S'spool-8'
p6226
tp6227
a(g6134
S'worried-12'
p6228
S'engineers-11'
p6229
tp6230
a(g6138
S'rolled-4'
p6231
S'worried-12'
p6232
tp6233
a(g6142
S'strip-15'
p6234
S'the-13'
p6235
tp6236
a(g6146
S'strip-15'
p6237
S'3-foot-14'
p6238
tp6239
a(g6150
S'pop-17'
p6240
S'strip-15'
p6241
tp6242
a(g6154
S'pop-17'
p6243
S'might-16'
p6244
tp6245
a(g6158
S'worried-12'
p6246
S'pop-17'
p6247
tp6248
a(g6162
S'pop-17'
p6249
S'open-18'
p6250
tp6251
a(g6166
S'force-21'
p6252
S'enough-20'
p6253
tp6254
a(g6170
S'open-18'
p6255
S'force-21'
p6256
tp6257
a(g6174
S'hurt-23'
p6258
S'to-22'
p6259
tp6260
a(g6178
S'pop-17'
p6261
S'hurt-23'
p6262
tp6263
a(g6182
S'hurt-23'
p6264
S'him-24'
p6265
tp6266
a(g6186
S'got-27'
p6267
S'if-25'
p6268
tp6269
a(g6190
S'got-27'
p6270
S'he-26'
p6271
tp6272
a(g6194
S'hurt-23'
p6273
S'got-27'
p6274
tp6275
a(g6198
S'close-29'
p6276
S'too-28'
p6277
tp6278
a(g6202
S'got-27'
p6279
S'close-29'
p6280
tp6281
asg92
(lp6282
(S'The'
p6283
(dp6284
S'NamedEntityTag'
p6285
g109
sS'CharacterOffsetEnd'
p6286
S'1625'
p6287
sS'Lemma'
p6288
S'the'
p6289
sS'PartOfSpeech'
p6290
S'DT'
p6291
sS'CharacterOffsetBegin'
p6292
S'1622'
p6293
stp6294
a(S'antenna'
p6295
(dp6296
S'NamedEntityTag'
p6297
g109
sS'CharacterOffsetEnd'
p6298
S'1633'
p6299
sS'Lemma'
p6300
S'antenna'
p6301
sS'PartOfSpeech'
p6302
S'NN'
p6303
sS'CharacterOffsetBegin'
p6304
S'1626'
p6305
stp6306
a(S'was'
p6307
(dp6308
S'NamedEntityTag'
p6309
g109
sS'CharacterOffsetEnd'
p6310
S'1637'
p6311
sS'Lemma'
p6312
S'be'
p6313
sS'PartOfSpeech'
p6314
S'VBD'
p6315
sS'CharacterOffsetBegin'
p6316
S'1634'
p6317
stp6318
a(S'rolled'
p6319
(dp6320
S'NamedEntityTag'
p6321
g109
sS'CharacterOffsetEnd'
p6322
S'1644'
p6323
sS'Lemma'
p6324
S'roll'
p6325
sS'PartOfSpeech'
p6326
S'VBN'
p6327
sS'CharacterOffsetBegin'
p6328
S'1638'
p6329
stp6330
a(S'up'
p6331
(dp6332
S'NamedEntityTag'
p6333
g109
sS'CharacterOffsetEnd'
p6334
S'1647'
p6335
sS'Lemma'
p6336
S'up'
p6337
sS'PartOfSpeech'
p6338
S'RP'
p6339
sS'CharacterOffsetBegin'
p6340
S'1645'
p6341
stp6342
a(S'on'
p6343
(dp6344
S'NamedEntityTag'
p6345
g109
sS'CharacterOffsetEnd'
p6346
S'1650'
p6347
sS'Lemma'
p6348
S'on'
p6349
sS'PartOfSpeech'
p6350
S'IN'
p6351
sS'CharacterOffsetBegin'
p6352
S'1648'
p6353
stp6354
a(g2665
(dp6355
S'NamedEntityTag'
p6356
g109
sS'CharacterOffsetEnd'
p6357
S'1652'
p6358
sS'Lemma'
p6359
g2665
sS'PartOfSpeech'
p6360
S'DT'
p6361
sS'CharacterOffsetBegin'
p6362
S'1651'
p6363
stp6364
a(S'spool'
p6365
(dp6366
S'NamedEntityTag'
p6367
g109
sS'CharacterOffsetEnd'
p6368
S'1658'
p6369
sS'Lemma'
p6370
S'spool'
p6371
sS'PartOfSpeech'
p6372
S'NN'
p6373
sS'CharacterOffsetBegin'
p6374
S'1653'
p6375
stp6376
a(g347
(dp6377
S'NamedEntityTag'
p6378
g109
sS'CharacterOffsetEnd'
p6379
S'1659'
p6380
sS'Lemma'
p6381
g347
sS'PartOfSpeech'
p6382
g347
sS'CharacterOffsetBegin'
p6383
S'1658'
p6384
stp6385
a(S'and'
p6386
(dp6387
S'NamedEntityTag'
p6388
g109
sS'CharacterOffsetEnd'
p6389
S'1663'
p6390
sS'Lemma'
p6391
S'and'
p6392
sS'PartOfSpeech'
p6393
S'CC'
p6394
sS'CharacterOffsetBegin'
p6395
S'1660'
p6396
stp6397
a(S'engineers'
p6398
(dp6399
S'NamedEntityTag'
p6400
g109
sS'CharacterOffsetEnd'
p6401
S'1673'
p6402
sS'Lemma'
p6403
S'engineer'
p6404
sS'PartOfSpeech'
p6405
S'NNS'
p6406
sS'CharacterOffsetBegin'
p6407
S'1664'
p6408
stp6409
a(S'worried'
p6410
(dp6411
S'NamedEntityTag'
p6412
g109
sS'CharacterOffsetEnd'
p6413
S'1681'
p6414
sS'Lemma'
p6415
S'worry'
p6416
sS'PartOfSpeech'
p6417
S'VBD'
p6418
sS'CharacterOffsetBegin'
p6419
S'1674'
p6420
stp6421
a(S'the'
p6422
(dp6423
S'NamedEntityTag'
p6424
g109
sS'CharacterOffsetEnd'
p6425
S'1685'
p6426
sS'Lemma'
p6427
S'the'
p6428
sS'PartOfSpeech'
p6429
S'DT'
p6430
sS'CharacterOffsetBegin'
p6431
S'1682'
p6432
stp6433
a(S'3-foot'
p6434
(dp6435
S'NamedEntityTag'
p6436
g109
sS'CharacterOffsetEnd'
p6437
S'1692'
p6438
sS'Lemma'
p6439
S'3-foot'
p6440
sS'PartOfSpeech'
p6441
S'JJ'
p6442
sS'CharacterOffsetBegin'
p6443
S'1686'
p6444
stp6445
a(S'strip'
p6446
(dp6447
S'NamedEntityTag'
p6448
g109
sS'CharacterOffsetEnd'
p6449
S'1698'
p6450
sS'Lemma'
p6451
S'strip'
p6452
sS'PartOfSpeech'
p6453
S'NN'
p6454
sS'CharacterOffsetBegin'
p6455
S'1693'
p6456
stp6457
a(S'might'
p6458
(dp6459
S'NamedEntityTag'
p6460
g109
sS'CharacterOffsetEnd'
p6461
S'1704'
p6462
sS'Lemma'
p6463
S'might'
p6464
sS'PartOfSpeech'
p6465
S'MD'
p6466
sS'CharacterOffsetBegin'
p6467
S'1699'
p6468
stp6469
a(S'pop'
p6470
(dp6471
S'NamedEntityTag'
p6472
g109
sS'CharacterOffsetEnd'
p6473
S'1708'
p6474
sS'Lemma'
p6475
S'pop'
p6476
sS'PartOfSpeech'
p6477
S'VB'
p6478
sS'CharacterOffsetBegin'
p6479
S'1705'
p6480
stp6481
a(S'open'
p6482
(dp6483
S'NamedEntityTag'
p6484
g109
sS'CharacterOffsetEnd'
p6485
S'1713'
p6486
sS'Lemma'
p6487
S'open'
p6488
sS'PartOfSpeech'
p6489
S'JJ'
p6490
sS'CharacterOffsetBegin'
p6491
S'1709'
p6492
stp6493
a(S'with'
p6494
(dp6495
S'NamedEntityTag'
p6496
g109
sS'CharacterOffsetEnd'
p6497
S'1718'
p6498
sS'Lemma'
p6499
S'with'
p6500
sS'PartOfSpeech'
p6501
S'IN'
p6502
sS'CharacterOffsetBegin'
p6503
S'1714'
p6504
stp6505
a(S'enough'
p6506
(dp6507
S'NamedEntityTag'
p6508
g109
sS'CharacterOffsetEnd'
p6509
S'1725'
p6510
sS'Lemma'
p6511
S'enough'
p6512
sS'PartOfSpeech'
p6513
S'JJ'
p6514
sS'CharacterOffsetBegin'
p6515
S'1719'
p6516
stp6517
a(S'force'
p6518
(dp6519
S'NamedEntityTag'
p6520
g109
sS'CharacterOffsetEnd'
p6521
S'1731'
p6522
sS'Lemma'
p6523
S'force'
p6524
sS'PartOfSpeech'
p6525
S'NN'
p6526
sS'CharacterOffsetBegin'
p6527
S'1726'
p6528
stp6529
a(S'to'
p6530
(dp6531
S'NamedEntityTag'
p6532
g109
sS'CharacterOffsetEnd'
p6533
S'1734'
p6534
sS'Lemma'
p6535
S'to'
p6536
sS'PartOfSpeech'
p6537
S'TO'
p6538
sS'CharacterOffsetBegin'
p6539
S'1732'
p6540
stp6541
a(S'hurt'
p6542
(dp6543
S'NamedEntityTag'
p6544
g109
sS'CharacterOffsetEnd'
p6545
S'1739'
p6546
sS'Lemma'
p6547
S'hurt'
p6548
sS'PartOfSpeech'
p6549
S'VB'
p6550
sS'CharacterOffsetBegin'
p6551
S'1735'
p6552
stp6553
a(S'him'
p6554
(dp6555
S'NamedEntityTag'
p6556
g109
sS'CharacterOffsetEnd'
p6557
S'1743'
p6558
sS'Lemma'
p6559
S'he'
p6560
sS'PartOfSpeech'
p6561
S'PRP'
p6562
sS'CharacterOffsetBegin'
p6563
S'1740'
p6564
stp6565
a(S'if'
p6566
(dp6567
S'NamedEntityTag'
p6568
g109
sS'CharacterOffsetEnd'
p6569
S'1746'
p6570
sS'Lemma'
p6571
S'if'
p6572
sS'PartOfSpeech'
p6573
S'IN'
p6574
sS'CharacterOffsetBegin'
p6575
S'1744'
p6576
stp6577
a(S'he'
p6578
(dp6579
S'NamedEntityTag'
p6580
g109
sS'CharacterOffsetEnd'
p6581
S'1749'
p6582
sS'Lemma'
p6583
S'he'
p6584
sS'PartOfSpeech'
p6585
S'PRP'
p6586
sS'CharacterOffsetBegin'
p6587
S'1747'
p6588
stp6589
a(S'got'
p6590
(dp6591
S'NamedEntityTag'
p6592
g109
sS'CharacterOffsetEnd'
p6593
S'1753'
p6594
sS'Lemma'
p6595
S'get'
p6596
sS'PartOfSpeech'
p6597
S'VBD'
p6598
sS'CharacterOffsetBegin'
p6599
S'1750'
p6600
stp6601
a(S'too'
p6602
(dp6603
S'NamedEntityTag'
p6604
g109
sS'CharacterOffsetEnd'
p6605
S'1757'
p6606
sS'Lemma'
p6607
S'too'
p6608
sS'PartOfSpeech'
p6609
S'RB'
p6610
sS'CharacterOffsetBegin'
p6611
S'1754'
p6612
stp6613
a(S'close'
p6614
(dp6615
S'NamedEntityTag'
p6616
g109
sS'CharacterOffsetEnd'
p6617
S'1763'
p6618
sS'Lemma'
p6619
S'close'
p6620
sS'PartOfSpeech'
p6621
S'RB'
p6622
sS'CharacterOffsetBegin'
p6623
S'1758'
p6624
stp6625
a(g254
(dp6626
S'NamedEntityTag'
p6627
g109
sS'CharacterOffsetEnd'
p6628
S'1764'
p6629
sS'Lemma'
p6630
g254
sS'PartOfSpeech'
p6631
g254
sS'CharacterOffsetBegin'
p6632
S'1763'
p6633
stp6634
asa(dp6635
g7
S'(ROOT (S (NP (NNP Newman)) (VP (VBD had) (NP (NP (DT a) (JJ 10-foot) (NN grappling) (NN hook)) (PP (IN for) (NP (DT the) (NN job))))) (. .)))'
p6636
sg9
S'Newman had a 10-foot grappling hook for the job.'
p6637
sg11
(lp6638
(S'root'
p6639
S'ROOT'
p6640
S'had'
p6641
tp6642
a(S'nsubj'
p6643
S'had'
p6644
S'Newman'
p6645
tp6646
a(S'det'
p6647
S'hook'
p6648
g2665
tp6649
a(S'amod'
p6650
S'hook'
p6651
S'10-foot'
p6652
tp6653
a(S'nn'
p6654
S'hook'
p6655
S'grappling'
p6656
tp6657
a(S'dobj'
p6658
S'had'
p6659
S'hook'
p6660
tp6661
a(S'det'
p6662
S'job'
p6663
S'the'
p6664
tp6665
a(S'prep_for'
p6666
S'hook'
p6667
S'job'
p6668
tp6669
asg57
(lp6670
(g6639
S'ROOT-0'
p6671
S'had-2'
p6672
tp6673
a(g6643
S'had-2'
p6674
S'Newman-1'
p6675
tp6676
a(g6647
S'hook-6'
p6677
S'a-3'
p6678
tp6679
a(g6650
S'hook-6'
p6680
S'10-foot-4'
p6681
tp6682
a(g6654
S'hook-6'
p6683
S'grappling-5'
p6684
tp6685
a(g6658
S'had-2'
p6686
S'hook-6'
p6687
tp6688
a(g6662
S'job-9'
p6689
S'the-8'
p6690
tp6691
a(g6666
S'hook-6'
p6692
S'job-9'
p6693
tp6694
asg92
(lp6695
(S'Newman'
p6696
(dp6697
S'NamedEntityTag'
p6698
S'PERSON'
p6699
sS'CharacterOffsetEnd'
p6700
S'1771'
p6701
sS'Lemma'
p6702
S'Newman'
p6703
sS'PartOfSpeech'
p6704
S'NNP'
p6705
sS'CharacterOffsetBegin'
p6706
S'1765'
p6707
stp6708
a(S'had'
p6709
(dp6710
S'NamedEntityTag'
p6711
g109
sS'CharacterOffsetEnd'
p6712
S'1775'
p6713
sS'Lemma'
p6714
S'have'
p6715
sS'PartOfSpeech'
p6716
S'VBD'
p6717
sS'CharacterOffsetBegin'
p6718
S'1772'
p6719
stp6720
a(g2665
(dp6721
S'NamedEntityTag'
p6722
g109
sS'CharacterOffsetEnd'
p6723
S'1777'
p6724
sS'Lemma'
p6725
g2665
sS'PartOfSpeech'
p6726
S'DT'
p6727
sS'CharacterOffsetBegin'
p6728
S'1776'
p6729
stp6730
a(S'10-foot'
p6731
(dp6732
S'NamedEntityTag'
p6733
g109
sS'CharacterOffsetEnd'
p6734
S'1785'
p6735
sS'Lemma'
p6736
S'10-foot'
p6737
sS'PartOfSpeech'
p6738
S'JJ'
p6739
sS'CharacterOffsetBegin'
p6740
S'1778'
p6741
stp6742
a(S'grappling'
p6743
(dp6744
S'NamedEntityTag'
p6745
g109
sS'CharacterOffsetEnd'
p6746
S'1795'
p6747
sS'Lemma'
p6748
S'grappling'
p6749
sS'PartOfSpeech'
p6750
S'NN'
p6751
sS'CharacterOffsetBegin'
p6752
S'1786'
p6753
stp6754
a(S'hook'
p6755
(dp6756
S'NamedEntityTag'
p6757
g109
sS'CharacterOffsetEnd'
p6758
S'1800'
p6759
sS'Lemma'
p6760
S'hook'
p6761
sS'PartOfSpeech'
p6762
S'NN'
p6763
sS'CharacterOffsetBegin'
p6764
S'1796'
p6765
stp6766
a(S'for'
p6767
(dp6768
S'NamedEntityTag'
p6769
g109
sS'CharacterOffsetEnd'
p6770
S'1804'
p6771
sS'Lemma'
p6772
S'for'
p6773
sS'PartOfSpeech'
p6774
S'IN'
p6775
sS'CharacterOffsetBegin'
p6776
S'1801'
p6777
stp6778
a(S'the'
p6779
(dp6780
S'NamedEntityTag'
p6781
g109
sS'CharacterOffsetEnd'
p6782
S'1808'
p6783
sS'Lemma'
p6784
S'the'
p6785
sS'PartOfSpeech'
p6786
S'DT'
p6787
sS'CharacterOffsetBegin'
p6788
S'1805'
p6789
stp6790
a(S'job'
p6791
(dp6792
S'NamedEntityTag'
p6793
g109
sS'CharacterOffsetEnd'
p6794
S'1812'
p6795
sS'Lemma'
p6796
S'job'
p6797
sS'PartOfSpeech'
p6798
S'NN'
p6799
sS'CharacterOffsetBegin'
p6800
S'1809'
p6801
stp6802
a(g254
(dp6803
S'NamedEntityTag'
p6804
g109
sS'CharacterOffsetEnd'
p6805
S'1813'
p6806
sS'Lemma'
p6807
g254
sS'PartOfSpeech'
p6808
g254
sS'CharacterOffsetBegin'
p6809
S'1812'
p6810
stp6811
asa(dp6812
g7
S'(ROOT (S (NP (DT The) (NN antenna)) (VP (VBZ is) (NP (NP (CD one)) (PP (IN of) (NP (CD two))) (SBAR (WHNP (WDT that)) (S (VP (VBD failed) (S (VP (TO to) (VP (VB open) (ADVP (RB properly)) (PP (VBG following) (NP (NNP Zaryas)))))) (NP-TMP (NNP Nov) (CD 20)) (NP (NN launch)) (PP (IN from) (NP (NNP Kazakstan)))))))) (. .)))'
p6813
sg9
S'The antenna is one of two that failed to open properly following Zaryas Nov 20 launch from Kazakstan.'
p6814
sg11
(lp6815
(S'root'
p6816
S'ROOT'
p6817
S'one'
p6818
tp6819
a(S'det'
p6820
S'antenna'
p6821
S'The'
p6822
tp6823
a(S'nsubj'
p6824
S'one'
p6825
S'antenna'
p6826
tp6827
a(S'cop'
p6828
S'one'
p6829
S'is'
p6830
tp6831
a(S'prep_of'
p6832
S'one'
p6833
S'two'
p6834
tp6835
a(S'nsubj'
p6836
S'failed'
p6837
S'that'
p6838
tp6839
a(S'rcmod'
p6840
S'one'
p6841
S'failed'
p6842
tp6843
a(S'aux'
p6844
S'open'
p6845
S'to'
p6846
tp6847
a(S'xcomp'
p6848
S'failed'
p6849
S'open'
p6850
tp6851
a(S'advmod'
p6852
S'open'
p6853
S'properly'
p6854
tp6855
a(S'prep_following'
p6856
S'open'
p6857
S'Zaryas'
p6858
tp6859
a(S'tmod'
p6860
S'failed'
p6861
S'Nov'
p6862
tp6863
a(S'num'
p6864
S'Nov'
p6865
S'20'
p6866
tp6867
a(S'dobj'
p6868
S'failed'
p6869
S'launch'
p6870
tp6871
a(S'prep_from'
p6872
S'failed'
p6873
S'Kazakstan'
p6874
tp6875
asg57
(lp6876
(g6816
S'ROOT-0'
p6877
S'one-4'
p6878
tp6879
a(g6820
S'antenna-2'
p6880
S'The-1'
p6881
tp6882
a(g6824
S'one-4'
p6883
S'antenna-2'
p6884
tp6885
a(g6828
S'one-4'
p6886
S'is-3'
p6887
tp6888
a(g6832
S'one-4'
p6889
S'two-6'
p6890
tp6891
a(g6836
S'failed-8'
p6892
S'that-7'
p6893
tp6894
a(g6840
S'one-4'
p6895
S'failed-8'
p6896
tp6897
a(g6844
S'open-10'
p6898
S'to-9'
p6899
tp6900
a(g6848
S'failed-8'
p6901
S'open-10'
p6902
tp6903
a(g6852
S'open-10'
p6904
S'properly-11'
p6905
tp6906
a(g6856
S'open-10'
p6907
S'Zaryas-13'
p6908
tp6909
a(g6860
S'failed-8'
p6910
S'Nov-14'
p6911
tp6912
a(g6864
S'Nov-14'
p6913
S'20-15'
p6914
tp6915
a(g6868
S'failed-8'
p6916
S'launch-16'
p6917
tp6918
a(g6872
S'failed-8'
p6919
S'Kazakstan-18'
p6920
tp6921
asg92
(lp6922
(S'The'
p6923
(dp6924
S'NamedEntityTag'
p6925
g109
sS'CharacterOffsetEnd'
p6926
S'1817'
p6927
sS'Lemma'
p6928
S'the'
p6929
sS'PartOfSpeech'
p6930
S'DT'
p6931
sS'CharacterOffsetBegin'
p6932
S'1814'
p6933
stp6934
a(S'antenna'
p6935
(dp6936
S'NamedEntityTag'
p6937
g109
sS'CharacterOffsetEnd'
p6938
S'1825'
p6939
sS'Lemma'
p6940
S'antenna'
p6941
sS'PartOfSpeech'
p6942
S'NN'
p6943
sS'CharacterOffsetBegin'
p6944
S'1818'
p6945
stp6946
a(S'is'
p6947
(dp6948
S'NamedEntityTag'
p6949
g109
sS'CharacterOffsetEnd'
p6950
S'1828'
p6951
sS'Lemma'
p6952
S'be'
p6953
sS'PartOfSpeech'
p6954
S'VBZ'
p6955
sS'CharacterOffsetBegin'
p6956
S'1826'
p6957
stp6958
a(S'one'
p6959
(dp6960
S'NormalizedNamedEntityTag'
p6961
S'T01:59'
p6962
sS'Timex'
p6963
S'<TIMEX3 tid="t8" type="TIME" value="T01:59">one of two</TIMEX3>'
p6964
sS'Lemma'
p6965
S'one'
p6966
sS'CharacterOffsetEnd'
p6967
S'1832'
p6968
sS'PartOfSpeech'
p6969
S'CD'
p6970
sS'CharacterOffsetBegin'
p6971
S'1829'
p6972
sS'NamedEntityTag'
p6973
S'TIME'
p6974
stp6975
a(S'of'
p6976
(dp6977
S'NormalizedNamedEntityTag'
p6978
S'T01:59'
p6979
sS'Timex'
p6980
S'<TIMEX3 tid="t8" type="TIME" value="T01:59">one of two</TIMEX3>'
p6981
sS'Lemma'
p6982
S'of'
p6983
sS'CharacterOffsetEnd'
p6984
S'1835'
p6985
sS'PartOfSpeech'
p6986
S'IN'
p6987
sS'CharacterOffsetBegin'
p6988
S'1833'
p6989
sS'NamedEntityTag'
p6990
S'TIME'
p6991
stp6992
a(S'two'
p6993
(dp6994
S'NormalizedNamedEntityTag'
p6995
S'T01:59'
p6996
sS'Timex'
p6997
S'<TIMEX3 tid="t8" type="TIME" value="T01:59">one of two</TIMEX3>'
p6998
sS'Lemma'
p6999
S'two'
p7000
sS'CharacterOffsetEnd'
p7001
S'1839'
p7002
sS'PartOfSpeech'
p7003
S'CD'
p7004
sS'CharacterOffsetBegin'
p7005
S'1836'
p7006
sS'NamedEntityTag'
p7007
S'TIME'
p7008
stp7009
a(S'that'
p7010
(dp7011
S'NamedEntityTag'
p7012
g109
sS'CharacterOffsetEnd'
p7013
S'1844'
p7014
sS'Lemma'
p7015
S'that'
p7016
sS'PartOfSpeech'
p7017
S'WDT'
p7018
sS'CharacterOffsetBegin'
p7019
S'1840'
p7020
stp7021
a(S'failed'
p7022
(dp7023
S'NamedEntityTag'
p7024
g109
sS'CharacterOffsetEnd'
p7025
S'1851'
p7026
sS'Lemma'
p7027
S'fail'
p7028
sS'PartOfSpeech'
p7029
S'VBD'
p7030
sS'CharacterOffsetBegin'
p7031
S'1845'
p7032
stp7033
a(S'to'
p7034
(dp7035
S'NamedEntityTag'
p7036
g109
sS'CharacterOffsetEnd'
p7037
S'1854'
p7038
sS'Lemma'
p7039
S'to'
p7040
sS'PartOfSpeech'
p7041
S'TO'
p7042
sS'CharacterOffsetBegin'
p7043
S'1852'
p7044
stp7045
a(S'open'
p7046
(dp7047
S'NamedEntityTag'
p7048
g109
sS'CharacterOffsetEnd'
p7049
S'1859'
p7050
sS'Lemma'
p7051
S'open'
p7052
sS'PartOfSpeech'
p7053
S'VB'
p7054
sS'CharacterOffsetBegin'
p7055
S'1855'
p7056
stp7057
a(S'properly'
p7058
(dp7059
S'NamedEntityTag'
p7060
g109
sS'CharacterOffsetEnd'
p7061
S'1868'
p7062
sS'Lemma'
p7063
S'properly'
p7064
sS'PartOfSpeech'
p7065
S'RB'
p7066
sS'CharacterOffsetBegin'
p7067
S'1860'
p7068
stp7069
a(S'following'
p7070
(dp7071
S'NamedEntityTag'
p7072
g109
sS'CharacterOffsetEnd'
p7073
S'1878'
p7074
sS'Lemma'
p7075
S'follow'
p7076
sS'PartOfSpeech'
p7077
S'VBG'
p7078
sS'CharacterOffsetBegin'
p7079
S'1869'
p7080
stp7081
a(S'Zaryas'
p7082
(dp7083
S'NamedEntityTag'
p7084
g109
sS'CharacterOffsetEnd'
p7085
S'1885'
p7086
sS'Lemma'
p7087
S'Zaryas'
p7088
sS'PartOfSpeech'
p7089
S'NNP'
p7090
sS'CharacterOffsetBegin'
p7091
S'1879'
p7092
stp7093
a(S'Nov'
p7094
(dp7095
S'NormalizedNamedEntityTag'
p7096
S'XXXX-11-20'
p7097
sS'Timex'
p7098
S'<TIMEX3 tid="t9" type="DATE" value="XXXX-11-20">Nov 20</TIMEX3>'
p7099
sS'Lemma'
p7100
S'Nov'
p7101
sS'CharacterOffsetEnd'
p7102
S'1889'
p7103
sS'PartOfSpeech'
p7104
S'NNP'
p7105
sS'CharacterOffsetBegin'
p7106
S'1886'
p7107
sS'NamedEntityTag'
p7108
S'DATE'
p7109
stp7110
a(S'20'
p7111
(dp7112
S'NormalizedNamedEntityTag'
p7113
S'XXXX-11-20'
p7114
sS'Timex'
p7115
S'<TIMEX3 tid="t9" type="DATE" value="XXXX-11-20">Nov 20</TIMEX3>'
p7116
sS'Lemma'
p7117
S'20'
p7118
sS'CharacterOffsetEnd'
p7119
S'1892'
p7120
sS'PartOfSpeech'
p7121
S'CD'
p7122
sS'CharacterOffsetBegin'
p7123
S'1890'
p7124
sS'NamedEntityTag'
p7125
S'DATE'
p7126
stp7127
a(S'launch'
p7128
(dp7129
S'NamedEntityTag'
p7130
g109
sS'CharacterOffsetEnd'
p7131
S'1899'
p7132
sS'Lemma'
p7133
S'launch'
p7134
sS'PartOfSpeech'
p7135
S'NN'
p7136
sS'CharacterOffsetBegin'
p7137
S'1893'
p7138
stp7139
a(S'from'
p7140
(dp7141
S'NamedEntityTag'
p7142
g109
sS'CharacterOffsetEnd'
p7143
S'1904'
p7144
sS'Lemma'
p7145
S'from'
p7146
sS'PartOfSpeech'
p7147
S'IN'
p7148
sS'CharacterOffsetBegin'
p7149
S'1900'
p7150
stp7151
a(S'Kazakstan'
p7152
(dp7153
S'NamedEntityTag'
p7154
S'LOCATION'
p7155
sS'CharacterOffsetEnd'
p7156
S'1914'
p7157
sS'Lemma'
p7158
S'Kazakstan'
p7159
sS'PartOfSpeech'
p7160
S'NNP'
p7161
sS'CharacterOffsetBegin'
p7162
S'1905'
p7163
stp7164
a(g254
(dp7165
S'NamedEntityTag'
p7166
g109
sS'CharacterOffsetEnd'
p7167
S'1915'
p7168
sS'Lemma'
p7169
g254
sS'PartOfSpeech'
p7170
g254
sS'CharacterOffsetBegin'
p7171
S'1914'
p7172
stp7173
asa(dp7174
g7
S'(ROOT (S (S (NP (NP (CD One)) (NP (JJR more) (NN spacewalk))) (VP (VBZ is) (VP (VBN planned) (PP (IN for) (NP (NNP Endeavours) (JJ 12-day) (NN mission)))))) (: :) (S (PP (IN On) (NP (NNP Saturday))) (, ,) (NP (NNP Ross) (CC and) (NNP Newman)) (VP (MD will) (VP (VP (VB conduct) (NP (DT a) (NN photo) (NN survey))) (CC and) (VP (VB take) (PRT (RP out)) (NP (NP (DT a) (NN sack)) (PP (IN of) (NP (NP (NNS tools)) (SBAR (WHNP (WDT that)) (S (VP (MD will) (VP (VB be) (VP (VBN used) (PP (IN by) (NP (JJ future) (NN station) (NNS visitors))))))))))))))) (. .)))'
p7175
sg9
S'One more spacewalk is planned for Endeavours 12-day mission: On Saturday, Ross and Newman will conduct a photo survey and take out a sack of tools that will be used by future station visitors.'
p7176
sg11
(lp7177
(S'root'
p7178
S'ROOT'
p7179
S'planned'
p7180
tp7181
a(S'nsubjpass'
p7182
S'planned'
p7183
S'One'
p7184
tp7185
a(S'amod'
p7186
S'spacewalk'
p7187
S'more'
p7188
tp7189
a(S'dep'
p7190
S'One'
p7191
S'spacewalk'
p7192
tp7193
a(S'auxpass'
p7194
S'planned'
p7195
S'is'
p7196
tp7197
a(S'nn'
p7198
S'mission'
p7199
S'Endeavours'
p7200
tp7201
a(S'amod'
p7202
S'mission'
p7203
S'12-day'
p7204
tp7205
a(S'prep_for'
p7206
S'planned'
p7207
S'mission'
p7208
tp7209
a(S'prep_on'
p7210
S'conduct'
p7211
S'Saturday'
p7212
tp7213
a(S'nsubj'
p7214
S'conduct'
p7215
S'Ross'
p7216
tp7217
a(S'conj_and'
p7218
S'Ross'
p7219
S'Newman'
p7220
tp7221
a(S'aux'
p7222
S'conduct'
p7223
S'will'
p7224
tp7225
a(S'parataxis'
p7226
S'planned'
p7227
S'conduct'
p7228
tp7229
a(S'det'
p7230
S'survey'
p7231
g2665
tp7232
a(S'nn'
p7233
S'survey'
p7234
S'photo'
p7235
tp7236
a(S'dobj'
p7237
S'conduct'
p7238
S'survey'
p7239
tp7240
a(S'conj_and'
p7241
S'conduct'
p7242
S'take'
p7243
tp7244
a(S'prt'
p7245
S'take'
p7246
S'out'
p7247
tp7248
a(S'det'
p7249
S'sack'
p7250
g2665
tp7251
a(S'dobj'
p7252
S'take'
p7253
S'sack'
p7254
tp7255
a(S'prep_of'
p7256
S'sack'
p7257
S'tools'
p7258
tp7259
a(S'nsubjpass'
p7260
S'used'
p7261
S'that'
p7262
tp7263
a(S'aux'
p7264
S'used'
p7265
S'will'
p7266
tp7267
a(S'auxpass'
p7268
S'used'
p7269
S'be'
p7270
tp7271
a(S'rcmod'
p7272
S'tools'
p7273
S'used'
p7274
tp7275
a(S'amod'
p7276
S'visitors'
p7277
S'future'
p7278
tp7279
a(S'nn'
p7280
S'visitors'
p7281
S'station'
p7282
tp7283
a(S'agent'
p7284
S'used'
p7285
S'visitors'
p7286
tp7287
asg57
(lp7288
(g7178
S'ROOT-0'
p7289
S'planned-5'
p7290
tp7291
a(g7182
S'planned-5'
p7292
S'One-1'
p7293
tp7294
a(g7186
S'spacewalk-3'
p7295
S'more-2'
p7296
tp7297
a(g7190
S'One-1'
p7298
S'spacewalk-3'
p7299
tp7300
a(g7194
S'planned-5'
p7301
S'is-4'
p7302
tp7303
a(g7198
S'mission-9'
p7304
S'Endeavours-7'
p7305
tp7306
a(g7202
S'mission-9'
p7307
S'12-day-8'
p7308
tp7309
a(g7206
S'planned-5'
p7310
S'mission-9'
p7311
tp7312
a(g7210
S'conduct-18'
p7313
S'Saturday-12'
p7314
tp7315
a(g7214
S'conduct-18'
p7316
S'Ross-14'
p7317
tp7318
a(g7218
S'Ross-14'
p7319
S'Newman-16'
p7320
tp7321
a(g7222
S'conduct-18'
p7322
S'will-17'
p7323
tp7324
a(g7226
S'planned-5'
p7325
S'conduct-18'
p7326
tp7327
a(g7230
S'survey-21'
p7328
S'a-19'
p7329
tp7330
a(g7233
S'survey-21'
p7331
S'photo-20'
p7332
tp7333
a(g7237
S'conduct-18'
p7334
S'survey-21'
p7335
tp7336
a(g7241
S'conduct-18'
p7337
S'take-23'
p7338
tp7339
a(g7245
S'take-23'
p7340
S'out-24'
p7341
tp7342
a(g7249
S'sack-26'
p7343
S'a-25'
p7344
tp7345
a(g7252
S'take-23'
p7346
S'sack-26'
p7347
tp7348
a(g7256
S'sack-26'
p7349
S'tools-28'
p7350
tp7351
a(g7260
S'used-32'
p7352
S'that-29'
p7353
tp7354
a(g7264
S'used-32'
p7355
S'will-30'
p7356
tp7357
a(g7268
S'used-32'
p7358
S'be-31'
p7359
tp7360
a(g7272
S'tools-28'
p7361
S'used-32'
p7362
tp7363
a(g7276
S'visitors-36'
p7364
S'future-34'
p7365
tp7366
a(g7280
S'visitors-36'
p7367
S'station-35'
p7368
tp7369
a(g7284
S'used-32'
p7370
S'visitors-36'
p7371
tp7372
asg92
(lp7373
(S'One'
p7374
(dp7375
S'NormalizedNamedEntityTag'
p7376
S'1.0'
p7377
sS'Lemma'
p7378
S'one'
p7379
sS'CharacterOffsetEnd'
p7380
S'1919'
p7381
sS'PartOfSpeech'
p7382
S'CD'
p7383
sS'CharacterOffsetBegin'
p7384
S'1916'
p7385
sS'NamedEntityTag'
p7386
S'NUMBER'
p7387
stp7388
a(S'more'
p7389
(dp7390
S'NamedEntityTag'
p7391
g109
sS'CharacterOffsetEnd'
p7392
S'1924'
p7393
sS'Lemma'
p7394
S'more'
p7395
sS'PartOfSpeech'
p7396
S'JJR'
p7397
sS'CharacterOffsetBegin'
p7398
S'1920'
p7399
stp7400
a(S'spacewalk'
p7401
(dp7402
S'NamedEntityTag'
p7403
g109
sS'CharacterOffsetEnd'
p7404
S'1934'
p7405
sS'Lemma'
p7406
S'spacewalk'
p7407
sS'PartOfSpeech'
p7408
S'NN'
p7409
sS'CharacterOffsetBegin'
p7410
S'1925'
p7411
stp7412
a(S'is'
p7413
(dp7414
S'NamedEntityTag'
p7415
g109
sS'CharacterOffsetEnd'
p7416
S'1937'
p7417
sS'Lemma'
p7418
S'be'
p7419
sS'PartOfSpeech'
p7420
S'VBZ'
p7421
sS'CharacterOffsetBegin'
p7422
S'1935'
p7423
stp7424
a(S'planned'
p7425
(dp7426
S'NamedEntityTag'
p7427
g109
sS'CharacterOffsetEnd'
p7428
S'1945'
p7429
sS'Lemma'
p7430
S'plan'
p7431
sS'PartOfSpeech'
p7432
S'VBN'
p7433
sS'CharacterOffsetBegin'
p7434
S'1938'
p7435
stp7436
a(S'for'
p7437
(dp7438
S'NamedEntityTag'
p7439
g109
sS'CharacterOffsetEnd'
p7440
S'1949'
p7441
sS'Lemma'
p7442
S'for'
p7443
sS'PartOfSpeech'
p7444
S'IN'
p7445
sS'CharacterOffsetBegin'
p7446
S'1946'
p7447
stp7448
a(S'Endeavours'
p7449
(dp7450
S'NamedEntityTag'
p7451
g109
sS'CharacterOffsetEnd'
p7452
S'1960'
p7453
sS'Lemma'
p7454
S'Endeavours'
p7455
sS'PartOfSpeech'
p7456
S'NNP'
p7457
sS'CharacterOffsetBegin'
p7458
S'1950'
p7459
stp7460
a(S'12-day'
p7461
(dp7462
S'NormalizedNamedEntityTag'
p7463
S'P12D'
p7464
sS'Timex'
p7465
S'<TIMEX3 tid="t10" type="DURATION" value="P12D">12-day</TIMEX3>'
p7466
sS'Lemma'
p7467
S'12-day'
p7468
sS'CharacterOffsetEnd'
p7469
S'1967'
p7470
sS'PartOfSpeech'
p7471
S'JJ'
p7472
sS'CharacterOffsetBegin'
p7473
S'1961'
p7474
sS'NamedEntityTag'
p7475
S'DURATION'
p7476
stp7477
a(S'mission'
p7478
(dp7479
S'NamedEntityTag'
p7480
g109
sS'CharacterOffsetEnd'
p7481
S'1975'
p7482
sS'Lemma'
p7483
S'mission'
p7484
sS'PartOfSpeech'
p7485
S'NN'
p7486
sS'CharacterOffsetBegin'
p7487
S'1968'
p7488
stp7489
a(g2853
(dp7490
S'NamedEntityTag'
p7491
g109
sS'CharacterOffsetEnd'
p7492
S'1976'
p7493
sS'Lemma'
p7494
g2853
sS'PartOfSpeech'
p7495
g2853
sS'CharacterOffsetBegin'
p7496
S'1975'
p7497
stp7498
a(S'On'
p7499
(dp7500
S'NamedEntityTag'
p7501
g109
sS'CharacterOffsetEnd'
p7502
S'1979'
p7503
sS'Lemma'
p7504
S'on'
p7505
sS'PartOfSpeech'
p7506
S'IN'
p7507
sS'CharacterOffsetBegin'
p7508
S'1977'
p7509
stp7510
a(S'Saturday'
p7511
(dp7512
S'NormalizedNamedEntityTag'
p7513
S'XXXX-WXX-6'
p7514
sS'Timex'
p7515
S'<TIMEX3 tid="t11" type="DATE" value="XXXX-WXX-6">Saturday</TIMEX3>'
p7516
sS'Lemma'
p7517
S'Saturday'
p7518
sS'CharacterOffsetEnd'
p7519
S'1988'
p7520
sS'PartOfSpeech'
p7521
S'NNP'
p7522
sS'CharacterOffsetBegin'
p7523
S'1980'
p7524
sS'NamedEntityTag'
p7525
S'DATE'
p7526
stp7527
a(g347
(dp7528
S'NamedEntityTag'
p7529
g109
sS'CharacterOffsetEnd'
p7530
S'1989'
p7531
sS'Lemma'
p7532
g347
sS'PartOfSpeech'
p7533
g347
sS'CharacterOffsetBegin'
p7534
S'1988'
p7535
stp7536
a(S'Ross'
p7537
(dp7538
S'NamedEntityTag'
p7539
S'PERSON'
p7540
sS'CharacterOffsetEnd'
p7541
S'1994'
p7542
sS'Lemma'
p7543
S'Ross'
p7544
sS'PartOfSpeech'
p7545
S'NNP'
p7546
sS'CharacterOffsetBegin'
p7547
S'1990'
p7548
stp7549
a(S'and'
p7550
(dp7551
S'NamedEntityTag'
p7552
g109
sS'CharacterOffsetEnd'
p7553
S'1998'
p7554
sS'Lemma'
p7555
S'and'
p7556
sS'PartOfSpeech'
p7557
S'CC'
p7558
sS'CharacterOffsetBegin'
p7559
S'1995'
p7560
stp7561
a(S'Newman'
p7562
(dp7563
S'NamedEntityTag'
p7564
S'PERSON'
p7565
sS'CharacterOffsetEnd'
p7566
S'2005'
p7567
sS'Lemma'
p7568
S'Newman'
p7569
sS'PartOfSpeech'
p7570
S'NNP'
p7571
sS'CharacterOffsetBegin'
p7572
S'1999'
p7573
stp7574
a(S'will'
p7575
(dp7576
S'NamedEntityTag'
p7577
g109
sS'CharacterOffsetEnd'
p7578
S'2010'
p7579
sS'Lemma'
p7580
S'will'
p7581
sS'PartOfSpeech'
p7582
S'MD'
p7583
sS'CharacterOffsetBegin'
p7584
S'2006'
p7585
stp7586
a(S'conduct'
p7587
(dp7588
S'NamedEntityTag'
p7589
g109
sS'CharacterOffsetEnd'
p7590
S'2018'
p7591
sS'Lemma'
p7592
S'conduct'
p7593
sS'PartOfSpeech'
p7594
S'VB'
p7595
sS'CharacterOffsetBegin'
p7596
S'2011'
p7597
stp7598
a(g2665
(dp7599
S'NamedEntityTag'
p7600
g109
sS'CharacterOffsetEnd'
p7601
S'2020'
p7602
sS'Lemma'
p7603
g2665
sS'PartOfSpeech'
p7604
S'DT'
p7605
sS'CharacterOffsetBegin'
p7606
S'2019'
p7607
stp7608
a(S'photo'
p7609
(dp7610
S'NamedEntityTag'
p7611
g109
sS'CharacterOffsetEnd'
p7612
S'2026'
p7613
sS'Lemma'
p7614
S'photo'
p7615
sS'PartOfSpeech'
p7616
S'NN'
p7617
sS'CharacterOffsetBegin'
p7618
S'2021'
p7619
stp7620
a(S'survey'
p7621
(dp7622
S'NamedEntityTag'
p7623
g109
sS'CharacterOffsetEnd'
p7624
S'2033'
p7625
sS'Lemma'
p7626
S'survey'
p7627
sS'PartOfSpeech'
p7628
S'NN'
p7629
sS'CharacterOffsetBegin'
p7630
S'2027'
p7631
stp7632
a(S'and'
p7633
(dp7634
S'NamedEntityTag'
p7635
g109
sS'CharacterOffsetEnd'
p7636
S'2037'
p7637
sS'Lemma'
p7638
S'and'
p7639
sS'PartOfSpeech'
p7640
S'CC'
p7641
sS'CharacterOffsetBegin'
p7642
S'2034'
p7643
stp7644
a(S'take'
p7645
(dp7646
S'NamedEntityTag'
p7647
g109
sS'CharacterOffsetEnd'
p7648
S'2042'
p7649
sS'Lemma'
p7650
S'take'
p7651
sS'PartOfSpeech'
p7652
S'VB'
p7653
sS'CharacterOffsetBegin'
p7654
S'2038'
p7655
stp7656
a(S'out'
p7657
(dp7658
S'NamedEntityTag'
p7659
g109
sS'CharacterOffsetEnd'
p7660
S'2046'
p7661
sS'Lemma'
p7662
S'out'
p7663
sS'PartOfSpeech'
p7664
S'RP'
p7665
sS'CharacterOffsetBegin'
p7666
S'2043'
p7667
stp7668
a(g2665
(dp7669
S'NamedEntityTag'
p7670
g109
sS'CharacterOffsetEnd'
p7671
S'2048'
p7672
sS'Lemma'
p7673
g2665
sS'PartOfSpeech'
p7674
S'DT'
p7675
sS'CharacterOffsetBegin'
p7676
S'2047'
p7677
stp7678
a(S'sack'
p7679
(dp7680
S'NamedEntityTag'
p7681
g109
sS'CharacterOffsetEnd'
p7682
S'2053'
p7683
sS'Lemma'
p7684
S'sack'
p7685
sS'PartOfSpeech'
p7686
S'NN'
p7687
sS'CharacterOffsetBegin'
p7688
S'2049'
p7689
stp7690
a(S'of'
p7691
(dp7692
S'NamedEntityTag'
p7693
g109
sS'CharacterOffsetEnd'
p7694
S'2056'
p7695
sS'Lemma'
p7696
S'of'
p7697
sS'PartOfSpeech'
p7698
S'IN'
p7699
sS'CharacterOffsetBegin'
p7700
S'2054'
p7701
stp7702
a(S'tools'
p7703
(dp7704
S'NamedEntityTag'
p7705
g109
sS'CharacterOffsetEnd'
p7706
S'2062'
p7707
sS'Lemma'
p7708
S'tool'
p7709
sS'PartOfSpeech'
p7710
S'NNS'
p7711
sS'CharacterOffsetBegin'
p7712
S'2057'
p7713
stp7714
a(S'that'
p7715
(dp7716
S'NamedEntityTag'
p7717
g109
sS'CharacterOffsetEnd'
p7718
S'2067'
p7719
sS'Lemma'
p7720
S'that'
p7721
sS'PartOfSpeech'
p7722
S'WDT'
p7723
sS'CharacterOffsetBegin'
p7724
S'2063'
p7725
stp7726
a(S'will'
p7727
(dp7728
S'NamedEntityTag'
p7729
g109
sS'CharacterOffsetEnd'
p7730
S'2072'
p7731
sS'Lemma'
p7732
S'will'
p7733
sS'PartOfSpeech'
p7734
S'MD'
p7735
sS'CharacterOffsetBegin'
p7736
S'2068'
p7737
stp7738
a(S'be'
p7739
(dp7740
S'NamedEntityTag'
p7741
g109
sS'CharacterOffsetEnd'
p7742
S'2075'
p7743
sS'Lemma'
p7744
S'be'
p7745
sS'PartOfSpeech'
p7746
S'VB'
p7747
sS'CharacterOffsetBegin'
p7748
S'2073'
p7749
stp7750
a(S'used'
p7751
(dp7752
S'NamedEntityTag'
p7753
g109
sS'CharacterOffsetEnd'
p7754
S'2080'
p7755
sS'Lemma'
p7756
S'use'
p7757
sS'PartOfSpeech'
p7758
S'VBN'
p7759
sS'CharacterOffsetBegin'
p7760
S'2076'
p7761
stp7762
a(S'by'
p7763
(dp7764
S'NamedEntityTag'
p7765
g109
sS'CharacterOffsetEnd'
p7766
S'2083'
p7767
sS'Lemma'
p7768
S'by'
p7769
sS'PartOfSpeech'
p7770
S'IN'
p7771
sS'CharacterOffsetBegin'
p7772
S'2081'
p7773
stp7774
a(S'future'
p7775
(dp7776
S'NormalizedNamedEntityTag'
p7777
S'FUTURE_REF'
p7778
sS'Timex'
p7779
S'<TIMEX3 tid="t12" type="DATE" value="FUTURE_REF">future</TIMEX3>'
p7780
sS'Lemma'
p7781
S'future'
p7782
sS'CharacterOffsetEnd'
p7783
S'2090'
p7784
sS'PartOfSpeech'
p7785
S'JJ'
p7786
sS'CharacterOffsetBegin'
p7787
S'2084'
p7788
sS'NamedEntityTag'
p7789
S'DATE'
p7790
stp7791
a(S'station'
p7792
(dp7793
S'NamedEntityTag'
p7794
g109
sS'CharacterOffsetEnd'
p7795
S'2098'
p7796
sS'Lemma'
p7797
S'station'
p7798
sS'PartOfSpeech'
p7799
S'NN'
p7800
sS'CharacterOffsetBegin'
p7801
S'2091'
p7802
stp7803
a(S'visitors'
p7804
(dp7805
S'NamedEntityTag'
p7806
g109
sS'CharacterOffsetEnd'
p7807
S'2107'
p7808
sS'Lemma'
p7809
S'visitor'
p7810
sS'PartOfSpeech'
p7811
S'NNS'
p7812
sS'CharacterOffsetBegin'
p7813
S'2099'
p7814
stp7815
a(g254
(dp7816
S'NamedEntityTag'
p7817
g109
sS'CharacterOffsetEnd'
p7818
S'2108'
p7819
sS'Lemma'
p7820
g254
sS'PartOfSpeech'
p7821
g254
sS'CharacterOffsetBegin'
p7822
S'2107'
p7823
stp7824
asa(dp7825
g7
S'(ROOT (S (NP (NNP Newman)) (ADVP (RB also)) (VP (MD may) (VP (VB try) (S (VP (TO to) (VP (VB unjam) (NP (DT the) (JJ other) (NNP Zarya) (NN antenna))))))) (. .)))'
p7826
sg9
S'Newman also may try to unjam the other Zarya antenna.'
p7827
sg11
(lp7828
(S'root'
p7829
S'ROOT'
p7830
S'try'
p7831
tp7832
a(S'nsubj'
p7833
S'try'
p7834
S'Newman'
p7835
tp7836
a(S'advmod'
p7837
S'try'
p7838
S'also'
p7839
tp7840
a(S'aux'
p7841
S'try'
p7842
S'may'
p7843
tp7844
a(S'aux'
p7845
S'unjam'
p7846
S'to'
p7847
tp7848
a(S'xcomp'
p7849
S'try'
p7850
S'unjam'
p7851
tp7852
a(S'det'
p7853
S'antenna'
p7854
S'the'
p7855
tp7856
a(S'amod'
p7857
S'antenna'
p7858
S'other'
p7859
tp7860
a(S'nn'
p7861
S'antenna'
p7862
S'Zarya'
p7863
tp7864
a(S'dobj'
p7865
S'unjam'
p7866
S'antenna'
p7867
tp7868
asg57
(lp7869
(g7829
S'ROOT-0'
p7870
S'try-4'
p7871
tp7872
a(g7833
S'try-4'
p7873
S'Newman-1'
p7874
tp7875
a(g7837
S'try-4'
p7876
S'also-2'
p7877
tp7878
a(g7841
S'try-4'
p7879
S'may-3'
p7880
tp7881
a(g7845
S'unjam-6'
p7882
S'to-5'
p7883
tp7884
a(g7849
S'try-4'
p7885
S'unjam-6'
p7886
tp7887
a(g7853
S'antenna-10'
p7888
S'the-7'
p7889
tp7890
a(g7857
S'antenna-10'
p7891
S'other-8'
p7892
tp7893
a(g7861
S'antenna-10'
p7894
S'Zarya-9'
p7895
tp7896
a(g7865
S'unjam-6'
p7897
S'antenna-10'
p7898
tp7899
asg92
(lp7900
(S'Newman'
p7901
(dp7902
S'NamedEntityTag'
p7903
S'PERSON'
p7904
sS'CharacterOffsetEnd'
p7905
S'2115'
p7906
sS'Lemma'
p7907
S'Newman'
p7908
sS'PartOfSpeech'
p7909
S'NNP'
p7910
sS'CharacterOffsetBegin'
p7911
S'2109'
p7912
stp7913
a(S'also'
p7914
(dp7915
S'NamedEntityTag'
p7916
g109
sS'CharacterOffsetEnd'
p7917
S'2120'
p7918
sS'Lemma'
p7919
S'also'
p7920
sS'PartOfSpeech'
p7921
S'RB'
p7922
sS'CharacterOffsetBegin'
p7923
S'2116'
p7924
stp7925
a(S'may'
p7926
(dp7927
S'NamedEntityTag'
p7928
g109
sS'CharacterOffsetEnd'
p7929
S'2124'
p7930
sS'Lemma'
p7931
S'may'
p7932
sS'PartOfSpeech'
p7933
S'MD'
p7934
sS'CharacterOffsetBegin'
p7935
S'2121'
p7936
stp7937
a(S'try'
p7938
(dp7939
S'NamedEntityTag'
p7940
g109
sS'CharacterOffsetEnd'
p7941
S'2128'
p7942
sS'Lemma'
p7943
S'try'
p7944
sS'PartOfSpeech'
p7945
S'VB'
p7946
sS'CharacterOffsetBegin'
p7947
S'2125'
p7948
stp7949
a(S'to'
p7950
(dp7951
S'NamedEntityTag'
p7952
g109
sS'CharacterOffsetEnd'
p7953
S'2131'
p7954
sS'Lemma'
p7955
S'to'
p7956
sS'PartOfSpeech'
p7957
S'TO'
p7958
sS'CharacterOffsetBegin'
p7959
S'2129'
p7960
stp7961
a(S'unjam'
p7962
(dp7963
S'NamedEntityTag'
p7964
g109
sS'CharacterOffsetEnd'
p7965
S'2137'
p7966
sS'Lemma'
p7967
S'unjam'
p7968
sS'PartOfSpeech'
p7969
S'VB'
p7970
sS'CharacterOffsetBegin'
p7971
S'2132'
p7972
stp7973
a(S'the'
p7974
(dp7975
S'NamedEntityTag'
p7976
g109
sS'CharacterOffsetEnd'
p7977
S'2141'
p7978
sS'Lemma'
p7979
S'the'
p7980
sS'PartOfSpeech'
p7981
S'DT'
p7982
sS'CharacterOffsetBegin'
p7983
S'2138'
p7984
stp7985
a(S'other'
p7986
(dp7987
S'NamedEntityTag'
p7988
g109
sS'CharacterOffsetEnd'
p7989
S'2147'
p7990
sS'Lemma'
p7991
S'other'
p7992
sS'PartOfSpeech'
p7993
S'JJ'
p7994
sS'CharacterOffsetBegin'
p7995
S'2142'
p7996
stp7997
a(S'Zarya'
p7998
(dp7999
S'NamedEntityTag'
p8000
S'MISC'
p8001
sS'CharacterOffsetEnd'
p8002
S'2153'
p8003
sS'Lemma'
p8004
S'Zarya'
p8005
sS'PartOfSpeech'
p8006
S'NNP'
p8007
sS'CharacterOffsetBegin'
p8008
S'2148'
p8009
stp8010
a(S'antenna'
p8011
(dp8012
S'NamedEntityTag'
p8013
g109
sS'CharacterOffsetEnd'
p8014
S'2161'
p8015
sS'Lemma'
p8016
S'antenna'
p8017
sS'PartOfSpeech'
p8018
S'NN'
p8019
sS'CharacterOffsetBegin'
p8020
S'2154'
p8021
stp8022
a(g254
(dp8023
S'NamedEntityTag'
p8024
g109
sS'CharacterOffsetEnd'
p8025
S'2162'
p8026
sS'Lemma'
p8027
g254
sS'PartOfSpeech'
p8028
g254
sS'CharacterOffsetBegin'
p8029
S'2161'
p8030
stp8031
asa(dp8032
g7
S'(ROOT (S (NP (DT This)) (VP (VBD was) (NP (NP (NP (DT the) (JJ sixth) (NN spacewalk)) (PP (IN for) (NP (NP (NNP Ross)) (PP (IN during) (NP (PRP$ his) (JJ 18-year) (NNP NASA) (NN career)))))) (, ,) (NP (NP (DT the) (RBS most)) (PP (IN by) (NP (DT an) (JJ American)))) (, ,) (CC and) (NP (NP (DT the) (JJ third)) (PP (IN for) (NP (NNP Newman)))))) (. .)))'
p8033
sg9
S'This was the sixth spacewalk for Ross during his 18-year NASA career, the most by an American, and the third for Newman.'
p8034
sg11
(lp8035
(S'root'
p8036
S'ROOT'
p8037
S'spacewalk'
p8038
tp8039
a(S'nsubj'
p8040
S'spacewalk'
p8041
S'This'
p8042
tp8043
a(S'cop'
p8044
S'spacewalk'
p8045
S'was'
p8046
tp8047
a(S'det'
p8048
S'spacewalk'
p8049
S'the'
p8050
tp8051
a(S'amod'
p8052
S'spacewalk'
p8053
S'sixth'
p8054
tp8055
a(S'prep_for'
p8056
S'spacewalk'
p8057
S'Ross'
p8058
tp8059
a(S'poss'
p8060
S'career'
p8061
S'his'
p8062
tp8063
a(S'amod'
p8064
S'career'
p8065
S'18-year'
p8066
tp8067
a(S'nn'
p8068
S'career'
p8069
S'NASA'
p8070
tp8071
a(S'prep_during'
p8072
S'Ross'
p8073
S'career'
p8074
tp8075
a(S'conj_and'
p8076
S'spacewalk'
p8077
S'the'
p8078
tp8079
a(S'advmod'
p8080
S'the'
p8081
S'most'
p8082
tp8083
a(S'det'
p8084
S'American'
p8085
S'an'
p8086
tp8087
a(S'prep_by'
p8088
S'the'
p8089
S'American'
p8090
tp8091
a(S'det'
p8092
S'third'
p8093
S'the'
p8094
tp8095
a(S'conj_and'
p8096
S'spacewalk'
p8097
S'third'
p8098
tp8099
a(S'prep_for'
p8100
S'third'
p8101
S'Newman'
p8102
tp8103
asg57
(lp8104
(g8036
S'ROOT-0'
p8105
S'spacewalk-5'
p8106
tp8107
a(g8040
S'spacewalk-5'
p8108
S'This-1'
p8109
tp8110
a(g8044
S'spacewalk-5'
p8111
S'was-2'
p8112
tp8113
a(g8048
S'spacewalk-5'
p8114
S'the-3'
p8115
tp8116
a(g8052
S'spacewalk-5'
p8117
S'sixth-4'
p8118
tp8119
a(g8056
S'spacewalk-5'
p8120
S'Ross-7'
p8121
tp8122
a(g8060
S'career-12'
p8123
S'his-9'
p8124
tp8125
a(g8064
S'career-12'
p8126
S'18-year-10'
p8127
tp8128
a(g8068
S'career-12'
p8129
S'NASA-11'
p8130
tp8131
a(g8072
S'Ross-7'
p8132
S'career-12'
p8133
tp8134
a(g8076
S'spacewalk-5'
p8135
S'the-14'
p8136
tp8137
a(g8080
S'the-14'
p8138
S'most-15'
p8139
tp8140
a(g8084
S'American-18'
p8141
S'an-17'
p8142
tp8143
a(g8088
S'the-14'
p8144
S'American-18'
p8145
tp8146
a(g8092
S'third-22'
p8147
S'the-21'
p8148
tp8149
a(g8096
S'spacewalk-5'
p8150
S'third-22'
p8151
tp8152
a(g8100
S'third-22'
p8153
S'Newman-24'
p8154
tp8155
asg92
(lp8156
(S'This'
p8157
(dp8158
S'NamedEntityTag'
p8159
g109
sS'CharacterOffsetEnd'
p8160
S'2167'
p8161
sS'Lemma'
p8162
S'this'
p8163
sS'PartOfSpeech'
p8164
S'DT'
p8165
sS'CharacterOffsetBegin'
p8166
S'2163'
p8167
stp8168
a(S'was'
p8169
(dp8170
S'NamedEntityTag'
p8171
g109
sS'CharacterOffsetEnd'
p8172
S'2171'
p8173
sS'Lemma'
p8174
S'be'
p8175
sS'PartOfSpeech'
p8176
S'VBD'
p8177
sS'CharacterOffsetBegin'
p8178
S'2168'
p8179
stp8180
a(S'the'
p8181
(dp8182
S'NamedEntityTag'
p8183
g109
sS'CharacterOffsetEnd'
p8184
S'2175'
p8185
sS'Lemma'
p8186
S'the'
p8187
sS'PartOfSpeech'
p8188
S'DT'
p8189
sS'CharacterOffsetBegin'
p8190
S'2172'
p8191
stp8192
a(S'sixth'
p8193
(dp8194
S'NormalizedNamedEntityTag'
p8195
S'6.0'
p8196
sS'Lemma'
p8197
S'sixth'
p8198
sS'CharacterOffsetEnd'
p8199
S'2181'
p8200
sS'PartOfSpeech'
p8201
S'JJ'
p8202
sS'CharacterOffsetBegin'
p8203
S'2176'
p8204
sS'NamedEntityTag'
p8205
S'ORDINAL'
p8206
stp8207
a(S'spacewalk'
p8208
(dp8209
S'NamedEntityTag'
p8210
g109
sS'CharacterOffsetEnd'
p8211
S'2191'
p8212
sS'Lemma'
p8213
S'spacewalk'
p8214
sS'PartOfSpeech'
p8215
S'NN'
p8216
sS'CharacterOffsetBegin'
p8217
S'2182'
p8218
stp8219
a(S'for'
p8220
(dp8221
S'NamedEntityTag'
p8222
g109
sS'CharacterOffsetEnd'
p8223
S'2195'
p8224
sS'Lemma'
p8225
S'for'
p8226
sS'PartOfSpeech'
p8227
S'IN'
p8228
sS'CharacterOffsetBegin'
p8229
S'2192'
p8230
stp8231
a(S'Ross'
p8232
(dp8233
S'NamedEntityTag'
p8234
S'PERSON'
p8235
sS'CharacterOffsetEnd'
p8236
S'2200'
p8237
sS'Lemma'
p8238
S'Ross'
p8239
sS'PartOfSpeech'
p8240
S'NNP'
p8241
sS'CharacterOffsetBegin'
p8242
S'2196'
p8243
stp8244
a(S'during'
p8245
(dp8246
S'NamedEntityTag'
p8247
g109
sS'CharacterOffsetEnd'
p8248
S'2207'
p8249
sS'Lemma'
p8250
S'during'
p8251
sS'PartOfSpeech'
p8252
S'IN'
p8253
sS'CharacterOffsetBegin'
p8254
S'2201'
p8255
stp8256
a(S'his'
p8257
(dp8258
S'NamedEntityTag'
p8259
g109
sS'CharacterOffsetEnd'
p8260
S'2211'
p8261
sS'Lemma'
p8262
S'he'
p8263
sS'PartOfSpeech'
p8264
S'PRP$'
p8265
sS'CharacterOffsetBegin'
p8266
S'2208'
p8267
stp8268
a(S'18-year'
p8269
(dp8270
S'NormalizedNamedEntityTag'
p8271
S'P18Y'
p8272
sS'Timex'
p8273
S'<TIMEX3 tid="t13" type="DURATION" value="P18Y">18-year</TIMEX3>'
p8274
sS'Lemma'
p8275
S'18-year'
p8276
sS'CharacterOffsetEnd'
p8277
S'2219'
p8278
sS'PartOfSpeech'
p8279
S'JJ'
p8280
sS'CharacterOffsetBegin'
p8281
S'2212'
p8282
sS'NamedEntityTag'
p8283
S'DURATION'
p8284
stp8285
a(S'NASA'
p8286
(dp8287
S'NamedEntityTag'
p8288
S'ORGANIZATION'
p8289
sS'CharacterOffsetEnd'
p8290
S'2224'
p8291
sS'Lemma'
p8292
S'NASA'
p8293
sS'PartOfSpeech'
p8294
S'NNP'
p8295
sS'CharacterOffsetBegin'
p8296
S'2220'
p8297
stp8298
a(S'career'
p8299
(dp8300
S'NamedEntityTag'
p8301
g109
sS'CharacterOffsetEnd'
p8302
S'2231'
p8303
sS'Lemma'
p8304
S'career'
p8305
sS'PartOfSpeech'
p8306
S'NN'
p8307
sS'CharacterOffsetBegin'
p8308
S'2225'
p8309
stp8310
a(g347
(dp8311
S'NamedEntityTag'
p8312
g109
sS'CharacterOffsetEnd'
p8313
S'2232'
p8314
sS'Lemma'
p8315
g347
sS'PartOfSpeech'
p8316
g347
sS'CharacterOffsetBegin'
p8317
S'2231'
p8318
stp8319
a(S'the'
p8320
(dp8321
S'NamedEntityTag'
p8322
g109
sS'CharacterOffsetEnd'
p8323
S'2236'
p8324
sS'Lemma'
p8325
S'the'
p8326
sS'PartOfSpeech'
p8327
S'DT'
p8328
sS'CharacterOffsetBegin'
p8329
S'2233'
p8330
stp8331
a(S'most'
p8332
(dp8333
S'NamedEntityTag'
p8334
g109
sS'CharacterOffsetEnd'
p8335
S'2241'
p8336
sS'Lemma'
p8337
S'most'
p8338
sS'PartOfSpeech'
p8339
S'RBS'
p8340
sS'CharacterOffsetBegin'
p8341
S'2237'
p8342
stp8343
a(S'by'
p8344
(dp8345
S'NamedEntityTag'
p8346
g109
sS'CharacterOffsetEnd'
p8347
S'2244'
p8348
sS'Lemma'
p8349
S'by'
p8350
sS'PartOfSpeech'
p8351
S'IN'
p8352
sS'CharacterOffsetBegin'
p8353
S'2242'
p8354
stp8355
a(S'an'
p8356
(dp8357
S'NamedEntityTag'
p8358
g109
sS'CharacterOffsetEnd'
p8359
S'2247'
p8360
sS'Lemma'
p8361
g2665
sS'PartOfSpeech'
p8362
S'DT'
p8363
sS'CharacterOffsetBegin'
p8364
S'2245'
p8365
stp8366
a(S'American'
p8367
(dp8368
S'NamedEntityTag'
p8369
S'MISC'
p8370
sS'CharacterOffsetEnd'
p8371
S'2256'
p8372
sS'Lemma'
p8373
S'american'
p8374
sS'PartOfSpeech'
p8375
S'JJ'
p8376
sS'CharacterOffsetBegin'
p8377
S'2248'
p8378
stp8379
a(g347
(dp8380
S'NamedEntityTag'
p8381
g109
sS'CharacterOffsetEnd'
p8382
S'2257'
p8383
sS'Lemma'
p8384
g347
sS'PartOfSpeech'
p8385
g347
sS'CharacterOffsetBegin'
p8386
S'2256'
p8387
stp8388
a(S'and'
p8389
(dp8390
S'NamedEntityTag'
p8391
g109
sS'CharacterOffsetEnd'
p8392
S'2261'
p8393
sS'Lemma'
p8394
S'and'
p8395
sS'PartOfSpeech'
p8396
S'CC'
p8397
sS'CharacterOffsetBegin'
p8398
S'2258'
p8399
stp8400
a(S'the'
p8401
(dp8402
S'NamedEntityTag'
p8403
g109
sS'CharacterOffsetEnd'
p8404
S'2265'
p8405
sS'Lemma'
p8406
S'the'
p8407
sS'PartOfSpeech'
p8408
S'DT'
p8409
sS'CharacterOffsetBegin'
p8410
S'2262'
p8411
stp8412
a(S'third'
p8413
(dp8414
S'NormalizedNamedEntityTag'
p8415
S'3.0'
p8416
sS'Lemma'
p8417
S'third'
p8418
sS'CharacterOffsetEnd'
p8419
S'2271'
p8420
sS'PartOfSpeech'
p8421
S'JJ'
p8422
sS'CharacterOffsetBegin'
p8423
S'2266'
p8424
sS'NamedEntityTag'
p8425
S'ORDINAL'
p8426
stp8427
a(S'for'
p8428
(dp8429
S'NamedEntityTag'
p8430
g109
sS'CharacterOffsetEnd'
p8431
S'2275'
p8432
sS'Lemma'
p8433
S'for'
p8434
sS'PartOfSpeech'
p8435
S'IN'
p8436
sS'CharacterOffsetBegin'
p8437
S'2272'
p8438
stp8439
a(S'Newman'
p8440
(dp8441
S'NamedEntityTag'
p8442
S'PERSON'
p8443
sS'CharacterOffsetEnd'
p8444
S'2282'
p8445
sS'Lemma'
p8446
S'Newman'
p8447
sS'PartOfSpeech'
p8448
S'NNP'
p8449
sS'CharacterOffsetBegin'
p8450
S'2276'
p8451
stp8452
a(g254
(dp8453
S'NamedEntityTag'
p8454
g109
sS'CharacterOffsetEnd'
p8455
S'2283'
p8456
sS'Lemma'
p8457
g254
sS'PartOfSpeech'
p8458
g254
sS'CharacterOffsetBegin'
p8459
S'2282'
p8460
stp8461
asass.