(dp0
S'models'
p1
(lp2
(dp3
S'sentences'
p4
(lp5
(dp6
S'parsetree'
p7
S'(ROOT (S (NP (NP (NNPS Russians)) (NP (NN rescue))) (VP (VBN kidnapped) (NP (NP (NNP UN) (NN official)) (PP (IN near) (NP (NP (JJ Chechen) (NN border)) (, ,) (VP (VBN flown) (PP (TO to) (NP (NNP Geneva)))))))) (. .)))'
p8
sS'text'
p9
S'Russians rescue kidnapped UN official near Chechen border, flown to Geneva.'
p10
sS'dependencies'
p11
(lp12
(S'root'
p13
S'ROOT'
p14
S'kidnapped'
p15
tp16
a(S'nsubj'
p17
S'kidnapped'
p18
S'Russians'
p19
tp20
a(S'dep'
p21
S'Russians'
p22
S'rescue'
p23
tp24
a(S'nn'
p25
S'official'
p26
S'UN'
p27
tp28
a(S'dobj'
p29
S'kidnapped'
p30
S'official'
p31
tp32
a(S'amod'
p33
S'border'
p34
S'Chechen'
p35
tp36
a(S'prep_near'
p37
S'official'
p38
S'border'
p39
tp40
a(S'partmod'
p41
S'border'
p42
S'flown'
p43
tp44
a(S'prep_to'
p45
S'flown'
p46
S'Geneva'
p47
tp48
asS'indexeddependencies'
p49
(lp50
(g13
S'ROOT-0'
p51
S'kidnapped-3'
p52
tp53
a(g17
S'kidnapped-3'
p54
S'Russians-1'
p55
tp56
a(g21
S'Russians-1'
p57
S'rescue-2'
p58
tp59
a(g25
S'official-5'
p60
S'UN-4'
p61
tp62
a(g29
S'kidnapped-3'
p63
S'official-5'
p64
tp65
a(g33
S'border-8'
p66
S'Chechen-7'
p67
tp68
a(g37
S'official-5'
p69
S'border-8'
p70
tp71
a(g41
S'border-8'
p72
S'flown-10'
p73
tp74
a(g45
S'flown-10'
p75
S'Geneva-12'
p76
tp77
asS'words'
p78
(lp79
(S'Russians'
p80
(dp81
S'NamedEntityTag'
p82
S'MISC'
p83
sS'CharacterOffsetEnd'
p84
S'9'
p85
sS'Lemma'
p86
S'Russians'
p87
sS'PartOfSpeech'
p88
S'NNPS'
p89
sS'CharacterOffsetBegin'
p90
S'1'
p91
stp92
a(S'rescue'
p93
(dp94
S'NamedEntityTag'
p95
S'O'
p96
sS'CharacterOffsetEnd'
p97
S'16'
p98
sS'Lemma'
p99
S'rescue'
p100
sS'PartOfSpeech'
p101
S'NN'
p102
sS'CharacterOffsetBegin'
p103
S'10'
p104
stp105
a(S'kidnapped'
p106
(dp107
S'NamedEntityTag'
p108
g96
sS'CharacterOffsetEnd'
p109
S'26'
p110
sS'Lemma'
p111
S'kidnap'
p112
sS'PartOfSpeech'
p113
S'VBN'
p114
sS'CharacterOffsetBegin'
p115
S'17'
p116
stp117
a(S'UN'
p118
(dp119
S'NamedEntityTag'
p120
S'ORGANIZATION'
p121
sS'CharacterOffsetEnd'
p122
S'29'
p123
sS'Lemma'
p124
S'UN'
p125
sS'PartOfSpeech'
p126
S'NNP'
p127
sS'CharacterOffsetBegin'
p128
S'27'
p129
stp130
a(S'official'
p131
(dp132
S'NamedEntityTag'
p133
g96
sS'CharacterOffsetEnd'
p134
S'38'
p135
sS'Lemma'
p136
S'official'
p137
sS'PartOfSpeech'
p138
S'NN'
p139
sS'CharacterOffsetBegin'
p140
S'30'
p141
stp142
a(S'near'
p143
(dp144
S'NamedEntityTag'
p145
g96
sS'CharacterOffsetEnd'
p146
S'43'
p147
sS'Lemma'
p148
S'near'
p149
sS'PartOfSpeech'
p150
S'IN'
p151
sS'CharacterOffsetBegin'
p152
S'39'
p153
stp154
a(S'Chechen'
p155
(dp156
S'NamedEntityTag'
p157
S'MISC'
p158
sS'CharacterOffsetEnd'
p159
S'51'
p160
sS'Lemma'
p161
S'chechen'
p162
sS'PartOfSpeech'
p163
S'JJ'
p164
sS'CharacterOffsetBegin'
p165
S'44'
p166
stp167
a(S'border'
p168
(dp169
S'NamedEntityTag'
p170
g96
sS'CharacterOffsetEnd'
p171
S'58'
p172
sS'Lemma'
p173
S'border'
p174
sS'PartOfSpeech'
p175
S'NN'
p176
sS'CharacterOffsetBegin'
p177
S'52'
p178
stp179
a(S','
p180
(dp181
S'NamedEntityTag'
p182
g96
sS'CharacterOffsetEnd'
p183
S'59'
p184
sS'Lemma'
p185
g180
sS'PartOfSpeech'
p186
g180
sS'CharacterOffsetBegin'
p187
S'58'
p188
stp189
a(S'flown'
p190
(dp191
S'NamedEntityTag'
p192
g96
sS'CharacterOffsetEnd'
p193
S'65'
p194
sS'Lemma'
p195
S'fly'
p196
sS'PartOfSpeech'
p197
S'VBN'
p198
sS'CharacterOffsetBegin'
p199
S'60'
p200
stp201
a(S'to'
p202
(dp203
S'NamedEntityTag'
p204
g96
sS'CharacterOffsetEnd'
p205
S'68'
p206
sS'Lemma'
p207
S'to'
p208
sS'PartOfSpeech'
p209
S'TO'
p210
sS'CharacterOffsetBegin'
p211
S'66'
p212
stp213
a(S'Geneva'
p214
(dp215
S'NamedEntityTag'
p216
S'LOCATION'
p217
sS'CharacterOffsetEnd'
p218
S'75'
p219
sS'Lemma'
p220
S'Geneva'
p221
sS'PartOfSpeech'
p222
S'NNP'
p223
sS'CharacterOffsetBegin'
p224
S'69'
p225
stp226
a(S'.'
p227
(dp228
S'NamedEntityTag'
p229
g96
sS'CharacterOffsetEnd'
p230
S'76'
p231
sS'Lemma'
p232
g227
sS'PartOfSpeech'
p233
g227
sS'CharacterOffsetBegin'
p234
S'75'
p235
stp236
asasa(dp237
g4
(lp238
(dp239
g7
S'(ROOT (NP (NP (JJ French) (NNP United) (NNPS Nations) (NNP Official) (, ,) (NNP Cochetel) (, ,) (NNP Vladikavkaz) (, ,)) (NP (NP (NNS kidnappers)) (, ,) (NP (NNP NTV)))))'
p240
sg9
S'French United Nations Official, Cochetel, Vladikavkaz, kidnappers, NTV'
p241
sg11
(lp242
(S'root'
p243
S'ROOT'
p244
S'Vladikavkaz'
p245
tp246
a(S'amod'
p247
S'Vladikavkaz'
p248
S'French'
p249
tp250
a(S'nn'
p251
S'Vladikavkaz'
p252
S'United'
p253
tp254
a(S'nn'
p255
S'Vladikavkaz'
p256
S'Nations'
p257
tp258
a(S'nn'
p259
S'Vladikavkaz'
p260
S'Official'
p261
tp262
a(S'appos'
p263
S'Vladikavkaz'
p264
S'Cochetel'
p265
tp266
a(S'dep'
p267
S'Vladikavkaz'
p268
S'kidnappers'
p269
tp270
a(S'appos'
p271
S'kidnappers'
p272
S'NTV'
p273
tp274
asg49
(lp275
(g243
S'ROOT-0'
p276
S'Vladikavkaz-8'
p277
tp278
a(g247
S'Vladikavkaz-8'
p279
S'French-1'
p280
tp281
a(g251
S'Vladikavkaz-8'
p282
S'United-2'
p283
tp284
a(g255
S'Vladikavkaz-8'
p285
S'Nations-3'
p286
tp287
a(g259
S'Vladikavkaz-8'
p288
S'Official-4'
p289
tp290
a(g263
S'Vladikavkaz-8'
p291
S'Cochetel-6'
p292
tp293
a(g267
S'Vladikavkaz-8'
p294
S'kidnappers-10'
p295
tp296
a(g271
S'kidnappers-10'
p297
S'NTV-12'
p298
tp299
asg78
(lp300
(S'French'
p301
(dp302
S'NamedEntityTag'
p303
g96
sS'CharacterOffsetEnd'
p304
S'7'
p305
sS'Lemma'
p306
S'french'
p307
sS'PartOfSpeech'
p308
S'JJ'
p309
sS'CharacterOffsetBegin'
p310
g91
stp311
a(S'United'
p312
(dp313
S'NamedEntityTag'
p314
S'ORGANIZATION'
p315
sS'CharacterOffsetEnd'
p316
S'14'
p317
sS'Lemma'
p318
S'United'
p319
sS'PartOfSpeech'
p320
S'NNP'
p321
sS'CharacterOffsetBegin'
p322
S'8'
p323
stp324
a(S'Nations'
p325
(dp326
S'NamedEntityTag'
p327
S'ORGANIZATION'
p328
sS'CharacterOffsetEnd'
p329
S'22'
p330
sS'Lemma'
p331
S'Nations'
p332
sS'PartOfSpeech'
p333
S'NNPS'
p334
sS'CharacterOffsetBegin'
p335
S'15'
p336
stp337
a(S'Official'
p338
(dp339
S'NamedEntityTag'
p340
S'ORGANIZATION'
p341
sS'CharacterOffsetEnd'
p342
S'31'
p343
sS'Lemma'
p344
S'Official'
p345
sS'PartOfSpeech'
p346
S'NNP'
p347
sS'CharacterOffsetBegin'
p348
S'23'
p349
stp350
a(g180
(dp351
S'NamedEntityTag'
p352
g96
sS'CharacterOffsetEnd'
p353
S'32'
p354
sS'Lemma'
p355
g180
sS'PartOfSpeech'
p356
g180
sS'CharacterOffsetBegin'
p357
S'31'
p358
stp359
a(S'Cochetel'
p360
(dp361
S'NamedEntityTag'
p362
S'PERSON'
p363
sS'CharacterOffsetEnd'
p364
S'41'
p365
sS'Lemma'
p366
S'Cochetel'
p367
sS'PartOfSpeech'
p368
S'NNP'
p369
sS'CharacterOffsetBegin'
p370
S'33'
p371
stp372
a(g180
(dp373
S'NamedEntityTag'
p374
g96
sS'CharacterOffsetEnd'
p375
S'42'
p376
sS'Lemma'
p377
g180
sS'PartOfSpeech'
p378
g180
sS'CharacterOffsetBegin'
p379
S'41'
p380
stp381
a(S'Vladikavkaz'
p382
(dp383
S'NamedEntityTag'
p384
S'LOCATION'
p385
sS'CharacterOffsetEnd'
p386
S'54'
p387
sS'Lemma'
p388
S'Vladikavkaz'
p389
sS'PartOfSpeech'
p390
S'NNP'
p391
sS'CharacterOffsetBegin'
p392
S'43'
p393
stp394
a(g180
(dp395
S'NamedEntityTag'
p396
g96
sS'CharacterOffsetEnd'
p397
S'55'
p398
sS'Lemma'
p399
g180
sS'PartOfSpeech'
p400
g180
sS'CharacterOffsetBegin'
p401
S'54'
p402
stp403
a(S'kidnappers'
p404
(dp405
S'NamedEntityTag'
p406
g96
sS'CharacterOffsetEnd'
p407
S'66'
p408
sS'Lemma'
p409
S'kidnapper'
p410
sS'PartOfSpeech'
p411
S'NNS'
p412
sS'CharacterOffsetBegin'
p413
S'56'
p414
stp415
a(g180
(dp416
S'NamedEntityTag'
p417
g96
sS'CharacterOffsetEnd'
p418
S'67'
p419
sS'Lemma'
p420
g180
sS'PartOfSpeech'
p421
g180
sS'CharacterOffsetBegin'
p422
S'66'
p423
stp424
a(S'NTV'
p425
(dp426
S'NamedEntityTag'
p427
S'ORGANIZATION'
p428
sS'CharacterOffsetEnd'
p429
S'71'
p430
sS'Lemma'
p431
S'NTV'
p432
sS'PartOfSpeech'
p433
S'NNP'
p434
sS'CharacterOffsetBegin'
p435
S'68'
p436
stp437
asasa(dp438
g4
(lp439
(dp440
g7
S'(ROOT (S (NP (NNP UN) (NN official)) (VP (VBN freed) (PP (IN in) (NP (NNP North) (NNP Ossetia))) (PP (IN after) (NP (NN kidnapping)) (ADVP (NP (CD ten) (NNS months)) (IN ago))))))'
p441
sg9
S'UN official freed in North Ossetia after kidnapping ten months ago'
p442
sg11
(lp443
(S'root'
p444
S'ROOT'
p445
S'freed'
p446
tp447
a(S'nn'
p448
S'official'
p449
S'UN'
p450
tp451
a(S'nsubj'
p452
S'freed'
p453
S'official'
p454
tp455
a(S'nn'
p456
S'Ossetia'
p457
S'North'
p458
tp459
a(S'prep_in'
p460
S'freed'
p461
S'Ossetia'
p462
tp463
a(S'prep_after'
p464
S'freed'
p465
S'kidnapping'
p466
tp467
a(S'num'
p468
S'months'
p469
S'ten'
p470
tp471
a(S'npadvmod'
p472
S'ago'
p473
S'months'
p474
tp475
a(S'advmod'
p476
S'freed'
p477
S'ago'
p478
tp479
asg49
(lp480
(g444
S'ROOT-0'
p481
S'freed-3'
p482
tp483
a(g448
S'official-2'
p484
S'UN-1'
p485
tp486
a(g452
S'freed-3'
p487
S'official-2'
p488
tp489
a(g456
S'Ossetia-6'
p490
S'North-5'
p491
tp492
a(g460
S'freed-3'
p493
S'Ossetia-6'
p494
tp495
a(g464
S'freed-3'
p496
S'kidnapping-8'
p497
tp498
a(g468
S'months-10'
p499
S'ten-9'
p500
tp501
a(g472
S'ago-11'
p502
S'months-10'
p503
tp504
a(g476
S'freed-3'
p505
S'ago-11'
p506
tp507
asg78
(lp508
(S'UN'
p509
(dp510
S'NamedEntityTag'
p511
S'ORGANIZATION'
p512
sS'CharacterOffsetEnd'
p513
S'3'
p514
sS'Lemma'
p515
S'UN'
p516
sS'PartOfSpeech'
p517
S'NNP'
p518
sS'CharacterOffsetBegin'
p519
g91
stp520
a(S'official'
p521
(dp522
S'NamedEntityTag'
p523
g96
sS'CharacterOffsetEnd'
p524
S'12'
p525
sS'Lemma'
p526
S'official'
p527
sS'PartOfSpeech'
p528
S'NN'
p529
sS'CharacterOffsetBegin'
p530
S'4'
p531
stp532
a(S'freed'
p533
(dp534
S'NamedEntityTag'
p535
g96
sS'CharacterOffsetEnd'
p536
S'18'
p537
sS'Lemma'
p538
S'free'
p539
sS'PartOfSpeech'
p540
S'VBN'
p541
sS'CharacterOffsetBegin'
p542
S'13'
p543
stp544
a(S'in'
p545
(dp546
S'NamedEntityTag'
p547
g96
sS'CharacterOffsetEnd'
p548
S'21'
p549
sS'Lemma'
p550
S'in'
p551
sS'PartOfSpeech'
p552
S'IN'
p553
sS'CharacterOffsetBegin'
p554
S'19'
p555
stp556
a(S'North'
p557
(dp558
S'NamedEntityTag'
p559
S'LOCATION'
p560
sS'CharacterOffsetEnd'
p561
S'27'
p562
sS'Lemma'
p563
S'North'
p564
sS'PartOfSpeech'
p565
S'NNP'
p566
sS'CharacterOffsetBegin'
p567
S'22'
p568
stp569
a(S'Ossetia'
p570
(dp571
S'NamedEntityTag'
p572
S'LOCATION'
p573
sS'CharacterOffsetEnd'
p574
S'35'
p575
sS'Lemma'
p576
S'Ossetia'
p577
sS'PartOfSpeech'
p578
S'NNP'
p579
sS'CharacterOffsetBegin'
p580
S'28'
p581
stp582
a(S'after'
p583
(dp584
S'NamedEntityTag'
p585
g96
sS'CharacterOffsetEnd'
p586
S'41'
p587
sS'Lemma'
p588
S'after'
p589
sS'PartOfSpeech'
p590
S'IN'
p591
sS'CharacterOffsetBegin'
p592
S'36'
p593
stp594
a(S'kidnapping'
p595
(dp596
S'NamedEntityTag'
p597
g96
sS'CharacterOffsetEnd'
p598
S'52'
p599
sS'Lemma'
p600
S'kidnapping'
p601
sS'PartOfSpeech'
p602
S'NN'
p603
sS'CharacterOffsetBegin'
p604
S'42'
p605
stp606
a(S'ten'
p607
(dp608
S'NormalizedNamedEntityTag'
p609
S'OFFSET'
p610
sS'Timex'
p611
S'<TIMEX3 alt_value="OFFSET P-10M" anchorTimeID="t0" temporalFunction="true" tid="t1" type="DATE" valueFromFunction="tf0">ten months ago</TIMEX3>'
p612
sS'Lemma'
p613
S'ten'
p614
sS'CharacterOffsetEnd'
p615
S'56'
p616
sS'PartOfSpeech'
p617
S'CD'
p618
sS'CharacterOffsetBegin'
p619
S'53'
p620
sS'NamedEntityTag'
p621
S'DATE'
p622
stp623
a(S'months'
p624
(dp625
S'NormalizedNamedEntityTag'
p626
S'OFFSET'
p627
sS'Timex'
p628
S'<TIMEX3 alt_value="OFFSET P-10M" anchorTimeID="t0" temporalFunction="true" tid="t1" type="DATE" valueFromFunction="tf0">ten months ago</TIMEX3>'
p629
sS'Lemma'
p630
S'month'
p631
sS'CharacterOffsetEnd'
p632
S'63'
p633
sS'PartOfSpeech'
p634
S'NNS'
p635
sS'CharacterOffsetBegin'
p636
S'57'
p637
sS'NamedEntityTag'
p638
S'DATE'
p639
stp640
a(S'ago'
p641
(dp642
S'NormalizedNamedEntityTag'
p643
S'OFFSET'
p644
sS'Timex'
p645
S'<TIMEX3 alt_value="OFFSET P-10M" anchorTimeID="t0" temporalFunction="true" tid="t1" type="DATE" valueFromFunction="tf0">ten months ago</TIMEX3>'
p646
sS'Lemma'
p647
S'ago'
p648
sS'CharacterOffsetEnd'
p649
S'67'
p650
sS'PartOfSpeech'
p651
S'IN'
p652
sS'CharacterOffsetBegin'
p653
S'64'
p654
sS'NamedEntityTag'
p655
S'DATE'
p656
stp657
asasa(dp658
g4
(lp659
(dp660
g7
S'(ROOT (S (NP (NNP UN) (NN official)) (VP (VBD held) (NP (NP (NP (NN hostage)) (VP (VBN freed) (S (ADJP (JJ unharmed))))) (: ;) (NP (NP (CD 3) (NNS kidnappers)) (VP (VBN killed) (PP (IN in) (NP (NN operation))))))) (. .)))'
p661
sg9
S'UN official held hostage freed unharmed; 3 kidnappers killed in operation.'
p662
sg11
(lp663
(S'root'
p664
S'ROOT'
p665
S'held'
p666
tp667
a(S'nn'
p668
S'official'
p669
S'UN'
p670
tp671
a(S'nsubj'
p672
S'held'
p673
S'official'
p674
tp675
a(S'dobj'
p676
S'held'
p677
S'hostage'
p678
tp679
a(S'partmod'
p680
S'hostage'
p681
S'freed'
p682
tp683
a(S'acomp'
p684
S'freed'
p685
S'unharmed'
p686
tp687
a(S'num'
p688
S'kidnappers'
p689
g514
tp690
a(S'dep'
p691
S'hostage'
p692
S'kidnappers'
p693
tp694
a(S'partmod'
p695
S'kidnappers'
p696
S'killed'
p697
tp698
a(S'prep_in'
p699
S'killed'
p700
S'operation'
p701
tp702
asg49
(lp703
(g664
S'ROOT-0'
p704
S'held-3'
p705
tp706
a(g668
S'official-2'
p707
S'UN-1'
p708
tp709
a(g672
S'held-3'
p710
S'official-2'
p711
tp712
a(g676
S'held-3'
p713
S'hostage-4'
p714
tp715
a(g680
S'hostage-4'
p716
S'freed-5'
p717
tp718
a(g684
S'freed-5'
p719
S'unharmed-6'
p720
tp721
a(g688
S'kidnappers-9'
p722
S'3-8'
p723
tp724
a(g691
S'hostage-4'
p725
S'kidnappers-9'
p726
tp727
a(g695
S'kidnappers-9'
p728
S'killed-10'
p729
tp730
a(g699
S'killed-10'
p731
S'operation-12'
p732
tp733
asg78
(lp734
(S'UN'
p735
(dp736
S'NamedEntityTag'
p737
S'ORGANIZATION'
p738
sS'CharacterOffsetEnd'
p739
g514
sS'Lemma'
p740
S'UN'
p741
sS'PartOfSpeech'
p742
S'NNP'
p743
sS'CharacterOffsetBegin'
p744
g91
stp745
a(S'official'
p746
(dp747
S'NamedEntityTag'
p748
g96
sS'CharacterOffsetEnd'
p749
S'12'
p750
sS'Lemma'
p751
S'official'
p752
sS'PartOfSpeech'
p753
S'NN'
p754
sS'CharacterOffsetBegin'
p755
g531
stp756
a(S'held'
p757
(dp758
S'NamedEntityTag'
p759
g96
sS'CharacterOffsetEnd'
p760
S'17'
p761
sS'Lemma'
p762
S'hold'
p763
sS'PartOfSpeech'
p764
S'VBD'
p765
sS'CharacterOffsetBegin'
p766
S'13'
p767
stp768
a(S'hostage'
p769
(dp770
S'NamedEntityTag'
p771
g96
sS'CharacterOffsetEnd'
p772
S'25'
p773
sS'Lemma'
p774
S'hostage'
p775
sS'PartOfSpeech'
p776
S'NN'
p777
sS'CharacterOffsetBegin'
p778
S'18'
p779
stp780
a(S'freed'
p781
(dp782
S'NamedEntityTag'
p783
g96
sS'CharacterOffsetEnd'
p784
S'31'
p785
sS'Lemma'
p786
S'free'
p787
sS'PartOfSpeech'
p788
S'VBN'
p789
sS'CharacterOffsetBegin'
p790
S'26'
p791
stp792
a(S'unharmed'
p793
(dp794
S'NamedEntityTag'
p795
g96
sS'CharacterOffsetEnd'
p796
S'40'
p797
sS'Lemma'
p798
S'unharmed'
p799
sS'PartOfSpeech'
p800
S'JJ'
p801
sS'CharacterOffsetBegin'
p802
S'32'
p803
stp804
a(S';'
p805
(dp806
S'NamedEntityTag'
p807
g96
sS'CharacterOffsetEnd'
p808
S'41'
p809
sS'Lemma'
p810
g805
sS'PartOfSpeech'
p811
S':'
p812
sS'CharacterOffsetBegin'
p813
S'40'
p814
stp815
a(g514
(dp816
S'NormalizedNamedEntityTag'
p817
S'3.0'
p818
sS'Lemma'
p819
g514
sS'CharacterOffsetEnd'
p820
S'43'
p821
sS'PartOfSpeech'
p822
S'CD'
p823
sS'CharacterOffsetBegin'
p824
S'42'
p825
sS'NamedEntityTag'
p826
S'NUMBER'
p827
stp828
a(S'kidnappers'
p829
(dp830
S'NamedEntityTag'
p831
g96
sS'CharacterOffsetEnd'
p832
S'54'
p833
sS'Lemma'
p834
S'kidnapper'
p835
sS'PartOfSpeech'
p836
S'NNS'
p837
sS'CharacterOffsetBegin'
p838
S'44'
p839
stp840
a(S'killed'
p841
(dp842
S'NamedEntityTag'
p843
g96
sS'CharacterOffsetEnd'
p844
S'61'
p845
sS'Lemma'
p846
S'kill'
p847
sS'PartOfSpeech'
p848
S'VBN'
p849
sS'CharacterOffsetBegin'
p850
S'55'
p851
stp852
a(S'in'
p853
(dp854
S'NamedEntityTag'
p855
g96
sS'CharacterOffsetEnd'
p856
S'64'
p857
sS'Lemma'
p858
S'in'
p859
sS'PartOfSpeech'
p860
S'IN'
p861
sS'CharacterOffsetBegin'
p862
S'62'
p863
stp864
a(S'operation'
p865
(dp866
S'NamedEntityTag'
p867
g96
sS'CharacterOffsetEnd'
p868
S'74'
p869
sS'Lemma'
p870
S'operation'
p871
sS'PartOfSpeech'
p872
S'NN'
p873
sS'CharacterOffsetBegin'
p874
S'65'
p875
stp876
a(g227
(dp877
S'NamedEntityTag'
p878
g96
sS'CharacterOffsetEnd'
p879
S'75'
p880
sS'Lemma'
p881
g227
sS'PartOfSpeech'
p882
g227
sS'CharacterOffsetBegin'
p883
S'74'
p884
stp885
asasasS'article'
p886
(dp887
S'coref'
p888
(lp889
(lp890
((S'U.N.'
p891
I1
I1
I11
I12
tp892
(S'U.N.'
p893
I0
I3
I23
I24
tp894
tp895
a((S'U.N.'
p896
I8
I2
I22
I23
tp897
(S'U.N.'
p898
I0
I3
I23
I24
tp899
tp900
a((S'U.N.'
p901
I9
I6
I16
I17
tp902
(S'U.N.'
p903
I0
I3
I23
I24
tp904
tp905
aa(lp906
((S'Geneva'
p907
I9
I5
I5
I6
tp908
(S'Geneva'
p909
I0
I6
I26
I27
tp910
tp911
aa(lp912
((S'U.N. headquarters'
p913
I9
I7
I16
I18
tp914
(S'U.N. headquarters'
p915
I0
I4
I23
I25
tp916
tp917
aa(lp918
((S'Cochetel'
p919
I2
I0
I0
I1
tp920
(S'Vincent Cochetel'
p921
I1
I1
I0
I2
tp922
tp923
a((S'Cochetel'
p924
I3
I0
I0
I1
tp925
(S'Vincent Cochetel'
p926
I1
I1
I0
I2
tp927
tp928
a((S'he'
p929
I3
I5
I5
I6
tp930
(S'Vincent Cochetel'
p931
I1
I1
I0
I2
tp932
tp933
a((S'Cochetel'
p934
I4
I2
I12
I13
tp935
(S'Vincent Cochetel'
p936
I1
I1
I0
I2
tp937
tp938
a((S'him'
p939
I5
I-1
I9
I10
tp940
(S'Vincent Cochetel'
p941
I1
I1
I0
I2
tp942
tp943
a((S'Cochetel'
p944
I8
I0
I0
I1
tp945
(S'Vincent Cochetel'
p946
I1
I1
I0
I2
tp947
tp948
a((S'he'
p949
I8
I1
I11
I12
tp950
(S'Vincent Cochetel'
p951
I1
I1
I0
I2
tp952
tp953
a((S'He'
p954
I9
I0
I0
I1
tp955
(S'Vincent Cochetel'
p956
I1
I1
I0
I2
tp957
tp958
a((S'his'
p959
I9
I8
I8
I9
tp960
(S'Vincent Cochetel'
p961
I1
I1
I0
I2
tp962
tp963
a((S'him'
p964
I9
I4
I14
I15
tp965
(S'Vincent Cochetel'
p966
I1
I1
I0
I2
tp967
tp968
aa(lp969
((S'the operation'
p970
I6
I8
I7
I9
tp971
(S'the predawn operation on the border between the republics of Chechnya and Ingushetia'
p972
I2
I-1
I7
I20
tp973
tp974
aa(lp975
((S'the van'
p976
I5
I4
I23
I25
tp977
(S'a white van'
p978
I4
I3
I21
I24
tp979
tp980
aa(lp981
((S'him'
p982
I5
I4
I14
I15
tp983
(S'then'
p984
I5
I2
I12
I13
tp985
tp986
aa(lp987
((S'Mikhailov'
p988
I7
I8
I8
I9
tp989
(S'Interior Ministry spokesman Alexander Mikhailov'
p990
I6
I4
I10
I15
tp991
tp992
aa(lp993
((S'Moscow'
p994
I9
I6
I26
I27
tp995
(S'Moscow'
p996
I8
I8
I8
I9
tp997
tp998
aa(lp999
((S'UNHCR spokeswoman in Moscow'
p1000
I9
I4
I23
I27
tp1001
(S'Vera Sobolyeva'
p1002
I9
I1
I20
I22
tp1003
tp1004
aasg4
(lp1005
(dp1006
g7
S'(ROOT (S (NP (NP (DT A) (JJ French) (NNP United) (NNPS Nations) (NN official)) (SBAR (WHNP (WP who)) (S (VP (VBD was) (VP (VBN kidnapped) (PP (IN in) (NP (JJ southern) (NNP Russia)))))))) (ADVP (NP (QP (XS (JJR more) (IN than)) (CD 10)) (NNS months)) (RB ago)) (VP (VBD was) (VP (VP (VBN set) (NP-TMP (JJ free) (NNP Saturday))) (CC and) (VP (VBN flown) (PP (TO to) (NP (NNP U.N.) (NN headquarters))) (PP (IN in) (NP (NNP Geneva)))))) (. .)))'
p1007
sg9
S'A French United Nations official who was kidnapped in southern Russia more than 10 months ago was set free Saturday and flown to U.N. headquarters in Geneva.'
p1008
sg11
(lp1009
(S'root'
p1010
S'ROOT'
p1011
S'set'
p1012
tp1013
a(S'det'
p1014
S'official'
p1015
S'A'
p1016
tp1017
a(S'amod'
p1018
S'official'
p1019
S'French'
p1020
tp1021
a(S'nn'
p1022
S'official'
p1023
S'United'
p1024
tp1025
a(S'nn'
p1026
S'official'
p1027
S'Nations'
p1028
tp1029
a(S'nsubjpass'
p1030
S'set'
p1031
S'official'
p1032
tp1033
a(S'nsubjpass'
p1034
S'kidnapped'
p1035
S'who'
p1036
tp1037
a(S'auxpass'
p1038
S'kidnapped'
p1039
S'was'
p1040
tp1041
a(S'rcmod'
p1042
S'official'
p1043
S'kidnapped'
p1044
tp1045
a(S'amod'
p1046
S'Russia'
p1047
S'southern'
p1048
tp1049
a(S'prep_in'
p1050
S'kidnapped'
p1051
S'Russia'
p1052
tp1053
a(S'mwe'
p1054
S'than'
p1055
S'more'
p1056
tp1057
a(S'quantmod'
p1058
S'10'
p1059
S'than'
p1060
tp1061
a(S'num'
p1062
S'months'
p1063
S'10'
p1064
tp1065
a(S'npadvmod'
p1066
S'ago'
p1067
S'months'
p1068
tp1069
a(S'advmod'
p1070
S'set'
p1071
S'ago'
p1072
tp1073
a(S'auxpass'
p1074
S'set'
p1075
S'was'
p1076
tp1077
a(S'amod'
p1078
S'Saturday'
p1079
S'free'
p1080
tp1081
a(S'tmod'
p1082
S'set'
p1083
S'Saturday'
p1084
tp1085
a(S'conj_and'
p1086
S'set'
p1087
S'flown'
p1088
tp1089
a(S'nn'
p1090
S'headquarters'
p1091
S'U.N.'
p1092
tp1093
a(S'prep_to'
p1094
S'flown'
p1095
S'headquarters'
p1096
tp1097
a(S'prep_in'
p1098
S'flown'
p1099
S'Geneva'
p1100
tp1101
asg49
(lp1102
(g1010
S'ROOT-0'
p1103
S'set-18'
p1104
tp1105
a(g1014
S'official-5'
p1106
S'A-1'
p1107
tp1108
a(g1018
S'official-5'
p1109
S'French-2'
p1110
tp1111
a(g1022
S'official-5'
p1112
S'United-3'
p1113
tp1114
a(g1026
S'official-5'
p1115
S'Nations-4'
p1116
tp1117
a(g1030
S'set-18'
p1118
S'official-5'
p1119
tp1120
a(g1034
S'kidnapped-8'
p1121
S'who-6'
p1122
tp1123
a(g1038
S'kidnapped-8'
p1124
S'was-7'
p1125
tp1126
a(g1042
S'official-5'
p1127
S'kidnapped-8'
p1128
tp1129
a(g1046
S'Russia-11'
p1130
S'southern-10'
p1131
tp1132
a(g1050
S'kidnapped-8'
p1133
S'Russia-11'
p1134
tp1135
a(g1054
S'than-13'
p1136
S'more-12'
p1137
tp1138
a(g1058
S'10-14'
p1139
S'than-13'
p1140
tp1141
a(g1062
S'months-15'
p1142
S'10-14'
p1143
tp1144
a(g1066
S'ago-16'
p1145
S'months-15'
p1146
tp1147
a(g1070
S'set-18'
p1148
S'ago-16'
p1149
tp1150
a(g1074
S'set-18'
p1151
S'was-17'
p1152
tp1153
a(g1078
S'Saturday-20'
p1154
S'free-19'
p1155
tp1156
a(g1082
S'set-18'
p1157
S'Saturday-20'
p1158
tp1159
a(g1086
S'set-18'
p1160
S'flown-22'
p1161
tp1162
a(g1090
S'headquarters-25'
p1163
S'U.N.-24'
p1164
tp1165
a(g1094
S'flown-22'
p1166
S'headquarters-25'
p1167
tp1168
a(g1098
S'flown-22'
p1169
S'Geneva-27'
p1170
tp1171
asg78
(lp1172
(g1016
(dp1173
S'NamedEntityTag'
p1174
g96
sS'CharacterOffsetEnd'
p1175
g91
sS'Lemma'
p1176
S'a'
p1177
sS'PartOfSpeech'
p1178
S'DT'
p1179
sS'CharacterOffsetBegin'
p1180
S'0'
p1181
stp1182
a(S'French'
p1183
(dp1184
S'NamedEntityTag'
p1185
g96
sS'CharacterOffsetEnd'
p1186
g323
sS'Lemma'
p1187
S'french'
p1188
sS'PartOfSpeech'
p1189
S'JJ'
p1190
sS'CharacterOffsetBegin'
p1191
S'2'
p1192
stp1193
a(S'United'
p1194
(dp1195
S'NamedEntityTag'
p1196
S'ORGANIZATION'
p1197
sS'CharacterOffsetEnd'
p1198
S'15'
p1199
sS'Lemma'
p1200
S'United'
p1201
sS'PartOfSpeech'
p1202
S'NNP'
p1203
sS'CharacterOffsetBegin'
p1204
g85
stp1205
a(S'Nations'
p1206
(dp1207
S'NamedEntityTag'
p1208
S'ORGANIZATION'
p1209
sS'CharacterOffsetEnd'
p1210
S'23'
p1211
sS'Lemma'
p1212
S'Nations'
p1213
sS'PartOfSpeech'
p1214
S'NNPS'
p1215
sS'CharacterOffsetBegin'
p1216
S'16'
p1217
stp1218
a(S'official'
p1219
(dp1220
S'NamedEntityTag'
p1221
g96
sS'CharacterOffsetEnd'
p1222
S'32'
p1223
sS'Lemma'
p1224
S'official'
p1225
sS'PartOfSpeech'
p1226
S'NN'
p1227
sS'CharacterOffsetBegin'
p1228
S'24'
p1229
stp1230
a(S'who'
p1231
(dp1232
S'NamedEntityTag'
p1233
g96
sS'CharacterOffsetEnd'
p1234
S'36'
p1235
sS'Lemma'
p1236
S'who'
p1237
sS'PartOfSpeech'
p1238
S'WP'
p1239
sS'CharacterOffsetBegin'
p1240
S'33'
p1241
stp1242
a(S'was'
p1243
(dp1244
S'NamedEntityTag'
p1245
g96
sS'CharacterOffsetEnd'
p1246
S'40'
p1247
sS'Lemma'
p1248
S'be'
p1249
sS'PartOfSpeech'
p1250
S'VBD'
p1251
sS'CharacterOffsetBegin'
p1252
S'37'
p1253
stp1254
a(S'kidnapped'
p1255
(dp1256
S'NamedEntityTag'
p1257
g96
sS'CharacterOffsetEnd'
p1258
S'50'
p1259
sS'Lemma'
p1260
S'kidnap'
p1261
sS'PartOfSpeech'
p1262
S'VBN'
p1263
sS'CharacterOffsetBegin'
p1264
S'41'
p1265
stp1266
a(S'in'
p1267
(dp1268
S'NamedEntityTag'
p1269
g96
sS'CharacterOffsetEnd'
p1270
S'53'
p1271
sS'Lemma'
p1272
S'in'
p1273
sS'PartOfSpeech'
p1274
S'IN'
p1275
sS'CharacterOffsetBegin'
p1276
S'51'
p1277
stp1278
a(S'southern'
p1279
(dp1280
S'NamedEntityTag'
p1281
g96
sS'CharacterOffsetEnd'
p1282
S'62'
p1283
sS'Lemma'
p1284
S'southern'
p1285
sS'PartOfSpeech'
p1286
S'JJ'
p1287
sS'CharacterOffsetBegin'
p1288
S'54'
p1289
stp1290
a(S'Russia'
p1291
(dp1292
S'NamedEntityTag'
p1293
S'LOCATION'
p1294
sS'CharacterOffsetEnd'
p1295
S'69'
p1296
sS'Lemma'
p1297
S'Russia'
p1298
sS'PartOfSpeech'
p1299
S'NNP'
p1300
sS'CharacterOffsetBegin'
p1301
S'63'
p1302
stp1303
a(S'more'
p1304
(dp1305
S'NormalizedNamedEntityTag'
p1306
S'OFFSET'
p1307
sS'Timex'
p1308
S'<TIMEX3 alt_value="OFFSET P-10M" anchorTimeID="t0" temporalFunction="true" tid="t1" type="DATE" valueFromFunction="tf0">more than 10 months ago</TIMEX3>'
p1309
sS'Lemma'
p1310
S'more'
p1311
sS'CharacterOffsetEnd'
p1312
S'74'
p1313
sS'PartOfSpeech'
p1314
S'JJR'
p1315
sS'CharacterOffsetBegin'
p1316
S'70'
p1317
sS'NamedEntityTag'
p1318
S'DATE'
p1319
stp1320
a(S'than'
p1321
(dp1322
S'NormalizedNamedEntityTag'
p1323
S'OFFSET'
p1324
sS'Timex'
p1325
S'<TIMEX3 alt_value="OFFSET P-10M" anchorTimeID="t0" temporalFunction="true" tid="t1" type="DATE" valueFromFunction="tf0">more than 10 months ago</TIMEX3>'
p1326
sS'Lemma'
p1327
S'than'
p1328
sS'CharacterOffsetEnd'
p1329
S'79'
p1330
sS'PartOfSpeech'
p1331
S'IN'
p1332
sS'CharacterOffsetBegin'
p1333
S'75'
p1334
sS'NamedEntityTag'
p1335
S'DATE'
p1336
stp1337
a(S'10'
p1338
(dp1339
S'NormalizedNamedEntityTag'
p1340
S'OFFSET'
p1341
sS'Timex'
p1342
S'<TIMEX3 alt_value="OFFSET P-10M" anchorTimeID="t0" temporalFunction="true" tid="t1" type="DATE" valueFromFunction="tf0">more than 10 months ago</TIMEX3>'
p1343
sS'Lemma'
p1344
S'10'
p1345
sS'CharacterOffsetEnd'
p1346
S'82'
p1347
sS'PartOfSpeech'
p1348
S'CD'
p1349
sS'CharacterOffsetBegin'
p1350
S'80'
p1351
sS'NamedEntityTag'
p1352
S'DATE'
p1353
stp1354
a(S'months'
p1355
(dp1356
S'NormalizedNamedEntityTag'
p1357
S'OFFSET'
p1358
sS'Timex'
p1359
S'<TIMEX3 alt_value="OFFSET P-10M" anchorTimeID="t0" temporalFunction="true" tid="t1" type="DATE" valueFromFunction="tf0">more than 10 months ago</TIMEX3>'
p1360
sS'Lemma'
p1361
S'month'
p1362
sS'CharacterOffsetEnd'
p1363
S'89'
p1364
sS'PartOfSpeech'
p1365
S'NNS'
p1366
sS'CharacterOffsetBegin'
p1367
S'83'
p1368
sS'NamedEntityTag'
p1369
S'DATE'
p1370
stp1371
a(S'ago'
p1372
(dp1373
S'NormalizedNamedEntityTag'
p1374
S'OFFSET'
p1375
sS'Timex'
p1376
S'<TIMEX3 alt_value="OFFSET P-10M" anchorTimeID="t0" temporalFunction="true" tid="t1" type="DATE" valueFromFunction="tf0">more than 10 months ago</TIMEX3>'
p1377
sS'Lemma'
p1378
S'ago'
p1379
sS'CharacterOffsetEnd'
p1380
S'93'
p1381
sS'PartOfSpeech'
p1382
S'RB'
p1383
sS'CharacterOffsetBegin'
p1384
S'90'
p1385
sS'NamedEntityTag'
p1386
S'DATE'
p1387
stp1388
a(S'was'
p1389
(dp1390
S'NamedEntityTag'
p1391
g96
sS'CharacterOffsetEnd'
p1392
S'97'
p1393
sS'Lemma'
p1394
S'be'
p1395
sS'PartOfSpeech'
p1396
S'VBD'
p1397
sS'CharacterOffsetBegin'
p1398
S'94'
p1399
stp1400
a(S'set'
p1401
(dp1402
S'NamedEntityTag'
p1403
g96
sS'CharacterOffsetEnd'
p1404
S'101'
p1405
sS'Lemma'
p1406
S'set'
p1407
sS'PartOfSpeech'
p1408
S'VBN'
p1409
sS'CharacterOffsetBegin'
p1410
S'98'
p1411
stp1412
a(S'free'
p1413
(dp1414
S'NamedEntityTag'
p1415
g96
sS'CharacterOffsetEnd'
p1416
S'106'
p1417
sS'Lemma'
p1418
S'free'
p1419
sS'PartOfSpeech'
p1420
S'JJ'
p1421
sS'CharacterOffsetBegin'
p1422
S'102'
p1423
stp1424
a(S'Saturday'
p1425
(dp1426
S'NormalizedNamedEntityTag'
p1427
S'XXXX-WXX-6'
p1428
sS'Timex'
p1429
S'<TIMEX3 tid="t2" type="DATE" value="XXXX-WXX-6">Saturday</TIMEX3>'
p1430
sS'Lemma'
p1431
S'Saturday'
p1432
sS'CharacterOffsetEnd'
p1433
S'115'
p1434
sS'PartOfSpeech'
p1435
S'NNP'
p1436
sS'CharacterOffsetBegin'
p1437
S'107'
p1438
sS'NamedEntityTag'
p1439
S'DATE'
p1440
stp1441
a(S'and'
p1442
(dp1443
S'NamedEntityTag'
p1444
g96
sS'CharacterOffsetEnd'
p1445
S'119'
p1446
sS'Lemma'
p1447
S'and'
p1448
sS'PartOfSpeech'
p1449
S'CC'
p1450
sS'CharacterOffsetBegin'
p1451
S'116'
p1452
stp1453
a(S'flown'
p1454
(dp1455
S'NamedEntityTag'
p1456
g96
sS'CharacterOffsetEnd'
p1457
S'125'
p1458
sS'Lemma'
p1459
S'fly'
p1460
sS'PartOfSpeech'
p1461
S'VBN'
p1462
sS'CharacterOffsetBegin'
p1463
S'120'
p1464
stp1465
a(S'to'
p1466
(dp1467
S'NamedEntityTag'
p1468
g96
sS'CharacterOffsetEnd'
p1469
S'128'
p1470
sS'Lemma'
p1471
S'to'
p1472
sS'PartOfSpeech'
p1473
S'TO'
p1474
sS'CharacterOffsetBegin'
p1475
S'126'
p1476
stp1477
a(S'U.N.'
p1478
(dp1479
S'NamedEntityTag'
p1480
S'ORGANIZATION'
p1481
sS'CharacterOffsetEnd'
p1482
S'133'
p1483
sS'Lemma'
p1484
S'U.N.'
p1485
sS'PartOfSpeech'
p1486
S'NNP'
p1487
sS'CharacterOffsetBegin'
p1488
S'129'
p1489
stp1490
a(S'headquarters'
p1491
(dp1492
S'NamedEntityTag'
p1493
g96
sS'CharacterOffsetEnd'
p1494
S'146'
p1495
sS'Lemma'
p1496
S'headquarters'
p1497
sS'PartOfSpeech'
p1498
S'NN'
p1499
sS'CharacterOffsetBegin'
p1500
S'134'
p1501
stp1502
a(S'in'
p1503
(dp1504
S'NamedEntityTag'
p1505
g96
sS'CharacterOffsetEnd'
p1506
S'149'
p1507
sS'Lemma'
p1508
S'in'
p1509
sS'PartOfSpeech'
p1510
S'IN'
p1511
sS'CharacterOffsetBegin'
p1512
S'147'
p1513
stp1514
a(S'Geneva'
p1515
(dp1516
S'NamedEntityTag'
p1517
S'LOCATION'
p1518
sS'CharacterOffsetEnd'
p1519
S'156'
p1520
sS'Lemma'
p1521
S'Geneva'
p1522
sS'PartOfSpeech'
p1523
S'NNP'
p1524
sS'CharacterOffsetBegin'
p1525
S'150'
p1526
stp1527
a(g227
(dp1528
S'NamedEntityTag'
p1529
g96
sS'CharacterOffsetEnd'
p1530
S'157'
p1531
sS'Lemma'
p1532
g227
sS'PartOfSpeech'
p1533
g227
sS'CharacterOffsetBegin'
p1534
S'156'
p1535
stp1536
asa(dp1537
g7
S'(ROOT (S (NP (NP (NNP Vincent) (NNP Cochetel)) (, ,) (NP (CD 37)) (, ,) (SBAR (WHNP (WP who)) (S (VP (VBD headed) (NP (NP (DT the) (NN office)) (PP (IN of) (NP (DT the) (NNP U.N.) (NNP High) (NNP Commissioner)))) (PP (IN for) (NP (NNPS Refugees))) (PP (IN in) (NP (DT the) (NNP North) (NNP Ossetia) (NN region)))))) (, ,)) (VP (VBD was) (VP (VBN seized) (PP (IN by) (NP (NP (CD three)) (VP (VBN masked) (NP (NP (NNS gunmen)) (PP (IN in) (NP (DT the) (JJ regional) (NN capital) (NNP Vladikavkaz)))) (PP (IN on) (NP (NNP Jan) (CD 29)))))))) (. .)))'
p1538
sg9
S'Vincent Cochetel, 37, who headed the office of the U.N. High Commissioner for Refugees in the North Ossetia region, was seized by three masked gunmen in the regional capital Vladikavkaz on Jan 29.'
p1539
sg11
(lp1540
(S'root'
p1541
S'ROOT'
p1542
S'seized'
p1543
tp1544
a(S'nn'
p1545
S'Cochetel'
p1546
S'Vincent'
p1547
tp1548
a(S'nsubjpass'
p1549
S'seized'
p1550
S'Cochetel'
p1551
tp1552
a(S'amod'
p1553
S'Cochetel'
p1554
S'37'
p1555
tp1556
a(S'nsubj'
p1557
S'headed'
p1558
S'who'
p1559
tp1560
a(S'rcmod'
p1561
S'Cochetel'
p1562
S'headed'
p1563
tp1564
a(S'det'
p1565
S'office'
p1566
S'the'
p1567
tp1568
a(S'dobj'
p1569
S'headed'
p1570
S'office'
p1571
tp1572
a(S'det'
p1573
S'Commissioner'
p1574
S'the'
p1575
tp1576
a(S'nn'
p1577
S'Commissioner'
p1578
S'U.N.'
p1579
tp1580
a(S'nn'
p1581
S'Commissioner'
p1582
S'High'
p1583
tp1584
a(S'prep_of'
p1585
S'office'
p1586
S'Commissioner'
p1587
tp1588
a(S'prep_for'
p1589
S'headed'
p1590
S'Refugees'
p1591
tp1592
a(S'det'
p1593
S'region'
p1594
S'the'
p1595
tp1596
a(S'nn'
p1597
S'region'
p1598
S'North'
p1599
tp1600
a(S'nn'
p1601
S'region'
p1602
S'Ossetia'
p1603
tp1604
a(S'prep_in'
p1605
S'headed'
p1606
S'region'
p1607
tp1608
a(S'auxpass'
p1609
S'seized'
p1610
S'was'
p1611
tp1612
a(S'agent'
p1613
S'seized'
p1614
S'three'
p1615
tp1616
a(S'partmod'
p1617
S'three'
p1618
S'masked'
p1619
tp1620
a(S'dobj'
p1621
S'masked'
p1622
S'gunmen'
p1623
tp1624
a(S'det'
p1625
S'Vladikavkaz'
p1626
S'the'
p1627
tp1628
a(S'amod'
p1629
S'Vladikavkaz'
p1630
S'regional'
p1631
tp1632
a(S'nn'
p1633
S'Vladikavkaz'
p1634
S'capital'
p1635
tp1636
a(S'prep_in'
p1637
S'gunmen'
p1638
S'Vladikavkaz'
p1639
tp1640
a(S'prep_on'
p1641
S'masked'
p1642
S'Jan'
p1643
tp1644
a(S'num'
p1645
S'Jan'
p1646
S'29'
p1647
tp1648
asg49
(lp1649
(g1541
S'ROOT-0'
p1650
S'seized-24'
p1651
tp1652
a(g1545
S'Cochetel-2'
p1653
S'Vincent-1'
p1654
tp1655
a(g1549
S'seized-24'
p1656
S'Cochetel-2'
p1657
tp1658
a(g1553
S'Cochetel-2'
p1659
S'37-4'
p1660
tp1661
a(g1557
S'headed-7'
p1662
S'who-6'
p1663
tp1664
a(g1561
S'Cochetel-2'
p1665
S'headed-7'
p1666
tp1667
a(g1565
S'office-9'
p1668
S'the-8'
p1669
tp1670
a(g1569
S'headed-7'
p1671
S'office-9'
p1672
tp1673
a(g1573
S'Commissioner-14'
p1674
S'the-11'
p1675
tp1676
a(g1577
S'Commissioner-14'
p1677
S'U.N.-12'
p1678
tp1679
a(g1581
S'Commissioner-14'
p1680
S'High-13'
p1681
tp1682
a(g1585
S'office-9'
p1683
S'Commissioner-14'
p1684
tp1685
a(g1589
S'headed-7'
p1686
S'Refugees-16'
p1687
tp1688
a(g1593
S'region-21'
p1689
S'the-18'
p1690
tp1691
a(g1597
S'region-21'
p1692
S'North-19'
p1693
tp1694
a(g1601
S'region-21'
p1695
S'Ossetia-20'
p1696
tp1697
a(g1605
S'headed-7'
p1698
S'region-21'
p1699
tp1700
a(g1609
S'seized-24'
p1701
S'was-23'
p1702
tp1703
a(g1613
S'seized-24'
p1704
S'three-26'
p1705
tp1706
a(g1617
S'three-26'
p1707
S'masked-27'
p1708
tp1709
a(g1621
S'masked-27'
p1710
S'gunmen-28'
p1711
tp1712
a(g1625
S'Vladikavkaz-33'
p1713
S'the-30'
p1714
tp1715
a(g1629
S'Vladikavkaz-33'
p1716
S'regional-31'
p1717
tp1718
a(g1633
S'Vladikavkaz-33'
p1719
S'capital-32'
p1720
tp1721
a(g1637
S'gunmen-28'
p1722
S'Vladikavkaz-33'
p1723
tp1724
a(g1641
S'masked-27'
p1725
S'Jan-35'
p1726
tp1727
a(g1645
S'Jan-35'
p1728
S'29-36'
p1729
tp1730
asg78
(lp1731
(S'Vincent'
p1732
(dp1733
S'NamedEntityTag'
p1734
S'PERSON'
p1735
sS'CharacterOffsetEnd'
p1736
S'165'
p1737
sS'Lemma'
p1738
S'Vincent'
p1739
sS'PartOfSpeech'
p1740
S'NNP'
p1741
sS'CharacterOffsetBegin'
p1742
S'158'
p1743
stp1744
a(S'Cochetel'
p1745
(dp1746
S'NamedEntityTag'
p1747
S'PERSON'
p1748
sS'CharacterOffsetEnd'
p1749
S'174'
p1750
sS'Lemma'
p1751
S'Cochetel'
p1752
sS'PartOfSpeech'
p1753
S'NNP'
p1754
sS'CharacterOffsetBegin'
p1755
S'166'
p1756
stp1757
a(g180
(dp1758
S'NamedEntityTag'
p1759
g96
sS'CharacterOffsetEnd'
p1760
S'175'
p1761
sS'Lemma'
p1762
g180
sS'PartOfSpeech'
p1763
g180
sS'CharacterOffsetBegin'
p1764
S'174'
p1765
stp1766
a(S'37'
p1767
(dp1768
S'NormalizedNamedEntityTag'
p1769
S'37.0'
p1770
sS'Lemma'
p1771
S'37'
p1772
sS'CharacterOffsetEnd'
p1773
S'178'
p1774
sS'PartOfSpeech'
p1775
S'CD'
p1776
sS'CharacterOffsetBegin'
p1777
S'176'
p1778
sS'NamedEntityTag'
p1779
S'NUMBER'
p1780
stp1781
a(g180
(dp1782
S'NamedEntityTag'
p1783
g96
sS'CharacterOffsetEnd'
p1784
S'179'
p1785
sS'Lemma'
p1786
g180
sS'PartOfSpeech'
p1787
g180
sS'CharacterOffsetBegin'
p1788
S'178'
p1789
stp1790
a(S'who'
p1791
(dp1792
S'NamedEntityTag'
p1793
g96
sS'CharacterOffsetEnd'
p1794
S'183'
p1795
sS'Lemma'
p1796
S'who'
p1797
sS'PartOfSpeech'
p1798
S'WP'
p1799
sS'CharacterOffsetBegin'
p1800
S'180'
p1801
stp1802
a(S'headed'
p1803
(dp1804
S'NamedEntityTag'
p1805
g96
sS'CharacterOffsetEnd'
p1806
S'190'
p1807
sS'Lemma'
p1808
S'head'
p1809
sS'PartOfSpeech'
p1810
S'VBD'
p1811
sS'CharacterOffsetBegin'
p1812
S'184'
p1813
stp1814
a(S'the'
p1815
(dp1816
S'NamedEntityTag'
p1817
g96
sS'CharacterOffsetEnd'
p1818
S'194'
p1819
sS'Lemma'
p1820
S'the'
p1821
sS'PartOfSpeech'
p1822
S'DT'
p1823
sS'CharacterOffsetBegin'
p1824
S'191'
p1825
stp1826
a(S'office'
p1827
(dp1828
S'NamedEntityTag'
p1829
g96
sS'CharacterOffsetEnd'
p1830
S'201'
p1831
sS'Lemma'
p1832
S'office'
p1833
sS'PartOfSpeech'
p1834
S'NN'
p1835
sS'CharacterOffsetBegin'
p1836
S'195'
p1837
stp1838
a(S'of'
p1839
(dp1840
S'NamedEntityTag'
p1841
g96
sS'CharacterOffsetEnd'
p1842
S'204'
p1843
sS'Lemma'
p1844
S'of'
p1845
sS'PartOfSpeech'
p1846
S'IN'
p1847
sS'CharacterOffsetBegin'
p1848
S'202'
p1849
stp1850
a(S'the'
p1851
(dp1852
S'NamedEntityTag'
p1853
g96
sS'CharacterOffsetEnd'
p1854
S'208'
p1855
sS'Lemma'
p1856
S'the'
p1857
sS'PartOfSpeech'
p1858
S'DT'
p1859
sS'CharacterOffsetBegin'
p1860
S'205'
p1861
stp1862
a(S'U.N.'
p1863
(dp1864
S'NamedEntityTag'
p1865
S'ORGANIZATION'
p1866
sS'CharacterOffsetEnd'
p1867
S'213'
p1868
sS'Lemma'
p1869
S'U.N.'
p1870
sS'PartOfSpeech'
p1871
S'NNP'
p1872
sS'CharacterOffsetBegin'
p1873
S'209'
p1874
stp1875
a(S'High'
p1876
(dp1877
S'NamedEntityTag'
p1878
g96
sS'CharacterOffsetEnd'
p1879
S'218'
p1880
sS'Lemma'
p1881
S'High'
p1882
sS'PartOfSpeech'
p1883
S'NNP'
p1884
sS'CharacterOffsetBegin'
p1885
S'214'
p1886
stp1887
a(S'Commissioner'
p1888
(dp1889
S'NamedEntityTag'
p1890
g96
sS'CharacterOffsetEnd'
p1891
S'231'
p1892
sS'Lemma'
p1893
S'Commissioner'
p1894
sS'PartOfSpeech'
p1895
S'NNP'
p1896
sS'CharacterOffsetBegin'
p1897
S'219'
p1898
stp1899
a(S'for'
p1900
(dp1901
S'NamedEntityTag'
p1902
g96
sS'CharacterOffsetEnd'
p1903
S'235'
p1904
sS'Lemma'
p1905
S'for'
p1906
sS'PartOfSpeech'
p1907
S'IN'
p1908
sS'CharacterOffsetBegin'
p1909
S'232'
p1910
stp1911
a(S'Refugees'
p1912
(dp1913
S'NamedEntityTag'
p1914
g96
sS'CharacterOffsetEnd'
p1915
S'244'
p1916
sS'Lemma'
p1917
S'Refugees'
p1918
sS'PartOfSpeech'
p1919
S'NNPS'
p1920
sS'CharacterOffsetBegin'
p1921
S'236'
p1922
stp1923
a(S'in'
p1924
(dp1925
S'NamedEntityTag'
p1926
g96
sS'CharacterOffsetEnd'
p1927
S'247'
p1928
sS'Lemma'
p1929
S'in'
p1930
sS'PartOfSpeech'
p1931
S'IN'
p1932
sS'CharacterOffsetBegin'
p1933
S'245'
p1934
stp1935
a(S'the'
p1936
(dp1937
S'NamedEntityTag'
p1938
g96
sS'CharacterOffsetEnd'
p1939
S'251'
p1940
sS'Lemma'
p1941
S'the'
p1942
sS'PartOfSpeech'
p1943
S'DT'
p1944
sS'CharacterOffsetBegin'
p1945
S'248'
p1946
stp1947
a(S'North'
p1948
(dp1949
S'NamedEntityTag'
p1950
S'LOCATION'
p1951
sS'CharacterOffsetEnd'
p1952
S'257'
p1953
sS'Lemma'
p1954
S'North'
p1955
sS'PartOfSpeech'
p1956
S'NNP'
p1957
sS'CharacterOffsetBegin'
p1958
S'252'
p1959
stp1960
a(S'Ossetia'
p1961
(dp1962
S'NamedEntityTag'
p1963
S'LOCATION'
p1964
sS'CharacterOffsetEnd'
p1965
S'265'
p1966
sS'Lemma'
p1967
S'Ossetia'
p1968
sS'PartOfSpeech'
p1969
S'NNP'
p1970
sS'CharacterOffsetBegin'
p1971
S'258'
p1972
stp1973
a(S'region'
p1974
(dp1975
S'NamedEntityTag'
p1976
g96
sS'CharacterOffsetEnd'
p1977
S'272'
p1978
sS'Lemma'
p1979
S'region'
p1980
sS'PartOfSpeech'
p1981
S'NN'
p1982
sS'CharacterOffsetBegin'
p1983
S'266'
p1984
stp1985
a(g180
(dp1986
S'NamedEntityTag'
p1987
g96
sS'CharacterOffsetEnd'
p1988
S'273'
p1989
sS'Lemma'
p1990
g180
sS'PartOfSpeech'
p1991
g180
sS'CharacterOffsetBegin'
p1992
S'272'
p1993
stp1994
a(S'was'
p1995
(dp1996
S'NamedEntityTag'
p1997
g96
sS'CharacterOffsetEnd'
p1998
S'277'
p1999
sS'Lemma'
p2000
S'be'
p2001
sS'PartOfSpeech'
p2002
S'VBD'
p2003
sS'CharacterOffsetBegin'
p2004
S'274'
p2005
stp2006
a(S'seized'
p2007
(dp2008
S'NamedEntityTag'
p2009
g96
sS'CharacterOffsetEnd'
p2010
S'284'
p2011
sS'Lemma'
p2012
S'seize'
p2013
sS'PartOfSpeech'
p2014
S'VBN'
p2015
sS'CharacterOffsetBegin'
p2016
S'278'
p2017
stp2018
a(S'by'
p2019
(dp2020
S'NamedEntityTag'
p2021
g96
sS'CharacterOffsetEnd'
p2022
S'287'
p2023
sS'Lemma'
p2024
S'by'
p2025
sS'PartOfSpeech'
p2026
S'IN'
p2027
sS'CharacterOffsetBegin'
p2028
S'285'
p2029
stp2030
a(S'three'
p2031
(dp2032
S'NormalizedNamedEntityTag'
p2033
S'3.0'
p2034
sS'Lemma'
p2035
S'three'
p2036
sS'CharacterOffsetEnd'
p2037
S'293'
p2038
sS'PartOfSpeech'
p2039
S'CD'
p2040
sS'CharacterOffsetBegin'
p2041
S'288'
p2042
sS'NamedEntityTag'
p2043
S'NUMBER'
p2044
stp2045
a(S'masked'
p2046
(dp2047
S'NamedEntityTag'
p2048
g96
sS'CharacterOffsetEnd'
p2049
S'300'
p2050
sS'Lemma'
p2051
S'mask'
p2052
sS'PartOfSpeech'
p2053
S'VBN'
p2054
sS'CharacterOffsetBegin'
p2055
S'294'
p2056
stp2057
a(S'gunmen'
p2058
(dp2059
S'NamedEntityTag'
p2060
g96
sS'CharacterOffsetEnd'
p2061
S'307'
p2062
sS'Lemma'
p2063
S'gunman'
p2064
sS'PartOfSpeech'
p2065
S'NNS'
p2066
sS'CharacterOffsetBegin'
p2067
S'301'
p2068
stp2069
a(S'in'
p2070
(dp2071
S'NamedEntityTag'
p2072
g96
sS'CharacterOffsetEnd'
p2073
S'310'
p2074
sS'Lemma'
p2075
S'in'
p2076
sS'PartOfSpeech'
p2077
S'IN'
p2078
sS'CharacterOffsetBegin'
p2079
S'308'
p2080
stp2081
a(S'the'
p2082
(dp2083
S'NamedEntityTag'
p2084
g96
sS'CharacterOffsetEnd'
p2085
S'314'
p2086
sS'Lemma'
p2087
S'the'
p2088
sS'PartOfSpeech'
p2089
S'DT'
p2090
sS'CharacterOffsetBegin'
p2091
S'311'
p2092
stp2093
a(S'regional'
p2094
(dp2095
S'NamedEntityTag'
p2096
g96
sS'CharacterOffsetEnd'
p2097
S'323'
p2098
sS'Lemma'
p2099
S'regional'
p2100
sS'PartOfSpeech'
p2101
S'JJ'
p2102
sS'CharacterOffsetBegin'
p2103
S'315'
p2104
stp2105
a(S'capital'
p2106
(dp2107
S'NamedEntityTag'
p2108
g96
sS'CharacterOffsetEnd'
p2109
S'331'
p2110
sS'Lemma'
p2111
S'capital'
p2112
sS'PartOfSpeech'
p2113
S'NN'
p2114
sS'CharacterOffsetBegin'
p2115
S'324'
p2116
stp2117
a(S'Vladikavkaz'
p2118
(dp2119
S'NamedEntityTag'
p2120
S'LOCATION'
p2121
sS'CharacterOffsetEnd'
p2122
S'343'
p2123
sS'Lemma'
p2124
S'Vladikavkaz'
p2125
sS'PartOfSpeech'
p2126
S'NNP'
p2127
sS'CharacterOffsetBegin'
p2128
S'332'
p2129
stp2130
a(S'on'
p2131
(dp2132
S'NamedEntityTag'
p2133
g96
sS'CharacterOffsetEnd'
p2134
S'346'
p2135
sS'Lemma'
p2136
S'on'
p2137
sS'PartOfSpeech'
p2138
S'IN'
p2139
sS'CharacterOffsetBegin'
p2140
S'344'
p2141
stp2142
a(S'Jan'
p2143
(dp2144
S'NormalizedNamedEntityTag'
p2145
S'XXXX-01-29'
p2146
sS'Timex'
p2147
S'<TIMEX3 tid="t3" type="DATE" value="XXXX-01-29">Jan 29</TIMEX3>'
p2148
sS'Lemma'
p2149
S'Jan'
p2150
sS'CharacterOffsetEnd'
p2151
S'350'
p2152
sS'PartOfSpeech'
p2153
S'NNP'
p2154
sS'CharacterOffsetBegin'
p2155
S'347'
p2156
sS'NamedEntityTag'
p2157
S'DATE'
p2158
stp2159
a(S'29'
p2160
(dp2161
S'NormalizedNamedEntityTag'
p2162
S'XXXX-01-29'
p2163
sS'Timex'
p2164
S'<TIMEX3 tid="t3" type="DATE" value="XXXX-01-29">Jan 29</TIMEX3>'
p2165
sS'Lemma'
p2166
S'29'
p2167
sS'CharacterOffsetEnd'
p2168
S'353'
p2169
sS'PartOfSpeech'
p2170
S'CD'
p2171
sS'CharacterOffsetBegin'
p2172
S'351'
p2173
sS'NamedEntityTag'
p2174
S'DATE'
p2175
stp2176
a(g227
(dp2177
S'NamedEntityTag'
p2178
g96
sS'CharacterOffsetEnd'
p2179
S'354'
p2180
sS'Lemma'
p2181
g227
sS'PartOfSpeech'
p2182
g227
sS'CharacterOffsetBegin'
p2183
S'353'
p2184
stp2185
asa(dp2186
g7
S'(ROOT (S (S (S (NP (NNP Cochetel)) (VP (VBD was) (VP (VBN freed) (PP (IN about) (NP (CD two) (NNS minutes))) (PP (IN into) (NP (NP (DT the) (JJ predawn) (NN operation)) (PP (IN on) (NP (NP (DT the) (NN border)) (PP (IN between) (NP (NP (DT the) (NNS republics)) (PP (IN of) (NP (NNP Chechnya) (CC and) (NNP Ingushetia)))))))))))) (, ,) (CC but) (S (NP (DT a) (JJR longer) (NN firefight)) (VP (VBD broke) (PRT (RP out)) (PP (IN between) (NP (NP (DT the) (NNS kidnappers)) (CC and) (NP (JJ Russian) (NN security) (NNS forces))))))) (, ,) (NP (DT the) (NNP Interfax) (NN news) (NN agency)) (VP (VBD said)) (. .)))'
p2187
sg9
S'Cochetel was freed about two minutes into the predawn operation on the border between the republics of Chechnya and Ingushetia, but a longer firefight broke out between the kidnappers and Russian security forces, the Interfax news agency said.'
p2188
sg11
(lp2189
(S'root'
p2190
S'ROOT'
p2191
S'said'
p2192
tp2193
a(S'nsubjpass'
p2194
S'freed'
p2195
S'Cochetel'
p2196
tp2197
a(S'auxpass'
p2198
S'freed'
p2199
S'was'
p2200
tp2201
a(S'ccomp'
p2202
S'said'
p2203
S'freed'
p2204
tp2205
a(S'num'
p2206
S'minutes'
p2207
S'two'
p2208
tp2209
a(S'prep_about'
p2210
S'freed'
p2211
S'minutes'
p2212
tp2213
a(S'det'
p2214
S'operation'
p2215
S'the'
p2216
tp2217
a(S'amod'
p2218
S'operation'
p2219
S'predawn'
p2220
tp2221
a(S'prep_into'
p2222
S'freed'
p2223
S'operation'
p2224
tp2225
a(S'det'
p2226
S'border'
p2227
S'the'
p2228
tp2229
a(S'prep_on'
p2230
S'operation'
p2231
S'border'
p2232
tp2233
a(S'det'
p2234
S'republics'
p2235
S'the'
p2236
tp2237
a(S'prep_between'
p2238
S'border'
p2239
S'republics'
p2240
tp2241
a(S'prep_of'
p2242
S'republics'
p2243
S'Chechnya'
p2244
tp2245
a(S'conj_and'
p2246
S'Chechnya'
p2247
S'Ingushetia'
p2248
tp2249
a(S'det'
p2250
S'firefight'
p2251
g1177
tp2252
a(S'amod'
p2253
S'firefight'
p2254
S'longer'
p2255
tp2256
a(S'nsubj'
p2257
S'broke'
p2258
S'firefight'
p2259
tp2260
a(S'conj_but'
p2261
S'freed'
p2262
S'broke'
p2263
tp2264
a(S'prt'
p2265
S'broke'
p2266
S'out'
p2267
tp2268
a(S'det'
p2269
S'kidnappers'
p2270
S'the'
p2271
tp2272
a(S'prep_between'
p2273
S'broke'
p2274
S'kidnappers'
p2275
tp2276
a(S'amod'
p2277
S'forces'
p2278
S'Russian'
p2279
tp2280
a(S'nn'
p2281
S'forces'
p2282
S'security'
p2283
tp2284
a(S'conj_and'
p2285
S'kidnappers'
p2286
S'forces'
p2287
tp2288
a(S'det'
p2289
S'agency'
p2290
S'the'
p2291
tp2292
a(S'nn'
p2293
S'agency'
p2294
S'Interfax'
p2295
tp2296
a(S'nn'
p2297
S'agency'
p2298
S'news'
p2299
tp2300
a(S'nsubj'
p2301
S'said'
p2302
S'agency'
p2303
tp2304
asg49
(lp2305
(g2190
S'ROOT-0'
p2306
S'said-40'
p2307
tp2308
a(g2194
S'freed-3'
p2309
S'Cochetel-1'
p2310
tp2311
a(g2198
S'freed-3'
p2312
S'was-2'
p2313
tp2314
a(g2202
S'said-40'
p2315
S'freed-3'
p2316
tp2317
a(g2206
S'minutes-6'
p2318
S'two-5'
p2319
tp2320
a(g2210
S'freed-3'
p2321
S'minutes-6'
p2322
tp2323
a(g2214
S'operation-10'
p2324
S'the-8'
p2325
tp2326
a(g2218
S'operation-10'
p2327
S'predawn-9'
p2328
tp2329
a(g2222
S'freed-3'
p2330
S'operation-10'
p2331
tp2332
a(g2226
S'border-13'
p2333
S'the-12'
p2334
tp2335
a(g2230
S'operation-10'
p2336
S'border-13'
p2337
tp2338
a(g2234
S'republics-16'
p2339
S'the-15'
p2340
tp2341
a(g2238
S'border-13'
p2342
S'republics-16'
p2343
tp2344
a(g2242
S'republics-16'
p2345
S'Chechnya-18'
p2346
tp2347
a(g2246
S'Chechnya-18'
p2348
S'Ingushetia-20'
p2349
tp2350
a(g2250
S'firefight-25'
p2351
S'a-23'
p2352
tp2353
a(g2253
S'firefight-25'
p2354
S'longer-24'
p2355
tp2356
a(g2257
S'broke-26'
p2357
S'firefight-25'
p2358
tp2359
a(g2261
S'freed-3'
p2360
S'broke-26'
p2361
tp2362
a(g2265
S'broke-26'
p2363
S'out-27'
p2364
tp2365
a(g2269
S'kidnappers-30'
p2366
S'the-29'
p2367
tp2368
a(g2273
S'broke-26'
p2369
S'kidnappers-30'
p2370
tp2371
a(g2277
S'forces-34'
p2372
S'Russian-32'
p2373
tp2374
a(g2281
S'forces-34'
p2375
S'security-33'
p2376
tp2377
a(g2285
S'kidnappers-30'
p2378
S'forces-34'
p2379
tp2380
a(g2289
S'agency-39'
p2381
S'the-36'
p2382
tp2383
a(g2293
S'agency-39'
p2384
S'Interfax-37'
p2385
tp2386
a(g2297
S'agency-39'
p2387
S'news-38'
p2388
tp2389
a(g2301
S'said-40'
p2390
S'agency-39'
p2391
tp2392
asg78
(lp2393
(S'Cochetel'
p2394
(dp2395
S'NamedEntityTag'
p2396
S'PERSON'
p2397
sS'CharacterOffsetEnd'
p2398
S'363'
p2399
sS'Lemma'
p2400
S'Cochetel'
p2401
sS'PartOfSpeech'
p2402
S'NNP'
p2403
sS'CharacterOffsetBegin'
p2404
S'355'
p2405
stp2406
a(S'was'
p2407
(dp2408
S'NamedEntityTag'
p2409
g96
sS'CharacterOffsetEnd'
p2410
S'367'
p2411
sS'Lemma'
p2412
S'be'
p2413
sS'PartOfSpeech'
p2414
S'VBD'
p2415
sS'CharacterOffsetBegin'
p2416
S'364'
p2417
stp2418
a(S'freed'
p2419
(dp2420
S'NamedEntityTag'
p2421
g96
sS'CharacterOffsetEnd'
p2422
S'373'
p2423
sS'Lemma'
p2424
S'free'
p2425
sS'PartOfSpeech'
p2426
S'VBN'
p2427
sS'CharacterOffsetBegin'
p2428
S'368'
p2429
stp2430
a(S'about'
p2431
(dp2432
S'NormalizedNamedEntityTag'
p2433
S'PT2M'
p2434
sS'Timex'
p2435
S'<TIMEX3 tid="t4" type="DURATION" value="PT2M">about two minutes</TIMEX3>'
p2436
sS'Lemma'
p2437
S'about'
p2438
sS'CharacterOffsetEnd'
p2439
S'379'
p2440
sS'PartOfSpeech'
p2441
S'IN'
p2442
sS'CharacterOffsetBegin'
p2443
S'374'
p2444
sS'NamedEntityTag'
p2445
S'DURATION'
p2446
stp2447
a(S'two'
p2448
(dp2449
S'NormalizedNamedEntityTag'
p2450
S'PT2M'
p2451
sS'Timex'
p2452
S'<TIMEX3 tid="t4" type="DURATION" value="PT2M">about two minutes</TIMEX3>'
p2453
sS'Lemma'
p2454
S'two'
p2455
sS'CharacterOffsetEnd'
p2456
S'383'
p2457
sS'PartOfSpeech'
p2458
S'CD'
p2459
sS'CharacterOffsetBegin'
p2460
S'380'
p2461
sS'NamedEntityTag'
p2462
S'DURATION'
p2463
stp2464
a(S'minutes'
p2465
(dp2466
S'NormalizedNamedEntityTag'
p2467
S'PT2M'
p2468
sS'Timex'
p2469
S'<TIMEX3 tid="t4" type="DURATION" value="PT2M">about two minutes</TIMEX3>'
p2470
sS'Lemma'
p2471
S'minute'
p2472
sS'CharacterOffsetEnd'
p2473
S'391'
p2474
sS'PartOfSpeech'
p2475
S'NNS'
p2476
sS'CharacterOffsetBegin'
p2477
S'384'
p2478
sS'NamedEntityTag'
p2479
S'DURATION'
p2480
stp2481
a(S'into'
p2482
(dp2483
S'NamedEntityTag'
p2484
g96
sS'CharacterOffsetEnd'
p2485
S'396'
p2486
sS'Lemma'
p2487
S'into'
p2488
sS'PartOfSpeech'
p2489
S'IN'
p2490
sS'CharacterOffsetBegin'
p2491
S'392'
p2492
stp2493
a(S'the'
p2494
(dp2495
S'NamedEntityTag'
p2496
g96
sS'CharacterOffsetEnd'
p2497
S'400'
p2498
sS'Lemma'
p2499
S'the'
p2500
sS'PartOfSpeech'
p2501
S'DT'
p2502
sS'CharacterOffsetBegin'
p2503
S'397'
p2504
stp2505
a(S'predawn'
p2506
(dp2507
S'NamedEntityTag'
p2508
g96
sS'CharacterOffsetEnd'
p2509
S'408'
p2510
sS'Lemma'
p2511
S'predawn'
p2512
sS'PartOfSpeech'
p2513
S'JJ'
p2514
sS'CharacterOffsetBegin'
p2515
S'401'
p2516
stp2517
a(S'operation'
p2518
(dp2519
S'NamedEntityTag'
p2520
g96
sS'CharacterOffsetEnd'
p2521
S'418'
p2522
sS'Lemma'
p2523
S'operation'
p2524
sS'PartOfSpeech'
p2525
S'NN'
p2526
sS'CharacterOffsetBegin'
p2527
S'409'
p2528
stp2529
a(S'on'
p2530
(dp2531
S'NamedEntityTag'
p2532
g96
sS'CharacterOffsetEnd'
p2533
S'421'
p2534
sS'Lemma'
p2535
S'on'
p2536
sS'PartOfSpeech'
p2537
S'IN'
p2538
sS'CharacterOffsetBegin'
p2539
S'419'
p2540
stp2541
a(S'the'
p2542
(dp2543
S'NamedEntityTag'
p2544
g96
sS'CharacterOffsetEnd'
p2545
S'425'
p2546
sS'Lemma'
p2547
S'the'
p2548
sS'PartOfSpeech'
p2549
S'DT'
p2550
sS'CharacterOffsetBegin'
p2551
S'422'
p2552
stp2553
a(S'border'
p2554
(dp2555
S'NamedEntityTag'
p2556
g96
sS'CharacterOffsetEnd'
p2557
S'432'
p2558
sS'Lemma'
p2559
S'border'
p2560
sS'PartOfSpeech'
p2561
S'NN'
p2562
sS'CharacterOffsetBegin'
p2563
S'426'
p2564
stp2565
a(S'between'
p2566
(dp2567
S'NamedEntityTag'
p2568
g96
sS'CharacterOffsetEnd'
p2569
S'440'
p2570
sS'Lemma'
p2571
S'between'
p2572
sS'PartOfSpeech'
p2573
S'IN'
p2574
sS'CharacterOffsetBegin'
p2575
S'433'
p2576
stp2577
a(S'the'
p2578
(dp2579
S'NamedEntityTag'
p2580
g96
sS'CharacterOffsetEnd'
p2581
S'444'
p2582
sS'Lemma'
p2583
S'the'
p2584
sS'PartOfSpeech'
p2585
S'DT'
p2586
sS'CharacterOffsetBegin'
p2587
S'441'
p2588
stp2589
a(S'republics'
p2590
(dp2591
S'NamedEntityTag'
p2592
g96
sS'CharacterOffsetEnd'
p2593
S'454'
p2594
sS'Lemma'
p2595
S'republic'
p2596
sS'PartOfSpeech'
p2597
S'NNS'
p2598
sS'CharacterOffsetBegin'
p2599
S'445'
p2600
stp2601
a(S'of'
p2602
(dp2603
S'NamedEntityTag'
p2604
g96
sS'CharacterOffsetEnd'
p2605
S'457'
p2606
sS'Lemma'
p2607
S'of'
p2608
sS'PartOfSpeech'
p2609
S'IN'
p2610
sS'CharacterOffsetBegin'
p2611
S'455'
p2612
stp2613
a(S'Chechnya'
p2614
(dp2615
S'NamedEntityTag'
p2616
S'LOCATION'
p2617
sS'CharacterOffsetEnd'
p2618
S'466'
p2619
sS'Lemma'
p2620
S'Chechnya'
p2621
sS'PartOfSpeech'
p2622
S'NNP'
p2623
sS'CharacterOffsetBegin'
p2624
S'458'
p2625
stp2626
a(S'and'
p2627
(dp2628
S'NamedEntityTag'
p2629
g96
sS'CharacterOffsetEnd'
p2630
S'470'
p2631
sS'Lemma'
p2632
S'and'
p2633
sS'PartOfSpeech'
p2634
S'CC'
p2635
sS'CharacterOffsetBegin'
p2636
S'467'
p2637
stp2638
a(S'Ingushetia'
p2639
(dp2640
S'NamedEntityTag'
p2641
S'LOCATION'
p2642
sS'CharacterOffsetEnd'
p2643
S'481'
p2644
sS'Lemma'
p2645
S'Ingushetia'
p2646
sS'PartOfSpeech'
p2647
S'NNP'
p2648
sS'CharacterOffsetBegin'
p2649
S'471'
p2650
stp2651
a(g180
(dp2652
S'NamedEntityTag'
p2653
g96
sS'CharacterOffsetEnd'
p2654
S'482'
p2655
sS'Lemma'
p2656
g180
sS'PartOfSpeech'
p2657
g180
sS'CharacterOffsetBegin'
p2658
S'481'
p2659
stp2660
a(S'but'
p2661
(dp2662
S'NamedEntityTag'
p2663
g96
sS'CharacterOffsetEnd'
p2664
S'486'
p2665
sS'Lemma'
p2666
S'but'
p2667
sS'PartOfSpeech'
p2668
S'CC'
p2669
sS'CharacterOffsetBegin'
p2670
S'483'
p2671
stp2672
a(g1177
(dp2673
S'NamedEntityTag'
p2674
g96
sS'CharacterOffsetEnd'
p2675
S'488'
p2676
sS'Lemma'
p2677
g1177
sS'PartOfSpeech'
p2678
S'DT'
p2679
sS'CharacterOffsetBegin'
p2680
S'487'
p2681
stp2682
a(S'longer'
p2683
(dp2684
S'NamedEntityTag'
p2685
g96
sS'CharacterOffsetEnd'
p2686
S'495'
p2687
sS'Lemma'
p2688
S'longer'
p2689
sS'PartOfSpeech'
p2690
S'JJR'
p2691
sS'CharacterOffsetBegin'
p2692
S'489'
p2693
stp2694
a(S'firefight'
p2695
(dp2696
S'NamedEntityTag'
p2697
g96
sS'CharacterOffsetEnd'
p2698
S'505'
p2699
sS'Lemma'
p2700
S'firefight'
p2701
sS'PartOfSpeech'
p2702
S'NN'
p2703
sS'CharacterOffsetBegin'
p2704
S'496'
p2705
stp2706
a(S'broke'
p2707
(dp2708
S'NamedEntityTag'
p2709
g96
sS'CharacterOffsetEnd'
p2710
S'511'
p2711
sS'Lemma'
p2712
S'break'
p2713
sS'PartOfSpeech'
p2714
S'VBD'
p2715
sS'CharacterOffsetBegin'
p2716
S'506'
p2717
stp2718
a(S'out'
p2719
(dp2720
S'NamedEntityTag'
p2721
g96
sS'CharacterOffsetEnd'
p2722
S'515'
p2723
sS'Lemma'
p2724
S'out'
p2725
sS'PartOfSpeech'
p2726
S'RP'
p2727
sS'CharacterOffsetBegin'
p2728
S'512'
p2729
stp2730
a(S'between'
p2731
(dp2732
S'NamedEntityTag'
p2733
g96
sS'CharacterOffsetEnd'
p2734
S'523'
p2735
sS'Lemma'
p2736
S'between'
p2737
sS'PartOfSpeech'
p2738
S'IN'
p2739
sS'CharacterOffsetBegin'
p2740
S'516'
p2741
stp2742
a(S'the'
p2743
(dp2744
S'NamedEntityTag'
p2745
g96
sS'CharacterOffsetEnd'
p2746
S'527'
p2747
sS'Lemma'
p2748
S'the'
p2749
sS'PartOfSpeech'
p2750
S'DT'
p2751
sS'CharacterOffsetBegin'
p2752
S'524'
p2753
stp2754
a(S'kidnappers'
p2755
(dp2756
S'NamedEntityTag'
p2757
g96
sS'CharacterOffsetEnd'
p2758
S'538'
p2759
sS'Lemma'
p2760
S'kidnapper'
p2761
sS'PartOfSpeech'
p2762
S'NNS'
p2763
sS'CharacterOffsetBegin'
p2764
S'528'
p2765
stp2766
a(S'and'
p2767
(dp2768
S'NamedEntityTag'
p2769
g96
sS'CharacterOffsetEnd'
p2770
S'542'
p2771
sS'Lemma'
p2772
S'and'
p2773
sS'PartOfSpeech'
p2774
S'CC'
p2775
sS'CharacterOffsetBegin'
p2776
S'539'
p2777
stp2778
a(S'Russian'
p2779
(dp2780
S'NamedEntityTag'
p2781
S'MISC'
p2782
sS'CharacterOffsetEnd'
p2783
S'550'
p2784
sS'Lemma'
p2785
S'russian'
p2786
sS'PartOfSpeech'
p2787
S'JJ'
p2788
sS'CharacterOffsetBegin'
p2789
S'543'
p2790
stp2791
a(S'security'
p2792
(dp2793
S'NamedEntityTag'
p2794
g96
sS'CharacterOffsetEnd'
p2795
S'559'
p2796
sS'Lemma'
p2797
S'security'
p2798
sS'PartOfSpeech'
p2799
S'NN'
p2800
sS'CharacterOffsetBegin'
p2801
S'551'
p2802
stp2803
a(S'forces'
p2804
(dp2805
S'NamedEntityTag'
p2806
g96
sS'CharacterOffsetEnd'
p2807
S'566'
p2808
sS'Lemma'
p2809
S'force'
p2810
sS'PartOfSpeech'
p2811
S'NNS'
p2812
sS'CharacterOffsetBegin'
p2813
S'560'
p2814
stp2815
a(g180
(dp2816
S'NamedEntityTag'
p2817
g96
sS'CharacterOffsetEnd'
p2818
S'567'
p2819
sS'Lemma'
p2820
g180
sS'PartOfSpeech'
p2821
g180
sS'CharacterOffsetBegin'
p2822
S'566'
p2823
stp2824
a(S'the'
p2825
(dp2826
S'NamedEntityTag'
p2827
g96
sS'CharacterOffsetEnd'
p2828
S'571'
p2829
sS'Lemma'
p2830
S'the'
p2831
sS'PartOfSpeech'
p2832
S'DT'
p2833
sS'CharacterOffsetBegin'
p2834
S'568'
p2835
stp2836
a(S'Interfax'
p2837
(dp2838
S'NamedEntityTag'
p2839
S'ORGANIZATION'
p2840
sS'CharacterOffsetEnd'
p2841
S'580'
p2842
sS'Lemma'
p2843
S'Interfax'
p2844
sS'PartOfSpeech'
p2845
S'NNP'
p2846
sS'CharacterOffsetBegin'
p2847
S'572'
p2848
stp2849
a(S'news'
p2850
(dp2851
S'NamedEntityTag'
p2852
g96
sS'CharacterOffsetEnd'
p2853
S'585'
p2854
sS'Lemma'
p2855
S'news'
p2856
sS'PartOfSpeech'
p2857
S'NN'
p2858
sS'CharacterOffsetBegin'
p2859
S'581'
p2860
stp2861
a(S'agency'
p2862
(dp2863
S'NamedEntityTag'
p2864
g96
sS'CharacterOffsetEnd'
p2865
S'592'
p2866
sS'Lemma'
p2867
S'agency'
p2868
sS'PartOfSpeech'
p2869
S'NN'
p2870
sS'CharacterOffsetBegin'
p2871
S'586'
p2872
stp2873
a(S'said'
p2874
(dp2875
S'NamedEntityTag'
p2876
g96
sS'CharacterOffsetEnd'
p2877
S'597'
p2878
sS'Lemma'
p2879
S'say'
p2880
sS'PartOfSpeech'
p2881
S'VBD'
p2882
sS'CharacterOffsetBegin'
p2883
S'593'
p2884
stp2885
a(g227
(dp2886
S'NamedEntityTag'
p2887
g96
sS'CharacterOffsetEnd'
p2888
S'598'
p2889
sS'Lemma'
p2890
g227
sS'PartOfSpeech'
p2891
g227
sS'CharacterOffsetBegin'
p2892
S'597'
p2893
stp2894
asa(dp2895
g7
S'(ROOT (S (S (NP (NNP Cochetel)) (VP (VBD was) (ADJP (JJ unharmed)))) (, ,) (CC but) (S (NP (PRP he)) (VP (VBD said) (SBAR (S (NP (NP (CD three)) (PP (IN of) (NP (DT the) (NNS kidnappers)))) (VP (VBD had) (VP (VBN been) (VP (VBN killed)))))))) (. .)))'
p2896
sg9
S'Cochetel was unharmed, but he said three of the kidnappers had been killed.'
p2897
sg11
(lp2898
(S'root'
p2899
S'ROOT'
p2900
S'unharmed'
p2901
tp2902
a(S'nsubj'
p2903
S'unharmed'
p2904
S'Cochetel'
p2905
tp2906
a(S'cop'
p2907
S'unharmed'
p2908
S'was'
p2909
tp2910
a(S'nsubj'
p2911
S'said'
p2912
S'he'
p2913
tp2914
a(S'conj_but'
p2915
S'unharmed'
p2916
S'said'
p2917
tp2918
a(S'nsubjpass'
p2919
S'killed'
p2920
S'three'
p2921
tp2922
a(S'det'
p2923
S'kidnappers'
p2924
S'the'
p2925
tp2926
a(S'prep_of'
p2927
S'three'
p2928
S'kidnappers'
p2929
tp2930
a(S'aux'
p2931
S'killed'
p2932
S'had'
p2933
tp2934
a(S'auxpass'
p2935
S'killed'
p2936
S'been'
p2937
tp2938
a(S'ccomp'
p2939
S'said'
p2940
S'killed'
p2941
tp2942
asg49
(lp2943
(g2899
S'ROOT-0'
p2944
S'unharmed-3'
p2945
tp2946
a(g2903
S'unharmed-3'
p2947
S'Cochetel-1'
p2948
tp2949
a(g2907
S'unharmed-3'
p2950
S'was-2'
p2951
tp2952
a(g2911
S'said-7'
p2953
S'he-6'
p2954
tp2955
a(g2915
S'unharmed-3'
p2956
S'said-7'
p2957
tp2958
a(g2919
S'killed-14'
p2959
S'three-8'
p2960
tp2961
a(g2923
S'kidnappers-11'
p2962
S'the-10'
p2963
tp2964
a(g2927
S'three-8'
p2965
S'kidnappers-11'
p2966
tp2967
a(g2931
S'killed-14'
p2968
S'had-12'
p2969
tp2970
a(g2935
S'killed-14'
p2971
S'been-13'
p2972
tp2973
a(g2939
S'said-7'
p2974
S'killed-14'
p2975
tp2976
asg78
(lp2977
(S'Cochetel'
p2978
(dp2979
S'NamedEntityTag'
p2980
S'PERSON'
p2981
sS'CharacterOffsetEnd'
p2982
S'607'
p2983
sS'Lemma'
p2984
S'Cochetel'
p2985
sS'PartOfSpeech'
p2986
S'NNP'
p2987
sS'CharacterOffsetBegin'
p2988
S'599'
p2989
stp2990
a(S'was'
p2991
(dp2992
S'NamedEntityTag'
p2993
g96
sS'CharacterOffsetEnd'
p2994
S'611'
p2995
sS'Lemma'
p2996
S'be'
p2997
sS'PartOfSpeech'
p2998
S'VBD'
p2999
sS'CharacterOffsetBegin'
p3000
S'608'
p3001
stp3002
a(S'unharmed'
p3003
(dp3004
S'NamedEntityTag'
p3005
g96
sS'CharacterOffsetEnd'
p3006
S'620'
p3007
sS'Lemma'
p3008
S'unharmed'
p3009
sS'PartOfSpeech'
p3010
S'JJ'
p3011
sS'CharacterOffsetBegin'
p3012
S'612'
p3013
stp3014
a(g180
(dp3015
S'NamedEntityTag'
p3016
g96
sS'CharacterOffsetEnd'
p3017
S'621'
p3018
sS'Lemma'
p3019
g180
sS'PartOfSpeech'
p3020
g180
sS'CharacterOffsetBegin'
p3021
S'620'
p3022
stp3023
a(S'but'
p3024
(dp3025
S'NamedEntityTag'
p3026
g96
sS'CharacterOffsetEnd'
p3027
S'625'
p3028
sS'Lemma'
p3029
S'but'
p3030
sS'PartOfSpeech'
p3031
S'CC'
p3032
sS'CharacterOffsetBegin'
p3033
S'622'
p3034
stp3035
a(S'he'
p3036
(dp3037
S'NamedEntityTag'
p3038
g96
sS'CharacterOffsetEnd'
p3039
S'628'
p3040
sS'Lemma'
p3041
S'he'
p3042
sS'PartOfSpeech'
p3043
S'PRP'
p3044
sS'CharacterOffsetBegin'
p3045
S'626'
p3046
stp3047
a(S'said'
p3048
(dp3049
S'NamedEntityTag'
p3050
g96
sS'CharacterOffsetEnd'
p3051
S'633'
p3052
sS'Lemma'
p3053
S'say'
p3054
sS'PartOfSpeech'
p3055
S'VBD'
p3056
sS'CharacterOffsetBegin'
p3057
S'629'
p3058
stp3059
a(S'three'
p3060
(dp3061
S'NormalizedNamedEntityTag'
p3062
S'3.0'
p3063
sS'Lemma'
p3064
S'three'
p3065
sS'CharacterOffsetEnd'
p3066
S'639'
p3067
sS'PartOfSpeech'
p3068
S'CD'
p3069
sS'CharacterOffsetBegin'
p3070
S'634'
p3071
sS'NamedEntityTag'
p3072
S'NUMBER'
p3073
stp3074
a(S'of'
p3075
(dp3076
S'NamedEntityTag'
p3077
g96
sS'CharacterOffsetEnd'
p3078
S'642'
p3079
sS'Lemma'
p3080
S'of'
p3081
sS'PartOfSpeech'
p3082
S'IN'
p3083
sS'CharacterOffsetBegin'
p3084
S'640'
p3085
stp3086
a(S'the'
p3087
(dp3088
S'NamedEntityTag'
p3089
g96
sS'CharacterOffsetEnd'
p3090
S'646'
p3091
sS'Lemma'
p3092
S'the'
p3093
sS'PartOfSpeech'
p3094
S'DT'
p3095
sS'CharacterOffsetBegin'
p3096
S'643'
p3097
stp3098
a(S'kidnappers'
p3099
(dp3100
S'NamedEntityTag'
p3101
g96
sS'CharacterOffsetEnd'
p3102
S'657'
p3103
sS'Lemma'
p3104
S'kidnapper'
p3105
sS'PartOfSpeech'
p3106
S'NNS'
p3107
sS'CharacterOffsetBegin'
p3108
S'647'
p3109
stp3110
a(S'had'
p3111
(dp3112
S'NamedEntityTag'
p3113
g96
sS'CharacterOffsetEnd'
p3114
S'661'
p3115
sS'Lemma'
p3116
S'have'
p3117
sS'PartOfSpeech'
p3118
S'VBD'
p3119
sS'CharacterOffsetBegin'
p3120
S'658'
p3121
stp3122
a(S'been'
p3123
(dp3124
S'NamedEntityTag'
p3125
g96
sS'CharacterOffsetEnd'
p3126
S'666'
p3127
sS'Lemma'
p3128
S'be'
p3129
sS'PartOfSpeech'
p3130
S'VBN'
p3131
sS'CharacterOffsetBegin'
p3132
S'662'
p3133
stp3134
a(S'killed'
p3135
(dp3136
S'NamedEntityTag'
p3137
g96
sS'CharacterOffsetEnd'
p3138
S'673'
p3139
sS'Lemma'
p3140
S'kill'
p3141
sS'PartOfSpeech'
p3142
S'VBN'
p3143
sS'CharacterOffsetBegin'
p3144
S'667'
p3145
stp3146
a(g227
(dp3147
S'NamedEntityTag'
p3148
g96
sS'CharacterOffsetEnd'
p3149
S'674'
p3150
sS'Lemma'
p3151
g227
sS'PartOfSpeech'
p3152
g227
sS'CharacterOffsetBegin'
p3153
S'673'
p3154
stp3155
asa(dp3156
g7
S'(ROOT (S (PP (IN In) (NP (NP (NN footage)) (PP (IN of) (NP (NP (DT the) (NN operation) (NN broadcast)) (PP (IN by) (NP (NNP Russias) (NNP NTV) (NN television) (NN station))))))) (, ,) (NP (NNP Cochetel)) (VP (VBD was) (VP (VBN shown) (S (VP (VBG lying) (ADJP (JJ face-down)))) (, ,) (ADJP (JJ hand-cuffed)) (, ,) (PP (IN behind) (NP (DT a) (JJ white) (NN van))))) (. .)))'
p3157
sg9
S'In footage of the operation broadcast by Russias NTV television station, Cochetel was shown lying face-down, hand-cuffed, behind a white van.'
p3158
sg11
(lp3159
(S'root'
p3160
S'ROOT'
p3161
S'shown'
p3162
tp3163
a(S'prep_in'
p3164
S'shown'
p3165
S'footage'
p3166
tp3167
a(S'det'
p3168
S'broadcast'
p3169
S'the'
p3170
tp3171
a(S'nn'
p3172
S'broadcast'
p3173
S'operation'
p3174
tp3175
a(S'prep_of'
p3176
S'footage'
p3177
S'broadcast'
p3178
tp3179
a(S'nn'
p3180
S'station'
p3181
S'Russias'
p3182
tp3183
a(S'nn'
p3184
S'station'
p3185
S'NTV'
p3186
tp3187
a(S'nn'
p3188
S'station'
p3189
S'television'
p3190
tp3191
a(S'prep_by'
p3192
S'broadcast'
p3193
S'station'
p3194
tp3195
a(S'nsubjpass'
p3196
S'shown'
p3197
S'Cochetel'
p3198
tp3199
a(S'auxpass'
p3200
S'shown'
p3201
S'was'
p3202
tp3203
a(S'xcomp'
p3204
S'shown'
p3205
S'lying'
p3206
tp3207
a(S'acomp'
p3208
S'lying'
p3209
S'face-down'
p3210
tp3211
a(S'acomp'
p3212
S'shown'
p3213
S'hand-cuffed'
p3214
tp3215
a(S'det'
p3216
S'van'
p3217
g1177
tp3218
a(S'amod'
p3219
S'van'
p3220
S'white'
p3221
tp3222
a(S'prep_behind'
p3223
S'shown'
p3224
S'van'
p3225
tp3226
asg49
(lp3227
(g3160
S'ROOT-0'
p3228
S'shown-15'
p3229
tp3230
a(g3164
S'shown-15'
p3231
S'footage-2'
p3232
tp3233
a(g3168
S'broadcast-6'
p3234
S'the-4'
p3235
tp3236
a(g3172
S'broadcast-6'
p3237
S'operation-5'
p3238
tp3239
a(g3176
S'footage-2'
p3240
S'broadcast-6'
p3241
tp3242
a(g3180
S'station-11'
p3243
S'Russias-8'
p3244
tp3245
a(g3184
S'station-11'
p3246
S'NTV-9'
p3247
tp3248
a(g3188
S'station-11'
p3249
S'television-10'
p3250
tp3251
a(g3192
S'broadcast-6'
p3252
S'station-11'
p3253
tp3254
a(g3196
S'shown-15'
p3255
S'Cochetel-13'
p3256
tp3257
a(g3200
S'shown-15'
p3258
S'was-14'
p3259
tp3260
a(g3204
S'shown-15'
p3261
S'lying-16'
p3262
tp3263
a(g3208
S'lying-16'
p3264
S'face-down-17'
p3265
tp3266
a(g3212
S'shown-15'
p3267
S'hand-cuffed-19'
p3268
tp3269
a(g3216
S'van-24'
p3270
S'a-22'
p3271
tp3272
a(g3219
S'van-24'
p3273
S'white-23'
p3274
tp3275
a(g3223
S'shown-15'
p3276
S'van-24'
p3277
tp3278
asg78
(lp3279
(S'In'
p3280
(dp3281
S'NamedEntityTag'
p3282
g96
sS'CharacterOffsetEnd'
p3283
S'677'
p3284
sS'Lemma'
p3285
S'in'
p3286
sS'PartOfSpeech'
p3287
S'IN'
p3288
sS'CharacterOffsetBegin'
p3289
S'675'
p3290
stp3291
a(S'footage'
p3292
(dp3293
S'NamedEntityTag'
p3294
g96
sS'CharacterOffsetEnd'
p3295
S'685'
p3296
sS'Lemma'
p3297
S'footage'
p3298
sS'PartOfSpeech'
p3299
S'NN'
p3300
sS'CharacterOffsetBegin'
p3301
S'678'
p3302
stp3303
a(S'of'
p3304
(dp3305
S'NamedEntityTag'
p3306
g96
sS'CharacterOffsetEnd'
p3307
S'688'
p3308
sS'Lemma'
p3309
S'of'
p3310
sS'PartOfSpeech'
p3311
S'IN'
p3312
sS'CharacterOffsetBegin'
p3313
S'686'
p3314
stp3315
a(S'the'
p3316
(dp3317
S'NamedEntityTag'
p3318
g96
sS'CharacterOffsetEnd'
p3319
S'692'
p3320
sS'Lemma'
p3321
S'the'
p3322
sS'PartOfSpeech'
p3323
S'DT'
p3324
sS'CharacterOffsetBegin'
p3325
S'689'
p3326
stp3327
a(S'operation'
p3328
(dp3329
S'NamedEntityTag'
p3330
g96
sS'CharacterOffsetEnd'
p3331
S'702'
p3332
sS'Lemma'
p3333
S'operation'
p3334
sS'PartOfSpeech'
p3335
S'NN'
p3336
sS'CharacterOffsetBegin'
p3337
S'693'
p3338
stp3339
a(S'broadcast'
p3340
(dp3341
S'NamedEntityTag'
p3342
g96
sS'CharacterOffsetEnd'
p3343
S'712'
p3344
sS'Lemma'
p3345
S'broadcast'
p3346
sS'PartOfSpeech'
p3347
S'NN'
p3348
sS'CharacterOffsetBegin'
p3349
S'703'
p3350
stp3351
a(S'by'
p3352
(dp3353
S'NamedEntityTag'
p3354
g96
sS'CharacterOffsetEnd'
p3355
S'715'
p3356
sS'Lemma'
p3357
S'by'
p3358
sS'PartOfSpeech'
p3359
S'IN'
p3360
sS'CharacterOffsetBegin'
p3361
S'713'
p3362
stp3363
a(S'Russias'
p3364
(dp3365
S'NamedEntityTag'
p3366
S'ORGANIZATION'
p3367
sS'CharacterOffsetEnd'
p3368
S'723'
p3369
sS'Lemma'
p3370
S'Russias'
p3371
sS'PartOfSpeech'
p3372
S'NNP'
p3373
sS'CharacterOffsetBegin'
p3374
S'716'
p3375
stp3376
a(S'NTV'
p3377
(dp3378
S'NamedEntityTag'
p3379
S'ORGANIZATION'
p3380
sS'CharacterOffsetEnd'
p3381
S'727'
p3382
sS'Lemma'
p3383
S'NTV'
p3384
sS'PartOfSpeech'
p3385
S'NNP'
p3386
sS'CharacterOffsetBegin'
p3387
S'724'
p3388
stp3389
a(S'television'
p3390
(dp3391
S'NamedEntityTag'
p3392
g96
sS'CharacterOffsetEnd'
p3393
S'738'
p3394
sS'Lemma'
p3395
S'television'
p3396
sS'PartOfSpeech'
p3397
S'NN'
p3398
sS'CharacterOffsetBegin'
p3399
S'728'
p3400
stp3401
a(S'station'
p3402
(dp3403
S'NamedEntityTag'
p3404
g96
sS'CharacterOffsetEnd'
p3405
S'746'
p3406
sS'Lemma'
p3407
S'station'
p3408
sS'PartOfSpeech'
p3409
S'NN'
p3410
sS'CharacterOffsetBegin'
p3411
S'739'
p3412
stp3413
a(g180
(dp3414
S'NamedEntityTag'
p3415
g96
sS'CharacterOffsetEnd'
p3416
S'747'
p3417
sS'Lemma'
p3418
g180
sS'PartOfSpeech'
p3419
g180
sS'CharacterOffsetBegin'
p3420
S'746'
p3421
stp3422
a(S'Cochetel'
p3423
(dp3424
S'NamedEntityTag'
p3425
S'PERSON'
p3426
sS'CharacterOffsetEnd'
p3427
S'756'
p3428
sS'Lemma'
p3429
S'Cochetel'
p3430
sS'PartOfSpeech'
p3431
S'NNP'
p3432
sS'CharacterOffsetBegin'
p3433
S'748'
p3434
stp3435
a(S'was'
p3436
(dp3437
S'NamedEntityTag'
p3438
g96
sS'CharacterOffsetEnd'
p3439
S'760'
p3440
sS'Lemma'
p3441
S'be'
p3442
sS'PartOfSpeech'
p3443
S'VBD'
p3444
sS'CharacterOffsetBegin'
p3445
S'757'
p3446
stp3447
a(S'shown'
p3448
(dp3449
S'NamedEntityTag'
p3450
g96
sS'CharacterOffsetEnd'
p3451
S'766'
p3452
sS'Lemma'
p3453
S'show'
p3454
sS'PartOfSpeech'
p3455
S'VBN'
p3456
sS'CharacterOffsetBegin'
p3457
S'761'
p3458
stp3459
a(S'lying'
p3460
(dp3461
S'NamedEntityTag'
p3462
g96
sS'CharacterOffsetEnd'
p3463
S'772'
p3464
sS'Lemma'
p3465
S'lie'
p3466
sS'PartOfSpeech'
p3467
S'VBG'
p3468
sS'CharacterOffsetBegin'
p3469
S'767'
p3470
stp3471
a(S'face-down'
p3472
(dp3473
S'NamedEntityTag'
p3474
g96
sS'CharacterOffsetEnd'
p3475
S'782'
p3476
sS'Lemma'
p3477
S'face-down'
p3478
sS'PartOfSpeech'
p3479
S'JJ'
p3480
sS'CharacterOffsetBegin'
p3481
S'773'
p3482
stp3483
a(g180
(dp3484
S'NamedEntityTag'
p3485
g96
sS'CharacterOffsetEnd'
p3486
S'783'
p3487
sS'Lemma'
p3488
g180
sS'PartOfSpeech'
p3489
g180
sS'CharacterOffsetBegin'
p3490
S'782'
p3491
stp3492
a(S'hand-cuffed'
p3493
(dp3494
S'NamedEntityTag'
p3495
g96
sS'CharacterOffsetEnd'
p3496
S'795'
p3497
sS'Lemma'
p3498
S'hand-cuffed'
p3499
sS'PartOfSpeech'
p3500
S'JJ'
p3501
sS'CharacterOffsetBegin'
p3502
S'784'
p3503
stp3504
a(g180
(dp3505
S'NamedEntityTag'
p3506
g96
sS'CharacterOffsetEnd'
p3507
S'796'
p3508
sS'Lemma'
p3509
g180
sS'PartOfSpeech'
p3510
g180
sS'CharacterOffsetBegin'
p3511
S'795'
p3512
stp3513
a(S'behind'
p3514
(dp3515
S'NamedEntityTag'
p3516
g96
sS'CharacterOffsetEnd'
p3517
S'803'
p3518
sS'Lemma'
p3519
S'behind'
p3520
sS'PartOfSpeech'
p3521
S'IN'
p3522
sS'CharacterOffsetBegin'
p3523
S'797'
p3524
stp3525
a(g1177
(dp3526
S'NamedEntityTag'
p3527
g96
sS'CharacterOffsetEnd'
p3528
S'805'
p3529
sS'Lemma'
p3530
g1177
sS'PartOfSpeech'
p3531
S'DT'
p3532
sS'CharacterOffsetBegin'
p3533
S'804'
p3534
stp3535
a(S'white'
p3536
(dp3537
S'NamedEntityTag'
p3538
g96
sS'CharacterOffsetEnd'
p3539
S'811'
p3540
sS'Lemma'
p3541
S'white'
p3542
sS'PartOfSpeech'
p3543
S'JJ'
p3544
sS'CharacterOffsetBegin'
p3545
S'806'
p3546
stp3547
a(S'van'
p3548
(dp3549
S'NamedEntityTag'
p3550
g96
sS'CharacterOffsetEnd'
p3551
S'815'
p3552
sS'Lemma'
p3553
S'van'
p3554
sS'PartOfSpeech'
p3555
S'NN'
p3556
sS'CharacterOffsetBegin'
p3557
S'812'
p3558
stp3559
a(g227
(dp3560
S'NamedEntityTag'
p3561
g96
sS'CharacterOffsetEnd'
p3562
S'816'
p3563
sS'Lemma'
p3564
g227
sS'PartOfSpeech'
p3565
g227
sS'CharacterOffsetBegin'
p3566
S'815'
p3567
stp3568
asa(dp3569
g7
S'(ROOT (S (S (NP (NP (JJ Russian) (NN security) (NNS officers)) (PP (IN in) (NP (NNS masks) (CC and) (NN camouflage)))) (VP (VBD stood) (PP (IN over) (NP (PRP him))) (ADVP (RB protectively)))) (, ,) (S (NP (RB then)) (VP (VBD dragged) (SBAR (S (NP (PRP him)) (ADVP (RB away) (PP (IN as) (NP (NN gunfire)))) (VP (VBD erupted)))))) (CC and) (S (NP (NNS bullets)) (VP (VBD bounced) (PRT (RP off)) (NP (DT the) (NN van)))) (. .)))'
p3570
sg9
S'Russian security officers in masks and camouflage stood over him protectively, then dragged him away as gunfire erupted and bullets bounced off the van.'
p3571
sg11
(lp3572
(S'root'
p3573
S'ROOT'
p3574
S'stood'
p3575
tp3576
a(S'amod'
p3577
S'officers'
p3578
S'Russian'
p3579
tp3580
a(S'nn'
p3581
S'officers'
p3582
S'security'
p3583
tp3584
a(S'nsubj'
p3585
S'stood'
p3586
S'officers'
p3587
tp3588
a(S'prep_in'
p3589
S'officers'
p3590
S'masks'
p3591
tp3592
a(S'conj_and'
p3593
S'masks'
p3594
S'camouflage'
p3595
tp3596
a(S'prep_over'
p3597
S'stood'
p3598
S'him'
p3599
tp3600
a(S'advmod'
p3601
S'stood'
p3602
S'protectively'
p3603
tp3604
a(S'nsubj'
p3605
S'dragged'
p3606
S'then'
p3607
tp3608
a(S'conj_and'
p3609
S'stood'
p3610
S'dragged'
p3611
tp3612
a(S'nsubj'
p3613
S'erupted'
p3614
S'him'
p3615
tp3616
a(S'advmod'
p3617
S'erupted'
p3618
S'away'
p3619
tp3620
a(S'prep_as'
p3621
S'away'
p3622
S'gunfire'
p3623
tp3624
a(S'ccomp'
p3625
S'dragged'
p3626
S'erupted'
p3627
tp3628
a(S'nsubj'
p3629
S'bounced'
p3630
S'bullets'
p3631
tp3632
a(S'conj_and'
p3633
S'stood'
p3634
S'bounced'
p3635
tp3636
a(S'prt'
p3637
S'bounced'
p3638
S'off'
p3639
tp3640
a(S'det'
p3641
S'van'
p3642
S'the'
p3643
tp3644
a(S'dobj'
p3645
S'bounced'
p3646
S'van'
p3647
tp3648
asg49
(lp3649
(g3573
S'ROOT-0'
p3650
S'stood-8'
p3651
tp3652
a(g3577
S'officers-3'
p3653
S'Russian-1'
p3654
tp3655
a(g3581
S'officers-3'
p3656
S'security-2'
p3657
tp3658
a(g3585
S'stood-8'
p3659
S'officers-3'
p3660
tp3661
a(g3589
S'officers-3'
p3662
S'masks-5'
p3663
tp3664
a(g3593
S'masks-5'
p3665
S'camouflage-7'
p3666
tp3667
a(g3597
S'stood-8'
p3668
S'him-10'
p3669
tp3670
a(g3601
S'stood-8'
p3671
S'protectively-11'
p3672
tp3673
a(g3605
S'dragged-14'
p3674
S'then-13'
p3675
tp3676
a(g3609
S'stood-8'
p3677
S'dragged-14'
p3678
tp3679
a(g3613
S'erupted-19'
p3680
S'him-15'
p3681
tp3682
a(g3617
S'erupted-19'
p3683
S'away-16'
p3684
tp3685
a(g3621
S'away-16'
p3686
S'gunfire-18'
p3687
tp3688
a(g3625
S'dragged-14'
p3689
S'erupted-19'
p3690
tp3691
a(g3629
S'bounced-22'
p3692
S'bullets-21'
p3693
tp3694
a(g3633
S'stood-8'
p3695
S'bounced-22'
p3696
tp3697
a(g3637
S'bounced-22'
p3698
S'off-23'
p3699
tp3700
a(g3641
S'van-25'
p3701
S'the-24'
p3702
tp3703
a(g3645
S'bounced-22'
p3704
S'van-25'
p3705
tp3706
asg78
(lp3707
(S'Russian'
p3708
(dp3709
S'NamedEntityTag'
p3710
S'MISC'
p3711
sS'CharacterOffsetEnd'
p3712
S'824'
p3713
sS'Lemma'
p3714
S'russian'
p3715
sS'PartOfSpeech'
p3716
S'JJ'
p3717
sS'CharacterOffsetBegin'
p3718
S'817'
p3719
stp3720
a(S'security'
p3721
(dp3722
S'NamedEntityTag'
p3723
g96
sS'CharacterOffsetEnd'
p3724
S'833'
p3725
sS'Lemma'
p3726
S'security'
p3727
sS'PartOfSpeech'
p3728
S'NN'
p3729
sS'CharacterOffsetBegin'
p3730
S'825'
p3731
stp3732
a(S'officers'
p3733
(dp3734
S'NamedEntityTag'
p3735
g96
sS'CharacterOffsetEnd'
p3736
S'842'
p3737
sS'Lemma'
p3738
S'officer'
p3739
sS'PartOfSpeech'
p3740
S'NNS'
p3741
sS'CharacterOffsetBegin'
p3742
S'834'
p3743
stp3744
a(S'in'
p3745
(dp3746
S'NamedEntityTag'
p3747
g96
sS'CharacterOffsetEnd'
p3748
S'845'
p3749
sS'Lemma'
p3750
S'in'
p3751
sS'PartOfSpeech'
p3752
S'IN'
p3753
sS'CharacterOffsetBegin'
p3754
S'843'
p3755
stp3756
a(S'masks'
p3757
(dp3758
S'NamedEntityTag'
p3759
g96
sS'CharacterOffsetEnd'
p3760
S'851'
p3761
sS'Lemma'
p3762
S'mask'
p3763
sS'PartOfSpeech'
p3764
S'NNS'
p3765
sS'CharacterOffsetBegin'
p3766
S'846'
p3767
stp3768
a(S'and'
p3769
(dp3770
S'NamedEntityTag'
p3771
g96
sS'CharacterOffsetEnd'
p3772
S'855'
p3773
sS'Lemma'
p3774
S'and'
p3775
sS'PartOfSpeech'
p3776
S'CC'
p3777
sS'CharacterOffsetBegin'
p3778
S'852'
p3779
stp3780
a(S'camouflage'
p3781
(dp3782
S'NamedEntityTag'
p3783
g96
sS'CharacterOffsetEnd'
p3784
S'866'
p3785
sS'Lemma'
p3786
S'camouflage'
p3787
sS'PartOfSpeech'
p3788
S'NN'
p3789
sS'CharacterOffsetBegin'
p3790
S'856'
p3791
stp3792
a(S'stood'
p3793
(dp3794
S'NamedEntityTag'
p3795
g96
sS'CharacterOffsetEnd'
p3796
S'872'
p3797
sS'Lemma'
p3798
S'stand'
p3799
sS'PartOfSpeech'
p3800
S'VBD'
p3801
sS'CharacterOffsetBegin'
p3802
S'867'
p3803
stp3804
a(S'over'
p3805
(dp3806
S'NamedEntityTag'
p3807
g96
sS'CharacterOffsetEnd'
p3808
S'877'
p3809
sS'Lemma'
p3810
S'over'
p3811
sS'PartOfSpeech'
p3812
S'IN'
p3813
sS'CharacterOffsetBegin'
p3814
S'873'
p3815
stp3816
a(S'him'
p3817
(dp3818
S'NamedEntityTag'
p3819
g96
sS'CharacterOffsetEnd'
p3820
S'881'
p3821
sS'Lemma'
p3822
S'he'
p3823
sS'PartOfSpeech'
p3824
S'PRP'
p3825
sS'CharacterOffsetBegin'
p3826
S'878'
p3827
stp3828
a(S'protectively'
p3829
(dp3830
S'NamedEntityTag'
p3831
g96
sS'CharacterOffsetEnd'
p3832
S'894'
p3833
sS'Lemma'
p3834
S'protectively'
p3835
sS'PartOfSpeech'
p3836
S'RB'
p3837
sS'CharacterOffsetBegin'
p3838
S'882'
p3839
stp3840
a(g180
(dp3841
S'NamedEntityTag'
p3842
g96
sS'CharacterOffsetEnd'
p3843
S'895'
p3844
sS'Lemma'
p3845
g180
sS'PartOfSpeech'
p3846
g180
sS'CharacterOffsetBegin'
p3847
S'894'
p3848
stp3849
a(S'then'
p3850
(dp3851
S'NamedEntityTag'
p3852
g96
sS'CharacterOffsetEnd'
p3853
S'900'
p3854
sS'Lemma'
p3855
S'then'
p3856
sS'PartOfSpeech'
p3857
S'RB'
p3858
sS'CharacterOffsetBegin'
p3859
S'896'
p3860
stp3861
a(S'dragged'
p3862
(dp3863
S'NamedEntityTag'
p3864
g96
sS'CharacterOffsetEnd'
p3865
S'908'
p3866
sS'Lemma'
p3867
S'drag'
p3868
sS'PartOfSpeech'
p3869
S'VBD'
p3870
sS'CharacterOffsetBegin'
p3871
S'901'
p3872
stp3873
a(S'him'
p3874
(dp3875
S'NamedEntityTag'
p3876
g96
sS'CharacterOffsetEnd'
p3877
S'912'
p3878
sS'Lemma'
p3879
S'he'
p3880
sS'PartOfSpeech'
p3881
S'PRP'
p3882
sS'CharacterOffsetBegin'
p3883
S'909'
p3884
stp3885
a(S'away'
p3886
(dp3887
S'NamedEntityTag'
p3888
g96
sS'CharacterOffsetEnd'
p3889
S'917'
p3890
sS'Lemma'
p3891
S'away'
p3892
sS'PartOfSpeech'
p3893
S'RB'
p3894
sS'CharacterOffsetBegin'
p3895
S'913'
p3896
stp3897
a(S'as'
p3898
(dp3899
S'NamedEntityTag'
p3900
g96
sS'CharacterOffsetEnd'
p3901
S'920'
p3902
sS'Lemma'
p3903
S'as'
p3904
sS'PartOfSpeech'
p3905
S'IN'
p3906
sS'CharacterOffsetBegin'
p3907
S'918'
p3908
stp3909
a(S'gunfire'
p3910
(dp3911
S'NamedEntityTag'
p3912
g96
sS'CharacterOffsetEnd'
p3913
S'928'
p3914
sS'Lemma'
p3915
S'gunfire'
p3916
sS'PartOfSpeech'
p3917
S'NN'
p3918
sS'CharacterOffsetBegin'
p3919
S'921'
p3920
stp3921
a(S'erupted'
p3922
(dp3923
S'NamedEntityTag'
p3924
g96
sS'CharacterOffsetEnd'
p3925
S'936'
p3926
sS'Lemma'
p3927
S'erupt'
p3928
sS'PartOfSpeech'
p3929
S'VBD'
p3930
sS'CharacterOffsetBegin'
p3931
S'929'
p3932
stp3933
a(S'and'
p3934
(dp3935
S'NamedEntityTag'
p3936
g96
sS'CharacterOffsetEnd'
p3937
S'940'
p3938
sS'Lemma'
p3939
S'and'
p3940
sS'PartOfSpeech'
p3941
S'CC'
p3942
sS'CharacterOffsetBegin'
p3943
S'937'
p3944
stp3945
a(S'bullets'
p3946
(dp3947
S'NamedEntityTag'
p3948
g96
sS'CharacterOffsetEnd'
p3949
S'948'
p3950
sS'Lemma'
p3951
S'bullet'
p3952
sS'PartOfSpeech'
p3953
S'NNS'
p3954
sS'CharacterOffsetBegin'
p3955
S'941'
p3956
stp3957
a(S'bounced'
p3958
(dp3959
S'NamedEntityTag'
p3960
g96
sS'CharacterOffsetEnd'
p3961
S'956'
p3962
sS'Lemma'
p3963
S'bounce'
p3964
sS'PartOfSpeech'
p3965
S'VBD'
p3966
sS'CharacterOffsetBegin'
p3967
S'949'
p3968
stp3969
a(S'off'
p3970
(dp3971
S'NamedEntityTag'
p3972
g96
sS'CharacterOffsetEnd'
p3973
S'960'
p3974
sS'Lemma'
p3975
S'off'
p3976
sS'PartOfSpeech'
p3977
S'RP'
p3978
sS'CharacterOffsetBegin'
p3979
S'957'
p3980
stp3981
a(S'the'
p3982
(dp3983
S'NamedEntityTag'
p3984
g96
sS'CharacterOffsetEnd'
p3985
S'964'
p3986
sS'Lemma'
p3987
S'the'
p3988
sS'PartOfSpeech'
p3989
S'DT'
p3990
sS'CharacterOffsetBegin'
p3991
S'961'
p3992
stp3993
a(S'van'
p3994
(dp3995
S'NamedEntityTag'
p3996
g96
sS'CharacterOffsetEnd'
p3997
S'968'
p3998
sS'Lemma'
p3999
S'van'
p4000
sS'PartOfSpeech'
p4001
S'NN'
p4002
sS'CharacterOffsetBegin'
p4003
S'965'
p4004
stp4005
a(g227
(dp4006
S'NamedEntityTag'
p4007
g96
sS'CharacterOffsetEnd'
p4008
S'969'
p4009
sS'Lemma'
p4010
g227
sS'PartOfSpeech'
p4011
g227
sS'CharacterOffsetBegin'
p4012
S'968'
p4013
stp4014
asa(dp4015
g7
S'(ROOT (S (S (NP (CD Two) (NN security) (NNS officers)) (VP (VBD were) (ADVP (RB slightly)) (VP (VBN injured) (PP (IN during) (NP (DT the) (NN operation)))))) (, ,) (S (NP (NNP Interior) (NNP Ministry) (NN spokesman) (NNP Alexander) (NNP Mikhailov)) (VP (VBD said))) (, ,) (PP (VBG according) (PP (TO to) (NP (DT the) (JJ ITAR-Tass) (NN news) (NN agency)))) (. .)))'
p4016
sg9
S'Two security officers were slightly injured during the operation, Interior Ministry spokesman Alexander Mikhailov said, according to the ITAR-Tass news agency.'
p4017
sg11
(lp4018
(S'root'
p4019
S'ROOT'
p4020
S'injured'
p4021
tp4022
a(S'num'
p4023
S'officers'
p4024
S'Two'
p4025
tp4026
a(S'nn'
p4027
S'officers'
p4028
S'security'
p4029
tp4030
a(S'nsubjpass'
p4031
S'injured'
p4032
S'officers'
p4033
tp4034
a(S'auxpass'
p4035
S'injured'
p4036
S'were'
p4037
tp4038
a(S'advmod'
p4039
S'injured'
p4040
S'slightly'
p4041
tp4042
a(S'det'
p4043
S'operation'
p4044
S'the'
p4045
tp4046
a(S'prep_during'
p4047
S'injured'
p4048
S'operation'
p4049
tp4050
a(S'nn'
p4051
S'Mikhailov'
p4052
S'Interior'
p4053
tp4054
a(S'nn'
p4055
S'Mikhailov'
p4056
S'Ministry'
p4057
tp4058
a(S'nn'
p4059
S'Mikhailov'
p4060
S'spokesman'
p4061
tp4062
a(S'nn'
p4063
S'Mikhailov'
p4064
S'Alexander'
p4065
tp4066
a(S'nsubj'
p4067
S'said'
p4068
S'Mikhailov'
p4069
tp4070
a(S'ccomp'
p4071
S'injured'
p4072
S'said'
p4073
tp4074
a(S'prepc_according_to'
p4075
S'injured'
p4076
S'to'
p4077
tp4078
a(S'det'
p4079
S'agency'
p4080
S'the'
p4081
tp4082
a(S'amod'
p4083
S'agency'
p4084
S'ITAR-Tass'
p4085
tp4086
a(S'nn'
p4087
S'agency'
p4088
S'news'
p4089
tp4090
a(S'pobj'
p4091
S'injured'
p4092
S'agency'
p4093
tp4094
asg49
(lp4095
(g4019
S'ROOT-0'
p4096
S'injured-6'
p4097
tp4098
a(g4023
S'officers-3'
p4099
S'Two-1'
p4100
tp4101
a(g4027
S'officers-3'
p4102
S'security-2'
p4103
tp4104
a(g4031
S'injured-6'
p4105
S'officers-3'
p4106
tp4107
a(g4035
S'injured-6'
p4108
S'were-4'
p4109
tp4110
a(g4039
S'injured-6'
p4111
S'slightly-5'
p4112
tp4113
a(g4043
S'operation-9'
p4114
S'the-8'
p4115
tp4116
a(g4047
S'injured-6'
p4117
S'operation-9'
p4118
tp4119
a(g4051
S'Mikhailov-15'
p4120
S'Interior-11'
p4121
tp4122
a(g4055
S'Mikhailov-15'
p4123
S'Ministry-12'
p4124
tp4125
a(g4059
S'Mikhailov-15'
p4126
S'spokesman-13'
p4127
tp4128
a(g4063
S'Mikhailov-15'
p4129
S'Alexander-14'
p4130
tp4131
a(g4067
S'said-16'
p4132
S'Mikhailov-15'
p4133
tp4134
a(g4071
S'injured-6'
p4135
S'said-16'
p4136
tp4137
a(g4075
S'injured-6'
p4138
S'to-19'
p4139
tp4140
a(g4079
S'agency-23'
p4141
S'the-20'
p4142
tp4143
a(g4083
S'agency-23'
p4144
S'ITAR-Tass-21'
p4145
tp4146
a(g4087
S'agency-23'
p4147
S'news-22'
p4148
tp4149
a(g4091
S'injured-6'
p4150
S'agency-23'
p4151
tp4152
asg78
(lp4153
(S'Two'
p4154
(dp4155
S'NormalizedNamedEntityTag'
p4156
S'2.0'
p4157
sS'Lemma'
p4158
S'two'
p4159
sS'CharacterOffsetEnd'
p4160
S'973'
p4161
sS'PartOfSpeech'
p4162
S'CD'
p4163
sS'CharacterOffsetBegin'
p4164
S'970'
p4165
sS'NamedEntityTag'
p4166
S'NUMBER'
p4167
stp4168
a(S'security'
p4169
(dp4170
S'NamedEntityTag'
p4171
g96
sS'CharacterOffsetEnd'
p4172
S'982'
p4173
sS'Lemma'
p4174
S'security'
p4175
sS'PartOfSpeech'
p4176
S'NN'
p4177
sS'CharacterOffsetBegin'
p4178
S'974'
p4179
stp4180
a(S'officers'
p4181
(dp4182
S'NamedEntityTag'
p4183
g96
sS'CharacterOffsetEnd'
p4184
S'991'
p4185
sS'Lemma'
p4186
S'officer'
p4187
sS'PartOfSpeech'
p4188
S'NNS'
p4189
sS'CharacterOffsetBegin'
p4190
S'983'
p4191
stp4192
a(S'were'
p4193
(dp4194
S'NamedEntityTag'
p4195
g96
sS'CharacterOffsetEnd'
p4196
S'996'
p4197
sS'Lemma'
p4198
S'be'
p4199
sS'PartOfSpeech'
p4200
S'VBD'
p4201
sS'CharacterOffsetBegin'
p4202
S'992'
p4203
stp4204
a(S'slightly'
p4205
(dp4206
S'NamedEntityTag'
p4207
g96
sS'CharacterOffsetEnd'
p4208
S'1005'
p4209
sS'Lemma'
p4210
S'slightly'
p4211
sS'PartOfSpeech'
p4212
S'RB'
p4213
sS'CharacterOffsetBegin'
p4214
S'997'
p4215
stp4216
a(S'injured'
p4217
(dp4218
S'NamedEntityTag'
p4219
g96
sS'CharacterOffsetEnd'
p4220
S'1013'
p4221
sS'Lemma'
p4222
S'injure'
p4223
sS'PartOfSpeech'
p4224
S'VBN'
p4225
sS'CharacterOffsetBegin'
p4226
S'1006'
p4227
stp4228
a(S'during'
p4229
(dp4230
S'NamedEntityTag'
p4231
g96
sS'CharacterOffsetEnd'
p4232
S'1020'
p4233
sS'Lemma'
p4234
S'during'
p4235
sS'PartOfSpeech'
p4236
S'IN'
p4237
sS'CharacterOffsetBegin'
p4238
S'1014'
p4239
stp4240
a(S'the'
p4241
(dp4242
S'NamedEntityTag'
p4243
g96
sS'CharacterOffsetEnd'
p4244
S'1024'
p4245
sS'Lemma'
p4246
S'the'
p4247
sS'PartOfSpeech'
p4248
S'DT'
p4249
sS'CharacterOffsetBegin'
p4250
S'1021'
p4251
stp4252
a(S'operation'
p4253
(dp4254
S'NamedEntityTag'
p4255
g96
sS'CharacterOffsetEnd'
p4256
S'1034'
p4257
sS'Lemma'
p4258
S'operation'
p4259
sS'PartOfSpeech'
p4260
S'NN'
p4261
sS'CharacterOffsetBegin'
p4262
S'1025'
p4263
stp4264
a(g180
(dp4265
S'NamedEntityTag'
p4266
g96
sS'CharacterOffsetEnd'
p4267
S'1035'
p4268
sS'Lemma'
p4269
g180
sS'PartOfSpeech'
p4270
g180
sS'CharacterOffsetBegin'
p4271
S'1034'
p4272
stp4273
a(S'Interior'
p4274
(dp4275
S'NamedEntityTag'
p4276
S'ORGANIZATION'
p4277
sS'CharacterOffsetEnd'
p4278
S'1044'
p4279
sS'Lemma'
p4280
S'Interior'
p4281
sS'PartOfSpeech'
p4282
S'NNP'
p4283
sS'CharacterOffsetBegin'
p4284
S'1036'
p4285
stp4286
a(S'Ministry'
p4287
(dp4288
S'NamedEntityTag'
p4289
S'ORGANIZATION'
p4290
sS'CharacterOffsetEnd'
p4291
S'1053'
p4292
sS'Lemma'
p4293
S'Ministry'
p4294
sS'PartOfSpeech'
p4295
S'NNP'
p4296
sS'CharacterOffsetBegin'
p4297
S'1045'
p4298
stp4299
a(S'spokesman'
p4300
(dp4301
S'NamedEntityTag'
p4302
g96
sS'CharacterOffsetEnd'
p4303
S'1063'
p4304
sS'Lemma'
p4305
S'spokesman'
p4306
sS'PartOfSpeech'
p4307
S'NN'
p4308
sS'CharacterOffsetBegin'
p4309
S'1054'
p4310
stp4311
a(S'Alexander'
p4312
(dp4313
S'NamedEntityTag'
p4314
S'PERSON'
p4315
sS'CharacterOffsetEnd'
p4316
S'1073'
p4317
sS'Lemma'
p4318
S'Alexander'
p4319
sS'PartOfSpeech'
p4320
S'NNP'
p4321
sS'CharacterOffsetBegin'
p4322
S'1064'
p4323
stp4324
a(S'Mikhailov'
p4325
(dp4326
S'NamedEntityTag'
p4327
S'PERSON'
p4328
sS'CharacterOffsetEnd'
p4329
S'1083'
p4330
sS'Lemma'
p4331
S'Mikhailov'
p4332
sS'PartOfSpeech'
p4333
S'NNP'
p4334
sS'CharacterOffsetBegin'
p4335
S'1074'
p4336
stp4337
a(S'said'
p4338
(dp4339
S'NamedEntityTag'
p4340
g96
sS'CharacterOffsetEnd'
p4341
S'1088'
p4342
sS'Lemma'
p4343
S'say'
p4344
sS'PartOfSpeech'
p4345
S'VBD'
p4346
sS'CharacterOffsetBegin'
p4347
S'1084'
p4348
stp4349
a(g180
(dp4350
S'NamedEntityTag'
p4351
g96
sS'CharacterOffsetEnd'
p4352
S'1089'
p4353
sS'Lemma'
p4354
g180
sS'PartOfSpeech'
p4355
g180
sS'CharacterOffsetBegin'
p4356
S'1088'
p4357
stp4358
a(S'according'
p4359
(dp4360
S'NamedEntityTag'
p4361
g96
sS'CharacterOffsetEnd'
p4362
S'1099'
p4363
sS'Lemma'
p4364
S'accord'
p4365
sS'PartOfSpeech'
p4366
S'VBG'
p4367
sS'CharacterOffsetBegin'
p4368
S'1090'
p4369
stp4370
a(S'to'
p4371
(dp4372
S'NamedEntityTag'
p4373
g96
sS'CharacterOffsetEnd'
p4374
S'1102'
p4375
sS'Lemma'
p4376
S'to'
p4377
sS'PartOfSpeech'
p4378
S'TO'
p4379
sS'CharacterOffsetBegin'
p4380
S'1100'
p4381
stp4382
a(S'the'
p4383
(dp4384
S'NamedEntityTag'
p4385
g96
sS'CharacterOffsetEnd'
p4386
S'1106'
p4387
sS'Lemma'
p4388
S'the'
p4389
sS'PartOfSpeech'
p4390
S'DT'
p4391
sS'CharacterOffsetBegin'
p4392
S'1103'
p4393
stp4394
a(S'ITAR-Tass'
p4395
(dp4396
S'NamedEntityTag'
p4397
S'ORGANIZATION'
p4398
sS'CharacterOffsetEnd'
p4399
S'1116'
p4400
sS'Lemma'
p4401
S'itar-tass'
p4402
sS'PartOfSpeech'
p4403
S'JJ'
p4404
sS'CharacterOffsetBegin'
p4405
S'1107'
p4406
stp4407
a(S'news'
p4408
(dp4409
S'NamedEntityTag'
p4410
g96
sS'CharacterOffsetEnd'
p4411
S'1121'
p4412
sS'Lemma'
p4413
S'news'
p4414
sS'PartOfSpeech'
p4415
S'NN'
p4416
sS'CharacterOffsetBegin'
p4417
S'1117'
p4418
stp4419
a(S'agency'
p4420
(dp4421
S'NamedEntityTag'
p4422
g96
sS'CharacterOffsetEnd'
p4423
S'1128'
p4424
sS'Lemma'
p4425
S'agency'
p4426
sS'PartOfSpeech'
p4427
S'NN'
p4428
sS'CharacterOffsetBegin'
p4429
S'1122'
p4430
stp4431
a(g227
(dp4432
S'NamedEntityTag'
p4433
g96
sS'CharacterOffsetEnd'
p4434
S'1129'
p4435
sS'Lemma'
p4436
g227
sS'PartOfSpeech'
p4437
g227
sS'CharacterOffsetBegin'
p4438
S'1128'
p4439
stp4440
asa(dp4441
g7
S'(ROOT (S (S (NP (DT No) (NN ransom)) (VP (VBD was) (VP (VBN paid) (PP (IN for) (NP (NNP Cochetels) (NN release)))))) (, ,) (NP (NNP Mikhailov)) (VP (VBD said)) (. .)))'
p4442
sg9
S'No ransom was paid for Cochetels release, Mikhailov said.'
p4443
sg11
(lp4444
(S'root'
p4445
S'ROOT'
p4446
S'said'
p4447
tp4448
a(S'det'
p4449
S'ransom'
p4450
S'No'
p4451
tp4452
a(S'nsubjpass'
p4453
S'paid'
p4454
S'ransom'
p4455
tp4456
a(S'auxpass'
p4457
S'paid'
p4458
S'was'
p4459
tp4460
a(S'ccomp'
p4461
S'said'
p4462
S'paid'
p4463
tp4464
a(S'nn'
p4465
S'release'
p4466
S'Cochetels'
p4467
tp4468
a(S'prep_for'
p4469
S'paid'
p4470
S'release'
p4471
tp4472
a(S'nsubj'
p4473
S'said'
p4474
S'Mikhailov'
p4475
tp4476
asg49
(lp4477
(g4445
S'ROOT-0'
p4478
S'said-10'
p4479
tp4480
a(g4449
S'ransom-2'
p4481
S'No-1'
p4482
tp4483
a(g4453
S'paid-4'
p4484
S'ransom-2'
p4485
tp4486
a(g4457
S'paid-4'
p4487
S'was-3'
p4488
tp4489
a(g4461
S'said-10'
p4490
S'paid-4'
p4491
tp4492
a(g4465
S'release-7'
p4493
S'Cochetels-6'
p4494
tp4495
a(g4469
S'paid-4'
p4496
S'release-7'
p4497
tp4498
a(g4473
S'said-10'
p4499
S'Mikhailov-9'
p4500
tp4501
asg78
(lp4502
(S'No'
p4503
(dp4504
S'NamedEntityTag'
p4505
g96
sS'CharacterOffsetEnd'
p4506
S'1132'
p4507
sS'Lemma'
p4508
S'no'
p4509
sS'PartOfSpeech'
p4510
S'DT'
p4511
sS'CharacterOffsetBegin'
p4512
S'1130'
p4513
stp4514
a(S'ransom'
p4515
(dp4516
S'NamedEntityTag'
p4517
g96
sS'CharacterOffsetEnd'
p4518
S'1139'
p4519
sS'Lemma'
p4520
S'ransom'
p4521
sS'PartOfSpeech'
p4522
S'NN'
p4523
sS'CharacterOffsetBegin'
p4524
S'1133'
p4525
stp4526
a(S'was'
p4527
(dp4528
S'NamedEntityTag'
p4529
g96
sS'CharacterOffsetEnd'
p4530
S'1143'
p4531
sS'Lemma'
p4532
S'be'
p4533
sS'PartOfSpeech'
p4534
S'VBD'
p4535
sS'CharacterOffsetBegin'
p4536
S'1140'
p4537
stp4538
a(S'paid'
p4539
(dp4540
S'NamedEntityTag'
p4541
g96
sS'CharacterOffsetEnd'
p4542
S'1148'
p4543
sS'Lemma'
p4544
S'pay'
p4545
sS'PartOfSpeech'
p4546
S'VBN'
p4547
sS'CharacterOffsetBegin'
p4548
S'1144'
p4549
stp4550
a(S'for'
p4551
(dp4552
S'NamedEntityTag'
p4553
g96
sS'CharacterOffsetEnd'
p4554
S'1152'
p4555
sS'Lemma'
p4556
S'for'
p4557
sS'PartOfSpeech'
p4558
S'IN'
p4559
sS'CharacterOffsetBegin'
p4560
S'1149'
p4561
stp4562
a(S'Cochetels'
p4563
(dp4564
S'NamedEntityTag'
p4565
S'MISC'
p4566
sS'CharacterOffsetEnd'
p4567
S'1162'
p4568
sS'Lemma'
p4569
S'Cochetels'
p4570
sS'PartOfSpeech'
p4571
S'NNP'
p4572
sS'CharacterOffsetBegin'
p4573
S'1153'
p4574
stp4575
a(S'release'
p4576
(dp4577
S'NamedEntityTag'
p4578
g96
sS'CharacterOffsetEnd'
p4579
S'1170'
p4580
sS'Lemma'
p4581
S'release'
p4582
sS'PartOfSpeech'
p4583
S'NN'
p4584
sS'CharacterOffsetBegin'
p4585
S'1163'
p4586
stp4587
a(g180
(dp4588
S'NamedEntityTag'
p4589
g96
sS'CharacterOffsetEnd'
p4590
S'1171'
p4591
sS'Lemma'
p4592
g180
sS'PartOfSpeech'
p4593
g180
sS'CharacterOffsetBegin'
p4594
S'1170'
p4595
stp4596
a(S'Mikhailov'
p4597
(dp4598
S'NamedEntityTag'
p4599
S'PERSON'
p4600
sS'CharacterOffsetEnd'
p4601
S'1181'
p4602
sS'Lemma'
p4603
S'Mikhailov'
p4604
sS'PartOfSpeech'
p4605
S'NNP'
p4606
sS'CharacterOffsetBegin'
p4607
S'1172'
p4608
stp4609
a(S'said'
p4610
(dp4611
S'NamedEntityTag'
p4612
g96
sS'CharacterOffsetEnd'
p4613
S'1186'
p4614
sS'Lemma'
p4615
S'say'
p4616
sS'PartOfSpeech'
p4617
S'VBD'
p4618
sS'CharacterOffsetBegin'
p4619
S'1182'
p4620
stp4621
a(g227
(dp4622
S'NamedEntityTag'
p4623
g96
sS'CharacterOffsetEnd'
p4624
S'1187'
p4625
sS'Lemma'
p4626
g227
sS'PartOfSpeech'
p4627
g227
sS'CharacterOffsetBegin'
p4628
S'1186'
p4629
stp4630
asa(dp4631
g7
S'(ROOT (S (NP (NNP Cochetel)) (VP (VBD was) (VP (VBN flown) (PP (IN aboard) (NP (DT a) (JJ chartered) (NN jet))) (PP (TO to) (NP (NP (NNP Moscow)) (, ,) (SBAR (WHADVP (WRB where)) (S (NP (PRP he)) (VP (VBD was) (VP (VBN met) (PP (IN by) (NP (NP (JJ French) (NNP Ambassador) (NNP Hubert) (NNP Colin) (IN de) (NNP Verdiere)) (CC and) (NP (NNP U.N.) (NNS officials)))))))))))) (. .)))'
p4632
sg9
S'Cochetel was flown aboard a chartered jet to Moscow, where he was met by French Ambassador Hubert Colin de Verdiere and U.N. officials.'
p4633
sg11
(lp4634
(S'root'
p4635
S'ROOT'
p4636
S'flown'
p4637
tp4638
a(S'nsubjpass'
p4639
S'flown'
p4640
S'Cochetel'
p4641
tp4642
a(S'auxpass'
p4643
S'flown'
p4644
S'was'
p4645
tp4646
a(S'det'
p4647
S'jet'
p4648
g1177
tp4649
a(S'amod'
p4650
S'jet'
p4651
S'chartered'
p4652
tp4653
a(S'prep_aboard'
p4654
S'flown'
p4655
S'jet'
p4656
tp4657
a(S'prep_to'
p4658
S'flown'
p4659
S'Moscow'
p4660
tp4661
a(S'advmod'
p4662
S'met'
p4663
S'where'
p4664
tp4665
a(S'nsubjpass'
p4666
S'met'
p4667
S'he'
p4668
tp4669
a(S'auxpass'
p4670
S'met'
p4671
S'was'
p4672
tp4673
a(S'rcmod'
p4674
S'Moscow'
p4675
S'met'
p4676
tp4677
a(S'amod'
p4678
S'Verdiere'
p4679
S'French'
p4680
tp4681
a(S'nn'
p4682
S'Verdiere'
p4683
S'Ambassador'
p4684
tp4685
a(S'nn'
p4686
S'Verdiere'
p4687
S'Hubert'
p4688
tp4689
a(S'nn'
p4690
S'Verdiere'
p4691
S'Colin'
p4692
tp4693
a(S'amod'
p4694
S'Verdiere'
p4695
S'de'
p4696
tp4697
a(S'agent'
p4698
S'met'
p4699
S'Verdiere'
p4700
tp4701
a(S'nn'
p4702
S'officials'
p4703
S'U.N.'
p4704
tp4705
a(S'conj_and'
p4706
S'Verdiere'
p4707
S'officials'
p4708
tp4709
asg49
(lp4710
(g4635
S'ROOT-0'
p4711
S'flown-3'
p4712
tp4713
a(g4639
S'flown-3'
p4714
S'Cochetel-1'
p4715
tp4716
a(g4643
S'flown-3'
p4717
S'was-2'
p4718
tp4719
a(g4647
S'jet-7'
p4720
S'a-5'
p4721
tp4722
a(g4650
S'jet-7'
p4723
S'chartered-6'
p4724
tp4725
a(g4654
S'flown-3'
p4726
S'jet-7'
p4727
tp4728
a(g4658
S'flown-3'
p4729
S'Moscow-9'
p4730
tp4731
a(g4662
S'met-14'
p4732
S'where-11'
p4733
tp4734
a(g4666
S'met-14'
p4735
S'he-12'
p4736
tp4737
a(g4670
S'met-14'
p4738
S'was-13'
p4739
tp4740
a(g4674
S'Moscow-9'
p4741
S'met-14'
p4742
tp4743
a(g4678
S'Verdiere-21'
p4744
S'French-16'
p4745
tp4746
a(g4682
S'Verdiere-21'
p4747
S'Ambassador-17'
p4748
tp4749
a(g4686
S'Verdiere-21'
p4750
S'Hubert-18'
p4751
tp4752
a(g4690
S'Verdiere-21'
p4753
S'Colin-19'
p4754
tp4755
a(g4694
S'Verdiere-21'
p4756
S'de-20'
p4757
tp4758
a(g4698
S'met-14'
p4759
S'Verdiere-21'
p4760
tp4761
a(g4702
S'officials-24'
p4762
S'U.N.-23'
p4763
tp4764
a(g4706
S'Verdiere-21'
p4765
S'officials-24'
p4766
tp4767
asg78
(lp4768
(S'Cochetel'
p4769
(dp4770
S'NamedEntityTag'
p4771
S'PERSON'
p4772
sS'CharacterOffsetEnd'
p4773
S'1196'
p4774
sS'Lemma'
p4775
S'Cochetel'
p4776
sS'PartOfSpeech'
p4777
S'NNP'
p4778
sS'CharacterOffsetBegin'
p4779
S'1188'
p4780
stp4781
a(S'was'
p4782
(dp4783
S'NamedEntityTag'
p4784
g96
sS'CharacterOffsetEnd'
p4785
S'1200'
p4786
sS'Lemma'
p4787
S'be'
p4788
sS'PartOfSpeech'
p4789
S'VBD'
p4790
sS'CharacterOffsetBegin'
p4791
S'1197'
p4792
stp4793
a(S'flown'
p4794
(dp4795
S'NamedEntityTag'
p4796
g96
sS'CharacterOffsetEnd'
p4797
S'1206'
p4798
sS'Lemma'
p4799
S'fly'
p4800
sS'PartOfSpeech'
p4801
S'VBN'
p4802
sS'CharacterOffsetBegin'
p4803
S'1201'
p4804
stp4805
a(S'aboard'
p4806
(dp4807
S'NamedEntityTag'
p4808
g96
sS'CharacterOffsetEnd'
p4809
S'1213'
p4810
sS'Lemma'
p4811
S'aboard'
p4812
sS'PartOfSpeech'
p4813
S'IN'
p4814
sS'CharacterOffsetBegin'
p4815
S'1207'
p4816
stp4817
a(g1177
(dp4818
S'NamedEntityTag'
p4819
g96
sS'CharacterOffsetEnd'
p4820
S'1215'
p4821
sS'Lemma'
p4822
g1177
sS'PartOfSpeech'
p4823
S'DT'
p4824
sS'CharacterOffsetBegin'
p4825
S'1214'
p4826
stp4827
a(S'chartered'
p4828
(dp4829
S'NamedEntityTag'
p4830
g96
sS'CharacterOffsetEnd'
p4831
S'1225'
p4832
sS'Lemma'
p4833
S'chartered'
p4834
sS'PartOfSpeech'
p4835
S'JJ'
p4836
sS'CharacterOffsetBegin'
p4837
S'1216'
p4838
stp4839
a(S'jet'
p4840
(dp4841
S'NamedEntityTag'
p4842
g96
sS'CharacterOffsetEnd'
p4843
S'1229'
p4844
sS'Lemma'
p4845
S'jet'
p4846
sS'PartOfSpeech'
p4847
S'NN'
p4848
sS'CharacterOffsetBegin'
p4849
S'1226'
p4850
stp4851
a(S'to'
p4852
(dp4853
S'NamedEntityTag'
p4854
g96
sS'CharacterOffsetEnd'
p4855
S'1232'
p4856
sS'Lemma'
p4857
S'to'
p4858
sS'PartOfSpeech'
p4859
S'TO'
p4860
sS'CharacterOffsetBegin'
p4861
S'1230'
p4862
stp4863
a(S'Moscow'
p4864
(dp4865
S'NamedEntityTag'
p4866
S'LOCATION'
p4867
sS'CharacterOffsetEnd'
p4868
S'1239'
p4869
sS'Lemma'
p4870
S'Moscow'
p4871
sS'PartOfSpeech'
p4872
S'NNP'
p4873
sS'CharacterOffsetBegin'
p4874
S'1233'
p4875
stp4876
a(g180
(dp4877
S'NamedEntityTag'
p4878
g96
sS'CharacterOffsetEnd'
p4879
S'1240'
p4880
sS'Lemma'
p4881
g180
sS'PartOfSpeech'
p4882
g180
sS'CharacterOffsetBegin'
p4883
S'1239'
p4884
stp4885
a(S'where'
p4886
(dp4887
S'NamedEntityTag'
p4888
g96
sS'CharacterOffsetEnd'
p4889
S'1246'
p4890
sS'Lemma'
p4891
S'where'
p4892
sS'PartOfSpeech'
p4893
S'WRB'
p4894
sS'CharacterOffsetBegin'
p4895
S'1241'
p4896
stp4897
a(S'he'
p4898
(dp4899
S'NamedEntityTag'
p4900
g96
sS'CharacterOffsetEnd'
p4901
S'1249'
p4902
sS'Lemma'
p4903
S'he'
p4904
sS'PartOfSpeech'
p4905
S'PRP'
p4906
sS'CharacterOffsetBegin'
p4907
S'1247'
p4908
stp4909
a(S'was'
p4910
(dp4911
S'NamedEntityTag'
p4912
g96
sS'CharacterOffsetEnd'
p4913
S'1253'
p4914
sS'Lemma'
p4915
S'be'
p4916
sS'PartOfSpeech'
p4917
S'VBD'
p4918
sS'CharacterOffsetBegin'
p4919
S'1250'
p4920
stp4921
a(S'met'
p4922
(dp4923
S'NamedEntityTag'
p4924
g96
sS'CharacterOffsetEnd'
p4925
S'1257'
p4926
sS'Lemma'
p4927
S'meet'
p4928
sS'PartOfSpeech'
p4929
S'VBN'
p4930
sS'CharacterOffsetBegin'
p4931
S'1254'
p4932
stp4933
a(S'by'
p4934
(dp4935
S'NamedEntityTag'
p4936
g96
sS'CharacterOffsetEnd'
p4937
S'1260'
p4938
sS'Lemma'
p4939
S'by'
p4940
sS'PartOfSpeech'
p4941
S'IN'
p4942
sS'CharacterOffsetBegin'
p4943
S'1258'
p4944
stp4945
a(S'French'
p4946
(dp4947
S'NamedEntityTag'
p4948
S'MISC'
p4949
sS'CharacterOffsetEnd'
p4950
S'1267'
p4951
sS'Lemma'
p4952
S'french'
p4953
sS'PartOfSpeech'
p4954
S'JJ'
p4955
sS'CharacterOffsetBegin'
p4956
S'1261'
p4957
stp4958
a(S'Ambassador'
p4959
(dp4960
S'NamedEntityTag'
p4961
g96
sS'CharacterOffsetEnd'
p4962
S'1278'
p4963
sS'Lemma'
p4964
S'Ambassador'
p4965
sS'PartOfSpeech'
p4966
S'NNP'
p4967
sS'CharacterOffsetBegin'
p4968
S'1268'
p4969
stp4970
a(S'Hubert'
p4971
(dp4972
S'NamedEntityTag'
p4973
S'PERSON'
p4974
sS'CharacterOffsetEnd'
p4975
S'1285'
p4976
sS'Lemma'
p4977
S'Hubert'
p4978
sS'PartOfSpeech'
p4979
S'NNP'
p4980
sS'CharacterOffsetBegin'
p4981
S'1279'
p4982
stp4983
a(S'Colin'
p4984
(dp4985
S'NamedEntityTag'
p4986
S'PERSON'
p4987
sS'CharacterOffsetEnd'
p4988
S'1291'
p4989
sS'Lemma'
p4990
S'Colin'
p4991
sS'PartOfSpeech'
p4992
S'NNP'
p4993
sS'CharacterOffsetBegin'
p4994
S'1286'
p4995
stp4996
a(S'de'
p4997
(dp4998
S'NamedEntityTag'
p4999
S'PERSON'
p5000
sS'CharacterOffsetEnd'
p5001
S'1294'
p5002
sS'Lemma'
p5003
S'de'
p5004
sS'PartOfSpeech'
p5005
S'IN'
p5006
sS'CharacterOffsetBegin'
p5007
S'1292'
p5008
stp5009
a(S'Verdiere'
p5010
(dp5011
S'NamedEntityTag'
p5012
S'PERSON'
p5013
sS'CharacterOffsetEnd'
p5014
S'1303'
p5015
sS'Lemma'
p5016
S'Verdiere'
p5017
sS'PartOfSpeech'
p5018
S'NNP'
p5019
sS'CharacterOffsetBegin'
p5020
S'1295'
p5021
stp5022
a(S'and'
p5023
(dp5024
S'NamedEntityTag'
p5025
g96
sS'CharacterOffsetEnd'
p5026
S'1307'
p5027
sS'Lemma'
p5028
S'and'
p5029
sS'PartOfSpeech'
p5030
S'CC'
p5031
sS'CharacterOffsetBegin'
p5032
S'1304'
p5033
stp5034
a(S'U.N.'
p5035
(dp5036
S'NamedEntityTag'
p5037
S'ORGANIZATION'
p5038
sS'CharacterOffsetEnd'
p5039
S'1312'
p5040
sS'Lemma'
p5041
S'U.N.'
p5042
sS'PartOfSpeech'
p5043
S'NNP'
p5044
sS'CharacterOffsetBegin'
p5045
S'1308'
p5046
stp5047
a(S'officials'
p5048
(dp5049
S'NamedEntityTag'
p5050
g96
sS'CharacterOffsetEnd'
p5051
S'1322'
p5052
sS'Lemma'
p5053
S'official'
p5054
sS'PartOfSpeech'
p5055
S'NNS'
p5056
sS'CharacterOffsetBegin'
p5057
S'1313'
p5058
stp5059
a(g227
(dp5060
S'NamedEntityTag'
p5061
g96
sS'CharacterOffsetEnd'
p5062
S'1323'
p5063
sS'Lemma'
p5064
g227
sS'PartOfSpeech'
p5065
g227
sS'CharacterOffsetBegin'
p5066
S'1322'
p5067
stp5068
asa(dp5069
g7
S'(ROOT (SINV (S (NP (PRP He)) (VP (VBD left) (NP-TMP (NNP Saturday) (NN evening)) (PP (IN for) (NP (NNP Geneva))) (, ,) (SBAR (WHADVP (WRB where)) (S (NP (PRP$ his) (NN family) (CC and) (NNS colleagues)) (VP (VBD were) (VP (VBG awaiting) (NP (PRP him)) (PP (IN at) (NP (NNP U.N.) (NN headquarters))))))))) (, ,) (VP (VBD said)) (NP (NP (NNP Vera) (NNP Sobolyeva)) (, ,) (NP (NP (NNP UNHCR) (NN spokeswoman)) (PP (IN in) (NP (NNP Moscow))))) (. .)))'
p5070
sg9
S'He left Saturday evening for Geneva, where his family and colleagues were awaiting him at U.N. headquarters, said Vera Sobolyeva, UNHCR spokeswoman in Moscow.'
p5071
sg11
(lp5072
(S'root'
p5073
S'ROOT'
p5074
S'said'
p5075
tp5076
a(S'nsubj'
p5077
S'left'
p5078
S'He'
p5079
tp5080
a(S'ccomp'
p5081
S'said'
p5082
S'left'
p5083
tp5084
a(S'nn'
p5085
S'evening'
p5086
S'Saturday'
p5087
tp5088
a(S'tmod'
p5089
S'left'
p5090
S'evening'
p5091
tp5092
a(S'prep_for'
p5093
S'left'
p5094
S'Geneva'
p5095
tp5096
a(S'advmod'
p5097
S'awaiting'
p5098
S'where'
p5099
tp5100
a(S'poss'
p5101
S'family'
p5102
S'his'
p5103
tp5104
a(S'nsubj'
p5105
S'awaiting'
p5106
S'family'
p5107
tp5108
a(S'conj_and'
p5109
S'family'
p5110
S'colleagues'
p5111
tp5112
a(S'aux'
p5113
S'awaiting'
p5114
S'were'
p5115
tp5116
a(S'advcl'
p5117
S'left'
p5118
S'awaiting'
p5119
tp5120
a(S'dobj'
p5121
S'awaiting'
p5122
S'him'
p5123
tp5124
a(S'nn'
p5125
S'headquarters'
p5126
S'U.N.'
p5127
tp5128
a(S'prep_at'
p5129
S'awaiting'
p5130
S'headquarters'
p5131
tp5132
a(S'nn'
p5133
S'Sobolyeva'
p5134
S'Vera'
p5135
tp5136
a(S'nsubj'
p5137
S'said'
p5138
S'Sobolyeva'
p5139
tp5140
a(S'nn'
p5141
S'spokeswoman'
p5142
S'UNHCR'
p5143
tp5144
a(S'appos'
p5145
S'Sobolyeva'
p5146
S'spokeswoman'
p5147
tp5148
a(S'prep_in'
p5149
S'spokeswoman'
p5150
S'Moscow'
p5151
tp5152
asg49
(lp5153
(g5073
S'ROOT-0'
p5154
S'said-20'
p5155
tp5156
a(g5077
S'left-2'
p5157
S'He-1'
p5158
tp5159
a(g5081
S'said-20'
p5160
S'left-2'
p5161
tp5162
a(g5085
S'evening-4'
p5163
S'Saturday-3'
p5164
tp5165
a(g5089
S'left-2'
p5166
S'evening-4'
p5167
tp5168
a(g5093
S'left-2'
p5169
S'Geneva-6'
p5170
tp5171
a(g5097
S'awaiting-14'
p5172
S'where-8'
p5173
tp5174
a(g5101
S'family-10'
p5175
S'his-9'
p5176
tp5177
a(g5105
S'awaiting-14'
p5178
S'family-10'
p5179
tp5180
a(g5109
S'family-10'
p5181
S'colleagues-12'
p5182
tp5183
a(g5113
S'awaiting-14'
p5184
S'were-13'
p5185
tp5186
a(g5117
S'left-2'
p5187
S'awaiting-14'
p5188
tp5189
a(g5121
S'awaiting-14'
p5190
S'him-15'
p5191
tp5192
a(g5125
S'headquarters-18'
p5193
S'U.N.-17'
p5194
tp5195
a(g5129
S'awaiting-14'
p5196
S'headquarters-18'
p5197
tp5198
a(g5133
S'Sobolyeva-22'
p5199
S'Vera-21'
p5200
tp5201
a(g5137
S'said-20'
p5202
S'Sobolyeva-22'
p5203
tp5204
a(g5141
S'spokeswoman-25'
p5205
S'UNHCR-24'
p5206
tp5207
a(g5145
S'Sobolyeva-22'
p5208
S'spokeswoman-25'
p5209
tp5210
a(g5149
S'spokeswoman-25'
p5211
S'Moscow-27'
p5212
tp5213
asg78
(lp5214
(S'He'
p5215
(dp5216
S'NamedEntityTag'
p5217
g96
sS'CharacterOffsetEnd'
p5218
S'1326'
p5219
sS'Lemma'
p5220
S'he'
p5221
sS'PartOfSpeech'
p5222
S'PRP'
p5223
sS'CharacterOffsetBegin'
p5224
S'1324'
p5225
stp5226
a(S'left'
p5227
(dp5228
S'NamedEntityTag'
p5229
g96
sS'CharacterOffsetEnd'
p5230
S'1331'
p5231
sS'Lemma'
p5232
S'leave'
p5233
sS'PartOfSpeech'
p5234
S'VBD'
p5235
sS'CharacterOffsetBegin'
p5236
S'1327'
p5237
stp5238
a(S'Saturday'
p5239
(dp5240
S'NormalizedNamedEntityTag'
p5241
S'XXXX-WXX-6TEV'
p5242
sS'Timex'
p5243
S'<TIMEX3 tid="t5" type="TIME" value="XXXX-WXX-6TEV">Saturday evening</TIMEX3>'
p5244
sS'Lemma'
p5245
S'Saturday'
p5246
sS'CharacterOffsetEnd'
p5247
S'1340'
p5248
sS'PartOfSpeech'
p5249
S'NNP'
p5250
sS'CharacterOffsetBegin'
p5251
S'1332'
p5252
sS'NamedEntityTag'
p5253
S'DATE'
p5254
stp5255
a(S'evening'
p5256
(dp5257
S'NormalizedNamedEntityTag'
p5258
S'XXXX-WXX-6TEV'
p5259
sS'Timex'
p5260
S'<TIMEX3 tid="t5" type="TIME" value="XXXX-WXX-6TEV">Saturday evening</TIMEX3>'
p5261
sS'Lemma'
p5262
S'evening'
p5263
sS'CharacterOffsetEnd'
p5264
S'1348'
p5265
sS'PartOfSpeech'
p5266
S'NN'
p5267
sS'CharacterOffsetBegin'
p5268
S'1341'
p5269
sS'NamedEntityTag'
p5270
S'TIME'
p5271
stp5272
a(S'for'
p5273
(dp5274
S'NamedEntityTag'
p5275
g96
sS'CharacterOffsetEnd'
p5276
S'1352'
p5277
sS'Lemma'
p5278
S'for'
p5279
sS'PartOfSpeech'
p5280
S'IN'
p5281
sS'CharacterOffsetBegin'
p5282
S'1349'
p5283
stp5284
a(S'Geneva'
p5285
(dp5286
S'NamedEntityTag'
p5287
S'LOCATION'
p5288
sS'CharacterOffsetEnd'
p5289
S'1359'
p5290
sS'Lemma'
p5291
S'Geneva'
p5292
sS'PartOfSpeech'
p5293
S'NNP'
p5294
sS'CharacterOffsetBegin'
p5295
S'1353'
p5296
stp5297
a(g180
(dp5298
S'NamedEntityTag'
p5299
g96
sS'CharacterOffsetEnd'
p5300
S'1360'
p5301
sS'Lemma'
p5302
g180
sS'PartOfSpeech'
p5303
g180
sS'CharacterOffsetBegin'
p5304
S'1359'
p5305
stp5306
a(S'where'
p5307
(dp5308
S'NamedEntityTag'
p5309
g96
sS'CharacterOffsetEnd'
p5310
S'1366'
p5311
sS'Lemma'
p5312
S'where'
p5313
sS'PartOfSpeech'
p5314
S'WRB'
p5315
sS'CharacterOffsetBegin'
p5316
S'1361'
p5317
stp5318
a(S'his'
p5319
(dp5320
S'NamedEntityTag'
p5321
g96
sS'CharacterOffsetEnd'
p5322
S'1370'
p5323
sS'Lemma'
p5324
S'he'
p5325
sS'PartOfSpeech'
p5326
S'PRP$'
p5327
sS'CharacterOffsetBegin'
p5328
S'1367'
p5329
stp5330
a(S'family'
p5331
(dp5332
S'NamedEntityTag'
p5333
g96
sS'CharacterOffsetEnd'
p5334
S'1377'
p5335
sS'Lemma'
p5336
S'family'
p5337
sS'PartOfSpeech'
p5338
S'NN'
p5339
sS'CharacterOffsetBegin'
p5340
S'1371'
p5341
stp5342
a(S'and'
p5343
(dp5344
S'NamedEntityTag'
p5345
g96
sS'CharacterOffsetEnd'
p5346
S'1381'
p5347
sS'Lemma'
p5348
S'and'
p5349
sS'PartOfSpeech'
p5350
S'CC'
p5351
sS'CharacterOffsetBegin'
p5352
S'1378'
p5353
stp5354
a(S'colleagues'
p5355
(dp5356
S'NamedEntityTag'
p5357
g96
sS'CharacterOffsetEnd'
p5358
S'1392'
p5359
sS'Lemma'
p5360
S'colleague'
p5361
sS'PartOfSpeech'
p5362
S'NNS'
p5363
sS'CharacterOffsetBegin'
p5364
S'1382'
p5365
stp5366
a(S'were'
p5367
(dp5368
S'NamedEntityTag'
p5369
g96
sS'CharacterOffsetEnd'
p5370
S'1397'
p5371
sS'Lemma'
p5372
S'be'
p5373
sS'PartOfSpeech'
p5374
S'VBD'
p5375
sS'CharacterOffsetBegin'
p5376
S'1393'
p5377
stp5378
a(S'awaiting'
p5379
(dp5380
S'NamedEntityTag'
p5381
g96
sS'CharacterOffsetEnd'
p5382
S'1406'
p5383
sS'Lemma'
p5384
S'await'
p5385
sS'PartOfSpeech'
p5386
S'VBG'
p5387
sS'CharacterOffsetBegin'
p5388
S'1398'
p5389
stp5390
a(S'him'
p5391
(dp5392
S'NamedEntityTag'
p5393
g96
sS'CharacterOffsetEnd'
p5394
S'1410'
p5395
sS'Lemma'
p5396
S'he'
p5397
sS'PartOfSpeech'
p5398
S'PRP'
p5399
sS'CharacterOffsetBegin'
p5400
S'1407'
p5401
stp5402
a(S'at'
p5403
(dp5404
S'NamedEntityTag'
p5405
g96
sS'CharacterOffsetEnd'
p5406
S'1413'
p5407
sS'Lemma'
p5408
S'at'
p5409
sS'PartOfSpeech'
p5410
S'IN'
p5411
sS'CharacterOffsetBegin'
p5412
S'1411'
p5413
stp5414
a(S'U.N.'
p5415
(dp5416
S'NamedEntityTag'
p5417
S'ORGANIZATION'
p5418
sS'CharacterOffsetEnd'
p5419
S'1418'
p5420
sS'Lemma'
p5421
S'U.N.'
p5422
sS'PartOfSpeech'
p5423
S'NNP'
p5424
sS'CharacterOffsetBegin'
p5425
S'1414'
p5426
stp5427
a(S'headquarters'
p5428
(dp5429
S'NamedEntityTag'
p5430
g96
sS'CharacterOffsetEnd'
p5431
S'1431'
p5432
sS'Lemma'
p5433
S'headquarters'
p5434
sS'PartOfSpeech'
p5435
S'NN'
p5436
sS'CharacterOffsetBegin'
p5437
S'1419'
p5438
stp5439
a(g180
(dp5440
S'NamedEntityTag'
p5441
g96
sS'CharacterOffsetEnd'
p5442
S'1432'
p5443
sS'Lemma'
p5444
g180
sS'PartOfSpeech'
p5445
g180
sS'CharacterOffsetBegin'
p5446
S'1431'
p5447
stp5448
a(S'said'
p5449
(dp5450
S'NamedEntityTag'
p5451
g96
sS'CharacterOffsetEnd'
p5452
S'1437'
p5453
sS'Lemma'
p5454
S'say'
p5455
sS'PartOfSpeech'
p5456
S'VBD'
p5457
sS'CharacterOffsetBegin'
p5458
S'1433'
p5459
stp5460
a(S'Vera'
p5461
(dp5462
S'NamedEntityTag'
p5463
S'PERSON'
p5464
sS'CharacterOffsetEnd'
p5465
S'1442'
p5466
sS'Lemma'
p5467
S'Vera'
p5468
sS'PartOfSpeech'
p5469
S'NNP'
p5470
sS'CharacterOffsetBegin'
p5471
S'1438'
p5472
stp5473
a(S'Sobolyeva'
p5474
(dp5475
S'NamedEntityTag'
p5476
S'PERSON'
p5477
sS'CharacterOffsetEnd'
p5478
S'1452'
p5479
sS'Lemma'
p5480
S'Sobolyeva'
p5481
sS'PartOfSpeech'
p5482
S'NNP'
p5483
sS'CharacterOffsetBegin'
p5484
S'1443'
p5485
stp5486
a(g180
(dp5487
S'NamedEntityTag'
p5488
g96
sS'CharacterOffsetEnd'
p5489
S'1453'
p5490
sS'Lemma'
p5491
g180
sS'PartOfSpeech'
p5492
g180
sS'CharacterOffsetBegin'
p5493
S'1452'
p5494
stp5495
a(S'UNHCR'
p5496
(dp5497
S'NamedEntityTag'
p5498
S'ORGANIZATION'
p5499
sS'CharacterOffsetEnd'
p5500
S'1459'
p5501
sS'Lemma'
p5502
S'UNHCR'
p5503
sS'PartOfSpeech'
p5504
S'NNP'
p5505
sS'CharacterOffsetBegin'
p5506
S'1454'
p5507
stp5508
a(S'spokeswoman'
p5509
(dp5510
S'NamedEntityTag'
p5511
g96
sS'CharacterOffsetEnd'
p5512
S'1471'
p5513
sS'Lemma'
p5514
S'spokeswoman'
p5515
sS'PartOfSpeech'
p5516
S'NN'
p5517
sS'CharacterOffsetBegin'
p5518
S'1460'
p5519
stp5520
a(S'in'
p5521
(dp5522
S'NamedEntityTag'
p5523
g96
sS'CharacterOffsetEnd'
p5524
S'1474'
p5525
sS'Lemma'
p5526
S'in'
p5527
sS'PartOfSpeech'
p5528
S'IN'
p5529
sS'CharacterOffsetBegin'
p5530
S'1472'
p5531
stp5532
a(S'Moscow'
p5533
(dp5534
S'NamedEntityTag'
p5535
S'LOCATION'
p5536
sS'CharacterOffsetEnd'
p5537
S'1481'
p5538
sS'Lemma'
p5539
S'Moscow'
p5540
sS'PartOfSpeech'
p5541
S'NNP'
p5542
sS'CharacterOffsetBegin'
p5543
S'1475'
p5544
stp5545
a(g227
(dp5546
S'NamedEntityTag'
p5547
g96
sS'CharacterOffsetEnd'
p5548
S'1482'
p5549
sS'Lemma'
p5550
g227
sS'PartOfSpeech'
p5551
g227
sS'CharacterOffsetBegin'
p5552
S'1481'
p5553
stp5554
asa(dp5555
g7
S'(ROOT (S (VP (VBG Speaking) (ADVP (RB briefly)) (NP (NP (, ,) (JJ 6th) (NN graf)) (NP (NNS pvs))))))'
p5556
sg9
S'Speaking briefly, 6th graf pvs'
p5557
sg11
(lp5558
(S'root'
p5559
S'ROOT'
p5560
S'Speaking'
p5561
tp5562
a(S'advmod'
p5563
S'Speaking'
p5564
S'briefly'
p5565
tp5566
a(S'amod'
p5567
S'graf'
p5568
S'6th'
p5569
tp5570
a(S'dobj'
p5571
S'Speaking'
p5572
S'graf'
p5573
tp5574
a(S'dep'
p5575
S'graf'
p5576
S'pvs'
p5577
tp5578
asg49
(lp5579
(g5559
S'ROOT-0'
p5580
S'Speaking-1'
p5581
tp5582
a(g5563
S'Speaking-1'
p5583
S'briefly-2'
p5584
tp5585
a(g5567
S'graf-5'
p5586
S'6th-4'
p5587
tp5588
a(g5571
S'Speaking-1'
p5589
S'graf-5'
p5590
tp5591
a(g5575
S'graf-5'
p5592
S'pvs-6'
p5593
tp5594
asg78
(lp5595
(S'Speaking'
p5596
(dp5597
S'NamedEntityTag'
p5598
g96
sS'CharacterOffsetEnd'
p5599
S'1491'
p5600
sS'Lemma'
p5601
S'speak'
p5602
sS'PartOfSpeech'
p5603
S'VBG'
p5604
sS'CharacterOffsetBegin'
p5605
S'1483'
p5606
stp5607
a(S'briefly'
p5608
(dp5609
S'NamedEntityTag'
p5610
g96
sS'CharacterOffsetEnd'
p5611
S'1499'
p5612
sS'Lemma'
p5613
S'briefly'
p5614
sS'PartOfSpeech'
p5615
S'RB'
p5616
sS'CharacterOffsetBegin'
p5617
S'1492'
p5618
stp5619
a(g180
(dp5620
S'NamedEntityTag'
p5621
g96
sS'CharacterOffsetEnd'
p5622
S'1500'
p5623
sS'Lemma'
p5624
g180
sS'PartOfSpeech'
p5625
g180
sS'CharacterOffsetBegin'
p5626
S'1499'
p5627
stp5628
a(S'6th'
p5629
(dp5630
S'NormalizedNamedEntityTag'
p5631
S'6.0'
p5632
sS'Lemma'
p5633
S'6th'
p5634
sS'CharacterOffsetEnd'
p5635
S'1504'
p5636
sS'PartOfSpeech'
p5637
S'JJ'
p5638
sS'CharacterOffsetBegin'
p5639
S'1501'
p5640
sS'NamedEntityTag'
p5641
S'ORDINAL'
p5642
stp5643
a(S'graf'
p5644
(dp5645
S'NamedEntityTag'
p5646
g96
sS'CharacterOffsetEnd'
p5647
S'1509'
p5648
sS'Lemma'
p5649
S'graf'
p5650
sS'PartOfSpeech'
p5651
S'NN'
p5652
sS'CharacterOffsetBegin'
p5653
S'1505'
p5654
stp5655
a(S'pvs'
p5656
(dp5657
S'NamedEntityTag'
p5658
g96
sS'CharacterOffsetEnd'
p5659
S'1513'
p5660
sS'Lemma'
p5661
S'pv'
p5662
sS'PartOfSpeech'
p5663
S'NNS'
p5664
sS'CharacterOffsetBegin'
p5665
S'1510'
p5666
stp5667
asass.