(dp0
S'models'
p1
(lp2
(dp3
S'sentences'
p4
(lp5
(dp6
S'parsetree'
p7
S'(ROOT (S (NP (JJ Russian) (NNS explosives)) (VP (VBD left) (PRT (RP behind)) (PP (IN in) (NP (NNP Chechnya))) (S (VP (VBG causing) (NP (NNS deaths) (CC and) (NNS injuries)))))))'
p8
sS'text'
p9
S'Russian explosives left behind in Chechnya causing deaths and injuries'
p10
sS'dependencies'
p11
(lp12
(S'root'
p13
S'ROOT'
p14
S'left'
p15
tp16
a(S'amod'
p17
S'explosives'
p18
S'Russian'
p19
tp20
a(S'nsubj'
p21
S'left'
p22
S'explosives'
p23
tp24
a(S'prt'
p25
S'left'
p26
S'behind'
p27
tp28
a(S'prep_in'
p29
S'left'
p30
S'Chechnya'
p31
tp32
a(S'xcomp'
p33
S'left'
p34
S'causing'
p35
tp36
a(S'dobj'
p37
S'causing'
p38
S'deaths'
p39
tp40
a(S'conj_and'
p41
S'deaths'
p42
S'injuries'
p43
tp44
asS'indexeddependencies'
p45
(lp46
(g13
S'ROOT-0'
p47
S'left-3'
p48
tp49
a(g17
S'explosives-2'
p50
S'Russian-1'
p51
tp52
a(g21
S'left-3'
p53
S'explosives-2'
p54
tp55
a(g25
S'left-3'
p56
S'behind-4'
p57
tp58
a(g29
S'left-3'
p59
S'Chechnya-6'
p60
tp61
a(g33
S'left-3'
p62
S'causing-7'
p63
tp64
a(g37
S'causing-7'
p65
S'deaths-8'
p66
tp67
a(g41
S'deaths-8'
p68
S'injuries-10'
p69
tp70
asS'words'
p71
(lp72
(S'Russian'
p73
(dp74
S'NamedEntityTag'
p75
S'MISC'
p76
sS'CharacterOffsetEnd'
p77
S'8'
p78
sS'Lemma'
p79
S'russian'
p80
sS'PartOfSpeech'
p81
S'JJ'
p82
sS'CharacterOffsetBegin'
p83
S'1'
p84
stp85
a(S'explosives'
p86
(dp87
S'NamedEntityTag'
p88
S'O'
p89
sS'CharacterOffsetEnd'
p90
S'19'
p91
sS'Lemma'
p92
S'explosive'
p93
sS'PartOfSpeech'
p94
S'NNS'
p95
sS'CharacterOffsetBegin'
p96
S'9'
p97
stp98
a(S'left'
p99
(dp100
S'NamedEntityTag'
p101
g89
sS'CharacterOffsetEnd'
p102
S'24'
p103
sS'Lemma'
p104
S'leave'
p105
sS'PartOfSpeech'
p106
S'VBD'
p107
sS'CharacterOffsetBegin'
p108
S'20'
p109
stp110
a(S'behind'
p111
(dp112
S'NamedEntityTag'
p113
g89
sS'CharacterOffsetEnd'
p114
S'31'
p115
sS'Lemma'
p116
S'behind'
p117
sS'PartOfSpeech'
p118
S'RP'
p119
sS'CharacterOffsetBegin'
p120
S'25'
p121
stp122
a(S'in'
p123
(dp124
S'NamedEntityTag'
p125
g89
sS'CharacterOffsetEnd'
p126
S'34'
p127
sS'Lemma'
p128
S'in'
p129
sS'PartOfSpeech'
p130
S'IN'
p131
sS'CharacterOffsetBegin'
p132
S'32'
p133
stp134
a(S'Chechnya'
p135
(dp136
S'NamedEntityTag'
p137
S'LOCATION'
p138
sS'CharacterOffsetEnd'
p139
S'43'
p140
sS'Lemma'
p141
S'Chechnya'
p142
sS'PartOfSpeech'
p143
S'NNP'
p144
sS'CharacterOffsetBegin'
p145
S'35'
p146
stp147
a(S'causing'
p148
(dp149
S'NamedEntityTag'
p150
g89
sS'CharacterOffsetEnd'
p151
S'51'
p152
sS'Lemma'
p153
S'cause'
p154
sS'PartOfSpeech'
p155
S'VBG'
p156
sS'CharacterOffsetBegin'
p157
S'44'
p158
stp159
a(S'deaths'
p160
(dp161
S'NamedEntityTag'
p162
g89
sS'CharacterOffsetEnd'
p163
S'58'
p164
sS'Lemma'
p165
S'death'
p166
sS'PartOfSpeech'
p167
S'NNS'
p168
sS'CharacterOffsetBegin'
p169
S'52'
p170
stp171
a(S'and'
p172
(dp173
S'NamedEntityTag'
p174
g89
sS'CharacterOffsetEnd'
p175
S'62'
p176
sS'Lemma'
p177
S'and'
p178
sS'PartOfSpeech'
p179
S'CC'
p180
sS'CharacterOffsetBegin'
p181
S'59'
p182
stp183
a(S'injuries'
p184
(dp185
S'NamedEntityTag'
p186
g89
sS'CharacterOffsetEnd'
p187
S'71'
p188
sS'Lemma'
p189
S'injury'
p190
sS'PartOfSpeech'
p191
S'NNS'
p192
sS'CharacterOffsetBegin'
p193
S'63'
p194
stp195
asasa(dp196
g4
(lp197
(dp198
g7
S'(ROOT (S (NP (NP (NNP Chechnya)) (, ,) (NP (NN land) (NN mine)) (, ,) (NP (NNS children)) (, ,) (NP (NN truck)) (, ,) (NP (NNS injuries)) (, ,) (NP (NN tractor) (NN driver))) (VP (VBD was) (VP (VBN killed)))))'
p199
sg9
S'Chechnya, land mine, children, truck, injuries, tractor driver was killed'
p200
sg11
(lp201
(S'root'
p202
S'ROOT'
p203
S'killed'
p204
tp205
a(S'nsubjpass'
p206
S'killed'
p207
S'Chechnya'
p208
tp209
a(S'nn'
p210
S'mine'
p211
S'land'
p212
tp213
a(S'appos'
p214
S'Chechnya'
p215
S'mine'
p216
tp217
a(S'appos'
p218
S'Chechnya'
p219
S'children'
p220
tp221
a(S'appos'
p222
S'Chechnya'
p223
S'truck'
p224
tp225
a(S'appos'
p226
S'Chechnya'
p227
S'injuries'
p228
tp229
a(S'nn'
p230
S'driver'
p231
S'tractor'
p232
tp233
a(S'appos'
p234
S'Chechnya'
p235
S'driver'
p236
tp237
a(S'auxpass'
p238
S'killed'
p239
S'was'
p240
tp241
asg45
(lp242
(g202
S'ROOT-0'
p243
S'killed-15'
p244
tp245
a(g206
S'killed-15'
p246
S'Chechnya-1'
p247
tp248
a(g210
S'mine-4'
p249
S'land-3'
p250
tp251
a(g214
S'Chechnya-1'
p252
S'mine-4'
p253
tp254
a(g218
S'Chechnya-1'
p255
S'children-6'
p256
tp257
a(g222
S'Chechnya-1'
p258
S'truck-8'
p259
tp260
a(g226
S'Chechnya-1'
p261
S'injuries-10'
p262
tp263
a(g230
S'driver-13'
p264
S'tractor-12'
p265
tp266
a(g234
S'Chechnya-1'
p267
S'driver-13'
p268
tp269
a(g238
S'killed-15'
p270
S'was-14'
p271
tp272
asg71
(lp273
(S'Chechnya'
p274
(dp275
S'NamedEntityTag'
p276
S'LOCATION'
p277
sS'CharacterOffsetEnd'
p278
g97
sS'Lemma'
p279
S'Chechnya'
p280
sS'PartOfSpeech'
p281
S'NNP'
p282
sS'CharacterOffsetBegin'
p283
g84
stp284
a(S','
p285
(dp286
S'NamedEntityTag'
p287
g89
sS'CharacterOffsetEnd'
p288
S'10'
p289
sS'Lemma'
p290
g285
sS'PartOfSpeech'
p291
g285
sS'CharacterOffsetBegin'
p292
g97
stp293
a(S'land'
p294
(dp295
S'NamedEntityTag'
p296
g89
sS'CharacterOffsetEnd'
p297
S'15'
p298
sS'Lemma'
p299
S'land'
p300
sS'PartOfSpeech'
p301
S'NN'
p302
sS'CharacterOffsetBegin'
p303
S'11'
p304
stp305
a(S'mine'
p306
(dp307
S'NamedEntityTag'
p308
g89
sS'CharacterOffsetEnd'
p309
S'20'
p310
sS'Lemma'
p311
S'mine'
p312
sS'PartOfSpeech'
p313
S'NN'
p314
sS'CharacterOffsetBegin'
p315
S'16'
p316
stp317
a(g285
(dp318
S'NamedEntityTag'
p319
g89
sS'CharacterOffsetEnd'
p320
S'21'
p321
sS'Lemma'
p322
g285
sS'PartOfSpeech'
p323
g285
sS'CharacterOffsetBegin'
p324
S'20'
p325
stp326
a(S'children'
p327
(dp328
S'NamedEntityTag'
p329
g89
sS'CharacterOffsetEnd'
p330
S'30'
p331
sS'Lemma'
p332
S'child'
p333
sS'PartOfSpeech'
p334
S'NNS'
p335
sS'CharacterOffsetBegin'
p336
S'22'
p337
stp338
a(g285
(dp339
S'NamedEntityTag'
p340
g89
sS'CharacterOffsetEnd'
p341
S'31'
p342
sS'Lemma'
p343
g285
sS'PartOfSpeech'
p344
g285
sS'CharacterOffsetBegin'
p345
S'30'
p346
stp347
a(S'truck'
p348
(dp349
S'NamedEntityTag'
p350
g89
sS'CharacterOffsetEnd'
p351
S'37'
p352
sS'Lemma'
p353
S'truck'
p354
sS'PartOfSpeech'
p355
S'NN'
p356
sS'CharacterOffsetBegin'
p357
S'32'
p358
stp359
a(g285
(dp360
S'NamedEntityTag'
p361
g89
sS'CharacterOffsetEnd'
p362
S'38'
p363
sS'Lemma'
p364
g285
sS'PartOfSpeech'
p365
g285
sS'CharacterOffsetBegin'
p366
S'37'
p367
stp368
a(S'injuries'
p369
(dp370
S'NamedEntityTag'
p371
g89
sS'CharacterOffsetEnd'
p372
S'47'
p373
sS'Lemma'
p374
S'injury'
p375
sS'PartOfSpeech'
p376
S'NNS'
p377
sS'CharacterOffsetBegin'
p378
S'39'
p379
stp380
a(g285
(dp381
S'NamedEntityTag'
p382
g89
sS'CharacterOffsetEnd'
p383
S'48'
p384
sS'Lemma'
p385
g285
sS'PartOfSpeech'
p386
g285
sS'CharacterOffsetBegin'
p387
S'47'
p388
stp389
a(S'tractor'
p390
(dp391
S'NamedEntityTag'
p392
g89
sS'CharacterOffsetEnd'
p393
S'56'
p394
sS'Lemma'
p395
S'tractor'
p396
sS'PartOfSpeech'
p397
S'NN'
p398
sS'CharacterOffsetBegin'
p399
S'49'
p400
stp401
a(S'driver'
p402
(dp403
S'NamedEntityTag'
p404
g89
sS'CharacterOffsetEnd'
p405
S'63'
p406
sS'Lemma'
p407
S'driver'
p408
sS'PartOfSpeech'
p409
S'NN'
p410
sS'CharacterOffsetBegin'
p411
S'57'
p412
stp413
a(S'was'
p414
(dp415
S'NamedEntityTag'
p416
g89
sS'CharacterOffsetEnd'
p417
S'67'
p418
sS'Lemma'
p419
S'be'
p420
sS'PartOfSpeech'
p421
S'VBD'
p422
sS'CharacterOffsetBegin'
p423
S'64'
p424
stp425
a(S'killed'
p426
(dp427
S'NamedEntityTag'
p428
g89
sS'CharacterOffsetEnd'
p429
S'74'
p430
sS'Lemma'
p431
S'kill'
p432
sS'PartOfSpeech'
p433
S'VBN'
p434
sS'CharacterOffsetBegin'
p435
S'68'
p436
stp437
asasa(dp438
g4
(lp439
(dp440
g7
S'(ROOT (S (NP (NNS Landmines)) (VP (VBP kill) (NP (NP (NP (CD 3)) (PP (IN in) (NP (NNP Chechnya)))) (: ;) (NP (NP (JJ normal) (NN occurrence)) (PP (IN after) (NP (NP (NN war)) (PP (IN for) (NP (NN independence)))))))) (. .)))'
p441
sg9
S'Landmines kill 3 in Chechnya; normal occurrence after war for independence.'
p442
sg11
(lp443
(S'root'
p444
S'ROOT'
p445
S'kill'
p446
tp447
a(S'nsubj'
p448
S'kill'
p449
S'Landmines'
p450
tp451
a(S'dobj'
p452
S'kill'
p453
S'3'
p454
tp455
a(S'prep_in'
p456
g454
S'Chechnya'
p457
tp458
a(S'amod'
p459
S'occurrence'
p460
S'normal'
p461
tp462
a(S'dep'
p463
g454
S'occurrence'
p464
tp465
a(S'prep_after'
p466
S'occurrence'
p467
S'war'
p468
tp469
a(S'prep_for'
p470
S'war'
p471
S'independence'
p472
tp473
asg45
(lp474
(g444
S'ROOT-0'
p475
S'kill-2'
p476
tp477
a(g448
S'kill-2'
p478
S'Landmines-1'
p479
tp480
a(g452
S'kill-2'
p481
S'3-3'
p482
tp483
a(g456
S'3-3'
p484
S'Chechnya-5'
p485
tp486
a(g459
S'occurrence-8'
p487
S'normal-7'
p488
tp489
a(g463
S'3-3'
p490
S'occurrence-8'
p491
tp492
a(g466
S'occurrence-8'
p493
S'war-10'
p494
tp495
a(g470
S'war-10'
p496
S'independence-12'
p497
tp498
asg71
(lp499
(S'Landmines'
p500
(dp501
S'NamedEntityTag'
p502
g89
sS'CharacterOffsetEnd'
p503
S'10'
p504
sS'Lemma'
p505
S'landmine'
p506
sS'PartOfSpeech'
p507
S'NNS'
p508
sS'CharacterOffsetBegin'
p509
g84
stp510
a(S'kill'
p511
(dp512
S'NamedEntityTag'
p513
g89
sS'CharacterOffsetEnd'
p514
S'15'
p515
sS'Lemma'
p516
S'kill'
p517
sS'PartOfSpeech'
p518
S'VBP'
p519
sS'CharacterOffsetBegin'
p520
S'11'
p521
stp522
a(g454
(dp523
S'NormalizedNamedEntityTag'
p524
S'3.0'
p525
sS'Lemma'
p526
g454
sS'CharacterOffsetEnd'
p527
S'17'
p528
sS'PartOfSpeech'
p529
S'CD'
p530
sS'CharacterOffsetBegin'
p531
S'16'
p532
sS'NamedEntityTag'
p533
S'NUMBER'
p534
stp535
a(S'in'
p536
(dp537
S'NamedEntityTag'
p538
g89
sS'CharacterOffsetEnd'
p539
S'20'
p540
sS'Lemma'
p541
S'in'
p542
sS'PartOfSpeech'
p543
S'IN'
p544
sS'CharacterOffsetBegin'
p545
S'18'
p546
stp547
a(S'Chechnya'
p548
(dp549
S'NamedEntityTag'
p550
S'LOCATION'
p551
sS'CharacterOffsetEnd'
p552
S'29'
p553
sS'Lemma'
p554
S'Chechnya'
p555
sS'PartOfSpeech'
p556
S'NNP'
p557
sS'CharacterOffsetBegin'
p558
S'21'
p559
stp560
a(S';'
p561
(dp562
S'NamedEntityTag'
p563
g89
sS'CharacterOffsetEnd'
p564
S'30'
p565
sS'Lemma'
p566
g561
sS'PartOfSpeech'
p567
S':'
p568
sS'CharacterOffsetBegin'
p569
S'29'
p570
stp571
a(S'normal'
p572
(dp573
S'NamedEntityTag'
p574
g89
sS'CharacterOffsetEnd'
p575
S'37'
p576
sS'Lemma'
p577
S'normal'
p578
sS'PartOfSpeech'
p579
S'JJ'
p580
sS'CharacterOffsetBegin'
p581
S'31'
p582
stp583
a(S'occurrence'
p584
(dp585
S'NamedEntityTag'
p586
g89
sS'CharacterOffsetEnd'
p587
S'48'
p588
sS'Lemma'
p589
S'occurrence'
p590
sS'PartOfSpeech'
p591
S'NN'
p592
sS'CharacterOffsetBegin'
p593
S'38'
p594
stp595
a(S'after'
p596
(dp597
S'NamedEntityTag'
p598
g89
sS'CharacterOffsetEnd'
p599
S'54'
p600
sS'Lemma'
p601
S'after'
p602
sS'PartOfSpeech'
p603
S'IN'
p604
sS'CharacterOffsetBegin'
p605
S'49'
p606
stp607
a(S'war'
p608
(dp609
S'NamedEntityTag'
p610
g89
sS'CharacterOffsetEnd'
p611
S'58'
p612
sS'Lemma'
p613
S'war'
p614
sS'PartOfSpeech'
p615
S'NN'
p616
sS'CharacterOffsetBegin'
p617
S'55'
p618
stp619
a(S'for'
p620
(dp621
S'NamedEntityTag'
p622
g89
sS'CharacterOffsetEnd'
p623
S'62'
p624
sS'Lemma'
p625
S'for'
p626
sS'PartOfSpeech'
p627
S'IN'
p628
sS'CharacterOffsetBegin'
p629
S'59'
p630
stp631
a(S'independence'
p632
(dp633
S'NamedEntityTag'
p634
g89
sS'CharacterOffsetEnd'
p635
S'75'
p636
sS'Lemma'
p637
S'independence'
p638
sS'PartOfSpeech'
p639
S'NN'
p640
sS'CharacterOffsetBegin'
p641
S'63'
p642
stp643
a(S'.'
p644
(dp645
S'NamedEntityTag'
p646
g89
sS'CharacterOffsetEnd'
p647
S'76'
p648
sS'Lemma'
p649
g644
sS'PartOfSpeech'
p650
g644
sS'CharacterOffsetBegin'
p651
S'75'
p652
stp653
asasa(dp654
g4
(lp655
(dp656
g7
S'(ROOT (NP (NP (NP (CD 3-5) (NNS people)) (PP (IN per) (NP (NP (NN week)) (VP (VBN hurt) (PP (IN by) (NP (NP (NN land) (NNS mines)) (PP (IN in) (NP (NNP Chechnya))))))))) (: ;) (NP (NP (JJ many) (NNS victims)) (NP (NNS children))) (. .)))'
p657
sg9
S'3-5 people per week hurt by land mines in Chechnya; many victims children.'
p658
sg11
(lp659
(S'root'
p660
S'ROOT'
p661
S'people'
p662
tp663
a(S'num'
p664
S'people'
p665
S'3-5'
p666
tp667
a(S'prep_per'
p668
S'people'
p669
S'week'
p670
tp671
a(S'partmod'
p672
S'week'
p673
S'hurt'
p674
tp675
a(S'nn'
p676
S'mines'
p677
S'land'
p678
tp679
a(S'agent'
p680
S'hurt'
p681
S'mines'
p682
tp683
a(S'prep_in'
p684
S'mines'
p685
S'Chechnya'
p686
tp687
a(S'amod'
p688
S'victims'
p689
S'many'
p690
tp691
a(S'dep'
p692
S'people'
p693
S'victims'
p694
tp695
a(S'dep'
p696
S'victims'
p697
S'children'
p698
tp699
asg45
(lp700
(g660
S'ROOT-0'
p701
S'people-2'
p702
tp703
a(g664
S'people-2'
p704
S'3-5-1'
p705
tp706
a(g668
S'people-2'
p707
S'week-4'
p708
tp709
a(g672
S'week-4'
p710
S'hurt-5'
p711
tp712
a(g676
S'mines-8'
p713
S'land-7'
p714
tp715
a(g680
S'hurt-5'
p716
S'mines-8'
p717
tp718
a(g684
S'mines-8'
p719
S'Chechnya-10'
p720
tp721
a(g688
S'victims-13'
p722
S'many-12'
p723
tp724
a(g692
S'people-2'
p725
S'victims-13'
p726
tp727
a(g696
S'victims-13'
p728
S'children-14'
p729
tp730
asg71
(lp731
(S'3-5'
p732
(dp733
S'NormalizedNamedEntityTag'
p734
S'3.0'
p735
sS'Lemma'
p736
S'3-5'
p737
sS'CharacterOffsetEnd'
p738
S'4'
p739
sS'PartOfSpeech'
p740
S'CD'
p741
sS'CharacterOffsetBegin'
p742
g84
sS'NamedEntityTag'
p743
S'NUMBER'
p744
stp745
a(S'people'
p746
(dp747
S'NamedEntityTag'
p748
g89
sS'CharacterOffsetEnd'
p749
S'11'
p750
sS'Lemma'
p751
S'people'
p752
sS'PartOfSpeech'
p753
S'NNS'
p754
sS'CharacterOffsetBegin'
p755
S'5'
p756
stp757
a(S'per'
p758
(dp759
S'NamedEntityTag'
p760
g89
sS'CharacterOffsetEnd'
p761
S'15'
p762
sS'Lemma'
p763
S'per'
p764
sS'PartOfSpeech'
p765
S'IN'
p766
sS'CharacterOffsetBegin'
p767
S'12'
p768
stp769
a(S'week'
p770
(dp771
S'NormalizedNamedEntityTag'
p772
S'P1W'
p773
sS'Timex'
p774
S'<TIMEX3 tid="t1" type="DURATION" value="P1W">week</TIMEX3>'
p775
sS'Lemma'
p776
S'week'
p777
sS'CharacterOffsetEnd'
p778
S'20'
p779
sS'PartOfSpeech'
p780
S'NN'
p781
sS'CharacterOffsetBegin'
p782
S'16'
p783
sS'NamedEntityTag'
p784
S'DURATION'
p785
stp786
a(S'hurt'
p787
(dp788
S'NamedEntityTag'
p789
g89
sS'CharacterOffsetEnd'
p790
S'25'
p791
sS'Lemma'
p792
S'hurt'
p793
sS'PartOfSpeech'
p794
S'VBN'
p795
sS'CharacterOffsetBegin'
p796
S'21'
p797
stp798
a(S'by'
p799
(dp800
S'NamedEntityTag'
p801
g89
sS'CharacterOffsetEnd'
p802
S'28'
p803
sS'Lemma'
p804
S'by'
p805
sS'PartOfSpeech'
p806
S'IN'
p807
sS'CharacterOffsetBegin'
p808
S'26'
p809
stp810
a(S'land'
p811
(dp812
S'NamedEntityTag'
p813
g89
sS'CharacterOffsetEnd'
p814
S'33'
p815
sS'Lemma'
p816
S'land'
p817
sS'PartOfSpeech'
p818
S'NN'
p819
sS'CharacterOffsetBegin'
p820
S'29'
p821
stp822
a(S'mines'
p823
(dp824
S'NamedEntityTag'
p825
g89
sS'CharacterOffsetEnd'
p826
S'39'
p827
sS'Lemma'
p828
S'mine'
p829
sS'PartOfSpeech'
p830
S'NNS'
p831
sS'CharacterOffsetBegin'
p832
S'34'
p833
stp834
a(S'in'
p835
(dp836
S'NamedEntityTag'
p837
g89
sS'CharacterOffsetEnd'
p838
S'42'
p839
sS'Lemma'
p840
S'in'
p841
sS'PartOfSpeech'
p842
S'IN'
p843
sS'CharacterOffsetBegin'
p844
S'40'
p845
stp846
a(S'Chechnya'
p847
(dp848
S'NamedEntityTag'
p849
S'LOCATION'
p850
sS'CharacterOffsetEnd'
p851
S'51'
p852
sS'Lemma'
p853
S'Chechnya'
p854
sS'PartOfSpeech'
p855
S'NNP'
p856
sS'CharacterOffsetBegin'
p857
S'43'
p858
stp859
a(g561
(dp860
S'NamedEntityTag'
p861
g89
sS'CharacterOffsetEnd'
p862
S'52'
p863
sS'Lemma'
p864
g561
sS'PartOfSpeech'
p865
g568
sS'CharacterOffsetBegin'
p866
S'51'
p867
stp868
a(S'many'
p869
(dp870
S'NamedEntityTag'
p871
g89
sS'CharacterOffsetEnd'
p872
S'57'
p873
sS'Lemma'
p874
S'many'
p875
sS'PartOfSpeech'
p876
S'JJ'
p877
sS'CharacterOffsetBegin'
p878
S'53'
p879
stp880
a(S'victims'
p881
(dp882
S'NamedEntityTag'
p883
g89
sS'CharacterOffsetEnd'
p884
S'65'
p885
sS'Lemma'
p886
S'victim'
p887
sS'PartOfSpeech'
p888
S'NNS'
p889
sS'CharacterOffsetBegin'
p890
S'58'
p891
stp892
a(S'children'
p893
(dp894
S'NamedEntityTag'
p895
g89
sS'CharacterOffsetEnd'
p896
S'74'
p897
sS'Lemma'
p898
S'child'
p899
sS'PartOfSpeech'
p900
S'NNS'
p901
sS'CharacterOffsetBegin'
p902
S'66'
p903
stp904
a(g644
(dp905
S'NamedEntityTag'
p906
g89
sS'CharacterOffsetEnd'
p907
S'75'
p908
sS'Lemma'
p909
g644
sS'PartOfSpeech'
p910
g644
sS'CharacterOffsetBegin'
p911
S'74'
p912
stp913
asasasS'article'
p914
(dp915
S'coref'
p916
(lp917
(lp918
((S'two'
p919
I0
I2
I22
I23
tp920
(S'two'
p921
I0
I8
I18
I19
tp922
tp923
aa(lp924
((S'it'
p925
I0
I5
I5
I6
tp926
(S'A truck'
p927
I0
I1
I0
I2
tp928
tp929
aa(lp930
((S'Chechnyas'
p931
I1
I2
I22
I23
tp932
(S'breakaway Chechnya'
p933
I0
I3
I12
I14
tp934
tp935
a((S'Chechnyas'
p936
I4
I8
I18
I19
tp937
(S'breakaway Chechnya'
p938
I0
I3
I12
I14
tp939
tp940
a((S'Chechnya'
p941
I6
I0
I0
I1
tp942
(S'breakaway Chechnya'
p943
I0
I3
I12
I14
tp944
tp945
a((S'itself'
p946
I6
I2
I2
I3
tp947
(S'breakaway Chechnya'
p948
I0
I3
I12
I14
tp949
tp950
aa(lp951
((S'Interfax'
p952
I2
I-1
I19
I20
tp953
(S'Interfax'
p954
I1
I6
I16
I17
tp955
tp956
aa(lp957
((S'It'
p958
I3
I0
I0
I1
tp959
(S'three'
p960
I2
I5
I5
I6
tp961
tp962
aa(lp963
((S'Many of the victims'
p964
I4
I0
I0
I4
tp965
(S'children , who dig the ground to look for ammunition'
p966
I4
I5
I5
I15
tp967
tp968
a((S'children'
p969
I4
I5
I5
I6
tp970
(S'children , who dig the ground to look for ammunition'
p971
I4
I5
I5
I15
tp972
tp973
aa(lp974
((S'its'
p975
I5
I2
I2
I3
tp976
(S'Russia'
p977
I5
I0
I0
I1
tp978
tp979
a((S'Russia'
p980
I6
I2
I12
I13
tp981
(S'Russia'
p982
I5
I0
I0
I1
tp983
tp984
aa(lp985
((S'its'
p986
I6
I6
I16
I17
tp987
(S'no country'
p988
I6
I-1
I8
I10
tp989
tp990
aasg4
(lp991
(dp992
g7
S'(ROOT (S (S (NP (DT A) (NN truck)) (VP (VBD blew) (PRT (RP up)) (SBAR (WHADVP (WRB when)) (S (NP (PRP it)) (VP (VBD drove) (PP (IN over) (NP (NP (DT a) (NN land) (NN mine)) (PP (IN in) (NP (JJ breakaway) (NNP Chechnya))))) (PP (IN on) (NP (NNP Friday))) (, ,) (S (VP (VP (VBG killing) (NP (CD two) (NNS people))) (CC and) (VP (VBG injuring) (NP (CD two) (NNS others)))))))))) (, ,) (NP (DT a) (NN news) (NN agency)) (VP (VBD said)) (. .)))'
p993
sg9
S'A truck blew up when it drove over a land mine in breakaway Chechnya on Friday, killing two people and injuring two others, a news agency said.'
p994
sg11
(lp995
(S'root'
p996
S'ROOT'
p997
S'said'
p998
tp999
a(S'det'
p1000
S'truck'
p1001
S'A'
p1002
tp1003
a(S'nsubj'
p1004
S'blew'
p1005
S'truck'
p1006
tp1007
a(S'ccomp'
p1008
S'said'
p1009
S'blew'
p1010
tp1011
a(S'prt'
p1012
S'blew'
p1013
S'up'
p1014
tp1015
a(S'advmod'
p1016
S'drove'
p1017
S'when'
p1018
tp1019
a(S'nsubj'
p1020
S'drove'
p1021
S'it'
p1022
tp1023
a(S'advcl'
p1024
S'blew'
p1025
S'drove'
p1026
tp1027
a(S'det'
p1028
S'mine'
p1029
S'a'
p1030
tp1031
a(S'nn'
p1032
S'mine'
p1033
S'land'
p1034
tp1035
a(S'prep_over'
p1036
S'drove'
p1037
S'mine'
p1038
tp1039
a(S'amod'
p1040
S'Chechnya'
p1041
S'breakaway'
p1042
tp1043
a(S'prep_in'
p1044
S'mine'
p1045
S'Chechnya'
p1046
tp1047
a(S'prep_on'
p1048
S'drove'
p1049
S'Friday'
p1050
tp1051
a(S'ccomp'
p1052
S'drove'
p1053
S'killing'
p1054
tp1055
a(S'num'
p1056
S'people'
p1057
S'two'
p1058
tp1059
a(S'dobj'
p1060
S'killing'
p1061
S'people'
p1062
tp1063
a(S'conj_and'
p1064
S'killing'
p1065
S'injuring'
p1066
tp1067
a(S'num'
p1068
S'others'
p1069
S'two'
p1070
tp1071
a(S'dobj'
p1072
S'injuring'
p1073
S'others'
p1074
tp1075
a(S'det'
p1076
S'agency'
p1077
g1030
tp1078
a(S'nn'
p1079
S'agency'
p1080
S'news'
p1081
tp1082
a(S'nsubj'
p1083
S'said'
p1084
S'agency'
p1085
tp1086
asg45
(lp1087
(g996
S'ROOT-0'
p1088
S'said-29'
p1089
tp1090
a(g1000
S'truck-2'
p1091
S'A-1'
p1092
tp1093
a(g1004
S'blew-3'
p1094
S'truck-2'
p1095
tp1096
a(g1008
S'said-29'
p1097
S'blew-3'
p1098
tp1099
a(g1012
S'blew-3'
p1100
S'up-4'
p1101
tp1102
a(g1016
S'drove-7'
p1103
S'when-5'
p1104
tp1105
a(g1020
S'drove-7'
p1106
S'it-6'
p1107
tp1108
a(g1024
S'blew-3'
p1109
S'drove-7'
p1110
tp1111
a(g1028
S'mine-11'
p1112
S'a-9'
p1113
tp1114
a(g1032
S'mine-11'
p1115
S'land-10'
p1116
tp1117
a(g1036
S'drove-7'
p1118
S'mine-11'
p1119
tp1120
a(g1040
S'Chechnya-14'
p1121
S'breakaway-13'
p1122
tp1123
a(g1044
S'mine-11'
p1124
S'Chechnya-14'
p1125
tp1126
a(g1048
S'drove-7'
p1127
S'Friday-16'
p1128
tp1129
a(g1052
S'drove-7'
p1130
S'killing-18'
p1131
tp1132
a(g1056
S'people-20'
p1133
S'two-19'
p1134
tp1135
a(g1060
S'killing-18'
p1136
S'people-20'
p1137
tp1138
a(g1064
S'killing-18'
p1139
S'injuring-22'
p1140
tp1141
a(g1068
S'others-24'
p1142
S'two-23'
p1143
tp1144
a(g1072
S'injuring-22'
p1145
S'others-24'
p1146
tp1147
a(g1076
S'agency-28'
p1148
S'a-26'
p1149
tp1150
a(g1079
S'agency-28'
p1151
S'news-27'
p1152
tp1153
a(g1083
S'said-29'
p1154
S'agency-28'
p1155
tp1156
asg71
(lp1157
(g1002
(dp1158
S'NamedEntityTag'
p1159
g89
sS'CharacterOffsetEnd'
p1160
g84
sS'Lemma'
p1161
g1030
sS'PartOfSpeech'
p1162
S'DT'
p1163
sS'CharacterOffsetBegin'
p1164
S'0'
p1165
stp1166
a(S'truck'
p1167
(dp1168
S'NamedEntityTag'
p1169
g89
sS'CharacterOffsetEnd'
p1170
S'7'
p1171
sS'Lemma'
p1172
S'truck'
p1173
sS'PartOfSpeech'
p1174
S'NN'
p1175
sS'CharacterOffsetBegin'
p1176
S'2'
p1177
stp1178
a(S'blew'
p1179
(dp1180
S'NamedEntityTag'
p1181
g89
sS'CharacterOffsetEnd'
p1182
S'12'
p1183
sS'Lemma'
p1184
S'blow'
p1185
sS'PartOfSpeech'
p1186
S'VBD'
p1187
sS'CharacterOffsetBegin'
p1188
g78
stp1189
a(S'up'
p1190
(dp1191
S'NamedEntityTag'
p1192
g89
sS'CharacterOffsetEnd'
p1193
S'15'
p1194
sS'Lemma'
p1195
S'up'
p1196
sS'PartOfSpeech'
p1197
S'RP'
p1198
sS'CharacterOffsetBegin'
p1199
S'13'
p1200
stp1201
a(S'when'
p1202
(dp1203
S'NamedEntityTag'
p1204
g89
sS'CharacterOffsetEnd'
p1205
S'20'
p1206
sS'Lemma'
p1207
S'when'
p1208
sS'PartOfSpeech'
p1209
S'WRB'
p1210
sS'CharacterOffsetBegin'
p1211
S'16'
p1212
stp1213
a(S'it'
p1214
(dp1215
S'NamedEntityTag'
p1216
g89
sS'CharacterOffsetEnd'
p1217
S'23'
p1218
sS'Lemma'
p1219
S'it'
p1220
sS'PartOfSpeech'
p1221
S'PRP'
p1222
sS'CharacterOffsetBegin'
p1223
S'21'
p1224
stp1225
a(S'drove'
p1226
(dp1227
S'NamedEntityTag'
p1228
g89
sS'CharacterOffsetEnd'
p1229
S'29'
p1230
sS'Lemma'
p1231
S'drive'
p1232
sS'PartOfSpeech'
p1233
S'VBD'
p1234
sS'CharacterOffsetBegin'
p1235
S'24'
p1236
stp1237
a(S'over'
p1238
(dp1239
S'NamedEntityTag'
p1240
g89
sS'CharacterOffsetEnd'
p1241
S'34'
p1242
sS'Lemma'
p1243
S'over'
p1244
sS'PartOfSpeech'
p1245
S'IN'
p1246
sS'CharacterOffsetBegin'
p1247
S'30'
p1248
stp1249
a(g1030
(dp1250
S'NamedEntityTag'
p1251
g89
sS'CharacterOffsetEnd'
p1252
S'36'
p1253
sS'Lemma'
p1254
g1030
sS'PartOfSpeech'
p1255
S'DT'
p1256
sS'CharacterOffsetBegin'
p1257
S'35'
p1258
stp1259
a(S'land'
p1260
(dp1261
S'NamedEntityTag'
p1262
g89
sS'CharacterOffsetEnd'
p1263
S'41'
p1264
sS'Lemma'
p1265
S'land'
p1266
sS'PartOfSpeech'
p1267
S'NN'
p1268
sS'CharacterOffsetBegin'
p1269
S'37'
p1270
stp1271
a(S'mine'
p1272
(dp1273
S'NamedEntityTag'
p1274
g89
sS'CharacterOffsetEnd'
p1275
S'46'
p1276
sS'Lemma'
p1277
S'mine'
p1278
sS'PartOfSpeech'
p1279
S'NN'
p1280
sS'CharacterOffsetBegin'
p1281
S'42'
p1282
stp1283
a(S'in'
p1284
(dp1285
S'NamedEntityTag'
p1286
g89
sS'CharacterOffsetEnd'
p1287
S'49'
p1288
sS'Lemma'
p1289
S'in'
p1290
sS'PartOfSpeech'
p1291
S'IN'
p1292
sS'CharacterOffsetBegin'
p1293
S'47'
p1294
stp1295
a(S'breakaway'
p1296
(dp1297
S'NamedEntityTag'
p1298
g89
sS'CharacterOffsetEnd'
p1299
S'59'
p1300
sS'Lemma'
p1301
S'breakaway'
p1302
sS'PartOfSpeech'
p1303
S'JJ'
p1304
sS'CharacterOffsetBegin'
p1305
S'50'
p1306
stp1307
a(S'Chechnya'
p1308
(dp1309
S'NamedEntityTag'
p1310
S'LOCATION'
p1311
sS'CharacterOffsetEnd'
p1312
S'68'
p1313
sS'Lemma'
p1314
S'Chechnya'
p1315
sS'PartOfSpeech'
p1316
S'NNP'
p1317
sS'CharacterOffsetBegin'
p1318
S'60'
p1319
stp1320
a(S'on'
p1321
(dp1322
S'NamedEntityTag'
p1323
g89
sS'CharacterOffsetEnd'
p1324
S'71'
p1325
sS'Lemma'
p1326
S'on'
p1327
sS'PartOfSpeech'
p1328
S'IN'
p1329
sS'CharacterOffsetBegin'
p1330
S'69'
p1331
stp1332
a(S'Friday'
p1333
(dp1334
S'NormalizedNamedEntityTag'
p1335
S'XXXX-WXX-5'
p1336
sS'Timex'
p1337
S'<TIMEX3 tid="t1" type="DATE" value="XXXX-WXX-5">Friday</TIMEX3>'
p1338
sS'Lemma'
p1339
S'Friday'
p1340
sS'CharacterOffsetEnd'
p1341
S'78'
p1342
sS'PartOfSpeech'
p1343
S'NNP'
p1344
sS'CharacterOffsetBegin'
p1345
S'72'
p1346
sS'NamedEntityTag'
p1347
S'DATE'
p1348
stp1349
a(g285
(dp1350
S'NamedEntityTag'
p1351
g89
sS'CharacterOffsetEnd'
p1352
S'79'
p1353
sS'Lemma'
p1354
g285
sS'PartOfSpeech'
p1355
g285
sS'CharacterOffsetBegin'
p1356
S'78'
p1357
stp1358
a(S'killing'
p1359
(dp1360
S'NamedEntityTag'
p1361
g89
sS'CharacterOffsetEnd'
p1362
S'87'
p1363
sS'Lemma'
p1364
S'kill'
p1365
sS'PartOfSpeech'
p1366
S'VBG'
p1367
sS'CharacterOffsetBegin'
p1368
S'80'
p1369
stp1370
a(S'two'
p1371
(dp1372
S'NormalizedNamedEntityTag'
p1373
S'2.0'
p1374
sS'Lemma'
p1375
S'two'
p1376
sS'CharacterOffsetEnd'
p1377
S'91'
p1378
sS'PartOfSpeech'
p1379
S'CD'
p1380
sS'CharacterOffsetBegin'
p1381
S'88'
p1382
sS'NamedEntityTag'
p1383
S'NUMBER'
p1384
stp1385
a(S'people'
p1386
(dp1387
S'NamedEntityTag'
p1388
g89
sS'CharacterOffsetEnd'
p1389
S'98'
p1390
sS'Lemma'
p1391
S'people'
p1392
sS'PartOfSpeech'
p1393
S'NNS'
p1394
sS'CharacterOffsetBegin'
p1395
S'92'
p1396
stp1397
a(S'and'
p1398
(dp1399
S'NamedEntityTag'
p1400
g89
sS'CharacterOffsetEnd'
p1401
S'102'
p1402
sS'Lemma'
p1403
S'and'
p1404
sS'PartOfSpeech'
p1405
S'CC'
p1406
sS'CharacterOffsetBegin'
p1407
S'99'
p1408
stp1409
a(S'injuring'
p1410
(dp1411
S'NamedEntityTag'
p1412
g89
sS'CharacterOffsetEnd'
p1413
S'111'
p1414
sS'Lemma'
p1415
S'injure'
p1416
sS'PartOfSpeech'
p1417
S'VBG'
p1418
sS'CharacterOffsetBegin'
p1419
S'103'
p1420
stp1421
a(S'two'
p1422
(dp1423
S'NormalizedNamedEntityTag'
p1424
S'2.0'
p1425
sS'Lemma'
p1426
S'two'
p1427
sS'CharacterOffsetEnd'
p1428
S'115'
p1429
sS'PartOfSpeech'
p1430
S'CD'
p1431
sS'CharacterOffsetBegin'
p1432
S'112'
p1433
sS'NamedEntityTag'
p1434
S'NUMBER'
p1435
stp1436
a(S'others'
p1437
(dp1438
S'NamedEntityTag'
p1439
g89
sS'CharacterOffsetEnd'
p1440
S'122'
p1441
sS'Lemma'
p1442
S'other'
p1443
sS'PartOfSpeech'
p1444
S'NNS'
p1445
sS'CharacterOffsetBegin'
p1446
S'116'
p1447
stp1448
a(g285
(dp1449
S'NamedEntityTag'
p1450
g89
sS'CharacterOffsetEnd'
p1451
S'123'
p1452
sS'Lemma'
p1453
g285
sS'PartOfSpeech'
p1454
g285
sS'CharacterOffsetBegin'
p1455
S'122'
p1456
stp1457
a(g1030
(dp1458
S'NamedEntityTag'
p1459
g89
sS'CharacterOffsetEnd'
p1460
S'125'
p1461
sS'Lemma'
p1462
g1030
sS'PartOfSpeech'
p1463
S'DT'
p1464
sS'CharacterOffsetBegin'
p1465
S'124'
p1466
stp1467
a(S'news'
p1468
(dp1469
S'NamedEntityTag'
p1470
g89
sS'CharacterOffsetEnd'
p1471
S'130'
p1472
sS'Lemma'
p1473
S'news'
p1474
sS'PartOfSpeech'
p1475
S'NN'
p1476
sS'CharacterOffsetBegin'
p1477
S'126'
p1478
stp1479
a(S'agency'
p1480
(dp1481
S'NamedEntityTag'
p1482
g89
sS'CharacterOffsetEnd'
p1483
S'137'
p1484
sS'Lemma'
p1485
S'agency'
p1486
sS'PartOfSpeech'
p1487
S'NN'
p1488
sS'CharacterOffsetBegin'
p1489
S'131'
p1490
stp1491
a(S'said'
p1492
(dp1493
S'NamedEntityTag'
p1494
g89
sS'CharacterOffsetEnd'
p1495
S'142'
p1496
sS'Lemma'
p1497
S'say'
p1498
sS'PartOfSpeech'
p1499
S'VBD'
p1500
sS'CharacterOffsetBegin'
p1501
S'138'
p1502
stp1503
a(g644
(dp1504
S'NamedEntityTag'
p1505
g89
sS'CharacterOffsetEnd'
p1506
S'143'
p1507
sS'Lemma'
p1508
g644
sS'PartOfSpeech'
p1509
g644
sS'CharacterOffsetBegin'
p1510
S'142'
p1511
stp1512
asa(dp1513
g7
S'(ROOT (S (PP (IN In) (NP (DT another) (NN mine) (NN explosion))) (PRN (, ,) (S (NP (DT a) (NN tractor) (NN driver)) (VP (VBD was) (VP (VBN killed) (NP-TMP (NNP Thursday)) (PP (IN in) (NP (DT the) (NN republic)))))) (, ,)) (NP (DT the) (NNP Interfax) (NN news) (NN agency)) (VP (VBD reported) (, ,) (S (VP (VBG citing) (NP (NNP Chechnyas) (NN security) (NNS officials))))) (. .)))'
p1514
sg9
S'In another mine explosion, a tractor driver was killed Thursday in the republic, the Interfax news agency reported, citing Chechnyas security officials.'
p1515
sg11
(lp1516
(S'root'
p1517
S'ROOT'
p1518
S'reported'
p1519
tp1520
a(S'det'
p1521
S'explosion'
p1522
S'another'
p1523
tp1524
a(S'nn'
p1525
S'explosion'
p1526
S'mine'
p1527
tp1528
a(S'prep_in'
p1529
S'reported'
p1530
S'explosion'
p1531
tp1532
a(S'det'
p1533
S'driver'
p1534
g1030
tp1535
a(S'nn'
p1536
S'driver'
p1537
S'tractor'
p1538
tp1539
a(S'nsubjpass'
p1540
S'killed'
p1541
S'driver'
p1542
tp1543
a(S'auxpass'
p1544
S'killed'
p1545
S'was'
p1546
tp1547
a(S'parataxis'
p1548
S'reported'
p1549
S'killed'
p1550
tp1551
a(S'tmod'
p1552
S'killed'
p1553
S'Thursday'
p1554
tp1555
a(S'det'
p1556
S'republic'
p1557
S'the'
p1558
tp1559
a(S'prep_in'
p1560
S'killed'
p1561
S'republic'
p1562
tp1563
a(S'det'
p1564
S'agency'
p1565
S'the'
p1566
tp1567
a(S'nn'
p1568
S'agency'
p1569
S'Interfax'
p1570
tp1571
a(S'nn'
p1572
S'agency'
p1573
S'news'
p1574
tp1575
a(S'nsubj'
p1576
S'reported'
p1577
S'agency'
p1578
tp1579
a(S'xcomp'
p1580
S'reported'
p1581
S'citing'
p1582
tp1583
a(S'nn'
p1584
S'officials'
p1585
S'Chechnyas'
p1586
tp1587
a(S'nn'
p1588
S'officials'
p1589
S'security'
p1590
tp1591
a(S'dobj'
p1592
S'citing'
p1593
S'officials'
p1594
tp1595
asg45
(lp1596
(g1517
S'ROOT-0'
p1597
S'reported-20'
p1598
tp1599
a(g1521
S'explosion-4'
p1600
S'another-2'
p1601
tp1602
a(g1525
S'explosion-4'
p1603
S'mine-3'
p1604
tp1605
a(g1529
S'reported-20'
p1606
S'explosion-4'
p1607
tp1608
a(g1533
S'driver-8'
p1609
S'a-6'
p1610
tp1611
a(g1536
S'driver-8'
p1612
S'tractor-7'
p1613
tp1614
a(g1540
S'killed-10'
p1615
S'driver-8'
p1616
tp1617
a(g1544
S'killed-10'
p1618
S'was-9'
p1619
tp1620
a(g1548
S'reported-20'
p1621
S'killed-10'
p1622
tp1623
a(g1552
S'killed-10'
p1624
S'Thursday-11'
p1625
tp1626
a(g1556
S'republic-14'
p1627
S'the-13'
p1628
tp1629
a(g1560
S'killed-10'
p1630
S'republic-14'
p1631
tp1632
a(g1564
S'agency-19'
p1633
S'the-16'
p1634
tp1635
a(g1568
S'agency-19'
p1636
S'Interfax-17'
p1637
tp1638
a(g1572
S'agency-19'
p1639
S'news-18'
p1640
tp1641
a(g1576
S'reported-20'
p1642
S'agency-19'
p1643
tp1644
a(g1580
S'reported-20'
p1645
S'citing-22'
p1646
tp1647
a(g1584
S'officials-25'
p1648
S'Chechnyas-23'
p1649
tp1650
a(g1588
S'officials-25'
p1651
S'security-24'
p1652
tp1653
a(g1592
S'citing-22'
p1654
S'officials-25'
p1655
tp1656
asg71
(lp1657
(S'In'
p1658
(dp1659
S'NamedEntityTag'
p1660
g89
sS'CharacterOffsetEnd'
p1661
S'146'
p1662
sS'Lemma'
p1663
S'in'
p1664
sS'PartOfSpeech'
p1665
S'IN'
p1666
sS'CharacterOffsetBegin'
p1667
S'144'
p1668
stp1669
a(S'another'
p1670
(dp1671
S'NamedEntityTag'
p1672
g89
sS'CharacterOffsetEnd'
p1673
S'154'
p1674
sS'Lemma'
p1675
S'another'
p1676
sS'PartOfSpeech'
p1677
S'DT'
p1678
sS'CharacterOffsetBegin'
p1679
S'147'
p1680
stp1681
a(S'mine'
p1682
(dp1683
S'NamedEntityTag'
p1684
g89
sS'CharacterOffsetEnd'
p1685
S'159'
p1686
sS'Lemma'
p1687
S'mine'
p1688
sS'PartOfSpeech'
p1689
S'NN'
p1690
sS'CharacterOffsetBegin'
p1691
S'155'
p1692
stp1693
a(S'explosion'
p1694
(dp1695
S'NamedEntityTag'
p1696
g89
sS'CharacterOffsetEnd'
p1697
S'169'
p1698
sS'Lemma'
p1699
S'explosion'
p1700
sS'PartOfSpeech'
p1701
S'NN'
p1702
sS'CharacterOffsetBegin'
p1703
S'160'
p1704
stp1705
a(g285
(dp1706
S'NamedEntityTag'
p1707
g89
sS'CharacterOffsetEnd'
p1708
S'170'
p1709
sS'Lemma'
p1710
g285
sS'PartOfSpeech'
p1711
g285
sS'CharacterOffsetBegin'
p1712
S'169'
p1713
stp1714
a(g1030
(dp1715
S'NamedEntityTag'
p1716
g89
sS'CharacterOffsetEnd'
p1717
S'172'
p1718
sS'Lemma'
p1719
g1030
sS'PartOfSpeech'
p1720
S'DT'
p1721
sS'CharacterOffsetBegin'
p1722
S'171'
p1723
stp1724
a(S'tractor'
p1725
(dp1726
S'NamedEntityTag'
p1727
g89
sS'CharacterOffsetEnd'
p1728
S'180'
p1729
sS'Lemma'
p1730
S'tractor'
p1731
sS'PartOfSpeech'
p1732
S'NN'
p1733
sS'CharacterOffsetBegin'
p1734
S'173'
p1735
stp1736
a(S'driver'
p1737
(dp1738
S'NamedEntityTag'
p1739
g89
sS'CharacterOffsetEnd'
p1740
S'187'
p1741
sS'Lemma'
p1742
S'driver'
p1743
sS'PartOfSpeech'
p1744
S'NN'
p1745
sS'CharacterOffsetBegin'
p1746
S'181'
p1747
stp1748
a(S'was'
p1749
(dp1750
S'NamedEntityTag'
p1751
g89
sS'CharacterOffsetEnd'
p1752
S'191'
p1753
sS'Lemma'
p1754
S'be'
p1755
sS'PartOfSpeech'
p1756
S'VBD'
p1757
sS'CharacterOffsetBegin'
p1758
S'188'
p1759
stp1760
a(S'killed'
p1761
(dp1762
S'NamedEntityTag'
p1763
g89
sS'CharacterOffsetEnd'
p1764
S'198'
p1765
sS'Lemma'
p1766
S'kill'
p1767
sS'PartOfSpeech'
p1768
S'VBN'
p1769
sS'CharacterOffsetBegin'
p1770
S'192'
p1771
stp1772
a(S'Thursday'
p1773
(dp1774
S'NormalizedNamedEntityTag'
p1775
S'XXXX-WXX-4'
p1776
sS'Timex'
p1777
S'<TIMEX3 tid="t2" type="DATE" value="XXXX-WXX-4">Thursday</TIMEX3>'
p1778
sS'Lemma'
p1779
S'Thursday'
p1780
sS'CharacterOffsetEnd'
p1781
S'207'
p1782
sS'PartOfSpeech'
p1783
S'NNP'
p1784
sS'CharacterOffsetBegin'
p1785
S'199'
p1786
sS'NamedEntityTag'
p1787
S'DATE'
p1788
stp1789
a(S'in'
p1790
(dp1791
S'NamedEntityTag'
p1792
g89
sS'CharacterOffsetEnd'
p1793
S'210'
p1794
sS'Lemma'
p1795
S'in'
p1796
sS'PartOfSpeech'
p1797
S'IN'
p1798
sS'CharacterOffsetBegin'
p1799
S'208'
p1800
stp1801
a(S'the'
p1802
(dp1803
S'NamedEntityTag'
p1804
g89
sS'CharacterOffsetEnd'
p1805
S'214'
p1806
sS'Lemma'
p1807
S'the'
p1808
sS'PartOfSpeech'
p1809
S'DT'
p1810
sS'CharacterOffsetBegin'
p1811
S'211'
p1812
stp1813
a(S'republic'
p1814
(dp1815
S'NamedEntityTag'
p1816
g89
sS'CharacterOffsetEnd'
p1817
S'223'
p1818
sS'Lemma'
p1819
S'republic'
p1820
sS'PartOfSpeech'
p1821
S'NN'
p1822
sS'CharacterOffsetBegin'
p1823
S'215'
p1824
stp1825
a(g285
(dp1826
S'NamedEntityTag'
p1827
g89
sS'CharacterOffsetEnd'
p1828
S'224'
p1829
sS'Lemma'
p1830
g285
sS'PartOfSpeech'
p1831
g285
sS'CharacterOffsetBegin'
p1832
S'223'
p1833
stp1834
a(S'the'
p1835
(dp1836
S'NamedEntityTag'
p1837
g89
sS'CharacterOffsetEnd'
p1838
S'228'
p1839
sS'Lemma'
p1840
S'the'
p1841
sS'PartOfSpeech'
p1842
S'DT'
p1843
sS'CharacterOffsetBegin'
p1844
S'225'
p1845
stp1846
a(S'Interfax'
p1847
(dp1848
S'NamedEntityTag'
p1849
S'ORGANIZATION'
p1850
sS'CharacterOffsetEnd'
p1851
S'237'
p1852
sS'Lemma'
p1853
S'Interfax'
p1854
sS'PartOfSpeech'
p1855
S'NNP'
p1856
sS'CharacterOffsetBegin'
p1857
S'229'
p1858
stp1859
a(S'news'
p1860
(dp1861
S'NamedEntityTag'
p1862
g89
sS'CharacterOffsetEnd'
p1863
S'242'
p1864
sS'Lemma'
p1865
S'news'
p1866
sS'PartOfSpeech'
p1867
S'NN'
p1868
sS'CharacterOffsetBegin'
p1869
S'238'
p1870
stp1871
a(S'agency'
p1872
(dp1873
S'NamedEntityTag'
p1874
g89
sS'CharacterOffsetEnd'
p1875
S'249'
p1876
sS'Lemma'
p1877
S'agency'
p1878
sS'PartOfSpeech'
p1879
S'NN'
p1880
sS'CharacterOffsetBegin'
p1881
S'243'
p1882
stp1883
a(S'reported'
p1884
(dp1885
S'NamedEntityTag'
p1886
g89
sS'CharacterOffsetEnd'
p1887
S'258'
p1888
sS'Lemma'
p1889
S'report'
p1890
sS'PartOfSpeech'
p1891
S'VBD'
p1892
sS'CharacterOffsetBegin'
p1893
S'250'
p1894
stp1895
a(g285
(dp1896
S'NamedEntityTag'
p1897
g89
sS'CharacterOffsetEnd'
p1898
S'259'
p1899
sS'Lemma'
p1900
g285
sS'PartOfSpeech'
p1901
g285
sS'CharacterOffsetBegin'
p1902
S'258'
p1903
stp1904
a(S'citing'
p1905
(dp1906
S'NamedEntityTag'
p1907
g89
sS'CharacterOffsetEnd'
p1908
S'266'
p1909
sS'Lemma'
p1910
S'cite'
p1911
sS'PartOfSpeech'
p1912
S'VBG'
p1913
sS'CharacterOffsetBegin'
p1914
S'260'
p1915
stp1916
a(S'Chechnyas'
p1917
(dp1918
S'NamedEntityTag'
p1919
S'MISC'
p1920
sS'CharacterOffsetEnd'
p1921
S'276'
p1922
sS'Lemma'
p1923
S'Chechnyas'
p1924
sS'PartOfSpeech'
p1925
S'NNP'
p1926
sS'CharacterOffsetBegin'
p1927
S'267'
p1928
stp1929
a(S'security'
p1930
(dp1931
S'NamedEntityTag'
p1932
g89
sS'CharacterOffsetEnd'
p1933
S'285'
p1934
sS'Lemma'
p1935
S'security'
p1936
sS'PartOfSpeech'
p1937
S'NN'
p1938
sS'CharacterOffsetBegin'
p1939
S'277'
p1940
stp1941
a(S'officials'
p1942
(dp1943
S'NamedEntityTag'
p1944
g89
sS'CharacterOffsetEnd'
p1945
S'295'
p1946
sS'Lemma'
p1947
S'official'
p1948
sS'PartOfSpeech'
p1949
S'NNS'
p1950
sS'CharacterOffsetBegin'
p1951
S'286'
p1952
stp1953
a(g644
(dp1954
S'NamedEntityTag'
p1955
g89
sS'CharacterOffsetEnd'
p1956
S'296'
p1957
sS'Lemma'
p1958
g644
sS'PartOfSpeech'
p1959
g644
sS'CharacterOffsetBegin'
p1960
S'295'
p1961
stp1962
asa(dp1963
g7
S'(ROOT (S (S (NP (JJ Chechnyas) (NN ambulance) (NN service)) (VP (VBD said) (SBAR (IN that) (S (NP (QP (CD three) (TO to) (CD five)) (NNS people)) (VP (VBP are) (VP (VBN hospitalized) (NP-TMP (DT every) (NN week)) (PP (IN with) (NP (NP (NNS injuries)) (PP (IN from) (NP (JJ mine) (NNS explosions))))))))))) (, ,) (NP (NNP Interfax)) (VP (VBD reported)) (. .)))'
p1964
sg9
S'Chechnyas ambulance service said that three to five people are hospitalized every week with injuries from mine explosions, Interfax reported.'
p1965
sg11
(lp1966
(S'root'
p1967
S'ROOT'
p1968
S'reported'
p1969
tp1970
a(S'amod'
p1971
S'service'
p1972
S'Chechnyas'
p1973
tp1974
a(S'nn'
p1975
S'service'
p1976
S'ambulance'
p1977
tp1978
a(S'nsubj'
p1979
S'said'
p1980
S'service'
p1981
tp1982
a(S'ccomp'
p1983
S'reported'
p1984
S'said'
p1985
tp1986
a(S'mark'
p1987
S'hospitalized'
p1988
S'that'
p1989
tp1990
a(S'number'
p1991
S'five'
p1992
S'three'
p1993
tp1994
a(S'dep'
p1995
S'five'
p1996
S'to'
p1997
tp1998
a(S'num'
p1999
S'people'
p2000
S'five'
p2001
tp2002
a(S'nsubjpass'
p2003
S'hospitalized'
p2004
S'people'
p2005
tp2006
a(S'auxpass'
p2007
S'hospitalized'
p2008
S'are'
p2009
tp2010
a(S'ccomp'
p2011
S'said'
p2012
S'hospitalized'
p2013
tp2014
a(S'det'
p2015
S'week'
p2016
S'every'
p2017
tp2018
a(S'tmod'
p2019
S'hospitalized'
p2020
S'week'
p2021
tp2022
a(S'prep_with'
p2023
S'hospitalized'
p2024
S'injuries'
p2025
tp2026
a(S'amod'
p2027
S'explosions'
p2028
S'mine'
p2029
tp2030
a(S'prep_from'
p2031
S'injuries'
p2032
S'explosions'
p2033
tp2034
a(S'nsubj'
p2035
S'reported'
p2036
S'Interfax'
p2037
tp2038
asg45
(lp2039
(g1967
S'ROOT-0'
p2040
S'reported-21'
p2041
tp2042
a(g1971
S'service-3'
p2043
S'Chechnyas-1'
p2044
tp2045
a(g1975
S'service-3'
p2046
S'ambulance-2'
p2047
tp2048
a(g1979
S'said-4'
p2049
S'service-3'
p2050
tp2051
a(g1983
S'reported-21'
p2052
S'said-4'
p2053
tp2054
a(g1987
S'hospitalized-11'
p2055
S'that-5'
p2056
tp2057
a(g1991
S'five-8'
p2058
S'three-6'
p2059
tp2060
a(g1995
S'five-8'
p2061
S'to-7'
p2062
tp2063
a(g1999
S'people-9'
p2064
S'five-8'
p2065
tp2066
a(g2003
S'hospitalized-11'
p2067
S'people-9'
p2068
tp2069
a(g2007
S'hospitalized-11'
p2070
S'are-10'
p2071
tp2072
a(g2011
S'said-4'
p2073
S'hospitalized-11'
p2074
tp2075
a(g2015
S'week-13'
p2076
S'every-12'
p2077
tp2078
a(g2019
S'hospitalized-11'
p2079
S'week-13'
p2080
tp2081
a(g2023
S'hospitalized-11'
p2082
S'injuries-15'
p2083
tp2084
a(g2027
S'explosions-18'
p2085
S'mine-17'
p2086
tp2087
a(g2031
S'injuries-15'
p2088
S'explosions-18'
p2089
tp2090
a(g2035
S'reported-21'
p2091
S'Interfax-20'
p2092
tp2093
asg71
(lp2094
(S'Chechnyas'
p2095
(dp2096
S'NamedEntityTag'
p2097
g89
sS'CharacterOffsetEnd'
p2098
S'306'
p2099
sS'Lemma'
p2100
S'chechnyas'
p2101
sS'PartOfSpeech'
p2102
S'JJ'
p2103
sS'CharacterOffsetBegin'
p2104
S'297'
p2105
stp2106
a(S'ambulance'
p2107
(dp2108
S'NamedEntityTag'
p2109
g89
sS'CharacterOffsetEnd'
p2110
S'316'
p2111
sS'Lemma'
p2112
S'ambulance'
p2113
sS'PartOfSpeech'
p2114
S'NN'
p2115
sS'CharacterOffsetBegin'
p2116
S'307'
p2117
stp2118
a(S'service'
p2119
(dp2120
S'NamedEntityTag'
p2121
g89
sS'CharacterOffsetEnd'
p2122
S'324'
p2123
sS'Lemma'
p2124
S'service'
p2125
sS'PartOfSpeech'
p2126
S'NN'
p2127
sS'CharacterOffsetBegin'
p2128
S'317'
p2129
stp2130
a(S'said'
p2131
(dp2132
S'NamedEntityTag'
p2133
g89
sS'CharacterOffsetEnd'
p2134
S'329'
p2135
sS'Lemma'
p2136
S'say'
p2137
sS'PartOfSpeech'
p2138
S'VBD'
p2139
sS'CharacterOffsetBegin'
p2140
S'325'
p2141
stp2142
a(S'that'
p2143
(dp2144
S'NamedEntityTag'
p2145
g89
sS'CharacterOffsetEnd'
p2146
S'334'
p2147
sS'Lemma'
p2148
S'that'
p2149
sS'PartOfSpeech'
p2150
S'IN'
p2151
sS'CharacterOffsetBegin'
p2152
S'330'
p2153
stp2154
a(S'three'
p2155
(dp2156
S'NormalizedNamedEntityTag'
p2157
S'3.0'
p2158
sS'Lemma'
p2159
S'three'
p2160
sS'CharacterOffsetEnd'
p2161
S'340'
p2162
sS'PartOfSpeech'
p2163
S'CD'
p2164
sS'CharacterOffsetBegin'
p2165
S'335'
p2166
sS'NamedEntityTag'
p2167
S'NUMBER'
p2168
stp2169
a(S'to'
p2170
(dp2171
S'NamedEntityTag'
p2172
g89
sS'CharacterOffsetEnd'
p2173
S'343'
p2174
sS'Lemma'
p2175
S'to'
p2176
sS'PartOfSpeech'
p2177
S'TO'
p2178
sS'CharacterOffsetBegin'
p2179
S'341'
p2180
stp2181
a(S'five'
p2182
(dp2183
S'NormalizedNamedEntityTag'
p2184
S'5.0'
p2185
sS'Lemma'
p2186
S'five'
p2187
sS'CharacterOffsetEnd'
p2188
S'348'
p2189
sS'PartOfSpeech'
p2190
S'CD'
p2191
sS'CharacterOffsetBegin'
p2192
S'344'
p2193
sS'NamedEntityTag'
p2194
S'NUMBER'
p2195
stp2196
a(S'people'
p2197
(dp2198
S'NamedEntityTag'
p2199
g89
sS'CharacterOffsetEnd'
p2200
S'355'
p2201
sS'Lemma'
p2202
S'people'
p2203
sS'PartOfSpeech'
p2204
S'NNS'
p2205
sS'CharacterOffsetBegin'
p2206
S'349'
p2207
stp2208
a(S'are'
p2209
(dp2210
S'NamedEntityTag'
p2211
g89
sS'CharacterOffsetEnd'
p2212
S'359'
p2213
sS'Lemma'
p2214
S'be'
p2215
sS'PartOfSpeech'
p2216
S'VBP'
p2217
sS'CharacterOffsetBegin'
p2218
S'356'
p2219
stp2220
a(S'hospitalized'
p2221
(dp2222
S'NamedEntityTag'
p2223
g89
sS'CharacterOffsetEnd'
p2224
S'372'
p2225
sS'Lemma'
p2226
S'hospitalize'
p2227
sS'PartOfSpeech'
p2228
S'VBN'
p2229
sS'CharacterOffsetBegin'
p2230
S'360'
p2231
stp2232
a(S'every'
p2233
(dp2234
S'Timex'
p2235
S'<TIMEX3 periodicity="P1W" quant="every" tid="t3" type="SET" value="P1W">every week</TIMEX3>'
p2236
sS'Lemma'
p2237
S'every'
p2238
sS'CharacterOffsetEnd'
p2239
S'378'
p2240
sS'PartOfSpeech'
p2241
S'DT'
p2242
sS'CharacterOffsetBegin'
p2243
S'373'
p2244
sS'NamedEntityTag'
p2245
S'SET'
p2246
stp2247
a(S'week'
p2248
(dp2249
S'Timex'
p2250
S'<TIMEX3 periodicity="P1W" quant="every" tid="t3" type="SET" value="P1W">every week</TIMEX3>'
p2251
sS'Lemma'
p2252
S'week'
p2253
sS'CharacterOffsetEnd'
p2254
S'383'
p2255
sS'PartOfSpeech'
p2256
S'NN'
p2257
sS'CharacterOffsetBegin'
p2258
S'379'
p2259
sS'NamedEntityTag'
p2260
S'SET'
p2261
stp2262
a(S'with'
p2263
(dp2264
S'NamedEntityTag'
p2265
g89
sS'CharacterOffsetEnd'
p2266
S'388'
p2267
sS'Lemma'
p2268
S'with'
p2269
sS'PartOfSpeech'
p2270
S'IN'
p2271
sS'CharacterOffsetBegin'
p2272
S'384'
p2273
stp2274
a(S'injuries'
p2275
(dp2276
S'NamedEntityTag'
p2277
g89
sS'CharacterOffsetEnd'
p2278
S'397'
p2279
sS'Lemma'
p2280
S'injury'
p2281
sS'PartOfSpeech'
p2282
S'NNS'
p2283
sS'CharacterOffsetBegin'
p2284
S'389'
p2285
stp2286
a(S'from'
p2287
(dp2288
S'NamedEntityTag'
p2289
g89
sS'CharacterOffsetEnd'
p2290
S'402'
p2291
sS'Lemma'
p2292
S'from'
p2293
sS'PartOfSpeech'
p2294
S'IN'
p2295
sS'CharacterOffsetBegin'
p2296
S'398'
p2297
stp2298
a(S'mine'
p2299
(dp2300
S'NamedEntityTag'
p2301
g89
sS'CharacterOffsetEnd'
p2302
S'407'
p2303
sS'Lemma'
p2304
S'mine'
p2305
sS'PartOfSpeech'
p2306
S'JJ'
p2307
sS'CharacterOffsetBegin'
p2308
S'403'
p2309
stp2310
a(S'explosions'
p2311
(dp2312
S'NamedEntityTag'
p2313
g89
sS'CharacterOffsetEnd'
p2314
S'418'
p2315
sS'Lemma'
p2316
S'explosion'
p2317
sS'PartOfSpeech'
p2318
S'NNS'
p2319
sS'CharacterOffsetBegin'
p2320
S'408'
p2321
stp2322
a(g285
(dp2323
S'NamedEntityTag'
p2324
g89
sS'CharacterOffsetEnd'
p2325
S'419'
p2326
sS'Lemma'
p2327
g285
sS'PartOfSpeech'
p2328
g285
sS'CharacterOffsetBegin'
p2329
S'418'
p2330
stp2331
a(S'Interfax'
p2332
(dp2333
S'NamedEntityTag'
p2334
S'ORGANIZATION'
p2335
sS'CharacterOffsetEnd'
p2336
S'428'
p2337
sS'Lemma'
p2338
S'Interfax'
p2339
sS'PartOfSpeech'
p2340
S'NNP'
p2341
sS'CharacterOffsetBegin'
p2342
S'420'
p2343
stp2344
a(S'reported'
p2345
(dp2346
S'NamedEntityTag'
p2347
g89
sS'CharacterOffsetEnd'
p2348
S'437'
p2349
sS'Lemma'
p2350
S'report'
p2351
sS'PartOfSpeech'
p2352
S'VBD'
p2353
sS'CharacterOffsetBegin'
p2354
S'429'
p2355
stp2356
a(g644
(dp2357
S'NamedEntityTag'
p2358
g89
sS'CharacterOffsetEnd'
p2359
S'438'
p2360
sS'Lemma'
p2361
g644
sS'PartOfSpeech'
p2362
g644
sS'CharacterOffsetBegin'
p2363
S'437'
p2364
stp2365
asa(dp2366
g7
S'(ROOT (S (NP (PRP It)) (VP (VBD did) (RB not) (VP (VB say) (SBAR (WHNP (WHADJP (WRB how) (JJ many)) (NNS people)) (S (VP (VBP are) (VP (VBN killed))))))) (. .)))'
p2367
sg9
S'It did not say how many people are killed.'
p2368
sg11
(lp2369
(S'root'
p2370
S'ROOT'
p2371
S'say'
p2372
tp2373
a(S'nsubj'
p2374
S'say'
p2375
S'It'
p2376
tp2377
a(S'aux'
p2378
S'say'
p2379
S'did'
p2380
tp2381
a(S'neg'
p2382
S'say'
p2383
S'not'
p2384
tp2385
a(S'advmod'
p2386
S'many'
p2387
S'how'
p2388
tp2389
a(S'amod'
p2390
S'people'
p2391
S'many'
p2392
tp2393
a(S'nsubjpass'
p2394
S'killed'
p2395
S'people'
p2396
tp2397
a(S'auxpass'
p2398
S'killed'
p2399
S'are'
p2400
tp2401
a(S'ccomp'
p2402
S'say'
p2403
S'killed'
p2404
tp2405
asg45
(lp2406
(g2370
S'ROOT-0'
p2407
S'say-4'
p2408
tp2409
a(g2374
S'say-4'
p2410
S'It-1'
p2411
tp2412
a(g2378
S'say-4'
p2413
S'did-2'
p2414
tp2415
a(g2382
S'say-4'
p2416
S'not-3'
p2417
tp2418
a(g2386
S'many-6'
p2419
S'how-5'
p2420
tp2421
a(g2390
S'people-7'
p2422
S'many-6'
p2423
tp2424
a(g2394
S'killed-9'
p2425
S'people-7'
p2426
tp2427
a(g2398
S'killed-9'
p2428
S'are-8'
p2429
tp2430
a(g2402
S'say-4'
p2431
S'killed-9'
p2432
tp2433
asg71
(lp2434
(S'It'
p2435
(dp2436
S'NamedEntityTag'
p2437
g89
sS'CharacterOffsetEnd'
p2438
S'441'
p2439
sS'Lemma'
p2440
S'it'
p2441
sS'PartOfSpeech'
p2442
S'PRP'
p2443
sS'CharacterOffsetBegin'
p2444
S'439'
p2445
stp2446
a(S'did'
p2447
(dp2448
S'NamedEntityTag'
p2449
g89
sS'CharacterOffsetEnd'
p2450
S'445'
p2451
sS'Lemma'
p2452
S'do'
p2453
sS'PartOfSpeech'
p2454
S'VBD'
p2455
sS'CharacterOffsetBegin'
p2456
S'442'
p2457
stp2458
a(S'not'
p2459
(dp2460
S'NamedEntityTag'
p2461
g89
sS'CharacterOffsetEnd'
p2462
S'449'
p2463
sS'Lemma'
p2464
S'not'
p2465
sS'PartOfSpeech'
p2466
S'RB'
p2467
sS'CharacterOffsetBegin'
p2468
S'446'
p2469
stp2470
a(S'say'
p2471
(dp2472
S'NamedEntityTag'
p2473
g89
sS'CharacterOffsetEnd'
p2474
S'453'
p2475
sS'Lemma'
p2476
S'say'
p2477
sS'PartOfSpeech'
p2478
S'VB'
p2479
sS'CharacterOffsetBegin'
p2480
S'450'
p2481
stp2482
a(S'how'
p2483
(dp2484
S'NamedEntityTag'
p2485
g89
sS'CharacterOffsetEnd'
p2486
S'457'
p2487
sS'Lemma'
p2488
S'how'
p2489
sS'PartOfSpeech'
p2490
S'WRB'
p2491
sS'CharacterOffsetBegin'
p2492
S'454'
p2493
stp2494
a(S'many'
p2495
(dp2496
S'NamedEntityTag'
p2497
g89
sS'CharacterOffsetEnd'
p2498
S'462'
p2499
sS'Lemma'
p2500
S'many'
p2501
sS'PartOfSpeech'
p2502
S'JJ'
p2503
sS'CharacterOffsetBegin'
p2504
S'458'
p2505
stp2506
a(S'people'
p2507
(dp2508
S'NamedEntityTag'
p2509
g89
sS'CharacterOffsetEnd'
p2510
S'469'
p2511
sS'Lemma'
p2512
S'people'
p2513
sS'PartOfSpeech'
p2514
S'NNS'
p2515
sS'CharacterOffsetBegin'
p2516
S'463'
p2517
stp2518
a(S'are'
p2519
(dp2520
S'NamedEntityTag'
p2521
g89
sS'CharacterOffsetEnd'
p2522
S'473'
p2523
sS'Lemma'
p2524
S'be'
p2525
sS'PartOfSpeech'
p2526
S'VBP'
p2527
sS'CharacterOffsetBegin'
p2528
S'470'
p2529
stp2530
a(S'killed'
p2531
(dp2532
S'NamedEntityTag'
p2533
g89
sS'CharacterOffsetEnd'
p2534
S'480'
p2535
sS'Lemma'
p2536
S'kill'
p2537
sS'PartOfSpeech'
p2538
S'VBN'
p2539
sS'CharacterOffsetBegin'
p2540
S'474'
p2541
stp2542
a(g644
(dp2543
S'NamedEntityTag'
p2544
g89
sS'CharacterOffsetEnd'
p2545
S'481'
p2546
sS'Lemma'
p2547
g644
sS'PartOfSpeech'
p2548
g644
sS'CharacterOffsetBegin'
p2549
S'480'
p2550
stp2551
asa(dp2552
g7
S'(ROOT (SINV (S (NP (NP (JJ Many)) (PP (IN of) (NP (DT the) (NNS victims)))) (VP (VBP are) (NP (NP (NNS children)) (, ,) (SBAR (WHNP (WP who)) (S (VP (VBP dig) (S (NP (DT the) (NN ground)) (VP (TO to) (VP (VB look) (PP (IN for) (NP (NN ammunition)))))))))))) (VP (VBD left) (PRT (RP over)) (PP (IN from) (NP (NNP Chechnyas)))) (NP (NP (JJ two-year) (NN independence) (NN war)) (PP (IN against) (NP (NNP Moscow)))) (. .)))'
p2553
sg9
S'Many of the victims are children, who dig the ground to look for ammunition left over from Chechnyas two-year independence war against Moscow.'
p2554
sg11
(lp2555
(S'root'
p2556
S'ROOT'
p2557
S'left'
p2558
tp2559
a(S'nsubj'
p2560
S'children'
p2561
S'Many'
p2562
tp2563
a(S'det'
p2564
S'victims'
p2565
S'the'
p2566
tp2567
a(S'prep_of'
p2568
S'Many'
p2569
S'victims'
p2570
tp2571
a(S'cop'
p2572
S'children'
p2573
S'are'
p2574
tp2575
a(S'dep'
p2576
S'left'
p2577
S'children'
p2578
tp2579
a(S'nsubj'
p2580
S'dig'
p2581
S'who'
p2582
tp2583
a(S'rcmod'
p2584
S'children'
p2585
S'dig'
p2586
tp2587
a(S'det'
p2588
S'ground'
p2589
S'the'
p2590
tp2591
a(S'nsubj'
p2592
S'look'
p2593
S'ground'
p2594
tp2595
a(S'aux'
p2596
S'look'
p2597
S'to'
p2598
tp2599
a(S'xcomp'
p2600
S'dig'
p2601
S'look'
p2602
tp2603
a(S'prep_for'
p2604
S'look'
p2605
S'ammunition'
p2606
tp2607
a(S'prt'
p2608
S'left'
p2609
S'over'
p2610
tp2611
a(S'prep_from'
p2612
S'left'
p2613
S'Chechnyas'
p2614
tp2615
a(S'amod'
p2616
S'war'
p2617
S'two-year'
p2618
tp2619
a(S'nn'
p2620
S'war'
p2621
S'independence'
p2622
tp2623
a(S'nsubj'
p2624
S'left'
p2625
S'war'
p2626
tp2627
a(S'prep_against'
p2628
S'war'
p2629
S'Moscow'
p2630
tp2631
asg45
(lp2632
(g2556
S'ROOT-0'
p2633
S'left-16'
p2634
tp2635
a(g2560
S'children-6'
p2636
S'Many-1'
p2637
tp2638
a(g2564
S'victims-4'
p2639
S'the-3'
p2640
tp2641
a(g2568
S'Many-1'
p2642
S'victims-4'
p2643
tp2644
a(g2572
S'children-6'
p2645
S'are-5'
p2646
tp2647
a(g2576
S'left-16'
p2648
S'children-6'
p2649
tp2650
a(g2580
S'dig-9'
p2651
S'who-8'
p2652
tp2653
a(g2584
S'children-6'
p2654
S'dig-9'
p2655
tp2656
a(g2588
S'ground-11'
p2657
S'the-10'
p2658
tp2659
a(g2592
S'look-13'
p2660
S'ground-11'
p2661
tp2662
a(g2596
S'look-13'
p2663
S'to-12'
p2664
tp2665
a(g2600
S'dig-9'
p2666
S'look-13'
p2667
tp2668
a(g2604
S'look-13'
p2669
S'ammunition-15'
p2670
tp2671
a(g2608
S'left-16'
p2672
S'over-17'
p2673
tp2674
a(g2612
S'left-16'
p2675
S'Chechnyas-19'
p2676
tp2677
a(g2616
S'war-22'
p2678
S'two-year-20'
p2679
tp2680
a(g2620
S'war-22'
p2681
S'independence-21'
p2682
tp2683
a(g2624
S'left-16'
p2684
S'war-22'
p2685
tp2686
a(g2628
S'war-22'
p2687
S'Moscow-24'
p2688
tp2689
asg71
(lp2690
(S'Many'
p2691
(dp2692
S'NamedEntityTag'
p2693
g89
sS'CharacterOffsetEnd'
p2694
S'486'
p2695
sS'Lemma'
p2696
S'many'
p2697
sS'PartOfSpeech'
p2698
S'JJ'
p2699
sS'CharacterOffsetBegin'
p2700
S'482'
p2701
stp2702
a(S'of'
p2703
(dp2704
S'NamedEntityTag'
p2705
g89
sS'CharacterOffsetEnd'
p2706
S'489'
p2707
sS'Lemma'
p2708
S'of'
p2709
sS'PartOfSpeech'
p2710
S'IN'
p2711
sS'CharacterOffsetBegin'
p2712
S'487'
p2713
stp2714
a(S'the'
p2715
(dp2716
S'NamedEntityTag'
p2717
g89
sS'CharacterOffsetEnd'
p2718
S'493'
p2719
sS'Lemma'
p2720
S'the'
p2721
sS'PartOfSpeech'
p2722
S'DT'
p2723
sS'CharacterOffsetBegin'
p2724
S'490'
p2725
stp2726
a(S'victims'
p2727
(dp2728
S'NamedEntityTag'
p2729
g89
sS'CharacterOffsetEnd'
p2730
S'501'
p2731
sS'Lemma'
p2732
S'victim'
p2733
sS'PartOfSpeech'
p2734
S'NNS'
p2735
sS'CharacterOffsetBegin'
p2736
S'494'
p2737
stp2738
a(S'are'
p2739
(dp2740
S'NamedEntityTag'
p2741
g89
sS'CharacterOffsetEnd'
p2742
S'505'
p2743
sS'Lemma'
p2744
S'be'
p2745
sS'PartOfSpeech'
p2746
S'VBP'
p2747
sS'CharacterOffsetBegin'
p2748
S'502'
p2749
stp2750
a(S'children'
p2751
(dp2752
S'NamedEntityTag'
p2753
g89
sS'CharacterOffsetEnd'
p2754
S'514'
p2755
sS'Lemma'
p2756
S'child'
p2757
sS'PartOfSpeech'
p2758
S'NNS'
p2759
sS'CharacterOffsetBegin'
p2760
S'506'
p2761
stp2762
a(g285
(dp2763
S'NamedEntityTag'
p2764
g89
sS'CharacterOffsetEnd'
p2765
S'515'
p2766
sS'Lemma'
p2767
g285
sS'PartOfSpeech'
p2768
g285
sS'CharacterOffsetBegin'
p2769
S'514'
p2770
stp2771
a(S'who'
p2772
(dp2773
S'NamedEntityTag'
p2774
g89
sS'CharacterOffsetEnd'
p2775
S'519'
p2776
sS'Lemma'
p2777
S'who'
p2778
sS'PartOfSpeech'
p2779
S'WP'
p2780
sS'CharacterOffsetBegin'
p2781
S'516'
p2782
stp2783
a(S'dig'
p2784
(dp2785
S'NamedEntityTag'
p2786
g89
sS'CharacterOffsetEnd'
p2787
S'523'
p2788
sS'Lemma'
p2789
S'dig'
p2790
sS'PartOfSpeech'
p2791
S'VBP'
p2792
sS'CharacterOffsetBegin'
p2793
S'520'
p2794
stp2795
a(S'the'
p2796
(dp2797
S'NamedEntityTag'
p2798
g89
sS'CharacterOffsetEnd'
p2799
S'527'
p2800
sS'Lemma'
p2801
S'the'
p2802
sS'PartOfSpeech'
p2803
S'DT'
p2804
sS'CharacterOffsetBegin'
p2805
S'524'
p2806
stp2807
a(S'ground'
p2808
(dp2809
S'NamedEntityTag'
p2810
g89
sS'CharacterOffsetEnd'
p2811
S'534'
p2812
sS'Lemma'
p2813
S'ground'
p2814
sS'PartOfSpeech'
p2815
S'NN'
p2816
sS'CharacterOffsetBegin'
p2817
S'528'
p2818
stp2819
a(S'to'
p2820
(dp2821
S'NamedEntityTag'
p2822
g89
sS'CharacterOffsetEnd'
p2823
S'537'
p2824
sS'Lemma'
p2825
S'to'
p2826
sS'PartOfSpeech'
p2827
S'TO'
p2828
sS'CharacterOffsetBegin'
p2829
S'535'
p2830
stp2831
a(S'look'
p2832
(dp2833
S'NamedEntityTag'
p2834
g89
sS'CharacterOffsetEnd'
p2835
S'542'
p2836
sS'Lemma'
p2837
S'look'
p2838
sS'PartOfSpeech'
p2839
S'VB'
p2840
sS'CharacterOffsetBegin'
p2841
S'538'
p2842
stp2843
a(S'for'
p2844
(dp2845
S'NamedEntityTag'
p2846
g89
sS'CharacterOffsetEnd'
p2847
S'546'
p2848
sS'Lemma'
p2849
S'for'
p2850
sS'PartOfSpeech'
p2851
S'IN'
p2852
sS'CharacterOffsetBegin'
p2853
S'543'
p2854
stp2855
a(S'ammunition'
p2856
(dp2857
S'NamedEntityTag'
p2858
g89
sS'CharacterOffsetEnd'
p2859
S'557'
p2860
sS'Lemma'
p2861
S'ammunition'
p2862
sS'PartOfSpeech'
p2863
S'NN'
p2864
sS'CharacterOffsetBegin'
p2865
S'547'
p2866
stp2867
a(S'left'
p2868
(dp2869
S'NamedEntityTag'
p2870
g89
sS'CharacterOffsetEnd'
p2871
S'562'
p2872
sS'Lemma'
p2873
S'leave'
p2874
sS'PartOfSpeech'
p2875
S'VBD'
p2876
sS'CharacterOffsetBegin'
p2877
S'558'
p2878
stp2879
a(S'over'
p2880
(dp2881
S'NamedEntityTag'
p2882
g89
sS'CharacterOffsetEnd'
p2883
S'567'
p2884
sS'Lemma'
p2885
S'over'
p2886
sS'PartOfSpeech'
p2887
S'RP'
p2888
sS'CharacterOffsetBegin'
p2889
S'563'
p2890
stp2891
a(S'from'
p2892
(dp2893
S'NamedEntityTag'
p2894
g89
sS'CharacterOffsetEnd'
p2895
S'572'
p2896
sS'Lemma'
p2897
S'from'
p2898
sS'PartOfSpeech'
p2899
S'IN'
p2900
sS'CharacterOffsetBegin'
p2901
S'568'
p2902
stp2903
a(S'Chechnyas'
p2904
(dp2905
S'NamedEntityTag'
p2906
S'LOCATION'
p2907
sS'CharacterOffsetEnd'
p2908
S'582'
p2909
sS'Lemma'
p2910
S'Chechnyas'
p2911
sS'PartOfSpeech'
p2912
S'NNP'
p2913
sS'CharacterOffsetBegin'
p2914
S'573'
p2915
stp2916
a(S'two-year'
p2917
(dp2918
S'NormalizedNamedEntityTag'
p2919
S'P2Y'
p2920
sS'Timex'
p2921
S'<TIMEX3 tid="t4" type="DURATION" value="P2Y">two-year</TIMEX3>'
p2922
sS'Lemma'
p2923
S'two-year'
p2924
sS'CharacterOffsetEnd'
p2925
S'591'
p2926
sS'PartOfSpeech'
p2927
S'JJ'
p2928
sS'CharacterOffsetBegin'
p2929
S'583'
p2930
sS'NamedEntityTag'
p2931
S'DURATION'
p2932
stp2933
a(S'independence'
p2934
(dp2935
S'NamedEntityTag'
p2936
g89
sS'CharacterOffsetEnd'
p2937
S'604'
p2938
sS'Lemma'
p2939
S'independence'
p2940
sS'PartOfSpeech'
p2941
S'NN'
p2942
sS'CharacterOffsetBegin'
p2943
S'592'
p2944
stp2945
a(S'war'
p2946
(dp2947
S'NamedEntityTag'
p2948
g89
sS'CharacterOffsetEnd'
p2949
S'608'
p2950
sS'Lemma'
p2951
S'war'
p2952
sS'PartOfSpeech'
p2953
S'NN'
p2954
sS'CharacterOffsetBegin'
p2955
S'605'
p2956
stp2957
a(S'against'
p2958
(dp2959
S'NamedEntityTag'
p2960
g89
sS'CharacterOffsetEnd'
p2961
S'616'
p2962
sS'Lemma'
p2963
S'against'
p2964
sS'PartOfSpeech'
p2965
S'IN'
p2966
sS'CharacterOffsetBegin'
p2967
S'609'
p2968
stp2969
a(S'Moscow'
p2970
(dp2971
S'NamedEntityTag'
p2972
S'LOCATION'
p2973
sS'CharacterOffsetEnd'
p2974
S'623'
p2975
sS'Lemma'
p2976
S'Moscow'
p2977
sS'PartOfSpeech'
p2978
S'NNP'
p2979
sS'CharacterOffsetBegin'
p2980
S'617'
p2981
stp2982
a(g644
(dp2983
S'NamedEntityTag'
p2984
g89
sS'CharacterOffsetEnd'
p2985
S'624'
p2986
sS'Lemma'
p2987
g644
sS'PartOfSpeech'
p2988
g644
sS'CharacterOffsetBegin'
p2989
S'623'
p2990
stp2991
asa(dp2992
g7
S'(ROOT (S (NP (NNP Russia)) (VP (VBD withdrew) (NP (PRP$ its) (NNS troops)) (PP (IN in) (NP (CD 1996)))) (. .)))'
p2993
sg9
S'Russia withdrew its troops in 1996.'
p2994
sg11
(lp2995
(S'root'
p2996
S'ROOT'
p2997
S'withdrew'
p2998
tp2999
a(S'nsubj'
p3000
S'withdrew'
p3001
S'Russia'
p3002
tp3003
a(S'poss'
p3004
S'troops'
p3005
S'its'
p3006
tp3007
a(S'dobj'
p3008
S'withdrew'
p3009
S'troops'
p3010
tp3011
a(S'prep_in'
p3012
S'withdrew'
p3013
S'1996'
p3014
tp3015
asg45
(lp3016
(g2996
S'ROOT-0'
p3017
S'withdrew-2'
p3018
tp3019
a(g3000
S'withdrew-2'
p3020
S'Russia-1'
p3021
tp3022
a(g3004
S'troops-4'
p3023
S'its-3'
p3024
tp3025
a(g3008
S'withdrew-2'
p3026
S'troops-4'
p3027
tp3028
a(g3012
S'withdrew-2'
p3029
S'1996-6'
p3030
tp3031
asg71
(lp3032
(S'Russia'
p3033
(dp3034
S'NamedEntityTag'
p3035
S'LOCATION'
p3036
sS'CharacterOffsetEnd'
p3037
S'631'
p3038
sS'Lemma'
p3039
S'Russia'
p3040
sS'PartOfSpeech'
p3041
S'NNP'
p3042
sS'CharacterOffsetBegin'
p3043
S'625'
p3044
stp3045
a(S'withdrew'
p3046
(dp3047
S'NamedEntityTag'
p3048
g89
sS'CharacterOffsetEnd'
p3049
S'640'
p3050
sS'Lemma'
p3051
S'withdraw'
p3052
sS'PartOfSpeech'
p3053
S'VBD'
p3054
sS'CharacterOffsetBegin'
p3055
S'632'
p3056
stp3057
a(S'its'
p3058
(dp3059
S'NamedEntityTag'
p3060
g89
sS'CharacterOffsetEnd'
p3061
S'644'
p3062
sS'Lemma'
p3063
S'its'
p3064
sS'PartOfSpeech'
p3065
S'PRP$'
p3066
sS'CharacterOffsetBegin'
p3067
S'641'
p3068
stp3069
a(S'troops'
p3070
(dp3071
S'NamedEntityTag'
p3072
g89
sS'CharacterOffsetEnd'
p3073
S'651'
p3074
sS'Lemma'
p3075
S'troops'
p3076
sS'PartOfSpeech'
p3077
S'NNS'
p3078
sS'CharacterOffsetBegin'
p3079
S'645'
p3080
stp3081
a(S'in'
p3082
(dp3083
S'NamedEntityTag'
p3084
g89
sS'CharacterOffsetEnd'
p3085
S'654'
p3086
sS'Lemma'
p3087
S'in'
p3088
sS'PartOfSpeech'
p3089
S'IN'
p3090
sS'CharacterOffsetBegin'
p3091
S'652'
p3092
stp3093
a(S'1996'
p3094
(dp3095
S'NormalizedNamedEntityTag'
p3096
S'1996'
p3097
sS'Timex'
p3098
S'<TIMEX3 tid="t5" type="DATE" value="1996">1996</TIMEX3>'
p3099
sS'Lemma'
p3100
S'1996'
p3101
sS'CharacterOffsetEnd'
p3102
S'659'
p3103
sS'PartOfSpeech'
p3104
S'CD'
p3105
sS'CharacterOffsetBegin'
p3106
S'655'
p3107
sS'NamedEntityTag'
p3108
S'DATE'
p3109
stp3110
a(g644
(dp3111
S'NamedEntityTag'
p3112
g89
sS'CharacterOffsetEnd'
p3113
S'660'
p3114
sS'Lemma'
p3115
g644
sS'PartOfSpeech'
p3116
g644
sS'CharacterOffsetBegin'
p3117
S'659'
p3118
stp3119
asa(dp3120
g7
S'(ROOT (S (NP (NNP Chechnya)) (VP (VBZ considers) (S (NP (PRP itself)) (NP (DT an) (JJ independent) (NN state))) (, ,) (SBAR (IN although) (S (NP (NP (DT no) (NN country)) (, ,) (PP (VBG including) (NP (NNP Russia))) (, ,)) (VP (VBZ has) (VP (VBN recognized) (NP (PRP$ its) (NN independence))))))) (. .)))'
p3121
sg9
S'Chechnya considers itself an independent state, although no country, including Russia, has recognized its independence.'
p3122
sg11
(lp3123
(S'root'
p3124
S'ROOT'
p3125
S'considers'
p3126
tp3127
a(S'nsubj'
p3128
S'considers'
p3129
S'Chechnya'
p3130
tp3131
a(S'nsubj'
p3132
S'state'
p3133
S'itself'
p3134
tp3135
a(S'det'
p3136
S'state'
p3137
S'an'
p3138
tp3139
a(S'amod'
p3140
S'state'
p3141
S'independent'
p3142
tp3143
a(S'xcomp'
p3144
S'considers'
p3145
S'state'
p3146
tp3147
a(S'mark'
p3148
S'recognized'
p3149
S'although'
p3150
tp3151
a(S'det'
p3152
S'country'
p3153
S'no'
p3154
tp3155
a(S'nsubj'
p3156
S'recognized'
p3157
S'country'
p3158
tp3159
a(S'prep_including'
p3160
S'country'
p3161
S'Russia'
p3162
tp3163
a(S'aux'
p3164
S'recognized'
p3165
S'has'
p3166
tp3167
a(S'advcl'
p3168
S'considers'
p3169
S'recognized'
p3170
tp3171
a(S'poss'
p3172
S'independence'
p3173
S'its'
p3174
tp3175
a(S'dobj'
p3176
S'recognized'
p3177
S'independence'
p3178
tp3179
asg45
(lp3180
(g3124
S'ROOT-0'
p3181
S'considers-2'
p3182
tp3183
a(g3128
S'considers-2'
p3184
S'Chechnya-1'
p3185
tp3186
a(g3132
S'state-6'
p3187
S'itself-3'
p3188
tp3189
a(g3136
S'state-6'
p3190
S'an-4'
p3191
tp3192
a(g3140
S'state-6'
p3193
S'independent-5'
p3194
tp3195
a(g3144
S'considers-2'
p3196
S'state-6'
p3197
tp3198
a(g3148
S'recognized-16'
p3199
S'although-8'
p3200
tp3201
a(g3152
S'country-10'
p3202
S'no-9'
p3203
tp3204
a(g3156
S'recognized-16'
p3205
S'country-10'
p3206
tp3207
a(g3160
S'country-10'
p3208
S'Russia-13'
p3209
tp3210
a(g3164
S'recognized-16'
p3211
S'has-15'
p3212
tp3213
a(g3168
S'considers-2'
p3214
S'recognized-16'
p3215
tp3216
a(g3172
S'independence-18'
p3217
S'its-17'
p3218
tp3219
a(g3176
S'recognized-16'
p3220
S'independence-18'
p3221
tp3222
asg71
(lp3223
(S'Chechnya'
p3224
(dp3225
S'NamedEntityTag'
p3226
S'LOCATION'
p3227
sS'CharacterOffsetEnd'
p3228
S'669'
p3229
sS'Lemma'
p3230
S'Chechnya'
p3231
sS'PartOfSpeech'
p3232
S'NNP'
p3233
sS'CharacterOffsetBegin'
p3234
S'661'
p3235
stp3236
a(S'considers'
p3237
(dp3238
S'NamedEntityTag'
p3239
g89
sS'CharacterOffsetEnd'
p3240
S'679'
p3241
sS'Lemma'
p3242
S'consider'
p3243
sS'PartOfSpeech'
p3244
S'VBZ'
p3245
sS'CharacterOffsetBegin'
p3246
S'670'
p3247
stp3248
a(S'itself'
p3249
(dp3250
S'NamedEntityTag'
p3251
g89
sS'CharacterOffsetEnd'
p3252
S'686'
p3253
sS'Lemma'
p3254
S'itself'
p3255
sS'PartOfSpeech'
p3256
S'PRP'
p3257
sS'CharacterOffsetBegin'
p3258
S'680'
p3259
stp3260
a(S'an'
p3261
(dp3262
S'NamedEntityTag'
p3263
g89
sS'CharacterOffsetEnd'
p3264
S'689'
p3265
sS'Lemma'
p3266
g1030
sS'PartOfSpeech'
p3267
S'DT'
p3268
sS'CharacterOffsetBegin'
p3269
S'687'
p3270
stp3271
a(S'independent'
p3272
(dp3273
S'NamedEntityTag'
p3274
g89
sS'CharacterOffsetEnd'
p3275
S'701'
p3276
sS'Lemma'
p3277
S'independent'
p3278
sS'PartOfSpeech'
p3279
S'JJ'
p3280
sS'CharacterOffsetBegin'
p3281
S'690'
p3282
stp3283
a(S'state'
p3284
(dp3285
S'NamedEntityTag'
p3286
g89
sS'CharacterOffsetEnd'
p3287
S'707'
p3288
sS'Lemma'
p3289
S'state'
p3290
sS'PartOfSpeech'
p3291
S'NN'
p3292
sS'CharacterOffsetBegin'
p3293
S'702'
p3294
stp3295
a(g285
(dp3296
S'NamedEntityTag'
p3297
g89
sS'CharacterOffsetEnd'
p3298
S'708'
p3299
sS'Lemma'
p3300
g285
sS'PartOfSpeech'
p3301
g285
sS'CharacterOffsetBegin'
p3302
S'707'
p3303
stp3304
a(S'although'
p3305
(dp3306
S'NamedEntityTag'
p3307
g89
sS'CharacterOffsetEnd'
p3308
S'717'
p3309
sS'Lemma'
p3310
S'although'
p3311
sS'PartOfSpeech'
p3312
S'IN'
p3313
sS'CharacterOffsetBegin'
p3314
S'709'
p3315
stp3316
a(S'no'
p3317
(dp3318
S'NamedEntityTag'
p3319
g89
sS'CharacterOffsetEnd'
p3320
S'720'
p3321
sS'Lemma'
p3322
S'no'
p3323
sS'PartOfSpeech'
p3324
S'DT'
p3325
sS'CharacterOffsetBegin'
p3326
S'718'
p3327
stp3328
a(S'country'
p3329
(dp3330
S'NamedEntityTag'
p3331
g89
sS'CharacterOffsetEnd'
p3332
S'728'
p3333
sS'Lemma'
p3334
S'country'
p3335
sS'PartOfSpeech'
p3336
S'NN'
p3337
sS'CharacterOffsetBegin'
p3338
S'721'
p3339
stp3340
a(g285
(dp3341
S'NamedEntityTag'
p3342
g89
sS'CharacterOffsetEnd'
p3343
S'729'
p3344
sS'Lemma'
p3345
g285
sS'PartOfSpeech'
p3346
g285
sS'CharacterOffsetBegin'
p3347
S'728'
p3348
stp3349
a(S'including'
p3350
(dp3351
S'NamedEntityTag'
p3352
g89
sS'CharacterOffsetEnd'
p3353
S'739'
p3354
sS'Lemma'
p3355
S'include'
p3356
sS'PartOfSpeech'
p3357
S'VBG'
p3358
sS'CharacterOffsetBegin'
p3359
S'730'
p3360
stp3361
a(S'Russia'
p3362
(dp3363
S'NamedEntityTag'
p3364
S'LOCATION'
p3365
sS'CharacterOffsetEnd'
p3366
S'746'
p3367
sS'Lemma'
p3368
S'Russia'
p3369
sS'PartOfSpeech'
p3370
S'NNP'
p3371
sS'CharacterOffsetBegin'
p3372
S'740'
p3373
stp3374
a(g285
(dp3375
S'NamedEntityTag'
p3376
g89
sS'CharacterOffsetEnd'
p3377
S'747'
p3378
sS'Lemma'
p3379
g285
sS'PartOfSpeech'
p3380
g285
sS'CharacterOffsetBegin'
p3381
S'746'
p3382
stp3383
a(S'has'
p3384
(dp3385
S'NamedEntityTag'
p3386
g89
sS'CharacterOffsetEnd'
p3387
S'751'
p3388
sS'Lemma'
p3389
S'have'
p3390
sS'PartOfSpeech'
p3391
S'VBZ'
p3392
sS'CharacterOffsetBegin'
p3393
S'748'
p3394
stp3395
a(S'recognized'
p3396
(dp3397
S'NamedEntityTag'
p3398
g89
sS'CharacterOffsetEnd'
p3399
S'762'
p3400
sS'Lemma'
p3401
S'recognize'
p3402
sS'PartOfSpeech'
p3403
S'VBN'
p3404
sS'CharacterOffsetBegin'
p3405
S'752'
p3406
stp3407
a(S'its'
p3408
(dp3409
S'NamedEntityTag'
p3410
g89
sS'CharacterOffsetEnd'
p3411
S'766'
p3412
sS'Lemma'
p3413
S'its'
p3414
sS'PartOfSpeech'
p3415
S'PRP$'
p3416
sS'CharacterOffsetBegin'
p3417
S'763'
p3418
stp3419
a(S'independence'
p3420
(dp3421
S'NamedEntityTag'
p3422
g89
sS'CharacterOffsetEnd'
p3423
S'779'
p3424
sS'Lemma'
p3425
S'independence'
p3426
sS'PartOfSpeech'
p3427
S'NN'
p3428
sS'CharacterOffsetBegin'
p3429
S'767'
p3430
stp3431
a(g644
(dp3432
S'NamedEntityTag'
p3433
g89
sS'CharacterOffsetEnd'
p3434
S'780'
p3435
sS'Lemma'
p3436
g644
sS'PartOfSpeech'
p3437
g644
sS'CharacterOffsetBegin'
p3438
S'779'
p3439
stp3440
asass.