(dp0
S'models'
p1
(lp2
(dp3
S'coref'
p4
(lp5
(lp6
((S'U.S. embassy'
p7
I0
I5
I4
I6
tp8
(S'Kenya'
p9
I0
I2
I2
I3
tp10
tp11
aasS'sentences'
p12
(lp13
(dp14
S'parsetree'
p15
S'(ROOT (S (NP (NNP FBI)) (, ,) (NP (NP (NP (NNP Kenya)) (, ,) (NP (NNP U.S.) (NN embassy)) (, ,)) (VP (VBG gathering) (NP (NP (VBN recorded) (NN testimony)) (, ,) (NP (CD six) (NNS men))))) (VP (VBD indicted))))'
p16
sS'text'
p17
S'FBI, Kenya, U.S. embassy, gathering recorded testimony, six men indicted'
p18
sS'dependencies'
p19
(lp20
(S'root'
p21
S'ROOT'
p22
S'indicted'
p23
tp24
a(S'nsubj'
p25
S'indicted'
p26
S'FBI'
p27
tp28
a(S'nsubj'
p29
S'indicted'
p30
S'Kenya'
p31
tp32
a(S'nn'
p33
S'embassy'
p34
S'U.S.'
p35
tp36
a(S'appos'
p37
S'Kenya'
p38
S'embassy'
p39
tp40
a(S'partmod'
p41
S'Kenya'
p42
S'gathering'
p43
tp44
a(S'amod'
p45
S'testimony'
p46
S'recorded'
p47
tp48
a(S'dobj'
p49
S'gathering'
p50
S'testimony'
p51
tp52
a(S'num'
p53
S'men'
p54
S'six'
p55
tp56
a(S'appos'
p57
S'testimony'
p58
S'men'
p59
tp60
asS'indexeddependencies'
p61
(lp62
(g21
S'ROOT-0'
p63
S'indicted-14'
p64
tp65
a(g25
S'indicted-14'
p66
S'FBI-1'
p67
tp68
a(g29
S'indicted-14'
p69
S'Kenya-3'
p70
tp71
a(g33
S'embassy-6'
p72
S'U.S.-5'
p73
tp74
a(g37
S'Kenya-3'
p75
S'embassy-6'
p76
tp77
a(g41
S'Kenya-3'
p78
S'gathering-8'
p79
tp80
a(g45
S'testimony-10'
p81
S'recorded-9'
p82
tp83
a(g49
S'gathering-8'
p84
S'testimony-10'
p85
tp86
a(g53
S'men-13'
p87
S'six-12'
p88
tp89
a(g57
S'testimony-10'
p90
S'men-13'
p91
tp92
asS'words'
p93
(lp94
(S'FBI'
p95
(dp96
S'NamedEntityTag'
p97
S'ORGANIZATION'
p98
sS'CharacterOffsetEnd'
p99
S'4'
p100
sS'Lemma'
p101
S'FBI'
p102
sS'PartOfSpeech'
p103
S'NNP'
p104
sS'CharacterOffsetBegin'
p105
S'1'
p106
stp107
a(S','
p108
(dp109
S'NamedEntityTag'
p110
S'O'
p111
sS'CharacterOffsetEnd'
p112
S'5'
p113
sS'Lemma'
p114
g108
sS'PartOfSpeech'
p115
g108
sS'CharacterOffsetBegin'
p116
g100
stp117
a(S'Kenya'
p118
(dp119
S'NamedEntityTag'
p120
S'LOCATION'
p121
sS'CharacterOffsetEnd'
p122
S'11'
p123
sS'Lemma'
p124
S'Kenya'
p125
sS'PartOfSpeech'
p126
S'NNP'
p127
sS'CharacterOffsetBegin'
p128
S'6'
p129
stp130
a(g108
(dp131
S'NamedEntityTag'
p132
g111
sS'CharacterOffsetEnd'
p133
S'12'
p134
sS'Lemma'
p135
g108
sS'PartOfSpeech'
p136
g108
sS'CharacterOffsetBegin'
p137
S'11'
p138
stp139
a(S'U.S.'
p140
(dp141
S'NamedEntityTag'
p142
S'LOCATION'
p143
sS'CharacterOffsetEnd'
p144
S'17'
p145
sS'Lemma'
p146
S'U.S.'
p147
sS'PartOfSpeech'
p148
S'NNP'
p149
sS'CharacterOffsetBegin'
p150
S'13'
p151
stp152
a(S'embassy'
p153
(dp154
S'NamedEntityTag'
p155
g111
sS'CharacterOffsetEnd'
p156
S'25'
p157
sS'Lemma'
p158
S'embassy'
p159
sS'PartOfSpeech'
p160
S'NN'
p161
sS'CharacterOffsetBegin'
p162
S'18'
p163
stp164
a(g108
(dp165
S'NamedEntityTag'
p166
g111
sS'CharacterOffsetEnd'
p167
S'26'
p168
sS'Lemma'
p169
g108
sS'PartOfSpeech'
p170
g108
sS'CharacterOffsetBegin'
p171
S'25'
p172
stp173
a(S'gathering'
p174
(dp175
S'NamedEntityTag'
p176
g111
sS'CharacterOffsetEnd'
p177
S'36'
p178
sS'Lemma'
p179
S'gather'
p180
sS'PartOfSpeech'
p181
S'VBG'
p182
sS'CharacterOffsetBegin'
p183
S'27'
p184
stp185
a(S'recorded'
p186
(dp187
S'NamedEntityTag'
p188
g111
sS'CharacterOffsetEnd'
p189
S'45'
p190
sS'Lemma'
p191
S'record'
p192
sS'PartOfSpeech'
p193
S'VBN'
p194
sS'CharacterOffsetBegin'
p195
S'37'
p196
stp197
a(S'testimony'
p198
(dp199
S'NamedEntityTag'
p200
g111
sS'CharacterOffsetEnd'
p201
S'55'
p202
sS'Lemma'
p203
S'testimony'
p204
sS'PartOfSpeech'
p205
S'NN'
p206
sS'CharacterOffsetBegin'
p207
S'46'
p208
stp209
a(g108
(dp210
S'NamedEntityTag'
p211
g111
sS'CharacterOffsetEnd'
p212
S'56'
p213
sS'Lemma'
p214
g108
sS'PartOfSpeech'
p215
g108
sS'CharacterOffsetBegin'
p216
S'55'
p217
stp218
a(S'six'
p219
(dp220
S'NormalizedNamedEntityTag'
p221
S'6.0'
p222
sS'Lemma'
p223
S'six'
p224
sS'CharacterOffsetEnd'
p225
S'60'
p226
sS'PartOfSpeech'
p227
S'CD'
p228
sS'CharacterOffsetBegin'
p229
S'57'
p230
sS'NamedEntityTag'
p231
S'NUMBER'
p232
stp233
a(S'men'
p234
(dp235
S'NamedEntityTag'
p236
g111
sS'CharacterOffsetEnd'
p237
S'64'
p238
sS'Lemma'
p239
S'man'
p240
sS'PartOfSpeech'
p241
S'NNS'
p242
sS'CharacterOffsetBegin'
p243
S'61'
p244
stp245
a(S'indicted'
p246
(dp247
S'NamedEntityTag'
p248
g111
sS'CharacterOffsetEnd'
p249
S'73'
p250
sS'Lemma'
p251
S'indict'
p252
sS'PartOfSpeech'
p253
S'VBD'
p254
sS'CharacterOffsetBegin'
p255
S'65'
p256
stp257
asasa(dp258
g12
(lp259
(dp260
g15
S'(ROOT (NP (NP (NNP US)) (NP (NP (NN gathering) (NN testimony)) (PP (IN for) (NP (NP (NN trial)) (PP (IN of) (NP (NN bombing) (NNS suspects))))))))'
p261
sg17
S'US gathering testimony for trial of bombing suspects'
p262
sg19
(lp263
(S'root'
p264
S'ROOT'
p265
S'US'
p266
tp267
a(S'nn'
p268
S'testimony'
p269
S'gathering'
p270
tp271
a(S'dep'
p272
S'US'
p273
S'testimony'
p274
tp275
a(S'prep_for'
p276
S'testimony'
p277
S'trial'
p278
tp279
a(S'nn'
p280
S'suspects'
p281
S'bombing'
p282
tp283
a(S'prep_of'
p284
S'trial'
p285
S'suspects'
p286
tp287
asg61
(lp288
(g264
S'ROOT-0'
p289
S'US-1'
p290
tp291
a(g268
S'testimony-3'
p292
S'gathering-2'
p293
tp294
a(g272
S'US-1'
p295
S'testimony-3'
p296
tp297
a(g276
S'testimony-3'
p298
S'trial-5'
p299
tp300
a(g280
S'suspects-8'
p301
S'bombing-7'
p302
tp303
a(g284
S'trial-5'
p304
S'suspects-8'
p305
tp306
asg93
(lp307
(S'US'
p308
(dp309
S'NamedEntityTag'
p310
S'LOCATION'
p311
sS'CharacterOffsetEnd'
p312
S'3'
p313
sS'Lemma'
p314
S'US'
p315
sS'PartOfSpeech'
p316
S'NNP'
p317
sS'CharacterOffsetBegin'
p318
g106
stp319
a(S'gathering'
p320
(dp321
S'NamedEntityTag'
p322
g111
sS'CharacterOffsetEnd'
p323
S'13'
p324
sS'Lemma'
p325
S'gathering'
p326
sS'PartOfSpeech'
p327
S'NN'
p328
sS'CharacterOffsetBegin'
p329
g100
stp330
a(S'testimony'
p331
(dp332
S'NamedEntityTag'
p333
g111
sS'CharacterOffsetEnd'
p334
S'23'
p335
sS'Lemma'
p336
S'testimony'
p337
sS'PartOfSpeech'
p338
S'NN'
p339
sS'CharacterOffsetBegin'
p340
S'14'
p341
stp342
a(S'for'
p343
(dp344
S'NamedEntityTag'
p345
g111
sS'CharacterOffsetEnd'
p346
S'27'
p347
sS'Lemma'
p348
S'for'
p349
sS'PartOfSpeech'
p350
S'IN'
p351
sS'CharacterOffsetBegin'
p352
S'24'
p353
stp354
a(S'trial'
p355
(dp356
S'NamedEntityTag'
p357
g111
sS'CharacterOffsetEnd'
p358
S'33'
p359
sS'Lemma'
p360
S'trial'
p361
sS'PartOfSpeech'
p362
S'NN'
p363
sS'CharacterOffsetBegin'
p364
S'28'
p365
stp366
a(S'of'
p367
(dp368
S'NamedEntityTag'
p369
g111
sS'CharacterOffsetEnd'
p370
S'36'
p371
sS'Lemma'
p372
S'of'
p373
sS'PartOfSpeech'
p374
S'IN'
p375
sS'CharacterOffsetBegin'
p376
S'34'
p377
stp378
a(S'bombing'
p379
(dp380
S'NamedEntityTag'
p381
g111
sS'CharacterOffsetEnd'
p382
S'44'
p383
sS'Lemma'
p384
S'bombing'
p385
sS'PartOfSpeech'
p386
S'NN'
p387
sS'CharacterOffsetBegin'
p388
S'37'
p389
stp390
a(S'suspects'
p391
(dp392
S'NamedEntityTag'
p393
g111
sS'CharacterOffsetEnd'
p394
S'53'
p395
sS'Lemma'
p396
S'suspect'
p397
sS'PartOfSpeech'
p398
S'NNS'
p399
sS'CharacterOffsetBegin'
p400
S'45'
p401
stp402
asasa(dp403
g4
(lp404
(lp405
((g313
I0
I2
I12
I13
tp406
(S'3 jailed'
p407
I0
I-1
I9
I11
tp408
tp409
aasg12
(lp410
(dp411
g15
S'(ROOT (S (S (NP (NNP FBI)) (VP (VBZ prepares) (PP (IN for) (NP (NP (NP (NN trial)) (PP (IN of) (NP (NN embassy) (NN bombing) (NNS suspects)))) (: ;) (NP (NP (CD 3)) (VP (VBN jailed))))))) (, ,) (NP (CD 3)) (VP (VBD sought)) (. .)))'
p412
sg17
S'FBI prepares for trial of embassy bombing suspects; 3 jailed, 3 sought.'
p413
sg19
(lp414
(S'root'
p415
S'ROOT'
p416
S'sought'
p417
tp418
a(S'nsubj'
p419
S'prepares'
p420
S'FBI'
p421
tp422
a(S'ccomp'
p423
S'sought'
p424
S'prepares'
p425
tp426
a(S'prep_for'
p427
S'prepares'
p428
S'trial'
p429
tp430
a(S'nn'
p431
S'suspects'
p432
S'embassy'
p433
tp434
a(S'nn'
p435
S'suspects'
p436
S'bombing'
p437
tp438
a(S'prep_of'
p439
S'trial'
p440
S'suspects'
p441
tp442
a(S'dep'
p443
S'trial'
p444
g313
tp445
a(S'partmod'
p446
g313
S'jailed'
p447
tp448
a(S'nsubj'
p449
S'sought'
p450
g313
tp451
asg61
(lp452
(g415
S'ROOT-0'
p453
S'sought-14'
p454
tp455
a(g419
S'prepares-2'
p456
S'FBI-1'
p457
tp458
a(g423
S'sought-14'
p459
S'prepares-2'
p460
tp461
a(g427
S'prepares-2'
p462
S'trial-4'
p463
tp464
a(g431
S'suspects-8'
p465
S'embassy-6'
p466
tp467
a(g435
S'suspects-8'
p468
S'bombing-7'
p469
tp470
a(g439
S'trial-4'
p471
S'suspects-8'
p472
tp473
a(g443
S'trial-4'
p474
S'3-10'
p475
tp476
a(g446
S'3-10'
p477
S'jailed-11'
p478
tp479
a(g449
S'sought-14'
p480
S'3-13'
p481
tp482
asg93
(lp483
(S'FBI'
p484
(dp485
S'NamedEntityTag'
p486
S'ORGANIZATION'
p487
sS'CharacterOffsetEnd'
p488
g100
sS'Lemma'
p489
S'FBI'
p490
sS'PartOfSpeech'
p491
S'NNP'
p492
sS'CharacterOffsetBegin'
p493
g106
stp494
a(S'prepares'
p495
(dp496
S'NamedEntityTag'
p497
g111
sS'CharacterOffsetEnd'
p498
S'13'
p499
sS'Lemma'
p500
S'prepare'
p501
sS'PartOfSpeech'
p502
S'VBZ'
p503
sS'CharacterOffsetBegin'
p504
g113
stp505
a(S'for'
p506
(dp507
S'NamedEntityTag'
p508
g111
sS'CharacterOffsetEnd'
p509
S'17'
p510
sS'Lemma'
p511
S'for'
p512
sS'PartOfSpeech'
p513
S'IN'
p514
sS'CharacterOffsetBegin'
p515
S'14'
p516
stp517
a(S'trial'
p518
(dp519
S'NamedEntityTag'
p520
g111
sS'CharacterOffsetEnd'
p521
S'23'
p522
sS'Lemma'
p523
S'trial'
p524
sS'PartOfSpeech'
p525
S'NN'
p526
sS'CharacterOffsetBegin'
p527
S'18'
p528
stp529
a(S'of'
p530
(dp531
S'NamedEntityTag'
p532
g111
sS'CharacterOffsetEnd'
p533
S'26'
p534
sS'Lemma'
p535
S'of'
p536
sS'PartOfSpeech'
p537
S'IN'
p538
sS'CharacterOffsetBegin'
p539
S'24'
p540
stp541
a(S'embassy'
p542
(dp543
S'NamedEntityTag'
p544
g111
sS'CharacterOffsetEnd'
p545
S'34'
p546
sS'Lemma'
p547
S'embassy'
p548
sS'PartOfSpeech'
p549
S'NN'
p550
sS'CharacterOffsetBegin'
p551
S'27'
p552
stp553
a(S'bombing'
p554
(dp555
S'NamedEntityTag'
p556
g111
sS'CharacterOffsetEnd'
p557
S'42'
p558
sS'Lemma'
p559
S'bombing'
p560
sS'PartOfSpeech'
p561
S'NN'
p562
sS'CharacterOffsetBegin'
p563
S'35'
p564
stp565
a(S'suspects'
p566
(dp567
S'NamedEntityTag'
p568
g111
sS'CharacterOffsetEnd'
p569
S'51'
p570
sS'Lemma'
p571
S'suspect'
p572
sS'PartOfSpeech'
p573
S'NNS'
p574
sS'CharacterOffsetBegin'
p575
S'43'
p576
stp577
a(S';'
p578
(dp579
S'NamedEntityTag'
p580
g111
sS'CharacterOffsetEnd'
p581
S'52'
p582
sS'Lemma'
p583
g578
sS'PartOfSpeech'
p584
S':'
p585
sS'CharacterOffsetBegin'
p586
S'51'
p587
stp588
a(g313
(dp589
S'NormalizedNamedEntityTag'
p590
S'3.0'
p591
sS'Lemma'
p592
g313
sS'CharacterOffsetEnd'
p593
S'54'
p594
sS'PartOfSpeech'
p595
S'CD'
p596
sS'CharacterOffsetBegin'
p597
S'53'
p598
sS'NamedEntityTag'
p599
S'NUMBER'
p600
stp601
a(S'jailed'
p602
(dp603
S'NamedEntityTag'
p604
g111
sS'CharacterOffsetEnd'
p605
S'61'
p606
sS'Lemma'
p607
S'jail'
p608
sS'PartOfSpeech'
p609
S'VBN'
p610
sS'CharacterOffsetBegin'
p611
S'55'
p612
stp613
a(g108
(dp614
S'NamedEntityTag'
p615
g111
sS'CharacterOffsetEnd'
p616
S'62'
p617
sS'Lemma'
p618
g108
sS'PartOfSpeech'
p619
g108
sS'CharacterOffsetBegin'
p620
S'61'
p621
stp622
a(g313
(dp623
S'NormalizedNamedEntityTag'
p624
S'3.0'
p625
sS'Lemma'
p626
g313
sS'CharacterOffsetEnd'
p627
S'64'
p628
sS'PartOfSpeech'
p629
S'CD'
p630
sS'CharacterOffsetBegin'
p631
S'63'
p632
sS'NamedEntityTag'
p633
S'NUMBER'
p634
stp635
a(S'sought'
p636
(dp637
S'NamedEntityTag'
p638
g111
sS'CharacterOffsetEnd'
p639
S'71'
p640
sS'Lemma'
p641
S'seek'
p642
sS'PartOfSpeech'
p643
S'VBD'
p644
sS'CharacterOffsetBegin'
p645
S'65'
p646
stp647
a(S'.'
p648
(dp649
S'NamedEntityTag'
p650
g111
sS'CharacterOffsetEnd'
p651
S'72'
p652
sS'Lemma'
p653
g648
sS'PartOfSpeech'
p654
g648
sS'CharacterOffsetBegin'
p655
S'71'
p656
stp657
asasa(dp658
g12
(lp659
(dp660
g15
S'(ROOT (FRAG (NP (NNP FBI)) (S (VP (VBG questioning) (NP (NNP Nairobi) (NNS victims)) (PP (IN for) (NP (NP (NN evidence)) (PP (IN against) (NP (NNP U.S.) (NN embassy) (NNS attackers)))))))))'
p661
sg17
S'FBI questioning Nairobi victims for evidence against U.S. embassy attackers'
p662
sg19
(lp663
(S'root'
p664
S'ROOT'
p665
S'FBI'
p666
tp667
a(S'dep'
p668
S'FBI'
p669
S'questioning'
p670
tp671
a(S'nn'
p672
S'victims'
p673
S'Nairobi'
p674
tp675
a(S'dobj'
p676
S'questioning'
p677
S'victims'
p678
tp679
a(S'prep_for'
p680
S'questioning'
p681
S'evidence'
p682
tp683
a(S'nn'
p684
S'attackers'
p685
S'U.S.'
p686
tp687
a(S'nn'
p688
S'attackers'
p689
S'embassy'
p690
tp691
a(S'prep_against'
p692
S'evidence'
p693
S'attackers'
p694
tp695
asg61
(lp696
(g664
S'ROOT-0'
p697
S'FBI-1'
p698
tp699
a(g668
S'FBI-1'
p700
S'questioning-2'
p701
tp702
a(g672
S'victims-4'
p703
S'Nairobi-3'
p704
tp705
a(g676
S'questioning-2'
p706
S'victims-4'
p707
tp708
a(g680
S'questioning-2'
p709
S'evidence-6'
p710
tp711
a(g684
S'attackers-10'
p712
S'U.S.-8'
p713
tp714
a(g688
S'attackers-10'
p715
S'embassy-9'
p716
tp717
a(g692
S'evidence-6'
p718
S'attackers-10'
p719
tp720
asg93
(lp721
(S'FBI'
p722
(dp723
S'NamedEntityTag'
p724
S'ORGANIZATION'
p725
sS'CharacterOffsetEnd'
p726
g100
sS'Lemma'
p727
S'FBI'
p728
sS'PartOfSpeech'
p729
S'NNP'
p730
sS'CharacterOffsetBegin'
p731
g106
stp732
a(S'questioning'
p733
(dp734
S'NamedEntityTag'
p735
g111
sS'CharacterOffsetEnd'
p736
S'16'
p737
sS'Lemma'
p738
S'question'
p739
sS'PartOfSpeech'
p740
S'VBG'
p741
sS'CharacterOffsetBegin'
p742
g113
stp743
a(S'Nairobi'
p744
(dp745
S'NamedEntityTag'
p746
S'LOCATION'
p747
sS'CharacterOffsetEnd'
p748
S'24'
p749
sS'Lemma'
p750
S'Nairobi'
p751
sS'PartOfSpeech'
p752
S'NNP'
p753
sS'CharacterOffsetBegin'
p754
S'17'
p755
stp756
a(S'victims'
p757
(dp758
S'NamedEntityTag'
p759
g111
sS'CharacterOffsetEnd'
p760
S'32'
p761
sS'Lemma'
p762
S'victim'
p763
sS'PartOfSpeech'
p764
S'NNS'
p765
sS'CharacterOffsetBegin'
p766
S'25'
p767
stp768
a(S'for'
p769
(dp770
S'NamedEntityTag'
p771
g111
sS'CharacterOffsetEnd'
p772
S'36'
p773
sS'Lemma'
p774
S'for'
p775
sS'PartOfSpeech'
p776
S'IN'
p777
sS'CharacterOffsetBegin'
p778
S'33'
p779
stp780
a(S'evidence'
p781
(dp782
S'NamedEntityTag'
p783
g111
sS'CharacterOffsetEnd'
p784
S'45'
p785
sS'Lemma'
p786
S'evidence'
p787
sS'PartOfSpeech'
p788
S'NN'
p789
sS'CharacterOffsetBegin'
p790
S'37'
p791
stp792
a(S'against'
p793
(dp794
S'NamedEntityTag'
p795
g111
sS'CharacterOffsetEnd'
p796
S'53'
p797
sS'Lemma'
p798
S'against'
p799
sS'PartOfSpeech'
p800
S'IN'
p801
sS'CharacterOffsetBegin'
p802
S'46'
p803
stp804
a(S'U.S.'
p805
(dp806
S'NamedEntityTag'
p807
S'LOCATION'
p808
sS'CharacterOffsetEnd'
p809
S'58'
p810
sS'Lemma'
p811
S'U.S.'
p812
sS'PartOfSpeech'
p813
S'NNP'
p814
sS'CharacterOffsetBegin'
p815
S'54'
p816
stp817
a(S'embassy'
p818
(dp819
S'NamedEntityTag'
p820
g111
sS'CharacterOffsetEnd'
p821
S'66'
p822
sS'Lemma'
p823
S'embassy'
p824
sS'PartOfSpeech'
p825
S'NN'
p826
sS'CharacterOffsetBegin'
p827
S'59'
p828
stp829
a(S'attackers'
p830
(dp831
S'NamedEntityTag'
p832
g111
sS'CharacterOffsetEnd'
p833
S'76'
p834
sS'Lemma'
p835
S'attacker'
p836
sS'PartOfSpeech'
p837
S'NNS'
p838
sS'CharacterOffsetBegin'
p839
S'67'
p840
stp841
asasasS'article'
p842
(dp843
g4
(lp844
(lp845
((S'NAIROBI'
p846
I0
I0
I0
I1
tp847
(S'downtown Nairobi'
p848
I1
I8
I7
I9
tp849
tp850
aa(lp851
((S'The official'
p852
I3
I1
I0
I2
tp853
(S'a U.S. official'
p854
I0
I7
I45
I48
tp855
tp856
aa(lp857
((S'the Southern District of New York'
p858
I4
I3
I21
I27
tp859
(S'the Southern District of New York'
p860
I0
I0
I38
I44
tp861
tp862
aa(lp863
((S'them'
p864
I1
I5
I15
I16
tp865
(S'213 people'
p866
I1
I1
I10
I12
tp867
tp868
aa(lp869
((S'them'
p870
I2
I8
I28
I29
tp871
(S'11 people'
p872
I2
I8
I17
I19
tp873
tp874
aa(lp875
((S'the alleged mastermind of a conspiracy to attack U.S. targets around the world'
p876
I7
I8
I6
I19
tp877
(S'Osama bin Laden'
p878
I7
I4
I2
I5
tp879
tp880
a((S'Bin Laden'
p881
I8
I1
I0
I2
tp882
(S'Osama bin Laden'
p883
I7
I4
I2
I5
tp884
tp885
aa(lp886
((S'a fugitive'
p887
I6
I5
I4
I6
tp888
(S'Fazul Abdullah Mohammed'
p889
I6
I2
I0
I3
tp890
tp891
aasg12
(lp892
(dp893
g15
S'(ROOT (S (S (NP (NP (NNP NAIROBI) (, ,) (NNP Kenya)) (PRN (-LRB- -LRB-) (NP (NNP AP)) (-RRB- -RRB-)) (NP (CD _) (NNP FBI) (NNS agents)) (DT this)) (NP-TMP (NN week)) (VP (VBD began) (NP (NP (VBG questioning) (NNS relatives)) (PP (IN of) (NP (NP (DT the) (NNS victims)) (PP (IN of) (NP (NP (DT the) (NN Aug) (CD 7) (NNP U.S.) (NNP Embassy) (NN bombing)) (CONJP (RB as) (RB well) (IN as)) (NP (NP (DT the) (ADJP (ADJP (ADVP (RB seriously)) (VBN injured)) (PP (IN on) (NP (NP (NN request)) (PP (IN of) (NP (DT the) (NNP U.S.) (NNP Attorneys)))))) (NN office)) (PP (IN for) (NP (NP (DT the) (NNP Southern) (NNP District)) (PP (IN of) (NP (NNP New) (NNP York))))))))))))) (, ,) (NP (DT a) (NNP U.S.) (NN official)) (VP (VBD said) (NP-TMP (NNP Thursday))) (. .)))'
p894
sg17
S'NAIROBI, Kenya (AP) _ FBI agents this week began questioning relatives of the victims of the Aug 7 U.S. Embassy bombing as well as the seriously injured on request of the U.S. Attorneys office for the Southern District of New York, a U.S. official said Thursday.'
p895
sg19
(lp896
(S'root'
p897
S'ROOT'
p898
S'said'
p899
tp900
a(S'nn'
p901
S'Kenya'
p902
S'NAIROBI'
p903
tp904
a(S'nsubj'
p905
S'began'
p906
S'Kenya'
p907
tp908
a(S'appos'
p909
S'Kenya'
p910
S'AP'
p911
tp912
a(S'num'
p913
S'agents'
p914
S'_'
p915
tp916
a(S'nn'
p917
S'agents'
p918
S'FBI'
p919
tp920
a(S'dep'
p921
S'Kenya'
p922
S'agents'
p923
tp924
a(S'dep'
p925
S'Kenya'
p926
S'this'
p927
tp928
a(S'tmod'
p929
S'began'
p930
S'week'
p931
tp932
a(S'ccomp'
p933
S'said'
p934
S'began'
p935
tp936
a(S'amod'
p937
S'relatives'
p938
S'questioning'
p939
tp940
a(S'dobj'
p941
S'began'
p942
S'relatives'
p943
tp944
a(S'det'
p945
S'victims'
p946
S'the'
p947
tp948
a(S'prep_of'
p949
S'relatives'
p950
S'victims'
p951
tp952
a(S'det'
p953
S'bombing'
p954
S'the'
p955
tp956
a(S'nn'
p957
S'bombing'
p958
S'Aug'
p959
tp960
a(S'num'
p961
S'bombing'
p962
S'7'
p963
tp964
a(S'nn'
p965
S'bombing'
p966
S'U.S.'
p967
tp968
a(S'nn'
p969
S'bombing'
p970
S'Embassy'
p971
tp972
a(S'prep_of'
p973
S'victims'
p974
S'bombing'
p975
tp976
a(S'det'
p977
S'office'
p978
S'the'
p979
tp980
a(S'advmod'
p981
S'injured'
p982
S'seriously'
p983
tp984
a(S'amod'
p985
S'office'
p986
S'injured'
p987
tp988
a(S'prep_on'
p989
S'injured'
p990
S'request'
p991
tp992
a(S'det'
p993
S'Attorneys'
p994
S'the'
p995
tp996
a(S'nn'
p997
S'Attorneys'
p998
S'U.S.'
p999
tp1000
a(S'prep_of'
p1001
S'request'
p1002
S'Attorneys'
p1003
tp1004
a(S'conj_and'
p1005
S'bombing'
p1006
S'office'
p1007
tp1008
a(S'det'
p1009
S'District'
p1010
S'the'
p1011
tp1012
a(S'nn'
p1013
S'District'
p1014
S'Southern'
p1015
tp1016
a(S'prep_for'
p1017
S'office'
p1018
S'District'
p1019
tp1020
a(S'nn'
p1021
S'York'
p1022
S'New'
p1023
tp1024
a(S'prep_of'
p1025
S'District'
p1026
S'York'
p1027
tp1028
a(S'det'
p1029
S'official'
p1030
S'a'
p1031
tp1032
a(S'nn'
p1033
S'official'
p1034
S'U.S.'
p1035
tp1036
a(S'nsubj'
p1037
S'said'
p1038
S'official'
p1039
tp1040
a(S'tmod'
p1041
S'said'
p1042
S'Thursday'
p1043
tp1044
asg61
(lp1045
(g897
S'ROOT-0'
p1046
S'said-49'
p1047
tp1048
a(g901
S'Kenya-3'
p1049
S'NAIROBI-1'
p1050
tp1051
a(g905
S'began-12'
p1052
S'Kenya-3'
p1053
tp1054
a(g909
S'Kenya-3'
p1055
S'AP-5'
p1056
tp1057
a(g913
S'agents-9'
p1058
S'_-7'
p1059
tp1060
a(g917
S'agents-9'
p1061
S'FBI-8'
p1062
tp1063
a(g921
S'Kenya-3'
p1064
S'agents-9'
p1065
tp1066
a(g925
S'Kenya-3'
p1067
S'this-10'
p1068
tp1069
a(g929
S'began-12'
p1070
S'week-11'
p1071
tp1072
a(g933
S'said-49'
p1073
S'began-12'
p1074
tp1075
a(g937
S'relatives-14'
p1076
S'questioning-13'
p1077
tp1078
a(g941
S'began-12'
p1079
S'relatives-14'
p1080
tp1081
a(g945
S'victims-17'
p1082
S'the-16'
p1083
tp1084
a(g949
S'relatives-14'
p1085
S'victims-17'
p1086
tp1087
a(g953
S'bombing-24'
p1088
S'the-19'
p1089
tp1090
a(g957
S'bombing-24'
p1091
S'Aug-20'
p1092
tp1093
a(g961
S'bombing-24'
p1094
S'7-21'
p1095
tp1096
a(g965
S'bombing-24'
p1097
S'U.S.-22'
p1098
tp1099
a(g969
S'bombing-24'
p1100
S'Embassy-23'
p1101
tp1102
a(g973
S'victims-17'
p1103
S'bombing-24'
p1104
tp1105
a(g977
S'office-37'
p1106
S'the-28'
p1107
tp1108
a(g981
S'injured-30'
p1109
S'seriously-29'
p1110
tp1111
a(g985
S'office-37'
p1112
S'injured-30'
p1113
tp1114
a(g989
S'injured-30'
p1115
S'request-32'
p1116
tp1117
a(g993
S'Attorneys-36'
p1118
S'the-34'
p1119
tp1120
a(g997
S'Attorneys-36'
p1121
S'U.S.-35'
p1122
tp1123
a(g1001
S'request-32'
p1124
S'Attorneys-36'
p1125
tp1126
a(g1005
S'bombing-24'
p1127
S'office-37'
p1128
tp1129
a(g1009
S'District-41'
p1130
S'the-39'
p1131
tp1132
a(g1013
S'District-41'
p1133
S'Southern-40'
p1134
tp1135
a(g1017
S'office-37'
p1136
S'District-41'
p1137
tp1138
a(g1021
S'York-44'
p1139
S'New-43'
p1140
tp1141
a(g1025
S'District-41'
p1142
S'York-44'
p1143
tp1144
a(g1029
S'official-48'
p1145
S'a-46'
p1146
tp1147
a(g1033
S'official-48'
p1148
S'U.S.-47'
p1149
tp1150
a(g1037
S'said-49'
p1151
S'official-48'
p1152
tp1153
a(g1041
S'said-49'
p1154
S'Thursday-50'
p1155
tp1156
asg93
(lp1157
(S'NAIROBI'
p1158
(dp1159
S'NamedEntityTag'
p1160
S'LOCATION'
p1161
sS'CharacterOffsetEnd'
p1162
g963
sS'Lemma'
p1163
S'NAIROBI'
p1164
sS'PartOfSpeech'
p1165
S'NNP'
p1166
sS'CharacterOffsetBegin'
p1167
S'0'
p1168
stp1169
a(g108
(dp1170
S'NamedEntityTag'
p1171
g111
sS'CharacterOffsetEnd'
p1172
S'8'
p1173
sS'Lemma'
p1174
g108
sS'PartOfSpeech'
p1175
g108
sS'CharacterOffsetBegin'
p1176
g963
stp1177
a(S'Kenya'
p1178
(dp1179
S'NamedEntityTag'
p1180
S'LOCATION'
p1181
sS'CharacterOffsetEnd'
p1182
S'14'
p1183
sS'Lemma'
p1184
S'Kenya'
p1185
sS'PartOfSpeech'
p1186
S'NNP'
p1187
sS'CharacterOffsetBegin'
p1188
S'9'
p1189
stp1190
a(S'-LRB-'
p1191
(dp1192
S'NamedEntityTag'
p1193
g111
sS'CharacterOffsetEnd'
p1194
S'16'
p1195
sS'Lemma'
p1196
S'-lrb-'
p1197
sS'PartOfSpeech'
p1198
S'-LRB-'
p1199
sS'CharacterOffsetBegin'
p1200
S'15'
p1201
stp1202
a(S'AP'
p1203
(dp1204
S'NamedEntityTag'
p1205
S'ORGANIZATION'
p1206
sS'CharacterOffsetEnd'
p1207
S'18'
p1208
sS'Lemma'
p1209
S'AP'
p1210
sS'PartOfSpeech'
p1211
S'NNP'
p1212
sS'CharacterOffsetBegin'
p1213
S'16'
p1214
stp1215
a(S'-RRB-'
p1216
(dp1217
S'NamedEntityTag'
p1218
g111
sS'CharacterOffsetEnd'
p1219
S'19'
p1220
sS'Lemma'
p1221
S'-rrb-'
p1222
sS'PartOfSpeech'
p1223
S'-RRB-'
p1224
sS'CharacterOffsetBegin'
p1225
S'18'
p1226
stp1227
a(g915
(dp1228
S'NamedEntityTag'
p1229
S'NUMBER'
p1230
sS'CharacterOffsetEnd'
p1231
S'21'
p1232
sS'Lemma'
p1233
g915
sS'PartOfSpeech'
p1234
S'CD'
p1235
sS'CharacterOffsetBegin'
p1236
S'20'
p1237
stp1238
a(S'FBI'
p1239
(dp1240
S'NamedEntityTag'
p1241
S'ORGANIZATION'
p1242
sS'CharacterOffsetEnd'
p1243
S'25'
p1244
sS'Lemma'
p1245
S'FBI'
p1246
sS'PartOfSpeech'
p1247
S'NNP'
p1248
sS'CharacterOffsetBegin'
p1249
S'22'
p1250
stp1251
a(S'agents'
p1252
(dp1253
S'NamedEntityTag'
p1254
g111
sS'CharacterOffsetEnd'
p1255
S'32'
p1256
sS'Lemma'
p1257
S'agent'
p1258
sS'PartOfSpeech'
p1259
S'NNS'
p1260
sS'CharacterOffsetBegin'
p1261
S'26'
p1262
stp1263
a(S'this'
p1264
(dp1265
S'NormalizedNamedEntityTag'
p1266
S'THIS'
p1267
sS'Timex'
p1268
S'<TIMEX3 alt_value="THIS P1W" anchorTimeID="t0" temporalFunction="true" tid="t1" type="DATE" valueFromFunction="tf0">this week</TIMEX3>'
p1269
sS'Lemma'
p1270
S'this'
p1271
sS'CharacterOffsetEnd'
p1272
S'37'
p1273
sS'PartOfSpeech'
p1274
S'DT'
p1275
sS'CharacterOffsetBegin'
p1276
S'33'
p1277
sS'NamedEntityTag'
p1278
S'DATE'
p1279
stp1280
a(S'week'
p1281
(dp1282
S'NormalizedNamedEntityTag'
p1283
S'THIS'
p1284
sS'Timex'
p1285
S'<TIMEX3 alt_value="THIS P1W" anchorTimeID="t0" temporalFunction="true" tid="t1" type="DATE" valueFromFunction="tf0">this week</TIMEX3>'
p1286
sS'Lemma'
p1287
S'week'
p1288
sS'CharacterOffsetEnd'
p1289
S'42'
p1290
sS'PartOfSpeech'
p1291
S'NN'
p1292
sS'CharacterOffsetBegin'
p1293
S'38'
p1294
sS'NamedEntityTag'
p1295
S'DATE'
p1296
stp1297
a(S'began'
p1298
(dp1299
S'NamedEntityTag'
p1300
g111
sS'CharacterOffsetEnd'
p1301
S'48'
p1302
sS'Lemma'
p1303
S'begin'
p1304
sS'PartOfSpeech'
p1305
S'VBD'
p1306
sS'CharacterOffsetBegin'
p1307
S'43'
p1308
stp1309
a(S'questioning'
p1310
(dp1311
S'NamedEntityTag'
p1312
g111
sS'CharacterOffsetEnd'
p1313
S'60'
p1314
sS'Lemma'
p1315
S'question'
p1316
sS'PartOfSpeech'
p1317
S'VBG'
p1318
sS'CharacterOffsetBegin'
p1319
S'49'
p1320
stp1321
a(S'relatives'
p1322
(dp1323
S'NamedEntityTag'
p1324
g111
sS'CharacterOffsetEnd'
p1325
S'70'
p1326
sS'Lemma'
p1327
S'relative'
p1328
sS'PartOfSpeech'
p1329
S'NNS'
p1330
sS'CharacterOffsetBegin'
p1331
S'61'
p1332
stp1333
a(S'of'
p1334
(dp1335
S'NamedEntityTag'
p1336
g111
sS'CharacterOffsetEnd'
p1337
S'73'
p1338
sS'Lemma'
p1339
S'of'
p1340
sS'PartOfSpeech'
p1341
S'IN'
p1342
sS'CharacterOffsetBegin'
p1343
S'71'
p1344
stp1345
a(S'the'
p1346
(dp1347
S'NamedEntityTag'
p1348
g111
sS'CharacterOffsetEnd'
p1349
S'77'
p1350
sS'Lemma'
p1351
S'the'
p1352
sS'PartOfSpeech'
p1353
S'DT'
p1354
sS'CharacterOffsetBegin'
p1355
S'74'
p1356
stp1357
a(S'victims'
p1358
(dp1359
S'NamedEntityTag'
p1360
g111
sS'CharacterOffsetEnd'
p1361
S'85'
p1362
sS'Lemma'
p1363
S'victim'
p1364
sS'PartOfSpeech'
p1365
S'NNS'
p1366
sS'CharacterOffsetBegin'
p1367
S'78'
p1368
stp1369
a(S'of'
p1370
(dp1371
S'NamedEntityTag'
p1372
g111
sS'CharacterOffsetEnd'
p1373
S'88'
p1374
sS'Lemma'
p1375
S'of'
p1376
sS'PartOfSpeech'
p1377
S'IN'
p1378
sS'CharacterOffsetBegin'
p1379
S'86'
p1380
stp1381
a(S'the'
p1382
(dp1383
S'NamedEntityTag'
p1384
g111
sS'CharacterOffsetEnd'
p1385
S'92'
p1386
sS'Lemma'
p1387
S'the'
p1388
sS'PartOfSpeech'
p1389
S'DT'
p1390
sS'CharacterOffsetBegin'
p1391
S'89'
p1392
stp1393
a(S'Aug'
p1394
(dp1395
S'NormalizedNamedEntityTag'
p1396
S'XXXX-08-07'
p1397
sS'Timex'
p1398
S'<TIMEX3 tid="t2" type="DATE" value="XXXX-08-07">Aug 7</TIMEX3>'
p1399
sS'Lemma'
p1400
S'aug'
p1401
sS'CharacterOffsetEnd'
p1402
S'96'
p1403
sS'PartOfSpeech'
p1404
S'NN'
p1405
sS'CharacterOffsetBegin'
p1406
S'93'
p1407
sS'NamedEntityTag'
p1408
S'DATE'
p1409
stp1410
a(g963
(dp1411
S'NormalizedNamedEntityTag'
p1412
S'XXXX-08-07'
p1413
sS'Timex'
p1414
S'<TIMEX3 tid="t2" type="DATE" value="XXXX-08-07">Aug 7</TIMEX3>'
p1415
sS'Lemma'
p1416
g963
sS'CharacterOffsetEnd'
p1417
S'98'
p1418
sS'PartOfSpeech'
p1419
S'CD'
p1420
sS'CharacterOffsetBegin'
p1421
S'97'
p1422
sS'NamedEntityTag'
p1423
S'DATE'
p1424
stp1425
a(S'U.S.'
p1426
(dp1427
S'NamedEntityTag'
p1428
S'ORGANIZATION'
p1429
sS'CharacterOffsetEnd'
p1430
S'103'
p1431
sS'Lemma'
p1432
S'U.S.'
p1433
sS'PartOfSpeech'
p1434
S'NNP'
p1435
sS'CharacterOffsetBegin'
p1436
S'99'
p1437
stp1438
a(S'Embassy'
p1439
(dp1440
S'NamedEntityTag'
p1441
S'ORGANIZATION'
p1442
sS'CharacterOffsetEnd'
p1443
S'111'
p1444
sS'Lemma'
p1445
S'Embassy'
p1446
sS'PartOfSpeech'
p1447
S'NNP'
p1448
sS'CharacterOffsetBegin'
p1449
S'104'
p1450
stp1451
a(S'bombing'
p1452
(dp1453
S'NamedEntityTag'
p1454
g111
sS'CharacterOffsetEnd'
p1455
S'119'
p1456
sS'Lemma'
p1457
S'bombing'
p1458
sS'PartOfSpeech'
p1459
S'NN'
p1460
sS'CharacterOffsetBegin'
p1461
S'112'
p1462
stp1463
a(S'as'
p1464
(dp1465
S'NamedEntityTag'
p1466
g111
sS'CharacterOffsetEnd'
p1467
S'122'
p1468
sS'Lemma'
p1469
S'as'
p1470
sS'PartOfSpeech'
p1471
S'RB'
p1472
sS'CharacterOffsetBegin'
p1473
S'120'
p1474
stp1475
a(S'well'
p1476
(dp1477
S'NamedEntityTag'
p1478
g111
sS'CharacterOffsetEnd'
p1479
S'127'
p1480
sS'Lemma'
p1481
S'well'
p1482
sS'PartOfSpeech'
p1483
S'RB'
p1484
sS'CharacterOffsetBegin'
p1485
S'123'
p1486
stp1487
a(S'as'
p1488
(dp1489
S'NamedEntityTag'
p1490
g111
sS'CharacterOffsetEnd'
p1491
S'130'
p1492
sS'Lemma'
p1493
S'as'
p1494
sS'PartOfSpeech'
p1495
S'IN'
p1496
sS'CharacterOffsetBegin'
p1497
S'128'
p1498
stp1499
a(S'the'
p1500
(dp1501
S'NamedEntityTag'
p1502
g111
sS'CharacterOffsetEnd'
p1503
S'134'
p1504
sS'Lemma'
p1505
S'the'
p1506
sS'PartOfSpeech'
p1507
S'DT'
p1508
sS'CharacterOffsetBegin'
p1509
S'131'
p1510
stp1511
a(S'seriously'
p1512
(dp1513
S'NamedEntityTag'
p1514
g111
sS'CharacterOffsetEnd'
p1515
S'144'
p1516
sS'Lemma'
p1517
S'seriously'
p1518
sS'PartOfSpeech'
p1519
S'RB'
p1520
sS'CharacterOffsetBegin'
p1521
S'135'
p1522
stp1523
a(S'injured'
p1524
(dp1525
S'NamedEntityTag'
p1526
g111
sS'CharacterOffsetEnd'
p1527
S'152'
p1528
sS'Lemma'
p1529
S'injure'
p1530
sS'PartOfSpeech'
p1531
S'VBN'
p1532
sS'CharacterOffsetBegin'
p1533
S'145'
p1534
stp1535
a(S'on'
p1536
(dp1537
S'NamedEntityTag'
p1538
g111
sS'CharacterOffsetEnd'
p1539
S'155'
p1540
sS'Lemma'
p1541
S'on'
p1542
sS'PartOfSpeech'
p1543
S'IN'
p1544
sS'CharacterOffsetBegin'
p1545
S'153'
p1546
stp1547
a(S'request'
p1548
(dp1549
S'NamedEntityTag'
p1550
g111
sS'CharacterOffsetEnd'
p1551
S'163'
p1552
sS'Lemma'
p1553
S'request'
p1554
sS'PartOfSpeech'
p1555
S'NN'
p1556
sS'CharacterOffsetBegin'
p1557
S'156'
p1558
stp1559
a(S'of'
p1560
(dp1561
S'NamedEntityTag'
p1562
g111
sS'CharacterOffsetEnd'
p1563
S'166'
p1564
sS'Lemma'
p1565
S'of'
p1566
sS'PartOfSpeech'
p1567
S'IN'
p1568
sS'CharacterOffsetBegin'
p1569
S'164'
p1570
stp1571
a(S'the'
p1572
(dp1573
S'NamedEntityTag'
p1574
g111
sS'CharacterOffsetEnd'
p1575
S'170'
p1576
sS'Lemma'
p1577
S'the'
p1578
sS'PartOfSpeech'
p1579
S'DT'
p1580
sS'CharacterOffsetBegin'
p1581
S'167'
p1582
stp1583
a(S'U.S.'
p1584
(dp1585
S'NamedEntityTag'
p1586
S'LOCATION'
p1587
sS'CharacterOffsetEnd'
p1588
S'175'
p1589
sS'Lemma'
p1590
S'U.S.'
p1591
sS'PartOfSpeech'
p1592
S'NNP'
p1593
sS'CharacterOffsetBegin'
p1594
S'171'
p1595
stp1596
a(S'Attorneys'
p1597
(dp1598
S'NamedEntityTag'
p1599
g111
sS'CharacterOffsetEnd'
p1600
S'185'
p1601
sS'Lemma'
p1602
S'Attorneys'
p1603
sS'PartOfSpeech'
p1604
S'NNP'
p1605
sS'CharacterOffsetBegin'
p1606
S'176'
p1607
stp1608
a(S'office'
p1609
(dp1610
S'NamedEntityTag'
p1611
g111
sS'CharacterOffsetEnd'
p1612
S'192'
p1613
sS'Lemma'
p1614
S'office'
p1615
sS'PartOfSpeech'
p1616
S'NN'
p1617
sS'CharacterOffsetBegin'
p1618
S'186'
p1619
stp1620
a(S'for'
p1621
(dp1622
S'NamedEntityTag'
p1623
g111
sS'CharacterOffsetEnd'
p1624
S'196'
p1625
sS'Lemma'
p1626
S'for'
p1627
sS'PartOfSpeech'
p1628
S'IN'
p1629
sS'CharacterOffsetBegin'
p1630
S'193'
p1631
stp1632
a(S'the'
p1633
(dp1634
S'NamedEntityTag'
p1635
g111
sS'CharacterOffsetEnd'
p1636
S'200'
p1637
sS'Lemma'
p1638
S'the'
p1639
sS'PartOfSpeech'
p1640
S'DT'
p1641
sS'CharacterOffsetBegin'
p1642
S'197'
p1643
stp1644
a(S'Southern'
p1645
(dp1646
S'NamedEntityTag'
p1647
S'ORGANIZATION'
p1648
sS'CharacterOffsetEnd'
p1649
S'209'
p1650
sS'Lemma'
p1651
S'Southern'
p1652
sS'PartOfSpeech'
p1653
S'NNP'
p1654
sS'CharacterOffsetBegin'
p1655
S'201'
p1656
stp1657
a(S'District'
p1658
(dp1659
S'NamedEntityTag'
p1660
S'ORGANIZATION'
p1661
sS'CharacterOffsetEnd'
p1662
S'218'
p1663
sS'Lemma'
p1664
S'District'
p1665
sS'PartOfSpeech'
p1666
S'NNP'
p1667
sS'CharacterOffsetBegin'
p1668
S'210'
p1669
stp1670
a(S'of'
p1671
(dp1672
S'NamedEntityTag'
p1673
S'ORGANIZATION'
p1674
sS'CharacterOffsetEnd'
p1675
S'221'
p1676
sS'Lemma'
p1677
S'of'
p1678
sS'PartOfSpeech'
p1679
S'IN'
p1680
sS'CharacterOffsetBegin'
p1681
S'219'
p1682
stp1683
a(S'New'
p1684
(dp1685
S'NamedEntityTag'
p1686
S'ORGANIZATION'
p1687
sS'CharacterOffsetEnd'
p1688
S'225'
p1689
sS'Lemma'
p1690
S'New'
p1691
sS'PartOfSpeech'
p1692
S'NNP'
p1693
sS'CharacterOffsetBegin'
p1694
S'222'
p1695
stp1696
a(S'York'
p1697
(dp1698
S'NamedEntityTag'
p1699
S'ORGANIZATION'
p1700
sS'CharacterOffsetEnd'
p1701
S'230'
p1702
sS'Lemma'
p1703
S'York'
p1704
sS'PartOfSpeech'
p1705
S'NNP'
p1706
sS'CharacterOffsetBegin'
p1707
S'226'
p1708
stp1709
a(g108
(dp1710
S'NamedEntityTag'
p1711
g111
sS'CharacterOffsetEnd'
p1712
S'231'
p1713
sS'Lemma'
p1714
g108
sS'PartOfSpeech'
p1715
g108
sS'CharacterOffsetBegin'
p1716
S'230'
p1717
stp1718
a(g1031
(dp1719
S'NamedEntityTag'
p1720
g111
sS'CharacterOffsetEnd'
p1721
S'233'
p1722
sS'Lemma'
p1723
g1031
sS'PartOfSpeech'
p1724
S'DT'
p1725
sS'CharacterOffsetBegin'
p1726
S'232'
p1727
stp1728
a(S'U.S.'
p1729
(dp1730
S'NamedEntityTag'
p1731
S'LOCATION'
p1732
sS'CharacterOffsetEnd'
p1733
S'238'
p1734
sS'Lemma'
p1735
S'U.S.'
p1736
sS'PartOfSpeech'
p1737
S'NNP'
p1738
sS'CharacterOffsetBegin'
p1739
S'234'
p1740
stp1741
a(S'official'
p1742
(dp1743
S'NamedEntityTag'
p1744
g111
sS'CharacterOffsetEnd'
p1745
S'247'
p1746
sS'Lemma'
p1747
S'official'
p1748
sS'PartOfSpeech'
p1749
S'NN'
p1750
sS'CharacterOffsetBegin'
p1751
S'239'
p1752
stp1753
a(S'said'
p1754
(dp1755
S'NamedEntityTag'
p1756
g111
sS'CharacterOffsetEnd'
p1757
S'252'
p1758
sS'Lemma'
p1759
S'say'
p1760
sS'PartOfSpeech'
p1761
S'VBD'
p1762
sS'CharacterOffsetBegin'
p1763
S'248'
p1764
stp1765
a(S'Thursday'
p1766
(dp1767
S'NormalizedNamedEntityTag'
p1768
S'XXXX-WXX-4'
p1769
sS'Timex'
p1770
S'<TIMEX3 tid="t3" type="DATE" value="XXXX-WXX-4">Thursday</TIMEX3>'
p1771
sS'Lemma'
p1772
S'Thursday'
p1773
sS'CharacterOffsetEnd'
p1774
S'261'
p1775
sS'PartOfSpeech'
p1776
S'NNP'
p1777
sS'CharacterOffsetBegin'
p1778
S'253'
p1779
sS'NamedEntityTag'
p1780
S'DATE'
p1781
stp1782
a(g648
(dp1783
S'NamedEntityTag'
p1784
g111
sS'CharacterOffsetEnd'
p1785
S'262'
p1786
sS'Lemma'
p1787
g648
sS'PartOfSpeech'
p1788
g648
sS'CharacterOffsetBegin'
p1789
S'261'
p1790
stp1791
asa(dp1792
g15
S'(ROOT (S (NP (NP (DT The) (NN blast)) (PP (IN at) (NP (NP (DT the) (NN embassy) (NN building)) (PP (IN in) (NP (NN downtown) (NNP Nairobi)))))) (VP (VBD killed) (NP (NP (CD 213) (NNS people)) (, ,) (NP (NP (NP (CD 12)) (PP (IN of) (NP (PRP them)))) (NP (NNPS Americans))) (, ,) (CC and) (NP (JJ injured) (CD 5,400)))) (. .)))'
p1793
sg17
S'The blast at the embassy building in downtown Nairobi killed 213 people, 12 of them Americans, and injured 5,400.'
p1794
sg19
(lp1795
(S'root'
p1796
S'ROOT'
p1797
S'killed'
p1798
tp1799
a(S'det'
p1800
S'blast'
p1801
S'The'
p1802
tp1803
a(S'nsubj'
p1804
S'killed'
p1805
S'blast'
p1806
tp1807
a(S'det'
p1808
S'building'
p1809
S'the'
p1810
tp1811
a(S'nn'
p1812
S'building'
p1813
S'embassy'
p1814
tp1815
a(S'prep_at'
p1816
S'blast'
p1817
S'building'
p1818
tp1819
a(S'nn'
p1820
S'Nairobi'
p1821
S'downtown'
p1822
tp1823
a(S'prep_in'
p1824
S'building'
p1825
S'Nairobi'
p1826
tp1827
a(S'num'
p1828
S'people'
p1829
S'213'
p1830
tp1831
a(S'dobj'
p1832
S'killed'
p1833
S'people'
p1834
tp1835
a(S'conj_and'
p1836
S'people'
p1837
S'12'
p1838
tp1839
a(S'prep_of'
p1840
S'12'
p1841
S'them'
p1842
tp1843
a(S'dep'
p1844
S'12'
p1845
S'Americans'
p1846
tp1847
a(S'amod'
p1848
S'5,400'
p1849
S'injured'
p1850
tp1851
a(S'conj_and'
p1852
S'people'
p1853
S'5,400'
p1854
tp1855
asg61
(lp1856
(g1796
S'ROOT-0'
p1857
S'killed-10'
p1858
tp1859
a(g1800
S'blast-2'
p1860
S'The-1'
p1861
tp1862
a(g1804
S'killed-10'
p1863
S'blast-2'
p1864
tp1865
a(g1808
S'building-6'
p1866
S'the-4'
p1867
tp1868
a(g1812
S'building-6'
p1869
S'embassy-5'
p1870
tp1871
a(g1816
S'blast-2'
p1872
S'building-6'
p1873
tp1874
a(g1820
S'Nairobi-9'
p1875
S'downtown-8'
p1876
tp1877
a(g1824
S'building-6'
p1878
S'Nairobi-9'
p1879
tp1880
a(g1828
S'people-12'
p1881
S'213-11'
p1882
tp1883
a(g1832
S'killed-10'
p1884
S'people-12'
p1885
tp1886
a(g1836
S'people-12'
p1887
S'12-14'
p1888
tp1889
a(g1840
S'12-14'
p1890
S'them-16'
p1891
tp1892
a(g1844
S'12-14'
p1893
S'Americans-17'
p1894
tp1895
a(g1848
S'5,400-21'
p1896
S'injured-20'
p1897
tp1898
a(g1852
S'people-12'
p1899
S'5,400-21'
p1900
tp1901
asg93
(lp1902
(S'The'
p1903
(dp1904
S'NamedEntityTag'
p1905
g111
sS'CharacterOffsetEnd'
p1906
S'266'
p1907
sS'Lemma'
p1908
S'the'
p1909
sS'PartOfSpeech'
p1910
S'DT'
p1911
sS'CharacterOffsetBegin'
p1912
S'263'
p1913
stp1914
a(S'blast'
p1915
(dp1916
S'NamedEntityTag'
p1917
g111
sS'CharacterOffsetEnd'
p1918
S'272'
p1919
sS'Lemma'
p1920
S'blast'
p1921
sS'PartOfSpeech'
p1922
S'NN'
p1923
sS'CharacterOffsetBegin'
p1924
S'267'
p1925
stp1926
a(S'at'
p1927
(dp1928
S'NamedEntityTag'
p1929
g111
sS'CharacterOffsetEnd'
p1930
S'275'
p1931
sS'Lemma'
p1932
S'at'
p1933
sS'PartOfSpeech'
p1934
S'IN'
p1935
sS'CharacterOffsetBegin'
p1936
S'273'
p1937
stp1938
a(S'the'
p1939
(dp1940
S'NamedEntityTag'
p1941
g111
sS'CharacterOffsetEnd'
p1942
S'279'
p1943
sS'Lemma'
p1944
S'the'
p1945
sS'PartOfSpeech'
p1946
S'DT'
p1947
sS'CharacterOffsetBegin'
p1948
S'276'
p1949
stp1950
a(S'embassy'
p1951
(dp1952
S'NamedEntityTag'
p1953
g111
sS'CharacterOffsetEnd'
p1954
S'287'
p1955
sS'Lemma'
p1956
S'embassy'
p1957
sS'PartOfSpeech'
p1958
S'NN'
p1959
sS'CharacterOffsetBegin'
p1960
S'280'
p1961
stp1962
a(S'building'
p1963
(dp1964
S'NamedEntityTag'
p1965
g111
sS'CharacterOffsetEnd'
p1966
S'296'
p1967
sS'Lemma'
p1968
S'building'
p1969
sS'PartOfSpeech'
p1970
S'NN'
p1971
sS'CharacterOffsetBegin'
p1972
S'288'
p1973
stp1974
a(S'in'
p1975
(dp1976
S'NamedEntityTag'
p1977
g111
sS'CharacterOffsetEnd'
p1978
S'299'
p1979
sS'Lemma'
p1980
S'in'
p1981
sS'PartOfSpeech'
p1982
S'IN'
p1983
sS'CharacterOffsetBegin'
p1984
S'297'
p1985
stp1986
a(S'downtown'
p1987
(dp1988
S'NamedEntityTag'
p1989
g111
sS'CharacterOffsetEnd'
p1990
S'308'
p1991
sS'Lemma'
p1992
S'downtown'
p1993
sS'PartOfSpeech'
p1994
S'NN'
p1995
sS'CharacterOffsetBegin'
p1996
S'300'
p1997
stp1998
a(S'Nairobi'
p1999
(dp2000
S'NamedEntityTag'
p2001
S'LOCATION'
p2002
sS'CharacterOffsetEnd'
p2003
S'316'
p2004
sS'Lemma'
p2005
S'Nairobi'
p2006
sS'PartOfSpeech'
p2007
S'NNP'
p2008
sS'CharacterOffsetBegin'
p2009
S'309'
p2010
stp2011
a(S'killed'
p2012
(dp2013
S'NamedEntityTag'
p2014
g111
sS'CharacterOffsetEnd'
p2015
S'323'
p2016
sS'Lemma'
p2017
S'kill'
p2018
sS'PartOfSpeech'
p2019
S'VBD'
p2020
sS'CharacterOffsetBegin'
p2021
S'317'
p2022
stp2023
a(S'213'
p2024
(dp2025
S'NormalizedNamedEntityTag'
p2026
S'213.0'
p2027
sS'Lemma'
p2028
S'213'
p2029
sS'CharacterOffsetEnd'
p2030
S'327'
p2031
sS'PartOfSpeech'
p2032
S'CD'
p2033
sS'CharacterOffsetBegin'
p2034
S'324'
p2035
sS'NamedEntityTag'
p2036
S'NUMBER'
p2037
stp2038
a(S'people'
p2039
(dp2040
S'NamedEntityTag'
p2041
g111
sS'CharacterOffsetEnd'
p2042
S'334'
p2043
sS'Lemma'
p2044
S'people'
p2045
sS'PartOfSpeech'
p2046
S'NNS'
p2047
sS'CharacterOffsetBegin'
p2048
S'328'
p2049
stp2050
a(g108
(dp2051
S'NamedEntityTag'
p2052
g111
sS'CharacterOffsetEnd'
p2053
S'335'
p2054
sS'Lemma'
p2055
g108
sS'PartOfSpeech'
p2056
g108
sS'CharacterOffsetBegin'
p2057
S'334'
p2058
stp2059
a(S'12'
p2060
(dp2061
S'NormalizedNamedEntityTag'
p2062
S'12.0'
p2063
sS'Lemma'
p2064
S'12'
p2065
sS'CharacterOffsetEnd'
p2066
S'338'
p2067
sS'PartOfSpeech'
p2068
S'CD'
p2069
sS'CharacterOffsetBegin'
p2070
S'336'
p2071
sS'NamedEntityTag'
p2072
S'NUMBER'
p2073
stp2074
a(S'of'
p2075
(dp2076
S'NamedEntityTag'
p2077
g111
sS'CharacterOffsetEnd'
p2078
S'341'
p2079
sS'Lemma'
p2080
S'of'
p2081
sS'PartOfSpeech'
p2082
S'IN'
p2083
sS'CharacterOffsetBegin'
p2084
S'339'
p2085
stp2086
a(S'them'
p2087
(dp2088
S'NamedEntityTag'
p2089
g111
sS'CharacterOffsetEnd'
p2090
S'346'
p2091
sS'Lemma'
p2092
S'they'
p2093
sS'PartOfSpeech'
p2094
S'PRP'
p2095
sS'CharacterOffsetBegin'
p2096
S'342'
p2097
stp2098
a(S'Americans'
p2099
(dp2100
S'NamedEntityTag'
p2101
S'MISC'
p2102
sS'CharacterOffsetEnd'
p2103
S'356'
p2104
sS'Lemma'
p2105
S'Americans'
p2106
sS'PartOfSpeech'
p2107
S'NNPS'
p2108
sS'CharacterOffsetBegin'
p2109
S'347'
p2110
stp2111
a(g108
(dp2112
S'NamedEntityTag'
p2113
g111
sS'CharacterOffsetEnd'
p2114
S'357'
p2115
sS'Lemma'
p2116
g108
sS'PartOfSpeech'
p2117
g108
sS'CharacterOffsetBegin'
p2118
S'356'
p2119
stp2120
a(S'and'
p2121
(dp2122
S'NamedEntityTag'
p2123
g111
sS'CharacterOffsetEnd'
p2124
S'361'
p2125
sS'Lemma'
p2126
S'and'
p2127
sS'PartOfSpeech'
p2128
S'CC'
p2129
sS'CharacterOffsetBegin'
p2130
S'358'
p2131
stp2132
a(S'injured'
p2133
(dp2134
S'NamedEntityTag'
p2135
g111
sS'CharacterOffsetEnd'
p2136
S'369'
p2137
sS'Lemma'
p2138
S'injured'
p2139
sS'PartOfSpeech'
p2140
S'JJ'
p2141
sS'CharacterOffsetBegin'
p2142
S'362'
p2143
stp2144
a(S'5,400'
p2145
(dp2146
S'NormalizedNamedEntityTag'
p2147
S'5400.0'
p2148
sS'Lemma'
p2149
S'5,400'
p2150
sS'CharacterOffsetEnd'
p2151
S'375'
p2152
sS'PartOfSpeech'
p2153
S'CD'
p2154
sS'CharacterOffsetBegin'
p2155
S'370'
p2156
sS'NamedEntityTag'
p2157
S'NUMBER'
p2158
stp2159
a(g648
(dp2160
S'NamedEntityTag'
p2161
g111
sS'CharacterOffsetEnd'
p2162
S'376'
p2163
sS'Lemma'
p2164
g648
sS'PartOfSpeech'
p2165
g648
sS'CharacterOffsetBegin'
p2166
S'375'
p2167
stp2168
asa(dp2169
g15
S'(ROOT (S (S (SBAR (IN In) (S (NP (NP (DT an) (RB nearly) (JJ simultaneous) (NN bombing)) (PP (IN of) (NP (NP (DT the) (NNP U.S.) (NNP Embassy)) (PP (IN in) (NP (NNP Dar)))))) (VP (VBZ es) (NP (NP (FW Salaam)) (PP (IN in) (NP (VBG neighboring) (NNP Tanzania))))))) (, ,) (NP (CD 11) (NNS people)) (VP (VBD were) (VP (VBN killed)))) (CC and) (S (NP (CD 85)) (VP (VBD were) (VP (VBN injured)))) (, ,) (S (NP (NP (NN none)) (PP (IN of) (NP (PRP them)))) (NP (NNPS Americans))) (. .)))'
p2170
sg17
S'In an nearly simultaneous bombing of the U.S. Embassy in Dar es Salaam in neighboring Tanzania, 11 people were killed and 85 were injured, none of them Americans.'
p2171
sg19
(lp2172
(S'root'
p2173
S'ROOT'
p2174
S'killed'
p2175
tp2176
a(S'mark'
p2177
S'es'
p2178
S'In'
p2179
tp2180
a(S'det'
p2181
S'bombing'
p2182
S'an'
p2183
tp2184
a(S'advmod'
p2185
S'bombing'
p2186
S'nearly'
p2187
tp2188
a(S'amod'
p2189
S'bombing'
p2190
S'simultaneous'
p2191
tp2192
a(S'nsubj'
p2193
S'es'
p2194
S'bombing'
p2195
tp2196
a(S'det'
p2197
S'Embassy'
p2198
S'the'
p2199
tp2200
a(S'nn'
p2201
S'Embassy'
p2202
S'U.S.'
p2203
tp2204
a(S'prep_of'
p2205
S'bombing'
p2206
S'Embassy'
p2207
tp2208
a(S'prep_in'
p2209
S'Embassy'
p2210
S'Dar'
p2211
tp2212
a(S'advcl'
p2213
S'killed'
p2214
S'es'
p2215
tp2216
a(S'dobj'
p2217
S'es'
p2218
S'Salaam'
p2219
tp2220
a(S'amod'
p2221
S'Tanzania'
p2222
S'neighboring'
p2223
tp2224
a(S'prep_in'
p2225
S'Salaam'
p2226
S'Tanzania'
p2227
tp2228
a(S'num'
p2229
S'people'
p2230
S'11'
p2231
tp2232
a(S'nsubjpass'
p2233
S'killed'
p2234
S'people'
p2235
tp2236
a(S'auxpass'
p2237
S'killed'
p2238
S'were'
p2239
tp2240
a(S'nsubjpass'
p2241
S'injured'
p2242
S'85'
p2243
tp2244
a(S'auxpass'
p2245
S'injured'
p2246
S'were'
p2247
tp2248
a(S'conj_and'
p2249
S'killed'
p2250
S'injured'
p2251
tp2252
a(S'dep'
p2253
S'Americans'
p2254
S'none'
p2255
tp2256
a(S'prep_of'
p2257
S'none'
p2258
S'them'
p2259
tp2260
a(S'ccomp'
p2261
S'killed'
p2262
S'Americans'
p2263
tp2264
asg61
(lp2265
(g2173
S'ROOT-0'
p2266
S'killed-21'
p2267
tp2268
a(g2177
S'es-12'
p2269
S'In-1'
p2270
tp2271
a(g2181
S'bombing-5'
p2272
S'an-2'
p2273
tp2274
a(g2185
S'bombing-5'
p2275
S'nearly-3'
p2276
tp2277
a(g2189
S'bombing-5'
p2278
S'simultaneous-4'
p2279
tp2280
a(g2193
S'es-12'
p2281
S'bombing-5'
p2282
tp2283
a(g2197
S'Embassy-9'
p2284
S'the-7'
p2285
tp2286
a(g2201
S'Embassy-9'
p2287
S'U.S.-8'
p2288
tp2289
a(g2205
S'bombing-5'
p2290
S'Embassy-9'
p2291
tp2292
a(g2209
S'Embassy-9'
p2293
S'Dar-11'
p2294
tp2295
a(g2213
S'killed-21'
p2296
S'es-12'
p2297
tp2298
a(g2217
S'es-12'
p2299
S'Salaam-13'
p2300
tp2301
a(g2221
S'Tanzania-16'
p2302
S'neighboring-15'
p2303
tp2304
a(g2225
S'Salaam-13'
p2305
S'Tanzania-16'
p2306
tp2307
a(g2229
S'people-19'
p2308
S'11-18'
p2309
tp2310
a(g2233
S'killed-21'
p2311
S'people-19'
p2312
tp2313
a(g2237
S'killed-21'
p2314
S'were-20'
p2315
tp2316
a(g2241
S'injured-25'
p2317
S'85-23'
p2318
tp2319
a(g2245
S'injured-25'
p2320
S'were-24'
p2321
tp2322
a(g2249
S'killed-21'
p2323
S'injured-25'
p2324
tp2325
a(g2253
S'Americans-30'
p2326
S'none-27'
p2327
tp2328
a(g2257
S'none-27'
p2329
S'them-29'
p2330
tp2331
a(g2261
S'killed-21'
p2332
S'Americans-30'
p2333
tp2334
asg93
(lp2335
(S'In'
p2336
(dp2337
S'NamedEntityTag'
p2338
g111
sS'CharacterOffsetEnd'
p2339
S'379'
p2340
sS'Lemma'
p2341
S'in'
p2342
sS'PartOfSpeech'
p2343
S'IN'
p2344
sS'CharacterOffsetBegin'
p2345
S'377'
p2346
stp2347
a(S'an'
p2348
(dp2349
S'NamedEntityTag'
p2350
g111
sS'CharacterOffsetEnd'
p2351
S'382'
p2352
sS'Lemma'
p2353
g1031
sS'PartOfSpeech'
p2354
S'DT'
p2355
sS'CharacterOffsetBegin'
p2356
S'380'
p2357
stp2358
a(S'nearly'
p2359
(dp2360
S'NamedEntityTag'
p2361
g111
sS'CharacterOffsetEnd'
p2362
S'389'
p2363
sS'Lemma'
p2364
S'nearly'
p2365
sS'PartOfSpeech'
p2366
S'RB'
p2367
sS'CharacterOffsetBegin'
p2368
S'383'
p2369
stp2370
a(S'simultaneous'
p2371
(dp2372
S'NamedEntityTag'
p2373
g111
sS'CharacterOffsetEnd'
p2374
S'402'
p2375
sS'Lemma'
p2376
S'simultaneous'
p2377
sS'PartOfSpeech'
p2378
S'JJ'
p2379
sS'CharacterOffsetBegin'
p2380
S'390'
p2381
stp2382
a(S'bombing'
p2383
(dp2384
S'NamedEntityTag'
p2385
g111
sS'CharacterOffsetEnd'
p2386
S'410'
p2387
sS'Lemma'
p2388
S'bombing'
p2389
sS'PartOfSpeech'
p2390
S'NN'
p2391
sS'CharacterOffsetBegin'
p2392
S'403'
p2393
stp2394
a(S'of'
p2395
(dp2396
S'NamedEntityTag'
p2397
g111
sS'CharacterOffsetEnd'
p2398
S'413'
p2399
sS'Lemma'
p2400
S'of'
p2401
sS'PartOfSpeech'
p2402
S'IN'
p2403
sS'CharacterOffsetBegin'
p2404
S'411'
p2405
stp2406
a(S'the'
p2407
(dp2408
S'NamedEntityTag'
p2409
g111
sS'CharacterOffsetEnd'
p2410
S'417'
p2411
sS'Lemma'
p2412
S'the'
p2413
sS'PartOfSpeech'
p2414
S'DT'
p2415
sS'CharacterOffsetBegin'
p2416
S'414'
p2417
stp2418
a(S'U.S.'
p2419
(dp2420
S'NamedEntityTag'
p2421
S'ORGANIZATION'
p2422
sS'CharacterOffsetEnd'
p2423
S'422'
p2424
sS'Lemma'
p2425
S'U.S.'
p2426
sS'PartOfSpeech'
p2427
S'NNP'
p2428
sS'CharacterOffsetBegin'
p2429
S'418'
p2430
stp2431
a(S'Embassy'
p2432
(dp2433
S'NamedEntityTag'
p2434
S'ORGANIZATION'
p2435
sS'CharacterOffsetEnd'
p2436
S'430'
p2437
sS'Lemma'
p2438
S'Embassy'
p2439
sS'PartOfSpeech'
p2440
S'NNP'
p2441
sS'CharacterOffsetBegin'
p2442
S'423'
p2443
stp2444
a(S'in'
p2445
(dp2446
S'NamedEntityTag'
p2447
g111
sS'CharacterOffsetEnd'
p2448
S'433'
p2449
sS'Lemma'
p2450
S'in'
p2451
sS'PartOfSpeech'
p2452
S'IN'
p2453
sS'CharacterOffsetBegin'
p2454
S'431'
p2455
stp2456
a(S'Dar'
p2457
(dp2458
S'NamedEntityTag'
p2459
S'LOCATION'
p2460
sS'CharacterOffsetEnd'
p2461
S'437'
p2462
sS'Lemma'
p2463
S'Dar'
p2464
sS'PartOfSpeech'
p2465
S'NNP'
p2466
sS'CharacterOffsetBegin'
p2467
S'434'
p2468
stp2469
a(S'es'
p2470
(dp2471
S'NamedEntityTag'
p2472
S'LOCATION'
p2473
sS'CharacterOffsetEnd'
p2474
S'440'
p2475
sS'Lemma'
p2476
S'e'
p2477
sS'PartOfSpeech'
p2478
S'VBZ'
p2479
sS'CharacterOffsetBegin'
p2480
S'438'
p2481
stp2482
a(S'Salaam'
p2483
(dp2484
S'NamedEntityTag'
p2485
S'LOCATION'
p2486
sS'CharacterOffsetEnd'
p2487
S'447'
p2488
sS'Lemma'
p2489
S'salaam'
p2490
sS'PartOfSpeech'
p2491
S'FW'
p2492
sS'CharacterOffsetBegin'
p2493
S'441'
p2494
stp2495
a(S'in'
p2496
(dp2497
S'NamedEntityTag'
p2498
g111
sS'CharacterOffsetEnd'
p2499
S'450'
p2500
sS'Lemma'
p2501
S'in'
p2502
sS'PartOfSpeech'
p2503
S'IN'
p2504
sS'CharacterOffsetBegin'
p2505
S'448'
p2506
stp2507
a(S'neighboring'
p2508
(dp2509
S'NamedEntityTag'
p2510
g111
sS'CharacterOffsetEnd'
p2511
S'462'
p2512
sS'Lemma'
p2513
S'neighbor'
p2514
sS'PartOfSpeech'
p2515
S'VBG'
p2516
sS'CharacterOffsetBegin'
p2517
S'451'
p2518
stp2519
a(S'Tanzania'
p2520
(dp2521
S'NamedEntityTag'
p2522
S'LOCATION'
p2523
sS'CharacterOffsetEnd'
p2524
S'471'
p2525
sS'Lemma'
p2526
S'Tanzania'
p2527
sS'PartOfSpeech'
p2528
S'NNP'
p2529
sS'CharacterOffsetBegin'
p2530
S'463'
p2531
stp2532
a(g108
(dp2533
S'NamedEntityTag'
p2534
g111
sS'CharacterOffsetEnd'
p2535
S'472'
p2536
sS'Lemma'
p2537
g108
sS'PartOfSpeech'
p2538
g108
sS'CharacterOffsetBegin'
p2539
S'471'
p2540
stp2541
a(S'11'
p2542
(dp2543
S'NormalizedNamedEntityTag'
p2544
S'11.0'
p2545
sS'Lemma'
p2546
S'11'
p2547
sS'CharacterOffsetEnd'
p2548
S'475'
p2549
sS'PartOfSpeech'
p2550
S'CD'
p2551
sS'CharacterOffsetBegin'
p2552
S'473'
p2553
sS'NamedEntityTag'
p2554
S'NUMBER'
p2555
stp2556
a(S'people'
p2557
(dp2558
S'NamedEntityTag'
p2559
g111
sS'CharacterOffsetEnd'
p2560
S'482'
p2561
sS'Lemma'
p2562
S'people'
p2563
sS'PartOfSpeech'
p2564
S'NNS'
p2565
sS'CharacterOffsetBegin'
p2566
S'476'
p2567
stp2568
a(S'were'
p2569
(dp2570
S'NamedEntityTag'
p2571
g111
sS'CharacterOffsetEnd'
p2572
S'487'
p2573
sS'Lemma'
p2574
S'be'
p2575
sS'PartOfSpeech'
p2576
S'VBD'
p2577
sS'CharacterOffsetBegin'
p2578
S'483'
p2579
stp2580
a(S'killed'
p2581
(dp2582
S'NamedEntityTag'
p2583
g111
sS'CharacterOffsetEnd'
p2584
S'494'
p2585
sS'Lemma'
p2586
S'kill'
p2587
sS'PartOfSpeech'
p2588
S'VBN'
p2589
sS'CharacterOffsetBegin'
p2590
S'488'
p2591
stp2592
a(S'and'
p2593
(dp2594
S'NamedEntityTag'
p2595
g111
sS'CharacterOffsetEnd'
p2596
S'498'
p2597
sS'Lemma'
p2598
S'and'
p2599
sS'PartOfSpeech'
p2600
S'CC'
p2601
sS'CharacterOffsetBegin'
p2602
S'495'
p2603
stp2604
a(S'85'
p2605
(dp2606
S'NormalizedNamedEntityTag'
p2607
S'85.0'
p2608
sS'Lemma'
p2609
S'85'
p2610
sS'CharacterOffsetEnd'
p2611
S'501'
p2612
sS'PartOfSpeech'
p2613
S'CD'
p2614
sS'CharacterOffsetBegin'
p2615
S'499'
p2616
sS'NamedEntityTag'
p2617
S'NUMBER'
p2618
stp2619
a(S'were'
p2620
(dp2621
S'NamedEntityTag'
p2622
g111
sS'CharacterOffsetEnd'
p2623
S'506'
p2624
sS'Lemma'
p2625
S'be'
p2626
sS'PartOfSpeech'
p2627
S'VBD'
p2628
sS'CharacterOffsetBegin'
p2629
S'502'
p2630
stp2631
a(S'injured'
p2632
(dp2633
S'NamedEntityTag'
p2634
g111
sS'CharacterOffsetEnd'
p2635
S'514'
p2636
sS'Lemma'
p2637
S'injure'
p2638
sS'PartOfSpeech'
p2639
S'VBN'
p2640
sS'CharacterOffsetBegin'
p2641
S'507'
p2642
stp2643
a(g108
(dp2644
S'NamedEntityTag'
p2645
g111
sS'CharacterOffsetEnd'
p2646
S'515'
p2647
sS'Lemma'
p2648
g108
sS'PartOfSpeech'
p2649
g108
sS'CharacterOffsetBegin'
p2650
S'514'
p2651
stp2652
a(S'none'
p2653
(dp2654
S'NamedEntityTag'
p2655
g111
sS'CharacterOffsetEnd'
p2656
S'520'
p2657
sS'Lemma'
p2658
S'none'
p2659
sS'PartOfSpeech'
p2660
S'NN'
p2661
sS'CharacterOffsetBegin'
p2662
S'516'
p2663
stp2664
a(S'of'
p2665
(dp2666
S'NamedEntityTag'
p2667
g111
sS'CharacterOffsetEnd'
p2668
S'523'
p2669
sS'Lemma'
p2670
S'of'
p2671
sS'PartOfSpeech'
p2672
S'IN'
p2673
sS'CharacterOffsetBegin'
p2674
S'521'
p2675
stp2676
a(S'them'
p2677
(dp2678
S'NamedEntityTag'
p2679
g111
sS'CharacterOffsetEnd'
p2680
S'528'
p2681
sS'Lemma'
p2682
S'they'
p2683
sS'PartOfSpeech'
p2684
S'PRP'
p2685
sS'CharacterOffsetBegin'
p2686
S'524'
p2687
stp2688
a(S'Americans'
p2689
(dp2690
S'NamedEntityTag'
p2691
S'MISC'
p2692
sS'CharacterOffsetEnd'
p2693
S'538'
p2694
sS'Lemma'
p2695
S'Americans'
p2696
sS'PartOfSpeech'
p2697
S'NNPS'
p2698
sS'CharacterOffsetBegin'
p2699
S'529'
p2700
stp2701
a(g648
(dp2702
S'NamedEntityTag'
p2703
g111
sS'CharacterOffsetEnd'
p2704
S'539'
p2705
sS'Lemma'
p2706
g648
sS'PartOfSpeech'
p2707
g648
sS'CharacterOffsetBegin'
p2708
S'538'
p2709
stp2710
asa(dp2711
g15
S'(ROOT (S (NP (NP (DT The) (NN official)) (, ,) (SBAR (WHNP (WP who)) (S (VP (MD could) (RB not) (VP (VB be) (VP (ADVP (RB further)) (VBN identified)))))) (, ,)) (VP (VBD said) (SBAR (S (NP (DT the) (VBG questioning)) (VP (VBD was) (VP (VBN aimed) (PP (IN at) (S (VP (VBG gathering) (NP (VBN recorded) (NN testimony) (S (VP (TO to) (VP (VB be) (VP (VBN used) (PP (IN by) (NP (NP (DT the) (NN prosecution)) (PP (IN in) (NP (NP (DT the) (JJ pre-sentencing) (NN phase)) (PP (IN of) (NP (NP (DT the) (NNS trials)) (PP (IN of) (NP (NP (DT the) (CD six) (NNS men)) (VP (VBN indicted) (PP (IN in) (NP (NN connection))) (PP (IN with) (NP (DT the) (NN attack))))))))))))))))))))))))) (. .)))'
p2712
sg17
S'The official, who could not be further identified, said the questioning was aimed at gathering recorded testimony to be used by the prosecution in the pre-sentencing phase of the trials of the six men indicted in connection with the attack.'
p2713
sg19
(lp2714
(S'root'
p2715
S'ROOT'
p2716
S'said'
p2717
tp2718
a(S'det'
p2719
S'official'
p2720
S'The'
p2721
tp2722
a(S'nsubj'
p2723
S'said'
p2724
S'official'
p2725
tp2726
a(S'nsubjpass'
p2727
S'identified'
p2728
S'who'
p2729
tp2730
a(S'aux'
p2731
S'identified'
p2732
S'could'
p2733
tp2734
a(S'neg'
p2735
S'identified'
p2736
S'not'
p2737
tp2738
a(S'auxpass'
p2739
S'identified'
p2740
S'be'
p2741
tp2742
a(S'advmod'
p2743
S'identified'
p2744
S'further'
p2745
tp2746
a(S'rcmod'
p2747
S'official'
p2748
S'identified'
p2749
tp2750
a(S'nsubjpass'
p2751
S'aimed'
p2752
S'the'
p2753
tp2754
a(S'amod'
p2755
S'the'
p2756
S'questioning'
p2757
tp2758
a(S'auxpass'
p2759
S'aimed'
p2760
S'was'
p2761
tp2762
a(S'ccomp'
p2763
S'said'
p2764
S'aimed'
p2765
tp2766
a(S'prepc_at'
p2767
S'aimed'
p2768
S'gathering'
p2769
tp2770
a(S'amod'
p2771
S'testimony'
p2772
S'recorded'
p2773
tp2774
a(S'dobj'
p2775
S'gathering'
p2776
S'testimony'
p2777
tp2778
a(S'aux'
p2779
S'used'
p2780
S'to'
p2781
tp2782
a(S'auxpass'
p2783
S'used'
p2784
S'be'
p2785
tp2786
a(S'infmod'
p2787
S'testimony'
p2788
S'used'
p2789
tp2790
a(S'det'
p2791
S'prosecution'
p2792
S'the'
p2793
tp2794
a(S'agent'
p2795
S'used'
p2796
S'prosecution'
p2797
tp2798
a(S'det'
p2799
S'phase'
p2800
S'the'
p2801
tp2802
a(S'amod'
p2803
S'phase'
p2804
S'pre-sentencing'
p2805
tp2806
a(S'prep_in'
p2807
S'prosecution'
p2808
S'phase'
p2809
tp2810
a(S'det'
p2811
S'trials'
p2812
S'the'
p2813
tp2814
a(S'prep_of'
p2815
S'phase'
p2816
S'trials'
p2817
tp2818
a(S'det'
p2819
S'men'
p2820
S'the'
p2821
tp2822
a(S'num'
p2823
S'men'
p2824
S'six'
p2825
tp2826
a(S'prep_of'
p2827
S'trials'
p2828
S'men'
p2829
tp2830
a(S'partmod'
p2831
S'men'
p2832
S'indicted'
p2833
tp2834
a(S'prep_in'
p2835
S'indicted'
p2836
S'connection'
p2837
tp2838
a(S'det'
p2839
S'attack'
p2840
S'the'
p2841
tp2842
a(S'prep_with'
p2843
S'indicted'
p2844
S'attack'
p2845
tp2846
asg61
(lp2847
(g2715
S'ROOT-0'
p2848
S'said-11'
p2849
tp2850
a(g2719
S'official-2'
p2851
S'The-1'
p2852
tp2853
a(g2723
S'said-11'
p2854
S'official-2'
p2855
tp2856
a(g2727
S'identified-9'
p2857
S'who-4'
p2858
tp2859
a(g2731
S'identified-9'
p2860
S'could-5'
p2861
tp2862
a(g2735
S'identified-9'
p2863
S'not-6'
p2864
tp2865
a(g2739
S'identified-9'
p2866
S'be-7'
p2867
tp2868
a(g2743
S'identified-9'
p2869
S'further-8'
p2870
tp2871
a(g2747
S'official-2'
p2872
S'identified-9'
p2873
tp2874
a(g2751
S'aimed-15'
p2875
S'the-12'
p2876
tp2877
a(g2755
S'the-12'
p2878
S'questioning-13'
p2879
tp2880
a(g2759
S'aimed-15'
p2881
S'was-14'
p2882
tp2883
a(g2763
S'said-11'
p2884
S'aimed-15'
p2885
tp2886
a(g2767
S'aimed-15'
p2887
S'gathering-17'
p2888
tp2889
a(g2771
S'testimony-19'
p2890
S'recorded-18'
p2891
tp2892
a(g2775
S'gathering-17'
p2893
S'testimony-19'
p2894
tp2895
a(g2779
S'used-22'
p2896
S'to-20'
p2897
tp2898
a(g2783
S'used-22'
p2899
S'be-21'
p2900
tp2901
a(g2787
S'testimony-19'
p2902
S'used-22'
p2903
tp2904
a(g2791
S'prosecution-25'
p2905
S'the-24'
p2906
tp2907
a(g2795
S'used-22'
p2908
S'prosecution-25'
p2909
tp2910
a(g2799
S'phase-29'
p2911
S'the-27'
p2912
tp2913
a(g2803
S'phase-29'
p2914
S'pre-sentencing-28'
p2915
tp2916
a(g2807
S'prosecution-25'
p2917
S'phase-29'
p2918
tp2919
a(g2811
S'trials-32'
p2920
S'the-31'
p2921
tp2922
a(g2815
S'phase-29'
p2923
S'trials-32'
p2924
tp2925
a(g2819
S'men-36'
p2926
S'the-34'
p2927
tp2928
a(g2823
S'men-36'
p2929
S'six-35'
p2930
tp2931
a(g2827
S'trials-32'
p2932
S'men-36'
p2933
tp2934
a(g2831
S'men-36'
p2935
S'indicted-37'
p2936
tp2937
a(g2835
S'indicted-37'
p2938
S'connection-39'
p2939
tp2940
a(g2839
S'attack-42'
p2941
S'the-41'
p2942
tp2943
a(g2843
S'indicted-37'
p2944
S'attack-42'
p2945
tp2946
asg93
(lp2947
(S'The'
p2948
(dp2949
S'NamedEntityTag'
p2950
g111
sS'CharacterOffsetEnd'
p2951
S'543'
p2952
sS'Lemma'
p2953
S'the'
p2954
sS'PartOfSpeech'
p2955
S'DT'
p2956
sS'CharacterOffsetBegin'
p2957
S'540'
p2958
stp2959
a(S'official'
p2960
(dp2961
S'NamedEntityTag'
p2962
g111
sS'CharacterOffsetEnd'
p2963
S'552'
p2964
sS'Lemma'
p2965
S'official'
p2966
sS'PartOfSpeech'
p2967
S'NN'
p2968
sS'CharacterOffsetBegin'
p2969
S'544'
p2970
stp2971
a(g108
(dp2972
S'NamedEntityTag'
p2973
g111
sS'CharacterOffsetEnd'
p2974
S'553'
p2975
sS'Lemma'
p2976
g108
sS'PartOfSpeech'
p2977
g108
sS'CharacterOffsetBegin'
p2978
S'552'
p2979
stp2980
a(S'who'
p2981
(dp2982
S'NamedEntityTag'
p2983
g111
sS'CharacterOffsetEnd'
p2984
S'557'
p2985
sS'Lemma'
p2986
S'who'
p2987
sS'PartOfSpeech'
p2988
S'WP'
p2989
sS'CharacterOffsetBegin'
p2990
S'554'
p2991
stp2992
a(S'could'
p2993
(dp2994
S'NamedEntityTag'
p2995
g111
sS'CharacterOffsetEnd'
p2996
S'563'
p2997
sS'Lemma'
p2998
S'could'
p2999
sS'PartOfSpeech'
p3000
S'MD'
p3001
sS'CharacterOffsetBegin'
p3002
S'558'
p3003
stp3004
a(S'not'
p3005
(dp3006
S'NamedEntityTag'
p3007
g111
sS'CharacterOffsetEnd'
p3008
S'567'
p3009
sS'Lemma'
p3010
S'not'
p3011
sS'PartOfSpeech'
p3012
S'RB'
p3013
sS'CharacterOffsetBegin'
p3014
S'564'
p3015
stp3016
a(S'be'
p3017
(dp3018
S'NamedEntityTag'
p3019
g111
sS'CharacterOffsetEnd'
p3020
S'570'
p3021
sS'Lemma'
p3022
S'be'
p3023
sS'PartOfSpeech'
p3024
S'VB'
p3025
sS'CharacterOffsetBegin'
p3026
S'568'
p3027
stp3028
a(S'further'
p3029
(dp3030
S'NamedEntityTag'
p3031
g111
sS'CharacterOffsetEnd'
p3032
S'578'
p3033
sS'Lemma'
p3034
S'further'
p3035
sS'PartOfSpeech'
p3036
S'RB'
p3037
sS'CharacterOffsetBegin'
p3038
S'571'
p3039
stp3040
a(S'identified'
p3041
(dp3042
S'NamedEntityTag'
p3043
g111
sS'CharacterOffsetEnd'
p3044
S'589'
p3045
sS'Lemma'
p3046
S'identify'
p3047
sS'PartOfSpeech'
p3048
S'VBN'
p3049
sS'CharacterOffsetBegin'
p3050
S'579'
p3051
stp3052
a(g108
(dp3053
S'NamedEntityTag'
p3054
g111
sS'CharacterOffsetEnd'
p3055
S'590'
p3056
sS'Lemma'
p3057
g108
sS'PartOfSpeech'
p3058
g108
sS'CharacterOffsetBegin'
p3059
S'589'
p3060
stp3061
a(S'said'
p3062
(dp3063
S'NamedEntityTag'
p3064
g111
sS'CharacterOffsetEnd'
p3065
S'595'
p3066
sS'Lemma'
p3067
S'say'
p3068
sS'PartOfSpeech'
p3069
S'VBD'
p3070
sS'CharacterOffsetBegin'
p3071
S'591'
p3072
stp3073
a(S'the'
p3074
(dp3075
S'NamedEntityTag'
p3076
g111
sS'CharacterOffsetEnd'
p3077
S'599'
p3078
sS'Lemma'
p3079
S'the'
p3080
sS'PartOfSpeech'
p3081
S'DT'
p3082
sS'CharacterOffsetBegin'
p3083
S'596'
p3084
stp3085
a(S'questioning'
p3086
(dp3087
S'NamedEntityTag'
p3088
g111
sS'CharacterOffsetEnd'
p3089
S'611'
p3090
sS'Lemma'
p3091
S'question'
p3092
sS'PartOfSpeech'
p3093
S'VBG'
p3094
sS'CharacterOffsetBegin'
p3095
S'600'
p3096
stp3097
a(S'was'
p3098
(dp3099
S'NamedEntityTag'
p3100
g111
sS'CharacterOffsetEnd'
p3101
S'615'
p3102
sS'Lemma'
p3103
S'be'
p3104
sS'PartOfSpeech'
p3105
S'VBD'
p3106
sS'CharacterOffsetBegin'
p3107
S'612'
p3108
stp3109
a(S'aimed'
p3110
(dp3111
S'NamedEntityTag'
p3112
g111
sS'CharacterOffsetEnd'
p3113
S'621'
p3114
sS'Lemma'
p3115
S'aim'
p3116
sS'PartOfSpeech'
p3117
S'VBN'
p3118
sS'CharacterOffsetBegin'
p3119
S'616'
p3120
stp3121
a(S'at'
p3122
(dp3123
S'NamedEntityTag'
p3124
g111
sS'CharacterOffsetEnd'
p3125
S'624'
p3126
sS'Lemma'
p3127
S'at'
p3128
sS'PartOfSpeech'
p3129
S'IN'
p3130
sS'CharacterOffsetBegin'
p3131
S'622'
p3132
stp3133
a(S'gathering'
p3134
(dp3135
S'NamedEntityTag'
p3136
g111
sS'CharacterOffsetEnd'
p3137
S'634'
p3138
sS'Lemma'
p3139
S'gather'
p3140
sS'PartOfSpeech'
p3141
S'VBG'
p3142
sS'CharacterOffsetBegin'
p3143
S'625'
p3144
stp3145
a(S'recorded'
p3146
(dp3147
S'NamedEntityTag'
p3148
g111
sS'CharacterOffsetEnd'
p3149
S'643'
p3150
sS'Lemma'
p3151
S'record'
p3152
sS'PartOfSpeech'
p3153
S'VBN'
p3154
sS'CharacterOffsetBegin'
p3155
S'635'
p3156
stp3157
a(S'testimony'
p3158
(dp3159
S'NamedEntityTag'
p3160
g111
sS'CharacterOffsetEnd'
p3161
S'653'
p3162
sS'Lemma'
p3163
S'testimony'
p3164
sS'PartOfSpeech'
p3165
S'NN'
p3166
sS'CharacterOffsetBegin'
p3167
S'644'
p3168
stp3169
a(S'to'
p3170
(dp3171
S'NamedEntityTag'
p3172
g111
sS'CharacterOffsetEnd'
p3173
S'656'
p3174
sS'Lemma'
p3175
S'to'
p3176
sS'PartOfSpeech'
p3177
S'TO'
p3178
sS'CharacterOffsetBegin'
p3179
S'654'
p3180
stp3181
a(S'be'
p3182
(dp3183
S'NamedEntityTag'
p3184
g111
sS'CharacterOffsetEnd'
p3185
S'659'
p3186
sS'Lemma'
p3187
S'be'
p3188
sS'PartOfSpeech'
p3189
S'VB'
p3190
sS'CharacterOffsetBegin'
p3191
S'657'
p3192
stp3193
a(S'used'
p3194
(dp3195
S'NamedEntityTag'
p3196
g111
sS'CharacterOffsetEnd'
p3197
S'664'
p3198
sS'Lemma'
p3199
S'use'
p3200
sS'PartOfSpeech'
p3201
S'VBN'
p3202
sS'CharacterOffsetBegin'
p3203
S'660'
p3204
stp3205
a(S'by'
p3206
(dp3207
S'NamedEntityTag'
p3208
g111
sS'CharacterOffsetEnd'
p3209
S'667'
p3210
sS'Lemma'
p3211
S'by'
p3212
sS'PartOfSpeech'
p3213
S'IN'
p3214
sS'CharacterOffsetBegin'
p3215
S'665'
p3216
stp3217
a(S'the'
p3218
(dp3219
S'NamedEntityTag'
p3220
g111
sS'CharacterOffsetEnd'
p3221
S'671'
p3222
sS'Lemma'
p3223
S'the'
p3224
sS'PartOfSpeech'
p3225
S'DT'
p3226
sS'CharacterOffsetBegin'
p3227
S'668'
p3228
stp3229
a(S'prosecution'
p3230
(dp3231
S'NamedEntityTag'
p3232
g111
sS'CharacterOffsetEnd'
p3233
S'683'
p3234
sS'Lemma'
p3235
S'prosecution'
p3236
sS'PartOfSpeech'
p3237
S'NN'
p3238
sS'CharacterOffsetBegin'
p3239
S'672'
p3240
stp3241
a(S'in'
p3242
(dp3243
S'NamedEntityTag'
p3244
g111
sS'CharacterOffsetEnd'
p3245
S'686'
p3246
sS'Lemma'
p3247
S'in'
p3248
sS'PartOfSpeech'
p3249
S'IN'
p3250
sS'CharacterOffsetBegin'
p3251
S'684'
p3252
stp3253
a(S'the'
p3254
(dp3255
S'NamedEntityTag'
p3256
g111
sS'CharacterOffsetEnd'
p3257
S'690'
p3258
sS'Lemma'
p3259
S'the'
p3260
sS'PartOfSpeech'
p3261
S'DT'
p3262
sS'CharacterOffsetBegin'
p3263
S'687'
p3264
stp3265
a(S'pre-sentencing'
p3266
(dp3267
S'NamedEntityTag'
p3268
g111
sS'CharacterOffsetEnd'
p3269
S'705'
p3270
sS'Lemma'
p3271
S'pre-sentencing'
p3272
sS'PartOfSpeech'
p3273
S'JJ'
p3274
sS'CharacterOffsetBegin'
p3275
S'691'
p3276
stp3277
a(S'phase'
p3278
(dp3279
S'NamedEntityTag'
p3280
g111
sS'CharacterOffsetEnd'
p3281
S'711'
p3282
sS'Lemma'
p3283
S'phase'
p3284
sS'PartOfSpeech'
p3285
S'NN'
p3286
sS'CharacterOffsetBegin'
p3287
S'706'
p3288
stp3289
a(S'of'
p3290
(dp3291
S'NamedEntityTag'
p3292
g111
sS'CharacterOffsetEnd'
p3293
S'714'
p3294
sS'Lemma'
p3295
S'of'
p3296
sS'PartOfSpeech'
p3297
S'IN'
p3298
sS'CharacterOffsetBegin'
p3299
S'712'
p3300
stp3301
a(S'the'
p3302
(dp3303
S'NamedEntityTag'
p3304
g111
sS'CharacterOffsetEnd'
p3305
S'718'
p3306
sS'Lemma'
p3307
S'the'
p3308
sS'PartOfSpeech'
p3309
S'DT'
p3310
sS'CharacterOffsetBegin'
p3311
S'715'
p3312
stp3313
a(S'trials'
p3314
(dp3315
S'NamedEntityTag'
p3316
g111
sS'CharacterOffsetEnd'
p3317
S'725'
p3318
sS'Lemma'
p3319
S'trial'
p3320
sS'PartOfSpeech'
p3321
S'NNS'
p3322
sS'CharacterOffsetBegin'
p3323
S'719'
p3324
stp3325
a(S'of'
p3326
(dp3327
S'NamedEntityTag'
p3328
g111
sS'CharacterOffsetEnd'
p3329
S'728'
p3330
sS'Lemma'
p3331
S'of'
p3332
sS'PartOfSpeech'
p3333
S'IN'
p3334
sS'CharacterOffsetBegin'
p3335
S'726'
p3336
stp3337
a(S'the'
p3338
(dp3339
S'NamedEntityTag'
p3340
g111
sS'CharacterOffsetEnd'
p3341
S'732'
p3342
sS'Lemma'
p3343
S'the'
p3344
sS'PartOfSpeech'
p3345
S'DT'
p3346
sS'CharacterOffsetBegin'
p3347
S'729'
p3348
stp3349
a(S'six'
p3350
(dp3351
S'NormalizedNamedEntityTag'
p3352
S'6.0'
p3353
sS'Lemma'
p3354
S'six'
p3355
sS'CharacterOffsetEnd'
p3356
S'736'
p3357
sS'PartOfSpeech'
p3358
S'CD'
p3359
sS'CharacterOffsetBegin'
p3360
S'733'
p3361
sS'NamedEntityTag'
p3362
S'NUMBER'
p3363
stp3364
a(S'men'
p3365
(dp3366
S'NamedEntityTag'
p3367
g111
sS'CharacterOffsetEnd'
p3368
S'740'
p3369
sS'Lemma'
p3370
S'man'
p3371
sS'PartOfSpeech'
p3372
S'NNS'
p3373
sS'CharacterOffsetBegin'
p3374
S'737'
p3375
stp3376
a(S'indicted'
p3377
(dp3378
S'NamedEntityTag'
p3379
g111
sS'CharacterOffsetEnd'
p3380
S'749'
p3381
sS'Lemma'
p3382
S'indict'
p3383
sS'PartOfSpeech'
p3384
S'VBN'
p3385
sS'CharacterOffsetBegin'
p3386
S'741'
p3387
stp3388
a(S'in'
p3389
(dp3390
S'NamedEntityTag'
p3391
g111
sS'CharacterOffsetEnd'
p3392
S'752'
p3393
sS'Lemma'
p3394
S'in'
p3395
sS'PartOfSpeech'
p3396
S'IN'
p3397
sS'CharacterOffsetBegin'
p3398
S'750'
p3399
stp3400
a(S'connection'
p3401
(dp3402
S'NamedEntityTag'
p3403
g111
sS'CharacterOffsetEnd'
p3404
S'763'
p3405
sS'Lemma'
p3406
S'connection'
p3407
sS'PartOfSpeech'
p3408
S'NN'
p3409
sS'CharacterOffsetBegin'
p3410
S'753'
p3411
stp3412
a(S'with'
p3413
(dp3414
S'NamedEntityTag'
p3415
g111
sS'CharacterOffsetEnd'
p3416
S'768'
p3417
sS'Lemma'
p3418
S'with'
p3419
sS'PartOfSpeech'
p3420
S'IN'
p3421
sS'CharacterOffsetBegin'
p3422
S'764'
p3423
stp3424
a(S'the'
p3425
(dp3426
S'NamedEntityTag'
p3427
g111
sS'CharacterOffsetEnd'
p3428
S'772'
p3429
sS'Lemma'
p3430
S'the'
p3431
sS'PartOfSpeech'
p3432
S'DT'
p3433
sS'CharacterOffsetBegin'
p3434
S'769'
p3435
stp3436
a(S'attack'
p3437
(dp3438
S'NamedEntityTag'
p3439
g111
sS'CharacterOffsetEnd'
p3440
S'779'
p3441
sS'Lemma'
p3442
S'attack'
p3443
sS'PartOfSpeech'
p3444
S'NN'
p3445
sS'CharacterOffsetBegin'
p3446
S'773'
p3447
stp3448
a(g648
(dp3449
S'NamedEntityTag'
p3450
g111
sS'CharacterOffsetEnd'
p3451
S'780'
p3452
sS'Lemma'
p3453
g648
sS'PartOfSpeech'
p3454
g648
sS'CharacterOffsetBegin'
p3455
S'779'
p3456
stp3457
asa(dp3458
g15
S'(ROOT (S (NP (NP (NNP Wadih) (NNP El) (NNP Hage)) (, ,) (NP (NNP Mohamed) (NNP Sadeek) (NNP Odeh)) (CC and) (NP (NNP Mohamed) (NNP Rashed) (NNP Daoud) (NNP Al-Owhali))) (VP (VBP are) (VP (VBG being) (VP (VBN held) (PP (IN by) (NP (DT the) (NNP U.S.) (NNP District) (NNP Court))) (PP (IN in) (NP (NP (DT the) (NNP Southern) (NNP District)) (PP (IN of) (NP (NNP New) (NNP York)))))))) (. .)))'
p3459
sg17
S'Wadih El Hage, Mohamed Sadeek Odeh and Mohamed Rashed Daoud Al-Owhali are being held by the U.S. District Court in the Southern District of New York.'
p3460
sg19
(lp3461
(S'root'
p3462
S'ROOT'
p3463
S'held'
p3464
tp3465
a(S'nn'
p3466
S'Hage'
p3467
S'Wadih'
p3468
tp3469
a(S'nn'
p3470
S'Hage'
p3471
S'El'
p3472
tp3473
a(S'nsubjpass'
p3474
S'held'
p3475
S'Hage'
p3476
tp3477
a(S'nn'
p3478
S'Odeh'
p3479
S'Mohamed'
p3480
tp3481
a(S'nn'
p3482
S'Odeh'
p3483
S'Sadeek'
p3484
tp3485
a(S'conj_and'
p3486
S'Hage'
p3487
S'Odeh'
p3488
tp3489
a(S'nn'
p3490
S'Al-Owhali'
p3491
S'Mohamed'
p3492
tp3493
a(S'nn'
p3494
S'Al-Owhali'
p3495
S'Rashed'
p3496
tp3497
a(S'nn'
p3498
S'Al-Owhali'
p3499
S'Daoud'
p3500
tp3501
a(S'conj_and'
p3502
S'Hage'
p3503
S'Al-Owhali'
p3504
tp3505
a(S'aux'
p3506
S'held'
p3507
S'are'
p3508
tp3509
a(S'auxpass'
p3510
S'held'
p3511
S'being'
p3512
tp3513
a(S'det'
p3514
S'Court'
p3515
S'the'
p3516
tp3517
a(S'nn'
p3518
S'Court'
p3519
S'U.S.'
p3520
tp3521
a(S'nn'
p3522
S'Court'
p3523
S'District'
p3524
tp3525
a(S'agent'
p3526
S'held'
p3527
S'Court'
p3528
tp3529
a(S'det'
p3530
S'District'
p3531
S'the'
p3532
tp3533
a(S'nn'
p3534
S'District'
p3535
S'Southern'
p3536
tp3537
a(S'prep_in'
p3538
S'held'
p3539
S'District'
p3540
tp3541
a(S'nn'
p3542
S'York'
p3543
S'New'
p3544
tp3545
a(S'prep_of'
p3546
S'District'
p3547
S'York'
p3548
tp3549
asg61
(lp3550
(g3462
S'ROOT-0'
p3551
S'held-15'
p3552
tp3553
a(g3466
S'Hage-3'
p3554
S'Wadih-1'
p3555
tp3556
a(g3470
S'Hage-3'
p3557
S'El-2'
p3558
tp3559
a(g3474
S'held-15'
p3560
S'Hage-3'
p3561
tp3562
a(g3478
S'Odeh-7'
p3563
S'Mohamed-5'
p3564
tp3565
a(g3482
S'Odeh-7'
p3566
S'Sadeek-6'
p3567
tp3568
a(g3486
S'Hage-3'
p3569
S'Odeh-7'
p3570
tp3571
a(g3490
S'Al-Owhali-12'
p3572
S'Mohamed-9'
p3573
tp3574
a(g3494
S'Al-Owhali-12'
p3575
S'Rashed-10'
p3576
tp3577
a(g3498
S'Al-Owhali-12'
p3578
S'Daoud-11'
p3579
tp3580
a(g3502
S'Hage-3'
p3581
S'Al-Owhali-12'
p3582
tp3583
a(g3506
S'held-15'
p3584
S'are-13'
p3585
tp3586
a(g3510
S'held-15'
p3587
S'being-14'
p3588
tp3589
a(g3514
S'Court-20'
p3590
S'the-17'
p3591
tp3592
a(g3518
S'Court-20'
p3593
S'U.S.-18'
p3594
tp3595
a(g3522
S'Court-20'
p3596
S'District-19'
p3597
tp3598
a(g3526
S'held-15'
p3599
S'Court-20'
p3600
tp3601
a(g3530
S'District-24'
p3602
S'the-22'
p3603
tp3604
a(g3534
S'District-24'
p3605
S'Southern-23'
p3606
tp3607
a(g3538
S'held-15'
p3608
S'District-24'
p3609
tp3610
a(g3542
S'York-27'
p3611
S'New-26'
p3612
tp3613
a(g3546
S'District-24'
p3614
S'York-27'
p3615
tp3616
asg93
(lp3617
(S'Wadih'
p3618
(dp3619
S'NamedEntityTag'
p3620
S'PERSON'
p3621
sS'CharacterOffsetEnd'
p3622
S'786'
p3623
sS'Lemma'
p3624
S'Wadih'
p3625
sS'PartOfSpeech'
p3626
S'NNP'
p3627
sS'CharacterOffsetBegin'
p3628
S'781'
p3629
stp3630
a(S'El'
p3631
(dp3632
S'NamedEntityTag'
p3633
S'PERSON'
p3634
sS'CharacterOffsetEnd'
p3635
S'789'
p3636
sS'Lemma'
p3637
S'El'
p3638
sS'PartOfSpeech'
p3639
S'NNP'
p3640
sS'CharacterOffsetBegin'
p3641
S'787'
p3642
stp3643
a(S'Hage'
p3644
(dp3645
S'NamedEntityTag'
p3646
S'PERSON'
p3647
sS'CharacterOffsetEnd'
p3648
S'794'
p3649
sS'Lemma'
p3650
S'Hage'
p3651
sS'PartOfSpeech'
p3652
S'NNP'
p3653
sS'CharacterOffsetBegin'
p3654
S'790'
p3655
stp3656
a(g108
(dp3657
S'NamedEntityTag'
p3658
g111
sS'CharacterOffsetEnd'
p3659
S'795'
p3660
sS'Lemma'
p3661
g108
sS'PartOfSpeech'
p3662
g108
sS'CharacterOffsetBegin'
p3663
S'794'
p3664
stp3665
a(S'Mohamed'
p3666
(dp3667
S'NamedEntityTag'
p3668
S'PERSON'
p3669
sS'CharacterOffsetEnd'
p3670
S'803'
p3671
sS'Lemma'
p3672
S'Mohamed'
p3673
sS'PartOfSpeech'
p3674
S'NNP'
p3675
sS'CharacterOffsetBegin'
p3676
S'796'
p3677
stp3678
a(S'Sadeek'
p3679
(dp3680
S'NamedEntityTag'
p3681
S'PERSON'
p3682
sS'CharacterOffsetEnd'
p3683
S'810'
p3684
sS'Lemma'
p3685
S'Sadeek'
p3686
sS'PartOfSpeech'
p3687
S'NNP'
p3688
sS'CharacterOffsetBegin'
p3689
S'804'
p3690
stp3691
a(S'Odeh'
p3692
(dp3693
S'NamedEntityTag'
p3694
S'PERSON'
p3695
sS'CharacterOffsetEnd'
p3696
S'815'
p3697
sS'Lemma'
p3698
S'Odeh'
p3699
sS'PartOfSpeech'
p3700
S'NNP'
p3701
sS'CharacterOffsetBegin'
p3702
S'811'
p3703
stp3704
a(S'and'
p3705
(dp3706
S'NamedEntityTag'
p3707
g111
sS'CharacterOffsetEnd'
p3708
S'819'
p3709
sS'Lemma'
p3710
S'and'
p3711
sS'PartOfSpeech'
p3712
S'CC'
p3713
sS'CharacterOffsetBegin'
p3714
S'816'
p3715
stp3716
a(S'Mohamed'
p3717
(dp3718
S'NamedEntityTag'
p3719
S'PERSON'
p3720
sS'CharacterOffsetEnd'
p3721
S'827'
p3722
sS'Lemma'
p3723
S'Mohamed'
p3724
sS'PartOfSpeech'
p3725
S'NNP'
p3726
sS'CharacterOffsetBegin'
p3727
S'820'
p3728
stp3729
a(S'Rashed'
p3730
(dp3731
S'NamedEntityTag'
p3732
S'PERSON'
p3733
sS'CharacterOffsetEnd'
p3734
S'834'
p3735
sS'Lemma'
p3736
S'Rashed'
p3737
sS'PartOfSpeech'
p3738
S'NNP'
p3739
sS'CharacterOffsetBegin'
p3740
S'828'
p3741
stp3742
a(S'Daoud'
p3743
(dp3744
S'NamedEntityTag'
p3745
S'PERSON'
p3746
sS'CharacterOffsetEnd'
p3747
S'840'
p3748
sS'Lemma'
p3749
S'Daoud'
p3750
sS'PartOfSpeech'
p3751
S'NNP'
p3752
sS'CharacterOffsetBegin'
p3753
S'835'
p3754
stp3755
a(S'Al-Owhali'
p3756
(dp3757
S'NamedEntityTag'
p3758
S'PERSON'
p3759
sS'CharacterOffsetEnd'
p3760
S'850'
p3761
sS'Lemma'
p3762
S'Al-Owhali'
p3763
sS'PartOfSpeech'
p3764
S'NNP'
p3765
sS'CharacterOffsetBegin'
p3766
S'841'
p3767
stp3768
a(S'are'
p3769
(dp3770
S'NamedEntityTag'
p3771
g111
sS'CharacterOffsetEnd'
p3772
S'854'
p3773
sS'Lemma'
p3774
S'be'
p3775
sS'PartOfSpeech'
p3776
S'VBP'
p3777
sS'CharacterOffsetBegin'
p3778
S'851'
p3779
stp3780
a(S'being'
p3781
(dp3782
S'NamedEntityTag'
p3783
g111
sS'CharacterOffsetEnd'
p3784
S'860'
p3785
sS'Lemma'
p3786
S'be'
p3787
sS'PartOfSpeech'
p3788
S'VBG'
p3789
sS'CharacterOffsetBegin'
p3790
S'855'
p3791
stp3792
a(S'held'
p3793
(dp3794
S'NamedEntityTag'
p3795
g111
sS'CharacterOffsetEnd'
p3796
S'865'
p3797
sS'Lemma'
p3798
S'hold'
p3799
sS'PartOfSpeech'
p3800
S'VBN'
p3801
sS'CharacterOffsetBegin'
p3802
S'861'
p3803
stp3804
a(S'by'
p3805
(dp3806
S'NamedEntityTag'
p3807
g111
sS'CharacterOffsetEnd'
p3808
S'868'
p3809
sS'Lemma'
p3810
S'by'
p3811
sS'PartOfSpeech'
p3812
S'IN'
p3813
sS'CharacterOffsetBegin'
p3814
S'866'
p3815
stp3816
a(S'the'
p3817
(dp3818
S'NamedEntityTag'
p3819
g111
sS'CharacterOffsetEnd'
p3820
S'872'
p3821
sS'Lemma'
p3822
S'the'
p3823
sS'PartOfSpeech'
p3824
S'DT'
p3825
sS'CharacterOffsetBegin'
p3826
S'869'
p3827
stp3828
a(S'U.S.'
p3829
(dp3830
S'NamedEntityTag'
p3831
S'ORGANIZATION'
p3832
sS'CharacterOffsetEnd'
p3833
S'877'
p3834
sS'Lemma'
p3835
S'U.S.'
p3836
sS'PartOfSpeech'
p3837
S'NNP'
p3838
sS'CharacterOffsetBegin'
p3839
S'873'
p3840
stp3841
a(S'District'
p3842
(dp3843
S'NamedEntityTag'
p3844
S'ORGANIZATION'
p3845
sS'CharacterOffsetEnd'
p3846
S'886'
p3847
sS'Lemma'
p3848
S'District'
p3849
sS'PartOfSpeech'
p3850
S'NNP'
p3851
sS'CharacterOffsetBegin'
p3852
S'878'
p3853
stp3854
a(S'Court'
p3855
(dp3856
S'NamedEntityTag'
p3857
S'ORGANIZATION'
p3858
sS'CharacterOffsetEnd'
p3859
S'892'
p3860
sS'Lemma'
p3861
S'Court'
p3862
sS'PartOfSpeech'
p3863
S'NNP'
p3864
sS'CharacterOffsetBegin'
p3865
S'887'
p3866
stp3867
a(S'in'
p3868
(dp3869
S'NamedEntityTag'
p3870
g111
sS'CharacterOffsetEnd'
p3871
S'895'
p3872
sS'Lemma'
p3873
S'in'
p3874
sS'PartOfSpeech'
p3875
S'IN'
p3876
sS'CharacterOffsetBegin'
p3877
S'893'
p3878
stp3879
a(S'the'
p3880
(dp3881
S'NamedEntityTag'
p3882
g111
sS'CharacterOffsetEnd'
p3883
S'899'
p3884
sS'Lemma'
p3885
S'the'
p3886
sS'PartOfSpeech'
p3887
S'DT'
p3888
sS'CharacterOffsetBegin'
p3889
S'896'
p3890
stp3891
a(S'Southern'
p3892
(dp3893
S'NamedEntityTag'
p3894
g111
sS'CharacterOffsetEnd'
p3895
S'908'
p3896
sS'Lemma'
p3897
S'Southern'
p3898
sS'PartOfSpeech'
p3899
S'NNP'
p3900
sS'CharacterOffsetBegin'
p3901
S'900'
p3902
stp3903
a(S'District'
p3904
(dp3905
S'NamedEntityTag'
p3906
g111
sS'CharacterOffsetEnd'
p3907
S'917'
p3908
sS'Lemma'
p3909
S'District'
p3910
sS'PartOfSpeech'
p3911
S'NNP'
p3912
sS'CharacterOffsetBegin'
p3913
S'909'
p3914
stp3915
a(S'of'
p3916
(dp3917
S'NamedEntityTag'
p3918
g111
sS'CharacterOffsetEnd'
p3919
S'920'
p3920
sS'Lemma'
p3921
S'of'
p3922
sS'PartOfSpeech'
p3923
S'IN'
p3924
sS'CharacterOffsetBegin'
p3925
S'918'
p3926
stp3927
a(S'New'
p3928
(dp3929
S'NamedEntityTag'
p3930
S'LOCATION'
p3931
sS'CharacterOffsetEnd'
p3932
S'924'
p3933
sS'Lemma'
p3934
S'New'
p3935
sS'PartOfSpeech'
p3936
S'NNP'
p3937
sS'CharacterOffsetBegin'
p3938
S'921'
p3939
stp3940
a(S'York'
p3941
(dp3942
S'NamedEntityTag'
p3943
S'LOCATION'
p3944
sS'CharacterOffsetEnd'
p3945
S'929'
p3946
sS'Lemma'
p3947
S'York'
p3948
sS'PartOfSpeech'
p3949
S'NNP'
p3950
sS'CharacterOffsetBegin'
p3951
S'925'
p3952
stp3953
a(g648
(dp3954
S'NamedEntityTag'
p3955
g111
sS'CharacterOffsetEnd'
p3956
S'930'
p3957
sS'Lemma'
p3958
g648
sS'PartOfSpeech'
p3959
g648
sS'CharacterOffsetBegin'
p3960
S'929'
p3961
stp3962
asa(dp3963
g15
S'(ROOT (S (NP (DT All) (CD three)) (VP (VBP have) (VP (VBN pleaded) (S (ADJP (JJ innocent))))) (. .)))'
p3964
sg17
S'All three have pleaded innocent.'
p3965
sg19
(lp3966
(S'root'
p3967
S'ROOT'
p3968
S'pleaded'
p3969
tp3970
a(S'det'
p3971
S'three'
p3972
S'All'
p3973
tp3974
a(S'nsubj'
p3975
S'pleaded'
p3976
S'three'
p3977
tp3978
a(S'aux'
p3979
S'pleaded'
p3980
S'have'
p3981
tp3982
a(S'acomp'
p3983
S'pleaded'
p3984
S'innocent'
p3985
tp3986
asg61
(lp3987
(g3967
S'ROOT-0'
p3988
S'pleaded-4'
p3989
tp3990
a(g3971
S'three-2'
p3991
S'All-1'
p3992
tp3993
a(g3975
S'pleaded-4'
p3994
S'three-2'
p3995
tp3996
a(g3979
S'pleaded-4'
p3997
S'have-3'
p3998
tp3999
a(g3983
S'pleaded-4'
p4000
S'innocent-5'
p4001
tp4002
asg93
(lp4003
(S'All'
p4004
(dp4005
S'NamedEntityTag'
p4006
g111
sS'CharacterOffsetEnd'
p4007
S'934'
p4008
sS'Lemma'
p4009
S'all'
p4010
sS'PartOfSpeech'
p4011
S'DT'
p4012
sS'CharacterOffsetBegin'
p4013
S'931'
p4014
stp4015
a(S'three'
p4016
(dp4017
S'NormalizedNamedEntityTag'
p4018
S'3.0'
p4019
sS'Lemma'
p4020
S'three'
p4021
sS'CharacterOffsetEnd'
p4022
S'940'
p4023
sS'PartOfSpeech'
p4024
S'CD'
p4025
sS'CharacterOffsetBegin'
p4026
S'935'
p4027
sS'NamedEntityTag'
p4028
S'NUMBER'
p4029
stp4030
a(S'have'
p4031
(dp4032
S'NamedEntityTag'
p4033
g111
sS'CharacterOffsetEnd'
p4034
S'945'
p4035
sS'Lemma'
p4036
S'have'
p4037
sS'PartOfSpeech'
p4038
S'VBP'
p4039
sS'CharacterOffsetBegin'
p4040
S'941'
p4041
stp4042
a(S'pleaded'
p4043
(dp4044
S'NamedEntityTag'
p4045
g111
sS'CharacterOffsetEnd'
p4046
S'953'
p4047
sS'Lemma'
p4048
S'plead'
p4049
sS'PartOfSpeech'
p4050
S'VBN'
p4051
sS'CharacterOffsetBegin'
p4052
S'946'
p4053
stp4054
a(S'innocent'
p4055
(dp4056
S'NamedEntityTag'
p4057
g111
sS'CharacterOffsetEnd'
p4058
S'962'
p4059
sS'Lemma'
p4060
S'innocent'
p4061
sS'PartOfSpeech'
p4062
S'JJ'
p4063
sS'CharacterOffsetBegin'
p4064
S'954'
p4065
stp4066
a(g648
(dp4067
S'NamedEntityTag'
p4068
g111
sS'CharacterOffsetEnd'
p4069
S'963'
p4070
sS'Lemma'
p4071
g648
sS'PartOfSpeech'
p4072
g648
sS'CharacterOffsetBegin'
p4073
S'962'
p4074
stp4075
asa(dp4076
g15
S'(ROOT (S (NP (NNP Fazul) (NNP Abdullah) (NNP Mohammed)) (VP (VBZ is) (NP (DT a) (JJ fugitive))) (. .)))'
p4077
sg17
S'Fazul Abdullah Mohammed is a fugitive.'
p4078
sg19
(lp4079
(S'root'
p4080
S'ROOT'
p4081
S'fugitive'
p4082
tp4083
a(S'nn'
p4084
S'Mohammed'
p4085
S'Fazul'
p4086
tp4087
a(S'nn'
p4088
S'Mohammed'
p4089
S'Abdullah'
p4090
tp4091
a(S'nsubj'
p4092
S'fugitive'
p4093
S'Mohammed'
p4094
tp4095
a(S'cop'
p4096
S'fugitive'
p4097
S'is'
p4098
tp4099
a(S'det'
p4100
S'fugitive'
p4101
g1031
tp4102
asg61
(lp4103
(g4080
S'ROOT-0'
p4104
S'fugitive-6'
p4105
tp4106
a(g4084
S'Mohammed-3'
p4107
S'Fazul-1'
p4108
tp4109
a(g4088
S'Mohammed-3'
p4110
S'Abdullah-2'
p4111
tp4112
a(g4092
S'fugitive-6'
p4113
S'Mohammed-3'
p4114
tp4115
a(g4096
S'fugitive-6'
p4116
S'is-4'
p4117
tp4118
a(g4100
S'fugitive-6'
p4119
S'a-5'
p4120
tp4121
asg93
(lp4122
(S'Fazul'
p4123
(dp4124
S'NamedEntityTag'
p4125
S'PERSON'
p4126
sS'CharacterOffsetEnd'
p4127
S'969'
p4128
sS'Lemma'
p4129
S'Fazul'
p4130
sS'PartOfSpeech'
p4131
S'NNP'
p4132
sS'CharacterOffsetBegin'
p4133
S'964'
p4134
stp4135
a(S'Abdullah'
p4136
(dp4137
S'NamedEntityTag'
p4138
S'PERSON'
p4139
sS'CharacterOffsetEnd'
p4140
S'978'
p4141
sS'Lemma'
p4142
S'Abdullah'
p4143
sS'PartOfSpeech'
p4144
S'NNP'
p4145
sS'CharacterOffsetBegin'
p4146
S'970'
p4147
stp4148
a(S'Mohammed'
p4149
(dp4150
S'NamedEntityTag'
p4151
S'PERSON'
p4152
sS'CharacterOffsetEnd'
p4153
S'987'
p4154
sS'Lemma'
p4155
S'Mohammed'
p4156
sS'PartOfSpeech'
p4157
S'NNP'
p4158
sS'CharacterOffsetBegin'
p4159
S'979'
p4160
stp4161
a(S'is'
p4162
(dp4163
S'NamedEntityTag'
p4164
g111
sS'CharacterOffsetEnd'
p4165
S'990'
p4166
sS'Lemma'
p4167
S'be'
p4168
sS'PartOfSpeech'
p4169
S'VBZ'
p4170
sS'CharacterOffsetBegin'
p4171
S'988'
p4172
stp4173
a(g1031
(dp4174
S'NamedEntityTag'
p4175
g111
sS'CharacterOffsetEnd'
p4176
S'992'
p4177
sS'Lemma'
p4178
g1031
sS'PartOfSpeech'
p4179
S'DT'
p4180
sS'CharacterOffsetBegin'
p4181
S'991'
p4182
stp4183
a(S'fugitive'
p4184
(dp4185
S'NamedEntityTag'
p4186
g111
sS'CharacterOffsetEnd'
p4187
S'1001'
p4188
sS'Lemma'
p4189
S'fugitive'
p4190
sS'PartOfSpeech'
p4191
S'JJ'
p4192
sS'CharacterOffsetBegin'
p4193
S'993'
p4194
stp4195
a(g648
(dp4196
S'NamedEntityTag'
p4197
g111
sS'CharacterOffsetEnd'
p4198
S'1002'
p4199
sS'Lemma'
p4200
g648
sS'PartOfSpeech'
p4201
g648
sS'CharacterOffsetBegin'
p4202
S'1001'
p4203
stp4204
asa(dp4205
g15
S'(ROOT (S (NP (NP (JJ Saudi) (NN exile) (NNP Osama) (NNP bin) (NNP Laden)) (, ,) (NP (NP (NP (DT the) (JJ alleged) (NN mastermind)) (PP (IN of) (NP (DT a) (NN conspiracy) (S (VP (TO to) (VP (VB attack) (NP (NNP U.S.) (NNS targets)) (PP (IN around) (NP (DT the) (NN world))))))))) (, ,) (CC and) (NP (NP (NNP Muhammad) (NNP Atef)) (, ,) (NP (NP (DT the) (JJ alleged) (JJ military) (NN commander)) (PP (IN of) (NP (NNP bin) (NNP Ladens) (JJ terrorist) (NN organization)))) (, ,) (NP (NNP Al-Qaeda)))) (, ,)) (VP (VBD were) (VP (VBN charged) (PP (IN in) (NP (NP (DT a) (JJ separate) (JJ 238-page) (NN indictment)) (PP (IN with) (NP (NN murder) (CC and) (NN conspiracy))))) (PP (IN in) (NP (DT the) (NNS bombings))))) (. .)))'
p4206
sg17
S'Saudi exile Osama bin Laden, the alleged mastermind of a conspiracy to attack U.S. targets around the world, and Muhammad Atef, the alleged military commander of bin Ladens terrorist organization, Al-Qaeda, were charged in a separate 238-page indictment with murder and conspiracy in the bombings.'
p4207
sg19
(lp4208
(S'root'
p4209
S'ROOT'
p4210
S'charged'
p4211
tp4212
a(S'amod'
p4213
S'Laden'
p4214
S'Saudi'
p4215
tp4216
a(S'nn'
p4217
S'Laden'
p4218
S'exile'
p4219
tp4220
a(S'nn'
p4221
S'Laden'
p4222
S'Osama'
p4223
tp4224
a(S'nn'
p4225
S'Laden'
p4226
S'bin'
p4227
tp4228
a(S'nsubjpass'
p4229
S'charged'
p4230
S'Laden'
p4231
tp4232
a(S'det'
p4233
S'mastermind'
p4234
S'the'
p4235
tp4236
a(S'amod'
p4237
S'mastermind'
p4238
S'alleged'
p4239
tp4240
a(S'appos'
p4241
S'Laden'
p4242
S'mastermind'
p4243
tp4244
a(S'det'
p4245
S'conspiracy'
p4246
g1031
tp4247
a(S'prep_of'
p4248
S'mastermind'
p4249
S'conspiracy'
p4250
tp4251
a(S'aux'
p4252
S'attack'
p4253
S'to'
p4254
tp4255
a(S'infmod'
p4256
S'conspiracy'
p4257
S'attack'
p4258
tp4259
a(S'nn'
p4260
S'targets'
p4261
S'U.S.'
p4262
tp4263
a(S'dobj'
p4264
S'attack'
p4265
S'targets'
p4266
tp4267
a(S'det'
p4268
S'world'
p4269
S'the'
p4270
tp4271
a(S'prep_around'
p4272
S'attack'
p4273
S'world'
p4274
tp4275
a(S'nn'
p4276
S'Atef'
p4277
S'Muhammad'
p4278
tp4279
a(S'conj_and'
p4280
S'mastermind'
p4281
S'Atef'
p4282
tp4283
a(S'det'
p4284
S'commander'
p4285
S'the'
p4286
tp4287
a(S'amod'
p4288
S'commander'
p4289
S'alleged'
p4290
tp4291
a(S'amod'
p4292
S'commander'
p4293
S'military'
p4294
tp4295
a(S'appos'
p4296
S'Atef'
p4297
S'commander'
p4298
tp4299
a(S'nn'
p4300
S'organization'
p4301
S'bin'
p4302
tp4303
a(S'nn'
p4304
S'organization'
p4305
S'Ladens'
p4306
tp4307
a(S'amod'
p4308
S'organization'
p4309
S'terrorist'
p4310
tp4311
a(S'prep_of'
p4312
S'commander'
p4313
S'organization'
p4314
tp4315
a(S'appos'
p4316
S'Atef'
p4317
S'Al-Qaeda'
p4318
tp4319
a(S'auxpass'
p4320
S'charged'
p4321
S'were'
p4322
tp4323
a(S'det'
p4324
S'indictment'
p4325
g1031
tp4326
a(S'amod'
p4327
S'indictment'
p4328
S'separate'
p4329
tp4330
a(S'amod'
p4331
S'indictment'
p4332
S'238-page'
p4333
tp4334
a(S'prep_in'
p4335
S'charged'
p4336
S'indictment'
p4337
tp4338
a(S'prep_with'
p4339
S'indictment'
p4340
S'murder'
p4341
tp4342
a(S'conj_and'
p4343
S'murder'
p4344
S'conspiracy'
p4345
tp4346
a(S'det'
p4347
S'bombings'
p4348
S'the'
p4349
tp4350
a(S'prep_in'
p4351
S'charged'
p4352
S'bombings'
p4353
tp4354
asg61
(lp4355
(g4209
S'ROOT-0'
p4356
S'charged-38'
p4357
tp4358
a(g4213
S'Laden-5'
p4359
S'Saudi-1'
p4360
tp4361
a(g4217
S'Laden-5'
p4362
S'exile-2'
p4363
tp4364
a(g4221
S'Laden-5'
p4365
S'Osama-3'
p4366
tp4367
a(g4225
S'Laden-5'
p4368
S'bin-4'
p4369
tp4370
a(g4229
S'charged-38'
p4371
S'Laden-5'
p4372
tp4373
a(g4233
S'mastermind-9'
p4374
S'the-7'
p4375
tp4376
a(g4237
S'mastermind-9'
p4377
S'alleged-8'
p4378
tp4379
a(g4241
S'Laden-5'
p4380
S'mastermind-9'
p4381
tp4382
a(g4245
S'conspiracy-12'
p4383
S'a-11'
p4384
tp4385
a(g4248
S'mastermind-9'
p4386
S'conspiracy-12'
p4387
tp4388
a(g4252
S'attack-14'
p4389
S'to-13'
p4390
tp4391
a(g4256
S'conspiracy-12'
p4392
S'attack-14'
p4393
tp4394
a(g4260
S'targets-16'
p4395
S'U.S.-15'
p4396
tp4397
a(g4264
S'attack-14'
p4398
S'targets-16'
p4399
tp4400
a(g4268
S'world-19'
p4401
S'the-18'
p4402
tp4403
a(g4272
S'attack-14'
p4404
S'world-19'
p4405
tp4406
a(g4276
S'Atef-23'
p4407
S'Muhammad-22'
p4408
tp4409
a(g4280
S'mastermind-9'
p4410
S'Atef-23'
p4411
tp4412
a(g4284
S'commander-28'
p4413
S'the-25'
p4414
tp4415
a(g4288
S'commander-28'
p4416
S'alleged-26'
p4417
tp4418
a(g4292
S'commander-28'
p4419
S'military-27'
p4420
tp4421
a(g4296
S'Atef-23'
p4422
S'commander-28'
p4423
tp4424
a(g4300
S'organization-33'
p4425
S'bin-30'
p4426
tp4427
a(g4304
S'organization-33'
p4428
S'Ladens-31'
p4429
tp4430
a(g4308
S'organization-33'
p4431
S'terrorist-32'
p4432
tp4433
a(g4312
S'commander-28'
p4434
S'organization-33'
p4435
tp4436
a(g4316
S'Atef-23'
p4437
S'Al-Qaeda-35'
p4438
tp4439
a(g4320
S'charged-38'
p4440
S'were-37'
p4441
tp4442
a(g4324
S'indictment-43'
p4443
S'a-40'
p4444
tp4445
a(g4327
S'indictment-43'
p4446
S'separate-41'
p4447
tp4448
a(g4331
S'indictment-43'
p4449
S'238-page-42'
p4450
tp4451
a(g4335
S'charged-38'
p4452
S'indictment-43'
p4453
tp4454
a(g4339
S'indictment-43'
p4455
S'murder-45'
p4456
tp4457
a(g4343
S'murder-45'
p4458
S'conspiracy-47'
p4459
tp4460
a(g4347
S'bombings-50'
p4461
S'the-49'
p4462
tp4463
a(g4351
S'charged-38'
p4464
S'bombings-50'
p4465
tp4466
asg93
(lp4467
(S'Saudi'
p4468
(dp4469
S'NamedEntityTag'
p4470
S'MISC'
p4471
sS'CharacterOffsetEnd'
p4472
S'1008'
p4473
sS'Lemma'
p4474
S'saudi'
p4475
sS'PartOfSpeech'
p4476
S'JJ'
p4477
sS'CharacterOffsetBegin'
p4478
S'1003'
p4479
stp4480
a(S'exile'
p4481
(dp4482
S'NamedEntityTag'
p4483
g111
sS'CharacterOffsetEnd'
p4484
S'1014'
p4485
sS'Lemma'
p4486
S'exile'
p4487
sS'PartOfSpeech'
p4488
S'NN'
p4489
sS'CharacterOffsetBegin'
p4490
S'1009'
p4491
stp4492
a(S'Osama'
p4493
(dp4494
S'NamedEntityTag'
p4495
S'PERSON'
p4496
sS'CharacterOffsetEnd'
p4497
S'1020'
p4498
sS'Lemma'
p4499
S'Osama'
p4500
sS'PartOfSpeech'
p4501
S'NNP'
p4502
sS'CharacterOffsetBegin'
p4503
S'1015'
p4504
stp4505
a(S'bin'
p4506
(dp4507
S'NamedEntityTag'
p4508
S'PERSON'
p4509
sS'CharacterOffsetEnd'
p4510
S'1024'
p4511
sS'Lemma'
p4512
S'bin'
p4513
sS'PartOfSpeech'
p4514
S'NNP'
p4515
sS'CharacterOffsetBegin'
p4516
S'1021'
p4517
stp4518
a(S'Laden'
p4519
(dp4520
S'NamedEntityTag'
p4521
S'PERSON'
p4522
sS'CharacterOffsetEnd'
p4523
S'1030'
p4524
sS'Lemma'
p4525
S'Laden'
p4526
sS'PartOfSpeech'
p4527
S'NNP'
p4528
sS'CharacterOffsetBegin'
p4529
S'1025'
p4530
stp4531
a(g108
(dp4532
S'NamedEntityTag'
p4533
g111
sS'CharacterOffsetEnd'
p4534
S'1031'
p4535
sS'Lemma'
p4536
g108
sS'PartOfSpeech'
p4537
g108
sS'CharacterOffsetBegin'
p4538
S'1030'
p4539
stp4540
a(S'the'
p4541
(dp4542
S'NamedEntityTag'
p4543
g111
sS'CharacterOffsetEnd'
p4544
S'1035'
p4545
sS'Lemma'
p4546
S'the'
p4547
sS'PartOfSpeech'
p4548
S'DT'
p4549
sS'CharacterOffsetBegin'
p4550
S'1032'
p4551
stp4552
a(S'alleged'
p4553
(dp4554
S'NamedEntityTag'
p4555
g111
sS'CharacterOffsetEnd'
p4556
S'1043'
p4557
sS'Lemma'
p4558
S'alleged'
p4559
sS'PartOfSpeech'
p4560
S'JJ'
p4561
sS'CharacterOffsetBegin'
p4562
S'1036'
p4563
stp4564
a(S'mastermind'
p4565
(dp4566
S'NamedEntityTag'
p4567
g111
sS'CharacterOffsetEnd'
p4568
S'1054'
p4569
sS'Lemma'
p4570
S'mastermind'
p4571
sS'PartOfSpeech'
p4572
S'NN'
p4573
sS'CharacterOffsetBegin'
p4574
S'1044'
p4575
stp4576
a(S'of'
p4577
(dp4578
S'NamedEntityTag'
p4579
g111
sS'CharacterOffsetEnd'
p4580
S'1057'
p4581
sS'Lemma'
p4582
S'of'
p4583
sS'PartOfSpeech'
p4584
S'IN'
p4585
sS'CharacterOffsetBegin'
p4586
S'1055'
p4587
stp4588
a(g1031
(dp4589
S'NamedEntityTag'
p4590
g111
sS'CharacterOffsetEnd'
p4591
S'1059'
p4592
sS'Lemma'
p4593
g1031
sS'PartOfSpeech'
p4594
S'DT'
p4595
sS'CharacterOffsetBegin'
p4596
S'1058'
p4597
stp4598
a(S'conspiracy'
p4599
(dp4600
S'NamedEntityTag'
p4601
g111
sS'CharacterOffsetEnd'
p4602
S'1070'
p4603
sS'Lemma'
p4604
S'conspiracy'
p4605
sS'PartOfSpeech'
p4606
S'NN'
p4607
sS'CharacterOffsetBegin'
p4608
S'1060'
p4609
stp4610
a(S'to'
p4611
(dp4612
S'NamedEntityTag'
p4613
g111
sS'CharacterOffsetEnd'
p4614
S'1073'
p4615
sS'Lemma'
p4616
S'to'
p4617
sS'PartOfSpeech'
p4618
S'TO'
p4619
sS'CharacterOffsetBegin'
p4620
S'1071'
p4621
stp4622
a(S'attack'
p4623
(dp4624
S'NamedEntityTag'
p4625
g111
sS'CharacterOffsetEnd'
p4626
S'1080'
p4627
sS'Lemma'
p4628
S'attack'
p4629
sS'PartOfSpeech'
p4630
S'VB'
p4631
sS'CharacterOffsetBegin'
p4632
S'1074'
p4633
stp4634
a(S'U.S.'
p4635
(dp4636
S'NamedEntityTag'
p4637
S'LOCATION'
p4638
sS'CharacterOffsetEnd'
p4639
S'1085'
p4640
sS'Lemma'
p4641
S'U.S.'
p4642
sS'PartOfSpeech'
p4643
S'NNP'
p4644
sS'CharacterOffsetBegin'
p4645
S'1081'
p4646
stp4647
a(S'targets'
p4648
(dp4649
S'NamedEntityTag'
p4650
g111
sS'CharacterOffsetEnd'
p4651
S'1093'
p4652
sS'Lemma'
p4653
S'target'
p4654
sS'PartOfSpeech'
p4655
S'NNS'
p4656
sS'CharacterOffsetBegin'
p4657
S'1086'
p4658
stp4659
a(S'around'
p4660
(dp4661
S'NamedEntityTag'
p4662
g111
sS'CharacterOffsetEnd'
p4663
S'1100'
p4664
sS'Lemma'
p4665
S'around'
p4666
sS'PartOfSpeech'
p4667
S'IN'
p4668
sS'CharacterOffsetBegin'
p4669
S'1094'
p4670
stp4671
a(S'the'
p4672
(dp4673
S'NamedEntityTag'
p4674
g111
sS'CharacterOffsetEnd'
p4675
S'1104'
p4676
sS'Lemma'
p4677
S'the'
p4678
sS'PartOfSpeech'
p4679
S'DT'
p4680
sS'CharacterOffsetBegin'
p4681
S'1101'
p4682
stp4683
a(S'world'
p4684
(dp4685
S'NamedEntityTag'
p4686
g111
sS'CharacterOffsetEnd'
p4687
S'1110'
p4688
sS'Lemma'
p4689
S'world'
p4690
sS'PartOfSpeech'
p4691
S'NN'
p4692
sS'CharacterOffsetBegin'
p4693
S'1105'
p4694
stp4695
a(g108
(dp4696
S'NamedEntityTag'
p4697
g111
sS'CharacterOffsetEnd'
p4698
S'1111'
p4699
sS'Lemma'
p4700
g108
sS'PartOfSpeech'
p4701
g108
sS'CharacterOffsetBegin'
p4702
S'1110'
p4703
stp4704
a(S'and'
p4705
(dp4706
S'NamedEntityTag'
p4707
g111
sS'CharacterOffsetEnd'
p4708
S'1115'
p4709
sS'Lemma'
p4710
S'and'
p4711
sS'PartOfSpeech'
p4712
S'CC'
p4713
sS'CharacterOffsetBegin'
p4714
S'1112'
p4715
stp4716
a(S'Muhammad'
p4717
(dp4718
S'NamedEntityTag'
p4719
S'PERSON'
p4720
sS'CharacterOffsetEnd'
p4721
S'1124'
p4722
sS'Lemma'
p4723
S'Muhammad'
p4724
sS'PartOfSpeech'
p4725
S'NNP'
p4726
sS'CharacterOffsetBegin'
p4727
S'1116'
p4728
stp4729
a(S'Atef'
p4730
(dp4731
S'NamedEntityTag'
p4732
S'PERSON'
p4733
sS'CharacterOffsetEnd'
p4734
S'1129'
p4735
sS'Lemma'
p4736
S'Atef'
p4737
sS'PartOfSpeech'
p4738
S'NNP'
p4739
sS'CharacterOffsetBegin'
p4740
S'1125'
p4741
stp4742
a(g108
(dp4743
S'NamedEntityTag'
p4744
g111
sS'CharacterOffsetEnd'
p4745
S'1130'
p4746
sS'Lemma'
p4747
g108
sS'PartOfSpeech'
p4748
g108
sS'CharacterOffsetBegin'
p4749
S'1129'
p4750
stp4751
a(S'the'
p4752
(dp4753
S'NamedEntityTag'
p4754
g111
sS'CharacterOffsetEnd'
p4755
S'1134'
p4756
sS'Lemma'
p4757
S'the'
p4758
sS'PartOfSpeech'
p4759
S'DT'
p4760
sS'CharacterOffsetBegin'
p4761
S'1131'
p4762
stp4763
a(S'alleged'
p4764
(dp4765
S'NamedEntityTag'
p4766
g111
sS'CharacterOffsetEnd'
p4767
S'1142'
p4768
sS'Lemma'
p4769
S'alleged'
p4770
sS'PartOfSpeech'
p4771
S'JJ'
p4772
sS'CharacterOffsetBegin'
p4773
S'1135'
p4774
stp4775
a(S'military'
p4776
(dp4777
S'NamedEntityTag'
p4778
g111
sS'CharacterOffsetEnd'
p4779
S'1151'
p4780
sS'Lemma'
p4781
S'military'
p4782
sS'PartOfSpeech'
p4783
S'JJ'
p4784
sS'CharacterOffsetBegin'
p4785
S'1143'
p4786
stp4787
a(S'commander'
p4788
(dp4789
S'NamedEntityTag'
p4790
g111
sS'CharacterOffsetEnd'
p4791
S'1161'
p4792
sS'Lemma'
p4793
S'commander'
p4794
sS'PartOfSpeech'
p4795
S'NN'
p4796
sS'CharacterOffsetBegin'
p4797
S'1152'
p4798
stp4799
a(S'of'
p4800
(dp4801
S'NamedEntityTag'
p4802
g111
sS'CharacterOffsetEnd'
p4803
S'1164'
p4804
sS'Lemma'
p4805
S'of'
p4806
sS'PartOfSpeech'
p4807
S'IN'
p4808
sS'CharacterOffsetBegin'
p4809
S'1162'
p4810
stp4811
a(S'bin'
p4812
(dp4813
S'NamedEntityTag'
p4814
g111
sS'CharacterOffsetEnd'
p4815
S'1168'
p4816
sS'Lemma'
p4817
S'bin'
p4818
sS'PartOfSpeech'
p4819
S'NNP'
p4820
sS'CharacterOffsetBegin'
p4821
S'1165'
p4822
stp4823
a(S'Ladens'
p4824
(dp4825
S'NamedEntityTag'
p4826
S'LOCATION'
p4827
sS'CharacterOffsetEnd'
p4828
S'1175'
p4829
sS'Lemma'
p4830
S'Ladens'
p4831
sS'PartOfSpeech'
p4832
S'NNP'
p4833
sS'CharacterOffsetBegin'
p4834
S'1169'
p4835
stp4836
a(S'terrorist'
p4837
(dp4838
S'NamedEntityTag'
p4839
g111
sS'CharacterOffsetEnd'
p4840
S'1185'
p4841
sS'Lemma'
p4842
S'terrorist'
p4843
sS'PartOfSpeech'
p4844
S'JJ'
p4845
sS'CharacterOffsetBegin'
p4846
S'1176'
p4847
stp4848
a(S'organization'
p4849
(dp4850
S'NamedEntityTag'
p4851
g111
sS'CharacterOffsetEnd'
p4852
S'1198'
p4853
sS'Lemma'
p4854
S'organization'
p4855
sS'PartOfSpeech'
p4856
S'NN'
p4857
sS'CharacterOffsetBegin'
p4858
S'1186'
p4859
stp4860
a(g108
(dp4861
S'NamedEntityTag'
p4862
g111
sS'CharacterOffsetEnd'
p4863
S'1199'
p4864
sS'Lemma'
p4865
g108
sS'PartOfSpeech'
p4866
g108
sS'CharacterOffsetBegin'
p4867
S'1198'
p4868
stp4869
a(S'Al-Qaeda'
p4870
(dp4871
S'NamedEntityTag'
p4872
g111
sS'CharacterOffsetEnd'
p4873
S'1208'
p4874
sS'Lemma'
p4875
S'Al-Qaeda'
p4876
sS'PartOfSpeech'
p4877
S'NNP'
p4878
sS'CharacterOffsetBegin'
p4879
S'1200'
p4880
stp4881
a(g108
(dp4882
S'NamedEntityTag'
p4883
g111
sS'CharacterOffsetEnd'
p4884
S'1209'
p4885
sS'Lemma'
p4886
g108
sS'PartOfSpeech'
p4887
g108
sS'CharacterOffsetBegin'
p4888
S'1208'
p4889
stp4890
a(S'were'
p4891
(dp4892
S'NamedEntityTag'
p4893
g111
sS'CharacterOffsetEnd'
p4894
S'1214'
p4895
sS'Lemma'
p4896
S'be'
p4897
sS'PartOfSpeech'
p4898
S'VBD'
p4899
sS'CharacterOffsetBegin'
p4900
S'1210'
p4901
stp4902
a(S'charged'
p4903
(dp4904
S'NamedEntityTag'
p4905
g111
sS'CharacterOffsetEnd'
p4906
S'1222'
p4907
sS'Lemma'
p4908
S'charge'
p4909
sS'PartOfSpeech'
p4910
S'VBN'
p4911
sS'CharacterOffsetBegin'
p4912
S'1215'
p4913
stp4914
a(S'in'
p4915
(dp4916
S'NamedEntityTag'
p4917
g111
sS'CharacterOffsetEnd'
p4918
S'1225'
p4919
sS'Lemma'
p4920
S'in'
p4921
sS'PartOfSpeech'
p4922
S'IN'
p4923
sS'CharacterOffsetBegin'
p4924
S'1223'
p4925
stp4926
a(g1031
(dp4927
S'NamedEntityTag'
p4928
g111
sS'CharacterOffsetEnd'
p4929
S'1227'
p4930
sS'Lemma'
p4931
g1031
sS'PartOfSpeech'
p4932
S'DT'
p4933
sS'CharacterOffsetBegin'
p4934
S'1226'
p4935
stp4936
a(S'separate'
p4937
(dp4938
S'NamedEntityTag'
p4939
g111
sS'CharacterOffsetEnd'
p4940
S'1236'
p4941
sS'Lemma'
p4942
S'separate'
p4943
sS'PartOfSpeech'
p4944
S'JJ'
p4945
sS'CharacterOffsetBegin'
p4946
S'1228'
p4947
stp4948
a(S'238-page'
p4949
(dp4950
S'NamedEntityTag'
p4951
g111
sS'CharacterOffsetEnd'
p4952
S'1245'
p4953
sS'Lemma'
p4954
S'238-page'
p4955
sS'PartOfSpeech'
p4956
S'JJ'
p4957
sS'CharacterOffsetBegin'
p4958
S'1237'
p4959
stp4960
a(S'indictment'
p4961
(dp4962
S'NamedEntityTag'
p4963
g111
sS'CharacterOffsetEnd'
p4964
S'1256'
p4965
sS'Lemma'
p4966
S'indictment'
p4967
sS'PartOfSpeech'
p4968
S'NN'
p4969
sS'CharacterOffsetBegin'
p4970
S'1246'
p4971
stp4972
a(S'with'
p4973
(dp4974
S'NamedEntityTag'
p4975
g111
sS'CharacterOffsetEnd'
p4976
S'1261'
p4977
sS'Lemma'
p4978
S'with'
p4979
sS'PartOfSpeech'
p4980
S'IN'
p4981
sS'CharacterOffsetBegin'
p4982
S'1257'
p4983
stp4984
a(S'murder'
p4985
(dp4986
S'NamedEntityTag'
p4987
g111
sS'CharacterOffsetEnd'
p4988
S'1268'
p4989
sS'Lemma'
p4990
S'murder'
p4991
sS'PartOfSpeech'
p4992
S'NN'
p4993
sS'CharacterOffsetBegin'
p4994
S'1262'
p4995
stp4996
a(S'and'
p4997
(dp4998
S'NamedEntityTag'
p4999
g111
sS'CharacterOffsetEnd'
p5000
S'1272'
p5001
sS'Lemma'
p5002
S'and'
p5003
sS'PartOfSpeech'
p5004
S'CC'
p5005
sS'CharacterOffsetBegin'
p5006
S'1269'
p5007
stp5008
a(S'conspiracy'
p5009
(dp5010
S'NamedEntityTag'
p5011
g111
sS'CharacterOffsetEnd'
p5012
S'1283'
p5013
sS'Lemma'
p5014
S'conspiracy'
p5015
sS'PartOfSpeech'
p5016
S'NN'
p5017
sS'CharacterOffsetBegin'
p5018
S'1273'
p5019
stp5020
a(S'in'
p5021
(dp5022
S'NamedEntityTag'
p5023
g111
sS'CharacterOffsetEnd'
p5024
S'1286'
p5025
sS'Lemma'
p5026
S'in'
p5027
sS'PartOfSpeech'
p5028
S'IN'
p5029
sS'CharacterOffsetBegin'
p5030
S'1284'
p5031
stp5032
a(S'the'
p5033
(dp5034
S'NamedEntityTag'
p5035
g111
sS'CharacterOffsetEnd'
p5036
S'1290'
p5037
sS'Lemma'
p5038
S'the'
p5039
sS'PartOfSpeech'
p5040
S'DT'
p5041
sS'CharacterOffsetBegin'
p5042
S'1287'
p5043
stp5044
a(S'bombings'
p5045
(dp5046
S'NamedEntityTag'
p5047
g111
sS'CharacterOffsetEnd'
p5048
S'1299'
p5049
sS'Lemma'
p5050
S'bombing'
p5051
sS'PartOfSpeech'
p5052
S'NNS'
p5053
sS'CharacterOffsetBegin'
p5054
S'1291'
p5055
stp5056
a(g648
(dp5057
S'NamedEntityTag'
p5058
g111
sS'CharacterOffsetEnd'
p5059
S'1300'
p5060
sS'Lemma'
p5061
g648
sS'PartOfSpeech'
p5062
g648
sS'CharacterOffsetBegin'
p5063
S'1299'
p5064
stp5065
asa(dp5066
g15
S'(ROOT (S (NP (NNP Bin) (NNP Laden)) (VP (VBZ is) (VP (VBN believed) (S (VP (TO to) (VP (VB be) (VP (VBG living) (PP (IN in) (NP (NNP Afghanistan))))))))) (. .)))'
p5067
sg17
S'Bin Laden is believed to be living in Afghanistan.'
p5068
sg19
(lp5069
(S'root'
p5070
S'ROOT'
p5071
S'believed'
p5072
tp5073
a(S'nn'
p5074
S'Laden'
p5075
S'Bin'
p5076
tp5077
a(S'nsubjpass'
p5078
S'believed'
p5079
S'Laden'
p5080
tp5081
a(S'auxpass'
p5082
S'believed'
p5083
S'is'
p5084
tp5085
a(S'aux'
p5086
S'living'
p5087
S'to'
p5088
tp5089
a(S'aux'
p5090
S'living'
p5091
S'be'
p5092
tp5093
a(S'xcomp'
p5094
S'believed'
p5095
S'living'
p5096
tp5097
a(S'prep_in'
p5098
S'living'
p5099
S'Afghanistan'
p5100
tp5101
asg61
(lp5102
(g5070
S'ROOT-0'
p5103
S'believed-4'
p5104
tp5105
a(g5074
S'Laden-2'
p5106
S'Bin-1'
p5107
tp5108
a(g5078
S'believed-4'
p5109
S'Laden-2'
p5110
tp5111
a(g5082
S'believed-4'
p5112
S'is-3'
p5113
tp5114
a(g5086
S'living-7'
p5115
S'to-5'
p5116
tp5117
a(g5090
S'living-7'
p5118
S'be-6'
p5119
tp5120
a(g5094
S'believed-4'
p5121
S'living-7'
p5122
tp5123
a(g5098
S'living-7'
p5124
S'Afghanistan-9'
p5125
tp5126
asg93
(lp5127
(S'Bin'
p5128
(dp5129
S'NamedEntityTag'
p5130
S'PERSON'
p5131
sS'CharacterOffsetEnd'
p5132
S'1304'
p5133
sS'Lemma'
p5134
S'Bin'
p5135
sS'PartOfSpeech'
p5136
S'NNP'
p5137
sS'CharacterOffsetBegin'
p5138
S'1301'
p5139
stp5140
a(S'Laden'
p5141
(dp5142
S'NamedEntityTag'
p5143
S'PERSON'
p5144
sS'CharacterOffsetEnd'
p5145
S'1310'
p5146
sS'Lemma'
p5147
S'Laden'
p5148
sS'PartOfSpeech'
p5149
S'NNP'
p5150
sS'CharacterOffsetBegin'
p5151
S'1305'
p5152
stp5153
a(S'is'
p5154
(dp5155
S'NamedEntityTag'
p5156
g111
sS'CharacterOffsetEnd'
p5157
S'1313'
p5158
sS'Lemma'
p5159
S'be'
p5160
sS'PartOfSpeech'
p5161
S'VBZ'
p5162
sS'CharacterOffsetBegin'
p5163
S'1311'
p5164
stp5165
a(S'believed'
p5166
(dp5167
S'NamedEntityTag'
p5168
g111
sS'CharacterOffsetEnd'
p5169
S'1322'
p5170
sS'Lemma'
p5171
S'believe'
p5172
sS'PartOfSpeech'
p5173
S'VBN'
p5174
sS'CharacterOffsetBegin'
p5175
S'1314'
p5176
stp5177
a(S'to'
p5178
(dp5179
S'NamedEntityTag'
p5180
g111
sS'CharacterOffsetEnd'
p5181
S'1325'
p5182
sS'Lemma'
p5183
S'to'
p5184
sS'PartOfSpeech'
p5185
S'TO'
p5186
sS'CharacterOffsetBegin'
p5187
S'1323'
p5188
stp5189
a(S'be'
p5190
(dp5191
S'NamedEntityTag'
p5192
g111
sS'CharacterOffsetEnd'
p5193
S'1328'
p5194
sS'Lemma'
p5195
S'be'
p5196
sS'PartOfSpeech'
p5197
S'VB'
p5198
sS'CharacterOffsetBegin'
p5199
S'1326'
p5200
stp5201
a(S'living'
p5202
(dp5203
S'NamedEntityTag'
p5204
g111
sS'CharacterOffsetEnd'
p5205
S'1335'
p5206
sS'Lemma'
p5207
S'live'
p5208
sS'PartOfSpeech'
p5209
S'VBG'
p5210
sS'CharacterOffsetBegin'
p5211
S'1329'
p5212
stp5213
a(S'in'
p5214
(dp5215
S'NamedEntityTag'
p5216
g111
sS'CharacterOffsetEnd'
p5217
S'1338'
p5218
sS'Lemma'
p5219
S'in'
p5220
sS'PartOfSpeech'
p5221
S'IN'
p5222
sS'CharacterOffsetBegin'
p5223
S'1336'
p5224
stp5225
a(S'Afghanistan'
p5226
(dp5227
S'NamedEntityTag'
p5228
S'LOCATION'
p5229
sS'CharacterOffsetEnd'
p5230
S'1350'
p5231
sS'Lemma'
p5232
S'Afghanistan'
p5233
sS'PartOfSpeech'
p5234
S'NNP'
p5235
sS'CharacterOffsetBegin'
p5236
S'1339'
p5237
stp5238
a(g648
(dp5239
S'NamedEntityTag'
p5240
g111
sS'CharacterOffsetEnd'
p5241
S'1351'
p5242
sS'Lemma'
p5243
g648
sS'PartOfSpeech'
p5244
g648
sS'CharacterOffsetBegin'
p5245
S'1350'
p5246
stp5247
asa(dp5248
g15
S'(ROOT (S (NP (NNP U.S.) (NN law)) (VP (VBZ provides) (PP (IN for) (NP (NP (DT the) (NN trial)) (PP (IN in) (NP (NP (DT the) (NNP United) (NNPS States)) (PP (IN of) (NP (NP (DT those)) (VP (VBN charged) (PP (IN in) (NP (NP (NN terror) (NNS attacks)) (PP (IN against) (NP (JJ American) (NNS citizens))))) (, ,) (SBAR (RB even) (IN if) (S (VP (VBN carried) (PRT (RP out)) (PP (IN on) (NP (JJ foreign) (NN soil)))))))))))))) (. .)))'
p5249
sg17
S'U.S. law provides for the trial in the United States of those charged in terror attacks against American citizens, even if carried out on foreign soil.'
p5250
sg19
(lp5251
(S'root'
p5252
S'ROOT'
p5253
S'provides'
p5254
tp5255
a(S'nn'
p5256
S'law'
p5257
S'U.S.'
p5258
tp5259
a(S'nsubj'
p5260
S'provides'
p5261
S'law'
p5262
tp5263
a(S'det'
p5264
S'trial'
p5265
S'the'
p5266
tp5267
a(S'prep_for'
p5268
S'provides'
p5269
S'trial'
p5270
tp5271
a(S'det'
p5272
S'States'
p5273
S'the'
p5274
tp5275
a(S'nn'
p5276
S'States'
p5277
S'United'
p5278
tp5279
a(S'prep_in'
p5280
S'trial'
p5281
S'States'
p5282
tp5283
a(S'prep_of'
p5284
S'States'
p5285
S'those'
p5286
tp5287
a(S'partmod'
p5288
S'those'
p5289
S'charged'
p5290
tp5291
a(S'nn'
p5292
S'attacks'
p5293
S'terror'
p5294
tp5295
a(S'prep_in'
p5296
S'charged'
p5297
S'attacks'
p5298
tp5299
a(S'amod'
p5300
S'citizens'
p5301
S'American'
p5302
tp5303
a(S'prep_against'
p5304
S'attacks'
p5305
S'citizens'
p5306
tp5307
a(S'advmod'
p5308
S'carried'
p5309
S'even'
p5310
tp5311
a(S'mark'
p5312
S'carried'
p5313
S'if'
p5314
tp5315
a(S'advcl'
p5316
S'charged'
p5317
S'carried'
p5318
tp5319
a(S'prt'
p5320
S'carried'
p5321
S'out'
p5322
tp5323
a(S'amod'
p5324
S'soil'
p5325
S'foreign'
p5326
tp5327
a(S'prep_on'
p5328
S'carried'
p5329
S'soil'
p5330
tp5331
asg61
(lp5332
(g5252
S'ROOT-0'
p5333
S'provides-3'
p5334
tp5335
a(g5256
S'law-2'
p5336
S'U.S.-1'
p5337
tp5338
a(g5260
S'provides-3'
p5339
S'law-2'
p5340
tp5341
a(g5264
S'trial-6'
p5342
S'the-5'
p5343
tp5344
a(g5268
S'provides-3'
p5345
S'trial-6'
p5346
tp5347
a(g5272
S'States-10'
p5348
S'the-8'
p5349
tp5350
a(g5276
S'States-10'
p5351
S'United-9'
p5352
tp5353
a(g5280
S'trial-6'
p5354
S'States-10'
p5355
tp5356
a(g5284
S'States-10'
p5357
S'those-12'
p5358
tp5359
a(g5288
S'those-12'
p5360
S'charged-13'
p5361
tp5362
a(g5292
S'attacks-16'
p5363
S'terror-15'
p5364
tp5365
a(g5296
S'charged-13'
p5366
S'attacks-16'
p5367
tp5368
a(g5300
S'citizens-19'
p5369
S'American-18'
p5370
tp5371
a(g5304
S'attacks-16'
p5372
S'citizens-19'
p5373
tp5374
a(g5308
S'carried-23'
p5375
S'even-21'
p5376
tp5377
a(g5312
S'carried-23'
p5378
S'if-22'
p5379
tp5380
a(g5316
S'charged-13'
p5381
S'carried-23'
p5382
tp5383
a(g5320
S'carried-23'
p5384
S'out-24'
p5385
tp5386
a(g5324
S'soil-27'
p5387
S'foreign-26'
p5388
tp5389
a(g5328
S'carried-23'
p5390
S'soil-27'
p5391
tp5392
asg93
(lp5393
(S'U.S.'
p5394
(dp5395
S'NamedEntityTag'
p5396
S'LOCATION'
p5397
sS'CharacterOffsetEnd'
p5398
S'1356'
p5399
sS'Lemma'
p5400
S'U.S.'
p5401
sS'PartOfSpeech'
p5402
S'NNP'
p5403
sS'CharacterOffsetBegin'
p5404
S'1352'
p5405
stp5406
a(S'law'
p5407
(dp5408
S'NamedEntityTag'
p5409
g111
sS'CharacterOffsetEnd'
p5410
S'1360'
p5411
sS'Lemma'
p5412
S'law'
p5413
sS'PartOfSpeech'
p5414
S'NN'
p5415
sS'CharacterOffsetBegin'
p5416
S'1357'
p5417
stp5418
a(S'provides'
p5419
(dp5420
S'NamedEntityTag'
p5421
g111
sS'CharacterOffsetEnd'
p5422
S'1369'
p5423
sS'Lemma'
p5424
S'provide'
p5425
sS'PartOfSpeech'
p5426
S'VBZ'
p5427
sS'CharacterOffsetBegin'
p5428
S'1361'
p5429
stp5430
a(S'for'
p5431
(dp5432
S'NamedEntityTag'
p5433
g111
sS'CharacterOffsetEnd'
p5434
S'1373'
p5435
sS'Lemma'
p5436
S'for'
p5437
sS'PartOfSpeech'
p5438
S'IN'
p5439
sS'CharacterOffsetBegin'
p5440
S'1370'
p5441
stp5442
a(S'the'
p5443
(dp5444
S'NamedEntityTag'
p5445
g111
sS'CharacterOffsetEnd'
p5446
S'1377'
p5447
sS'Lemma'
p5448
S'the'
p5449
sS'PartOfSpeech'
p5450
S'DT'
p5451
sS'CharacterOffsetBegin'
p5452
S'1374'
p5453
stp5454
a(S'trial'
p5455
(dp5456
S'NamedEntityTag'
p5457
g111
sS'CharacterOffsetEnd'
p5458
S'1383'
p5459
sS'Lemma'
p5460
S'trial'
p5461
sS'PartOfSpeech'
p5462
S'NN'
p5463
sS'CharacterOffsetBegin'
p5464
S'1378'
p5465
stp5466
a(S'in'
p5467
(dp5468
S'NamedEntityTag'
p5469
g111
sS'CharacterOffsetEnd'
p5470
S'1386'
p5471
sS'Lemma'
p5472
S'in'
p5473
sS'PartOfSpeech'
p5474
S'IN'
p5475
sS'CharacterOffsetBegin'
p5476
S'1384'
p5477
stp5478
a(S'the'
p5479
(dp5480
S'NamedEntityTag'
p5481
g111
sS'CharacterOffsetEnd'
p5482
S'1390'
p5483
sS'Lemma'
p5484
S'the'
p5485
sS'PartOfSpeech'
p5486
S'DT'
p5487
sS'CharacterOffsetBegin'
p5488
S'1387'
p5489
stp5490
a(S'United'
p5491
(dp5492
S'NamedEntityTag'
p5493
S'LOCATION'
p5494
sS'CharacterOffsetEnd'
p5495
S'1397'
p5496
sS'Lemma'
p5497
S'United'
p5498
sS'PartOfSpeech'
p5499
S'NNP'
p5500
sS'CharacterOffsetBegin'
p5501
S'1391'
p5502
stp5503
a(S'States'
p5504
(dp5505
S'NamedEntityTag'
p5506
S'LOCATION'
p5507
sS'CharacterOffsetEnd'
p5508
S'1404'
p5509
sS'Lemma'
p5510
S'States'
p5511
sS'PartOfSpeech'
p5512
S'NNPS'
p5513
sS'CharacterOffsetBegin'
p5514
S'1398'
p5515
stp5516
a(S'of'
p5517
(dp5518
S'NamedEntityTag'
p5519
g111
sS'CharacterOffsetEnd'
p5520
S'1407'
p5521
sS'Lemma'
p5522
S'of'
p5523
sS'PartOfSpeech'
p5524
S'IN'
p5525
sS'CharacterOffsetBegin'
p5526
S'1405'
p5527
stp5528
a(S'those'
p5529
(dp5530
S'NamedEntityTag'
p5531
g111
sS'CharacterOffsetEnd'
p5532
S'1413'
p5533
sS'Lemma'
p5534
S'those'
p5535
sS'PartOfSpeech'
p5536
S'DT'
p5537
sS'CharacterOffsetBegin'
p5538
S'1408'
p5539
stp5540
a(S'charged'
p5541
(dp5542
S'NamedEntityTag'
p5543
g111
sS'CharacterOffsetEnd'
p5544
S'1421'
p5545
sS'Lemma'
p5546
S'charge'
p5547
sS'PartOfSpeech'
p5548
S'VBN'
p5549
sS'CharacterOffsetBegin'
p5550
S'1414'
p5551
stp5552
a(S'in'
p5553
(dp5554
S'NamedEntityTag'
p5555
g111
sS'CharacterOffsetEnd'
p5556
S'1424'
p5557
sS'Lemma'
p5558
S'in'
p5559
sS'PartOfSpeech'
p5560
S'IN'
p5561
sS'CharacterOffsetBegin'
p5562
S'1422'
p5563
stp5564
a(S'terror'
p5565
(dp5566
S'NamedEntityTag'
p5567
g111
sS'CharacterOffsetEnd'
p5568
S'1431'
p5569
sS'Lemma'
p5570
S'terror'
p5571
sS'PartOfSpeech'
p5572
S'NN'
p5573
sS'CharacterOffsetBegin'
p5574
S'1425'
p5575
stp5576
a(S'attacks'
p5577
(dp5578
S'NamedEntityTag'
p5579
g111
sS'CharacterOffsetEnd'
p5580
S'1439'
p5581
sS'Lemma'
p5582
S'attack'
p5583
sS'PartOfSpeech'
p5584
S'NNS'
p5585
sS'CharacterOffsetBegin'
p5586
S'1432'
p5587
stp5588
a(S'against'
p5589
(dp5590
S'NamedEntityTag'
p5591
g111
sS'CharacterOffsetEnd'
p5592
S'1447'
p5593
sS'Lemma'
p5594
S'against'
p5595
sS'PartOfSpeech'
p5596
S'IN'
p5597
sS'CharacterOffsetBegin'
p5598
S'1440'
p5599
stp5600
a(S'American'
p5601
(dp5602
S'NamedEntityTag'
p5603
S'MISC'
p5604
sS'CharacterOffsetEnd'
p5605
S'1456'
p5606
sS'Lemma'
p5607
S'american'
p5608
sS'PartOfSpeech'
p5609
S'JJ'
p5610
sS'CharacterOffsetBegin'
p5611
S'1448'
p5612
stp5613
a(S'citizens'
p5614
(dp5615
S'NamedEntityTag'
p5616
g111
sS'CharacterOffsetEnd'
p5617
S'1465'
p5618
sS'Lemma'
p5619
S'citizen'
p5620
sS'PartOfSpeech'
p5621
S'NNS'
p5622
sS'CharacterOffsetBegin'
p5623
S'1457'
p5624
stp5625
a(g108
(dp5626
S'NamedEntityTag'
p5627
g111
sS'CharacterOffsetEnd'
p5628
S'1466'
p5629
sS'Lemma'
p5630
g108
sS'PartOfSpeech'
p5631
g108
sS'CharacterOffsetBegin'
p5632
S'1465'
p5633
stp5634
a(S'even'
p5635
(dp5636
S'NamedEntityTag'
p5637
g111
sS'CharacterOffsetEnd'
p5638
S'1471'
p5639
sS'Lemma'
p5640
S'even'
p5641
sS'PartOfSpeech'
p5642
S'RB'
p5643
sS'CharacterOffsetBegin'
p5644
S'1467'
p5645
stp5646
a(S'if'
p5647
(dp5648
S'NamedEntityTag'
p5649
g111
sS'CharacterOffsetEnd'
p5650
S'1474'
p5651
sS'Lemma'
p5652
S'if'
p5653
sS'PartOfSpeech'
p5654
S'IN'
p5655
sS'CharacterOffsetBegin'
p5656
S'1472'
p5657
stp5658
a(S'carried'
p5659
(dp5660
S'NamedEntityTag'
p5661
g111
sS'CharacterOffsetEnd'
p5662
S'1482'
p5663
sS'Lemma'
p5664
S'carry'
p5665
sS'PartOfSpeech'
p5666
S'VBN'
p5667
sS'CharacterOffsetBegin'
p5668
S'1475'
p5669
stp5670
a(S'out'
p5671
(dp5672
S'NamedEntityTag'
p5673
g111
sS'CharacterOffsetEnd'
p5674
S'1486'
p5675
sS'Lemma'
p5676
S'out'
p5677
sS'PartOfSpeech'
p5678
S'RP'
p5679
sS'CharacterOffsetBegin'
p5680
S'1483'
p5681
stp5682
a(S'on'
p5683
(dp5684
S'NamedEntityTag'
p5685
g111
sS'CharacterOffsetEnd'
p5686
S'1489'
p5687
sS'Lemma'
p5688
S'on'
p5689
sS'PartOfSpeech'
p5690
S'IN'
p5691
sS'CharacterOffsetBegin'
p5692
S'1487'
p5693
stp5694
a(S'foreign'
p5695
(dp5696
S'NamedEntityTag'
p5697
g111
sS'CharacterOffsetEnd'
p5698
S'1497'
p5699
sS'Lemma'
p5700
S'foreign'
p5701
sS'PartOfSpeech'
p5702
S'JJ'
p5703
sS'CharacterOffsetBegin'
p5704
S'1490'
p5705
stp5706
a(S'soil'
p5707
(dp5708
S'NamedEntityTag'
p5709
g111
sS'CharacterOffsetEnd'
p5710
S'1502'
p5711
sS'Lemma'
p5712
S'soil'
p5713
sS'PartOfSpeech'
p5714
S'NN'
p5715
sS'CharacterOffsetBegin'
p5716
S'1498'
p5717
stp5718
a(g648
(dp5719
S'NamedEntityTag'
p5720
g111
sS'CharacterOffsetEnd'
p5721
S'1503'
p5722
sS'Lemma'
p5723
g648
sS'PartOfSpeech'
p5724
g648
sS'CharacterOffsetBegin'
p5725
S'1502'
p5726
stp5727
asass.