(dp0
S'models'
p1
(lp2
(dp3
S'coref'
p4
(lp5
(lp6
((S'bypass in 1996'
p7
I1
I3
I3
I6
tp8
(S'Heart attack'
p9
I1
I1
I0
I2
tp10
tp11
aasS'sentences'
p12
(lp13
(dp14
S'parsetree'
p15
S'(ROOT (S (NP (NNP Drs.)) (VP (VBP say) (S (NP (NNP Yeltsin) (NN health)) (ADJP (ADVP (RBR more) (CC or) (RBR less)) (JJ normal)))) (. .)))'
p16
sS'text'
p17
S'Drs. say Yeltsin health more or less normal.'
p18
sS'dependencies'
p19
(lp20
(S'root'
p21
S'ROOT'
p22
S'say'
p23
tp24
a(S'nsubj'
p25
S'say'
p26
S'Drs.'
p27
tp28
a(S'nn'
p29
S'health'
p30
S'Yeltsin'
p31
tp32
a(S'nsubj'
p33
S'normal'
p34
S'health'
p35
tp36
a(S'advmod'
p37
S'normal'
p38
S'more'
p39
tp40
a(S'conj_or'
p41
S'more'
p42
S'less'
p43
tp44
a(S'xcomp'
p45
S'say'
p46
S'normal'
p47
tp48
asS'indexeddependencies'
p49
(lp50
(g21
S'ROOT-0'
p51
S'say-2'
p52
tp53
a(g25
S'say-2'
p54
S'Drs.-1'
p55
tp56
a(g29
S'health-4'
p57
S'Yeltsin-3'
p58
tp59
a(g33
S'normal-8'
p60
S'health-4'
p61
tp62
a(g37
S'normal-8'
p63
S'more-5'
p64
tp65
a(g41
S'more-5'
p66
S'less-7'
p67
tp68
a(g45
S'say-2'
p69
S'normal-8'
p70
tp71
asS'words'
p72
(lp73
(S'Drs.'
p74
(dp75
S'NamedEntityTag'
p76
S'O'
p77
sS'CharacterOffsetEnd'
p78
S'5'
p79
sS'Lemma'
p80
S'Drs.'
p81
sS'PartOfSpeech'
p82
S'NNP'
p83
sS'CharacterOffsetBegin'
p84
S'1'
p85
stp86
a(S'say'
p87
(dp88
S'NamedEntityTag'
p89
g77
sS'CharacterOffsetEnd'
p90
S'9'
p91
sS'Lemma'
p92
S'say'
p93
sS'PartOfSpeech'
p94
S'VBP'
p95
sS'CharacterOffsetBegin'
p96
S'6'
p97
stp98
a(S'Yeltsin'
p99
(dp100
S'NamedEntityTag'
p101
S'PERSON'
p102
sS'CharacterOffsetEnd'
p103
S'17'
p104
sS'Lemma'
p105
S'Yeltsin'
p106
sS'PartOfSpeech'
p107
S'NNP'
p108
sS'CharacterOffsetBegin'
p109
S'10'
p110
stp111
a(S'health'
p112
(dp113
S'NamedEntityTag'
p114
g77
sS'CharacterOffsetEnd'
p115
S'24'
p116
sS'Lemma'
p117
S'health'
p118
sS'PartOfSpeech'
p119
S'NN'
p120
sS'CharacterOffsetBegin'
p121
S'18'
p122
stp123
a(S'more'
p124
(dp125
S'NamedEntityTag'
p126
g77
sS'CharacterOffsetEnd'
p127
S'29'
p128
sS'Lemma'
p129
S'more'
p130
sS'PartOfSpeech'
p131
S'RBR'
p132
sS'CharacterOffsetBegin'
p133
S'25'
p134
stp135
a(S'or'
p136
(dp137
S'NamedEntityTag'
p138
g77
sS'CharacterOffsetEnd'
p139
S'32'
p140
sS'Lemma'
p141
S'or'
p142
sS'PartOfSpeech'
p143
S'CC'
p144
sS'CharacterOffsetBegin'
p145
S'30'
p146
stp147
a(S'less'
p148
(dp149
S'NamedEntityTag'
p150
g77
sS'CharacterOffsetEnd'
p151
S'37'
p152
sS'Lemma'
p153
S'less'
p154
sS'PartOfSpeech'
p155
S'RBR'
p156
sS'CharacterOffsetBegin'
p157
S'33'
p158
stp159
a(S'normal'
p160
(dp161
S'NamedEntityTag'
p162
g77
sS'CharacterOffsetEnd'
p163
S'44'
p164
sS'Lemma'
p165
S'normal'
p166
sS'PartOfSpeech'
p167
S'JJ'
p168
sS'CharacterOffsetBegin'
p169
S'38'
p170
stp171
a(S'.'
p172
(dp173
S'NamedEntityTag'
p174
g77
sS'CharacterOffsetEnd'
p175
S'45'
p176
sS'Lemma'
p177
g172
sS'PartOfSpeech'
p178
g172
sS'CharacterOffsetBegin'
p179
S'44'
p180
stp181
asa(dp182
g15
S'(ROOT (NP (NP (NNP Heart) (NN attack)) (, ,) (NP (NP (NN bypass)) (PP (IN in) (NP (CD 1996)))) (. .)))'
p183
sg17
S'Heart attack, bypass in 1996.'
p184
sg19
(lp185
(S'root'
p186
S'ROOT'
p187
S'attack'
p188
tp189
a(S'nn'
p190
S'attack'
p191
S'Heart'
p192
tp193
a(S'appos'
p194
S'attack'
p195
S'bypass'
p196
tp197
a(S'prep_in'
p198
S'bypass'
p199
S'1996'
p200
tp201
asg49
(lp202
(g186
S'ROOT-0'
p203
S'attack-2'
p204
tp205
a(g190
S'attack-2'
p206
S'Heart-1'
p207
tp208
a(g194
S'attack-2'
p209
S'bypass-4'
p210
tp211
a(g198
S'bypass-4'
p212
S'1996-6'
p213
tp214
asg72
(lp215
(S'Heart'
p216
(dp217
S'NamedEntityTag'
p218
g77
sS'CharacterOffsetEnd'
p219
S'51'
p220
sS'Lemma'
p221
S'Heart'
p222
sS'PartOfSpeech'
p223
S'NNP'
p224
sS'CharacterOffsetBegin'
p225
S'46'
p226
stp227
a(S'attack'
p228
(dp229
S'NamedEntityTag'
p230
g77
sS'CharacterOffsetEnd'
p231
S'58'
p232
sS'Lemma'
p233
S'attack'
p234
sS'PartOfSpeech'
p235
S'NN'
p236
sS'CharacterOffsetBegin'
p237
S'52'
p238
stp239
a(S','
p240
(dp241
S'NamedEntityTag'
p242
g77
sS'CharacterOffsetEnd'
p243
S'59'
p244
sS'Lemma'
p245
g240
sS'PartOfSpeech'
p246
g240
sS'CharacterOffsetBegin'
p247
S'58'
p248
stp249
a(S'bypass'
p250
(dp251
S'NamedEntityTag'
p252
g77
sS'CharacterOffsetEnd'
p253
S'66'
p254
sS'Lemma'
p255
S'bypass'
p256
sS'PartOfSpeech'
p257
S'NN'
p258
sS'CharacterOffsetBegin'
p259
S'60'
p260
stp261
a(S'in'
p262
(dp263
S'NamedEntityTag'
p264
g77
sS'CharacterOffsetEnd'
p265
S'69'
p266
sS'Lemma'
p267
S'in'
p268
sS'PartOfSpeech'
p269
S'IN'
p270
sS'CharacterOffsetBegin'
p271
S'67'
p272
stp273
a(S'1996'
p274
(dp275
S'NormalizedNamedEntityTag'
p276
S'1996'
p277
sS'Timex'
p278
S'<TIMEX3 tid="t1" type="DATE" value="1996">1996</TIMEX3>'
p279
sS'Lemma'
p280
S'1996'
p281
sS'CharacterOffsetEnd'
p282
S'74'
p283
sS'PartOfSpeech'
p284
S'CD'
p285
sS'CharacterOffsetBegin'
p286
S'70'
p287
sS'NamedEntityTag'
p288
S'DATE'
p289
stp290
a(g172
(dp291
S'NamedEntityTag'
p292
g77
sS'CharacterOffsetEnd'
p293
S'75'
p294
sS'Lemma'
p295
g172
sS'PartOfSpeech'
p296
g172
sS'CharacterOffsetBegin'
p297
S'74'
p298
stp299
asasa(dp300
g12
(lp301
(dp302
g15
S"(ROOT (S (S (NP (NNP Mrs) (NNP Yeltsin)) (VP (VBZ says) (S (NP (NP (NN husband) (POS 's)) (NN health)) (ADJP (JJ normal))))) (: ;) (FRAG (NP-TMP (NP (NN heart)) (NP (NN disease))) (: ;) (NP (NP (NNS check-ups)) (: ;) (NP (NNS rumors)))) (. .)))"
p303
sg17
S"Mrs Yeltsin says husband's health normal; heart disease; check-ups; rumors."
p304
sg19
(lp305
(S'root'
p306
S'ROOT'
p307
S'says'
p308
tp309
a(S'nn'
p310
S'Yeltsin'
p311
S'Mrs'
p312
tp313
a(S'nsubj'
p314
S'says'
p315
S'Yeltsin'
p316
tp317
a(S'poss'
p318
S'health'
p319
S'husband'
p320
tp321
a(S'nsubj'
p322
S'normal'
p323
S'health'
p324
tp325
a(S'xcomp'
p326
S'says'
p327
S'normal'
p328
tp329
a(S'dep'
p330
S'says'
p331
S'heart'
p332
tp333
a(S'dep'
p334
S'heart'
p335
S'disease'
p336
tp337
a(S'dep'
p338
S'heart'
p339
S'check-ups'
p340
tp341
a(S'dep'
p342
S'check-ups'
p343
S'rumors'
p344
tp345
asg49
(lp346
(g306
S'ROOT-0'
p347
S'says-3'
p348
tp349
a(g310
S'Yeltsin-2'
p350
S'Mrs-1'
p351
tp352
a(g314
S'says-3'
p353
S'Yeltsin-2'
p354
tp355
a(g318
S'health-6'
p356
S'husband-4'
p357
tp358
a(g322
S'normal-7'
p359
S'health-6'
p360
tp361
a(g326
S'says-3'
p362
S'normal-7'
p363
tp364
a(g330
S'says-3'
p365
S'heart-9'
p366
tp367
a(g334
S'heart-9'
p368
S'disease-10'
p369
tp370
a(g338
S'heart-9'
p371
S'check-ups-12'
p372
tp373
a(g342
S'check-ups-12'
p374
S'rumors-14'
p375
tp376
asg72
(lp377
(S'Mrs'
p378
(dp379
S'NamedEntityTag'
p380
S'PERSON'
p381
sS'CharacterOffsetEnd'
p382
S'4'
p383
sS'Lemma'
p384
S'Mrs'
p385
sS'PartOfSpeech'
p386
S'NNP'
p387
sS'CharacterOffsetBegin'
p388
g85
stp389
a(S'Yeltsin'
p390
(dp391
S'NamedEntityTag'
p392
S'PERSON'
p393
sS'CharacterOffsetEnd'
p394
S'12'
p395
sS'Lemma'
p396
S'Yeltsin'
p397
sS'PartOfSpeech'
p398
S'NNP'
p399
sS'CharacterOffsetBegin'
p400
g79
stp401
a(S'says'
p402
(dp403
S'NamedEntityTag'
p404
g77
sS'CharacterOffsetEnd'
p405
S'17'
p406
sS'Lemma'
p407
S'say'
p408
sS'PartOfSpeech'
p409
S'VBZ'
p410
sS'CharacterOffsetBegin'
p411
S'13'
p412
stp413
a(S'husband'
p414
(dp415
S'NamedEntityTag'
p416
g77
sS'CharacterOffsetEnd'
p417
S'25'
p418
sS'Lemma'
p419
S'husband'
p420
sS'PartOfSpeech'
p421
S'NN'
p422
sS'CharacterOffsetBegin'
p423
S'18'
p424
stp425
a(S"'s"
p426
(dp427
S'NamedEntityTag'
p428
g77
sS'CharacterOffsetEnd'
p429
S'27'
p430
sS'Lemma'
p431
S"'s"
p432
sS'PartOfSpeech'
p433
S'POS'
p434
sS'CharacterOffsetBegin'
p435
S'25'
p436
stp437
a(S'health'
p438
(dp439
S'NamedEntityTag'
p440
g77
sS'CharacterOffsetEnd'
p441
S'34'
p442
sS'Lemma'
p443
S'health'
p444
sS'PartOfSpeech'
p445
S'NN'
p446
sS'CharacterOffsetBegin'
p447
S'28'
p448
stp449
a(S'normal'
p450
(dp451
S'NamedEntityTag'
p452
g77
sS'CharacterOffsetEnd'
p453
S'41'
p454
sS'Lemma'
p455
S'normal'
p456
sS'PartOfSpeech'
p457
S'JJ'
p458
sS'CharacterOffsetBegin'
p459
S'35'
p460
stp461
a(S';'
p462
(dp463
S'NamedEntityTag'
p464
g77
sS'CharacterOffsetEnd'
p465
S'42'
p466
sS'Lemma'
p467
g462
sS'PartOfSpeech'
p468
S':'
p469
sS'CharacterOffsetBegin'
p470
S'41'
p471
stp472
a(S'heart'
p473
(dp474
S'NamedEntityTag'
p475
g77
sS'CharacterOffsetEnd'
p476
S'48'
p477
sS'Lemma'
p478
S'heart'
p479
sS'PartOfSpeech'
p480
S'NN'
p481
sS'CharacterOffsetBegin'
p482
S'43'
p483
stp484
a(S'disease'
p485
(dp486
S'NamedEntityTag'
p487
g77
sS'CharacterOffsetEnd'
p488
S'56'
p489
sS'Lemma'
p490
S'disease'
p491
sS'PartOfSpeech'
p492
S'NN'
p493
sS'CharacterOffsetBegin'
p494
S'49'
p495
stp496
a(g462
(dp497
S'NamedEntityTag'
p498
g77
sS'CharacterOffsetEnd'
p499
S'57'
p500
sS'Lemma'
p501
g462
sS'PartOfSpeech'
p502
g469
sS'CharacterOffsetBegin'
p503
S'56'
p504
stp505
a(S'check-ups'
p506
(dp507
S'NamedEntityTag'
p508
g77
sS'CharacterOffsetEnd'
p509
S'67'
p510
sS'Lemma'
p511
S'check-up'
p512
sS'PartOfSpeech'
p513
S'NNS'
p514
sS'CharacterOffsetBegin'
p515
S'58'
p516
stp517
a(g462
(dp518
S'NamedEntityTag'
p519
g77
sS'CharacterOffsetEnd'
p520
S'68'
p521
sS'Lemma'
p522
g462
sS'PartOfSpeech'
p523
g469
sS'CharacterOffsetBegin'
p524
S'67'
p525
stp526
a(S'rumors'
p527
(dp528
S'NamedEntityTag'
p529
g77
sS'CharacterOffsetEnd'
p530
S'75'
p531
sS'Lemma'
p532
S'rumor'
p533
sS'PartOfSpeech'
p534
S'NNS'
p535
sS'CharacterOffsetBegin'
p536
S'69'
p537
stp538
a(g172
(dp539
S'NamedEntityTag'
p540
g77
sS'CharacterOffsetEnd'
p541
S'76'
p542
sS'Lemma'
p543
g172
sS'PartOfSpeech'
p544
g172
sS'CharacterOffsetBegin'
p545
S'75'
p546
stp547
asasa(dp548
g12
(lp549
(dp550
g15
S"(ROOT (S (NP (NNS Doctors)) (VP (VBP say) (SBAR (S (NP (NP (NNP Boris) (NNP Yeltsin) (POS 's)) (NN health)) (VP (VBZ is) (`` ``) (ADJP (ADVP (RBR more) (CC or) (RBR less)) (JJ normal)) ('' '')))))))"
p551
sg17
S'Doctors say Boris Yeltsin\'s health is "more or less normal"'
p552
sg19
(lp553
(S'root'
p554
S'ROOT'
p555
S'say'
p556
tp557
a(S'nsubj'
p558
S'say'
p559
S'Doctors'
p560
tp561
a(S'nn'
p562
S'Yeltsin'
p563
S'Boris'
p564
tp565
a(S'poss'
p566
S'health'
p567
S'Yeltsin'
p568
tp569
a(S'nsubj'
p570
S'normal'
p571
S'health'
p572
tp573
a(S'cop'
p574
S'normal'
p575
S'is'
p576
tp577
a(S'advmod'
p578
S'normal'
p579
S'more'
p580
tp581
a(S'conj_or'
p582
S'more'
p583
S'less'
p584
tp585
a(S'ccomp'
p586
S'say'
p587
S'normal'
p588
tp589
asg49
(lp590
(g554
S'ROOT-0'
p591
S'say-2'
p592
tp593
a(g558
S'say-2'
p594
S'Doctors-1'
p595
tp596
a(g562
S'Yeltsin-4'
p597
S'Boris-3'
p598
tp599
a(g566
S'health-6'
p600
S'Yeltsin-4'
p601
tp602
a(g570
S'normal-12'
p603
S'health-6'
p604
tp605
a(g574
S'normal-12'
p606
S'is-7'
p607
tp608
a(g578
S'normal-12'
p609
S'more-9'
p610
tp611
a(g582
S'more-9'
p612
S'less-11'
p613
tp614
a(g586
S'say-2'
p615
S'normal-12'
p616
tp617
asg72
(lp618
(S'Doctors'
p619
(dp620
S'NamedEntityTag'
p621
g77
sS'CharacterOffsetEnd'
p622
S'8'
p623
sS'Lemma'
p624
S'doctor'
p625
sS'PartOfSpeech'
p626
S'NNS'
p627
sS'CharacterOffsetBegin'
p628
g85
stp629
a(S'say'
p630
(dp631
S'NamedEntityTag'
p632
g77
sS'CharacterOffsetEnd'
p633
S'12'
p634
sS'Lemma'
p635
S'say'
p636
sS'PartOfSpeech'
p637
S'VBP'
p638
sS'CharacterOffsetBegin'
p639
g91
stp640
a(S'Boris'
p641
(dp642
S'NamedEntityTag'
p643
S'PERSON'
p644
sS'CharacterOffsetEnd'
p645
S'18'
p646
sS'Lemma'
p647
S'Boris'
p648
sS'PartOfSpeech'
p649
S'NNP'
p650
sS'CharacterOffsetBegin'
p651
S'13'
p652
stp653
a(S'Yeltsin'
p654
(dp655
S'NamedEntityTag'
p656
S'PERSON'
p657
sS'CharacterOffsetEnd'
p658
S'26'
p659
sS'Lemma'
p660
S'Yeltsin'
p661
sS'PartOfSpeech'
p662
S'NNP'
p663
sS'CharacterOffsetBegin'
p664
S'19'
p665
stp666
a(S"'s"
p667
(dp668
S'NamedEntityTag'
p669
g77
sS'CharacterOffsetEnd'
p670
S'28'
p671
sS'Lemma'
p672
S"'s"
p673
sS'PartOfSpeech'
p674
S'POS'
p675
sS'CharacterOffsetBegin'
p676
S'26'
p677
stp678
a(S'health'
p679
(dp680
S'NamedEntityTag'
p681
g77
sS'CharacterOffsetEnd'
p682
S'35'
p683
sS'Lemma'
p684
S'health'
p685
sS'PartOfSpeech'
p686
S'NN'
p687
sS'CharacterOffsetBegin'
p688
S'29'
p689
stp690
a(S'is'
p691
(dp692
S'NamedEntityTag'
p693
g77
sS'CharacterOffsetEnd'
p694
S'38'
p695
sS'Lemma'
p696
S'be'
p697
sS'PartOfSpeech'
p698
S'VBZ'
p699
sS'CharacterOffsetBegin'
p700
S'36'
p701
stp702
a(S'``'
p703
(dp704
S'NamedEntityTag'
p705
g77
sS'CharacterOffsetEnd'
p706
S'40'
p707
sS'Lemma'
p708
S'``'
p709
sS'PartOfSpeech'
p710
S'``'
p711
sS'CharacterOffsetBegin'
p712
S'39'
p713
stp714
a(S'more'
p715
(dp716
S'NamedEntityTag'
p717
g77
sS'CharacterOffsetEnd'
p718
S'44'
p719
sS'Lemma'
p720
S'more'
p721
sS'PartOfSpeech'
p722
S'RBR'
p723
sS'CharacterOffsetBegin'
p724
S'40'
p725
stp726
a(S'or'
p727
(dp728
S'NamedEntityTag'
p729
g77
sS'CharacterOffsetEnd'
p730
S'47'
p731
sS'Lemma'
p732
S'or'
p733
sS'PartOfSpeech'
p734
S'CC'
p735
sS'CharacterOffsetBegin'
p736
S'45'
p737
stp738
a(S'less'
p739
(dp740
S'NamedEntityTag'
p741
g77
sS'CharacterOffsetEnd'
p742
S'52'
p743
sS'Lemma'
p744
S'less'
p745
sS'PartOfSpeech'
p746
S'RBR'
p747
sS'CharacterOffsetBegin'
p748
S'48'
p749
stp750
a(S'normal'
p751
(dp752
S'NamedEntityTag'
p753
g77
sS'CharacterOffsetEnd'
p754
S'59'
p755
sS'Lemma'
p756
S'normal'
p757
sS'PartOfSpeech'
p758
S'JJ'
p759
sS'CharacterOffsetBegin'
p760
S'53'
p761
stp762
a(S"''"
p763
(dp764
S'NamedEntityTag'
p765
g77
sS'CharacterOffsetEnd'
p766
S'60'
p767
sS'Lemma'
p768
S"''"
p769
sS'PartOfSpeech'
p770
S"''"
p771
sS'CharacterOffsetBegin'
p772
S'59'
p773
stp774
asasa(dp775
g4
(lp776
(lp777
((S'he'
p778
I0
I0
I10
I11
tp779
(S'his'
p780
I0
I3
I3
I4
tp781
tp782
aasg12
(lp783
(dp784
g15
S"(ROOT (S (VP (VBG Noting) (SBAR (S (NP (NP (NNS concerns)) (PP (IN about) (NP (NP (PRP$ his) (NN health)) (, ,) (NP (NP (NNP Yeltsin) (POS 's)) (NN wife))))) (VP (VBD said) (SBAR (S (NP (PRP he)) (VP (VBD was) (ADJP (JJ normal)))))))))))"
p785
sg17
S"Noting concerns about his health, Yeltsin's wife said he was normal"
p786
sg19
(lp787
(S'root'
p788
S'ROOT'
p789
S'Noting'
p790
tp791
a(S'nsubj'
p792
S'said'
p793
S'concerns'
p794
tp795
a(S'poss'
p796
S'health'
p797
S'his'
p798
tp799
a(S'prep_about'
p800
S'concerns'
p801
S'health'
p802
tp803
a(S'poss'
p804
S'wife'
p805
S'Yeltsin'
p806
tp807
a(S'appos'
p808
S'health'
p809
S'wife'
p810
tp811
a(S'ccomp'
p812
S'Noting'
p813
S'said'
p814
tp815
a(S'nsubj'
p816
S'normal'
p817
S'he'
p818
tp819
a(S'cop'
p820
S'normal'
p821
S'was'
p822
tp823
a(S'ccomp'
p824
S'said'
p825
S'normal'
p826
tp827
asg49
(lp828
(g788
S'ROOT-0'
p829
S'Noting-1'
p830
tp831
a(g792
S'said-10'
p832
S'concerns-2'
p833
tp834
a(g796
S'health-5'
p835
S'his-4'
p836
tp837
a(g800
S'concerns-2'
p838
S'health-5'
p839
tp840
a(g804
S'wife-9'
p841
S'Yeltsin-7'
p842
tp843
a(g808
S'health-5'
p844
S'wife-9'
p845
tp846
a(g812
S'Noting-1'
p847
S'said-10'
p848
tp849
a(g816
S'normal-13'
p850
S'he-11'
p851
tp852
a(g820
S'normal-13'
p853
S'was-12'
p854
tp855
a(g824
S'said-10'
p856
S'normal-13'
p857
tp858
asg72
(lp859
(S'Noting'
p860
(dp861
S'NamedEntityTag'
p862
g77
sS'CharacterOffsetEnd'
p863
S'7'
p864
sS'Lemma'
p865
S'note'
p866
sS'PartOfSpeech'
p867
S'VBG'
p868
sS'CharacterOffsetBegin'
p869
g85
stp870
a(S'concerns'
p871
(dp872
S'NamedEntityTag'
p873
g77
sS'CharacterOffsetEnd'
p874
S'16'
p875
sS'Lemma'
p876
S'concern'
p877
sS'PartOfSpeech'
p878
S'NNS'
p879
sS'CharacterOffsetBegin'
p880
g623
stp881
a(S'about'
p882
(dp883
S'NamedEntityTag'
p884
g77
sS'CharacterOffsetEnd'
p885
S'22'
p886
sS'Lemma'
p887
S'about'
p888
sS'PartOfSpeech'
p889
S'IN'
p890
sS'CharacterOffsetBegin'
p891
S'17'
p892
stp893
a(S'his'
p894
(dp895
S'NamedEntityTag'
p896
g77
sS'CharacterOffsetEnd'
p897
S'26'
p898
sS'Lemma'
p899
S'he'
p900
sS'PartOfSpeech'
p901
S'PRP$'
p902
sS'CharacterOffsetBegin'
p903
S'23'
p904
stp905
a(S'health'
p906
(dp907
S'NamedEntityTag'
p908
g77
sS'CharacterOffsetEnd'
p909
S'33'
p910
sS'Lemma'
p911
S'health'
p912
sS'PartOfSpeech'
p913
S'NN'
p914
sS'CharacterOffsetBegin'
p915
S'27'
p916
stp917
a(g240
(dp918
S'NamedEntityTag'
p919
g77
sS'CharacterOffsetEnd'
p920
S'34'
p921
sS'Lemma'
p922
g240
sS'PartOfSpeech'
p923
g240
sS'CharacterOffsetBegin'
p924
S'33'
p925
stp926
a(S'Yeltsin'
p927
(dp928
S'NamedEntityTag'
p929
S'PERSON'
p930
sS'CharacterOffsetEnd'
p931
S'42'
p932
sS'Lemma'
p933
S'Yeltsin'
p934
sS'PartOfSpeech'
p935
S'NNP'
p936
sS'CharacterOffsetBegin'
p937
S'35'
p938
stp939
a(S"'s"
p940
(dp941
S'NamedEntityTag'
p942
g77
sS'CharacterOffsetEnd'
p943
S'44'
p944
sS'Lemma'
p945
S"'s"
p946
sS'PartOfSpeech'
p947
S'POS'
p948
sS'CharacterOffsetBegin'
p949
S'42'
p950
stp951
a(S'wife'
p952
(dp953
S'NamedEntityTag'
p954
g77
sS'CharacterOffsetEnd'
p955
S'49'
p956
sS'Lemma'
p957
S'wife'
p958
sS'PartOfSpeech'
p959
S'NN'
p960
sS'CharacterOffsetBegin'
p961
S'45'
p962
stp963
a(S'said'
p964
(dp965
S'NamedEntityTag'
p966
g77
sS'CharacterOffsetEnd'
p967
S'54'
p968
sS'Lemma'
p969
S'say'
p970
sS'PartOfSpeech'
p971
S'VBD'
p972
sS'CharacterOffsetBegin'
p973
S'50'
p974
stp975
a(S'he'
p976
(dp977
S'NamedEntityTag'
p978
g77
sS'CharacterOffsetEnd'
p979
S'57'
p980
sS'Lemma'
p981
S'he'
p982
sS'PartOfSpeech'
p983
S'PRP'
p984
sS'CharacterOffsetBegin'
p985
S'55'
p986
stp987
a(S'was'
p988
(dp989
S'NamedEntityTag'
p990
g77
sS'CharacterOffsetEnd'
p991
S'61'
p992
sS'Lemma'
p993
S'be'
p994
sS'PartOfSpeech'
p995
S'VBD'
p996
sS'CharacterOffsetBegin'
p997
S'58'
p998
stp999
a(S'normal'
p1000
(dp1001
S'NamedEntityTag'
p1002
g77
sS'CharacterOffsetEnd'
p1003
S'68'
p1004
sS'Lemma'
p1005
S'normal'
p1006
sS'PartOfSpeech'
p1007
S'JJ'
p1008
sS'CharacterOffsetBegin'
p1009
S'62'
p1010
stp1011
asasasS'article'
p1012
(dp1013
g4
(lp1014
(lp1015
((S'his'
p1016
I0
I6
I6
I7
tp1017
(S'Boris Yeltsins'
p1018
I0
I2
I1
I3
tp1019
tp1020
a((S'his'
p1021
I0
I3
I13
I14
tp1022
(S'Boris Yeltsins'
p1023
I0
I2
I1
I3
tp1024
tp1025
a((S'Mrs. Yeltsin'
p1026
I1
I1
I0
I2
tp1027
(S'Boris Yeltsins'
p1028
I0
I2
I1
I3
tp1029
tp1030
a((S'he'
p1031
I2
I5
I5
I6
tp1032
(S'Boris Yeltsins'
p1033
I0
I2
I1
I3
tp1034
tp1035
a((S'Mrs. Yeltsin'
p1036
I3
I3
I12
I14
tp1037
(S'Boris Yeltsins'
p1038
I0
I2
I1
I3
tp1039
tp1040
a((S'Yeltsins'
p1041
I4
I2
I2
I3
tp1042
(S'Boris Yeltsins'
p1043
I0
I2
I1
I3
tp1044
tp1045
a((S'his'
p1046
I4
I0
I20
I21
tp1047
(S'Boris Yeltsins'
p1048
I0
I2
I1
I3
tp1049
tp1050
a((S'Yeltsin'
p1051
I5
I0
I0
I1
tp1052
(S'Boris Yeltsins'
p1053
I0
I2
I1
I3
tp1054
tp1055
a((S'his'
p1056
I5
I6
I26
I27
tp1057
(S'Boris Yeltsins'
p1058
I0
I2
I1
I3
tp1059
tp1060
a((S'Mrs. Yeltsin'
p1061
I6
I1
I0
I2
tp1062
(S'Boris Yeltsins'
p1063
I0
I2
I1
I3
tp1064
tp1065
a((S'Mrs. Yeltsin'
p1066
I8
I4
I13
I15
tp1067
(S'Boris Yeltsins'
p1068
I0
I2
I1
I3
tp1069
tp1070
a((S'Mrs. Yeltsin'
p1071
I10
I1
I0
I2
tp1072
(S'Boris Yeltsins'
p1073
I0
I2
I1
I3
tp1074
tp1075
a((S'Yeltsin'
p1076
I10
I1
I11
I12
tp1077
(S'Boris Yeltsins'
p1078
I0
I2
I1
I3
tp1079
tp1080
aa(lp1081
((S'The doctors'
p1082
I3
I1
I0
I2
tp1083
(S'President Boris Yeltsins doctors'
p1084
I0
I3
I0
I4
tp1085
tp1086
aa(lp1087
((S'she'
p1088
I1
I-1
I9
I10
tp1089
(S'his wife Naina'
p1090
I0
I5
I13
I16
tp1091
tp1092
a((S'her'
p1093
I1
I5
I15
I16
tp1094
(S'his wife Naina'
p1095
I0
I5
I13
I16
tp1096
tp1097
a((S'she'
p1098
I2
I2
I2
I3
tp1099
(S'his wife Naina'
p1100
I0
I5
I13
I16
tp1101
tp1102
aa(lp1103
((S'Wednesday'
p1104
I6
I-1
I9
I10
tp1105
(S'Wednesday'
p1106
I0
I1
I21
I22
tp1107
tp1108
aa(lp1109
((S'a concern'
p1110
I4
I8
I7
I9
tp1111
(S'The 67-year-old Yeltsins health'
p1112
I4
I3
I0
I4
tp1113
tp1114
aa(lp1115
((S'her'
p1116
I10
I5
I5
I6
tp1117
(S'She'
p1118
I7
I0
I0
I1
tp1119
tp1120
aa(lp1121
((S'it'
p1122
I7
I6
I16
I17
tp1123
(S'criticism of the president'
p1124
I7
I4
I4
I8
tp1125
tp1126
a((S'It'
p1127
I8
I0
I0
I1
tp1128
(S'criticism of the president'
p1129
I7
I4
I4
I8
tp1130
tp1131
aa(lp1132
((S'his'
p1133
I7
I2
I22
I23
tp1134
(S'the president'
p1135
I7
I7
I6
I8
tp1136
tp1137
a((S'his'
p1138
I7
I8
I28
I29
tp1139
(S'the president'
p1140
I7
I7
I6
I8
tp1141
tp1142
a((S'him'
p1143
I8
I1
I11
I12
tp1144
(S'the president'
p1145
I7
I7
I6
I8
tp1146
tp1147
aa(lp1148
((S'I'
p1149
I11
I0
I0
I1
tp1150
(S'me'
p1151
I8
I3
I3
I4
tp1152
tp1153
aa(lp1154
((S'it'
p1155
I12
I2
I2
I3
tp1156
(S'Russia'
p1157
I10
I-1
I9
I10
tp1158
tp1159
a((S'calmer'
p1160
I12
I5
I5
I6
tp1161
(S'Russia'
p1162
I10
I-1
I9
I10
tp1163
tp1164
a((S'it'
p1165
I12
I7
I7
I8
tp1166
(S'Russia'
p1167
I10
I-1
I9
I10
tp1168
tp1169
aasg12
(lp1170
(dp1171
g15
S'(ROOT (S (S (NP (NNP President) (NNP Boris) (NNPS Yeltsins) (NNS doctors)) (VP (VBP have) (VP (VBN pronounced) (S (NP (PRP$ his) (NN health)) (ADJP (ADVP (RBR more) (CC or) (RBR less)) (JJ normal)))))) (, ,) (NP (PRP$ his) (NN wife) (NNP Naina)) (VP (VBD said) (PP (IN in) (NP (NP (DT an) (NN interview)) (VP (VBN published) (NP-TMP (NNP Wednesday)))))) (. .)))'
p1172
sg17
S'President Boris Yeltsins doctors have pronounced his health more or less normal, his wife Naina said in an interview published Wednesday.'
p1173
sg19
(lp1174
(S'root'
p1175
S'ROOT'
p1176
S'said'
p1177
tp1178
a(S'nn'
p1179
S'doctors'
p1180
S'President'
p1181
tp1182
a(S'nn'
p1183
S'doctors'
p1184
S'Boris'
p1185
tp1186
a(S'nn'
p1187
S'doctors'
p1188
S'Yeltsins'
p1189
tp1190
a(S'nsubj'
p1191
S'pronounced'
p1192
S'doctors'
p1193
tp1194
a(S'aux'
p1195
S'pronounced'
p1196
S'have'
p1197
tp1198
a(S'ccomp'
p1199
S'said'
p1200
S'pronounced'
p1201
tp1202
a(S'poss'
p1203
S'health'
p1204
S'his'
p1205
tp1206
a(S'nsubj'
p1207
S'normal'
p1208
S'health'
p1209
tp1210
a(S'advmod'
p1211
S'normal'
p1212
S'more'
p1213
tp1214
a(S'conj_or'
p1215
S'more'
p1216
S'less'
p1217
tp1218
a(S'xcomp'
p1219
S'pronounced'
p1220
S'normal'
p1221
tp1222
a(S'poss'
p1223
S'Naina'
p1224
S'his'
p1225
tp1226
a(S'nn'
p1227
S'Naina'
p1228
S'wife'
p1229
tp1230
a(S'nsubj'
p1231
S'said'
p1232
S'Naina'
p1233
tp1234
a(S'det'
p1235
S'interview'
p1236
S'an'
p1237
tp1238
a(S'prep_in'
p1239
S'said'
p1240
S'interview'
p1241
tp1242
a(S'partmod'
p1243
S'interview'
p1244
S'published'
p1245
tp1246
a(S'tmod'
p1247
S'published'
p1248
S'Wednesday'
p1249
tp1250
asg49
(lp1251
(g1175
S'ROOT-0'
p1252
S'said-17'
p1253
tp1254
a(g1179
S'doctors-4'
p1255
S'President-1'
p1256
tp1257
a(g1183
S'doctors-4'
p1258
S'Boris-2'
p1259
tp1260
a(g1187
S'doctors-4'
p1261
S'Yeltsins-3'
p1262
tp1263
a(g1191
S'pronounced-6'
p1264
S'doctors-4'
p1265
tp1266
a(g1195
S'pronounced-6'
p1267
S'have-5'
p1268
tp1269
a(g1199
S'said-17'
p1270
S'pronounced-6'
p1271
tp1272
a(g1203
S'health-8'
p1273
S'his-7'
p1274
tp1275
a(g1207
S'normal-12'
p1276
S'health-8'
p1277
tp1278
a(g1211
S'normal-12'
p1279
S'more-9'
p1280
tp1281
a(g1215
S'more-9'
p1282
S'less-11'
p1283
tp1284
a(g1219
S'pronounced-6'
p1285
S'normal-12'
p1286
tp1287
a(g1223
S'Naina-16'
p1288
S'his-14'
p1289
tp1290
a(g1227
S'Naina-16'
p1291
S'wife-15'
p1292
tp1293
a(g1231
S'said-17'
p1294
S'Naina-16'
p1295
tp1296
a(g1235
S'interview-20'
p1297
S'an-19'
p1298
tp1299
a(g1239
S'said-17'
p1300
S'interview-20'
p1301
tp1302
a(g1243
S'interview-20'
p1303
S'published-21'
p1304
tp1305
a(g1247
S'published-21'
p1306
S'Wednesday-22'
p1307
tp1308
asg72
(lp1309
(S'President'
p1310
(dp1311
S'NamedEntityTag'
p1312
g77
sS'CharacterOffsetEnd'
p1313
g91
sS'Lemma'
p1314
S'President'
p1315
sS'PartOfSpeech'
p1316
S'NNP'
p1317
sS'CharacterOffsetBegin'
p1318
S'0'
p1319
stp1320
a(S'Boris'
p1321
(dp1322
S'NamedEntityTag'
p1323
S'PERSON'
p1324
sS'CharacterOffsetEnd'
p1325
S'15'
p1326
sS'Lemma'
p1327
S'Boris'
p1328
sS'PartOfSpeech'
p1329
S'NNP'
p1330
sS'CharacterOffsetBegin'
p1331
S'10'
p1332
stp1333
a(S'Yeltsins'
p1334
(dp1335
S'NamedEntityTag'
p1336
S'PERSON'
p1337
sS'CharacterOffsetEnd'
p1338
S'24'
p1339
sS'Lemma'
p1340
S'Yeltsins'
p1341
sS'PartOfSpeech'
p1342
S'NNPS'
p1343
sS'CharacterOffsetBegin'
p1344
S'16'
p1345
stp1346
a(S'doctors'
p1347
(dp1348
S'NamedEntityTag'
p1349
g77
sS'CharacterOffsetEnd'
p1350
S'32'
p1351
sS'Lemma'
p1352
S'doctor'
p1353
sS'PartOfSpeech'
p1354
S'NNS'
p1355
sS'CharacterOffsetBegin'
p1356
S'25'
p1357
stp1358
a(S'have'
p1359
(dp1360
S'NamedEntityTag'
p1361
g77
sS'CharacterOffsetEnd'
p1362
S'37'
p1363
sS'Lemma'
p1364
S'have'
p1365
sS'PartOfSpeech'
p1366
S'VBP'
p1367
sS'CharacterOffsetBegin'
p1368
S'33'
p1369
stp1370
a(S'pronounced'
p1371
(dp1372
S'NamedEntityTag'
p1373
g77
sS'CharacterOffsetEnd'
p1374
S'48'
p1375
sS'Lemma'
p1376
S'pronounce'
p1377
sS'PartOfSpeech'
p1378
S'VBN'
p1379
sS'CharacterOffsetBegin'
p1380
S'38'
p1381
stp1382
a(S'his'
p1383
(dp1384
S'NamedEntityTag'
p1385
g77
sS'CharacterOffsetEnd'
p1386
S'52'
p1387
sS'Lemma'
p1388
S'he'
p1389
sS'PartOfSpeech'
p1390
S'PRP$'
p1391
sS'CharacterOffsetBegin'
p1392
S'49'
p1393
stp1394
a(S'health'
p1395
(dp1396
S'NamedEntityTag'
p1397
g77
sS'CharacterOffsetEnd'
p1398
S'59'
p1399
sS'Lemma'
p1400
S'health'
p1401
sS'PartOfSpeech'
p1402
S'NN'
p1403
sS'CharacterOffsetBegin'
p1404
S'53'
p1405
stp1406
a(S'more'
p1407
(dp1408
S'NamedEntityTag'
p1409
g77
sS'CharacterOffsetEnd'
p1410
S'64'
p1411
sS'Lemma'
p1412
S'more'
p1413
sS'PartOfSpeech'
p1414
S'RBR'
p1415
sS'CharacterOffsetBegin'
p1416
S'60'
p1417
stp1418
a(S'or'
p1419
(dp1420
S'NamedEntityTag'
p1421
g77
sS'CharacterOffsetEnd'
p1422
S'67'
p1423
sS'Lemma'
p1424
S'or'
p1425
sS'PartOfSpeech'
p1426
S'CC'
p1427
sS'CharacterOffsetBegin'
p1428
S'65'
p1429
stp1430
a(S'less'
p1431
(dp1432
S'NamedEntityTag'
p1433
g77
sS'CharacterOffsetEnd'
p1434
S'72'
p1435
sS'Lemma'
p1436
S'less'
p1437
sS'PartOfSpeech'
p1438
S'RBR'
p1439
sS'CharacterOffsetBegin'
p1440
S'68'
p1441
stp1442
a(S'normal'
p1443
(dp1444
S'NamedEntityTag'
p1445
g77
sS'CharacterOffsetEnd'
p1446
S'79'
p1447
sS'Lemma'
p1448
S'normal'
p1449
sS'PartOfSpeech'
p1450
S'JJ'
p1451
sS'CharacterOffsetBegin'
p1452
S'73'
p1453
stp1454
a(g240
(dp1455
S'NamedEntityTag'
p1456
g77
sS'CharacterOffsetEnd'
p1457
S'80'
p1458
sS'Lemma'
p1459
g240
sS'PartOfSpeech'
p1460
g240
sS'CharacterOffsetBegin'
p1461
S'79'
p1462
stp1463
a(S'his'
p1464
(dp1465
S'NamedEntityTag'
p1466
g77
sS'CharacterOffsetEnd'
p1467
S'84'
p1468
sS'Lemma'
p1469
S'he'
p1470
sS'PartOfSpeech'
p1471
S'PRP$'
p1472
sS'CharacterOffsetBegin'
p1473
S'81'
p1474
stp1475
a(S'wife'
p1476
(dp1477
S'NamedEntityTag'
p1478
g77
sS'CharacterOffsetEnd'
p1479
S'89'
p1480
sS'Lemma'
p1481
S'wife'
p1482
sS'PartOfSpeech'
p1483
S'NN'
p1484
sS'CharacterOffsetBegin'
p1485
S'85'
p1486
stp1487
a(S'Naina'
p1488
(dp1489
S'NamedEntityTag'
p1490
S'PERSON'
p1491
sS'CharacterOffsetEnd'
p1492
S'95'
p1493
sS'Lemma'
p1494
S'Naina'
p1495
sS'PartOfSpeech'
p1496
S'NNP'
p1497
sS'CharacterOffsetBegin'
p1498
S'90'
p1499
stp1500
a(S'said'
p1501
(dp1502
S'NamedEntityTag'
p1503
g77
sS'CharacterOffsetEnd'
p1504
S'100'
p1505
sS'Lemma'
p1506
S'say'
p1507
sS'PartOfSpeech'
p1508
S'VBD'
p1509
sS'CharacterOffsetBegin'
p1510
S'96'
p1511
stp1512
a(S'in'
p1513
(dp1514
S'NamedEntityTag'
p1515
g77
sS'CharacterOffsetEnd'
p1516
S'103'
p1517
sS'Lemma'
p1518
S'in'
p1519
sS'PartOfSpeech'
p1520
S'IN'
p1521
sS'CharacterOffsetBegin'
p1522
S'101'
p1523
stp1524
a(S'an'
p1525
(dp1526
S'NamedEntityTag'
p1527
g77
sS'CharacterOffsetEnd'
p1528
S'106'
p1529
sS'Lemma'
p1530
S'a'
p1531
sS'PartOfSpeech'
p1532
S'DT'
p1533
sS'CharacterOffsetBegin'
p1534
S'104'
p1535
stp1536
a(S'interview'
p1537
(dp1538
S'NamedEntityTag'
p1539
g77
sS'CharacterOffsetEnd'
p1540
S'116'
p1541
sS'Lemma'
p1542
S'interview'
p1543
sS'PartOfSpeech'
p1544
S'NN'
p1545
sS'CharacterOffsetBegin'
p1546
S'107'
p1547
stp1548
a(S'published'
p1549
(dp1550
S'NamedEntityTag'
p1551
g77
sS'CharacterOffsetEnd'
p1552
S'126'
p1553
sS'Lemma'
p1554
S'publish'
p1555
sS'PartOfSpeech'
p1556
S'VBN'
p1557
sS'CharacterOffsetBegin'
p1558
S'117'
p1559
stp1560
a(S'Wednesday'
p1561
(dp1562
S'NormalizedNamedEntityTag'
p1563
S'XXXX-WXX-3'
p1564
sS'Timex'
p1565
S'<TIMEX3 tid="t1" type="DATE" value="XXXX-WXX-3">Wednesday</TIMEX3>'
p1566
sS'Lemma'
p1567
S'Wednesday'
p1568
sS'CharacterOffsetEnd'
p1569
S'136'
p1570
sS'PartOfSpeech'
p1571
S'NNP'
p1572
sS'CharacterOffsetBegin'
p1573
S'127'
p1574
sS'NamedEntityTag'
p1575
S'DATE'
p1576
stp1577
a(g172
(dp1578
S'NamedEntityTag'
p1579
g77
sS'CharacterOffsetEnd'
p1580
S'137'
p1581
sS'Lemma'
p1582
g172
sS'PartOfSpeech'
p1583
g172
sS'CharacterOffsetBegin'
p1584
S'136'
p1585
stp1586
asa(dp1587
g15
S'(ROOT (S (NP (NNP Mrs.) (NNP Yeltsin)) (VP (VBD told) (S (NP (DT the) (NNP Argumenty) (FW i) (NNP Fakty)) (NP (NP (JJ weekly)) (SBAR (IN that) (S (NP (PRP she)) (VP (VBD hesitated) (ADVP (RB even)) (S (VP (TO to) (VP (VB touch) (PP (IN on) (NP (PRP$ her) (NNS husbands) (NN health))) (SBAR (WHADVP (WRB when)) (S (NP (EX there)) (VP (VBZ is) (NP (NP (ADJP (RB so) (JJ much)) (NN conjecture)) (PP (IN on) (NP (DT this) (NN topic)))))))))))))))) (. .)))'
p1588
sg17
S'Mrs. Yeltsin told the Argumenty i Fakty weekly that she hesitated even to touch on her husbands health when there is so much conjecture on this topic.'
p1589
sg19
(lp1590
(S'root'
p1591
S'ROOT'
p1592
S'told'
p1593
tp1594
a(S'nn'
p1595
S'Yeltsin'
p1596
S'Mrs.'
p1597
tp1598
a(S'nsubj'
p1599
S'told'
p1600
S'Yeltsin'
p1601
tp1602
a(S'det'
p1603
S'Fakty'
p1604
S'the'
p1605
tp1606
a(S'nn'
p1607
S'Fakty'
p1608
S'Argumenty'
p1609
tp1610
a(S'nn'
p1611
S'Fakty'
p1612
S'i'
p1613
tp1614
a(S'nsubj'
p1615
S'weekly'
p1616
S'Fakty'
p1617
tp1618
a(S'xcomp'
p1619
S'told'
p1620
S'weekly'
p1621
tp1622
a(S'mark'
p1623
S'hesitated'
p1624
S'that'
p1625
tp1626
a(S'nsubj'
p1627
S'hesitated'
p1628
S'she'
p1629
tp1630
a(S'dep'
p1631
S'weekly'
p1632
S'hesitated'
p1633
tp1634
a(S'advmod'
p1635
S'hesitated'
p1636
S'even'
p1637
tp1638
a(S'aux'
p1639
S'touch'
p1640
S'to'
p1641
tp1642
a(S'xcomp'
p1643
S'hesitated'
p1644
S'touch'
p1645
tp1646
a(S'poss'
p1647
S'health'
p1648
S'her'
p1649
tp1650
a(S'nn'
p1651
S'health'
p1652
S'husbands'
p1653
tp1654
a(S'prep_on'
p1655
S'touch'
p1656
S'health'
p1657
tp1658
a(S'advmod'
p1659
S'is'
p1660
S'when'
p1661
tp1662
a(S'expl'
p1663
S'is'
p1664
S'there'
p1665
tp1666
a(S'advcl'
p1667
S'touch'
p1668
S'is'
p1669
tp1670
a(S'advmod'
p1671
S'much'
p1672
S'so'
p1673
tp1674
a(S'amod'
p1675
S'conjecture'
p1676
S'much'
p1677
tp1678
a(S'nsubj'
p1679
S'is'
p1680
S'conjecture'
p1681
tp1682
a(S'det'
p1683
S'topic'
p1684
S'this'
p1685
tp1686
a(S'prep_on'
p1687
S'conjecture'
p1688
S'topic'
p1689
tp1690
asg49
(lp1691
(g1591
S'ROOT-0'
p1692
S'told-3'
p1693
tp1694
a(g1595
S'Yeltsin-2'
p1695
S'Mrs.-1'
p1696
tp1697
a(g1599
S'told-3'
p1698
S'Yeltsin-2'
p1699
tp1700
a(g1603
S'Fakty-7'
p1701
S'the-4'
p1702
tp1703
a(g1607
S'Fakty-7'
p1704
S'Argumenty-5'
p1705
tp1706
a(g1611
S'Fakty-7'
p1707
S'i-6'
p1708
tp1709
a(g1615
S'weekly-8'
p1710
S'Fakty-7'
p1711
tp1712
a(g1619
S'told-3'
p1713
S'weekly-8'
p1714
tp1715
a(g1623
S'hesitated-11'
p1716
S'that-9'
p1717
tp1718
a(g1627
S'hesitated-11'
p1719
S'she-10'
p1720
tp1721
a(g1631
S'weekly-8'
p1722
S'hesitated-11'
p1723
tp1724
a(g1635
S'hesitated-11'
p1725
S'even-12'
p1726
tp1727
a(g1639
S'touch-14'
p1728
S'to-13'
p1729
tp1730
a(g1643
S'hesitated-11'
p1731
S'touch-14'
p1732
tp1733
a(g1647
S'health-18'
p1734
S'her-16'
p1735
tp1736
a(g1651
S'health-18'
p1737
S'husbands-17'
p1738
tp1739
a(g1655
S'touch-14'
p1740
S'health-18'
p1741
tp1742
a(g1659
S'is-21'
p1743
S'when-19'
p1744
tp1745
a(g1663
S'is-21'
p1746
S'there-20'
p1747
tp1748
a(g1667
S'touch-14'
p1749
S'is-21'
p1750
tp1751
a(g1671
S'much-23'
p1752
S'so-22'
p1753
tp1754
a(g1675
S'conjecture-24'
p1755
S'much-23'
p1756
tp1757
a(g1679
S'is-21'
p1758
S'conjecture-24'
p1759
tp1760
a(g1683
S'topic-27'
p1761
S'this-26'
p1762
tp1763
a(g1687
S'conjecture-24'
p1764
S'topic-27'
p1765
tp1766
asg72
(lp1767
(S'Mrs.'
p1768
(dp1769
S'NamedEntityTag'
p1770
g77
sS'CharacterOffsetEnd'
p1771
S'142'
p1772
sS'Lemma'
p1773
S'Mrs.'
p1774
sS'PartOfSpeech'
p1775
S'NNP'
p1776
sS'CharacterOffsetBegin'
p1777
S'138'
p1778
stp1779
a(S'Yeltsin'
p1780
(dp1781
S'NamedEntityTag'
p1782
S'PERSON'
p1783
sS'CharacterOffsetEnd'
p1784
S'150'
p1785
sS'Lemma'
p1786
S'Yeltsin'
p1787
sS'PartOfSpeech'
p1788
S'NNP'
p1789
sS'CharacterOffsetBegin'
p1790
S'143'
p1791
stp1792
a(S'told'
p1793
(dp1794
S'NamedEntityTag'
p1795
g77
sS'CharacterOffsetEnd'
p1796
S'155'
p1797
sS'Lemma'
p1798
S'tell'
p1799
sS'PartOfSpeech'
p1800
S'VBD'
p1801
sS'CharacterOffsetBegin'
p1802
S'151'
p1803
stp1804
a(S'the'
p1805
(dp1806
S'NamedEntityTag'
p1807
g77
sS'CharacterOffsetEnd'
p1808
S'159'
p1809
sS'Lemma'
p1810
S'the'
p1811
sS'PartOfSpeech'
p1812
S'DT'
p1813
sS'CharacterOffsetBegin'
p1814
S'156'
p1815
stp1816
a(S'Argumenty'
p1817
(dp1818
S'NamedEntityTag'
p1819
g77
sS'CharacterOffsetEnd'
p1820
S'169'
p1821
sS'Lemma'
p1822
S'Argumenty'
p1823
sS'PartOfSpeech'
p1824
S'NNP'
p1825
sS'CharacterOffsetBegin'
p1826
S'160'
p1827
stp1828
a(g1613
(dp1829
S'NamedEntityTag'
p1830
g77
sS'CharacterOffsetEnd'
p1831
S'171'
p1832
sS'Lemma'
p1833
g1613
sS'PartOfSpeech'
p1834
S'FW'
p1835
sS'CharacterOffsetBegin'
p1836
S'170'
p1837
stp1838
a(S'Fakty'
p1839
(dp1840
S'NamedEntityTag'
p1841
S'ORGANIZATION'
p1842
sS'CharacterOffsetEnd'
p1843
S'177'
p1844
sS'Lemma'
p1845
S'Fakty'
p1846
sS'PartOfSpeech'
p1847
S'NNP'
p1848
sS'CharacterOffsetBegin'
p1849
S'172'
p1850
stp1851
a(S'weekly'
p1852
(dp1853
S'Timex'
p1854
S'<TIMEX3 freq="P1X" periodicity="P1W" quant="EVERY" tid="t2" type="SET" value="P1W">weekly</TIMEX3>'
p1855
sS'Lemma'
p1856
S'weekly'
p1857
sS'CharacterOffsetEnd'
p1858
S'184'
p1859
sS'PartOfSpeech'
p1860
S'JJ'
p1861
sS'CharacterOffsetBegin'
p1862
S'178'
p1863
sS'NamedEntityTag'
p1864
S'SET'
p1865
stp1866
a(S'that'
p1867
(dp1868
S'NamedEntityTag'
p1869
g77
sS'CharacterOffsetEnd'
p1870
S'189'
p1871
sS'Lemma'
p1872
S'that'
p1873
sS'PartOfSpeech'
p1874
S'IN'
p1875
sS'CharacterOffsetBegin'
p1876
S'185'
p1877
stp1878
a(S'she'
p1879
(dp1880
S'NamedEntityTag'
p1881
g77
sS'CharacterOffsetEnd'
p1882
S'193'
p1883
sS'Lemma'
p1884
S'she'
p1885
sS'PartOfSpeech'
p1886
S'PRP'
p1887
sS'CharacterOffsetBegin'
p1888
S'190'
p1889
stp1890
a(S'hesitated'
p1891
(dp1892
S'NamedEntityTag'
p1893
g77
sS'CharacterOffsetEnd'
p1894
S'203'
p1895
sS'Lemma'
p1896
S'hesitate'
p1897
sS'PartOfSpeech'
p1898
S'VBD'
p1899
sS'CharacterOffsetBegin'
p1900
S'194'
p1901
stp1902
a(S'even'
p1903
(dp1904
S'NamedEntityTag'
p1905
g77
sS'CharacterOffsetEnd'
p1906
S'208'
p1907
sS'Lemma'
p1908
S'even'
p1909
sS'PartOfSpeech'
p1910
S'RB'
p1911
sS'CharacterOffsetBegin'
p1912
S'204'
p1913
stp1914
a(S'to'
p1915
(dp1916
S'NamedEntityTag'
p1917
g77
sS'CharacterOffsetEnd'
p1918
S'211'
p1919
sS'Lemma'
p1920
S'to'
p1921
sS'PartOfSpeech'
p1922
S'TO'
p1923
sS'CharacterOffsetBegin'
p1924
S'209'
p1925
stp1926
a(S'touch'
p1927
(dp1928
S'NamedEntityTag'
p1929
g77
sS'CharacterOffsetEnd'
p1930
S'217'
p1931
sS'Lemma'
p1932
S'touch'
p1933
sS'PartOfSpeech'
p1934
S'VB'
p1935
sS'CharacterOffsetBegin'
p1936
S'212'
p1937
stp1938
a(S'on'
p1939
(dp1940
S'NamedEntityTag'
p1941
g77
sS'CharacterOffsetEnd'
p1942
S'220'
p1943
sS'Lemma'
p1944
S'on'
p1945
sS'PartOfSpeech'
p1946
S'IN'
p1947
sS'CharacterOffsetBegin'
p1948
S'218'
p1949
stp1950
a(S'her'
p1951
(dp1952
S'NamedEntityTag'
p1953
g77
sS'CharacterOffsetEnd'
p1954
S'224'
p1955
sS'Lemma'
p1956
S'she'
p1957
sS'PartOfSpeech'
p1958
S'PRP$'
p1959
sS'CharacterOffsetBegin'
p1960
S'221'
p1961
stp1962
a(S'husbands'
p1963
(dp1964
S'NamedEntityTag'
p1965
g77
sS'CharacterOffsetEnd'
p1966
S'233'
p1967
sS'Lemma'
p1968
S'husband'
p1969
sS'PartOfSpeech'
p1970
S'NNS'
p1971
sS'CharacterOffsetBegin'
p1972
S'225'
p1973
stp1974
a(S'health'
p1975
(dp1976
S'NamedEntityTag'
p1977
g77
sS'CharacterOffsetEnd'
p1978
S'240'
p1979
sS'Lemma'
p1980
S'health'
p1981
sS'PartOfSpeech'
p1982
S'NN'
p1983
sS'CharacterOffsetBegin'
p1984
S'234'
p1985
stp1986
a(S'when'
p1987
(dp1988
S'NamedEntityTag'
p1989
g77
sS'CharacterOffsetEnd'
p1990
S'245'
p1991
sS'Lemma'
p1992
S'when'
p1993
sS'PartOfSpeech'
p1994
S'WRB'
p1995
sS'CharacterOffsetBegin'
p1996
S'241'
p1997
stp1998
a(S'there'
p1999
(dp2000
S'NamedEntityTag'
p2001
g77
sS'CharacterOffsetEnd'
p2002
S'251'
p2003
sS'Lemma'
p2004
S'there'
p2005
sS'PartOfSpeech'
p2006
S'EX'
p2007
sS'CharacterOffsetBegin'
p2008
S'246'
p2009
stp2010
a(S'is'
p2011
(dp2012
S'NamedEntityTag'
p2013
g77
sS'CharacterOffsetEnd'
p2014
S'254'
p2015
sS'Lemma'
p2016
S'be'
p2017
sS'PartOfSpeech'
p2018
S'VBZ'
p2019
sS'CharacterOffsetBegin'
p2020
S'252'
p2021
stp2022
a(S'so'
p2023
(dp2024
S'NamedEntityTag'
p2025
g77
sS'CharacterOffsetEnd'
p2026
S'257'
p2027
sS'Lemma'
p2028
S'so'
p2029
sS'PartOfSpeech'
p2030
S'RB'
p2031
sS'CharacterOffsetBegin'
p2032
S'255'
p2033
stp2034
a(S'much'
p2035
(dp2036
S'NamedEntityTag'
p2037
g77
sS'CharacterOffsetEnd'
p2038
S'262'
p2039
sS'Lemma'
p2040
S'much'
p2041
sS'PartOfSpeech'
p2042
S'JJ'
p2043
sS'CharacterOffsetBegin'
p2044
S'258'
p2045
stp2046
a(S'conjecture'
p2047
(dp2048
S'NamedEntityTag'
p2049
g77
sS'CharacterOffsetEnd'
p2050
S'273'
p2051
sS'Lemma'
p2052
S'conjecture'
p2053
sS'PartOfSpeech'
p2054
S'NN'
p2055
sS'CharacterOffsetBegin'
p2056
S'263'
p2057
stp2058
a(S'on'
p2059
(dp2060
S'NamedEntityTag'
p2061
g77
sS'CharacterOffsetEnd'
p2062
S'276'
p2063
sS'Lemma'
p2064
S'on'
p2065
sS'PartOfSpeech'
p2066
S'IN'
p2067
sS'CharacterOffsetBegin'
p2068
S'274'
p2069
stp2070
a(S'this'
p2071
(dp2072
S'NamedEntityTag'
p2073
g77
sS'CharacterOffsetEnd'
p2074
S'281'
p2075
sS'Lemma'
p2076
S'this'
p2077
sS'PartOfSpeech'
p2078
S'DT'
p2079
sS'CharacterOffsetBegin'
p2080
S'277'
p2081
stp2082
a(S'topic'
p2083
(dp2084
S'NamedEntityTag'
p2085
g77
sS'CharacterOffsetEnd'
p2086
S'287'
p2087
sS'Lemma'
p2088
S'topic'
p2089
sS'PartOfSpeech'
p2090
S'NN'
p2091
sS'CharacterOffsetBegin'
p2092
S'282'
p2093
stp2094
a(g172
(dp2095
S'NamedEntityTag'
p2096
g77
sS'CharacterOffsetEnd'
p2097
S'288'
p2098
sS'Lemma'
p2099
g172
sS'PartOfSpeech'
p2100
g172
sS'CharacterOffsetBegin'
p2101
S'287'
p2102
stp2103
asa(dp2104
g15
S'(ROOT (S (ADVP (RB Still)) (, ,) (NP (PRP she)) (VP (VBD noted) (SBAR (IN that) (S (NP (PRP he)) (VP (VBD had) (NP (JJ regular) (JJ medical) (NNS check-ups)))))) (. .)))'
p2105
sg17
S'Still, she noted that he had regular medical check-ups.'
p2106
sg19
(lp2107
(S'root'
p2108
S'ROOT'
p2109
S'noted'
p2110
tp2111
a(S'advmod'
p2112
S'noted'
p2113
S'Still'
p2114
tp2115
a(S'nsubj'
p2116
S'noted'
p2117
S'she'
p2118
tp2119
a(S'mark'
p2120
S'had'
p2121
S'that'
p2122
tp2123
a(S'nsubj'
p2124
S'had'
p2125
S'he'
p2126
tp2127
a(S'ccomp'
p2128
S'noted'
p2129
S'had'
p2130
tp2131
a(S'amod'
p2132
S'check-ups'
p2133
S'regular'
p2134
tp2135
a(S'amod'
p2136
S'check-ups'
p2137
S'medical'
p2138
tp2139
a(S'dobj'
p2140
S'had'
p2141
S'check-ups'
p2142
tp2143
asg49
(lp2144
(g2108
S'ROOT-0'
p2145
S'noted-4'
p2146
tp2147
a(g2112
S'noted-4'
p2148
S'Still-1'
p2149
tp2150
a(g2116
S'noted-4'
p2151
S'she-3'
p2152
tp2153
a(g2120
S'had-7'
p2154
S'that-5'
p2155
tp2156
a(g2124
S'had-7'
p2157
S'he-6'
p2158
tp2159
a(g2128
S'noted-4'
p2160
S'had-7'
p2161
tp2162
a(g2132
S'check-ups-10'
p2163
S'regular-8'
p2164
tp2165
a(g2136
S'check-ups-10'
p2166
S'medical-9'
p2167
tp2168
a(g2140
S'had-7'
p2169
S'check-ups-10'
p2170
tp2171
asg72
(lp2172
(S'Still'
p2173
(dp2174
S'NamedEntityTag'
p2175
g77
sS'CharacterOffsetEnd'
p2176
S'294'
p2177
sS'Lemma'
p2178
S'still'
p2179
sS'PartOfSpeech'
p2180
S'RB'
p2181
sS'CharacterOffsetBegin'
p2182
S'289'
p2183
stp2184
a(g240
(dp2185
S'NamedEntityTag'
p2186
g77
sS'CharacterOffsetEnd'
p2187
S'295'
p2188
sS'Lemma'
p2189
g240
sS'PartOfSpeech'
p2190
g240
sS'CharacterOffsetBegin'
p2191
S'294'
p2192
stp2193
a(S'she'
p2194
(dp2195
S'NamedEntityTag'
p2196
g77
sS'CharacterOffsetEnd'
p2197
S'299'
p2198
sS'Lemma'
p2199
S'she'
p2200
sS'PartOfSpeech'
p2201
S'PRP'
p2202
sS'CharacterOffsetBegin'
p2203
S'296'
p2204
stp2205
a(S'noted'
p2206
(dp2207
S'NamedEntityTag'
p2208
g77
sS'CharacterOffsetEnd'
p2209
S'305'
p2210
sS'Lemma'
p2211
S'note'
p2212
sS'PartOfSpeech'
p2213
S'VBD'
p2214
sS'CharacterOffsetBegin'
p2215
S'300'
p2216
stp2217
a(S'that'
p2218
(dp2219
S'NamedEntityTag'
p2220
g77
sS'CharacterOffsetEnd'
p2221
S'310'
p2222
sS'Lemma'
p2223
S'that'
p2224
sS'PartOfSpeech'
p2225
S'IN'
p2226
sS'CharacterOffsetBegin'
p2227
S'306'
p2228
stp2229
a(S'he'
p2230
(dp2231
S'NamedEntityTag'
p2232
g77
sS'CharacterOffsetEnd'
p2233
S'313'
p2234
sS'Lemma'
p2235
S'he'
p2236
sS'PartOfSpeech'
p2237
S'PRP'
p2238
sS'CharacterOffsetBegin'
p2239
S'311'
p2240
stp2241
a(S'had'
p2242
(dp2243
S'NamedEntityTag'
p2244
g77
sS'CharacterOffsetEnd'
p2245
S'317'
p2246
sS'Lemma'
p2247
S'have'
p2248
sS'PartOfSpeech'
p2249
S'VBD'
p2250
sS'CharacterOffsetBegin'
p2251
S'314'
p2252
stp2253
a(S'regular'
p2254
(dp2255
S'NamedEntityTag'
p2256
g77
sS'CharacterOffsetEnd'
p2257
S'325'
p2258
sS'Lemma'
p2259
S'regular'
p2260
sS'PartOfSpeech'
p2261
S'JJ'
p2262
sS'CharacterOffsetBegin'
p2263
S'318'
p2264
stp2265
a(S'medical'
p2266
(dp2267
S'NamedEntityTag'
p2268
g77
sS'CharacterOffsetEnd'
p2269
S'333'
p2270
sS'Lemma'
p2271
S'medical'
p2272
sS'PartOfSpeech'
p2273
S'JJ'
p2274
sS'CharacterOffsetBegin'
p2275
S'326'
p2276
stp2277
a(S'check-ups'
p2278
(dp2279
S'NamedEntityTag'
p2280
g77
sS'CharacterOffsetEnd'
p2281
S'343'
p2282
sS'Lemma'
p2283
S'check-up'
p2284
sS'PartOfSpeech'
p2285
S'NNS'
p2286
sS'CharacterOffsetBegin'
p2287
S'334'
p2288
stp2289
a(g172
(dp2290
S'NamedEntityTag'
p2291
g77
sS'CharacterOffsetEnd'
p2292
S'344'
p2293
sS'Lemma'
p2294
g172
sS'PartOfSpeech'
p2295
g172
sS'CharacterOffsetBegin'
p2296
S'343'
p2297
stp2298
asa(dp2299
g15
S'(ROOT (S (S (S (NP (DT The) (NNS doctors)) (VP (VBP say) (ADVP (RB now)))) (: :) (S (NP (NN Everything)) (VP (VBZ is) (ADJP (ADVP (RBR more) (CC or) (RBR less)) (JJ normal))))) (, ,) (NP (NNP Mrs.) (NNP Yeltsin)) (VP (VBD declared)) (. .)))'
p2300
sg17
S'The doctors say now: Everything is more or less normal, Mrs. Yeltsin declared.'
p2301
sg19
(lp2302
(S'root'
p2303
S'ROOT'
p2304
S'declared'
p2305
tp2306
a(S'det'
p2307
S'doctors'
p2308
S'The'
p2309
tp2310
a(S'nsubj'
p2311
S'say'
p2312
S'doctors'
p2313
tp2314
a(S'ccomp'
p2315
S'declared'
p2316
S'say'
p2317
tp2318
a(S'advmod'
p2319
S'say'
p2320
S'now'
p2321
tp2322
a(S'nsubj'
p2323
S'normal'
p2324
S'Everything'
p2325
tp2326
a(S'cop'
p2327
S'normal'
p2328
S'is'
p2329
tp2330
a(S'advmod'
p2331
S'normal'
p2332
S'more'
p2333
tp2334
a(S'conj_or'
p2335
S'more'
p2336
S'less'
p2337
tp2338
a(S'parataxis'
p2339
S'say'
p2340
S'normal'
p2341
tp2342
a(S'nn'
p2343
S'Yeltsin'
p2344
S'Mrs.'
p2345
tp2346
a(S'nsubj'
p2347
S'declared'
p2348
S'Yeltsin'
p2349
tp2350
asg49
(lp2351
(g2303
S'ROOT-0'
p2352
S'declared-15'
p2353
tp2354
a(g2307
S'doctors-2'
p2355
S'The-1'
p2356
tp2357
a(g2311
S'say-3'
p2358
S'doctors-2'
p2359
tp2360
a(g2315
S'declared-15'
p2361
S'say-3'
p2362
tp2363
a(g2319
S'say-3'
p2364
S'now-4'
p2365
tp2366
a(g2323
S'normal-11'
p2367
S'Everything-6'
p2368
tp2369
a(g2327
S'normal-11'
p2370
S'is-7'
p2371
tp2372
a(g2331
S'normal-11'
p2373
S'more-8'
p2374
tp2375
a(g2335
S'more-8'
p2376
S'less-10'
p2377
tp2378
a(g2339
S'say-3'
p2379
S'normal-11'
p2380
tp2381
a(g2343
S'Yeltsin-14'
p2382
S'Mrs.-13'
p2383
tp2384
a(g2347
S'declared-15'
p2385
S'Yeltsin-14'
p2386
tp2387
asg72
(lp2388
(S'The'
p2389
(dp2390
S'NamedEntityTag'
p2391
g77
sS'CharacterOffsetEnd'
p2392
S'348'
p2393
sS'Lemma'
p2394
S'the'
p2395
sS'PartOfSpeech'
p2396
S'DT'
p2397
sS'CharacterOffsetBegin'
p2398
S'345'
p2399
stp2400
a(S'doctors'
p2401
(dp2402
S'NamedEntityTag'
p2403
g77
sS'CharacterOffsetEnd'
p2404
S'356'
p2405
sS'Lemma'
p2406
S'doctor'
p2407
sS'PartOfSpeech'
p2408
S'NNS'
p2409
sS'CharacterOffsetBegin'
p2410
S'349'
p2411
stp2412
a(S'say'
p2413
(dp2414
S'NamedEntityTag'
p2415
g77
sS'CharacterOffsetEnd'
p2416
S'360'
p2417
sS'Lemma'
p2418
S'say'
p2419
sS'PartOfSpeech'
p2420
S'VBP'
p2421
sS'CharacterOffsetBegin'
p2422
S'357'
p2423
stp2424
a(S'now'
p2425
(dp2426
S'NormalizedNamedEntityTag'
p2427
S'PRESENT_REF'
p2428
sS'Timex'
p2429
S'<TIMEX3 tid="t3" type="DATE" value="PRESENT_REF">now</TIMEX3>'
p2430
sS'Lemma'
p2431
S'now'
p2432
sS'CharacterOffsetEnd'
p2433
S'364'
p2434
sS'PartOfSpeech'
p2435
S'RB'
p2436
sS'CharacterOffsetBegin'
p2437
S'361'
p2438
sS'NamedEntityTag'
p2439
S'DATE'
p2440
stp2441
a(g469
(dp2442
S'NamedEntityTag'
p2443
g77
sS'CharacterOffsetEnd'
p2444
S'365'
p2445
sS'Lemma'
p2446
g469
sS'PartOfSpeech'
p2447
g469
sS'CharacterOffsetBegin'
p2448
S'364'
p2449
stp2450
a(S'Everything'
p2451
(dp2452
S'NamedEntityTag'
p2453
g77
sS'CharacterOffsetEnd'
p2454
S'376'
p2455
sS'Lemma'
p2456
S'everything'
p2457
sS'PartOfSpeech'
p2458
S'NN'
p2459
sS'CharacterOffsetBegin'
p2460
S'366'
p2461
stp2462
a(S'is'
p2463
(dp2464
S'NamedEntityTag'
p2465
g77
sS'CharacterOffsetEnd'
p2466
S'379'
p2467
sS'Lemma'
p2468
S'be'
p2469
sS'PartOfSpeech'
p2470
S'VBZ'
p2471
sS'CharacterOffsetBegin'
p2472
S'377'
p2473
stp2474
a(S'more'
p2475
(dp2476
S'NamedEntityTag'
p2477
g77
sS'CharacterOffsetEnd'
p2478
S'384'
p2479
sS'Lemma'
p2480
S'more'
p2481
sS'PartOfSpeech'
p2482
S'RBR'
p2483
sS'CharacterOffsetBegin'
p2484
S'380'
p2485
stp2486
a(S'or'
p2487
(dp2488
S'NamedEntityTag'
p2489
g77
sS'CharacterOffsetEnd'
p2490
S'387'
p2491
sS'Lemma'
p2492
S'or'
p2493
sS'PartOfSpeech'
p2494
S'CC'
p2495
sS'CharacterOffsetBegin'
p2496
S'385'
p2497
stp2498
a(S'less'
p2499
(dp2500
S'NamedEntityTag'
p2501
g77
sS'CharacterOffsetEnd'
p2502
S'392'
p2503
sS'Lemma'
p2504
S'less'
p2505
sS'PartOfSpeech'
p2506
S'RBR'
p2507
sS'CharacterOffsetBegin'
p2508
S'388'
p2509
stp2510
a(S'normal'
p2511
(dp2512
S'NamedEntityTag'
p2513
g77
sS'CharacterOffsetEnd'
p2514
S'399'
p2515
sS'Lemma'
p2516
S'normal'
p2517
sS'PartOfSpeech'
p2518
S'JJ'
p2519
sS'CharacterOffsetBegin'
p2520
S'393'
p2521
stp2522
a(g240
(dp2523
S'NamedEntityTag'
p2524
g77
sS'CharacterOffsetEnd'
p2525
S'400'
p2526
sS'Lemma'
p2527
g240
sS'PartOfSpeech'
p2528
g240
sS'CharacterOffsetBegin'
p2529
S'399'
p2530
stp2531
a(S'Mrs.'
p2532
(dp2533
S'NamedEntityTag'
p2534
g77
sS'CharacterOffsetEnd'
p2535
S'405'
p2536
sS'Lemma'
p2537
S'Mrs.'
p2538
sS'PartOfSpeech'
p2539
S'NNP'
p2540
sS'CharacterOffsetBegin'
p2541
S'401'
p2542
stp2543
a(S'Yeltsin'
p2544
(dp2545
S'NamedEntityTag'
p2546
S'PERSON'
p2547
sS'CharacterOffsetEnd'
p2548
S'413'
p2549
sS'Lemma'
p2550
S'Yeltsin'
p2551
sS'PartOfSpeech'
p2552
S'NNP'
p2553
sS'CharacterOffsetBegin'
p2554
S'406'
p2555
stp2556
a(S'declared'
p2557
(dp2558
S'NamedEntityTag'
p2559
g77
sS'CharacterOffsetEnd'
p2560
S'422'
p2561
sS'Lemma'
p2562
S'declare'
p2563
sS'PartOfSpeech'
p2564
S'VBD'
p2565
sS'CharacterOffsetBegin'
p2566
S'414'
p2567
stp2568
a(g172
(dp2569
S'NamedEntityTag'
p2570
g77
sS'CharacterOffsetEnd'
p2571
S'423'
p2572
sS'Lemma'
p2573
g172
sS'PartOfSpeech'
p2574
g172
sS'CharacterOffsetBegin'
p2575
S'422'
p2576
stp2577
asa(dp2578
g15
S'(ROOT (S (S (NP (DT The) (JJ 67-year-old) (NNS Yeltsins) (NN health)) (VP (VBZ has) (ADVP (RB long)) (VP (VBN been) (NP (DT a) (NN concern))))) (, ,) (CC and) (S (NP (DT the) (NN worry)) (VP (VBZ has) (VP (VBN been) (VP (VBN amplified) (PP (IN by) (NP (NP (DT the) (NN secrecy)) (VP (VBG surrounding) (NP (PRP$ his) (NN condition))))))))) (. .)))'
p2579
sg17
S'The 67-year-old Yeltsins health has long been a concern, and the worry has been amplified by the secrecy surrounding his condition.'
p2580
sg19
(lp2581
(S'root'
p2582
S'ROOT'
p2583
S'concern'
p2584
tp2585
a(S'det'
p2586
S'health'
p2587
S'The'
p2588
tp2589
a(S'amod'
p2590
S'health'
p2591
S'67-year-old'
p2592
tp2593
a(S'nn'
p2594
S'health'
p2595
S'Yeltsins'
p2596
tp2597
a(S'nsubj'
p2598
S'concern'
p2599
S'health'
p2600
tp2601
a(S'aux'
p2602
S'concern'
p2603
S'has'
p2604
tp2605
a(S'advmod'
p2606
S'concern'
p2607
S'long'
p2608
tp2609
a(S'cop'
p2610
S'concern'
p2611
S'been'
p2612
tp2613
a(S'det'
p2614
S'concern'
p2615
g1531
tp2616
a(S'det'
p2617
S'worry'
p2618
S'the'
p2619
tp2620
a(S'nsubjpass'
p2621
S'amplified'
p2622
S'worry'
p2623
tp2624
a(S'aux'
p2625
S'amplified'
p2626
S'has'
p2627
tp2628
a(S'auxpass'
p2629
S'amplified'
p2630
S'been'
p2631
tp2632
a(S'conj_and'
p2633
S'concern'
p2634
S'amplified'
p2635
tp2636
a(S'det'
p2637
S'secrecy'
p2638
S'the'
p2639
tp2640
a(S'agent'
p2641
S'amplified'
p2642
S'secrecy'
p2643
tp2644
a(S'partmod'
p2645
S'secrecy'
p2646
S'surrounding'
p2647
tp2648
a(S'poss'
p2649
S'condition'
p2650
S'his'
p2651
tp2652
a(S'dobj'
p2653
S'surrounding'
p2654
S'condition'
p2655
tp2656
asg49
(lp2657
(g2582
S'ROOT-0'
p2658
S'concern-9'
p2659
tp2660
a(g2586
S'health-4'
p2661
S'The-1'
p2662
tp2663
a(g2590
S'health-4'
p2664
S'67-year-old-2'
p2665
tp2666
a(g2594
S'health-4'
p2667
S'Yeltsins-3'
p2668
tp2669
a(g2598
S'concern-9'
p2670
S'health-4'
p2671
tp2672
a(g2602
S'concern-9'
p2673
S'has-5'
p2674
tp2675
a(g2606
S'concern-9'
p2676
S'long-6'
p2677
tp2678
a(g2610
S'concern-9'
p2679
S'been-7'
p2680
tp2681
a(g2614
S'concern-9'
p2682
S'a-8'
p2683
tp2684
a(g2617
S'worry-13'
p2685
S'the-12'
p2686
tp2687
a(g2621
S'amplified-16'
p2688
S'worry-13'
p2689
tp2690
a(g2625
S'amplified-16'
p2691
S'has-14'
p2692
tp2693
a(g2629
S'amplified-16'
p2694
S'been-15'
p2695
tp2696
a(g2633
S'concern-9'
p2697
S'amplified-16'
p2698
tp2699
a(g2637
S'secrecy-19'
p2700
S'the-18'
p2701
tp2702
a(g2641
S'amplified-16'
p2703
S'secrecy-19'
p2704
tp2705
a(g2645
S'secrecy-19'
p2706
S'surrounding-20'
p2707
tp2708
a(g2649
S'condition-22'
p2709
S'his-21'
p2710
tp2711
a(g2653
S'surrounding-20'
p2712
S'condition-22'
p2713
tp2714
asg72
(lp2715
(S'The'
p2716
(dp2717
S'NamedEntityTag'
p2718
g77
sS'CharacterOffsetEnd'
p2719
S'427'
p2720
sS'Lemma'
p2721
S'the'
p2722
sS'PartOfSpeech'
p2723
S'DT'
p2724
sS'CharacterOffsetBegin'
p2725
S'424'
p2726
stp2727
a(S'67-year-old'
p2728
(dp2729
S'NormalizedNamedEntityTag'
p2730
S'P67Y'
p2731
sS'Timex'
p2732
S'<TIMEX3 tid="t4" type="DURATION" value="P67Y">67-year-old</TIMEX3>'
p2733
sS'Lemma'
p2734
S'67-year-old'
p2735
sS'CharacterOffsetEnd'
p2736
S'439'
p2737
sS'PartOfSpeech'
p2738
S'JJ'
p2739
sS'CharacterOffsetBegin'
p2740
S'428'
p2741
sS'NamedEntityTag'
p2742
S'DURATION'
p2743
stp2744
a(S'Yeltsins'
p2745
(dp2746
S'NamedEntityTag'
p2747
S'ORGANIZATION'
p2748
sS'CharacterOffsetEnd'
p2749
S'448'
p2750
sS'Lemma'
p2751
S'yeltsin'
p2752
sS'PartOfSpeech'
p2753
S'NNS'
p2754
sS'CharacterOffsetBegin'
p2755
S'440'
p2756
stp2757
a(S'health'
p2758
(dp2759
S'NamedEntityTag'
p2760
g77
sS'CharacterOffsetEnd'
p2761
S'455'
p2762
sS'Lemma'
p2763
S'health'
p2764
sS'PartOfSpeech'
p2765
S'NN'
p2766
sS'CharacterOffsetBegin'
p2767
S'449'
p2768
stp2769
a(S'has'
p2770
(dp2771
S'NamedEntityTag'
p2772
g77
sS'CharacterOffsetEnd'
p2773
S'459'
p2774
sS'Lemma'
p2775
S'have'
p2776
sS'PartOfSpeech'
p2777
S'VBZ'
p2778
sS'CharacterOffsetBegin'
p2779
S'456'
p2780
stp2781
a(S'long'
p2782
(dp2783
S'NamedEntityTag'
p2784
g77
sS'CharacterOffsetEnd'
p2785
S'464'
p2786
sS'Lemma'
p2787
S'long'
p2788
sS'PartOfSpeech'
p2789
S'RB'
p2790
sS'CharacterOffsetBegin'
p2791
S'460'
p2792
stp2793
a(S'been'
p2794
(dp2795
S'NamedEntityTag'
p2796
g77
sS'CharacterOffsetEnd'
p2797
S'469'
p2798
sS'Lemma'
p2799
S'be'
p2800
sS'PartOfSpeech'
p2801
S'VBN'
p2802
sS'CharacterOffsetBegin'
p2803
S'465'
p2804
stp2805
a(g1531
(dp2806
S'NamedEntityTag'
p2807
g77
sS'CharacterOffsetEnd'
p2808
S'471'
p2809
sS'Lemma'
p2810
g1531
sS'PartOfSpeech'
p2811
S'DT'
p2812
sS'CharacterOffsetBegin'
p2813
S'470'
p2814
stp2815
a(S'concern'
p2816
(dp2817
S'NamedEntityTag'
p2818
g77
sS'CharacterOffsetEnd'
p2819
S'479'
p2820
sS'Lemma'
p2821
S'concern'
p2822
sS'PartOfSpeech'
p2823
S'NN'
p2824
sS'CharacterOffsetBegin'
p2825
S'472'
p2826
stp2827
a(g240
(dp2828
S'NamedEntityTag'
p2829
g77
sS'CharacterOffsetEnd'
p2830
S'480'
p2831
sS'Lemma'
p2832
g240
sS'PartOfSpeech'
p2833
g240
sS'CharacterOffsetBegin'
p2834
S'479'
p2835
stp2836
a(S'and'
p2837
(dp2838
S'NamedEntityTag'
p2839
g77
sS'CharacterOffsetEnd'
p2840
S'484'
p2841
sS'Lemma'
p2842
S'and'
p2843
sS'PartOfSpeech'
p2844
S'CC'
p2845
sS'CharacterOffsetBegin'
p2846
S'481'
p2847
stp2848
a(S'the'
p2849
(dp2850
S'NamedEntityTag'
p2851
g77
sS'CharacterOffsetEnd'
p2852
S'488'
p2853
sS'Lemma'
p2854
S'the'
p2855
sS'PartOfSpeech'
p2856
S'DT'
p2857
sS'CharacterOffsetBegin'
p2858
S'485'
p2859
stp2860
a(S'worry'
p2861
(dp2862
S'NamedEntityTag'
p2863
g77
sS'CharacterOffsetEnd'
p2864
S'494'
p2865
sS'Lemma'
p2866
S'worry'
p2867
sS'PartOfSpeech'
p2868
S'NN'
p2869
sS'CharacterOffsetBegin'
p2870
S'489'
p2871
stp2872
a(S'has'
p2873
(dp2874
S'NamedEntityTag'
p2875
g77
sS'CharacterOffsetEnd'
p2876
S'498'
p2877
sS'Lemma'
p2878
S'have'
p2879
sS'PartOfSpeech'
p2880
S'VBZ'
p2881
sS'CharacterOffsetBegin'
p2882
S'495'
p2883
stp2884
a(S'been'
p2885
(dp2886
S'NamedEntityTag'
p2887
g77
sS'CharacterOffsetEnd'
p2888
S'503'
p2889
sS'Lemma'
p2890
S'be'
p2891
sS'PartOfSpeech'
p2892
S'VBN'
p2893
sS'CharacterOffsetBegin'
p2894
S'499'
p2895
stp2896
a(S'amplified'
p2897
(dp2898
S'NamedEntityTag'
p2899
g77
sS'CharacterOffsetEnd'
p2900
S'513'
p2901
sS'Lemma'
p2902
S'amplify'
p2903
sS'PartOfSpeech'
p2904
S'VBN'
p2905
sS'CharacterOffsetBegin'
p2906
S'504'
p2907
stp2908
a(S'by'
p2909
(dp2910
S'NamedEntityTag'
p2911
g77
sS'CharacterOffsetEnd'
p2912
S'516'
p2913
sS'Lemma'
p2914
S'by'
p2915
sS'PartOfSpeech'
p2916
S'IN'
p2917
sS'CharacterOffsetBegin'
p2918
S'514'
p2919
stp2920
a(S'the'
p2921
(dp2922
S'NamedEntityTag'
p2923
g77
sS'CharacterOffsetEnd'
p2924
S'520'
p2925
sS'Lemma'
p2926
S'the'
p2927
sS'PartOfSpeech'
p2928
S'DT'
p2929
sS'CharacterOffsetBegin'
p2930
S'517'
p2931
stp2932
a(S'secrecy'
p2933
(dp2934
S'NamedEntityTag'
p2935
g77
sS'CharacterOffsetEnd'
p2936
S'528'
p2937
sS'Lemma'
p2938
S'secrecy'
p2939
sS'PartOfSpeech'
p2940
S'NN'
p2941
sS'CharacterOffsetBegin'
p2942
S'521'
p2943
stp2944
a(S'surrounding'
p2945
(dp2946
S'NamedEntityTag'
p2947
g77
sS'CharacterOffsetEnd'
p2948
S'540'
p2949
sS'Lemma'
p2950
S'surround'
p2951
sS'PartOfSpeech'
p2952
S'VBG'
p2953
sS'CharacterOffsetBegin'
p2954
S'529'
p2955
stp2956
a(S'his'
p2957
(dp2958
S'NamedEntityTag'
p2959
g77
sS'CharacterOffsetEnd'
p2960
S'544'
p2961
sS'Lemma'
p2962
S'he'
p2963
sS'PartOfSpeech'
p2964
S'PRP$'
p2965
sS'CharacterOffsetBegin'
p2966
S'541'
p2967
stp2968
a(S'condition'
p2969
(dp2970
S'NamedEntityTag'
p2971
g77
sS'CharacterOffsetEnd'
p2972
S'554'
p2973
sS'Lemma'
p2974
S'condition'
p2975
sS'PartOfSpeech'
p2976
S'NN'
p2977
sS'CharacterOffsetBegin'
p2978
S'545'
p2979
stp2980
a(g172
(dp2981
S'NamedEntityTag'
p2982
g77
sS'CharacterOffsetEnd'
p2983
S'555'
p2984
sS'Lemma'
p2985
g172
sS'PartOfSpeech'
p2986
g172
sS'CharacterOffsetBegin'
p2987
S'554'
p2988
stp2989
asa(dp2990
g15
S'(ROOT (S (NP (NNP Yeltsin)) (VP (VP (VBD suffered) (PP (IN from) (NP (NN heart) (NN disease))) (PP (IN during) (NP (DT the) (CD 1996) (JJ presidential) (NN election)))) (CC and) (VP (VBD had) (NP (NP (DT a) (NN heart) (NN attack)) (, ,) (VP (VBN followed) (PP (IN by) (NP (JJ multiple) (NN bypass) (NN surgery)))) (, ,) (PP (IN in) (NP (NP (DT the) (NNS months)) (PP (IN after) (NP (PRP$ his) (NN victory)))))))) (. .)))'
p2991
sg17
S'Yeltsin suffered from heart disease during the 1996 presidential election and had a heart attack, followed by multiple bypass surgery, in the months after his victory.'
p2992
sg19
(lp2993
(S'root'
p2994
S'ROOT'
p2995
S'suffered'
p2996
tp2997
a(S'nsubj'
p2998
S'suffered'
p2999
S'Yeltsin'
p3000
tp3001
a(S'nn'
p3002
S'disease'
p3003
S'heart'
p3004
tp3005
a(S'prep_from'
p3006
S'suffered'
p3007
S'disease'
p3008
tp3009
a(S'det'
p3010
S'election'
p3011
S'the'
p3012
tp3013
a(S'num'
p3014
S'election'
p3015
S'1996'
p3016
tp3017
a(S'amod'
p3018
S'election'
p3019
S'presidential'
p3020
tp3021
a(S'prep_during'
p3022
S'suffered'
p3023
S'election'
p3024
tp3025
a(S'conj_and'
p3026
S'suffered'
p3027
S'had'
p3028
tp3029
a(S'det'
p3030
S'attack'
p3031
g1531
tp3032
a(S'nn'
p3033
S'attack'
p3034
S'heart'
p3035
tp3036
a(S'dobj'
p3037
S'had'
p3038
S'attack'
p3039
tp3040
a(S'partmod'
p3041
S'attack'
p3042
S'followed'
p3043
tp3044
a(S'amod'
p3045
S'surgery'
p3046
S'multiple'
p3047
tp3048
a(S'nn'
p3049
S'surgery'
p3050
S'bypass'
p3051
tp3052
a(S'agent'
p3053
S'followed'
p3054
S'surgery'
p3055
tp3056
a(S'det'
p3057
S'months'
p3058
S'the'
p3059
tp3060
a(S'prep_in'
p3061
S'attack'
p3062
S'months'
p3063
tp3064
a(S'poss'
p3065
S'victory'
p3066
S'his'
p3067
tp3068
a(S'prep_after'
p3069
S'months'
p3070
S'victory'
p3071
tp3072
asg49
(lp3073
(g2994
S'ROOT-0'
p3074
S'suffered-2'
p3075
tp3076
a(g2998
S'suffered-2'
p3077
S'Yeltsin-1'
p3078
tp3079
a(g3002
S'disease-5'
p3080
S'heart-4'
p3081
tp3082
a(g3006
S'suffered-2'
p3083
S'disease-5'
p3084
tp3085
a(g3010
S'election-10'
p3086
S'the-7'
p3087
tp3088
a(g3014
S'election-10'
p3089
S'1996-8'
p3090
tp3091
a(g3018
S'election-10'
p3092
S'presidential-9'
p3093
tp3094
a(g3022
S'suffered-2'
p3095
S'election-10'
p3096
tp3097
a(g3026
S'suffered-2'
p3098
S'had-12'
p3099
tp3100
a(g3030
S'attack-15'
p3101
S'a-13'
p3102
tp3103
a(g3033
S'attack-15'
p3104
S'heart-14'
p3105
tp3106
a(g3037
S'had-12'
p3107
S'attack-15'
p3108
tp3109
a(g3041
S'attack-15'
p3110
S'followed-17'
p3111
tp3112
a(g3045
S'surgery-21'
p3113
S'multiple-19'
p3114
tp3115
a(g3049
S'surgery-21'
p3116
S'bypass-20'
p3117
tp3118
a(g3053
S'followed-17'
p3119
S'surgery-21'
p3120
tp3121
a(g3057
S'months-25'
p3122
S'the-24'
p3123
tp3124
a(g3061
S'attack-15'
p3125
S'months-25'
p3126
tp3127
a(g3065
S'victory-28'
p3128
S'his-27'
p3129
tp3130
a(g3069
S'months-25'
p3131
S'victory-28'
p3132
tp3133
asg72
(lp3134
(S'Yeltsin'
p3135
(dp3136
S'NamedEntityTag'
p3137
S'PERSON'
p3138
sS'CharacterOffsetEnd'
p3139
S'563'
p3140
sS'Lemma'
p3141
S'Yeltsin'
p3142
sS'PartOfSpeech'
p3143
S'NNP'
p3144
sS'CharacterOffsetBegin'
p3145
S'556'
p3146
stp3147
a(S'suffered'
p3148
(dp3149
S'NamedEntityTag'
p3150
g77
sS'CharacterOffsetEnd'
p3151
S'572'
p3152
sS'Lemma'
p3153
S'suffer'
p3154
sS'PartOfSpeech'
p3155
S'VBD'
p3156
sS'CharacterOffsetBegin'
p3157
S'564'
p3158
stp3159
a(S'from'
p3160
(dp3161
S'NamedEntityTag'
p3162
g77
sS'CharacterOffsetEnd'
p3163
S'577'
p3164
sS'Lemma'
p3165
S'from'
p3166
sS'PartOfSpeech'
p3167
S'IN'
p3168
sS'CharacterOffsetBegin'
p3169
S'573'
p3170
stp3171
a(S'heart'
p3172
(dp3173
S'NamedEntityTag'
p3174
g77
sS'CharacterOffsetEnd'
p3175
S'583'
p3176
sS'Lemma'
p3177
S'heart'
p3178
sS'PartOfSpeech'
p3179
S'NN'
p3180
sS'CharacterOffsetBegin'
p3181
S'578'
p3182
stp3183
a(S'disease'
p3184
(dp3185
S'NamedEntityTag'
p3186
g77
sS'CharacterOffsetEnd'
p3187
S'591'
p3188
sS'Lemma'
p3189
S'disease'
p3190
sS'PartOfSpeech'
p3191
S'NN'
p3192
sS'CharacterOffsetBegin'
p3193
S'584'
p3194
stp3195
a(S'during'
p3196
(dp3197
S'NamedEntityTag'
p3198
g77
sS'CharacterOffsetEnd'
p3199
S'598'
p3200
sS'Lemma'
p3201
S'during'
p3202
sS'PartOfSpeech'
p3203
S'IN'
p3204
sS'CharacterOffsetBegin'
p3205
S'592'
p3206
stp3207
a(S'the'
p3208
(dp3209
S'NamedEntityTag'
p3210
g77
sS'CharacterOffsetEnd'
p3211
S'602'
p3212
sS'Lemma'
p3213
S'the'
p3214
sS'PartOfSpeech'
p3215
S'DT'
p3216
sS'CharacterOffsetBegin'
p3217
S'599'
p3218
stp3219
a(S'1996'
p3220
(dp3221
S'NormalizedNamedEntityTag'
p3222
S'1996'
p3223
sS'Timex'
p3224
S'<TIMEX3 tid="t5" type="DATE" value="1996">1996</TIMEX3>'
p3225
sS'Lemma'
p3226
S'1996'
p3227
sS'CharacterOffsetEnd'
p3228
S'607'
p3229
sS'PartOfSpeech'
p3230
S'CD'
p3231
sS'CharacterOffsetBegin'
p3232
S'603'
p3233
sS'NamedEntityTag'
p3234
S'DATE'
p3235
stp3236
a(S'presidential'
p3237
(dp3238
S'NamedEntityTag'
p3239
g77
sS'CharacterOffsetEnd'
p3240
S'620'
p3241
sS'Lemma'
p3242
S'presidential'
p3243
sS'PartOfSpeech'
p3244
S'JJ'
p3245
sS'CharacterOffsetBegin'
p3246
S'608'
p3247
stp3248
a(S'election'
p3249
(dp3250
S'NamedEntityTag'
p3251
g77
sS'CharacterOffsetEnd'
p3252
S'629'
p3253
sS'Lemma'
p3254
S'election'
p3255
sS'PartOfSpeech'
p3256
S'NN'
p3257
sS'CharacterOffsetBegin'
p3258
S'621'
p3259
stp3260
a(S'and'
p3261
(dp3262
S'NamedEntityTag'
p3263
g77
sS'CharacterOffsetEnd'
p3264
S'633'
p3265
sS'Lemma'
p3266
S'and'
p3267
sS'PartOfSpeech'
p3268
S'CC'
p3269
sS'CharacterOffsetBegin'
p3270
S'630'
p3271
stp3272
a(S'had'
p3273
(dp3274
S'NamedEntityTag'
p3275
g77
sS'CharacterOffsetEnd'
p3276
S'637'
p3277
sS'Lemma'
p3278
S'have'
p3279
sS'PartOfSpeech'
p3280
S'VBD'
p3281
sS'CharacterOffsetBegin'
p3282
S'634'
p3283
stp3284
a(g1531
(dp3285
S'NamedEntityTag'
p3286
g77
sS'CharacterOffsetEnd'
p3287
S'639'
p3288
sS'Lemma'
p3289
g1531
sS'PartOfSpeech'
p3290
S'DT'
p3291
sS'CharacterOffsetBegin'
p3292
S'638'
p3293
stp3294
a(S'heart'
p3295
(dp3296
S'NamedEntityTag'
p3297
g77
sS'CharacterOffsetEnd'
p3298
S'645'
p3299
sS'Lemma'
p3300
S'heart'
p3301
sS'PartOfSpeech'
p3302
S'NN'
p3303
sS'CharacterOffsetBegin'
p3304
S'640'
p3305
stp3306
a(S'attack'
p3307
(dp3308
S'NamedEntityTag'
p3309
g77
sS'CharacterOffsetEnd'
p3310
S'652'
p3311
sS'Lemma'
p3312
S'attack'
p3313
sS'PartOfSpeech'
p3314
S'NN'
p3315
sS'CharacterOffsetBegin'
p3316
S'646'
p3317
stp3318
a(g240
(dp3319
S'NamedEntityTag'
p3320
g77
sS'CharacterOffsetEnd'
p3321
S'653'
p3322
sS'Lemma'
p3323
g240
sS'PartOfSpeech'
p3324
g240
sS'CharacterOffsetBegin'
p3325
S'652'
p3326
stp3327
a(S'followed'
p3328
(dp3329
S'NamedEntityTag'
p3330
g77
sS'CharacterOffsetEnd'
p3331
S'662'
p3332
sS'Lemma'
p3333
S'follow'
p3334
sS'PartOfSpeech'
p3335
S'VBN'
p3336
sS'CharacterOffsetBegin'
p3337
S'654'
p3338
stp3339
a(S'by'
p3340
(dp3341
S'NamedEntityTag'
p3342
g77
sS'CharacterOffsetEnd'
p3343
S'665'
p3344
sS'Lemma'
p3345
S'by'
p3346
sS'PartOfSpeech'
p3347
S'IN'
p3348
sS'CharacterOffsetBegin'
p3349
S'663'
p3350
stp3351
a(S'multiple'
p3352
(dp3353
S'NamedEntityTag'
p3354
g77
sS'CharacterOffsetEnd'
p3355
S'674'
p3356
sS'Lemma'
p3357
S'multiple'
p3358
sS'PartOfSpeech'
p3359
S'JJ'
p3360
sS'CharacterOffsetBegin'
p3361
S'666'
p3362
stp3363
a(S'bypass'
p3364
(dp3365
S'NamedEntityTag'
p3366
g77
sS'CharacterOffsetEnd'
p3367
S'681'
p3368
sS'Lemma'
p3369
S'bypass'
p3370
sS'PartOfSpeech'
p3371
S'NN'
p3372
sS'CharacterOffsetBegin'
p3373
S'675'
p3374
stp3375
a(S'surgery'
p3376
(dp3377
S'NamedEntityTag'
p3378
g77
sS'CharacterOffsetEnd'
p3379
S'689'
p3380
sS'Lemma'
p3381
S'surgery'
p3382
sS'PartOfSpeech'
p3383
S'NN'
p3384
sS'CharacterOffsetBegin'
p3385
S'682'
p3386
stp3387
a(g240
(dp3388
S'NamedEntityTag'
p3389
g77
sS'CharacterOffsetEnd'
p3390
S'690'
p3391
sS'Lemma'
p3392
g240
sS'PartOfSpeech'
p3393
g240
sS'CharacterOffsetBegin'
p3394
S'689'
p3395
stp3396
a(S'in'
p3397
(dp3398
S'NamedEntityTag'
p3399
g77
sS'CharacterOffsetEnd'
p3400
S'693'
p3401
sS'Lemma'
p3402
S'in'
p3403
sS'PartOfSpeech'
p3404
S'IN'
p3405
sS'CharacterOffsetBegin'
p3406
S'691'
p3407
stp3408
a(S'the'
p3409
(dp3410
S'NormalizedNamedEntityTag'
p3411
S'PXM'
p3412
sS'Timex'
p3413
S'<TIMEX3 tid="t6" type="DURATION" value="PXM">the months</TIMEX3>'
p3414
sS'Lemma'
p3415
S'the'
p3416
sS'CharacterOffsetEnd'
p3417
S'697'
p3418
sS'PartOfSpeech'
p3419
S'DT'
p3420
sS'CharacterOffsetBegin'
p3421
S'694'
p3422
sS'NamedEntityTag'
p3423
S'DURATION'
p3424
stp3425
a(S'months'
p3426
(dp3427
S'NormalizedNamedEntityTag'
p3428
S'PXM'
p3429
sS'Timex'
p3430
S'<TIMEX3 tid="t6" type="DURATION" value="PXM">the months</TIMEX3>'
p3431
sS'Lemma'
p3432
S'month'
p3433
sS'CharacterOffsetEnd'
p3434
S'704'
p3435
sS'PartOfSpeech'
p3436
S'NNS'
p3437
sS'CharacterOffsetBegin'
p3438
S'698'
p3439
sS'NamedEntityTag'
p3440
S'DURATION'
p3441
stp3442
a(S'after'
p3443
(dp3444
S'NamedEntityTag'
p3445
g77
sS'CharacterOffsetEnd'
p3446
S'710'
p3447
sS'Lemma'
p3448
S'after'
p3449
sS'PartOfSpeech'
p3450
S'IN'
p3451
sS'CharacterOffsetBegin'
p3452
S'705'
p3453
stp3454
a(S'his'
p3455
(dp3456
S'NamedEntityTag'
p3457
g77
sS'CharacterOffsetEnd'
p3458
S'714'
p3459
sS'Lemma'
p3460
S'he'
p3461
sS'PartOfSpeech'
p3462
S'PRP$'
p3463
sS'CharacterOffsetBegin'
p3464
S'711'
p3465
stp3466
a(S'victory'
p3467
(dp3468
S'NamedEntityTag'
p3469
g77
sS'CharacterOffsetEnd'
p3470
S'722'
p3471
sS'Lemma'
p3472
S'victory'
p3473
sS'PartOfSpeech'
p3474
S'NN'
p3475
sS'CharacterOffsetBegin'
p3476
S'715'
p3477
stp3478
a(g172
(dp3479
S'NamedEntityTag'
p3480
g77
sS'CharacterOffsetEnd'
p3481
S'723'
p3482
sS'Lemma'
p3483
g172
sS'PartOfSpeech'
p3484
g172
sS'CharacterOffsetBegin'
p3485
S'722'
p3486
stp3487
asa(dp3488
g15
S'(ROOT (S (NP (NNP Mrs.) (NNP Yeltsin)) (VP (VBD expressed) (NP (NP (NN understanding)) (PP (IN for) (NP (NNPS Russians))) (SBAR (WHNP (WP who)) (S (VP (VBD took) (NP (NN part)) (NP-TMP (NNP Wednesday)) (PP (IN in) (NP (NP (NNS protests)) (PP (IN for) (NP (JJ unpaid) (NNS wages)))))))))) (. .)))'
p3489
sg17
S'Mrs. Yeltsin expressed understanding for Russians who took part Wednesday in protests for unpaid wages.'
p3490
sg19
(lp3491
(S'root'
p3492
S'ROOT'
p3493
S'expressed'
p3494
tp3495
a(S'nn'
p3496
S'Yeltsin'
p3497
S'Mrs.'
p3498
tp3499
a(S'nsubj'
p3500
S'expressed'
p3501
S'Yeltsin'
p3502
tp3503
a(S'dobj'
p3504
S'expressed'
p3505
S'understanding'
p3506
tp3507
a(S'prep_for'
p3508
S'understanding'
p3509
S'Russians'
p3510
tp3511
a(S'nsubj'
p3512
S'took'
p3513
S'who'
p3514
tp3515
a(S'rcmod'
p3516
S'understanding'
p3517
S'took'
p3518
tp3519
a(S'dobj'
p3520
S'took'
p3521
S'part'
p3522
tp3523
a(S'tmod'
p3524
S'took'
p3525
S'Wednesday'
p3526
tp3527
a(S'prep_in'
p3528
S'took'
p3529
S'protests'
p3530
tp3531
a(S'amod'
p3532
S'wages'
p3533
S'unpaid'
p3534
tp3535
a(S'prep_for'
p3536
S'protests'
p3537
S'wages'
p3538
tp3539
asg49
(lp3540
(g3492
S'ROOT-0'
p3541
S'expressed-3'
p3542
tp3543
a(g3496
S'Yeltsin-2'
p3544
S'Mrs.-1'
p3545
tp3546
a(g3500
S'expressed-3'
p3547
S'Yeltsin-2'
p3548
tp3549
a(g3504
S'expressed-3'
p3550
S'understanding-4'
p3551
tp3552
a(g3508
S'understanding-4'
p3553
S'Russians-6'
p3554
tp3555
a(g3512
S'took-8'
p3556
S'who-7'
p3557
tp3558
a(g3516
S'understanding-4'
p3559
S'took-8'
p3560
tp3561
a(g3520
S'took-8'
p3562
S'part-9'
p3563
tp3564
a(g3524
S'took-8'
p3565
S'Wednesday-10'
p3566
tp3567
a(g3528
S'took-8'
p3568
S'protests-12'
p3569
tp3570
a(g3532
S'wages-15'
p3571
S'unpaid-14'
p3572
tp3573
a(g3536
S'protests-12'
p3574
S'wages-15'
p3575
tp3576
asg72
(lp3577
(S'Mrs.'
p3578
(dp3579
S'NamedEntityTag'
p3580
g77
sS'CharacterOffsetEnd'
p3581
S'728'
p3582
sS'Lemma'
p3583
S'Mrs.'
p3584
sS'PartOfSpeech'
p3585
S'NNP'
p3586
sS'CharacterOffsetBegin'
p3587
S'724'
p3588
stp3589
a(S'Yeltsin'
p3590
(dp3591
S'NamedEntityTag'
p3592
S'PERSON'
p3593
sS'CharacterOffsetEnd'
p3594
S'736'
p3595
sS'Lemma'
p3596
S'Yeltsin'
p3597
sS'PartOfSpeech'
p3598
S'NNP'
p3599
sS'CharacterOffsetBegin'
p3600
S'729'
p3601
stp3602
a(S'expressed'
p3603
(dp3604
S'NamedEntityTag'
p3605
g77
sS'CharacterOffsetEnd'
p3606
S'746'
p3607
sS'Lemma'
p3608
S'express'
p3609
sS'PartOfSpeech'
p3610
S'VBD'
p3611
sS'CharacterOffsetBegin'
p3612
S'737'
p3613
stp3614
a(S'understanding'
p3615
(dp3616
S'NamedEntityTag'
p3617
g77
sS'CharacterOffsetEnd'
p3618
S'760'
p3619
sS'Lemma'
p3620
S'understanding'
p3621
sS'PartOfSpeech'
p3622
S'NN'
p3623
sS'CharacterOffsetBegin'
p3624
S'747'
p3625
stp3626
a(S'for'
p3627
(dp3628
S'NamedEntityTag'
p3629
g77
sS'CharacterOffsetEnd'
p3630
S'764'
p3631
sS'Lemma'
p3632
S'for'
p3633
sS'PartOfSpeech'
p3634
S'IN'
p3635
sS'CharacterOffsetBegin'
p3636
S'761'
p3637
stp3638
a(S'Russians'
p3639
(dp3640
S'NamedEntityTag'
p3641
S'MISC'
p3642
sS'CharacterOffsetEnd'
p3643
S'773'
p3644
sS'Lemma'
p3645
S'Russians'
p3646
sS'PartOfSpeech'
p3647
S'NNPS'
p3648
sS'CharacterOffsetBegin'
p3649
S'765'
p3650
stp3651
a(S'who'
p3652
(dp3653
S'NamedEntityTag'
p3654
g77
sS'CharacterOffsetEnd'
p3655
S'777'
p3656
sS'Lemma'
p3657
S'who'
p3658
sS'PartOfSpeech'
p3659
S'WP'
p3660
sS'CharacterOffsetBegin'
p3661
S'774'
p3662
stp3663
a(S'took'
p3664
(dp3665
S'NamedEntityTag'
p3666
g77
sS'CharacterOffsetEnd'
p3667
S'782'
p3668
sS'Lemma'
p3669
S'take'
p3670
sS'PartOfSpeech'
p3671
S'VBD'
p3672
sS'CharacterOffsetBegin'
p3673
S'778'
p3674
stp3675
a(S'part'
p3676
(dp3677
S'NamedEntityTag'
p3678
g77
sS'CharacterOffsetEnd'
p3679
S'787'
p3680
sS'Lemma'
p3681
S'part'
p3682
sS'PartOfSpeech'
p3683
S'NN'
p3684
sS'CharacterOffsetBegin'
p3685
S'783'
p3686
stp3687
a(S'Wednesday'
p3688
(dp3689
S'NormalizedNamedEntityTag'
p3690
S'XXXX-WXX-3'
p3691
sS'Timex'
p3692
S'<TIMEX3 tid="t1" type="DATE" value="XXXX-WXX-3">Wednesday</TIMEX3>'
p3693
sS'Lemma'
p3694
S'Wednesday'
p3695
sS'CharacterOffsetEnd'
p3696
S'797'
p3697
sS'PartOfSpeech'
p3698
S'NNP'
p3699
sS'CharacterOffsetBegin'
p3700
S'788'
p3701
sS'NamedEntityTag'
p3702
S'DATE'
p3703
stp3704
a(S'in'
p3705
(dp3706
S'NamedEntityTag'
p3707
g77
sS'CharacterOffsetEnd'
p3708
S'800'
p3709
sS'Lemma'
p3710
S'in'
p3711
sS'PartOfSpeech'
p3712
S'IN'
p3713
sS'CharacterOffsetBegin'
p3714
S'798'
p3715
stp3716
a(S'protests'
p3717
(dp3718
S'NamedEntityTag'
p3719
g77
sS'CharacterOffsetEnd'
p3720
S'809'
p3721
sS'Lemma'
p3722
S'protest'
p3723
sS'PartOfSpeech'
p3724
S'NNS'
p3725
sS'CharacterOffsetBegin'
p3726
S'801'
p3727
stp3728
a(S'for'
p3729
(dp3730
S'NamedEntityTag'
p3731
g77
sS'CharacterOffsetEnd'
p3732
S'813'
p3733
sS'Lemma'
p3734
S'for'
p3735
sS'PartOfSpeech'
p3736
S'IN'
p3737
sS'CharacterOffsetBegin'
p3738
S'810'
p3739
stp3740
a(S'unpaid'
p3741
(dp3742
S'NamedEntityTag'
p3743
g77
sS'CharacterOffsetEnd'
p3744
S'820'
p3745
sS'Lemma'
p3746
S'unpaid'
p3747
sS'PartOfSpeech'
p3748
S'JJ'
p3749
sS'CharacterOffsetBegin'
p3750
S'814'
p3751
stp3752
a(S'wages'
p3753
(dp3754
S'NamedEntityTag'
p3755
g77
sS'CharacterOffsetEnd'
p3756
S'826'
p3757
sS'Lemma'
p3758
S'wages'
p3759
sS'PartOfSpeech'
p3760
S'NNS'
p3761
sS'CharacterOffsetBegin'
p3762
S'821'
p3763
stp3764
a(g172
(dp3765
S'NamedEntityTag'
p3766
g77
sS'CharacterOffsetEnd'
p3767
S'827'
p3768
sS'Lemma'
p3769
g172
sS'PartOfSpeech'
p3770
g172
sS'CharacterOffsetBegin'
p3771
S'826'
p3772
stp3773
asa(dp3774
g15
S'(ROOT (S (NP (PRP She)) (ADVP (RB also)) (VP (VBD said) (SBAR (IN that) (S (NP (NP (NN criticism)) (PP (IN of) (NP (DT the) (NN president)))) (VP (VBD was) (ADJP (JJ normal)) (, ,) (SBAR (IN though) (S (NP (PRP it)) (VP (VBD was) (ADJP (JJ offensive)) (SBAR (WHADVP (WRB when)) (S (NP (PRP it)) (VP (VBD focused) (PP (IN on) (NP (NN anything) (JJ other))) (PP (IN than) (NP (NP (PRP$ his) (JJ professional) (NN performance)) (, ,) (PP (JJ such) (IN as) (NP (PRP$ his) (NN age))))))))))))))) (. .)))'
p3775
sg17
S'She also said that criticism of the president was normal, though it was offensive when it focused on anything other than his professional performance, such as his age.'
p3776
sg19
(lp3777
(S'root'
p3778
S'ROOT'
p3779
S'said'
p3780
tp3781
a(S'nsubj'
p3782
S'said'
p3783
S'She'
p3784
tp3785
a(S'advmod'
p3786
S'said'
p3787
S'also'
p3788
tp3789
a(S'mark'
p3790
S'normal'
p3791
S'that'
p3792
tp3793
a(S'nsubj'
p3794
S'normal'
p3795
S'criticism'
p3796
tp3797
a(S'det'
p3798
S'president'
p3799
S'the'
p3800
tp3801
a(S'prep_of'
p3802
S'criticism'
p3803
S'president'
p3804
tp3805
a(S'cop'
p3806
S'normal'
p3807
S'was'
p3808
tp3809
a(S'ccomp'
p3810
S'said'
p3811
S'normal'
p3812
tp3813
a(S'mark'
p3814
S'offensive'
p3815
S'though'
p3816
tp3817
a(S'nsubj'
p3818
S'offensive'
p3819
S'it'
p3820
tp3821
a(S'cop'
p3822
S'offensive'
p3823
S'was'
p3824
tp3825
a(S'advcl'
p3826
S'normal'
p3827
S'offensive'
p3828
tp3829
a(S'advmod'
p3830
S'focused'
p3831
S'when'
p3832
tp3833
a(S'nsubj'
p3834
S'focused'
p3835
S'it'
p3836
tp3837
a(S'advcl'
p3838
S'offensive'
p3839
S'focused'
p3840
tp3841
a(S'prep_on'
p3842
S'focused'
p3843
S'anything'
p3844
tp3845
a(S'amod'
p3846
S'anything'
p3847
S'other'
p3848
tp3849
a(S'poss'
p3850
S'performance'
p3851
S'his'
p3852
tp3853
a(S'amod'
p3854
S'performance'
p3855
S'professional'
p3856
tp3857
a(S'prep_than'
p3858
S'focused'
p3859
S'performance'
p3860
tp3861
a(S'poss'
p3862
S'age'
p3863
S'his'
p3864
tp3865
a(S'prep_such_as'
p3866
S'performance'
p3867
S'age'
p3868
tp3869
asg49
(lp3870
(g3778
S'ROOT-0'
p3871
S'said-3'
p3872
tp3873
a(g3782
S'said-3'
p3874
S'She-1'
p3875
tp3876
a(g3786
S'said-3'
p3877
S'also-2'
p3878
tp3879
a(g3790
S'normal-10'
p3880
S'that-4'
p3881
tp3882
a(g3794
S'normal-10'
p3883
S'criticism-5'
p3884
tp3885
a(g3798
S'president-8'
p3886
S'the-7'
p3887
tp3888
a(g3802
S'criticism-5'
p3889
S'president-8'
p3890
tp3891
a(g3806
S'normal-10'
p3892
S'was-9'
p3893
tp3894
a(g3810
S'said-3'
p3895
S'normal-10'
p3896
tp3897
a(g3814
S'offensive-15'
p3898
S'though-12'
p3899
tp3900
a(g3818
S'offensive-15'
p3901
S'it-13'
p3902
tp3903
a(g3822
S'offensive-15'
p3904
S'was-14'
p3905
tp3906
a(g3826
S'normal-10'
p3907
S'offensive-15'
p3908
tp3909
a(g3830
S'focused-18'
p3910
S'when-16'
p3911
tp3912
a(g3834
S'focused-18'
p3913
S'it-17'
p3914
tp3915
a(g3838
S'offensive-15'
p3916
S'focused-18'
p3917
tp3918
a(g3842
S'focused-18'
p3919
S'anything-20'
p3920
tp3921
a(g3846
S'anything-20'
p3922
S'other-21'
p3923
tp3924
a(g3850
S'performance-25'
p3925
S'his-23'
p3926
tp3927
a(g3854
S'performance-25'
p3928
S'professional-24'
p3929
tp3930
a(g3858
S'focused-18'
p3931
S'performance-25'
p3932
tp3933
a(g3862
S'age-30'
p3934
S'his-29'
p3935
tp3936
a(g3866
S'performance-25'
p3937
S'age-30'
p3938
tp3939
asg72
(lp3940
(S'She'
p3941
(dp3942
S'NamedEntityTag'
p3943
g77
sS'CharacterOffsetEnd'
p3944
S'831'
p3945
sS'Lemma'
p3946
S'she'
p3947
sS'PartOfSpeech'
p3948
S'PRP'
p3949
sS'CharacterOffsetBegin'
p3950
S'828'
p3951
stp3952
a(S'also'
p3953
(dp3954
S'NamedEntityTag'
p3955
g77
sS'CharacterOffsetEnd'
p3956
S'836'
p3957
sS'Lemma'
p3958
S'also'
p3959
sS'PartOfSpeech'
p3960
S'RB'
p3961
sS'CharacterOffsetBegin'
p3962
S'832'
p3963
stp3964
a(S'said'
p3965
(dp3966
S'NamedEntityTag'
p3967
g77
sS'CharacterOffsetEnd'
p3968
S'841'
p3969
sS'Lemma'
p3970
S'say'
p3971
sS'PartOfSpeech'
p3972
S'VBD'
p3973
sS'CharacterOffsetBegin'
p3974
S'837'
p3975
stp3976
a(S'that'
p3977
(dp3978
S'NamedEntityTag'
p3979
g77
sS'CharacterOffsetEnd'
p3980
S'846'
p3981
sS'Lemma'
p3982
S'that'
p3983
sS'PartOfSpeech'
p3984
S'IN'
p3985
sS'CharacterOffsetBegin'
p3986
S'842'
p3987
stp3988
a(S'criticism'
p3989
(dp3990
S'NamedEntityTag'
p3991
g77
sS'CharacterOffsetEnd'
p3992
S'856'
p3993
sS'Lemma'
p3994
S'criticism'
p3995
sS'PartOfSpeech'
p3996
S'NN'
p3997
sS'CharacterOffsetBegin'
p3998
S'847'
p3999
stp4000
a(S'of'
p4001
(dp4002
S'NamedEntityTag'
p4003
g77
sS'CharacterOffsetEnd'
p4004
S'859'
p4005
sS'Lemma'
p4006
S'of'
p4007
sS'PartOfSpeech'
p4008
S'IN'
p4009
sS'CharacterOffsetBegin'
p4010
S'857'
p4011
stp4012
a(S'the'
p4013
(dp4014
S'NamedEntityTag'
p4015
g77
sS'CharacterOffsetEnd'
p4016
S'863'
p4017
sS'Lemma'
p4018
S'the'
p4019
sS'PartOfSpeech'
p4020
S'DT'
p4021
sS'CharacterOffsetBegin'
p4022
S'860'
p4023
stp4024
a(S'president'
p4025
(dp4026
S'NamedEntityTag'
p4027
g77
sS'CharacterOffsetEnd'
p4028
S'873'
p4029
sS'Lemma'
p4030
S'president'
p4031
sS'PartOfSpeech'
p4032
S'NN'
p4033
sS'CharacterOffsetBegin'
p4034
S'864'
p4035
stp4036
a(S'was'
p4037
(dp4038
S'NamedEntityTag'
p4039
g77
sS'CharacterOffsetEnd'
p4040
S'877'
p4041
sS'Lemma'
p4042
S'be'
p4043
sS'PartOfSpeech'
p4044
S'VBD'
p4045
sS'CharacterOffsetBegin'
p4046
S'874'
p4047
stp4048
a(S'normal'
p4049
(dp4050
S'NamedEntityTag'
p4051
g77
sS'CharacterOffsetEnd'
p4052
S'884'
p4053
sS'Lemma'
p4054
S'normal'
p4055
sS'PartOfSpeech'
p4056
S'JJ'
p4057
sS'CharacterOffsetBegin'
p4058
S'878'
p4059
stp4060
a(g240
(dp4061
S'NamedEntityTag'
p4062
g77
sS'CharacterOffsetEnd'
p4063
S'885'
p4064
sS'Lemma'
p4065
g240
sS'PartOfSpeech'
p4066
g240
sS'CharacterOffsetBegin'
p4067
S'884'
p4068
stp4069
a(S'though'
p4070
(dp4071
S'NamedEntityTag'
p4072
g77
sS'CharacterOffsetEnd'
p4073
S'892'
p4074
sS'Lemma'
p4075
S'though'
p4076
sS'PartOfSpeech'
p4077
S'IN'
p4078
sS'CharacterOffsetBegin'
p4079
S'886'
p4080
stp4081
a(S'it'
p4082
(dp4083
S'NamedEntityTag'
p4084
g77
sS'CharacterOffsetEnd'
p4085
S'895'
p4086
sS'Lemma'
p4087
S'it'
p4088
sS'PartOfSpeech'
p4089
S'PRP'
p4090
sS'CharacterOffsetBegin'
p4091
S'893'
p4092
stp4093
a(S'was'
p4094
(dp4095
S'NamedEntityTag'
p4096
g77
sS'CharacterOffsetEnd'
p4097
S'899'
p4098
sS'Lemma'
p4099
S'be'
p4100
sS'PartOfSpeech'
p4101
S'VBD'
p4102
sS'CharacterOffsetBegin'
p4103
S'896'
p4104
stp4105
a(S'offensive'
p4106
(dp4107
S'NamedEntityTag'
p4108
g77
sS'CharacterOffsetEnd'
p4109
S'909'
p4110
sS'Lemma'
p4111
S'offensive'
p4112
sS'PartOfSpeech'
p4113
S'JJ'
p4114
sS'CharacterOffsetBegin'
p4115
S'900'
p4116
stp4117
a(S'when'
p4118
(dp4119
S'NamedEntityTag'
p4120
g77
sS'CharacterOffsetEnd'
p4121
S'914'
p4122
sS'Lemma'
p4123
S'when'
p4124
sS'PartOfSpeech'
p4125
S'WRB'
p4126
sS'CharacterOffsetBegin'
p4127
S'910'
p4128
stp4129
a(S'it'
p4130
(dp4131
S'NamedEntityTag'
p4132
g77
sS'CharacterOffsetEnd'
p4133
S'917'
p4134
sS'Lemma'
p4135
S'it'
p4136
sS'PartOfSpeech'
p4137
S'PRP'
p4138
sS'CharacterOffsetBegin'
p4139
S'915'
p4140
stp4141
a(S'focused'
p4142
(dp4143
S'NamedEntityTag'
p4144
g77
sS'CharacterOffsetEnd'
p4145
S'925'
p4146
sS'Lemma'
p4147
S'focus'
p4148
sS'PartOfSpeech'
p4149
S'VBD'
p4150
sS'CharacterOffsetBegin'
p4151
S'918'
p4152
stp4153
a(S'on'
p4154
(dp4155
S'NamedEntityTag'
p4156
g77
sS'CharacterOffsetEnd'
p4157
S'928'
p4158
sS'Lemma'
p4159
S'on'
p4160
sS'PartOfSpeech'
p4161
S'IN'
p4162
sS'CharacterOffsetBegin'
p4163
S'926'
p4164
stp4165
a(S'anything'
p4166
(dp4167
S'NamedEntityTag'
p4168
g77
sS'CharacterOffsetEnd'
p4169
S'937'
p4170
sS'Lemma'
p4171
S'anything'
p4172
sS'PartOfSpeech'
p4173
S'NN'
p4174
sS'CharacterOffsetBegin'
p4175
S'929'
p4176
stp4177
a(S'other'
p4178
(dp4179
S'NamedEntityTag'
p4180
g77
sS'CharacterOffsetEnd'
p4181
S'943'
p4182
sS'Lemma'
p4183
S'other'
p4184
sS'PartOfSpeech'
p4185
S'JJ'
p4186
sS'CharacterOffsetBegin'
p4187
S'938'
p4188
stp4189
a(S'than'
p4190
(dp4191
S'NamedEntityTag'
p4192
g77
sS'CharacterOffsetEnd'
p4193
S'948'
p4194
sS'Lemma'
p4195
S'than'
p4196
sS'PartOfSpeech'
p4197
S'IN'
p4198
sS'CharacterOffsetBegin'
p4199
S'944'
p4200
stp4201
a(S'his'
p4202
(dp4203
S'NamedEntityTag'
p4204
g77
sS'CharacterOffsetEnd'
p4205
S'952'
p4206
sS'Lemma'
p4207
S'he'
p4208
sS'PartOfSpeech'
p4209
S'PRP$'
p4210
sS'CharacterOffsetBegin'
p4211
S'949'
p4212
stp4213
a(S'professional'
p4214
(dp4215
S'NamedEntityTag'
p4216
g77
sS'CharacterOffsetEnd'
p4217
S'965'
p4218
sS'Lemma'
p4219
S'professional'
p4220
sS'PartOfSpeech'
p4221
S'JJ'
p4222
sS'CharacterOffsetBegin'
p4223
S'953'
p4224
stp4225
a(S'performance'
p4226
(dp4227
S'NamedEntityTag'
p4228
g77
sS'CharacterOffsetEnd'
p4229
S'977'
p4230
sS'Lemma'
p4231
S'performance'
p4232
sS'PartOfSpeech'
p4233
S'NN'
p4234
sS'CharacterOffsetBegin'
p4235
S'966'
p4236
stp4237
a(g240
(dp4238
S'NamedEntityTag'
p4239
g77
sS'CharacterOffsetEnd'
p4240
S'978'
p4241
sS'Lemma'
p4242
g240
sS'PartOfSpeech'
p4243
g240
sS'CharacterOffsetBegin'
p4244
S'977'
p4245
stp4246
a(S'such'
p4247
(dp4248
S'NamedEntityTag'
p4249
g77
sS'CharacterOffsetEnd'
p4250
S'983'
p4251
sS'Lemma'
p4252
S'such'
p4253
sS'PartOfSpeech'
p4254
S'JJ'
p4255
sS'CharacterOffsetBegin'
p4256
S'979'
p4257
stp4258
a(S'as'
p4259
(dp4260
S'NamedEntityTag'
p4261
g77
sS'CharacterOffsetEnd'
p4262
S'986'
p4263
sS'Lemma'
p4264
S'as'
p4265
sS'PartOfSpeech'
p4266
S'IN'
p4267
sS'CharacterOffsetBegin'
p4268
S'984'
p4269
stp4270
a(S'his'
p4271
(dp4272
S'NamedEntityTag'
p4273
g77
sS'CharacterOffsetEnd'
p4274
S'990'
p4275
sS'Lemma'
p4276
S'he'
p4277
sS'PartOfSpeech'
p4278
S'PRP$'
p4279
sS'CharacterOffsetBegin'
p4280
S'987'
p4281
stp4282
a(S'age'
p4283
(dp4284
S'NamedEntityTag'
p4285
g77
sS'CharacterOffsetEnd'
p4286
S'994'
p4287
sS'Lemma'
p4288
S'age'
p4289
sS'PartOfSpeech'
p4290
S'NN'
p4291
sS'CharacterOffsetBegin'
p4292
S'991'
p4293
stp4294
a(g172
(dp4295
S'NamedEntityTag'
p4296
g77
sS'CharacterOffsetEnd'
p4297
S'995'
p4298
sS'Lemma'
p4299
g172
sS'PartOfSpeech'
p4300
g172
sS'CharacterOffsetBegin'
p4301
S'994'
p4302
stp4303
asa(dp4304
g15
S'(ROOT (S (S (NP (PRP It)) (VP (VBZ seems) (PP (TO to) (NP (PRP me))))) (: ...) (S (SBAR (IN that) (S (NP (NNS people)) (VP (VBD expected) (NP (DT a) (NN miracle)) (PP (IN from) (NP (PRP him)))))) (, ,) (NP (NNP Mrs.) (NNP Yeltsin)) (VP (VBD said))) (. .)))'
p4305
sg17
S'It seems to me ... that people expected a miracle from him, Mrs. Yeltsin said.'
p4306
sg19
(lp4307
(S'root'
p4308
S'ROOT'
p4309
S'seems'
p4310
tp4311
a(S'nsubj'
p4312
S'seems'
p4313
S'It'
p4314
tp4315
a(S'prep_to'
p4316
S'seems'
p4317
S'me'
p4318
tp4319
a(S'mark'
p4320
S'expected'
p4321
S'that'
p4322
tp4323
a(S'nsubj'
p4324
S'expected'
p4325
S'people'
p4326
tp4327
a(S'advcl'
p4328
S'said'
p4329
S'expected'
p4330
tp4331
a(S'det'
p4332
S'miracle'
p4333
g1531
tp4334
a(S'dobj'
p4335
S'expected'
p4336
S'miracle'
p4337
tp4338
a(S'prep_from'
p4339
S'expected'
p4340
S'him'
p4341
tp4342
a(S'nn'
p4343
S'Yeltsin'
p4344
S'Mrs.'
p4345
tp4346
a(S'nsubj'
p4347
S'said'
p4348
S'Yeltsin'
p4349
tp4350
a(S'parataxis'
p4351
S'seems'
p4352
S'said'
p4353
tp4354
asg49
(lp4355
(g4308
S'ROOT-0'
p4356
S'seems-2'
p4357
tp4358
a(g4312
S'seems-2'
p4359
S'It-1'
p4360
tp4361
a(g4316
S'seems-2'
p4362
S'me-4'
p4363
tp4364
a(g4320
S'expected-8'
p4365
S'that-6'
p4366
tp4367
a(g4324
S'expected-8'
p4368
S'people-7'
p4369
tp4370
a(g4328
S'said-16'
p4371
S'expected-8'
p4372
tp4373
a(g4332
S'miracle-10'
p4374
S'a-9'
p4375
tp4376
a(g4335
S'expected-8'
p4377
S'miracle-10'
p4378
tp4379
a(g4339
S'expected-8'
p4380
S'him-12'
p4381
tp4382
a(g4343
S'Yeltsin-15'
p4383
S'Mrs.-14'
p4384
tp4385
a(g4347
S'said-16'
p4386
S'Yeltsin-15'
p4387
tp4388
a(g4351
S'seems-2'
p4389
S'said-16'
p4390
tp4391
asg72
(lp4392
(S'It'
p4393
(dp4394
S'NamedEntityTag'
p4395
g77
sS'CharacterOffsetEnd'
p4396
S'998'
p4397
sS'Lemma'
p4398
S'it'
p4399
sS'PartOfSpeech'
p4400
S'PRP'
p4401
sS'CharacterOffsetBegin'
p4402
S'996'
p4403
stp4404
a(S'seems'
p4405
(dp4406
S'NamedEntityTag'
p4407
g77
sS'CharacterOffsetEnd'
p4408
S'1004'
p4409
sS'Lemma'
p4410
S'seem'
p4411
sS'PartOfSpeech'
p4412
S'VBZ'
p4413
sS'CharacterOffsetBegin'
p4414
S'999'
p4415
stp4416
a(S'to'
p4417
(dp4418
S'NamedEntityTag'
p4419
g77
sS'CharacterOffsetEnd'
p4420
S'1007'
p4421
sS'Lemma'
p4422
S'to'
p4423
sS'PartOfSpeech'
p4424
S'TO'
p4425
sS'CharacterOffsetBegin'
p4426
S'1005'
p4427
stp4428
a(S'me'
p4429
(dp4430
S'NamedEntityTag'
p4431
g77
sS'CharacterOffsetEnd'
p4432
S'1010'
p4433
sS'Lemma'
p4434
g1149
sS'PartOfSpeech'
p4435
S'PRP'
p4436
sS'CharacterOffsetBegin'
p4437
S'1008'
p4438
stp4439
a(S'...'
p4440
(dp4441
S'NamedEntityTag'
p4442
g77
sS'CharacterOffsetEnd'
p4443
S'1014'
p4444
sS'Lemma'
p4445
S'...'
p4446
sS'PartOfSpeech'
p4447
g469
sS'CharacterOffsetBegin'
p4448
S'1011'
p4449
stp4450
a(S'that'
p4451
(dp4452
S'NamedEntityTag'
p4453
g77
sS'CharacterOffsetEnd'
p4454
S'1019'
p4455
sS'Lemma'
p4456
S'that'
p4457
sS'PartOfSpeech'
p4458
S'IN'
p4459
sS'CharacterOffsetBegin'
p4460
S'1015'
p4461
stp4462
a(S'people'
p4463
(dp4464
S'NamedEntityTag'
p4465
g77
sS'CharacterOffsetEnd'
p4466
S'1026'
p4467
sS'Lemma'
p4468
S'people'
p4469
sS'PartOfSpeech'
p4470
S'NNS'
p4471
sS'CharacterOffsetBegin'
p4472
S'1020'
p4473
stp4474
a(S'expected'
p4475
(dp4476
S'NamedEntityTag'
p4477
g77
sS'CharacterOffsetEnd'
p4478
S'1035'
p4479
sS'Lemma'
p4480
S'expect'
p4481
sS'PartOfSpeech'
p4482
S'VBD'
p4483
sS'CharacterOffsetBegin'
p4484
S'1027'
p4485
stp4486
a(g1531
(dp4487
S'NamedEntityTag'
p4488
g77
sS'CharacterOffsetEnd'
p4489
S'1037'
p4490
sS'Lemma'
p4491
g1531
sS'PartOfSpeech'
p4492
S'DT'
p4493
sS'CharacterOffsetBegin'
p4494
S'1036'
p4495
stp4496
a(S'miracle'
p4497
(dp4498
S'NamedEntityTag'
p4499
g77
sS'CharacterOffsetEnd'
p4500
S'1045'
p4501
sS'Lemma'
p4502
S'miracle'
p4503
sS'PartOfSpeech'
p4504
S'NN'
p4505
sS'CharacterOffsetBegin'
p4506
S'1038'
p4507
stp4508
a(S'from'
p4509
(dp4510
S'NamedEntityTag'
p4511
g77
sS'CharacterOffsetEnd'
p4512
S'1050'
p4513
sS'Lemma'
p4514
S'from'
p4515
sS'PartOfSpeech'
p4516
S'IN'
p4517
sS'CharacterOffsetBegin'
p4518
S'1046'
p4519
stp4520
a(S'him'
p4521
(dp4522
S'NamedEntityTag'
p4523
g77
sS'CharacterOffsetEnd'
p4524
S'1054'
p4525
sS'Lemma'
p4526
S'he'
p4527
sS'PartOfSpeech'
p4528
S'PRP'
p4529
sS'CharacterOffsetBegin'
p4530
S'1051'
p4531
stp4532
a(g240
(dp4533
S'NamedEntityTag'
p4534
g77
sS'CharacterOffsetEnd'
p4535
S'1055'
p4536
sS'Lemma'
p4537
g240
sS'PartOfSpeech'
p4538
g240
sS'CharacterOffsetBegin'
p4539
S'1054'
p4540
stp4541
a(S'Mrs.'
p4542
(dp4543
S'NamedEntityTag'
p4544
g77
sS'CharacterOffsetEnd'
p4545
S'1060'
p4546
sS'Lemma'
p4547
S'Mrs.'
p4548
sS'PartOfSpeech'
p4549
S'NNP'
p4550
sS'CharacterOffsetBegin'
p4551
S'1056'
p4552
stp4553
a(S'Yeltsin'
p4554
(dp4555
S'NamedEntityTag'
p4556
S'PERSON'
p4557
sS'CharacterOffsetEnd'
p4558
S'1068'
p4559
sS'Lemma'
p4560
S'Yeltsin'
p4561
sS'PartOfSpeech'
p4562
S'NNP'
p4563
sS'CharacterOffsetBegin'
p4564
S'1061'
p4565
stp4566
a(S'said'
p4567
(dp4568
S'NamedEntityTag'
p4569
g77
sS'CharacterOffsetEnd'
p4570
S'1073'
p4571
sS'Lemma'
p4572
S'say'
p4573
sS'PartOfSpeech'
p4574
S'VBD'
p4575
sS'CharacterOffsetBegin'
p4576
S'1069'
p4577
stp4578
a(g172
(dp4579
S'NamedEntityTag'
p4580
g77
sS'CharacterOffsetEnd'
p4581
S'1074'
p4582
sS'Lemma'
p4583
g172
sS'PartOfSpeech'
p4584
g172
sS'CharacterOffsetBegin'
p4585
S'1073'
p4586
stp4587
asa(dp4588
g15
S'(ROOT (S (CC But) (ADVP (RB surely)) (NP (PRP you)) (VP (VBP cant) (NP (NP (NN curse)) (NP (DT a) (NN person))) (PP (IN for) (S (RB not) (VP (VBG being) (NP (DT a) (NN magician)))))) (. .)))'
p4589
sg17
S'But surely you cant curse a person for not being a magician.'
p4590
sg19
(lp4591
(S'root'
p4592
S'ROOT'
p4593
S'cant'
p4594
tp4595
a(S'cc'
p4596
S'cant'
p4597
S'But'
p4598
tp4599
a(S'advmod'
p4600
S'cant'
p4601
S'surely'
p4602
tp4603
a(S'nsubj'
p4604
S'cant'
p4605
S'you'
p4606
tp4607
a(S'dobj'
p4608
S'cant'
p4609
S'curse'
p4610
tp4611
a(S'det'
p4612
S'person'
p4613
g1531
tp4614
a(S'dep'
p4615
S'curse'
p4616
S'person'
p4617
tp4618
a(S'neg'
p4619
S'magician'
p4620
S'not'
p4621
tp4622
a(S'cop'
p4623
S'magician'
p4624
S'being'
p4625
tp4626
a(S'det'
p4627
S'magician'
p4628
g1531
tp4629
a(S'prepc_for'
p4630
S'cant'
p4631
S'magician'
p4632
tp4633
asg49
(lp4634
(g4592
S'ROOT-0'
p4635
S'cant-4'
p4636
tp4637
a(g4596
S'cant-4'
p4638
S'But-1'
p4639
tp4640
a(g4600
S'cant-4'
p4641
S'surely-2'
p4642
tp4643
a(g4604
S'cant-4'
p4644
S'you-3'
p4645
tp4646
a(g4608
S'cant-4'
p4647
S'curse-5'
p4648
tp4649
a(g4612
S'person-7'
p4650
S'a-6'
p4651
tp4652
a(g4615
S'curse-5'
p4653
S'person-7'
p4654
tp4655
a(g4619
S'magician-12'
p4656
S'not-9'
p4657
tp4658
a(g4623
S'magician-12'
p4659
S'being-10'
p4660
tp4661
a(g4627
S'magician-12'
p4662
S'a-11'
p4663
tp4664
a(g4630
S'cant-4'
p4665
S'magician-12'
p4666
tp4667
asg72
(lp4668
(S'But'
p4669
(dp4670
S'NamedEntityTag'
p4671
g77
sS'CharacterOffsetEnd'
p4672
S'1078'
p4673
sS'Lemma'
p4674
S'but'
p4675
sS'PartOfSpeech'
p4676
S'CC'
p4677
sS'CharacterOffsetBegin'
p4678
S'1075'
p4679
stp4680
a(S'surely'
p4681
(dp4682
S'NamedEntityTag'
p4683
g77
sS'CharacterOffsetEnd'
p4684
S'1085'
p4685
sS'Lemma'
p4686
S'surely'
p4687
sS'PartOfSpeech'
p4688
S'RB'
p4689
sS'CharacterOffsetBegin'
p4690
S'1079'
p4691
stp4692
a(S'you'
p4693
(dp4694
S'NamedEntityTag'
p4695
g77
sS'CharacterOffsetEnd'
p4696
S'1089'
p4697
sS'Lemma'
p4698
S'you'
p4699
sS'PartOfSpeech'
p4700
S'PRP'
p4701
sS'CharacterOffsetBegin'
p4702
S'1086'
p4703
stp4704
a(S'cant'
p4705
(dp4706
S'NamedEntityTag'
p4707
g77
sS'CharacterOffsetEnd'
p4708
S'1094'
p4709
sS'Lemma'
p4710
S'cant'
p4711
sS'PartOfSpeech'
p4712
S'VBP'
p4713
sS'CharacterOffsetBegin'
p4714
S'1090'
p4715
stp4716
a(S'curse'
p4717
(dp4718
S'NamedEntityTag'
p4719
g77
sS'CharacterOffsetEnd'
p4720
S'1100'
p4721
sS'Lemma'
p4722
S'curse'
p4723
sS'PartOfSpeech'
p4724
S'NN'
p4725
sS'CharacterOffsetBegin'
p4726
S'1095'
p4727
stp4728
a(g1531
(dp4729
S'NamedEntityTag'
p4730
g77
sS'CharacterOffsetEnd'
p4731
S'1102'
p4732
sS'Lemma'
p4733
g1531
sS'PartOfSpeech'
p4734
S'DT'
p4735
sS'CharacterOffsetBegin'
p4736
S'1101'
p4737
stp4738
a(S'person'
p4739
(dp4740
S'NamedEntityTag'
p4741
g77
sS'CharacterOffsetEnd'
p4742
S'1109'
p4743
sS'Lemma'
p4744
S'person'
p4745
sS'PartOfSpeech'
p4746
S'NN'
p4747
sS'CharacterOffsetBegin'
p4748
S'1103'
p4749
stp4750
a(S'for'
p4751
(dp4752
S'NamedEntityTag'
p4753
g77
sS'CharacterOffsetEnd'
p4754
S'1113'
p4755
sS'Lemma'
p4756
S'for'
p4757
sS'PartOfSpeech'
p4758
S'IN'
p4759
sS'CharacterOffsetBegin'
p4760
S'1110'
p4761
stp4762
a(S'not'
p4763
(dp4764
S'NamedEntityTag'
p4765
g77
sS'CharacterOffsetEnd'
p4766
S'1117'
p4767
sS'Lemma'
p4768
S'not'
p4769
sS'PartOfSpeech'
p4770
S'RB'
p4771
sS'CharacterOffsetBegin'
p4772
S'1114'
p4773
stp4774
a(S'being'
p4775
(dp4776
S'NamedEntityTag'
p4777
g77
sS'CharacterOffsetEnd'
p4778
S'1123'
p4779
sS'Lemma'
p4780
S'be'
p4781
sS'PartOfSpeech'
p4782
S'VBG'
p4783
sS'CharacterOffsetBegin'
p4784
S'1118'
p4785
stp4786
a(g1531
(dp4787
S'NamedEntityTag'
p4788
g77
sS'CharacterOffsetEnd'
p4789
S'1125'
p4790
sS'Lemma'
p4791
g1531
sS'PartOfSpeech'
p4792
S'DT'
p4793
sS'CharacterOffsetBegin'
p4794
S'1124'
p4795
stp4796
a(S'magician'
p4797
(dp4798
S'NamedEntityTag'
p4799
g77
sS'CharacterOffsetEnd'
p4800
S'1134'
p4801
sS'Lemma'
p4802
S'magician'
p4803
sS'PartOfSpeech'
p4804
S'NN'
p4805
sS'CharacterOffsetBegin'
p4806
S'1126'
p4807
stp4808
a(g172
(dp4809
S'NamedEntityTag'
p4810
g77
sS'CharacterOffsetEnd'
p4811
S'1135'
p4812
sS'Lemma'
p4813
g172
sS'PartOfSpeech'
p4814
g172
sS'CharacterOffsetBegin'
p4815
S'1134'
p4816
stp4817
asa(dp4818
g15
S'(ROOT (S (NP (NNP Mrs.) (NNP Yeltsin)) (VP (VBD refuted) (NP (NNS rumors)) (SBAR (IN that) (S (NP (PRP$ her) (NN family)) (VP (MD would) (VP (VB leave) (NP (NNP Russia)) (SBAR (IN after) (S (NP (NNP Yeltsin)) (VP (VBZ leaves) (NP (NP (NN office)) (PP (IN in) (NP (CD 2000)))) (PP (IN as) (NP (JJ absolute) (NN nonsense))))))))))) (. .)))'
p4819
sg17
S'Mrs. Yeltsin refuted rumors that her family would leave Russia after Yeltsin leaves office in 2000 as absolute nonsense.'
p4820
sg19
(lp4821
(S'root'
p4822
S'ROOT'
p4823
S'refuted'
p4824
tp4825
a(S'nn'
p4826
S'Yeltsin'
p4827
S'Mrs.'
p4828
tp4829
a(S'nsubj'
p4830
S'refuted'
p4831
S'Yeltsin'
p4832
tp4833
a(S'dobj'
p4834
S'refuted'
p4835
S'rumors'
p4836
tp4837
a(S'mark'
p4838
S'leave'
p4839
S'that'
p4840
tp4841
a(S'poss'
p4842
S'family'
p4843
S'her'
p4844
tp4845
a(S'nsubj'
p4846
S'leave'
p4847
S'family'
p4848
tp4849
a(S'aux'
p4850
S'leave'
p4851
S'would'
p4852
tp4853
a(S'ccomp'
p4854
S'refuted'
p4855
S'leave'
p4856
tp4857
a(S'dobj'
p4858
S'leave'
p4859
S'Russia'
p4860
tp4861
a(S'mark'
p4862
S'leaves'
p4863
S'after'
p4864
tp4865
a(S'nsubj'
p4866
S'leaves'
p4867
S'Yeltsin'
p4868
tp4869
a(S'advcl'
p4870
S'leave'
p4871
S'leaves'
p4872
tp4873
a(S'dobj'
p4874
S'leaves'
p4875
S'office'
p4876
tp4877
a(S'prep_in'
p4878
S'office'
p4879
S'2000'
p4880
tp4881
a(S'amod'
p4882
S'nonsense'
p4883
S'absolute'
p4884
tp4885
a(S'prep_as'
p4886
S'leaves'
p4887
S'nonsense'
p4888
tp4889
asg49
(lp4890
(g4822
S'ROOT-0'
p4891
S'refuted-3'
p4892
tp4893
a(g4826
S'Yeltsin-2'
p4894
S'Mrs.-1'
p4895
tp4896
a(g4830
S'refuted-3'
p4897
S'Yeltsin-2'
p4898
tp4899
a(g4834
S'refuted-3'
p4900
S'rumors-4'
p4901
tp4902
a(g4838
S'leave-9'
p4903
S'that-5'
p4904
tp4905
a(g4842
S'family-7'
p4906
S'her-6'
p4907
tp4908
a(g4846
S'leave-9'
p4909
S'family-7'
p4910
tp4911
a(g4850
S'leave-9'
p4912
S'would-8'
p4913
tp4914
a(g4854
S'refuted-3'
p4915
S'leave-9'
p4916
tp4917
a(g4858
S'leave-9'
p4918
S'Russia-10'
p4919
tp4920
a(g4862
S'leaves-13'
p4921
S'after-11'
p4922
tp4923
a(g4866
S'leaves-13'
p4924
S'Yeltsin-12'
p4925
tp4926
a(g4870
S'leave-9'
p4927
S'leaves-13'
p4928
tp4929
a(g4874
S'leaves-13'
p4930
S'office-14'
p4931
tp4932
a(g4878
S'office-14'
p4933
S'2000-16'
p4934
tp4935
a(g4882
S'nonsense-19'
p4936
S'absolute-18'
p4937
tp4938
a(g4886
S'leaves-13'
p4939
S'nonsense-19'
p4940
tp4941
asg72
(lp4942
(S'Mrs.'
p4943
(dp4944
S'NamedEntityTag'
p4945
g77
sS'CharacterOffsetEnd'
p4946
S'1140'
p4947
sS'Lemma'
p4948
S'Mrs.'
p4949
sS'PartOfSpeech'
p4950
S'NNP'
p4951
sS'CharacterOffsetBegin'
p4952
S'1136'
p4953
stp4954
a(S'Yeltsin'
p4955
(dp4956
S'NamedEntityTag'
p4957
S'PERSON'
p4958
sS'CharacterOffsetEnd'
p4959
S'1148'
p4960
sS'Lemma'
p4961
S'Yeltsin'
p4962
sS'PartOfSpeech'
p4963
S'NNP'
p4964
sS'CharacterOffsetBegin'
p4965
S'1141'
p4966
stp4967
a(S'refuted'
p4968
(dp4969
S'NamedEntityTag'
p4970
g77
sS'CharacterOffsetEnd'
p4971
S'1156'
p4972
sS'Lemma'
p4973
S'refute'
p4974
sS'PartOfSpeech'
p4975
S'VBD'
p4976
sS'CharacterOffsetBegin'
p4977
S'1149'
p4978
stp4979
a(S'rumors'
p4980
(dp4981
S'NamedEntityTag'
p4982
g77
sS'CharacterOffsetEnd'
p4983
S'1163'
p4984
sS'Lemma'
p4985
S'rumor'
p4986
sS'PartOfSpeech'
p4987
S'NNS'
p4988
sS'CharacterOffsetBegin'
p4989
S'1157'
p4990
stp4991
a(S'that'
p4992
(dp4993
S'NamedEntityTag'
p4994
g77
sS'CharacterOffsetEnd'
p4995
S'1168'
p4996
sS'Lemma'
p4997
S'that'
p4998
sS'PartOfSpeech'
p4999
S'IN'
p5000
sS'CharacterOffsetBegin'
p5001
S'1164'
p5002
stp5003
a(S'her'
p5004
(dp5005
S'NamedEntityTag'
p5006
g77
sS'CharacterOffsetEnd'
p5007
S'1172'
p5008
sS'Lemma'
p5009
S'she'
p5010
sS'PartOfSpeech'
p5011
S'PRP$'
p5012
sS'CharacterOffsetBegin'
p5013
S'1169'
p5014
stp5015
a(S'family'
p5016
(dp5017
S'NamedEntityTag'
p5018
g77
sS'CharacterOffsetEnd'
p5019
S'1179'
p5020
sS'Lemma'
p5021
S'family'
p5022
sS'PartOfSpeech'
p5023
S'NN'
p5024
sS'CharacterOffsetBegin'
p5025
S'1173'
p5026
stp5027
a(S'would'
p5028
(dp5029
S'NamedEntityTag'
p5030
g77
sS'CharacterOffsetEnd'
p5031
S'1185'
p5032
sS'Lemma'
p5033
S'would'
p5034
sS'PartOfSpeech'
p5035
S'MD'
p5036
sS'CharacterOffsetBegin'
p5037
S'1180'
p5038
stp5039
a(S'leave'
p5040
(dp5041
S'NamedEntityTag'
p5042
g77
sS'CharacterOffsetEnd'
p5043
S'1191'
p5044
sS'Lemma'
p5045
S'leave'
p5046
sS'PartOfSpeech'
p5047
S'VB'
p5048
sS'CharacterOffsetBegin'
p5049
S'1186'
p5050
stp5051
a(S'Russia'
p5052
(dp5053
S'NamedEntityTag'
p5054
S'LOCATION'
p5055
sS'CharacterOffsetEnd'
p5056
S'1198'
p5057
sS'Lemma'
p5058
S'Russia'
p5059
sS'PartOfSpeech'
p5060
S'NNP'
p5061
sS'CharacterOffsetBegin'
p5062
S'1192'
p5063
stp5064
a(S'after'
p5065
(dp5066
S'NamedEntityTag'
p5067
g77
sS'CharacterOffsetEnd'
p5068
S'1204'
p5069
sS'Lemma'
p5070
S'after'
p5071
sS'PartOfSpeech'
p5072
S'IN'
p5073
sS'CharacterOffsetBegin'
p5074
S'1199'
p5075
stp5076
a(S'Yeltsin'
p5077
(dp5078
S'NamedEntityTag'
p5079
S'PERSON'
p5080
sS'CharacterOffsetEnd'
p5081
S'1212'
p5082
sS'Lemma'
p5083
S'Yeltsin'
p5084
sS'PartOfSpeech'
p5085
S'NNP'
p5086
sS'CharacterOffsetBegin'
p5087
S'1205'
p5088
stp5089
a(S'leaves'
p5090
(dp5091
S'NamedEntityTag'
p5092
g77
sS'CharacterOffsetEnd'
p5093
S'1219'
p5094
sS'Lemma'
p5095
S'leave'
p5096
sS'PartOfSpeech'
p5097
S'VBZ'
p5098
sS'CharacterOffsetBegin'
p5099
S'1213'
p5100
stp5101
a(S'office'
p5102
(dp5103
S'NamedEntityTag'
p5104
g77
sS'CharacterOffsetEnd'
p5105
S'1226'
p5106
sS'Lemma'
p5107
S'office'
p5108
sS'PartOfSpeech'
p5109
S'NN'
p5110
sS'CharacterOffsetBegin'
p5111
S'1220'
p5112
stp5113
a(S'in'
p5114
(dp5115
S'NamedEntityTag'
p5116
g77
sS'CharacterOffsetEnd'
p5117
S'1229'
p5118
sS'Lemma'
p5119
S'in'
p5120
sS'PartOfSpeech'
p5121
S'IN'
p5122
sS'CharacterOffsetBegin'
p5123
S'1227'
p5124
stp5125
a(S'2000'
p5126
(dp5127
S'NormalizedNamedEntityTag'
p5128
S'2000'
p5129
sS'Timex'
p5130
S'<TIMEX3 tid="t7" type="DATE" value="2000">2000</TIMEX3>'
p5131
sS'Lemma'
p5132
S'2000'
p5133
sS'CharacterOffsetEnd'
p5134
S'1234'
p5135
sS'PartOfSpeech'
p5136
S'CD'
p5137
sS'CharacterOffsetBegin'
p5138
S'1230'
p5139
sS'NamedEntityTag'
p5140
S'DATE'
p5141
stp5142
a(S'as'
p5143
(dp5144
S'NamedEntityTag'
p5145
g77
sS'CharacterOffsetEnd'
p5146
S'1237'
p5147
sS'Lemma'
p5148
S'as'
p5149
sS'PartOfSpeech'
p5150
S'IN'
p5151
sS'CharacterOffsetBegin'
p5152
S'1235'
p5153
stp5154
a(S'absolute'
p5155
(dp5156
S'NamedEntityTag'
p5157
g77
sS'CharacterOffsetEnd'
p5158
S'1246'
p5159
sS'Lemma'
p5160
S'absolute'
p5161
sS'PartOfSpeech'
p5162
S'JJ'
p5163
sS'CharacterOffsetBegin'
p5164
S'1238'
p5165
stp5166
a(S'nonsense'
p5167
(dp5168
S'NamedEntityTag'
p5169
g77
sS'CharacterOffsetEnd'
p5170
S'1255'
p5171
sS'Lemma'
p5172
S'nonsense'
p5173
sS'PartOfSpeech'
p5174
S'NN'
p5175
sS'CharacterOffsetBegin'
p5176
S'1247'
p5177
stp5178
a(g172
(dp5179
S'NamedEntityTag'
p5180
g77
sS'CharacterOffsetEnd'
p5181
S'1256'
p5182
sS'Lemma'
p5183
g172
sS'PartOfSpeech'
p5184
g172
sS'CharacterOffsetBegin'
p5185
S'1255'
p5186
stp5187
asa(dp5188
g15
S'(ROOT (S (NP (PRP I)) (VP (VBP think) (RB well) (VP (VB live) (PP (IN like) (NP (DT all) (JJ normal) (NNS people))))) (. .)))'
p5189
sg17
S'I think well live like all normal people.'
p5190
sg19
(lp5191
(S'root'
p5192
S'ROOT'
p5193
S'think'
p5194
tp5195
a(S'nsubj'
p5196
S'think'
p5197
g1149
tp5198
a(S'advmod'
p5199
S'think'
p5200
S'well'
p5201
tp5202
a(S'dep'
p5203
S'think'
p5204
S'live'
p5205
tp5206
a(S'det'
p5207
S'people'
p5208
S'all'
p5209
tp5210
a(S'amod'
p5211
S'people'
p5212
S'normal'
p5213
tp5214
a(S'prep_like'
p5215
S'live'
p5216
S'people'
p5217
tp5218
asg49
(lp5219
(g5192
S'ROOT-0'
p5220
S'think-2'
p5221
tp5222
a(g5196
S'think-2'
p5223
S'I-1'
p5224
tp5225
a(g5199
S'think-2'
p5226
S'well-3'
p5227
tp5228
a(g5203
S'think-2'
p5229
S'live-4'
p5230
tp5231
a(g5207
S'people-8'
p5232
S'all-6'
p5233
tp5234
a(g5211
S'people-8'
p5235
S'normal-7'
p5236
tp5237
a(g5215
S'live-4'
p5238
S'people-8'
p5239
tp5240
asg72
(lp5241
(g1149
(dp5242
S'NamedEntityTag'
p5243
g77
sS'CharacterOffsetEnd'
p5244
S'1258'
p5245
sS'Lemma'
p5246
g1149
sS'PartOfSpeech'
p5247
S'PRP'
p5248
sS'CharacterOffsetBegin'
p5249
S'1257'
p5250
stp5251
a(S'think'
p5252
(dp5253
S'NamedEntityTag'
p5254
g77
sS'CharacterOffsetEnd'
p5255
S'1264'
p5256
sS'Lemma'
p5257
S'think'
p5258
sS'PartOfSpeech'
p5259
S'VBP'
p5260
sS'CharacterOffsetBegin'
p5261
S'1259'
p5262
stp5263
a(S'well'
p5264
(dp5265
S'NamedEntityTag'
p5266
g77
sS'CharacterOffsetEnd'
p5267
S'1269'
p5268
sS'Lemma'
p5269
S'well'
p5270
sS'PartOfSpeech'
p5271
S'RB'
p5272
sS'CharacterOffsetBegin'
p5273
S'1265'
p5274
stp5275
a(S'live'
p5276
(dp5277
S'NamedEntityTag'
p5278
g77
sS'CharacterOffsetEnd'
p5279
S'1274'
p5280
sS'Lemma'
p5281
S'live'
p5282
sS'PartOfSpeech'
p5283
S'VB'
p5284
sS'CharacterOffsetBegin'
p5285
S'1270'
p5286
stp5287
a(S'like'
p5288
(dp5289
S'NamedEntityTag'
p5290
g77
sS'CharacterOffsetEnd'
p5291
S'1279'
p5292
sS'Lemma'
p5293
S'like'
p5294
sS'PartOfSpeech'
p5295
S'IN'
p5296
sS'CharacterOffsetBegin'
p5297
S'1275'
p5298
stp5299
a(S'all'
p5300
(dp5301
S'NamedEntityTag'
p5302
g77
sS'CharacterOffsetEnd'
p5303
S'1283'
p5304
sS'Lemma'
p5305
S'all'
p5306
sS'PartOfSpeech'
p5307
S'DT'
p5308
sS'CharacterOffsetBegin'
p5309
S'1280'
p5310
stp5311
a(S'normal'
p5312
(dp5313
S'NamedEntityTag'
p5314
g77
sS'CharacterOffsetEnd'
p5315
S'1290'
p5316
sS'Lemma'
p5317
S'normal'
p5318
sS'PartOfSpeech'
p5319
S'JJ'
p5320
sS'CharacterOffsetBegin'
p5321
S'1284'
p5322
stp5323
a(S'people'
p5324
(dp5325
S'NamedEntityTag'
p5326
g77
sS'CharacterOffsetEnd'
p5327
S'1297'
p5328
sS'Lemma'
p5329
S'people'
p5330
sS'PartOfSpeech'
p5331
S'NNS'
p5332
sS'CharacterOffsetBegin'
p5333
S'1291'
p5334
stp5335
a(g172
(dp5336
S'NamedEntityTag'
p5337
g77
sS'CharacterOffsetEnd'
p5338
S'1298'
p5339
sS'Lemma'
p5340
g172
sS'PartOfSpeech'
p5341
g172
sS'CharacterOffsetBegin'
p5342
S'1297'
p5343
stp5344
asa(dp5345
g15
S'(ROOT (S (ADVP (IN At) (JJS least)) (NP (PRP it)) (VP (MD will) (VP (VB be) (NP (JJR calmer)) (SBAR (IN than) (S (NP (PRP it)) (VP (VBZ is) (ADVP (RB now))))))) (. .)))'
p5346
sg17
S'At least it will be calmer than it is now.'
p5347
sg19
(lp5348
(S'root'
p5349
S'ROOT'
p5350
S'calmer'
p5351
tp5352
a(S'advmod'
p5353
S'calmer'
p5354
S'At'
p5355
tp5356
a(S'pobj'
p5357
S'At'
p5358
S'least'
p5359
tp5360
a(S'nsubj'
p5361
S'calmer'
p5362
S'it'
p5363
tp5364
a(S'aux'
p5365
S'calmer'
p5366
S'will'
p5367
tp5368
a(S'cop'
p5369
S'calmer'
p5370
S'be'
p5371
tp5372
a(S'mark'
p5373
S'is'
p5374
S'than'
p5375
tp5376
a(S'nsubj'
p5377
S'is'
p5378
S'it'
p5379
tp5380
a(S'advcl'
p5381
S'calmer'
p5382
S'is'
p5383
tp5384
a(S'advmod'
p5385
S'is'
p5386
S'now'
p5387
tp5388
asg49
(lp5389
(g5349
S'ROOT-0'
p5390
S'calmer-6'
p5391
tp5392
a(g5353
S'calmer-6'
p5393
S'At-1'
p5394
tp5395
a(g5357
S'At-1'
p5396
S'least-2'
p5397
tp5398
a(g5361
S'calmer-6'
p5399
S'it-3'
p5400
tp5401
a(g5365
S'calmer-6'
p5402
S'will-4'
p5403
tp5404
a(g5369
S'calmer-6'
p5405
S'be-5'
p5406
tp5407
a(g5373
S'is-9'
p5408
S'than-7'
p5409
tp5410
a(g5377
S'is-9'
p5411
S'it-8'
p5412
tp5413
a(g5381
S'calmer-6'
p5414
S'is-9'
p5415
tp5416
a(g5385
S'is-9'
p5417
S'now-10'
p5418
tp5419
asg72
(lp5420
(S'At'
p5421
(dp5422
S'NamedEntityTag'
p5423
g77
sS'CharacterOffsetEnd'
p5424
S'1301'
p5425
sS'Lemma'
p5426
S'at'
p5427
sS'PartOfSpeech'
p5428
S'IN'
p5429
sS'CharacterOffsetBegin'
p5430
S'1299'
p5431
stp5432
a(S'least'
p5433
(dp5434
S'NamedEntityTag'
p5435
g77
sS'CharacterOffsetEnd'
p5436
S'1307'
p5437
sS'Lemma'
p5438
S'least'
p5439
sS'PartOfSpeech'
p5440
S'JJS'
p5441
sS'CharacterOffsetBegin'
p5442
S'1302'
p5443
stp5444
a(S'it'
p5445
(dp5446
S'NamedEntityTag'
p5447
g77
sS'CharacterOffsetEnd'
p5448
S'1310'
p5449
sS'Lemma'
p5450
S'it'
p5451
sS'PartOfSpeech'
p5452
S'PRP'
p5453
sS'CharacterOffsetBegin'
p5454
S'1308'
p5455
stp5456
a(S'will'
p5457
(dp5458
S'NamedEntityTag'
p5459
g77
sS'CharacterOffsetEnd'
p5460
S'1315'
p5461
sS'Lemma'
p5462
S'will'
p5463
sS'PartOfSpeech'
p5464
S'MD'
p5465
sS'CharacterOffsetBegin'
p5466
S'1311'
p5467
stp5468
a(S'be'
p5469
(dp5470
S'NamedEntityTag'
p5471
g77
sS'CharacterOffsetEnd'
p5472
S'1318'
p5473
sS'Lemma'
p5474
S'be'
p5475
sS'PartOfSpeech'
p5476
S'VB'
p5477
sS'CharacterOffsetBegin'
p5478
S'1316'
p5479
stp5480
a(S'calmer'
p5481
(dp5482
S'NamedEntityTag'
p5483
g77
sS'CharacterOffsetEnd'
p5484
S'1325'
p5485
sS'Lemma'
p5486
S'calmer'
p5487
sS'PartOfSpeech'
p5488
S'JJR'
p5489
sS'CharacterOffsetBegin'
p5490
S'1319'
p5491
stp5492
a(S'than'
p5493
(dp5494
S'NamedEntityTag'
p5495
g77
sS'CharacterOffsetEnd'
p5496
S'1330'
p5497
sS'Lemma'
p5498
S'than'
p5499
sS'PartOfSpeech'
p5500
S'IN'
p5501
sS'CharacterOffsetBegin'
p5502
S'1326'
p5503
stp5504
a(S'it'
p5505
(dp5506
S'NamedEntityTag'
p5507
g77
sS'CharacterOffsetEnd'
p5508
S'1333'
p5509
sS'Lemma'
p5510
S'it'
p5511
sS'PartOfSpeech'
p5512
S'PRP'
p5513
sS'CharacterOffsetBegin'
p5514
S'1331'
p5515
stp5516
a(S'is'
p5517
(dp5518
S'NamedEntityTag'
p5519
g77
sS'CharacterOffsetEnd'
p5520
S'1336'
p5521
sS'Lemma'
p5522
S'be'
p5523
sS'PartOfSpeech'
p5524
S'VBZ'
p5525
sS'CharacterOffsetBegin'
p5526
S'1334'
p5527
stp5528
a(S'now'
p5529
(dp5530
S'NormalizedNamedEntityTag'
p5531
S'PRESENT_REF'
p5532
sS'Timex'
p5533
S'<TIMEX3 tid="t8" type="DATE" value="PRESENT_REF">now</TIMEX3>'
p5534
sS'Lemma'
p5535
S'now'
p5536
sS'CharacterOffsetEnd'
p5537
S'1340'
p5538
sS'PartOfSpeech'
p5539
S'RB'
p5540
sS'CharacterOffsetBegin'
p5541
S'1337'
p5542
sS'NamedEntityTag'
p5543
S'DATE'
p5544
stp5545
a(g172
(dp5546
S'NamedEntityTag'
p5547
g77
sS'CharacterOffsetEnd'
p5548
S'1341'
p5549
sS'Lemma'
p5550
g172
sS'PartOfSpeech'
p5551
g172
sS'CharacterOffsetBegin'
p5552
S'1340'
p5553
stp5554
asass.