(dp0
S'models'
p1
(lp2
(dp3
S'sentences'
p4
(lp5
(dp6
S'parsetree'
p7
S'(ROOT (S (NP (NP (NNP Yeltsin)) (VP (RB not) (VBG seeking) (NP (DT another) (NN term) (CC but) (NN opposition)))) (VP (VBZ wants) (NP (JJ early) (NN resignation)))))'
p8
sS'text'
p9
S'Yeltsin not seeking another term but opposition wants early resignation'
p10
sS'dependencies'
p11
(lp12
(S'root'
p13
S'ROOT'
p14
S'wants'
p15
tp16
a(S'nsubj'
p17
S'wants'
p18
S'Yeltsin'
p19
tp20
a(S'neg'
p21
S'seeking'
p22
S'not'
p23
tp24
a(S'partmod'
p25
S'Yeltsin'
p26
S'seeking'
p27
tp28
a(S'det'
p29
S'term'
p30
S'another'
p31
tp32
a(S'dobj'
p33
S'seeking'
p34
S'term'
p35
tp36
a(S'conj_but'
p37
S'term'
p38
S'opposition'
p39
tp40
a(S'amod'
p41
S'resignation'
p42
S'early'
p43
tp44
a(S'dobj'
p45
S'wants'
p46
S'resignation'
p47
tp48
asS'indexeddependencies'
p49
(lp50
(g13
S'ROOT-0'
p51
S'wants-8'
p52
tp53
a(g17
S'wants-8'
p54
S'Yeltsin-1'
p55
tp56
a(g21
S'seeking-3'
p57
S'not-2'
p58
tp59
a(g25
S'Yeltsin-1'
p60
S'seeking-3'
p61
tp62
a(g29
S'term-5'
p63
S'another-4'
p64
tp65
a(g33
S'seeking-3'
p66
S'term-5'
p67
tp68
a(g37
S'term-5'
p69
S'opposition-7'
p70
tp71
a(g41
S'resignation-10'
p72
S'early-9'
p73
tp74
a(g45
S'wants-8'
p75
S'resignation-10'
p76
tp77
asS'words'
p78
(lp79
(S'Yeltsin'
p80
(dp81
S'NamedEntityTag'
p82
S'PERSON'
p83
sS'CharacterOffsetEnd'
p84
S'8'
p85
sS'Lemma'
p86
S'Yeltsin'
p87
sS'PartOfSpeech'
p88
S'NNP'
p89
sS'CharacterOffsetBegin'
p90
S'1'
p91
stp92
a(S'not'
p93
(dp94
S'NamedEntityTag'
p95
S'O'
p96
sS'CharacterOffsetEnd'
p97
S'12'
p98
sS'Lemma'
p99
S'not'
p100
sS'PartOfSpeech'
p101
S'RB'
p102
sS'CharacterOffsetBegin'
p103
S'9'
p104
stp105
a(S'seeking'
p106
(dp107
S'NamedEntityTag'
p108
g96
sS'CharacterOffsetEnd'
p109
S'20'
p110
sS'Lemma'
p111
S'seek'
p112
sS'PartOfSpeech'
p113
S'VBG'
p114
sS'CharacterOffsetBegin'
p115
S'13'
p116
stp117
a(S'another'
p118
(dp119
S'NamedEntityTag'
p120
g96
sS'CharacterOffsetEnd'
p121
S'28'
p122
sS'Lemma'
p123
S'another'
p124
sS'PartOfSpeech'
p125
S'DT'
p126
sS'CharacterOffsetBegin'
p127
S'21'
p128
stp129
a(S'term'
p130
(dp131
S'NamedEntityTag'
p132
g96
sS'CharacterOffsetEnd'
p133
S'33'
p134
sS'Lemma'
p135
S'term'
p136
sS'PartOfSpeech'
p137
S'NN'
p138
sS'CharacterOffsetBegin'
p139
S'29'
p140
stp141
a(S'but'
p142
(dp143
S'NamedEntityTag'
p144
g96
sS'CharacterOffsetEnd'
p145
S'37'
p146
sS'Lemma'
p147
S'but'
p148
sS'PartOfSpeech'
p149
S'CC'
p150
sS'CharacterOffsetBegin'
p151
S'34'
p152
stp153
a(S'opposition'
p154
(dp155
S'NamedEntityTag'
p156
g96
sS'CharacterOffsetEnd'
p157
S'48'
p158
sS'Lemma'
p159
S'opposition'
p160
sS'PartOfSpeech'
p161
S'NN'
p162
sS'CharacterOffsetBegin'
p163
S'38'
p164
stp165
a(S'wants'
p166
(dp167
S'NamedEntityTag'
p168
g96
sS'CharacterOffsetEnd'
p169
S'54'
p170
sS'Lemma'
p171
S'want'
p172
sS'PartOfSpeech'
p173
S'VBZ'
p174
sS'CharacterOffsetBegin'
p175
S'49'
p176
stp177
a(S'early'
p178
(dp179
S'NamedEntityTag'
p180
g96
sS'CharacterOffsetEnd'
p181
S'60'
p182
sS'Lemma'
p183
S'early'
p184
sS'PartOfSpeech'
p185
S'JJ'
p186
sS'CharacterOffsetBegin'
p187
S'55'
p188
stp189
a(S'resignation'
p190
(dp191
S'NamedEntityTag'
p192
g96
sS'CharacterOffsetEnd'
p193
S'72'
p194
sS'Lemma'
p195
S'resignation'
p196
sS'PartOfSpeech'
p197
S'NN'
p198
sS'CharacterOffsetBegin'
p199
S'61'
p200
stp201
asasa(dp202
S'coref'
p203
(lp204
(lp205
((S'he'
p206
I0
I-1
I9
I10
tp207
(S'Yeltsin'
p208
I0
I5
I5
I6
tp209
tp210
aasg4
(lp211
(dp212
g7
S"(ROOT (S (NP (NP (NP (NP (JJ Russian) (NN court) (NN study)) (PP (IN of) (NP (JJ 3d) (NNP Yeltsin) (NN term) (NN OBE)))) (: ;) (S (NP (PRP he)) (VP (VBZ 's) (VP (VBN lost) (NP (NN power)))))) (: ;) (NP (ADJP (RB ill))) (: ;)) (VP (MD wo) (RB n't) (VP (VB run)))))"
p213
sg9
S"Russian court study of 3d Yeltsin term OBE; he's lost power; ill; won't run"
p214
sg11
(lp215
(S'root'
p216
S'ROOT'
p217
S'run'
p218
tp219
a(S'amod'
p220
S'study'
p221
S'Russian'
p222
tp223
a(S'nn'
p224
S'study'
p225
S'court'
p226
tp227
a(S'nsubj'
p228
S'run'
p229
S'study'
p230
tp231
a(S'amod'
p232
S'OBE'
p233
S'3d'
p234
tp235
a(S'nn'
p236
S'OBE'
p237
S'Yeltsin'
p238
tp239
a(S'nn'
p240
S'OBE'
p241
S'term'
p242
tp243
a(S'prep_of'
p244
S'study'
p245
S'OBE'
p246
tp247
a(S'nsubjpass'
p248
S'lost'
p249
S'he'
p250
tp251
a(S'auxpass'
p252
S'lost'
p253
S"'s"
p254
tp255
a(S'dep'
p256
S'study'
p257
S'lost'
p258
tp259
a(S'dobj'
p260
S'lost'
p261
S'power'
p262
tp263
a(S'dep'
p264
S'study'
p265
S'ill'
p266
tp267
a(S'aux'
p268
S'run'
p269
S'wo'
p270
tp271
a(S'neg'
p272
S'run'
p273
S"n't"
p274
tp275
asg49
(lp276
(g216
S'ROOT-0'
p277
S'run-19'
p278
tp279
a(g220
S'study-3'
p280
S'Russian-1'
p281
tp282
a(g224
S'study-3'
p283
S'court-2'
p284
tp285
a(g228
S'run-19'
p286
S'study-3'
p287
tp288
a(g232
S'OBE-8'
p289
S'3d-5'
p290
tp291
a(g236
S'OBE-8'
p292
S'Yeltsin-6'
p293
tp294
a(g240
S'OBE-8'
p295
S'term-7'
p296
tp297
a(g244
S'study-3'
p298
S'OBE-8'
p299
tp300
a(g248
S'lost-12'
p301
S'he-10'
p302
tp303
a(g252
S'lost-12'
p304
S"'s-11"
p305
tp306
a(g256
S'study-3'
p307
S'lost-12'
p308
tp309
a(g260
S'lost-12'
p310
S'power-13'
p311
tp312
a(g264
S'study-3'
p313
S'ill-15'
p314
tp315
a(g268
S'run-19'
p316
S'wo-17'
p317
tp318
a(g272
S'run-19'
p319
S"n't-18"
p320
tp321
asg78
(lp322
(S'Russian'
p323
(dp324
S'NamedEntityTag'
p325
S'MISC'
p326
sS'CharacterOffsetEnd'
p327
g85
sS'Lemma'
p328
S'russian'
p329
sS'PartOfSpeech'
p330
S'JJ'
p331
sS'CharacterOffsetBegin'
p332
g91
stp333
a(S'court'
p334
(dp335
S'NamedEntityTag'
p336
g96
sS'CharacterOffsetEnd'
p337
S'14'
p338
sS'Lemma'
p339
S'court'
p340
sS'PartOfSpeech'
p341
S'NN'
p342
sS'CharacterOffsetBegin'
p343
g104
stp344
a(S'study'
p345
(dp346
S'NamedEntityTag'
p347
g96
sS'CharacterOffsetEnd'
p348
S'20'
p349
sS'Lemma'
p350
S'study'
p351
sS'PartOfSpeech'
p352
S'NN'
p353
sS'CharacterOffsetBegin'
p354
S'15'
p355
stp356
a(S'of'
p357
(dp358
S'NamedEntityTag'
p359
g96
sS'CharacterOffsetEnd'
p360
S'23'
p361
sS'Lemma'
p362
S'of'
p363
sS'PartOfSpeech'
p364
S'IN'
p365
sS'CharacterOffsetBegin'
p366
S'21'
p367
stp368
a(S'3d'
p369
(dp370
S'NamedEntityTag'
p371
g96
sS'CharacterOffsetEnd'
p372
S'26'
p373
sS'Lemma'
p374
S'3d'
p375
sS'PartOfSpeech'
p376
S'JJ'
p377
sS'CharacterOffsetBegin'
p378
S'24'
p379
stp380
a(S'Yeltsin'
p381
(dp382
S'NamedEntityTag'
p383
S'PERSON'
p384
sS'CharacterOffsetEnd'
p385
S'34'
p386
sS'Lemma'
p387
S'Yeltsin'
p388
sS'PartOfSpeech'
p389
S'NNP'
p390
sS'CharacterOffsetBegin'
p391
S'27'
p392
stp393
a(S'term'
p394
(dp395
S'NamedEntityTag'
p396
g96
sS'CharacterOffsetEnd'
p397
S'39'
p398
sS'Lemma'
p399
S'term'
p400
sS'PartOfSpeech'
p401
S'NN'
p402
sS'CharacterOffsetBegin'
p403
S'35'
p404
stp405
a(S'OBE'
p406
(dp407
S'NamedEntityTag'
p408
g96
sS'CharacterOffsetEnd'
p409
S'43'
p410
sS'Lemma'
p411
S'obe'
p412
sS'PartOfSpeech'
p413
S'NN'
p414
sS'CharacterOffsetBegin'
p415
S'40'
p416
stp417
a(S';'
p418
(dp419
S'NamedEntityTag'
p420
g96
sS'CharacterOffsetEnd'
p421
S'44'
p422
sS'Lemma'
p423
g418
sS'PartOfSpeech'
p424
S':'
p425
sS'CharacterOffsetBegin'
p426
S'43'
p427
stp428
a(S'he'
p429
(dp430
S'NamedEntityTag'
p431
g96
sS'CharacterOffsetEnd'
p432
S'47'
p433
sS'Lemma'
p434
S'he'
p435
sS'PartOfSpeech'
p436
S'PRP'
p437
sS'CharacterOffsetBegin'
p438
S'45'
p439
stp440
a(S"'s"
p441
(dp442
S'NamedEntityTag'
p443
g96
sS'CharacterOffsetEnd'
p444
S'49'
p445
sS'Lemma'
p446
S'be'
p447
sS'PartOfSpeech'
p448
S'VBZ'
p449
sS'CharacterOffsetBegin'
p450
S'47'
p451
stp452
a(S'lost'
p453
(dp454
S'NamedEntityTag'
p455
g96
sS'CharacterOffsetEnd'
p456
S'54'
p457
sS'Lemma'
p458
S'lose'
p459
sS'PartOfSpeech'
p460
S'VBN'
p461
sS'CharacterOffsetBegin'
p462
S'50'
p463
stp464
a(S'power'
p465
(dp466
S'NamedEntityTag'
p467
g96
sS'CharacterOffsetEnd'
p468
S'60'
p469
sS'Lemma'
p470
S'power'
p471
sS'PartOfSpeech'
p472
S'NN'
p473
sS'CharacterOffsetBegin'
p474
S'55'
p475
stp476
a(g418
(dp477
S'NamedEntityTag'
p478
g96
sS'CharacterOffsetEnd'
p479
S'61'
p480
sS'Lemma'
p481
g418
sS'PartOfSpeech'
p482
g425
sS'CharacterOffsetBegin'
p483
S'60'
p484
stp485
a(S'ill'
p486
(dp487
S'NamedEntityTag'
p488
g96
sS'CharacterOffsetEnd'
p489
S'65'
p490
sS'Lemma'
p491
S'ill'
p492
sS'PartOfSpeech'
p493
S'RB'
p494
sS'CharacterOffsetBegin'
p495
S'62'
p496
stp497
a(g418
(dp498
S'NamedEntityTag'
p499
g96
sS'CharacterOffsetEnd'
p500
S'66'
p501
sS'Lemma'
p502
g418
sS'PartOfSpeech'
p503
g425
sS'CharacterOffsetBegin'
p504
S'65'
p505
stp506
a(S'wo'
p507
(dp508
S'NamedEntityTag'
p509
g96
sS'CharacterOffsetEnd'
p510
S'69'
p511
sS'Lemma'
p512
S'will'
p513
sS'PartOfSpeech'
p514
S'MD'
p515
sS'CharacterOffsetBegin'
p516
S'67'
p517
stp518
a(S"n't"
p519
(dp520
S'NamedEntityTag'
p521
g96
sS'CharacterOffsetEnd'
p522
S'72'
p523
sS'Lemma'
p524
S'not'
p525
sS'PartOfSpeech'
p526
S'RB'
p527
sS'CharacterOffsetBegin'
p528
S'69'
p529
stp530
a(S'run'
p531
(dp532
S'NamedEntityTag'
p533
g96
sS'CharacterOffsetEnd'
p534
S'76'
p535
sS'Lemma'
p536
S'run'
p537
sS'PartOfSpeech'
p538
S'VB'
p539
sS'CharacterOffsetBegin'
p540
S'73'
p541
stp542
asasa(dp543
g4
(lp544
(dp545
g7
S'(ROOT (FRAG (NP (JJ Russian) (NN court)) (S (VP (TO to) (VP (VB decide) (SBAR (IN if) (S (NP (NNP Yeltsin)) (VP (MD could) (VP (VB seek) (NP (DT a) (JJ third) (NN term)))))))))))'
p546
sg9
S'Russian court to decide if Yeltsin could seek a third term'
p547
sg11
(lp548
(S'root'
p549
S'ROOT'
p550
S'court'
p551
tp552
a(S'amod'
p553
S'court'
p554
S'Russian'
p555
tp556
a(S'aux'
p557
S'decide'
p558
S'to'
p559
tp560
a(S'dep'
p561
S'court'
p562
S'decide'
p563
tp564
a(S'mark'
p565
S'seek'
p566
S'if'
p567
tp568
a(S'nsubj'
p569
S'seek'
p570
S'Yeltsin'
p571
tp572
a(S'aux'
p573
S'seek'
p574
S'could'
p575
tp576
a(S'advcl'
p577
S'decide'
p578
S'seek'
p579
tp580
a(S'det'
p581
S'term'
p582
S'a'
p583
tp584
a(S'amod'
p585
S'term'
p586
S'third'
p587
tp588
a(S'dobj'
p589
S'seek'
p590
S'term'
p591
tp592
asg49
(lp593
(g549
S'ROOT-0'
p594
S'court-2'
p595
tp596
a(g553
S'court-2'
p597
S'Russian-1'
p598
tp599
a(g557
S'decide-4'
p600
S'to-3'
p601
tp602
a(g561
S'court-2'
p603
S'decide-4'
p604
tp605
a(g565
S'seek-8'
p606
S'if-5'
p607
tp608
a(g569
S'seek-8'
p609
S'Yeltsin-6'
p610
tp611
a(g573
S'seek-8'
p612
S'could-7'
p613
tp614
a(g577
S'decide-4'
p615
S'seek-8'
p616
tp617
a(g581
S'term-11'
p618
S'a-9'
p619
tp620
a(g585
S'term-11'
p621
S'third-10'
p622
tp623
a(g589
S'seek-8'
p624
S'term-11'
p625
tp626
asg78
(lp627
(S'Russian'
p628
(dp629
S'NamedEntityTag'
p630
S'MISC'
p631
sS'CharacterOffsetEnd'
p632
g85
sS'Lemma'
p633
S'russian'
p634
sS'PartOfSpeech'
p635
S'JJ'
p636
sS'CharacterOffsetBegin'
p637
g91
stp638
a(S'court'
p639
(dp640
S'NamedEntityTag'
p641
g96
sS'CharacterOffsetEnd'
p642
S'14'
p643
sS'Lemma'
p644
S'court'
p645
sS'PartOfSpeech'
p646
S'NN'
p647
sS'CharacterOffsetBegin'
p648
g104
stp649
a(S'to'
p650
(dp651
S'NamedEntityTag'
p652
g96
sS'CharacterOffsetEnd'
p653
S'17'
p654
sS'Lemma'
p655
S'to'
p656
sS'PartOfSpeech'
p657
S'TO'
p658
sS'CharacterOffsetBegin'
p659
S'15'
p660
stp661
a(S'decide'
p662
(dp663
S'NamedEntityTag'
p664
g96
sS'CharacterOffsetEnd'
p665
S'24'
p666
sS'Lemma'
p667
S'decide'
p668
sS'PartOfSpeech'
p669
S'VB'
p670
sS'CharacterOffsetBegin'
p671
S'18'
p672
stp673
a(S'if'
p674
(dp675
S'NamedEntityTag'
p676
g96
sS'CharacterOffsetEnd'
p677
S'27'
p678
sS'Lemma'
p679
S'if'
p680
sS'PartOfSpeech'
p681
S'IN'
p682
sS'CharacterOffsetBegin'
p683
S'25'
p684
stp685
a(S'Yeltsin'
p686
(dp687
S'NamedEntityTag'
p688
S'PERSON'
p689
sS'CharacterOffsetEnd'
p690
S'35'
p691
sS'Lemma'
p692
S'Yeltsin'
p693
sS'PartOfSpeech'
p694
S'NNP'
p695
sS'CharacterOffsetBegin'
p696
S'28'
p697
stp698
a(S'could'
p699
(dp700
S'NamedEntityTag'
p701
g96
sS'CharacterOffsetEnd'
p702
S'41'
p703
sS'Lemma'
p704
S'could'
p705
sS'PartOfSpeech'
p706
S'MD'
p707
sS'CharacterOffsetBegin'
p708
S'36'
p709
stp710
a(S'seek'
p711
(dp712
S'NamedEntityTag'
p713
g96
sS'CharacterOffsetEnd'
p714
S'46'
p715
sS'Lemma'
p716
S'seek'
p717
sS'PartOfSpeech'
p718
S'VB'
p719
sS'CharacterOffsetBegin'
p720
S'42'
p721
stp722
a(g583
(dp723
S'NamedEntityTag'
p724
g96
sS'CharacterOffsetEnd'
p725
S'48'
p726
sS'Lemma'
p727
g583
sS'PartOfSpeech'
p728
S'DT'
p729
sS'CharacterOffsetBegin'
p730
S'47'
p731
stp732
a(S'third'
p733
(dp734
S'NormalizedNamedEntityTag'
p735
S'3.0'
p736
sS'Lemma'
p737
S'third'
p738
sS'CharacterOffsetEnd'
p739
S'54'
p740
sS'PartOfSpeech'
p741
S'JJ'
p742
sS'CharacterOffsetBegin'
p743
S'49'
p744
sS'NamedEntityTag'
p745
S'ORDINAL'
p746
stp747
a(S'term'
p748
(dp749
S'NamedEntityTag'
p750
g96
sS'CharacterOffsetEnd'
p751
S'59'
p752
sS'Lemma'
p753
S'term'
p754
sS'PartOfSpeech'
p755
S'NN'
p756
sS'CharacterOffsetBegin'
p757
S'55'
p758
stp759
asasa(dp760
g4
(lp761
(dp762
g7
S"(ROOT (FRAG (NP (NP (NNP Yeltsin)) (SBAR (S (S (ADJP (RB physically) (JJR weaker))) (, ,) (VP (VBZ says) (SBAR (S (NP (PRP he)) (VP (MD wo) (RB n't) (VP (VB seek) (NP (DT another) (NN term)) (PP (IN as) (NP (NN president)))))))))))))"
p763
sg9
S"Yeltsin physically weaker, says he won't seek another term as president"
p764
sg11
(lp765
(S'root'
p766
S'ROOT'
p767
S'Yeltsin'
p768
tp769
a(S'advmod'
p770
S'weaker'
p771
S'physically'
p772
tp773
a(S'ccomp'
p774
S'says'
p775
S'weaker'
p776
tp777
a(S'rcmod'
p778
S'Yeltsin'
p779
S'says'
p780
tp781
a(S'nsubj'
p782
S'seek'
p783
S'he'
p784
tp785
a(S'aux'
p786
S'seek'
p787
S'wo'
p788
tp789
a(S'neg'
p790
S'seek'
p791
S"n't"
p792
tp793
a(S'ccomp'
p794
S'says'
p795
S'seek'
p796
tp797
a(S'det'
p798
S'term'
p799
S'another'
p800
tp801
a(S'dobj'
p802
S'seek'
p803
S'term'
p804
tp805
a(S'prep_as'
p806
S'seek'
p807
S'president'
p808
tp809
asg49
(lp810
(g766
S'ROOT-0'
p811
S'Yeltsin-1'
p812
tp813
a(g770
S'weaker-3'
p814
S'physically-2'
p815
tp816
a(g774
S'says-5'
p817
S'weaker-3'
p818
tp819
a(g778
S'Yeltsin-1'
p820
S'says-5'
p821
tp822
a(g782
S'seek-9'
p823
S'he-6'
p824
tp825
a(g786
S'seek-9'
p826
S'wo-7'
p827
tp828
a(g790
S'seek-9'
p829
S"n't-8"
p830
tp831
a(g794
S'says-5'
p832
S'seek-9'
p833
tp834
a(g798
S'term-11'
p835
S'another-10'
p836
tp837
a(g802
S'seek-9'
p838
S'term-11'
p839
tp840
a(g806
S'seek-9'
p841
S'president-13'
p842
tp843
asg78
(lp844
(S'Yeltsin'
p845
(dp846
S'NamedEntityTag'
p847
S'PERSON'
p848
sS'CharacterOffsetEnd'
p849
g85
sS'Lemma'
p850
S'Yeltsin'
p851
sS'PartOfSpeech'
p852
S'NNP'
p853
sS'CharacterOffsetBegin'
p854
g91
stp855
a(S'physically'
p856
(dp857
S'NamedEntityTag'
p858
g96
sS'CharacterOffsetEnd'
p859
S'19'
p860
sS'Lemma'
p861
S'physically'
p862
sS'PartOfSpeech'
p863
S'RB'
p864
sS'CharacterOffsetBegin'
p865
g104
stp866
a(S'weaker'
p867
(dp868
S'NamedEntityTag'
p869
g96
sS'CharacterOffsetEnd'
p870
S'26'
p871
sS'Lemma'
p872
S'weaker'
p873
sS'PartOfSpeech'
p874
S'JJR'
p875
sS'CharacterOffsetBegin'
p876
S'20'
p877
stp878
a(S','
p879
(dp880
S'NamedEntityTag'
p881
g96
sS'CharacterOffsetEnd'
p882
S'27'
p883
sS'Lemma'
p884
g879
sS'PartOfSpeech'
p885
g879
sS'CharacterOffsetBegin'
p886
S'26'
p887
stp888
a(S'says'
p889
(dp890
S'NamedEntityTag'
p891
g96
sS'CharacterOffsetEnd'
p892
S'32'
p893
sS'Lemma'
p894
S'say'
p895
sS'PartOfSpeech'
p896
S'VBZ'
p897
sS'CharacterOffsetBegin'
p898
S'28'
p899
stp900
a(S'he'
p901
(dp902
S'NamedEntityTag'
p903
g96
sS'CharacterOffsetEnd'
p904
S'35'
p905
sS'Lemma'
p906
S'he'
p907
sS'PartOfSpeech'
p908
S'PRP'
p909
sS'CharacterOffsetBegin'
p910
S'33'
p911
stp912
a(S'wo'
p913
(dp914
S'NamedEntityTag'
p915
g96
sS'CharacterOffsetEnd'
p916
S'38'
p917
sS'Lemma'
p918
S'will'
p919
sS'PartOfSpeech'
p920
S'MD'
p921
sS'CharacterOffsetBegin'
p922
S'36'
p923
stp924
a(S"n't"
p925
(dp926
S'NamedEntityTag'
p927
g96
sS'CharacterOffsetEnd'
p928
S'41'
p929
sS'Lemma'
p930
S'not'
p931
sS'PartOfSpeech'
p932
S'RB'
p933
sS'CharacterOffsetBegin'
p934
S'38'
p935
stp936
a(S'seek'
p937
(dp938
S'NamedEntityTag'
p939
g96
sS'CharacterOffsetEnd'
p940
S'46'
p941
sS'Lemma'
p942
S'seek'
p943
sS'PartOfSpeech'
p944
S'VB'
p945
sS'CharacterOffsetBegin'
p946
S'42'
p947
stp948
a(S'another'
p949
(dp950
S'NamedEntityTag'
p951
g96
sS'CharacterOffsetEnd'
p952
S'54'
p953
sS'Lemma'
p954
S'another'
p955
sS'PartOfSpeech'
p956
S'DT'
p957
sS'CharacterOffsetBegin'
p958
S'47'
p959
stp960
a(S'term'
p961
(dp962
S'NamedEntityTag'
p963
g96
sS'CharacterOffsetEnd'
p964
S'59'
p965
sS'Lemma'
p966
S'term'
p967
sS'PartOfSpeech'
p968
S'NN'
p969
sS'CharacterOffsetBegin'
p970
S'55'
p971
stp972
a(S'as'
p973
(dp974
S'NamedEntityTag'
p975
g96
sS'CharacterOffsetEnd'
p976
S'62'
p977
sS'Lemma'
p978
S'as'
p979
sS'PartOfSpeech'
p980
S'IN'
p981
sS'CharacterOffsetBegin'
p982
S'60'
p983
stp984
a(S'president'
p985
(dp986
S'NamedEntityTag'
p987
g96
sS'CharacterOffsetEnd'
p988
S'72'
p989
sS'Lemma'
p990
S'president'
p991
sS'PartOfSpeech'
p992
S'NN'
p993
sS'CharacterOffsetBegin'
p994
S'63'
p995
stp996
asasasS'article'
p997
(dp998
g203
(lp999
(lp1000
((S'the Constitutional Court'
p1001
I5
I0
I18
I21
tp1002
(S'Russias Constitutional Court'
p1003
I0
I2
I0
I3
tp1004
tp1005
a((S'the Constitutional Court'
p1006
I13
I-1
I7
I10
tp1007
(S'Russias Constitutional Court'
p1008
I0
I2
I0
I3
tp1009
tp1010
a((S'Constitutional Court'
p1011
I13
I-1
I8
I10
tp1012
(S'Russias Constitutional Court'
p1013
I0
I2
I0
I3
tp1014
tp1015
aa(lp1016
((S'Yeltsin'
p1017
I1
I8
I8
I9
tp1018
(S'Boris Yeltsin'
p1019
I0
I-1
I8
I10
tp1020
tp1021
a((S'his'
p1022
I1
I3
I13
I14
tp1023
(S'Boris Yeltsin'
p1024
I0
I-1
I8
I10
tp1025
tp1026
a((S'his'
p1027
I1
I6
I16
I17
tp1028
(S'Boris Yeltsin'
p1029
I0
I-1
I8
I10
tp1030
tp1031
a((S'he'
p1032
I1
I-1
I19
I20
tp1033
(S'Boris Yeltsin'
p1034
I0
I-1
I8
I10
tp1035
tp1036
a((S'Yeltsin'
p1037
I2
I-1
I9
I10
tp1038
(S'Boris Yeltsin'
p1039
I0
I-1
I8
I10
tp1040
tp1041
a((S'he'
p1042
I2
I-1
I19
I20
tp1043
(S'Boris Yeltsin'
p1044
I0
I-1
I8
I10
tp1045
tp1046
a((S'Yeltsins'
p1047
I4
I1
I1
I2
tp1048
(S'Boris Yeltsin'
p1049
I0
I-1
I8
I10
tp1050
tp1051
a((S'his'
p1052
I4
I4
I4
I5
tp1053
(S'Boris Yeltsin'
p1054
I0
I-1
I8
I10
tp1055
tp1056
a((S'Yeltsin'
p1057
I5
I3
I3
I4
tp1058
(S'Boris Yeltsin'
p1059
I0
I-1
I8
I10
tp1060
tp1061
a((S'Yeltsin'
p1062
I7
I0
I0
I1
tp1063
(S'Boris Yeltsin'
p1064
I0
I-1
I8
I10
tp1065
tp1066
a((S'he'
p1067
I7
I4
I4
I5
tp1068
(S'Boris Yeltsin'
p1069
I0
I-1
I8
I10
tp1070
tp1071
a((S'Yeltsin'
p1072
I8
I3
I3
I4
tp1073
(S'Boris Yeltsin'
p1074
I0
I-1
I8
I10
tp1075
tp1076
a((S'him'
p1077
I10
I4
I4
I5
tp1078
(S'Boris Yeltsin'
p1079
I0
I-1
I8
I10
tp1080
tp1081
a((S'Yeltsin'
p1082
I11
I7
I17
I18
tp1083
(S'Boris Yeltsin'
p1084
I0
I-1
I8
I10
tp1085
tp1086
a((S'Yeltsin'
p1087
I13
I4
I14
I15
tp1088
(S'Boris Yeltsin'
p1089
I0
I-1
I8
I10
tp1090
tp1091
aa(lp1092
((S'Thursday'
p1093
I13
I2
I12
I13
tp1094
(S'Thursday'
p1095
I0
I5
I5
I6
tp1096
tp1097
aa(lp1098
((S'It'
p1099
I2
I0
I0
I1
tp1100
(S'The issue'
p1101
I1
I1
I0
I2
tp1102
tp1103
a((S'its'
p1104
I2
I5
I5
I6
tp1105
(S'The issue'
p1106
I1
I1
I0
I2
tp1107
tp1108
aa(lp1109
((S'it'
p1110
I4
I7
I17
I18
tp1111
(S'his first term'
p1112
I4
I6
I4
I7
tp1113
tp1114
aa(lp1115
((S'lower house'
p1116
I5
I8
I7
I9
tp1117
(S'the State Duma'
p1118
I5
I2
I10
I13
tp1119
tp1120
a((S'Duma'
p1121
I5
I2
I12
I13
tp1122
(S'the State Duma'
p1123
I5
I2
I10
I13
tp1124
tp1125
aa(lp1126
((S'it'
p1127
I6
I3
I13
I14
tp1128
(S'the case'
p1129
I6
I2
I1
I3
tp1130
tp1131
aa(lp1132
((S'its'
p1133
I7
I6
I16
I17
tp1134
(S'the opposition'
p1135
I7
I3
I12
I14
tp1136
tp1137
aa(lp1138
((S'an early resignation'
p1139
I13
I1
I19
I22
tp1140
(S'an early resignation'
p1141
I7
I2
I20
I23
tp1142
tp1143
aa(lp1144
((S'it'
p1145
I11
I2
I22
I23
tp1146
(S'Wednesday'
p1147
I11
I1
I1
I2
tp1148
tp1149
aa(lp1150
((S'it'
p1151
I12
I5
I15
I16
tp1152
(S'the move'
p1153
I12
I6
I5
I7
tp1154
tp1155
aa(lp1156
((S'the presidential representative on the Constitutional Court'
p1157
I13
I5
I3
I10
tp1158
(S'Mikhail Mityukov'
p1159
I13
I1
I0
I2
tp1160
tp1161
a((S'Mityukov'
p1162
I14
I8
I18
I19
tp1163
(S'Mikhail Mityukov'
p1164
I13
I1
I0
I2
tp1165
tp1166
aa(lp1167
((S'the president'
p1168
I12
I8
I37
I39
tp1169
(S'a strong person'
p1170
I14
I5
I3
I6
tp1171
tp1172
a((S'The president'
p1173
I14
I1
I0
I2
tp1174
(S'a strong person'
p1175
I14
I5
I3
I6
tp1176
tp1177
a((S'he'
p1178
I14
I8
I8
I9
tp1179
(S'a strong person'
p1180
I14
I5
I3
I6
tp1181
tp1182
aasg4
(lp1183
(dp1184
g7
S'(ROOT (S (NP (NNP Russias) (NNP Constitutional) (NNP Court)) (VP (VBD opened) (NP (NNS hearings)) (NP-TMP (NNP Thursday)) (PP (IN on) (SBAR (IN whether) (S (NP (NNP Boris) (NNP Yeltsin)) (VP (MD can) (VP (VB seek) (NP (DT a) (JJ third) (NN term)))))))) (. .)))'
p1185
sg9
S'Russias Constitutional Court opened hearings Thursday on whether Boris Yeltsin can seek a third term.'
p1186
sg11
(lp1187
(S'root'
p1188
S'ROOT'
p1189
S'opened'
p1190
tp1191
a(S'nn'
p1192
S'Court'
p1193
S'Russias'
p1194
tp1195
a(S'nn'
p1196
S'Court'
p1197
S'Constitutional'
p1198
tp1199
a(S'nsubj'
p1200
S'opened'
p1201
S'Court'
p1202
tp1203
a(S'dobj'
p1204
S'opened'
p1205
S'hearings'
p1206
tp1207
a(S'tmod'
p1208
S'opened'
p1209
S'Thursday'
p1210
tp1211
a(S'mark'
p1212
S'seek'
p1213
S'whether'
p1214
tp1215
a(S'nn'
p1216
S'Yeltsin'
p1217
S'Boris'
p1218
tp1219
a(S'nsubj'
p1220
S'seek'
p1221
S'Yeltsin'
p1222
tp1223
a(S'aux'
p1224
S'seek'
p1225
S'can'
p1226
tp1227
a(S'prepc_on'
p1228
S'opened'
p1229
S'seek'
p1230
tp1231
a(S'det'
p1232
S'term'
p1233
g583
tp1234
a(S'amod'
p1235
S'term'
p1236
S'third'
p1237
tp1238
a(S'dobj'
p1239
S'seek'
p1240
S'term'
p1241
tp1242
asg49
(lp1243
(g1188
S'ROOT-0'
p1244
S'opened-4'
p1245
tp1246
a(g1192
S'Court-3'
p1247
S'Russias-1'
p1248
tp1249
a(g1196
S'Court-3'
p1250
S'Constitutional-2'
p1251
tp1252
a(g1200
S'opened-4'
p1253
S'Court-3'
p1254
tp1255
a(g1204
S'opened-4'
p1256
S'hearings-5'
p1257
tp1258
a(g1208
S'opened-4'
p1259
S'Thursday-6'
p1260
tp1261
a(g1212
S'seek-12'
p1262
S'whether-8'
p1263
tp1264
a(g1216
S'Yeltsin-10'
p1265
S'Boris-9'
p1266
tp1267
a(g1220
S'seek-12'
p1268
S'Yeltsin-10'
p1269
tp1270
a(g1224
S'seek-12'
p1271
S'can-11'
p1272
tp1273
a(g1228
S'opened-4'
p1274
S'seek-12'
p1275
tp1276
a(g1232
S'term-15'
p1277
S'a-13'
p1278
tp1279
a(g1235
S'term-15'
p1280
S'third-14'
p1281
tp1282
a(g1239
S'seek-12'
p1283
S'term-15'
p1284
tp1285
asg78
(lp1286
(S'Russias'
p1287
(dp1288
S'NamedEntityTag'
p1289
S'ORGANIZATION'
p1290
sS'CharacterOffsetEnd'
p1291
S'7'
p1292
sS'Lemma'
p1293
S'Russias'
p1294
sS'PartOfSpeech'
p1295
S'NNP'
p1296
sS'CharacterOffsetBegin'
p1297
S'0'
p1298
stp1299
a(S'Constitutional'
p1300
(dp1301
S'NamedEntityTag'
p1302
S'ORGANIZATION'
p1303
sS'CharacterOffsetEnd'
p1304
S'22'
p1305
sS'Lemma'
p1306
S'Constitutional'
p1307
sS'PartOfSpeech'
p1308
S'NNP'
p1309
sS'CharacterOffsetBegin'
p1310
g85
stp1311
a(S'Court'
p1312
(dp1313
S'NamedEntityTag'
p1314
S'ORGANIZATION'
p1315
sS'CharacterOffsetEnd'
p1316
S'28'
p1317
sS'Lemma'
p1318
S'Court'
p1319
sS'PartOfSpeech'
p1320
S'NNP'
p1321
sS'CharacterOffsetBegin'
p1322
S'23'
p1323
stp1324
a(S'opened'
p1325
(dp1326
S'NamedEntityTag'
p1327
g96
sS'CharacterOffsetEnd'
p1328
S'35'
p1329
sS'Lemma'
p1330
S'open'
p1331
sS'PartOfSpeech'
p1332
S'VBD'
p1333
sS'CharacterOffsetBegin'
p1334
S'29'
p1335
stp1336
a(S'hearings'
p1337
(dp1338
S'NamedEntityTag'
p1339
g96
sS'CharacterOffsetEnd'
p1340
S'44'
p1341
sS'Lemma'
p1342
S'hearing'
p1343
sS'PartOfSpeech'
p1344
S'NNS'
p1345
sS'CharacterOffsetBegin'
p1346
S'36'
p1347
stp1348
a(S'Thursday'
p1349
(dp1350
S'NormalizedNamedEntityTag'
p1351
S'XXXX-WXX-4'
p1352
sS'Timex'
p1353
S'<TIMEX3 tid="t1" type="DATE" value="XXXX-WXX-4">Thursday</TIMEX3>'
p1354
sS'Lemma'
p1355
S'Thursday'
p1356
sS'CharacterOffsetEnd'
p1357
S'53'
p1358
sS'PartOfSpeech'
p1359
S'NNP'
p1360
sS'CharacterOffsetBegin'
p1361
S'45'
p1362
sS'NamedEntityTag'
p1363
S'DATE'
p1364
stp1365
a(S'on'
p1366
(dp1367
S'NamedEntityTag'
p1368
g96
sS'CharacterOffsetEnd'
p1369
S'56'
p1370
sS'Lemma'
p1371
S'on'
p1372
sS'PartOfSpeech'
p1373
S'IN'
p1374
sS'CharacterOffsetBegin'
p1375
S'54'
p1376
stp1377
a(S'whether'
p1378
(dp1379
S'NamedEntityTag'
p1380
g96
sS'CharacterOffsetEnd'
p1381
S'64'
p1382
sS'Lemma'
p1383
S'whether'
p1384
sS'PartOfSpeech'
p1385
S'IN'
p1386
sS'CharacterOffsetBegin'
p1387
S'57'
p1388
stp1389
a(S'Boris'
p1390
(dp1391
S'NamedEntityTag'
p1392
S'PERSON'
p1393
sS'CharacterOffsetEnd'
p1394
S'70'
p1395
sS'Lemma'
p1396
S'Boris'
p1397
sS'PartOfSpeech'
p1398
S'NNP'
p1399
sS'CharacterOffsetBegin'
p1400
S'65'
p1401
stp1402
a(S'Yeltsin'
p1403
(dp1404
S'NamedEntityTag'
p1405
S'PERSON'
p1406
sS'CharacterOffsetEnd'
p1407
S'78'
p1408
sS'Lemma'
p1409
S'Yeltsin'
p1410
sS'PartOfSpeech'
p1411
S'NNP'
p1412
sS'CharacterOffsetBegin'
p1413
S'71'
p1414
stp1415
a(S'can'
p1416
(dp1417
S'NamedEntityTag'
p1418
g96
sS'CharacterOffsetEnd'
p1419
S'82'
p1420
sS'Lemma'
p1421
S'can'
p1422
sS'PartOfSpeech'
p1423
S'MD'
p1424
sS'CharacterOffsetBegin'
p1425
S'79'
p1426
stp1427
a(S'seek'
p1428
(dp1429
S'NamedEntityTag'
p1430
g96
sS'CharacterOffsetEnd'
p1431
S'87'
p1432
sS'Lemma'
p1433
S'seek'
p1434
sS'PartOfSpeech'
p1435
S'VB'
p1436
sS'CharacterOffsetBegin'
p1437
S'83'
p1438
stp1439
a(g583
(dp1440
S'NamedEntityTag'
p1441
g96
sS'CharacterOffsetEnd'
p1442
S'89'
p1443
sS'Lemma'
p1444
g583
sS'PartOfSpeech'
p1445
S'DT'
p1446
sS'CharacterOffsetBegin'
p1447
S'88'
p1448
stp1449
a(S'third'
p1450
(dp1451
S'NormalizedNamedEntityTag'
p1452
S'3.0'
p1453
sS'Lemma'
p1454
S'third'
p1455
sS'CharacterOffsetEnd'
p1456
S'95'
p1457
sS'PartOfSpeech'
p1458
S'JJ'
p1459
sS'CharacterOffsetBegin'
p1460
S'90'
p1461
sS'NamedEntityTag'
p1462
S'ORDINAL'
p1463
stp1464
a(S'term'
p1465
(dp1466
S'NamedEntityTag'
p1467
g96
sS'CharacterOffsetEnd'
p1468
S'100'
p1469
sS'Lemma'
p1470
S'term'
p1471
sS'PartOfSpeech'
p1472
S'NN'
p1473
sS'CharacterOffsetBegin'
p1474
S'96'
p1475
stp1476
a(S'.'
p1477
(dp1478
S'NamedEntityTag'
p1479
g96
sS'CharacterOffsetEnd'
p1480
S'101'
p1481
sS'Lemma'
p1482
g1477
sS'PartOfSpeech'
p1483
g1477
sS'CharacterOffsetBegin'
p1484
S'100'
p1485
stp1486
asa(dp1487
g7
S'(ROOT (S (S (NP (DT The) (NN issue)) (VP (VBD was) (ADJP (JJ controversial)) (NP-TMP (RBR earlier) (DT this) (NN year)) (SBAR (WHADVP (WRB when)) (S (NP (NNP Yeltsin)) (VP (VBD refused) (S (VP (TO to) (VP (VB spell) (PRT (RP out)) (NP (PRP$ his) (NNS intentions)))))))))) (CC and) (S (NP (PRP$ his) (NNS aides)) (VP (VBD insisted) (SBAR (S (NP (PRP he)) (VP (VBD had) (NP (DT the) (JJ legal) (NN right) (S (VP (TO to) (VP (VB seek) (NP (NN re-election))))))))))) (. .)))'
p1488
sg9
S'The issue was controversial earlier this year when Yeltsin refused to spell out his intentions and his aides insisted he had the legal right to seek re-election.'
p1489
sg11
(lp1490
(S'root'
p1491
S'ROOT'
p1492
S'controversial'
p1493
tp1494
a(S'det'
p1495
S'issue'
p1496
S'The'
p1497
tp1498
a(S'nsubj'
p1499
S'controversial'
p1500
S'issue'
p1501
tp1502
a(S'cop'
p1503
S'controversial'
p1504
S'was'
p1505
tp1506
a(S'advmod'
p1507
S'year'
p1508
S'earlier'
p1509
tp1510
a(S'det'
p1511
S'year'
p1512
S'this'
p1513
tp1514
a(S'tmod'
p1515
S'controversial'
p1516
S'year'
p1517
tp1518
a(S'advmod'
p1519
S'refused'
p1520
S'when'
p1521
tp1522
a(S'nsubj'
p1523
S'refused'
p1524
S'Yeltsin'
p1525
tp1526
a(S'advcl'
p1527
S'controversial'
p1528
S'refused'
p1529
tp1530
a(S'aux'
p1531
S'spell'
p1532
S'to'
p1533
tp1534
a(S'xcomp'
p1535
S'refused'
p1536
S'spell'
p1537
tp1538
a(S'prt'
p1539
S'spell'
p1540
S'out'
p1541
tp1542
a(S'poss'
p1543
S'intentions'
p1544
S'his'
p1545
tp1546
a(S'dobj'
p1547
S'spell'
p1548
S'intentions'
p1549
tp1550
a(S'poss'
p1551
S'aides'
p1552
S'his'
p1553
tp1554
a(S'nsubj'
p1555
S'insisted'
p1556
S'aides'
p1557
tp1558
a(S'conj_and'
p1559
S'controversial'
p1560
S'insisted'
p1561
tp1562
a(S'nsubj'
p1563
S'had'
p1564
S'he'
p1565
tp1566
a(S'ccomp'
p1567
S'insisted'
p1568
S'had'
p1569
tp1570
a(S'det'
p1571
S'right'
p1572
S'the'
p1573
tp1574
a(S'amod'
p1575
S'right'
p1576
S'legal'
p1577
tp1578
a(S'dobj'
p1579
S'had'
p1580
S'right'
p1581
tp1582
a(S'aux'
p1583
S'seek'
p1584
S'to'
p1585
tp1586
a(S'infmod'
p1587
S'right'
p1588
S'seek'
p1589
tp1590
a(S'dobj'
p1591
S'seek'
p1592
S're-election'
p1593
tp1594
asg49
(lp1595
(g1491
S'ROOT-0'
p1596
S'controversial-4'
p1597
tp1598
a(g1495
S'issue-2'
p1599
S'The-1'
p1600
tp1601
a(g1499
S'controversial-4'
p1602
S'issue-2'
p1603
tp1604
a(g1503
S'controversial-4'
p1605
S'was-3'
p1606
tp1607
a(g1507
S'year-7'
p1608
S'earlier-5'
p1609
tp1610
a(g1511
S'year-7'
p1611
S'this-6'
p1612
tp1613
a(g1515
S'controversial-4'
p1614
S'year-7'
p1615
tp1616
a(g1519
S'refused-10'
p1617
S'when-8'
p1618
tp1619
a(g1523
S'refused-10'
p1620
S'Yeltsin-9'
p1621
tp1622
a(g1527
S'controversial-4'
p1623
S'refused-10'
p1624
tp1625
a(g1531
S'spell-12'
p1626
S'to-11'
p1627
tp1628
a(g1535
S'refused-10'
p1629
S'spell-12'
p1630
tp1631
a(g1539
S'spell-12'
p1632
S'out-13'
p1633
tp1634
a(g1543
S'intentions-15'
p1635
S'his-14'
p1636
tp1637
a(g1547
S'spell-12'
p1638
S'intentions-15'
p1639
tp1640
a(g1551
S'aides-18'
p1641
S'his-17'
p1642
tp1643
a(g1555
S'insisted-19'
p1644
S'aides-18'
p1645
tp1646
a(g1559
S'controversial-4'
p1647
S'insisted-19'
p1648
tp1649
a(g1563
S'had-21'
p1650
S'he-20'
p1651
tp1652
a(g1567
S'insisted-19'
p1653
S'had-21'
p1654
tp1655
a(g1571
S'right-24'
p1656
S'the-22'
p1657
tp1658
a(g1575
S'right-24'
p1659
S'legal-23'
p1660
tp1661
a(g1579
S'had-21'
p1662
S'right-24'
p1663
tp1664
a(g1583
S'seek-26'
p1665
S'to-25'
p1666
tp1667
a(g1587
S'right-24'
p1668
S'seek-26'
p1669
tp1670
a(g1591
S'seek-26'
p1671
S're-election-27'
p1672
tp1673
asg78
(lp1674
(S'The'
p1675
(dp1676
S'NamedEntityTag'
p1677
g96
sS'CharacterOffsetEnd'
p1678
S'105'
p1679
sS'Lemma'
p1680
S'the'
p1681
sS'PartOfSpeech'
p1682
S'DT'
p1683
sS'CharacterOffsetBegin'
p1684
S'102'
p1685
stp1686
a(S'issue'
p1687
(dp1688
S'NamedEntityTag'
p1689
g96
sS'CharacterOffsetEnd'
p1690
S'111'
p1691
sS'Lemma'
p1692
S'issue'
p1693
sS'PartOfSpeech'
p1694
S'NN'
p1695
sS'CharacterOffsetBegin'
p1696
S'106'
p1697
stp1698
a(S'was'
p1699
(dp1700
S'NamedEntityTag'
p1701
g96
sS'CharacterOffsetEnd'
p1702
S'115'
p1703
sS'Lemma'
p1704
S'be'
p1705
sS'PartOfSpeech'
p1706
S'VBD'
p1707
sS'CharacterOffsetBegin'
p1708
S'112'
p1709
stp1710
a(S'controversial'
p1711
(dp1712
S'NamedEntityTag'
p1713
g96
sS'CharacterOffsetEnd'
p1714
S'129'
p1715
sS'Lemma'
p1716
S'controversial'
p1717
sS'PartOfSpeech'
p1718
S'JJ'
p1719
sS'CharacterOffsetBegin'
p1720
S'116'
p1721
stp1722
a(S'earlier'
p1723
(dp1724
S'NormalizedNamedEntityTag'
p1725
S'THIS'
p1726
sS'Timex'
p1727
S'<TIMEX3 alt_value="THIS P1Y" anchorTimeID="t0" temporalFunction="true" tid="t2" type="DATE" valueFromFunction="tf0">earlier this year</TIMEX3>'
p1728
sS'Lemma'
p1729
S'earlier'
p1730
sS'CharacterOffsetEnd'
p1731
S'137'
p1732
sS'PartOfSpeech'
p1733
S'RBR'
p1734
sS'CharacterOffsetBegin'
p1735
S'130'
p1736
sS'NamedEntityTag'
p1737
S'DATE'
p1738
stp1739
a(S'this'
p1740
(dp1741
S'NormalizedNamedEntityTag'
p1742
S'THIS'
p1743
sS'Timex'
p1744
S'<TIMEX3 alt_value="THIS P1Y" anchorTimeID="t0" temporalFunction="true" tid="t2" type="DATE" valueFromFunction="tf0">earlier this year</TIMEX3>'
p1745
sS'Lemma'
p1746
S'this'
p1747
sS'CharacterOffsetEnd'
p1748
S'142'
p1749
sS'PartOfSpeech'
p1750
S'DT'
p1751
sS'CharacterOffsetBegin'
p1752
S'138'
p1753
sS'NamedEntityTag'
p1754
S'DATE'
p1755
stp1756
a(S'year'
p1757
(dp1758
S'NormalizedNamedEntityTag'
p1759
S'THIS'
p1760
sS'Timex'
p1761
S'<TIMEX3 alt_value="THIS P1Y" anchorTimeID="t0" temporalFunction="true" tid="t2" type="DATE" valueFromFunction="tf0">earlier this year</TIMEX3>'
p1762
sS'Lemma'
p1763
S'year'
p1764
sS'CharacterOffsetEnd'
p1765
S'147'
p1766
sS'PartOfSpeech'
p1767
S'NN'
p1768
sS'CharacterOffsetBegin'
p1769
S'143'
p1770
sS'NamedEntityTag'
p1771
S'DATE'
p1772
stp1773
a(S'when'
p1774
(dp1775
S'NamedEntityTag'
p1776
g96
sS'CharacterOffsetEnd'
p1777
S'152'
p1778
sS'Lemma'
p1779
S'when'
p1780
sS'PartOfSpeech'
p1781
S'WRB'
p1782
sS'CharacterOffsetBegin'
p1783
S'148'
p1784
stp1785
a(S'Yeltsin'
p1786
(dp1787
S'NamedEntityTag'
p1788
S'PERSON'
p1789
sS'CharacterOffsetEnd'
p1790
S'160'
p1791
sS'Lemma'
p1792
S'Yeltsin'
p1793
sS'PartOfSpeech'
p1794
S'NNP'
p1795
sS'CharacterOffsetBegin'
p1796
S'153'
p1797
stp1798
a(S'refused'
p1799
(dp1800
S'NamedEntityTag'
p1801
g96
sS'CharacterOffsetEnd'
p1802
S'168'
p1803
sS'Lemma'
p1804
S'refuse'
p1805
sS'PartOfSpeech'
p1806
S'VBD'
p1807
sS'CharacterOffsetBegin'
p1808
S'161'
p1809
stp1810
a(S'to'
p1811
(dp1812
S'NamedEntityTag'
p1813
g96
sS'CharacterOffsetEnd'
p1814
S'171'
p1815
sS'Lemma'
p1816
S'to'
p1817
sS'PartOfSpeech'
p1818
S'TO'
p1819
sS'CharacterOffsetBegin'
p1820
S'169'
p1821
stp1822
a(S'spell'
p1823
(dp1824
S'NamedEntityTag'
p1825
g96
sS'CharacterOffsetEnd'
p1826
S'177'
p1827
sS'Lemma'
p1828
S'spell'
p1829
sS'PartOfSpeech'
p1830
S'VB'
p1831
sS'CharacterOffsetBegin'
p1832
S'172'
p1833
stp1834
a(S'out'
p1835
(dp1836
S'NamedEntityTag'
p1837
g96
sS'CharacterOffsetEnd'
p1838
S'181'
p1839
sS'Lemma'
p1840
S'out'
p1841
sS'PartOfSpeech'
p1842
S'RP'
p1843
sS'CharacterOffsetBegin'
p1844
S'178'
p1845
stp1846
a(S'his'
p1847
(dp1848
S'NamedEntityTag'
p1849
g96
sS'CharacterOffsetEnd'
p1850
S'185'
p1851
sS'Lemma'
p1852
S'he'
p1853
sS'PartOfSpeech'
p1854
S'PRP$'
p1855
sS'CharacterOffsetBegin'
p1856
S'182'
p1857
stp1858
a(S'intentions'
p1859
(dp1860
S'NamedEntityTag'
p1861
g96
sS'CharacterOffsetEnd'
p1862
S'196'
p1863
sS'Lemma'
p1864
S'intention'
p1865
sS'PartOfSpeech'
p1866
S'NNS'
p1867
sS'CharacterOffsetBegin'
p1868
S'186'
p1869
stp1870
a(S'and'
p1871
(dp1872
S'NamedEntityTag'
p1873
g96
sS'CharacterOffsetEnd'
p1874
S'200'
p1875
sS'Lemma'
p1876
S'and'
p1877
sS'PartOfSpeech'
p1878
S'CC'
p1879
sS'CharacterOffsetBegin'
p1880
S'197'
p1881
stp1882
a(S'his'
p1883
(dp1884
S'NamedEntityTag'
p1885
g96
sS'CharacterOffsetEnd'
p1886
S'204'
p1887
sS'Lemma'
p1888
S'he'
p1889
sS'PartOfSpeech'
p1890
S'PRP$'
p1891
sS'CharacterOffsetBegin'
p1892
S'201'
p1893
stp1894
a(S'aides'
p1895
(dp1896
S'NamedEntityTag'
p1897
g96
sS'CharacterOffsetEnd'
p1898
S'210'
p1899
sS'Lemma'
p1900
S'aide'
p1901
sS'PartOfSpeech'
p1902
S'NNS'
p1903
sS'CharacterOffsetBegin'
p1904
S'205'
p1905
stp1906
a(S'insisted'
p1907
(dp1908
S'NamedEntityTag'
p1909
g96
sS'CharacterOffsetEnd'
p1910
S'219'
p1911
sS'Lemma'
p1912
S'insist'
p1913
sS'PartOfSpeech'
p1914
S'VBD'
p1915
sS'CharacterOffsetBegin'
p1916
S'211'
p1917
stp1918
a(S'he'
p1919
(dp1920
S'NamedEntityTag'
p1921
g96
sS'CharacterOffsetEnd'
p1922
S'222'
p1923
sS'Lemma'
p1924
S'he'
p1925
sS'PartOfSpeech'
p1926
S'PRP'
p1927
sS'CharacterOffsetBegin'
p1928
S'220'
p1929
stp1930
a(S'had'
p1931
(dp1932
S'NamedEntityTag'
p1933
g96
sS'CharacterOffsetEnd'
p1934
S'226'
p1935
sS'Lemma'
p1936
S'have'
p1937
sS'PartOfSpeech'
p1938
S'VBD'
p1939
sS'CharacterOffsetBegin'
p1940
S'223'
p1941
stp1942
a(S'the'
p1943
(dp1944
S'NamedEntityTag'
p1945
g96
sS'CharacterOffsetEnd'
p1946
S'230'
p1947
sS'Lemma'
p1948
S'the'
p1949
sS'PartOfSpeech'
p1950
S'DT'
p1951
sS'CharacterOffsetBegin'
p1952
S'227'
p1953
stp1954
a(S'legal'
p1955
(dp1956
S'NamedEntityTag'
p1957
g96
sS'CharacterOffsetEnd'
p1958
S'236'
p1959
sS'Lemma'
p1960
S'legal'
p1961
sS'PartOfSpeech'
p1962
S'JJ'
p1963
sS'CharacterOffsetBegin'
p1964
S'231'
p1965
stp1966
a(S'right'
p1967
(dp1968
S'NamedEntityTag'
p1969
g96
sS'CharacterOffsetEnd'
p1970
S'242'
p1971
sS'Lemma'
p1972
S'right'
p1973
sS'PartOfSpeech'
p1974
S'NN'
p1975
sS'CharacterOffsetBegin'
p1976
S'237'
p1977
stp1978
a(S'to'
p1979
(dp1980
S'NamedEntityTag'
p1981
g96
sS'CharacterOffsetEnd'
p1982
S'245'
p1983
sS'Lemma'
p1984
S'to'
p1985
sS'PartOfSpeech'
p1986
S'TO'
p1987
sS'CharacterOffsetBegin'
p1988
S'243'
p1989
stp1990
a(S'seek'
p1991
(dp1992
S'NamedEntityTag'
p1993
g96
sS'CharacterOffsetEnd'
p1994
S'250'
p1995
sS'Lemma'
p1996
S'seek'
p1997
sS'PartOfSpeech'
p1998
S'VB'
p1999
sS'CharacterOffsetBegin'
p2000
S'246'
p2001
stp2002
a(S're-election'
p2003
(dp2004
S'NamedEntityTag'
p2005
g96
sS'CharacterOffsetEnd'
p2006
S'262'
p2007
sS'Lemma'
p2008
S're-election'
p2009
sS'PartOfSpeech'
p2010
S'NN'
p2011
sS'CharacterOffsetBegin'
p2012
S'251'
p2013
stp2014
a(g1477
(dp2015
S'NamedEntityTag'
p2016
g96
sS'CharacterOffsetEnd'
p2017
S'263'
p2018
sS'Lemma'
p2019
g1477
sS'PartOfSpeech'
p2020
g1477
sS'CharacterOffsetBegin'
p2021
S'262'
p2022
stp2023
asa(dp2024
g7
S'(ROOT (S (NP (PRP It)) (VP (VBZ has) (VP (VBN lost) (NP (NP (DT some)) (PP (IN of) (NP (PRP$ its) (NN urgency)))) (, ,) (SBAR (IN as) (S (NP (NNP Yeltsin)) (VP (VP (VBZ has) (VP (VBN grown) (UCP (ADVP (RB physically)) (CC and) (ADJP (RB politically) (JJR weaker))))) (CC and) (VP (VBZ has) (VP (VBN said) (SBAR (S (NP (PRP he)) (VP (MD will) (RB not) (VP (VB run) (ADVP (RB again))))))))))))) (. .)))'
p2025
sg9
S'It has lost some of its urgency, as Yeltsin has grown physically and politically weaker and has said he will not run again.'
p2026
sg11
(lp2027
(S'root'
p2028
S'ROOT'
p2029
S'lost'
p2030
tp2031
a(S'nsubj'
p2032
S'lost'
p2033
S'It'
p2034
tp2035
a(S'aux'
p2036
S'lost'
p2037
S'has'
p2038
tp2039
a(S'dobj'
p2040
S'lost'
p2041
S'some'
p2042
tp2043
a(S'poss'
p2044
S'urgency'
p2045
S'its'
p2046
tp2047
a(S'prep_of'
p2048
S'some'
p2049
S'urgency'
p2050
tp2051
a(S'mark'
p2052
S'grown'
p2053
S'as'
p2054
tp2055
a(S'nsubj'
p2056
S'grown'
p2057
S'Yeltsin'
p2058
tp2059
a(S'aux'
p2060
S'grown'
p2061
S'has'
p2062
tp2063
a(S'advcl'
p2064
S'lost'
p2065
S'grown'
p2066
tp2067
a(S'dep'
p2068
S'grown'
p2069
S'physically'
p2070
tp2071
a(S'advmod'
p2072
S'weaker'
p2073
S'politically'
p2074
tp2075
a(S'conj_and'
p2076
S'physically'
p2077
S'weaker'
p2078
tp2079
a(S'aux'
p2080
S'said'
p2081
S'has'
p2082
tp2083
a(S'conj_and'
p2084
S'grown'
p2085
S'said'
p2086
tp2087
a(S'nsubj'
p2088
S'run'
p2089
S'he'
p2090
tp2091
a(S'aux'
p2092
S'run'
p2093
S'will'
p2094
tp2095
a(S'neg'
p2096
S'run'
p2097
S'not'
p2098
tp2099
a(S'ccomp'
p2100
S'said'
p2101
S'run'
p2102
tp2103
a(S'advmod'
p2104
S'run'
p2105
S'again'
p2106
tp2107
asg49
(lp2108
(g2028
S'ROOT-0'
p2109
S'lost-3'
p2110
tp2111
a(g2032
S'lost-3'
p2112
S'It-1'
p2113
tp2114
a(g2036
S'lost-3'
p2115
S'has-2'
p2116
tp2117
a(g2040
S'lost-3'
p2118
S'some-4'
p2119
tp2120
a(g2044
S'urgency-7'
p2121
S'its-6'
p2122
tp2123
a(g2048
S'some-4'
p2124
S'urgency-7'
p2125
tp2126
a(g2052
S'grown-12'
p2127
S'as-9'
p2128
tp2129
a(g2056
S'grown-12'
p2130
S'Yeltsin-10'
p2131
tp2132
a(g2060
S'grown-12'
p2133
S'has-11'
p2134
tp2135
a(g2064
S'lost-3'
p2136
S'grown-12'
p2137
tp2138
a(g2068
S'grown-12'
p2139
S'physically-13'
p2140
tp2141
a(g2072
S'weaker-16'
p2142
S'politically-15'
p2143
tp2144
a(g2076
S'physically-13'
p2145
S'weaker-16'
p2146
tp2147
a(g2080
S'said-19'
p2148
S'has-18'
p2149
tp2150
a(g2084
S'grown-12'
p2151
S'said-19'
p2152
tp2153
a(g2088
S'run-23'
p2154
S'he-20'
p2155
tp2156
a(g2092
S'run-23'
p2157
S'will-21'
p2158
tp2159
a(g2096
S'run-23'
p2160
S'not-22'
p2161
tp2162
a(g2100
S'said-19'
p2163
S'run-23'
p2164
tp2165
a(g2104
S'run-23'
p2166
S'again-24'
p2167
tp2168
asg78
(lp2169
(S'It'
p2170
(dp2171
S'NamedEntityTag'
p2172
g96
sS'CharacterOffsetEnd'
p2173
S'266'
p2174
sS'Lemma'
p2175
S'it'
p2176
sS'PartOfSpeech'
p2177
S'PRP'
p2178
sS'CharacterOffsetBegin'
p2179
S'264'
p2180
stp2181
a(S'has'
p2182
(dp2183
S'NamedEntityTag'
p2184
g96
sS'CharacterOffsetEnd'
p2185
S'270'
p2186
sS'Lemma'
p2187
S'have'
p2188
sS'PartOfSpeech'
p2189
S'VBZ'
p2190
sS'CharacterOffsetBegin'
p2191
S'267'
p2192
stp2193
a(S'lost'
p2194
(dp2195
S'NamedEntityTag'
p2196
g96
sS'CharacterOffsetEnd'
p2197
S'275'
p2198
sS'Lemma'
p2199
S'lose'
p2200
sS'PartOfSpeech'
p2201
S'VBN'
p2202
sS'CharacterOffsetBegin'
p2203
S'271'
p2204
stp2205
a(S'some'
p2206
(dp2207
S'NamedEntityTag'
p2208
g96
sS'CharacterOffsetEnd'
p2209
S'280'
p2210
sS'Lemma'
p2211
S'some'
p2212
sS'PartOfSpeech'
p2213
S'DT'
p2214
sS'CharacterOffsetBegin'
p2215
S'276'
p2216
stp2217
a(S'of'
p2218
(dp2219
S'NamedEntityTag'
p2220
g96
sS'CharacterOffsetEnd'
p2221
S'283'
p2222
sS'Lemma'
p2223
S'of'
p2224
sS'PartOfSpeech'
p2225
S'IN'
p2226
sS'CharacterOffsetBegin'
p2227
S'281'
p2228
stp2229
a(S'its'
p2230
(dp2231
S'NamedEntityTag'
p2232
g96
sS'CharacterOffsetEnd'
p2233
S'287'
p2234
sS'Lemma'
p2235
S'its'
p2236
sS'PartOfSpeech'
p2237
S'PRP$'
p2238
sS'CharacterOffsetBegin'
p2239
S'284'
p2240
stp2241
a(S'urgency'
p2242
(dp2243
S'NamedEntityTag'
p2244
g96
sS'CharacterOffsetEnd'
p2245
S'295'
p2246
sS'Lemma'
p2247
S'urgency'
p2248
sS'PartOfSpeech'
p2249
S'NN'
p2250
sS'CharacterOffsetBegin'
p2251
S'288'
p2252
stp2253
a(g879
(dp2254
S'NamedEntityTag'
p2255
g96
sS'CharacterOffsetEnd'
p2256
S'296'
p2257
sS'Lemma'
p2258
g879
sS'PartOfSpeech'
p2259
g879
sS'CharacterOffsetBegin'
p2260
S'295'
p2261
stp2262
a(S'as'
p2263
(dp2264
S'NamedEntityTag'
p2265
g96
sS'CharacterOffsetEnd'
p2266
S'299'
p2267
sS'Lemma'
p2268
S'as'
p2269
sS'PartOfSpeech'
p2270
S'IN'
p2271
sS'CharacterOffsetBegin'
p2272
S'297'
p2273
stp2274
a(S'Yeltsin'
p2275
(dp2276
S'NamedEntityTag'
p2277
S'PERSON'
p2278
sS'CharacterOffsetEnd'
p2279
S'307'
p2280
sS'Lemma'
p2281
S'Yeltsin'
p2282
sS'PartOfSpeech'
p2283
S'NNP'
p2284
sS'CharacterOffsetBegin'
p2285
S'300'
p2286
stp2287
a(S'has'
p2288
(dp2289
S'NamedEntityTag'
p2290
g96
sS'CharacterOffsetEnd'
p2291
S'311'
p2292
sS'Lemma'
p2293
S'have'
p2294
sS'PartOfSpeech'
p2295
S'VBZ'
p2296
sS'CharacterOffsetBegin'
p2297
S'308'
p2298
stp2299
a(S'grown'
p2300
(dp2301
S'NamedEntityTag'
p2302
g96
sS'CharacterOffsetEnd'
p2303
S'317'
p2304
sS'Lemma'
p2305
S'grow'
p2306
sS'PartOfSpeech'
p2307
S'VBN'
p2308
sS'CharacterOffsetBegin'
p2309
S'312'
p2310
stp2311
a(S'physically'
p2312
(dp2313
S'NamedEntityTag'
p2314
g96
sS'CharacterOffsetEnd'
p2315
S'328'
p2316
sS'Lemma'
p2317
S'physically'
p2318
sS'PartOfSpeech'
p2319
S'RB'
p2320
sS'CharacterOffsetBegin'
p2321
S'318'
p2322
stp2323
a(S'and'
p2324
(dp2325
S'NamedEntityTag'
p2326
g96
sS'CharacterOffsetEnd'
p2327
S'332'
p2328
sS'Lemma'
p2329
S'and'
p2330
sS'PartOfSpeech'
p2331
S'CC'
p2332
sS'CharacterOffsetBegin'
p2333
S'329'
p2334
stp2335
a(S'politically'
p2336
(dp2337
S'NamedEntityTag'
p2338
g96
sS'CharacterOffsetEnd'
p2339
S'344'
p2340
sS'Lemma'
p2341
S'politically'
p2342
sS'PartOfSpeech'
p2343
S'RB'
p2344
sS'CharacterOffsetBegin'
p2345
S'333'
p2346
stp2347
a(S'weaker'
p2348
(dp2349
S'NamedEntityTag'
p2350
g96
sS'CharacterOffsetEnd'
p2351
S'351'
p2352
sS'Lemma'
p2353
S'weaker'
p2354
sS'PartOfSpeech'
p2355
S'JJR'
p2356
sS'CharacterOffsetBegin'
p2357
S'345'
p2358
stp2359
a(S'and'
p2360
(dp2361
S'NamedEntityTag'
p2362
g96
sS'CharacterOffsetEnd'
p2363
S'355'
p2364
sS'Lemma'
p2365
S'and'
p2366
sS'PartOfSpeech'
p2367
S'CC'
p2368
sS'CharacterOffsetBegin'
p2369
S'352'
p2370
stp2371
a(S'has'
p2372
(dp2373
S'NamedEntityTag'
p2374
g96
sS'CharacterOffsetEnd'
p2375
S'359'
p2376
sS'Lemma'
p2377
S'have'
p2378
sS'PartOfSpeech'
p2379
S'VBZ'
p2380
sS'CharacterOffsetBegin'
p2381
S'356'
p2382
stp2383
a(S'said'
p2384
(dp2385
S'NamedEntityTag'
p2386
g96
sS'CharacterOffsetEnd'
p2387
S'364'
p2388
sS'Lemma'
p2389
S'say'
p2390
sS'PartOfSpeech'
p2391
S'VBN'
p2392
sS'CharacterOffsetBegin'
p2393
S'360'
p2394
stp2395
a(S'he'
p2396
(dp2397
S'NamedEntityTag'
p2398
g96
sS'CharacterOffsetEnd'
p2399
S'367'
p2400
sS'Lemma'
p2401
S'he'
p2402
sS'PartOfSpeech'
p2403
S'PRP'
p2404
sS'CharacterOffsetBegin'
p2405
S'365'
p2406
stp2407
a(S'will'
p2408
(dp2409
S'NamedEntityTag'
p2410
g96
sS'CharacterOffsetEnd'
p2411
S'372'
p2412
sS'Lemma'
p2413
S'will'
p2414
sS'PartOfSpeech'
p2415
S'MD'
p2416
sS'CharacterOffsetBegin'
p2417
S'368'
p2418
stp2419
a(S'not'
p2420
(dp2421
S'NamedEntityTag'
p2422
g96
sS'CharacterOffsetEnd'
p2423
S'376'
p2424
sS'Lemma'
p2425
S'not'
p2426
sS'PartOfSpeech'
p2427
S'RB'
p2428
sS'CharacterOffsetBegin'
p2429
S'373'
p2430
stp2431
a(S'run'
p2432
(dp2433
S'NamedEntityTag'
p2434
g96
sS'CharacterOffsetEnd'
p2435
S'380'
p2436
sS'Lemma'
p2437
S'run'
p2438
sS'PartOfSpeech'
p2439
S'VB'
p2440
sS'CharacterOffsetBegin'
p2441
S'377'
p2442
stp2443
a(S'again'
p2444
(dp2445
S'NamedEntityTag'
p2446
g96
sS'CharacterOffsetEnd'
p2447
S'386'
p2448
sS'Lemma'
p2449
S'again'
p2450
sS'PartOfSpeech'
p2451
S'RB'
p2452
sS'CharacterOffsetBegin'
p2453
S'381'
p2454
stp2455
a(g1477
(dp2456
S'NamedEntityTag'
p2457
g96
sS'CharacterOffsetEnd'
p2458
S'387'
p2459
sS'Lemma'
p2460
g1477
sS'PartOfSpeech'
p2461
g1477
sS'CharacterOffsetBegin'
p2462
S'386'
p2463
stp2464
asa(dp2465
g7
S'(ROOT (S (NP (DT The) (NNP Russian) (NNP Constitution)) (VP (VBZ has) (NP (NP (DT a) (JJ two-term) (NN limit)) (PP (IN for) (NP (NNS presidents))))) (. .)))'
p2466
sg9
S'The Russian Constitution has a two-term limit for presidents.'
p2467
sg11
(lp2468
(S'root'
p2469
S'ROOT'
p2470
S'has'
p2471
tp2472
a(S'det'
p2473
S'Constitution'
p2474
S'The'
p2475
tp2476
a(S'nn'
p2477
S'Constitution'
p2478
S'Russian'
p2479
tp2480
a(S'nsubj'
p2481
S'has'
p2482
S'Constitution'
p2483
tp2484
a(S'det'
p2485
S'limit'
p2486
g583
tp2487
a(S'amod'
p2488
S'limit'
p2489
S'two-term'
p2490
tp2491
a(S'dobj'
p2492
S'has'
p2493
S'limit'
p2494
tp2495
a(S'prep_for'
p2496
S'limit'
p2497
S'presidents'
p2498
tp2499
asg49
(lp2500
(g2469
S'ROOT-0'
p2501
S'has-4'
p2502
tp2503
a(g2473
S'Constitution-3'
p2504
S'The-1'
p2505
tp2506
a(g2477
S'Constitution-3'
p2507
S'Russian-2'
p2508
tp2509
a(g2481
S'has-4'
p2510
S'Constitution-3'
p2511
tp2512
a(g2485
S'limit-7'
p2513
S'a-5'
p2514
tp2515
a(g2488
S'limit-7'
p2516
S'two-term-6'
p2517
tp2518
a(g2492
S'has-4'
p2519
S'limit-7'
p2520
tp2521
a(g2496
S'limit-7'
p2522
S'presidents-9'
p2523
tp2524
asg78
(lp2525
(S'The'
p2526
(dp2527
S'NamedEntityTag'
p2528
g96
sS'CharacterOffsetEnd'
p2529
S'391'
p2530
sS'Lemma'
p2531
S'the'
p2532
sS'PartOfSpeech'
p2533
S'DT'
p2534
sS'CharacterOffsetBegin'
p2535
S'388'
p2536
stp2537
a(S'Russian'
p2538
(dp2539
S'NamedEntityTag'
p2540
S'MISC'
p2541
sS'CharacterOffsetEnd'
p2542
S'399'
p2543
sS'Lemma'
p2544
S'Russian'
p2545
sS'PartOfSpeech'
p2546
S'NNP'
p2547
sS'CharacterOffsetBegin'
p2548
S'392'
p2549
stp2550
a(S'Constitution'
p2551
(dp2552
S'NamedEntityTag'
p2553
S'MISC'
p2554
sS'CharacterOffsetEnd'
p2555
S'412'
p2556
sS'Lemma'
p2557
S'Constitution'
p2558
sS'PartOfSpeech'
p2559
S'NNP'
p2560
sS'CharacterOffsetBegin'
p2561
S'400'
p2562
stp2563
a(S'has'
p2564
(dp2565
S'NamedEntityTag'
p2566
g96
sS'CharacterOffsetEnd'
p2567
S'416'
p2568
sS'Lemma'
p2569
S'have'
p2570
sS'PartOfSpeech'
p2571
S'VBZ'
p2572
sS'CharacterOffsetBegin'
p2573
S'413'
p2574
stp2575
a(g583
(dp2576
S'NamedEntityTag'
p2577
g96
sS'CharacterOffsetEnd'
p2578
S'418'
p2579
sS'Lemma'
p2580
g583
sS'PartOfSpeech'
p2581
S'DT'
p2582
sS'CharacterOffsetBegin'
p2583
S'417'
p2584
stp2585
a(S'two-term'
p2586
(dp2587
S'NamedEntityTag'
p2588
g96
sS'CharacterOffsetEnd'
p2589
S'427'
p2590
sS'Lemma'
p2591
S'two-term'
p2592
sS'PartOfSpeech'
p2593
S'JJ'
p2594
sS'CharacterOffsetBegin'
p2595
S'419'
p2596
stp2597
a(S'limit'
p2598
(dp2599
S'NamedEntityTag'
p2600
g96
sS'CharacterOffsetEnd'
p2601
S'433'
p2602
sS'Lemma'
p2603
S'limit'
p2604
sS'PartOfSpeech'
p2605
S'NN'
p2606
sS'CharacterOffsetBegin'
p2607
S'428'
p2608
stp2609
a(S'for'
p2610
(dp2611
S'NamedEntityTag'
p2612
g96
sS'CharacterOffsetEnd'
p2613
S'437'
p2614
sS'Lemma'
p2615
S'for'
p2616
sS'PartOfSpeech'
p2617
S'IN'
p2618
sS'CharacterOffsetBegin'
p2619
S'434'
p2620
stp2621
a(S'presidents'
p2622
(dp2623
S'NamedEntityTag'
p2624
g96
sS'CharacterOffsetEnd'
p2625
S'448'
p2626
sS'Lemma'
p2627
S'president'
p2628
sS'PartOfSpeech'
p2629
S'NNS'
p2630
sS'CharacterOffsetBegin'
p2631
S'438'
p2632
stp2633
a(g1477
(dp2634
S'NamedEntityTag'
p2635
g96
sS'CharacterOffsetEnd'
p2636
S'449'
p2637
sS'Lemma'
p2638
g1477
sS'PartOfSpeech'
p2639
g1477
sS'CharacterOffsetBegin'
p2640
S'448'
p2641
stp2642
asa(dp2643
g7
S'(ROOT (S (CC But) (NP (NNP Yeltsins) (NNS aides)) (VP (VBP say) (SBAR (S (NP (NP (PRP$ his) (JJ first) (NN term)) (, ,) (PP (IN from) (NP (CD 1991) (TO to) (CD 1996))) (, ,)) (VP (VBZ does) (RB not) (VP (VB count) (SBAR (IN because) (S (NP (PRP it)) (VP (VBD began) (NP-TMP (CD six) (NNS months)) (SBAR (SBAR (IN before) (S (NP (DT the) (NNP Soviet) (NNP Union)) (VP (VBD collapsed)))) (CC and) (SBAR (IN before) (S (NP (DT the) (JJ current) (NN constitution)) (VP (VBD took) (NP (NN effect)))))))))))))) (. .)))'
p2644
sg9
S'But Yeltsins aides say his first term, from 1991 to 1996, does not count because it began six months before the Soviet Union collapsed and before the current constitution took effect.'
p2645
sg11
(lp2646
(S'root'
p2647
S'ROOT'
p2648
S'say'
p2649
tp2650
a(S'cc'
p2651
S'say'
p2652
S'But'
p2653
tp2654
a(S'nn'
p2655
S'aides'
p2656
S'Yeltsins'
p2657
tp2658
a(S'nsubj'
p2659
S'say'
p2660
S'aides'
p2661
tp2662
a(S'poss'
p2663
S'term'
p2664
S'his'
p2665
tp2666
a(S'amod'
p2667
S'term'
p2668
S'first'
p2669
tp2670
a(S'nsubj'
p2671
S'count'
p2672
S'term'
p2673
tp2674
a(S'num'
p2675
S'1996'
p2676
S'1991'
p2677
tp2678
a(S'dep'
p2679
S'1996'
p2680
S'to'
p2681
tp2682
a(S'prep_from'
p2683
S'term'
p2684
S'1996'
p2685
tp2686
a(S'aux'
p2687
S'count'
p2688
S'does'
p2689
tp2690
a(S'neg'
p2691
S'count'
p2692
S'not'
p2693
tp2694
a(S'ccomp'
p2695
S'say'
p2696
S'count'
p2697
tp2698
a(S'mark'
p2699
S'began'
p2700
S'because'
p2701
tp2702
a(S'nsubj'
p2703
S'began'
p2704
S'it'
p2705
tp2706
a(S'advcl'
p2707
S'count'
p2708
S'began'
p2709
tp2710
a(S'num'
p2711
S'months'
p2712
S'six'
p2713
tp2714
a(S'tmod'
p2715
S'began'
p2716
S'months'
p2717
tp2718
a(S'mark'
p2719
S'collapsed'
p2720
S'before'
p2721
tp2722
a(S'det'
p2723
S'Union'
p2724
S'the'
p2725
tp2726
a(S'nn'
p2727
S'Union'
p2728
S'Soviet'
p2729
tp2730
a(S'nsubj'
p2731
S'collapsed'
p2732
S'Union'
p2733
tp2734
a(S'dep'
p2735
S'began'
p2736
S'collapsed'
p2737
tp2738
a(S'mark'
p2739
S'took'
p2740
S'before'
p2741
tp2742
a(S'det'
p2743
S'constitution'
p2744
S'the'
p2745
tp2746
a(S'amod'
p2747
S'constitution'
p2748
S'current'
p2749
tp2750
a(S'nsubj'
p2751
S'took'
p2752
S'constitution'
p2753
tp2754
a(S'conj_and'
p2755
S'collapsed'
p2756
S'took'
p2757
tp2758
a(S'dobj'
p2759
S'took'
p2760
S'effect'
p2761
tp2762
asg49
(lp2763
(g2647
S'ROOT-0'
p2764
S'say-4'
p2765
tp2766
a(g2651
S'say-4'
p2767
S'But-1'
p2768
tp2769
a(g2655
S'aides-3'
p2770
S'Yeltsins-2'
p2771
tp2772
a(g2659
S'say-4'
p2773
S'aides-3'
p2774
tp2775
a(g2663
S'term-7'
p2776
S'his-5'
p2777
tp2778
a(g2667
S'term-7'
p2779
S'first-6'
p2780
tp2781
a(g2671
S'count-16'
p2782
S'term-7'
p2783
tp2784
a(g2675
S'1996-12'
p2785
S'1991-10'
p2786
tp2787
a(g2679
S'1996-12'
p2788
S'to-11'
p2789
tp2790
a(g2683
S'term-7'
p2791
S'1996-12'
p2792
tp2793
a(g2687
S'count-16'
p2794
S'does-14'
p2795
tp2796
a(g2691
S'count-16'
p2797
S'not-15'
p2798
tp2799
a(g2695
S'say-4'
p2800
S'count-16'
p2801
tp2802
a(g2699
S'began-19'
p2803
S'because-17'
p2804
tp2805
a(g2703
S'began-19'
p2806
S'it-18'
p2807
tp2808
a(g2707
S'count-16'
p2809
S'began-19'
p2810
tp2811
a(g2711
S'months-21'
p2812
S'six-20'
p2813
tp2814
a(g2715
S'began-19'
p2815
S'months-21'
p2816
tp2817
a(g2719
S'collapsed-26'
p2818
S'before-22'
p2819
tp2820
a(g2723
S'Union-25'
p2821
S'the-23'
p2822
tp2823
a(g2727
S'Union-25'
p2824
S'Soviet-24'
p2825
tp2826
a(g2731
S'collapsed-26'
p2827
S'Union-25'
p2828
tp2829
a(g2735
S'began-19'
p2830
S'collapsed-26'
p2831
tp2832
a(g2739
S'took-32'
p2833
S'before-28'
p2834
tp2835
a(g2743
S'constitution-31'
p2836
S'the-29'
p2837
tp2838
a(g2747
S'constitution-31'
p2839
S'current-30'
p2840
tp2841
a(g2751
S'took-32'
p2842
S'constitution-31'
p2843
tp2844
a(g2755
S'collapsed-26'
p2845
S'took-32'
p2846
tp2847
a(g2759
S'took-32'
p2848
S'effect-33'
p2849
tp2850
asg78
(lp2851
(S'But'
p2852
(dp2853
S'NamedEntityTag'
p2854
g96
sS'CharacterOffsetEnd'
p2855
S'453'
p2856
sS'Lemma'
p2857
S'but'
p2858
sS'PartOfSpeech'
p2859
S'CC'
p2860
sS'CharacterOffsetBegin'
p2861
S'450'
p2862
stp2863
a(S'Yeltsins'
p2864
(dp2865
S'NamedEntityTag'
p2866
S'PERSON'
p2867
sS'CharacterOffsetEnd'
p2868
S'462'
p2869
sS'Lemma'
p2870
S'Yeltsins'
p2871
sS'PartOfSpeech'
p2872
S'NNP'
p2873
sS'CharacterOffsetBegin'
p2874
S'454'
p2875
stp2876
a(S'aides'
p2877
(dp2878
S'NamedEntityTag'
p2879
g96
sS'CharacterOffsetEnd'
p2880
S'468'
p2881
sS'Lemma'
p2882
S'aide'
p2883
sS'PartOfSpeech'
p2884
S'NNS'
p2885
sS'CharacterOffsetBegin'
p2886
S'463'
p2887
stp2888
a(S'say'
p2889
(dp2890
S'NamedEntityTag'
p2891
g96
sS'CharacterOffsetEnd'
p2892
S'472'
p2893
sS'Lemma'
p2894
S'say'
p2895
sS'PartOfSpeech'
p2896
S'VBP'
p2897
sS'CharacterOffsetBegin'
p2898
S'469'
p2899
stp2900
a(S'his'
p2901
(dp2902
S'NamedEntityTag'
p2903
g96
sS'CharacterOffsetEnd'
p2904
S'476'
p2905
sS'Lemma'
p2906
S'he'
p2907
sS'PartOfSpeech'
p2908
S'PRP$'
p2909
sS'CharacterOffsetBegin'
p2910
S'473'
p2911
stp2912
a(S'first'
p2913
(dp2914
S'NormalizedNamedEntityTag'
p2915
S'1.0'
p2916
sS'Lemma'
p2917
S'first'
p2918
sS'CharacterOffsetEnd'
p2919
S'482'
p2920
sS'PartOfSpeech'
p2921
S'JJ'
p2922
sS'CharacterOffsetBegin'
p2923
S'477'
p2924
sS'NamedEntityTag'
p2925
S'ORDINAL'
p2926
stp2927
a(S'term'
p2928
(dp2929
S'NamedEntityTag'
p2930
g96
sS'CharacterOffsetEnd'
p2931
S'487'
p2932
sS'Lemma'
p2933
S'term'
p2934
sS'PartOfSpeech'
p2935
S'NN'
p2936
sS'CharacterOffsetBegin'
p2937
S'483'
p2938
stp2939
a(g879
(dp2940
S'NamedEntityTag'
p2941
g96
sS'CharacterOffsetEnd'
p2942
S'488'
p2943
sS'Lemma'
p2944
g879
sS'PartOfSpeech'
p2945
g879
sS'CharacterOffsetBegin'
p2946
S'487'
p2947
stp2948
a(S'from'
p2949
(dp2950
S'NamedEntityTag'
p2951
g96
sS'CharacterOffsetEnd'
p2952
S'493'
p2953
sS'Lemma'
p2954
S'from'
p2955
sS'PartOfSpeech'
p2956
S'IN'
p2957
sS'CharacterOffsetBegin'
p2958
S'489'
p2959
stp2960
a(S'1991'
p2961
(dp2962
S'NormalizedNamedEntityTag'
p2963
S'1991/1996'
p2964
sS'Timex'
p2965
S'<TIMEX3 tid="t3" type="DATE" value="1991">1991</TIMEX3>'
p2966
sS'Lemma'
p2967
S'1991'
p2968
sS'CharacterOffsetEnd'
p2969
S'498'
p2970
sS'PartOfSpeech'
p2971
S'CD'
p2972
sS'CharacterOffsetBegin'
p2973
S'494'
p2974
sS'NamedEntityTag'
p2975
S'DATE'
p2976
stp2977
a(S'to'
p2978
(dp2979
S'NormalizedNamedEntityTag'
p2980
S'1991/1996'
p2981
sS'Lemma'
p2982
S'to'
p2983
sS'CharacterOffsetEnd'
p2984
S'501'
p2985
sS'PartOfSpeech'
p2986
S'TO'
p2987
sS'CharacterOffsetBegin'
p2988
S'499'
p2989
sS'NamedEntityTag'
p2990
S'DATE'
p2991
stp2992
a(S'1996'
p2993
(dp2994
S'NormalizedNamedEntityTag'
p2995
S'1991/1996'
p2996
sS'Timex'
p2997
S'<TIMEX3 tid="t4" type="DATE" value="1996">1996</TIMEX3>'
p2998
sS'Lemma'
p2999
S'1996'
p3000
sS'CharacterOffsetEnd'
p3001
S'506'
p3002
sS'PartOfSpeech'
p3003
S'CD'
p3004
sS'CharacterOffsetBegin'
p3005
S'502'
p3006
sS'NamedEntityTag'
p3007
S'DATE'
p3008
stp3009
a(g879
(dp3010
S'NamedEntityTag'
p3011
g96
sS'CharacterOffsetEnd'
p3012
S'507'
p3013
sS'Lemma'
p3014
g879
sS'PartOfSpeech'
p3015
g879
sS'CharacterOffsetBegin'
p3016
S'506'
p3017
stp3018
a(S'does'
p3019
(dp3020
S'NamedEntityTag'
p3021
g96
sS'CharacterOffsetEnd'
p3022
S'512'
p3023
sS'Lemma'
p3024
S'do'
p3025
sS'PartOfSpeech'
p3026
S'VBZ'
p3027
sS'CharacterOffsetBegin'
p3028
S'508'
p3029
stp3030
a(S'not'
p3031
(dp3032
S'NamedEntityTag'
p3033
g96
sS'CharacterOffsetEnd'
p3034
S'516'
p3035
sS'Lemma'
p3036
S'not'
p3037
sS'PartOfSpeech'
p3038
S'RB'
p3039
sS'CharacterOffsetBegin'
p3040
S'513'
p3041
stp3042
a(S'count'
p3043
(dp3044
S'NamedEntityTag'
p3045
g96
sS'CharacterOffsetEnd'
p3046
S'522'
p3047
sS'Lemma'
p3048
S'count'
p3049
sS'PartOfSpeech'
p3050
S'VB'
p3051
sS'CharacterOffsetBegin'
p3052
S'517'
p3053
stp3054
a(S'because'
p3055
(dp3056
S'NamedEntityTag'
p3057
g96
sS'CharacterOffsetEnd'
p3058
S'530'
p3059
sS'Lemma'
p3060
S'because'
p3061
sS'PartOfSpeech'
p3062
S'IN'
p3063
sS'CharacterOffsetBegin'
p3064
S'523'
p3065
stp3066
a(S'it'
p3067
(dp3068
S'NamedEntityTag'
p3069
g96
sS'CharacterOffsetEnd'
p3070
S'533'
p3071
sS'Lemma'
p3072
S'it'
p3073
sS'PartOfSpeech'
p3074
S'PRP'
p3075
sS'CharacterOffsetBegin'
p3076
S'531'
p3077
stp3078
a(S'began'
p3079
(dp3080
S'NamedEntityTag'
p3081
g96
sS'CharacterOffsetEnd'
p3082
S'539'
p3083
sS'Lemma'
p3084
S'begin'
p3085
sS'PartOfSpeech'
p3086
S'VBD'
p3087
sS'CharacterOffsetBegin'
p3088
S'534'
p3089
stp3090
a(S'six'
p3091
(dp3092
S'NormalizedNamedEntityTag'
p3093
S'P6M'
p3094
sS'Timex'
p3095
S'<TIMEX3 tid="t5" type="DURATION" value="P6M">six months</TIMEX3>'
p3096
sS'Lemma'
p3097
S'six'
p3098
sS'CharacterOffsetEnd'
p3099
S'543'
p3100
sS'PartOfSpeech'
p3101
S'CD'
p3102
sS'CharacterOffsetBegin'
p3103
S'540'
p3104
sS'NamedEntityTag'
p3105
S'DURATION'
p3106
stp3107
a(S'months'
p3108
(dp3109
S'NormalizedNamedEntityTag'
p3110
S'P6M'
p3111
sS'Timex'
p3112
S'<TIMEX3 tid="t5" type="DURATION" value="P6M">six months</TIMEX3>'
p3113
sS'Lemma'
p3114
S'month'
p3115
sS'CharacterOffsetEnd'
p3116
S'550'
p3117
sS'PartOfSpeech'
p3118
S'NNS'
p3119
sS'CharacterOffsetBegin'
p3120
S'544'
p3121
sS'NamedEntityTag'
p3122
S'DURATION'
p3123
stp3124
a(S'before'
p3125
(dp3126
S'NamedEntityTag'
p3127
g96
sS'CharacterOffsetEnd'
p3128
S'557'
p3129
sS'Lemma'
p3130
S'before'
p3131
sS'PartOfSpeech'
p3132
S'IN'
p3133
sS'CharacterOffsetBegin'
p3134
S'551'
p3135
stp3136
a(S'the'
p3137
(dp3138
S'NamedEntityTag'
p3139
g96
sS'CharacterOffsetEnd'
p3140
S'561'
p3141
sS'Lemma'
p3142
S'the'
p3143
sS'PartOfSpeech'
p3144
S'DT'
p3145
sS'CharacterOffsetBegin'
p3146
S'558'
p3147
stp3148
a(S'Soviet'
p3149
(dp3150
S'NamedEntityTag'
p3151
S'LOCATION'
p3152
sS'CharacterOffsetEnd'
p3153
S'568'
p3154
sS'Lemma'
p3155
S'Soviet'
p3156
sS'PartOfSpeech'
p3157
S'NNP'
p3158
sS'CharacterOffsetBegin'
p3159
S'562'
p3160
stp3161
a(S'Union'
p3162
(dp3163
S'NamedEntityTag'
p3164
S'LOCATION'
p3165
sS'CharacterOffsetEnd'
p3166
S'574'
p3167
sS'Lemma'
p3168
S'Union'
p3169
sS'PartOfSpeech'
p3170
S'NNP'
p3171
sS'CharacterOffsetBegin'
p3172
S'569'
p3173
stp3174
a(S'collapsed'
p3175
(dp3176
S'NamedEntityTag'
p3177
g96
sS'CharacterOffsetEnd'
p3178
S'584'
p3179
sS'Lemma'
p3180
S'collapse'
p3181
sS'PartOfSpeech'
p3182
S'VBD'
p3183
sS'CharacterOffsetBegin'
p3184
S'575'
p3185
stp3186
a(S'and'
p3187
(dp3188
S'NamedEntityTag'
p3189
g96
sS'CharacterOffsetEnd'
p3190
S'588'
p3191
sS'Lemma'
p3192
S'and'
p3193
sS'PartOfSpeech'
p3194
S'CC'
p3195
sS'CharacterOffsetBegin'
p3196
S'585'
p3197
stp3198
a(S'before'
p3199
(dp3200
S'NamedEntityTag'
p3201
g96
sS'CharacterOffsetEnd'
p3202
S'595'
p3203
sS'Lemma'
p3204
S'before'
p3205
sS'PartOfSpeech'
p3206
S'IN'
p3207
sS'CharacterOffsetBegin'
p3208
S'589'
p3209
stp3210
a(S'the'
p3211
(dp3212
S'NamedEntityTag'
p3213
g96
sS'CharacterOffsetEnd'
p3214
S'599'
p3215
sS'Lemma'
p3216
S'the'
p3217
sS'PartOfSpeech'
p3218
S'DT'
p3219
sS'CharacterOffsetBegin'
p3220
S'596'
p3221
stp3222
a(S'current'
p3223
(dp3224
S'NormalizedNamedEntityTag'
p3225
S'PRESENT_REF'
p3226
sS'Timex'
p3227
S'<TIMEX3 tid="t6" type="DATE" value="PRESENT_REF">current</TIMEX3>'
p3228
sS'Lemma'
p3229
S'current'
p3230
sS'CharacterOffsetEnd'
p3231
S'607'
p3232
sS'PartOfSpeech'
p3233
S'JJ'
p3234
sS'CharacterOffsetBegin'
p3235
S'600'
p3236
sS'NamedEntityTag'
p3237
S'DATE'
p3238
stp3239
a(S'constitution'
p3240
(dp3241
S'NamedEntityTag'
p3242
g96
sS'CharacterOffsetEnd'
p3243
S'620'
p3244
sS'Lemma'
p3245
S'constitution'
p3246
sS'PartOfSpeech'
p3247
S'NN'
p3248
sS'CharacterOffsetBegin'
p3249
S'608'
p3250
stp3251
a(S'took'
p3252
(dp3253
S'NamedEntityTag'
p3254
g96
sS'CharacterOffsetEnd'
p3255
S'625'
p3256
sS'Lemma'
p3257
S'take'
p3258
sS'PartOfSpeech'
p3259
S'VBD'
p3260
sS'CharacterOffsetBegin'
p3261
S'621'
p3262
stp3263
a(S'effect'
p3264
(dp3265
S'NamedEntityTag'
p3266
g96
sS'CharacterOffsetEnd'
p3267
S'632'
p3268
sS'Lemma'
p3269
S'effect'
p3270
sS'PartOfSpeech'
p3271
S'NN'
p3272
sS'CharacterOffsetBegin'
p3273
S'626'
p3274
stp3275
a(g1477
(dp3276
S'NamedEntityTag'
p3277
g96
sS'CharacterOffsetEnd'
p3278
S'633'
p3279
sS'Lemma'
p3280
g1477
sS'PartOfSpeech'
p3281
g1477
sS'CharacterOffsetBegin'
p3282
S'632'
p3283
stp3284
asa(dp3285
g7
S'(ROOT (S (NP (NP (NNPS Communists)) (CC and) (NP (JJ other) (NNP Yeltsin) (NNS opponents))) (PP (IN in) (NP (NNS parliaments))) (NP (NP (JJR lower) (NN house)) (, ,) (NP (DT the) (NNP State) (NNP Duma)) (, ,)) (VP (VP (VBD disagreed)) (CC and) (VP (VBD appealed) (PP (TO to) (NP (DT the) (NNP Constitutional) (NNP Court))) (PP (IN in) (NP (NNP February))))) (. .)))'
p3286
sg9
S'Communists and other Yeltsin opponents in parliaments lower house, the State Duma, disagreed and appealed to the Constitutional Court in February.'
p3287
sg11
(lp3288
(S'root'
p3289
S'ROOT'
p3290
S'disagreed'
p3291
tp3292
a(S'nsubj'
p3293
S'disagreed'
p3294
S'Communists'
p3295
tp3296
a(S'amod'
p3297
S'opponents'
p3298
S'other'
p3299
tp3300
a(S'nn'
p3301
S'opponents'
p3302
S'Yeltsin'
p3303
tp3304
a(S'conj_and'
p3305
S'Communists'
p3306
S'opponents'
p3307
tp3308
a(S'prep_in'
p3309
S'disagreed'
p3310
S'parliaments'
p3311
tp3312
a(S'amod'
p3313
S'house'
p3314
S'lower'
p3315
tp3316
a(S'nsubj'
p3317
S'disagreed'
p3318
S'house'
p3319
tp3320
a(S'det'
p3321
S'Duma'
p3322
S'the'
p3323
tp3324
a(S'nn'
p3325
S'Duma'
p3326
S'State'
p3327
tp3328
a(S'appos'
p3329
S'house'
p3330
S'Duma'
p3331
tp3332
a(S'conj_and'
p3333
S'disagreed'
p3334
S'appealed'
p3335
tp3336
a(S'det'
p3337
S'Court'
p3338
S'the'
p3339
tp3340
a(S'nn'
p3341
S'Court'
p3342
S'Constitutional'
p3343
tp3344
a(S'prep_to'
p3345
S'appealed'
p3346
S'Court'
p3347
tp3348
a(S'prep_in'
p3349
S'appealed'
p3350
S'February'
p3351
tp3352
asg49
(lp3353
(g3289
S'ROOT-0'
p3354
S'disagreed-15'
p3355
tp3356
a(g3293
S'disagreed-15'
p3357
S'Communists-1'
p3358
tp3359
a(g3297
S'opponents-5'
p3360
S'other-3'
p3361
tp3362
a(g3301
S'opponents-5'
p3363
S'Yeltsin-4'
p3364
tp3365
a(g3305
S'Communists-1'
p3366
S'opponents-5'
p3367
tp3368
a(g3309
S'disagreed-15'
p3369
S'parliaments-7'
p3370
tp3371
a(g3313
S'house-9'
p3372
S'lower-8'
p3373
tp3374
a(g3317
S'disagreed-15'
p3375
S'house-9'
p3376
tp3377
a(g3321
S'Duma-13'
p3378
S'the-11'
p3379
tp3380
a(g3325
S'Duma-13'
p3381
S'State-12'
p3382
tp3383
a(g3329
S'house-9'
p3384
S'Duma-13'
p3385
tp3386
a(g3333
S'disagreed-15'
p3387
S'appealed-17'
p3388
tp3389
a(g3337
S'Court-21'
p3390
S'the-19'
p3391
tp3392
a(g3341
S'Court-21'
p3393
S'Constitutional-20'
p3394
tp3395
a(g3345
S'appealed-17'
p3396
S'Court-21'
p3397
tp3398
a(g3349
S'appealed-17'
p3399
S'February-23'
p3400
tp3401
asg78
(lp3402
(S'Communists'
p3403
(dp3404
S'NamedEntityTag'
p3405
g96
sS'CharacterOffsetEnd'
p3406
S'644'
p3407
sS'Lemma'
p3408
S'Communists'
p3409
sS'PartOfSpeech'
p3410
S'NNPS'
p3411
sS'CharacterOffsetBegin'
p3412
S'634'
p3413
stp3414
a(S'and'
p3415
(dp3416
S'NamedEntityTag'
p3417
g96
sS'CharacterOffsetEnd'
p3418
S'648'
p3419
sS'Lemma'
p3420
S'and'
p3421
sS'PartOfSpeech'
p3422
S'CC'
p3423
sS'CharacterOffsetBegin'
p3424
S'645'
p3425
stp3426
a(S'other'
p3427
(dp3428
S'NamedEntityTag'
p3429
g96
sS'CharacterOffsetEnd'
p3430
S'654'
p3431
sS'Lemma'
p3432
S'other'
p3433
sS'PartOfSpeech'
p3434
S'JJ'
p3435
sS'CharacterOffsetBegin'
p3436
S'649'
p3437
stp3438
a(S'Yeltsin'
p3439
(dp3440
S'NamedEntityTag'
p3441
S'PERSON'
p3442
sS'CharacterOffsetEnd'
p3443
S'662'
p3444
sS'Lemma'
p3445
S'Yeltsin'
p3446
sS'PartOfSpeech'
p3447
S'NNP'
p3448
sS'CharacterOffsetBegin'
p3449
S'655'
p3450
stp3451
a(S'opponents'
p3452
(dp3453
S'NamedEntityTag'
p3454
g96
sS'CharacterOffsetEnd'
p3455
S'672'
p3456
sS'Lemma'
p3457
S'opponent'
p3458
sS'PartOfSpeech'
p3459
S'NNS'
p3460
sS'CharacterOffsetBegin'
p3461
S'663'
p3462
stp3463
a(S'in'
p3464
(dp3465
S'NamedEntityTag'
p3466
g96
sS'CharacterOffsetEnd'
p3467
S'675'
p3468
sS'Lemma'
p3469
S'in'
p3470
sS'PartOfSpeech'
p3471
S'IN'
p3472
sS'CharacterOffsetBegin'
p3473
S'673'
p3474
stp3475
a(S'parliaments'
p3476
(dp3477
S'NamedEntityTag'
p3478
g96
sS'CharacterOffsetEnd'
p3479
S'687'
p3480
sS'Lemma'
p3481
S'parliament'
p3482
sS'PartOfSpeech'
p3483
S'NNS'
p3484
sS'CharacterOffsetBegin'
p3485
S'676'
p3486
stp3487
a(S'lower'
p3488
(dp3489
S'NamedEntityTag'
p3490
g96
sS'CharacterOffsetEnd'
p3491
S'693'
p3492
sS'Lemma'
p3493
S'lower'
p3494
sS'PartOfSpeech'
p3495
S'JJR'
p3496
sS'CharacterOffsetBegin'
p3497
S'688'
p3498
stp3499
a(S'house'
p3500
(dp3501
S'NamedEntityTag'
p3502
g96
sS'CharacterOffsetEnd'
p3503
S'699'
p3504
sS'Lemma'
p3505
S'house'
p3506
sS'PartOfSpeech'
p3507
S'NN'
p3508
sS'CharacterOffsetBegin'
p3509
S'694'
p3510
stp3511
a(g879
(dp3512
S'NamedEntityTag'
p3513
g96
sS'CharacterOffsetEnd'
p3514
S'700'
p3515
sS'Lemma'
p3516
g879
sS'PartOfSpeech'
p3517
g879
sS'CharacterOffsetBegin'
p3518
S'699'
p3519
stp3520
a(S'the'
p3521
(dp3522
S'NamedEntityTag'
p3523
g96
sS'CharacterOffsetEnd'
p3524
S'704'
p3525
sS'Lemma'
p3526
S'the'
p3527
sS'PartOfSpeech'
p3528
S'DT'
p3529
sS'CharacterOffsetBegin'
p3530
S'701'
p3531
stp3532
a(S'State'
p3533
(dp3534
S'NamedEntityTag'
p3535
g96
sS'CharacterOffsetEnd'
p3536
S'710'
p3537
sS'Lemma'
p3538
S'State'
p3539
sS'PartOfSpeech'
p3540
S'NNP'
p3541
sS'CharacterOffsetBegin'
p3542
S'705'
p3543
stp3544
a(S'Duma'
p3545
(dp3546
S'NamedEntityTag'
p3547
S'ORGANIZATION'
p3548
sS'CharacterOffsetEnd'
p3549
S'715'
p3550
sS'Lemma'
p3551
S'Duma'
p3552
sS'PartOfSpeech'
p3553
S'NNP'
p3554
sS'CharacterOffsetBegin'
p3555
S'711'
p3556
stp3557
a(g879
(dp3558
S'NamedEntityTag'
p3559
g96
sS'CharacterOffsetEnd'
p3560
S'716'
p3561
sS'Lemma'
p3562
g879
sS'PartOfSpeech'
p3563
g879
sS'CharacterOffsetBegin'
p3564
S'715'
p3565
stp3566
a(S'disagreed'
p3567
(dp3568
S'NamedEntityTag'
p3569
g96
sS'CharacterOffsetEnd'
p3570
S'726'
p3571
sS'Lemma'
p3572
S'disagree'
p3573
sS'PartOfSpeech'
p3574
S'VBD'
p3575
sS'CharacterOffsetBegin'
p3576
S'717'
p3577
stp3578
a(S'and'
p3579
(dp3580
S'NamedEntityTag'
p3581
g96
sS'CharacterOffsetEnd'
p3582
S'730'
p3583
sS'Lemma'
p3584
S'and'
p3585
sS'PartOfSpeech'
p3586
S'CC'
p3587
sS'CharacterOffsetBegin'
p3588
S'727'
p3589
stp3590
a(S'appealed'
p3591
(dp3592
S'NamedEntityTag'
p3593
g96
sS'CharacterOffsetEnd'
p3594
S'739'
p3595
sS'Lemma'
p3596
S'appeal'
p3597
sS'PartOfSpeech'
p3598
S'VBD'
p3599
sS'CharacterOffsetBegin'
p3600
S'731'
p3601
stp3602
a(S'to'
p3603
(dp3604
S'NamedEntityTag'
p3605
g96
sS'CharacterOffsetEnd'
p3606
S'742'
p3607
sS'Lemma'
p3608
S'to'
p3609
sS'PartOfSpeech'
p3610
S'TO'
p3611
sS'CharacterOffsetBegin'
p3612
S'740'
p3613
stp3614
a(S'the'
p3615
(dp3616
S'NamedEntityTag'
p3617
g96
sS'CharacterOffsetEnd'
p3618
S'746'
p3619
sS'Lemma'
p3620
S'the'
p3621
sS'PartOfSpeech'
p3622
S'DT'
p3623
sS'CharacterOffsetBegin'
p3624
S'743'
p3625
stp3626
a(S'Constitutional'
p3627
(dp3628
S'NamedEntityTag'
p3629
g96
sS'CharacterOffsetEnd'
p3630
S'761'
p3631
sS'Lemma'
p3632
S'Constitutional'
p3633
sS'PartOfSpeech'
p3634
S'NNP'
p3635
sS'CharacterOffsetBegin'
p3636
S'747'
p3637
stp3638
a(S'Court'
p3639
(dp3640
S'NamedEntityTag'
p3641
g96
sS'CharacterOffsetEnd'
p3642
S'767'
p3643
sS'Lemma'
p3644
S'Court'
p3645
sS'PartOfSpeech'
p3646
S'NNP'
p3647
sS'CharacterOffsetBegin'
p3648
S'762'
p3649
stp3650
a(S'in'
p3651
(dp3652
S'NamedEntityTag'
p3653
g96
sS'CharacterOffsetEnd'
p3654
S'770'
p3655
sS'Lemma'
p3656
S'in'
p3657
sS'PartOfSpeech'
p3658
S'IN'
p3659
sS'CharacterOffsetBegin'
p3660
S'768'
p3661
stp3662
a(S'February'
p3663
(dp3664
S'NormalizedNamedEntityTag'
p3665
S'XXXX-02'
p3666
sS'Timex'
p3667
S'<TIMEX3 tid="t7" type="DATE" value="XXXX-02">February</TIMEX3>'
p3668
sS'Lemma'
p3669
S'February'
p3670
sS'CharacterOffsetEnd'
p3671
S'779'
p3672
sS'PartOfSpeech'
p3673
S'NNP'
p3674
sS'CharacterOffsetBegin'
p3675
S'771'
p3676
sS'NamedEntityTag'
p3677
S'DATE'
p3678
stp3679
a(g1477
(dp3680
S'NamedEntityTag'
p3681
g96
sS'CharacterOffsetEnd'
p3682
S'780'
p3683
sS'Lemma'
p3684
g1477
sS'PartOfSpeech'
p3685
g1477
sS'CharacterOffsetBegin'
p3686
S'779'
p3687
stp3688
asa(dp3689
g7
S'(ROOT (S (SBAR (IN While) (S (NP (DT the) (NN case)) (VP (VBZ has) (VP (VBN been) (VP (VBG waiting) (S (VP (TO to) (VP (VB be) (VP (VBN heard)))))))))) (, ,) (NP (NNS events)) (VP (VBP have) (VP (VBN overtaken) (NP (PRP it)))) (. .)))'
p3690
sg9
S'While the case has been waiting to be heard, events have overtaken it.'
p3691
sg11
(lp3692
(S'root'
p3693
S'ROOT'
p3694
S'overtaken'
p3695
tp3696
a(S'mark'
p3697
S'waiting'
p3698
S'While'
p3699
tp3700
a(S'det'
p3701
S'case'
p3702
S'the'
p3703
tp3704
a(S'nsubj'
p3705
S'waiting'
p3706
S'case'
p3707
tp3708
a(S'aux'
p3709
S'waiting'
p3710
S'has'
p3711
tp3712
a(S'aux'
p3713
S'waiting'
p3714
S'been'
p3715
tp3716
a(S'advcl'
p3717
S'overtaken'
p3718
S'waiting'
p3719
tp3720
a(S'aux'
p3721
S'heard'
p3722
S'to'
p3723
tp3724
a(S'auxpass'
p3725
S'heard'
p3726
S'be'
p3727
tp3728
a(S'xcomp'
p3729
S'waiting'
p3730
S'heard'
p3731
tp3732
a(S'nsubj'
p3733
S'overtaken'
p3734
S'events'
p3735
tp3736
a(S'aux'
p3737
S'overtaken'
p3738
S'have'
p3739
tp3740
a(S'dobj'
p3741
S'overtaken'
p3742
S'it'
p3743
tp3744
asg49
(lp3745
(g3693
S'ROOT-0'
p3746
S'overtaken-13'
p3747
tp3748
a(g3697
S'waiting-6'
p3749
S'While-1'
p3750
tp3751
a(g3701
S'case-3'
p3752
S'the-2'
p3753
tp3754
a(g3705
S'waiting-6'
p3755
S'case-3'
p3756
tp3757
a(g3709
S'waiting-6'
p3758
S'has-4'
p3759
tp3760
a(g3713
S'waiting-6'
p3761
S'been-5'
p3762
tp3763
a(g3717
S'overtaken-13'
p3764
S'waiting-6'
p3765
tp3766
a(g3721
S'heard-9'
p3767
S'to-7'
p3768
tp3769
a(g3725
S'heard-9'
p3770
S'be-8'
p3771
tp3772
a(g3729
S'waiting-6'
p3773
S'heard-9'
p3774
tp3775
a(g3733
S'overtaken-13'
p3776
S'events-11'
p3777
tp3778
a(g3737
S'overtaken-13'
p3779
S'have-12'
p3780
tp3781
a(g3741
S'overtaken-13'
p3782
S'it-14'
p3783
tp3784
asg78
(lp3785
(S'While'
p3786
(dp3787
S'NamedEntityTag'
p3788
g96
sS'CharacterOffsetEnd'
p3789
S'786'
p3790
sS'Lemma'
p3791
S'while'
p3792
sS'PartOfSpeech'
p3793
S'IN'
p3794
sS'CharacterOffsetBegin'
p3795
S'781'
p3796
stp3797
a(S'the'
p3798
(dp3799
S'NamedEntityTag'
p3800
g96
sS'CharacterOffsetEnd'
p3801
S'790'
p3802
sS'Lemma'
p3803
S'the'
p3804
sS'PartOfSpeech'
p3805
S'DT'
p3806
sS'CharacterOffsetBegin'
p3807
S'787'
p3808
stp3809
a(S'case'
p3810
(dp3811
S'NamedEntityTag'
p3812
g96
sS'CharacterOffsetEnd'
p3813
S'795'
p3814
sS'Lemma'
p3815
S'case'
p3816
sS'PartOfSpeech'
p3817
S'NN'
p3818
sS'CharacterOffsetBegin'
p3819
S'791'
p3820
stp3821
a(S'has'
p3822
(dp3823
S'NamedEntityTag'
p3824
g96
sS'CharacterOffsetEnd'
p3825
S'799'
p3826
sS'Lemma'
p3827
S'have'
p3828
sS'PartOfSpeech'
p3829
S'VBZ'
p3830
sS'CharacterOffsetBegin'
p3831
S'796'
p3832
stp3833
a(S'been'
p3834
(dp3835
S'NamedEntityTag'
p3836
g96
sS'CharacterOffsetEnd'
p3837
S'804'
p3838
sS'Lemma'
p3839
S'be'
p3840
sS'PartOfSpeech'
p3841
S'VBN'
p3842
sS'CharacterOffsetBegin'
p3843
S'800'
p3844
stp3845
a(S'waiting'
p3846
(dp3847
S'NamedEntityTag'
p3848
g96
sS'CharacterOffsetEnd'
p3849
S'812'
p3850
sS'Lemma'
p3851
S'wait'
p3852
sS'PartOfSpeech'
p3853
S'VBG'
p3854
sS'CharacterOffsetBegin'
p3855
S'805'
p3856
stp3857
a(S'to'
p3858
(dp3859
S'NamedEntityTag'
p3860
g96
sS'CharacterOffsetEnd'
p3861
S'815'
p3862
sS'Lemma'
p3863
S'to'
p3864
sS'PartOfSpeech'
p3865
S'TO'
p3866
sS'CharacterOffsetBegin'
p3867
S'813'
p3868
stp3869
a(S'be'
p3870
(dp3871
S'NamedEntityTag'
p3872
g96
sS'CharacterOffsetEnd'
p3873
S'818'
p3874
sS'Lemma'
p3875
S'be'
p3876
sS'PartOfSpeech'
p3877
S'VB'
p3878
sS'CharacterOffsetBegin'
p3879
S'816'
p3880
stp3881
a(S'heard'
p3882
(dp3883
S'NamedEntityTag'
p3884
g96
sS'CharacterOffsetEnd'
p3885
S'824'
p3886
sS'Lemma'
p3887
S'hear'
p3888
sS'PartOfSpeech'
p3889
S'VBN'
p3890
sS'CharacterOffsetBegin'
p3891
S'819'
p3892
stp3893
a(g879
(dp3894
S'NamedEntityTag'
p3895
g96
sS'CharacterOffsetEnd'
p3896
S'825'
p3897
sS'Lemma'
p3898
g879
sS'PartOfSpeech'
p3899
g879
sS'CharacterOffsetBegin'
p3900
S'824'
p3901
stp3902
a(S'events'
p3903
(dp3904
S'NamedEntityTag'
p3905
g96
sS'CharacterOffsetEnd'
p3906
S'832'
p3907
sS'Lemma'
p3908
S'event'
p3909
sS'PartOfSpeech'
p3910
S'NNS'
p3911
sS'CharacterOffsetBegin'
p3912
S'826'
p3913
stp3914
a(S'have'
p3915
(dp3916
S'NamedEntityTag'
p3917
g96
sS'CharacterOffsetEnd'
p3918
S'837'
p3919
sS'Lemma'
p3920
S'have'
p3921
sS'PartOfSpeech'
p3922
S'VBP'
p3923
sS'CharacterOffsetBegin'
p3924
S'833'
p3925
stp3926
a(S'overtaken'
p3927
(dp3928
S'NamedEntityTag'
p3929
g96
sS'CharacterOffsetEnd'
p3930
S'847'
p3931
sS'Lemma'
p3932
S'overtake'
p3933
sS'PartOfSpeech'
p3934
S'VBN'
p3935
sS'CharacterOffsetBegin'
p3936
S'838'
p3937
stp3938
a(S'it'
p3939
(dp3940
S'NamedEntityTag'
p3941
g96
sS'CharacterOffsetEnd'
p3942
S'850'
p3943
sS'Lemma'
p3944
S'it'
p3945
sS'PartOfSpeech'
p3946
S'PRP'
p3947
sS'CharacterOffsetBegin'
p3948
S'848'
p3949
stp3950
a(g1477
(dp3951
S'NamedEntityTag'
p3952
g96
sS'CharacterOffsetEnd'
p3953
S'851'
p3954
sS'Lemma'
p3955
g1477
sS'PartOfSpeech'
p3956
g1477
sS'CharacterOffsetBegin'
p3957
S'850'
p3958
stp3959
asa(dp3960
g7
S'(ROOT (S (S (NP (NNP Yeltsin)) (VP (VBZ has) (ADVP (RB flatly)) (VP (VBD said) (SBAR (S (NP (PRP he)) (VP (MD will) (RB not) (VP (VB seek) (NP (DT another) (NN term))))))))) (, ,) (CC and) (S (NP (DT the) (NN opposition)) (VP (VBZ has) (VP (VBN concentrated) (NP (PRP$ its) (NNS efforts)) (PP (IN on) (S (VP (VP (VBG demanding) (NP (DT an) (JJ early) (NN resignation))) (, ,) (VP (VBG riding) (NP (NP (DT a) (NN wave)) (PP (IN of) (NP (NP (JJ popular) (NN discontent)) (PP (IN over) (NP (DT the) (JJ economic) (NN crisis))))))))))))) (. .)))'
p3961
sg9
S'Yeltsin has flatly said he will not seek another term, and the opposition has concentrated its efforts on demanding an early resignation, riding a wave of popular discontent over the economic crisis.'
p3962
sg11
(lp3963
(S'root'
p3964
S'ROOT'
p3965
S'said'
p3966
tp3967
a(S'nsubj'
p3968
S'said'
p3969
S'Yeltsin'
p3970
tp3971
a(S'aux'
p3972
S'said'
p3973
S'has'
p3974
tp3975
a(S'advmod'
p3976
S'said'
p3977
S'flatly'
p3978
tp3979
a(S'nsubj'
p3980
S'seek'
p3981
S'he'
p3982
tp3983
a(S'aux'
p3984
S'seek'
p3985
S'will'
p3986
tp3987
a(S'neg'
p3988
S'seek'
p3989
S'not'
p3990
tp3991
a(S'ccomp'
p3992
S'said'
p3993
S'seek'
p3994
tp3995
a(S'det'
p3996
S'term'
p3997
S'another'
p3998
tp3999
a(S'dobj'
p4000
S'seek'
p4001
S'term'
p4002
tp4003
a(S'det'
p4004
S'opposition'
p4005
S'the'
p4006
tp4007
a(S'nsubj'
p4008
S'concentrated'
p4009
S'opposition'
p4010
tp4011
a(S'aux'
p4012
S'concentrated'
p4013
S'has'
p4014
tp4015
a(S'conj_and'
p4016
S'said'
p4017
S'concentrated'
p4018
tp4019
a(S'poss'
p4020
S'efforts'
p4021
S'its'
p4022
tp4023
a(S'dobj'
p4024
S'concentrated'
p4025
S'efforts'
p4026
tp4027
a(S'prepc_on'
p4028
S'concentrated'
p4029
S'demanding'
p4030
tp4031
a(S'det'
p4032
S'resignation'
p4033
S'an'
p4034
tp4035
a(S'amod'
p4036
S'resignation'
p4037
S'early'
p4038
tp4039
a(S'dobj'
p4040
S'demanding'
p4041
S'resignation'
p4042
tp4043
a(S'dep'
p4044
S'demanding'
p4045
S'riding'
p4046
tp4047
a(S'det'
p4048
S'wave'
p4049
g583
tp4050
a(S'dobj'
p4051
S'riding'
p4052
S'wave'
p4053
tp4054
a(S'amod'
p4055
S'discontent'
p4056
S'popular'
p4057
tp4058
a(S'prep_of'
p4059
S'wave'
p4060
S'discontent'
p4061
tp4062
a(S'det'
p4063
S'crisis'
p4064
S'the'
p4065
tp4066
a(S'amod'
p4067
S'crisis'
p4068
S'economic'
p4069
tp4070
a(S'prep_over'
p4071
S'discontent'
p4072
S'crisis'
p4073
tp4074
asg49
(lp4075
(g3964
S'ROOT-0'
p4076
S'said-4'
p4077
tp4078
a(g3968
S'said-4'
p4079
S'Yeltsin-1'
p4080
tp4081
a(g3972
S'said-4'
p4082
S'has-2'
p4083
tp4084
a(g3976
S'said-4'
p4085
S'flatly-3'
p4086
tp4087
a(g3980
S'seek-8'
p4088
S'he-5'
p4089
tp4090
a(g3984
S'seek-8'
p4091
S'will-6'
p4092
tp4093
a(g3988
S'seek-8'
p4094
S'not-7'
p4095
tp4096
a(g3992
S'said-4'
p4097
S'seek-8'
p4098
tp4099
a(g3996
S'term-10'
p4100
S'another-9'
p4101
tp4102
a(g4000
S'seek-8'
p4103
S'term-10'
p4104
tp4105
a(g4004
S'opposition-14'
p4106
S'the-13'
p4107
tp4108
a(g4008
S'concentrated-16'
p4109
S'opposition-14'
p4110
tp4111
a(g4012
S'concentrated-16'
p4112
S'has-15'
p4113
tp4114
a(g4016
S'said-4'
p4115
S'concentrated-16'
p4116
tp4117
a(g4020
S'efforts-18'
p4118
S'its-17'
p4119
tp4120
a(g4024
S'concentrated-16'
p4121
S'efforts-18'
p4122
tp4123
a(g4028
S'concentrated-16'
p4124
S'demanding-20'
p4125
tp4126
a(g4032
S'resignation-23'
p4127
S'an-21'
p4128
tp4129
a(g4036
S'resignation-23'
p4130
S'early-22'
p4131
tp4132
a(g4040
S'demanding-20'
p4133
S'resignation-23'
p4134
tp4135
a(g4044
S'demanding-20'
p4136
S'riding-25'
p4137
tp4138
a(g4048
S'wave-27'
p4139
S'a-26'
p4140
tp4141
a(g4051
S'riding-25'
p4142
S'wave-27'
p4143
tp4144
a(g4055
S'discontent-30'
p4145
S'popular-29'
p4146
tp4147
a(g4059
S'wave-27'
p4148
S'discontent-30'
p4149
tp4150
a(g4063
S'crisis-34'
p4151
S'the-32'
p4152
tp4153
a(g4067
S'crisis-34'
p4154
S'economic-33'
p4155
tp4156
a(g4071
S'discontent-30'
p4157
S'crisis-34'
p4158
tp4159
asg78
(lp4160
(S'Yeltsin'
p4161
(dp4162
S'NamedEntityTag'
p4163
S'PERSON'
p4164
sS'CharacterOffsetEnd'
p4165
S'859'
p4166
sS'Lemma'
p4167
S'Yeltsin'
p4168
sS'PartOfSpeech'
p4169
S'NNP'
p4170
sS'CharacterOffsetBegin'
p4171
S'852'
p4172
stp4173
a(S'has'
p4174
(dp4175
S'NamedEntityTag'
p4176
g96
sS'CharacterOffsetEnd'
p4177
S'863'
p4178
sS'Lemma'
p4179
S'have'
p4180
sS'PartOfSpeech'
p4181
S'VBZ'
p4182
sS'CharacterOffsetBegin'
p4183
S'860'
p4184
stp4185
a(S'flatly'
p4186
(dp4187
S'NamedEntityTag'
p4188
g96
sS'CharacterOffsetEnd'
p4189
S'870'
p4190
sS'Lemma'
p4191
S'flatly'
p4192
sS'PartOfSpeech'
p4193
S'RB'
p4194
sS'CharacterOffsetBegin'
p4195
S'864'
p4196
stp4197
a(S'said'
p4198
(dp4199
S'NamedEntityTag'
p4200
g96
sS'CharacterOffsetEnd'
p4201
S'875'
p4202
sS'Lemma'
p4203
S'say'
p4204
sS'PartOfSpeech'
p4205
S'VBD'
p4206
sS'CharacterOffsetBegin'
p4207
S'871'
p4208
stp4209
a(S'he'
p4210
(dp4211
S'NamedEntityTag'
p4212
g96
sS'CharacterOffsetEnd'
p4213
S'878'
p4214
sS'Lemma'
p4215
S'he'
p4216
sS'PartOfSpeech'
p4217
S'PRP'
p4218
sS'CharacterOffsetBegin'
p4219
S'876'
p4220
stp4221
a(S'will'
p4222
(dp4223
S'NamedEntityTag'
p4224
g96
sS'CharacterOffsetEnd'
p4225
S'883'
p4226
sS'Lemma'
p4227
S'will'
p4228
sS'PartOfSpeech'
p4229
S'MD'
p4230
sS'CharacterOffsetBegin'
p4231
S'879'
p4232
stp4233
a(S'not'
p4234
(dp4235
S'NamedEntityTag'
p4236
g96
sS'CharacterOffsetEnd'
p4237
S'887'
p4238
sS'Lemma'
p4239
S'not'
p4240
sS'PartOfSpeech'
p4241
S'RB'
p4242
sS'CharacterOffsetBegin'
p4243
S'884'
p4244
stp4245
a(S'seek'
p4246
(dp4247
S'NamedEntityTag'
p4248
g96
sS'CharacterOffsetEnd'
p4249
S'892'
p4250
sS'Lemma'
p4251
S'seek'
p4252
sS'PartOfSpeech'
p4253
S'VB'
p4254
sS'CharacterOffsetBegin'
p4255
S'888'
p4256
stp4257
a(S'another'
p4258
(dp4259
S'NamedEntityTag'
p4260
g96
sS'CharacterOffsetEnd'
p4261
S'900'
p4262
sS'Lemma'
p4263
S'another'
p4264
sS'PartOfSpeech'
p4265
S'DT'
p4266
sS'CharacterOffsetBegin'
p4267
S'893'
p4268
stp4269
a(S'term'
p4270
(dp4271
S'NamedEntityTag'
p4272
g96
sS'CharacterOffsetEnd'
p4273
S'905'
p4274
sS'Lemma'
p4275
S'term'
p4276
sS'PartOfSpeech'
p4277
S'NN'
p4278
sS'CharacterOffsetBegin'
p4279
S'901'
p4280
stp4281
a(g879
(dp4282
S'NamedEntityTag'
p4283
g96
sS'CharacterOffsetEnd'
p4284
S'906'
p4285
sS'Lemma'
p4286
g879
sS'PartOfSpeech'
p4287
g879
sS'CharacterOffsetBegin'
p4288
S'905'
p4289
stp4290
a(S'and'
p4291
(dp4292
S'NamedEntityTag'
p4293
g96
sS'CharacterOffsetEnd'
p4294
S'910'
p4295
sS'Lemma'
p4296
S'and'
p4297
sS'PartOfSpeech'
p4298
S'CC'
p4299
sS'CharacterOffsetBegin'
p4300
S'907'
p4301
stp4302
a(S'the'
p4303
(dp4304
S'NamedEntityTag'
p4305
g96
sS'CharacterOffsetEnd'
p4306
S'914'
p4307
sS'Lemma'
p4308
S'the'
p4309
sS'PartOfSpeech'
p4310
S'DT'
p4311
sS'CharacterOffsetBegin'
p4312
S'911'
p4313
stp4314
a(S'opposition'
p4315
(dp4316
S'NamedEntityTag'
p4317
g96
sS'CharacterOffsetEnd'
p4318
S'925'
p4319
sS'Lemma'
p4320
S'opposition'
p4321
sS'PartOfSpeech'
p4322
S'NN'
p4323
sS'CharacterOffsetBegin'
p4324
S'915'
p4325
stp4326
a(S'has'
p4327
(dp4328
S'NamedEntityTag'
p4329
g96
sS'CharacterOffsetEnd'
p4330
S'929'
p4331
sS'Lemma'
p4332
S'have'
p4333
sS'PartOfSpeech'
p4334
S'VBZ'
p4335
sS'CharacterOffsetBegin'
p4336
S'926'
p4337
stp4338
a(S'concentrated'
p4339
(dp4340
S'NamedEntityTag'
p4341
g96
sS'CharacterOffsetEnd'
p4342
S'942'
p4343
sS'Lemma'
p4344
S'concentrate'
p4345
sS'PartOfSpeech'
p4346
S'VBN'
p4347
sS'CharacterOffsetBegin'
p4348
S'930'
p4349
stp4350
a(S'its'
p4351
(dp4352
S'NamedEntityTag'
p4353
g96
sS'CharacterOffsetEnd'
p4354
S'946'
p4355
sS'Lemma'
p4356
S'its'
p4357
sS'PartOfSpeech'
p4358
S'PRP$'
p4359
sS'CharacterOffsetBegin'
p4360
S'943'
p4361
stp4362
a(S'efforts'
p4363
(dp4364
S'NamedEntityTag'
p4365
g96
sS'CharacterOffsetEnd'
p4366
S'954'
p4367
sS'Lemma'
p4368
S'effort'
p4369
sS'PartOfSpeech'
p4370
S'NNS'
p4371
sS'CharacterOffsetBegin'
p4372
S'947'
p4373
stp4374
a(S'on'
p4375
(dp4376
S'NamedEntityTag'
p4377
g96
sS'CharacterOffsetEnd'
p4378
S'957'
p4379
sS'Lemma'
p4380
S'on'
p4381
sS'PartOfSpeech'
p4382
S'IN'
p4383
sS'CharacterOffsetBegin'
p4384
S'955'
p4385
stp4386
a(S'demanding'
p4387
(dp4388
S'NamedEntityTag'
p4389
g96
sS'CharacterOffsetEnd'
p4390
S'967'
p4391
sS'Lemma'
p4392
S'demand'
p4393
sS'PartOfSpeech'
p4394
S'VBG'
p4395
sS'CharacterOffsetBegin'
p4396
S'958'
p4397
stp4398
a(S'an'
p4399
(dp4400
S'NamedEntityTag'
p4401
g96
sS'CharacterOffsetEnd'
p4402
S'970'
p4403
sS'Lemma'
p4404
g583
sS'PartOfSpeech'
p4405
S'DT'
p4406
sS'CharacterOffsetBegin'
p4407
S'968'
p4408
stp4409
a(S'early'
p4410
(dp4411
S'NamedEntityTag'
p4412
g96
sS'CharacterOffsetEnd'
p4413
S'976'
p4414
sS'Lemma'
p4415
S'early'
p4416
sS'PartOfSpeech'
p4417
S'JJ'
p4418
sS'CharacterOffsetBegin'
p4419
S'971'
p4420
stp4421
a(S'resignation'
p4422
(dp4423
S'NamedEntityTag'
p4424
g96
sS'CharacterOffsetEnd'
p4425
S'988'
p4426
sS'Lemma'
p4427
S'resignation'
p4428
sS'PartOfSpeech'
p4429
S'NN'
p4430
sS'CharacterOffsetBegin'
p4431
S'977'
p4432
stp4433
a(g879
(dp4434
S'NamedEntityTag'
p4435
g96
sS'CharacterOffsetEnd'
p4436
S'989'
p4437
sS'Lemma'
p4438
g879
sS'PartOfSpeech'
p4439
g879
sS'CharacterOffsetBegin'
p4440
S'988'
p4441
stp4442
a(S'riding'
p4443
(dp4444
S'NamedEntityTag'
p4445
g96
sS'CharacterOffsetEnd'
p4446
S'996'
p4447
sS'Lemma'
p4448
S'ride'
p4449
sS'PartOfSpeech'
p4450
S'VBG'
p4451
sS'CharacterOffsetBegin'
p4452
S'990'
p4453
stp4454
a(g583
(dp4455
S'NamedEntityTag'
p4456
g96
sS'CharacterOffsetEnd'
p4457
S'998'
p4458
sS'Lemma'
p4459
g583
sS'PartOfSpeech'
p4460
S'DT'
p4461
sS'CharacterOffsetBegin'
p4462
S'997'
p4463
stp4464
a(S'wave'
p4465
(dp4466
S'NamedEntityTag'
p4467
g96
sS'CharacterOffsetEnd'
p4468
S'1003'
p4469
sS'Lemma'
p4470
S'wave'
p4471
sS'PartOfSpeech'
p4472
S'NN'
p4473
sS'CharacterOffsetBegin'
p4474
S'999'
p4475
stp4476
a(S'of'
p4477
(dp4478
S'NamedEntityTag'
p4479
g96
sS'CharacterOffsetEnd'
p4480
S'1006'
p4481
sS'Lemma'
p4482
S'of'
p4483
sS'PartOfSpeech'
p4484
S'IN'
p4485
sS'CharacterOffsetBegin'
p4486
S'1004'
p4487
stp4488
a(S'popular'
p4489
(dp4490
S'NamedEntityTag'
p4491
g96
sS'CharacterOffsetEnd'
p4492
S'1014'
p4493
sS'Lemma'
p4494
S'popular'
p4495
sS'PartOfSpeech'
p4496
S'JJ'
p4497
sS'CharacterOffsetBegin'
p4498
S'1007'
p4499
stp4500
a(S'discontent'
p4501
(dp4502
S'NamedEntityTag'
p4503
g96
sS'CharacterOffsetEnd'
p4504
S'1025'
p4505
sS'Lemma'
p4506
S'discontent'
p4507
sS'PartOfSpeech'
p4508
S'NN'
p4509
sS'CharacterOffsetBegin'
p4510
S'1015'
p4511
stp4512
a(S'over'
p4513
(dp4514
S'NamedEntityTag'
p4515
g96
sS'CharacterOffsetEnd'
p4516
S'1030'
p4517
sS'Lemma'
p4518
S'over'
p4519
sS'PartOfSpeech'
p4520
S'IN'
p4521
sS'CharacterOffsetBegin'
p4522
S'1026'
p4523
stp4524
a(S'the'
p4525
(dp4526
S'NamedEntityTag'
p4527
g96
sS'CharacterOffsetEnd'
p4528
S'1034'
p4529
sS'Lemma'
p4530
S'the'
p4531
sS'PartOfSpeech'
p4532
S'DT'
p4533
sS'CharacterOffsetBegin'
p4534
S'1031'
p4535
stp4536
a(S'economic'
p4537
(dp4538
S'NamedEntityTag'
p4539
g96
sS'CharacterOffsetEnd'
p4540
S'1043'
p4541
sS'Lemma'
p4542
S'economic'
p4543
sS'PartOfSpeech'
p4544
S'JJ'
p4545
sS'CharacterOffsetBegin'
p4546
S'1035'
p4547
stp4548
a(S'crisis'
p4549
(dp4550
S'NamedEntityTag'
p4551
g96
sS'CharacterOffsetEnd'
p4552
S'1050'
p4553
sS'Lemma'
p4554
S'crisis'
p4555
sS'PartOfSpeech'
p4556
S'NN'
p4557
sS'CharacterOffsetBegin'
p4558
S'1044'
p4559
stp4560
a(g1477
(dp4561
S'NamedEntityTag'
p4562
g96
sS'CharacterOffsetEnd'
p4563
S'1051'
p4564
sS'Lemma'
p4565
g1477
sS'PartOfSpeech'
p4566
g1477
sS'CharacterOffsetBegin'
p4567
S'1050'
p4568
stp4569
asa(dp4570
g7
S'(ROOT (S (NP (NP (DT The) (NN call)) (PP (IN for) (NP (NNP Yeltsin))) (S (VP (TO to) (VP (VB step) (PRT (RP down)))))) (VP (VBD was) (VP (VBN backed) (PP (IN by) (NP (JJ many) (NNS participants))) (PP (IN in) (NP (NP (DT a) (JJ nationwide) (NN labor) (NN action)) (NP-TMP (RBR earlier) (DT this) (NN month)) (SBAR (WHNP (WDT that)) (S (VP (VBD attracted) (PP (IN about) (NP (QP (CD 1) (CD million)) (NNS people)))))))))) (. .)))'
p4571
sg9
S'The call for Yeltsin to step down was backed by many participants in a nationwide labor action earlier this month that attracted about 1 million people.'
p4572
sg11
(lp4573
(S'root'
p4574
S'ROOT'
p4575
S'backed'
p4576
tp4577
a(S'det'
p4578
S'call'
p4579
S'The'
p4580
tp4581
a(S'nsubjpass'
p4582
S'backed'
p4583
S'call'
p4584
tp4585
a(S'prep_for'
p4586
S'call'
p4587
S'Yeltsin'
p4588
tp4589
a(S'aux'
p4590
S'step'
p4591
S'to'
p4592
tp4593
a(S'infmod'
p4594
S'call'
p4595
S'step'
p4596
tp4597
a(S'prt'
p4598
S'step'
p4599
S'down'
p4600
tp4601
a(S'auxpass'
p4602
S'backed'
p4603
S'was'
p4604
tp4605
a(S'amod'
p4606
S'participants'
p4607
S'many'
p4608
tp4609
a(S'agent'
p4610
S'backed'
p4611
S'participants'
p4612
tp4613
a(S'det'
p4614
S'action'
p4615
g583
tp4616
a(S'amod'
p4617
S'action'
p4618
S'nationwide'
p4619
tp4620
a(S'nn'
p4621
S'action'
p4622
S'labor'
p4623
tp4624
a(S'prep_in'
p4625
S'backed'
p4626
S'action'
p4627
tp4628
a(S'advmod'
p4629
S'month'
p4630
S'earlier'
p4631
tp4632
a(S'det'
p4633
S'month'
p4634
S'this'
p4635
tp4636
a(S'tmod'
p4637
S'action'
p4638
S'month'
p4639
tp4640
a(S'nsubj'
p4641
S'attracted'
p4642
S'that'
p4643
tp4644
a(S'rcmod'
p4645
S'action'
p4646
S'attracted'
p4647
tp4648
a(S'number'
p4649
S'million'
p4650
g91
tp4651
a(S'num'
p4652
S'people'
p4653
S'million'
p4654
tp4655
a(S'prep_about'
p4656
S'attracted'
p4657
S'people'
p4658
tp4659
asg49
(lp4660
(g4574
S'ROOT-0'
p4661
S'backed-9'
p4662
tp4663
a(g4578
S'call-2'
p4664
S'The-1'
p4665
tp4666
a(g4582
S'backed-9'
p4667
S'call-2'
p4668
tp4669
a(g4586
S'call-2'
p4670
S'Yeltsin-4'
p4671
tp4672
a(g4590
S'step-6'
p4673
S'to-5'
p4674
tp4675
a(g4594
S'call-2'
p4676
S'step-6'
p4677
tp4678
a(g4598
S'step-6'
p4679
S'down-7'
p4680
tp4681
a(g4602
S'backed-9'
p4682
S'was-8'
p4683
tp4684
a(g4606
S'participants-12'
p4685
S'many-11'
p4686
tp4687
a(g4610
S'backed-9'
p4688
S'participants-12'
p4689
tp4690
a(g4614
S'action-17'
p4691
S'a-14'
p4692
tp4693
a(g4617
S'action-17'
p4694
S'nationwide-15'
p4695
tp4696
a(g4621
S'action-17'
p4697
S'labor-16'
p4698
tp4699
a(g4625
S'backed-9'
p4700
S'action-17'
p4701
tp4702
a(g4629
S'month-20'
p4703
S'earlier-18'
p4704
tp4705
a(g4633
S'month-20'
p4706
S'this-19'
p4707
tp4708
a(g4637
S'action-17'
p4709
S'month-20'
p4710
tp4711
a(g4641
S'attracted-22'
p4712
S'that-21'
p4713
tp4714
a(g4645
S'action-17'
p4715
S'attracted-22'
p4716
tp4717
a(g4649
S'million-25'
p4718
S'1-24'
p4719
tp4720
a(g4652
S'people-26'
p4721
S'million-25'
p4722
tp4723
a(g4656
S'attracted-22'
p4724
S'people-26'
p4725
tp4726
asg78
(lp4727
(S'The'
p4728
(dp4729
S'NamedEntityTag'
p4730
g96
sS'CharacterOffsetEnd'
p4731
S'1055'
p4732
sS'Lemma'
p4733
S'the'
p4734
sS'PartOfSpeech'
p4735
S'DT'
p4736
sS'CharacterOffsetBegin'
p4737
S'1052'
p4738
stp4739
a(S'call'
p4740
(dp4741
S'NamedEntityTag'
p4742
g96
sS'CharacterOffsetEnd'
p4743
S'1060'
p4744
sS'Lemma'
p4745
S'call'
p4746
sS'PartOfSpeech'
p4747
S'NN'
p4748
sS'CharacterOffsetBegin'
p4749
S'1056'
p4750
stp4751
a(S'for'
p4752
(dp4753
S'NamedEntityTag'
p4754
g96
sS'CharacterOffsetEnd'
p4755
S'1064'
p4756
sS'Lemma'
p4757
S'for'
p4758
sS'PartOfSpeech'
p4759
S'IN'
p4760
sS'CharacterOffsetBegin'
p4761
S'1061'
p4762
stp4763
a(S'Yeltsin'
p4764
(dp4765
S'NamedEntityTag'
p4766
S'PERSON'
p4767
sS'CharacterOffsetEnd'
p4768
S'1072'
p4769
sS'Lemma'
p4770
S'Yeltsin'
p4771
sS'PartOfSpeech'
p4772
S'NNP'
p4773
sS'CharacterOffsetBegin'
p4774
S'1065'
p4775
stp4776
a(S'to'
p4777
(dp4778
S'NamedEntityTag'
p4779
g96
sS'CharacterOffsetEnd'
p4780
S'1075'
p4781
sS'Lemma'
p4782
S'to'
p4783
sS'PartOfSpeech'
p4784
S'TO'
p4785
sS'CharacterOffsetBegin'
p4786
S'1073'
p4787
stp4788
a(S'step'
p4789
(dp4790
S'NamedEntityTag'
p4791
g96
sS'CharacterOffsetEnd'
p4792
S'1080'
p4793
sS'Lemma'
p4794
S'step'
p4795
sS'PartOfSpeech'
p4796
S'VB'
p4797
sS'CharacterOffsetBegin'
p4798
S'1076'
p4799
stp4800
a(S'down'
p4801
(dp4802
S'NamedEntityTag'
p4803
g96
sS'CharacterOffsetEnd'
p4804
S'1085'
p4805
sS'Lemma'
p4806
S'down'
p4807
sS'PartOfSpeech'
p4808
S'RP'
p4809
sS'CharacterOffsetBegin'
p4810
S'1081'
p4811
stp4812
a(S'was'
p4813
(dp4814
S'NamedEntityTag'
p4815
g96
sS'CharacterOffsetEnd'
p4816
S'1089'
p4817
sS'Lemma'
p4818
S'be'
p4819
sS'PartOfSpeech'
p4820
S'VBD'
p4821
sS'CharacterOffsetBegin'
p4822
S'1086'
p4823
stp4824
a(S'backed'
p4825
(dp4826
S'NamedEntityTag'
p4827
g96
sS'CharacterOffsetEnd'
p4828
S'1096'
p4829
sS'Lemma'
p4830
S'back'
p4831
sS'PartOfSpeech'
p4832
S'VBN'
p4833
sS'CharacterOffsetBegin'
p4834
S'1090'
p4835
stp4836
a(S'by'
p4837
(dp4838
S'NamedEntityTag'
p4839
g96
sS'CharacterOffsetEnd'
p4840
S'1099'
p4841
sS'Lemma'
p4842
S'by'
p4843
sS'PartOfSpeech'
p4844
S'IN'
p4845
sS'CharacterOffsetBegin'
p4846
S'1097'
p4847
stp4848
a(S'many'
p4849
(dp4850
S'NamedEntityTag'
p4851
g96
sS'CharacterOffsetEnd'
p4852
S'1104'
p4853
sS'Lemma'
p4854
S'many'
p4855
sS'PartOfSpeech'
p4856
S'JJ'
p4857
sS'CharacterOffsetBegin'
p4858
S'1100'
p4859
stp4860
a(S'participants'
p4861
(dp4862
S'NamedEntityTag'
p4863
g96
sS'CharacterOffsetEnd'
p4864
S'1117'
p4865
sS'Lemma'
p4866
S'participant'
p4867
sS'PartOfSpeech'
p4868
S'NNS'
p4869
sS'CharacterOffsetBegin'
p4870
S'1105'
p4871
stp4872
a(S'in'
p4873
(dp4874
S'NamedEntityTag'
p4875
g96
sS'CharacterOffsetEnd'
p4876
S'1120'
p4877
sS'Lemma'
p4878
S'in'
p4879
sS'PartOfSpeech'
p4880
S'IN'
p4881
sS'CharacterOffsetBegin'
p4882
S'1118'
p4883
stp4884
a(g583
(dp4885
S'NamedEntityTag'
p4886
g96
sS'CharacterOffsetEnd'
p4887
S'1122'
p4888
sS'Lemma'
p4889
g583
sS'PartOfSpeech'
p4890
S'DT'
p4891
sS'CharacterOffsetBegin'
p4892
S'1121'
p4893
stp4894
a(S'nationwide'
p4895
(dp4896
S'NamedEntityTag'
p4897
g96
sS'CharacterOffsetEnd'
p4898
S'1133'
p4899
sS'Lemma'
p4900
S'nationwide'
p4901
sS'PartOfSpeech'
p4902
S'JJ'
p4903
sS'CharacterOffsetBegin'
p4904
S'1123'
p4905
stp4906
a(S'labor'
p4907
(dp4908
S'NamedEntityTag'
p4909
g96
sS'CharacterOffsetEnd'
p4910
S'1139'
p4911
sS'Lemma'
p4912
S'labor'
p4913
sS'PartOfSpeech'
p4914
S'NN'
p4915
sS'CharacterOffsetBegin'
p4916
S'1134'
p4917
stp4918
a(S'action'
p4919
(dp4920
S'NamedEntityTag'
p4921
g96
sS'CharacterOffsetEnd'
p4922
S'1146'
p4923
sS'Lemma'
p4924
S'action'
p4925
sS'PartOfSpeech'
p4926
S'NN'
p4927
sS'CharacterOffsetBegin'
p4928
S'1140'
p4929
stp4930
a(S'earlier'
p4931
(dp4932
S'NormalizedNamedEntityTag'
p4933
S'THIS'
p4934
sS'Timex'
p4935
S'<TIMEX3 alt_value="THIS P1M" anchorTimeID="t0" temporalFunction="true" tid="t8" type="DATE" valueFromFunction="tf1">earlier this month</TIMEX3>'
p4936
sS'Lemma'
p4937
S'earlier'
p4938
sS'CharacterOffsetEnd'
p4939
S'1154'
p4940
sS'PartOfSpeech'
p4941
S'RBR'
p4942
sS'CharacterOffsetBegin'
p4943
S'1147'
p4944
sS'NamedEntityTag'
p4945
S'DATE'
p4946
stp4947
a(S'this'
p4948
(dp4949
S'NormalizedNamedEntityTag'
p4950
S'THIS'
p4951
sS'Timex'
p4952
S'<TIMEX3 alt_value="THIS P1M" anchorTimeID="t0" temporalFunction="true" tid="t8" type="DATE" valueFromFunction="tf1">earlier this month</TIMEX3>'
p4953
sS'Lemma'
p4954
S'this'
p4955
sS'CharacterOffsetEnd'
p4956
S'1159'
p4957
sS'PartOfSpeech'
p4958
S'DT'
p4959
sS'CharacterOffsetBegin'
p4960
S'1155'
p4961
sS'NamedEntityTag'
p4962
S'DATE'
p4963
stp4964
a(S'month'
p4965
(dp4966
S'NormalizedNamedEntityTag'
p4967
S'THIS'
p4968
sS'Timex'
p4969
S'<TIMEX3 alt_value="THIS P1M" anchorTimeID="t0" temporalFunction="true" tid="t8" type="DATE" valueFromFunction="tf1">earlier this month</TIMEX3>'
p4970
sS'Lemma'
p4971
S'month'
p4972
sS'CharacterOffsetEnd'
p4973
S'1165'
p4974
sS'PartOfSpeech'
p4975
S'NN'
p4976
sS'CharacterOffsetBegin'
p4977
S'1160'
p4978
sS'NamedEntityTag'
p4979
S'DATE'
p4980
stp4981
a(S'that'
p4982
(dp4983
S'NamedEntityTag'
p4984
g96
sS'CharacterOffsetEnd'
p4985
S'1170'
p4986
sS'Lemma'
p4987
S'that'
p4988
sS'PartOfSpeech'
p4989
S'WDT'
p4990
sS'CharacterOffsetBegin'
p4991
S'1166'
p4992
stp4993
a(S'attracted'
p4994
(dp4995
S'NamedEntityTag'
p4996
g96
sS'CharacterOffsetEnd'
p4997
S'1180'
p4998
sS'Lemma'
p4999
S'attract'
p5000
sS'PartOfSpeech'
p5001
S'VBD'
p5002
sS'CharacterOffsetBegin'
p5003
S'1171'
p5004
stp5005
a(S'about'
p5006
(dp5007
S'NamedEntityTag'
p5008
g96
sS'CharacterOffsetEnd'
p5009
S'1186'
p5010
sS'Lemma'
p5011
S'about'
p5012
sS'PartOfSpeech'
p5013
S'IN'
p5014
sS'CharacterOffsetBegin'
p5015
S'1181'
p5016
stp5017
a(g91
(dp5018
S'NormalizedNamedEntityTag'
p5019
S'~1000000.0'
p5020
sS'Lemma'
p5021
g91
sS'CharacterOffsetEnd'
p5022
S'1188'
p5023
sS'PartOfSpeech'
p5024
S'CD'
p5025
sS'CharacterOffsetBegin'
p5026
S'1187'
p5027
sS'NamedEntityTag'
p5028
S'NUMBER'
p5029
stp5030
a(S'million'
p5031
(dp5032
S'NormalizedNamedEntityTag'
p5033
S'~1000000.0'
p5034
sS'Lemma'
p5035
S'million'
p5036
sS'CharacterOffsetEnd'
p5037
S'1196'
p5038
sS'PartOfSpeech'
p5039
S'CD'
p5040
sS'CharacterOffsetBegin'
p5041
S'1189'
p5042
sS'NamedEntityTag'
p5043
S'NUMBER'
p5044
stp5045
a(S'people'
p5046
(dp5047
S'NamedEntityTag'
p5048
g96
sS'CharacterOffsetEnd'
p5049
S'1203'
p5050
sS'Lemma'
p5051
S'people'
p5052
sS'PartOfSpeech'
p5053
S'NNS'
p5054
sS'CharacterOffsetBegin'
p5055
S'1197'
p5056
stp5057
a(g1477
(dp5058
S'NamedEntityTag'
p5059
g96
sS'CharacterOffsetEnd'
p5060
S'1204'
p5061
sS'Lemma'
p5062
g1477
sS'PartOfSpeech'
p5063
g1477
sS'CharacterOffsetBegin'
p5064
S'1203'
p5065
stp5066
asa(dp5067
g7
S'(ROOT (S (NP (NP (NNS Yeltsins)) (VP (VBG growing) (NP (NN health) (NNS problems)))) (VP (MD would) (ADVP (RB also)) (VP (VB seem) (S (VP (TO to) (VP (VB rule) (PRT (RP out)) (NP (DT another) (NN election) (NN campaign))))))) (. .)))'
p5068
sg9
S'Yeltsins growing health problems would also seem to rule out another election campaign.'
p5069
sg11
(lp5070
(S'root'
p5071
S'ROOT'
p5072
S'seem'
p5073
tp5074
a(S'nsubj'
p5075
S'seem'
p5076
S'Yeltsins'
p5077
tp5078
a(S'partmod'
p5079
S'Yeltsins'
p5080
S'growing'
p5081
tp5082
a(S'nn'
p5083
S'problems'
p5084
S'health'
p5085
tp5086
a(S'dobj'
p5087
S'growing'
p5088
S'problems'
p5089
tp5090
a(S'aux'
p5091
S'seem'
p5092
S'would'
p5093
tp5094
a(S'advmod'
p5095
S'seem'
p5096
S'also'
p5097
tp5098
a(S'aux'
p5099
S'rule'
p5100
S'to'
p5101
tp5102
a(S'xcomp'
p5103
S'seem'
p5104
S'rule'
p5105
tp5106
a(S'prt'
p5107
S'rule'
p5108
S'out'
p5109
tp5110
a(S'det'
p5111
S'campaign'
p5112
S'another'
p5113
tp5114
a(S'nn'
p5115
S'campaign'
p5116
S'election'
p5117
tp5118
a(S'dobj'
p5119
S'rule'
p5120
S'campaign'
p5121
tp5122
asg49
(lp5123
(g5071
S'ROOT-0'
p5124
S'seem-7'
p5125
tp5126
a(g5075
S'seem-7'
p5127
S'Yeltsins-1'
p5128
tp5129
a(g5079
S'Yeltsins-1'
p5130
S'growing-2'
p5131
tp5132
a(g5083
S'problems-4'
p5133
S'health-3'
p5134
tp5135
a(g5087
S'growing-2'
p5136
S'problems-4'
p5137
tp5138
a(g5091
S'seem-7'
p5139
S'would-5'
p5140
tp5141
a(g5095
S'seem-7'
p5142
S'also-6'
p5143
tp5144
a(g5099
S'rule-9'
p5145
S'to-8'
p5146
tp5147
a(g5103
S'seem-7'
p5148
S'rule-9'
p5149
tp5150
a(g5107
S'rule-9'
p5151
S'out-10'
p5152
tp5153
a(g5111
S'campaign-13'
p5154
S'another-11'
p5155
tp5156
a(g5115
S'campaign-13'
p5157
S'election-12'
p5158
tp5159
a(g5119
S'rule-9'
p5160
S'campaign-13'
p5161
tp5162
asg78
(lp5163
(S'Yeltsins'
p5164
(dp5165
S'NamedEntityTag'
p5166
S'ORGANIZATION'
p5167
sS'CharacterOffsetEnd'
p5168
S'1213'
p5169
sS'Lemma'
p5170
S'yeltsin'
p5171
sS'PartOfSpeech'
p5172
S'NNS'
p5173
sS'CharacterOffsetBegin'
p5174
S'1205'
p5175
stp5176
a(S'growing'
p5177
(dp5178
S'NamedEntityTag'
p5179
g96
sS'CharacterOffsetEnd'
p5180
S'1221'
p5181
sS'Lemma'
p5182
S'grow'
p5183
sS'PartOfSpeech'
p5184
S'VBG'
p5185
sS'CharacterOffsetBegin'
p5186
S'1214'
p5187
stp5188
a(S'health'
p5189
(dp5190
S'NamedEntityTag'
p5191
g96
sS'CharacterOffsetEnd'
p5192
S'1228'
p5193
sS'Lemma'
p5194
S'health'
p5195
sS'PartOfSpeech'
p5196
S'NN'
p5197
sS'CharacterOffsetBegin'
p5198
S'1222'
p5199
stp5200
a(S'problems'
p5201
(dp5202
S'NamedEntityTag'
p5203
g96
sS'CharacterOffsetEnd'
p5204
S'1237'
p5205
sS'Lemma'
p5206
S'problem'
p5207
sS'PartOfSpeech'
p5208
S'NNS'
p5209
sS'CharacterOffsetBegin'
p5210
S'1229'
p5211
stp5212
a(S'would'
p5213
(dp5214
S'NamedEntityTag'
p5215
g96
sS'CharacterOffsetEnd'
p5216
S'1243'
p5217
sS'Lemma'
p5218
S'would'
p5219
sS'PartOfSpeech'
p5220
S'MD'
p5221
sS'CharacterOffsetBegin'
p5222
S'1238'
p5223
stp5224
a(S'also'
p5225
(dp5226
S'NamedEntityTag'
p5227
g96
sS'CharacterOffsetEnd'
p5228
S'1248'
p5229
sS'Lemma'
p5230
S'also'
p5231
sS'PartOfSpeech'
p5232
S'RB'
p5233
sS'CharacterOffsetBegin'
p5234
S'1244'
p5235
stp5236
a(S'seem'
p5237
(dp5238
S'NamedEntityTag'
p5239
g96
sS'CharacterOffsetEnd'
p5240
S'1253'
p5241
sS'Lemma'
p5242
S'seem'
p5243
sS'PartOfSpeech'
p5244
S'VB'
p5245
sS'CharacterOffsetBegin'
p5246
S'1249'
p5247
stp5248
a(S'to'
p5249
(dp5250
S'NamedEntityTag'
p5251
g96
sS'CharacterOffsetEnd'
p5252
S'1256'
p5253
sS'Lemma'
p5254
S'to'
p5255
sS'PartOfSpeech'
p5256
S'TO'
p5257
sS'CharacterOffsetBegin'
p5258
S'1254'
p5259
stp5260
a(S'rule'
p5261
(dp5262
S'NamedEntityTag'
p5263
g96
sS'CharacterOffsetEnd'
p5264
S'1261'
p5265
sS'Lemma'
p5266
S'rule'
p5267
sS'PartOfSpeech'
p5268
S'VB'
p5269
sS'CharacterOffsetBegin'
p5270
S'1257'
p5271
stp5272
a(S'out'
p5273
(dp5274
S'NamedEntityTag'
p5275
g96
sS'CharacterOffsetEnd'
p5276
S'1265'
p5277
sS'Lemma'
p5278
S'out'
p5279
sS'PartOfSpeech'
p5280
S'RP'
p5281
sS'CharacterOffsetBegin'
p5282
S'1262'
p5283
stp5284
a(S'another'
p5285
(dp5286
S'NamedEntityTag'
p5287
g96
sS'CharacterOffsetEnd'
p5288
S'1273'
p5289
sS'Lemma'
p5290
S'another'
p5291
sS'PartOfSpeech'
p5292
S'DT'
p5293
sS'CharacterOffsetBegin'
p5294
S'1266'
p5295
stp5296
a(S'election'
p5297
(dp5298
S'NamedEntityTag'
p5299
g96
sS'CharacterOffsetEnd'
p5300
S'1282'
p5301
sS'Lemma'
p5302
S'election'
p5303
sS'PartOfSpeech'
p5304
S'NN'
p5305
sS'CharacterOffsetBegin'
p5306
S'1274'
p5307
stp5308
a(S'campaign'
p5309
(dp5310
S'NamedEntityTag'
p5311
g96
sS'CharacterOffsetEnd'
p5312
S'1291'
p5313
sS'Lemma'
p5314
S'campaign'
p5315
sS'PartOfSpeech'
p5316
S'NN'
p5317
sS'CharacterOffsetBegin'
p5318
S'1283'
p5319
stp5320
a(g1477
(dp5321
S'NamedEntityTag'
p5322
g96
sS'CharacterOffsetEnd'
p5323
S'1292'
p5324
sS'Lemma'
p5325
g1477
sS'PartOfSpeech'
p5326
g1477
sS'CharacterOffsetBegin'
p5327
S'1291'
p5328
stp5329
asa(dp5330
g7
S'(ROOT (S (NP (DT A) (JJ respiratory) (NN infection)) (VP (VBD forced) (S (NP (PRP him)) (VP (TO to) (VP (VB cut) (NP (JJ short) (DT a) (NN trip)) (PP (TO to) (NP (NNP Central) (NNP Asia))) (NP-TMP (RBR earlier) (DT this) (NN week)))))) (. .)))'
p5331
sg9
S'A respiratory infection forced him to cut short a trip to Central Asia earlier this week.'
p5332
sg11
(lp5333
(S'root'
p5334
S'ROOT'
p5335
S'forced'
p5336
tp5337
a(S'det'
p5338
S'infection'
p5339
S'A'
p5340
tp5341
a(S'amod'
p5342
S'infection'
p5343
S'respiratory'
p5344
tp5345
a(S'nsubj'
p5346
S'forced'
p5347
S'infection'
p5348
tp5349
a(S'nsubj'
p5350
S'cut'
p5351
S'him'
p5352
tp5353
a(S'aux'
p5354
S'cut'
p5355
S'to'
p5356
tp5357
a(S'xcomp'
p5358
S'forced'
p5359
S'cut'
p5360
tp5361
a(S'amod'
p5362
S'trip'
p5363
S'short'
p5364
tp5365
a(S'det'
p5366
S'trip'
p5367
g583
tp5368
a(S'dobj'
p5369
S'cut'
p5370
S'trip'
p5371
tp5372
a(S'nn'
p5373
S'Asia'
p5374
S'Central'
p5375
tp5376
a(S'prep_to'
p5377
S'cut'
p5378
S'Asia'
p5379
tp5380
a(S'advmod'
p5381
S'week'
p5382
S'earlier'
p5383
tp5384
a(S'det'
p5385
S'week'
p5386
S'this'
p5387
tp5388
a(S'tmod'
p5389
S'cut'
p5390
S'week'
p5391
tp5392
asg49
(lp5393
(g5334
S'ROOT-0'
p5394
S'forced-4'
p5395
tp5396
a(g5338
S'infection-3'
p5397
S'A-1'
p5398
tp5399
a(g5342
S'infection-3'
p5400
S'respiratory-2'
p5401
tp5402
a(g5346
S'forced-4'
p5403
S'infection-3'
p5404
tp5405
a(g5350
S'cut-7'
p5406
S'him-5'
p5407
tp5408
a(g5354
S'cut-7'
p5409
S'to-6'
p5410
tp5411
a(g5358
S'forced-4'
p5412
S'cut-7'
p5413
tp5414
a(g5362
S'trip-10'
p5415
S'short-8'
p5416
tp5417
a(g5366
S'trip-10'
p5418
S'a-9'
p5419
tp5420
a(g5369
S'cut-7'
p5421
S'trip-10'
p5422
tp5423
a(g5373
S'Asia-13'
p5424
S'Central-12'
p5425
tp5426
a(g5377
S'cut-7'
p5427
S'Asia-13'
p5428
tp5429
a(g5381
S'week-16'
p5430
S'earlier-14'
p5431
tp5432
a(g5385
S'week-16'
p5433
S'this-15'
p5434
tp5435
a(g5389
S'cut-7'
p5436
S'week-16'
p5437
tp5438
asg78
(lp5439
(g5340
(dp5440
S'NamedEntityTag'
p5441
g96
sS'CharacterOffsetEnd'
p5442
S'1294'
p5443
sS'Lemma'
p5444
g583
sS'PartOfSpeech'
p5445
S'DT'
p5446
sS'CharacterOffsetBegin'
p5447
S'1293'
p5448
stp5449
a(S'respiratory'
p5450
(dp5451
S'NamedEntityTag'
p5452
g96
sS'CharacterOffsetEnd'
p5453
S'1306'
p5454
sS'Lemma'
p5455
S'respiratory'
p5456
sS'PartOfSpeech'
p5457
S'JJ'
p5458
sS'CharacterOffsetBegin'
p5459
S'1295'
p5460
stp5461
a(S'infection'
p5462
(dp5463
S'NamedEntityTag'
p5464
g96
sS'CharacterOffsetEnd'
p5465
S'1316'
p5466
sS'Lemma'
p5467
S'infection'
p5468
sS'PartOfSpeech'
p5469
S'NN'
p5470
sS'CharacterOffsetBegin'
p5471
S'1307'
p5472
stp5473
a(S'forced'
p5474
(dp5475
S'NamedEntityTag'
p5476
g96
sS'CharacterOffsetEnd'
p5477
S'1323'
p5478
sS'Lemma'
p5479
S'force'
p5480
sS'PartOfSpeech'
p5481
S'VBD'
p5482
sS'CharacterOffsetBegin'
p5483
S'1317'
p5484
stp5485
a(S'him'
p5486
(dp5487
S'NamedEntityTag'
p5488
g96
sS'CharacterOffsetEnd'
p5489
S'1327'
p5490
sS'Lemma'
p5491
S'he'
p5492
sS'PartOfSpeech'
p5493
S'PRP'
p5494
sS'CharacterOffsetBegin'
p5495
S'1324'
p5496
stp5497
a(S'to'
p5498
(dp5499
S'NamedEntityTag'
p5500
g96
sS'CharacterOffsetEnd'
p5501
S'1330'
p5502
sS'Lemma'
p5503
S'to'
p5504
sS'PartOfSpeech'
p5505
S'TO'
p5506
sS'CharacterOffsetBegin'
p5507
S'1328'
p5508
stp5509
a(S'cut'
p5510
(dp5511
S'NamedEntityTag'
p5512
g96
sS'CharacterOffsetEnd'
p5513
S'1334'
p5514
sS'Lemma'
p5515
S'cut'
p5516
sS'PartOfSpeech'
p5517
S'VB'
p5518
sS'CharacterOffsetBegin'
p5519
S'1331'
p5520
stp5521
a(S'short'
p5522
(dp5523
S'NamedEntityTag'
p5524
g96
sS'CharacterOffsetEnd'
p5525
S'1340'
p5526
sS'Lemma'
p5527
S'short'
p5528
sS'PartOfSpeech'
p5529
S'JJ'
p5530
sS'CharacterOffsetBegin'
p5531
S'1335'
p5532
stp5533
a(g583
(dp5534
S'NamedEntityTag'
p5535
g96
sS'CharacterOffsetEnd'
p5536
S'1342'
p5537
sS'Lemma'
p5538
g583
sS'PartOfSpeech'
p5539
S'DT'
p5540
sS'CharacterOffsetBegin'
p5541
S'1341'
p5542
stp5543
a(S'trip'
p5544
(dp5545
S'NamedEntityTag'
p5546
g96
sS'CharacterOffsetEnd'
p5547
S'1347'
p5548
sS'Lemma'
p5549
S'trip'
p5550
sS'PartOfSpeech'
p5551
S'NN'
p5552
sS'CharacterOffsetBegin'
p5553
S'1343'
p5554
stp5555
a(S'to'
p5556
(dp5557
S'NamedEntityTag'
p5558
g96
sS'CharacterOffsetEnd'
p5559
S'1350'
p5560
sS'Lemma'
p5561
S'to'
p5562
sS'PartOfSpeech'
p5563
S'TO'
p5564
sS'CharacterOffsetBegin'
p5565
S'1348'
p5566
stp5567
a(S'Central'
p5568
(dp5569
S'NamedEntityTag'
p5570
S'LOCATION'
p5571
sS'CharacterOffsetEnd'
p5572
S'1358'
p5573
sS'Lemma'
p5574
S'Central'
p5575
sS'PartOfSpeech'
p5576
S'NNP'
p5577
sS'CharacterOffsetBegin'
p5578
S'1351'
p5579
stp5580
a(S'Asia'
p5581
(dp5582
S'NamedEntityTag'
p5583
S'LOCATION'
p5584
sS'CharacterOffsetEnd'
p5585
S'1363'
p5586
sS'Lemma'
p5587
S'Asia'
p5588
sS'PartOfSpeech'
p5589
S'NNP'
p5590
sS'CharacterOffsetBegin'
p5591
S'1359'
p5592
stp5593
a(S'earlier'
p5594
(dp5595
S'NormalizedNamedEntityTag'
p5596
S'THIS'
p5597
sS'Timex'
p5598
S'<TIMEX3 alt_value="THIS P1W" anchorTimeID="t0" temporalFunction="true" tid="t9" type="DATE" valueFromFunction="tf2">earlier this week</TIMEX3>'
p5599
sS'Lemma'
p5600
S'earlier'
p5601
sS'CharacterOffsetEnd'
p5602
S'1371'
p5603
sS'PartOfSpeech'
p5604
S'RBR'
p5605
sS'CharacterOffsetBegin'
p5606
S'1364'
p5607
sS'NamedEntityTag'
p5608
S'DATE'
p5609
stp5610
a(S'this'
p5611
(dp5612
S'NormalizedNamedEntityTag'
p5613
S'THIS'
p5614
sS'Timex'
p5615
S'<TIMEX3 alt_value="THIS P1W" anchorTimeID="t0" temporalFunction="true" tid="t9" type="DATE" valueFromFunction="tf2">earlier this week</TIMEX3>'
p5616
sS'Lemma'
p5617
S'this'
p5618
sS'CharacterOffsetEnd'
p5619
S'1376'
p5620
sS'PartOfSpeech'
p5621
S'DT'
p5622
sS'CharacterOffsetBegin'
p5623
S'1372'
p5624
sS'NamedEntityTag'
p5625
S'DATE'
p5626
stp5627
a(S'week'
p5628
(dp5629
S'NormalizedNamedEntityTag'
p5630
S'THIS'
p5631
sS'Timex'
p5632
S'<TIMEX3 alt_value="THIS P1W" anchorTimeID="t0" temporalFunction="true" tid="t9" type="DATE" valueFromFunction="tf2">earlier this week</TIMEX3>'
p5633
sS'Lemma'
p5634
S'week'
p5635
sS'CharacterOffsetEnd'
p5636
S'1381'
p5637
sS'PartOfSpeech'
p5638
S'NN'
p5639
sS'CharacterOffsetBegin'
p5640
S'1377'
p5641
sS'NamedEntityTag'
p5642
S'DATE'
p5643
stp5644
a(g1477
(dp5645
S'NamedEntityTag'
p5646
g96
sS'CharacterOffsetEnd'
p5647
S'1382'
p5648
sS'Lemma'
p5649
g1477
sS'PartOfSpeech'
p5650
g1477
sS'CharacterOffsetBegin'
p5651
S'1381'
p5652
stp5653
asa(dp5654
g7
S'(ROOT (S (S (PP (IN On) (NP (NNP Wednesday))) (, ,) (NP (NP (NP (NNS parliaments)) (NP (JJ upper) (NN chamber))) (, ,) (NP (DT the) (NNP Federation) (NNP Council)) (, ,)) (VP (VBD voted) (PP (IN on) (NP (NP (DT a) (NN resolution)) (VP (VBG calling) (PP (IN on) (NP (NNP Yeltsin))) (S (VP (TO to) (VP (VB resign))))))))) (, ,) (CC but) (S (NP (PRP it)) (VP (VBD failed) (ADVP (RB narrowly)))) (. .)))'
p5655
sg9
S'On Wednesday, parliaments upper chamber, the Federation Council, voted on a resolution calling on Yeltsin to resign, but it failed narrowly.'
p5656
sg11
(lp5657
(S'root'
p5658
S'ROOT'
p5659
S'voted'
p5660
tp5661
a(S'prep_on'
p5662
S'voted'
p5663
S'Wednesday'
p5664
tp5665
a(S'nsubj'
p5666
S'voted'
p5667
S'parliaments'
p5668
tp5669
a(S'amod'
p5670
S'chamber'
p5671
S'upper'
p5672
tp5673
a(S'dep'
p5674
S'parliaments'
p5675
S'chamber'
p5676
tp5677
a(S'det'
p5678
S'Council'
p5679
S'the'
p5680
tp5681
a(S'nn'
p5682
S'Council'
p5683
S'Federation'
p5684
tp5685
a(S'appos'
p5686
S'parliaments'
p5687
S'Council'
p5688
tp5689
a(S'det'
p5690
S'resolution'
p5691
g583
tp5692
a(S'prep_on'
p5693
S'voted'
p5694
S'resolution'
p5695
tp5696
a(S'partmod'
p5697
S'resolution'
p5698
S'calling'
p5699
tp5700
a(S'prep_on'
p5701
S'calling'
p5702
S'Yeltsin'
p5703
tp5704
a(S'aux'
p5705
S'resign'
p5706
S'to'
p5707
tp5708
a(S'xcomp'
p5709
S'calling'
p5710
S'resign'
p5711
tp5712
a(S'nsubj'
p5713
S'failed'
p5714
S'it'
p5715
tp5716
a(S'conj_but'
p5717
S'voted'
p5718
S'failed'
p5719
tp5720
a(S'advmod'
p5721
S'failed'
p5722
S'narrowly'
p5723
tp5724
asg49
(lp5725
(g5658
S'ROOT-0'
p5726
S'voted-12'
p5727
tp5728
a(g5662
S'voted-12'
p5729
S'Wednesday-2'
p5730
tp5731
a(g5666
S'voted-12'
p5732
S'parliaments-4'
p5733
tp5734
a(g5670
S'chamber-6'
p5735
S'upper-5'
p5736
tp5737
a(g5674
S'parliaments-4'
p5738
S'chamber-6'
p5739
tp5740
a(g5678
S'Council-10'
p5741
S'the-8'
p5742
tp5743
a(g5682
S'Council-10'
p5744
S'Federation-9'
p5745
tp5746
a(g5686
S'parliaments-4'
p5747
S'Council-10'
p5748
tp5749
a(g5690
S'resolution-15'
p5750
S'a-14'
p5751
tp5752
a(g5693
S'voted-12'
p5753
S'resolution-15'
p5754
tp5755
a(g5697
S'resolution-15'
p5756
S'calling-16'
p5757
tp5758
a(g5701
S'calling-16'
p5759
S'Yeltsin-18'
p5760
tp5761
a(g5705
S'resign-20'
p5762
S'to-19'
p5763
tp5764
a(g5709
S'calling-16'
p5765
S'resign-20'
p5766
tp5767
a(g5713
S'failed-24'
p5768
S'it-23'
p5769
tp5770
a(g5717
S'voted-12'
p5771
S'failed-24'
p5772
tp5773
a(g5721
S'failed-24'
p5774
S'narrowly-25'
p5775
tp5776
asg78
(lp5777
(S'On'
p5778
(dp5779
S'NamedEntityTag'
p5780
g96
sS'CharacterOffsetEnd'
p5781
S'1385'
p5782
sS'Lemma'
p5783
S'on'
p5784
sS'PartOfSpeech'
p5785
S'IN'
p5786
sS'CharacterOffsetBegin'
p5787
S'1383'
p5788
stp5789
a(S'Wednesday'
p5790
(dp5791
S'NormalizedNamedEntityTag'
p5792
S'XXXX-WXX-3'
p5793
sS'Timex'
p5794
S'<TIMEX3 tid="t10" type="DATE" value="XXXX-WXX-3">Wednesday</TIMEX3>'
p5795
sS'Lemma'
p5796
S'Wednesday'
p5797
sS'CharacterOffsetEnd'
p5798
S'1395'
p5799
sS'PartOfSpeech'
p5800
S'NNP'
p5801
sS'CharacterOffsetBegin'
p5802
S'1386'
p5803
sS'NamedEntityTag'
p5804
S'DATE'
p5805
stp5806
a(g879
(dp5807
S'NamedEntityTag'
p5808
g96
sS'CharacterOffsetEnd'
p5809
S'1396'
p5810
sS'Lemma'
p5811
g879
sS'PartOfSpeech'
p5812
g879
sS'CharacterOffsetBegin'
p5813
S'1395'
p5814
stp5815
a(S'parliaments'
p5816
(dp5817
S'NamedEntityTag'
p5818
g96
sS'CharacterOffsetEnd'
p5819
S'1408'
p5820
sS'Lemma'
p5821
S'parliament'
p5822
sS'PartOfSpeech'
p5823
S'NNS'
p5824
sS'CharacterOffsetBegin'
p5825
S'1397'
p5826
stp5827
a(S'upper'
p5828
(dp5829
S'NamedEntityTag'
p5830
g96
sS'CharacterOffsetEnd'
p5831
S'1414'
p5832
sS'Lemma'
p5833
S'upper'
p5834
sS'PartOfSpeech'
p5835
S'JJ'
p5836
sS'CharacterOffsetBegin'
p5837
S'1409'
p5838
stp5839
a(S'chamber'
p5840
(dp5841
S'NamedEntityTag'
p5842
g96
sS'CharacterOffsetEnd'
p5843
S'1422'
p5844
sS'Lemma'
p5845
S'chamber'
p5846
sS'PartOfSpeech'
p5847
S'NN'
p5848
sS'CharacterOffsetBegin'
p5849
S'1415'
p5850
stp5851
a(g879
(dp5852
S'NamedEntityTag'
p5853
g96
sS'CharacterOffsetEnd'
p5854
S'1423'
p5855
sS'Lemma'
p5856
g879
sS'PartOfSpeech'
p5857
g879
sS'CharacterOffsetBegin'
p5858
S'1422'
p5859
stp5860
a(S'the'
p5861
(dp5862
S'NamedEntityTag'
p5863
g96
sS'CharacterOffsetEnd'
p5864
S'1427'
p5865
sS'Lemma'
p5866
S'the'
p5867
sS'PartOfSpeech'
p5868
S'DT'
p5869
sS'CharacterOffsetBegin'
p5870
S'1424'
p5871
stp5872
a(S'Federation'
p5873
(dp5874
S'NamedEntityTag'
p5875
g96
sS'CharacterOffsetEnd'
p5876
S'1438'
p5877
sS'Lemma'
p5878
S'Federation'
p5879
sS'PartOfSpeech'
p5880
S'NNP'
p5881
sS'CharacterOffsetBegin'
p5882
S'1428'
p5883
stp5884
a(S'Council'
p5885
(dp5886
S'NamedEntityTag'
p5887
g96
sS'CharacterOffsetEnd'
p5888
S'1446'
p5889
sS'Lemma'
p5890
S'Council'
p5891
sS'PartOfSpeech'
p5892
S'NNP'
p5893
sS'CharacterOffsetBegin'
p5894
S'1439'
p5895
stp5896
a(g879
(dp5897
S'NamedEntityTag'
p5898
g96
sS'CharacterOffsetEnd'
p5899
S'1447'
p5900
sS'Lemma'
p5901
g879
sS'PartOfSpeech'
p5902
g879
sS'CharacterOffsetBegin'
p5903
S'1446'
p5904
stp5905
a(S'voted'
p5906
(dp5907
S'NamedEntityTag'
p5908
g96
sS'CharacterOffsetEnd'
p5909
S'1453'
p5910
sS'Lemma'
p5911
S'vote'
p5912
sS'PartOfSpeech'
p5913
S'VBD'
p5914
sS'CharacterOffsetBegin'
p5915
S'1448'
p5916
stp5917
a(S'on'
p5918
(dp5919
S'NamedEntityTag'
p5920
g96
sS'CharacterOffsetEnd'
p5921
S'1456'
p5922
sS'Lemma'
p5923
S'on'
p5924
sS'PartOfSpeech'
p5925
S'IN'
p5926
sS'CharacterOffsetBegin'
p5927
S'1454'
p5928
stp5929
a(g583
(dp5930
S'NamedEntityTag'
p5931
g96
sS'CharacterOffsetEnd'
p5932
S'1458'
p5933
sS'Lemma'
p5934
g583
sS'PartOfSpeech'
p5935
S'DT'
p5936
sS'CharacterOffsetBegin'
p5937
S'1457'
p5938
stp5939
a(S'resolution'
p5940
(dp5941
S'NamedEntityTag'
p5942
g96
sS'CharacterOffsetEnd'
p5943
S'1469'
p5944
sS'Lemma'
p5945
S'resolution'
p5946
sS'PartOfSpeech'
p5947
S'NN'
p5948
sS'CharacterOffsetBegin'
p5949
S'1459'
p5950
stp5951
a(S'calling'
p5952
(dp5953
S'NamedEntityTag'
p5954
g96
sS'CharacterOffsetEnd'
p5955
S'1477'
p5956
sS'Lemma'
p5957
S'call'
p5958
sS'PartOfSpeech'
p5959
S'VBG'
p5960
sS'CharacterOffsetBegin'
p5961
S'1470'
p5962
stp5963
a(S'on'
p5964
(dp5965
S'NamedEntityTag'
p5966
g96
sS'CharacterOffsetEnd'
p5967
S'1480'
p5968
sS'Lemma'
p5969
S'on'
p5970
sS'PartOfSpeech'
p5971
S'IN'
p5972
sS'CharacterOffsetBegin'
p5973
S'1478'
p5974
stp5975
a(S'Yeltsin'
p5976
(dp5977
S'NamedEntityTag'
p5978
S'PERSON'
p5979
sS'CharacterOffsetEnd'
p5980
S'1488'
p5981
sS'Lemma'
p5982
S'Yeltsin'
p5983
sS'PartOfSpeech'
p5984
S'NNP'
p5985
sS'CharacterOffsetBegin'
p5986
S'1481'
p5987
stp5988
a(S'to'
p5989
(dp5990
S'NamedEntityTag'
p5991
g96
sS'CharacterOffsetEnd'
p5992
S'1491'
p5993
sS'Lemma'
p5994
S'to'
p5995
sS'PartOfSpeech'
p5996
S'TO'
p5997
sS'CharacterOffsetBegin'
p5998
S'1489'
p5999
stp6000
a(S'resign'
p6001
(dp6002
S'NamedEntityTag'
p6003
g96
sS'CharacterOffsetEnd'
p6004
S'1498'
p6005
sS'Lemma'
p6006
S'resign'
p6007
sS'PartOfSpeech'
p6008
S'VB'
p6009
sS'CharacterOffsetBegin'
p6010
S'1492'
p6011
stp6012
a(g879
(dp6013
S'NamedEntityTag'
p6014
g96
sS'CharacterOffsetEnd'
p6015
S'1499'
p6016
sS'Lemma'
p6017
g879
sS'PartOfSpeech'
p6018
g879
sS'CharacterOffsetBegin'
p6019
S'1498'
p6020
stp6021
a(S'but'
p6022
(dp6023
S'NamedEntityTag'
p6024
g96
sS'CharacterOffsetEnd'
p6025
S'1503'
p6026
sS'Lemma'
p6027
S'but'
p6028
sS'PartOfSpeech'
p6029
S'CC'
p6030
sS'CharacterOffsetBegin'
p6031
S'1500'
p6032
stp6033
a(S'it'
p6034
(dp6035
S'NamedEntityTag'
p6036
g96
sS'CharacterOffsetEnd'
p6037
S'1506'
p6038
sS'Lemma'
p6039
S'it'
p6040
sS'PartOfSpeech'
p6041
S'PRP'
p6042
sS'CharacterOffsetBegin'
p6043
S'1504'
p6044
stp6045
a(S'failed'
p6046
(dp6047
S'NamedEntityTag'
p6048
g96
sS'CharacterOffsetEnd'
p6049
S'1513'
p6050
sS'Lemma'
p6051
S'fail'
p6052
sS'PartOfSpeech'
p6053
S'VBD'
p6054
sS'CharacterOffsetBegin'
p6055
S'1507'
p6056
stp6057
a(S'narrowly'
p6058
(dp6059
S'NamedEntityTag'
p6060
g96
sS'CharacterOffsetEnd'
p6061
S'1522'
p6062
sS'Lemma'
p6063
S'narrowly'
p6064
sS'PartOfSpeech'
p6065
S'RB'
p6066
sS'CharacterOffsetBegin'
p6067
S'1514'
p6068
stp6069
a(g1477
(dp6070
S'NamedEntityTag'
p6071
g96
sS'CharacterOffsetEnd'
p6072
S'1523'
p6073
sS'Lemma'
p6074
g1477
sS'PartOfSpeech'
p6075
g1477
sS'CharacterOffsetBegin'
p6076
S'1522'
p6077
stp6078
asa(dp6079
g7
S'(ROOT (S (S (SBAR (RB Even) (IN if) (S (VP (VBN had) (VP (VBN passed))))) (, ,) (NP (DT the) (NN move)) (VP (MD would) (VP (VB have) (VP (VBD had) (NP (DT no) (JJ legal) (NNS consequences)))))) (, ,) (CC but) (S (NP (PRP it)) (VP (VBD highlighted) (SBAR (S (NP (NP (VBG growing) (JJ anti-Yeltsin) (NNS sentiments)) (PP (IN in) (NP (DT the) (NN chamber)))) (VP (VBD made) (PRT (RP up)) (PP (IN of) (NP (NP (JJ powerful) (JJ regional) (NNS leaders)) (, ,) (SBAR (WHNP (JJS most) (WHPP (IN of) (WHNP (WP whom)))) (S (VP (VBP have) (VP (VBN been) (ADJP (JJ loyal) (PP (TO to) (NP (DT the) (NN president))))))))))))))) (. .)))'
p6080
sg9
S'Even if had passed, the move would have had no legal consequences, but it highlighted growing anti-Yeltsin sentiments in the chamber made up of powerful regional leaders, most of whom have been loyal to the president.'
p6081
sg11
(lp6082
(S'root'
p6083
S'ROOT'
p6084
S'had'
p6085
tp6086
a(S'advmod'
p6087
S'passed'
p6088
S'Even'
p6089
tp6090
a(S'mark'
p6091
S'passed'
p6092
S'if'
p6093
tp6094
a(S'aux'
p6095
S'passed'
p6096
S'had'
p6097
tp6098
a(S'advcl'
p6099
S'had'
p6100
S'passed'
p6101
tp6102
a(S'det'
p6103
S'move'
p6104
S'the'
p6105
tp6106
a(S'nsubj'
p6107
S'had'
p6108
S'move'
p6109
tp6110
a(S'aux'
p6111
S'had'
p6112
S'would'
p6113
tp6114
a(S'aux'
p6115
S'had'
p6116
S'have'
p6117
tp6118
a(S'det'
p6119
S'consequences'
p6120
S'no'
p6121
tp6122
a(S'amod'
p6123
S'consequences'
p6124
S'legal'
p6125
tp6126
a(S'dobj'
p6127
S'had'
p6128
S'consequences'
p6129
tp6130
a(S'nsubj'
p6131
S'highlighted'
p6132
S'it'
p6133
tp6134
a(S'conj_but'
p6135
S'had'
p6136
S'highlighted'
p6137
tp6138
a(S'amod'
p6139
S'sentiments'
p6140
S'growing'
p6141
tp6142
a(S'amod'
p6143
S'sentiments'
p6144
S'anti-Yeltsin'
p6145
tp6146
a(S'nsubj'
p6147
S'made'
p6148
S'sentiments'
p6149
tp6150
a(S'det'
p6151
S'chamber'
p6152
S'the'
p6153
tp6154
a(S'prep_in'
p6155
S'sentiments'
p6156
S'chamber'
p6157
tp6158
a(S'ccomp'
p6159
S'highlighted'
p6160
S'made'
p6161
tp6162
a(S'prt'
p6163
S'made'
p6164
S'up'
p6165
tp6166
a(S'amod'
p6167
S'leaders'
p6168
S'powerful'
p6169
tp6170
a(S'amod'
p6171
S'leaders'
p6172
S'regional'
p6173
tp6174
a(S'prep_of'
p6175
S'made'
p6176
S'leaders'
p6177
tp6178
a(S'nsubj'
p6179
S'loyal'
p6180
S'most'
p6181
tp6182
a(S'prep_of'
p6183
S'most'
p6184
S'whom'
p6185
tp6186
a(S'aux'
p6187
S'loyal'
p6188
S'have'
p6189
tp6190
a(S'cop'
p6191
S'loyal'
p6192
S'been'
p6193
tp6194
a(S'rcmod'
p6195
S'leaders'
p6196
S'loyal'
p6197
tp6198
a(S'det'
p6199
S'president'
p6200
S'the'
p6201
tp6202
a(S'prep_to'
p6203
S'loyal'
p6204
S'president'
p6205
tp6206
asg49
(lp6207
(g6083
S'ROOT-0'
p6208
S'had-10'
p6209
tp6210
a(g6087
S'passed-4'
p6211
S'Even-1'
p6212
tp6213
a(g6091
S'passed-4'
p6214
S'if-2'
p6215
tp6216
a(g6095
S'passed-4'
p6217
S'had-3'
p6218
tp6219
a(g6099
S'had-10'
p6220
S'passed-4'
p6221
tp6222
a(g6103
S'move-7'
p6223
S'the-6'
p6224
tp6225
a(g6107
S'had-10'
p6226
S'move-7'
p6227
tp6228
a(g6111
S'had-10'
p6229
S'would-8'
p6230
tp6231
a(g6115
S'had-10'
p6232
S'have-9'
p6233
tp6234
a(g6119
S'consequences-13'
p6235
S'no-11'
p6236
tp6237
a(g6123
S'consequences-13'
p6238
S'legal-12'
p6239
tp6240
a(g6127
S'had-10'
p6241
S'consequences-13'
p6242
tp6243
a(g6131
S'highlighted-17'
p6244
S'it-16'
p6245
tp6246
a(g6135
S'had-10'
p6247
S'highlighted-17'
p6248
tp6249
a(g6139
S'sentiments-20'
p6250
S'growing-18'
p6251
tp6252
a(g6143
S'sentiments-20'
p6253
S'anti-Yeltsin-19'
p6254
tp6255
a(g6147
S'made-24'
p6256
S'sentiments-20'
p6257
tp6258
a(g6151
S'chamber-23'
p6259
S'the-22'
p6260
tp6261
a(g6155
S'sentiments-20'
p6262
S'chamber-23'
p6263
tp6264
a(g6159
S'highlighted-17'
p6265
S'made-24'
p6266
tp6267
a(g6163
S'made-24'
p6268
S'up-25'
p6269
tp6270
a(g6167
S'leaders-29'
p6271
S'powerful-27'
p6272
tp6273
a(g6171
S'leaders-29'
p6274
S'regional-28'
p6275
tp6276
a(g6175
S'made-24'
p6277
S'leaders-29'
p6278
tp6279
a(g6179
S'loyal-36'
p6280
S'most-31'
p6281
tp6282
a(g6183
S'most-31'
p6283
S'whom-33'
p6284
tp6285
a(g6187
S'loyal-36'
p6286
S'have-34'
p6287
tp6288
a(g6191
S'loyal-36'
p6289
S'been-35'
p6290
tp6291
a(g6195
S'leaders-29'
p6292
S'loyal-36'
p6293
tp6294
a(g6199
S'president-39'
p6295
S'the-38'
p6296
tp6297
a(g6203
S'loyal-36'
p6298
S'president-39'
p6299
tp6300
asg78
(lp6301
(S'Even'
p6302
(dp6303
S'NamedEntityTag'
p6304
g96
sS'CharacterOffsetEnd'
p6305
S'1528'
p6306
sS'Lemma'
p6307
S'even'
p6308
sS'PartOfSpeech'
p6309
S'RB'
p6310
sS'CharacterOffsetBegin'
p6311
S'1524'
p6312
stp6313
a(S'if'
p6314
(dp6315
S'NamedEntityTag'
p6316
g96
sS'CharacterOffsetEnd'
p6317
S'1531'
p6318
sS'Lemma'
p6319
S'if'
p6320
sS'PartOfSpeech'
p6321
S'IN'
p6322
sS'CharacterOffsetBegin'
p6323
S'1529'
p6324
stp6325
a(S'had'
p6326
(dp6327
S'NamedEntityTag'
p6328
g96
sS'CharacterOffsetEnd'
p6329
S'1535'
p6330
sS'Lemma'
p6331
S'have'
p6332
sS'PartOfSpeech'
p6333
S'VBN'
p6334
sS'CharacterOffsetBegin'
p6335
S'1532'
p6336
stp6337
a(S'passed'
p6338
(dp6339
S'NamedEntityTag'
p6340
g96
sS'CharacterOffsetEnd'
p6341
S'1542'
p6342
sS'Lemma'
p6343
S'pass'
p6344
sS'PartOfSpeech'
p6345
S'VBN'
p6346
sS'CharacterOffsetBegin'
p6347
S'1536'
p6348
stp6349
a(g879
(dp6350
S'NamedEntityTag'
p6351
g96
sS'CharacterOffsetEnd'
p6352
S'1543'
p6353
sS'Lemma'
p6354
g879
sS'PartOfSpeech'
p6355
g879
sS'CharacterOffsetBegin'
p6356
S'1542'
p6357
stp6358
a(S'the'
p6359
(dp6360
S'NamedEntityTag'
p6361
g96
sS'CharacterOffsetEnd'
p6362
S'1547'
p6363
sS'Lemma'
p6364
S'the'
p6365
sS'PartOfSpeech'
p6366
S'DT'
p6367
sS'CharacterOffsetBegin'
p6368
S'1544'
p6369
stp6370
a(S'move'
p6371
(dp6372
S'NamedEntityTag'
p6373
g96
sS'CharacterOffsetEnd'
p6374
S'1552'
p6375
sS'Lemma'
p6376
S'move'
p6377
sS'PartOfSpeech'
p6378
S'NN'
p6379
sS'CharacterOffsetBegin'
p6380
S'1548'
p6381
stp6382
a(S'would'
p6383
(dp6384
S'NamedEntityTag'
p6385
g96
sS'CharacterOffsetEnd'
p6386
S'1558'
p6387
sS'Lemma'
p6388
S'would'
p6389
sS'PartOfSpeech'
p6390
S'MD'
p6391
sS'CharacterOffsetBegin'
p6392
S'1553'
p6393
stp6394
a(S'have'
p6395
(dp6396
S'NamedEntityTag'
p6397
g96
sS'CharacterOffsetEnd'
p6398
S'1563'
p6399
sS'Lemma'
p6400
S'have'
p6401
sS'PartOfSpeech'
p6402
S'VB'
p6403
sS'CharacterOffsetBegin'
p6404
S'1559'
p6405
stp6406
a(S'had'
p6407
(dp6408
S'NamedEntityTag'
p6409
g96
sS'CharacterOffsetEnd'
p6410
S'1567'
p6411
sS'Lemma'
p6412
S'have'
p6413
sS'PartOfSpeech'
p6414
S'VBD'
p6415
sS'CharacterOffsetBegin'
p6416
S'1564'
p6417
stp6418
a(S'no'
p6419
(dp6420
S'NamedEntityTag'
p6421
g96
sS'CharacterOffsetEnd'
p6422
S'1570'
p6423
sS'Lemma'
p6424
S'no'
p6425
sS'PartOfSpeech'
p6426
S'DT'
p6427
sS'CharacterOffsetBegin'
p6428
S'1568'
p6429
stp6430
a(S'legal'
p6431
(dp6432
S'NamedEntityTag'
p6433
g96
sS'CharacterOffsetEnd'
p6434
S'1576'
p6435
sS'Lemma'
p6436
S'legal'
p6437
sS'PartOfSpeech'
p6438
S'JJ'
p6439
sS'CharacterOffsetBegin'
p6440
S'1571'
p6441
stp6442
a(S'consequences'
p6443
(dp6444
S'NamedEntityTag'
p6445
g96
sS'CharacterOffsetEnd'
p6446
S'1589'
p6447
sS'Lemma'
p6448
S'consequence'
p6449
sS'PartOfSpeech'
p6450
S'NNS'
p6451
sS'CharacterOffsetBegin'
p6452
S'1577'
p6453
stp6454
a(g879
(dp6455
S'NamedEntityTag'
p6456
g96
sS'CharacterOffsetEnd'
p6457
S'1590'
p6458
sS'Lemma'
p6459
g879
sS'PartOfSpeech'
p6460
g879
sS'CharacterOffsetBegin'
p6461
S'1589'
p6462
stp6463
a(S'but'
p6464
(dp6465
S'NamedEntityTag'
p6466
g96
sS'CharacterOffsetEnd'
p6467
S'1594'
p6468
sS'Lemma'
p6469
S'but'
p6470
sS'PartOfSpeech'
p6471
S'CC'
p6472
sS'CharacterOffsetBegin'
p6473
S'1591'
p6474
stp6475
a(S'it'
p6476
(dp6477
S'NamedEntityTag'
p6478
g96
sS'CharacterOffsetEnd'
p6479
S'1597'
p6480
sS'Lemma'
p6481
S'it'
p6482
sS'PartOfSpeech'
p6483
S'PRP'
p6484
sS'CharacterOffsetBegin'
p6485
S'1595'
p6486
stp6487
a(S'highlighted'
p6488
(dp6489
S'NamedEntityTag'
p6490
g96
sS'CharacterOffsetEnd'
p6491
S'1609'
p6492
sS'Lemma'
p6493
S'highlight'
p6494
sS'PartOfSpeech'
p6495
S'VBD'
p6496
sS'CharacterOffsetBegin'
p6497
S'1598'
p6498
stp6499
a(S'growing'
p6500
(dp6501
S'NamedEntityTag'
p6502
g96
sS'CharacterOffsetEnd'
p6503
S'1617'
p6504
sS'Lemma'
p6505
S'grow'
p6506
sS'PartOfSpeech'
p6507
S'VBG'
p6508
sS'CharacterOffsetBegin'
p6509
S'1610'
p6510
stp6511
a(S'anti-Yeltsin'
p6512
(dp6513
S'NamedEntityTag'
p6514
S'MISC'
p6515
sS'CharacterOffsetEnd'
p6516
S'1630'
p6517
sS'Lemma'
p6518
S'anti-yeltsin'
p6519
sS'PartOfSpeech'
p6520
S'JJ'
p6521
sS'CharacterOffsetBegin'
p6522
S'1618'
p6523
stp6524
a(S'sentiments'
p6525
(dp6526
S'NamedEntityTag'
p6527
g96
sS'CharacterOffsetEnd'
p6528
S'1641'
p6529
sS'Lemma'
p6530
S'sentiment'
p6531
sS'PartOfSpeech'
p6532
S'NNS'
p6533
sS'CharacterOffsetBegin'
p6534
S'1631'
p6535
stp6536
a(S'in'
p6537
(dp6538
S'NamedEntityTag'
p6539
g96
sS'CharacterOffsetEnd'
p6540
S'1644'
p6541
sS'Lemma'
p6542
S'in'
p6543
sS'PartOfSpeech'
p6544
S'IN'
p6545
sS'CharacterOffsetBegin'
p6546
S'1642'
p6547
stp6548
a(S'the'
p6549
(dp6550
S'NamedEntityTag'
p6551
g96
sS'CharacterOffsetEnd'
p6552
S'1648'
p6553
sS'Lemma'
p6554
S'the'
p6555
sS'PartOfSpeech'
p6556
S'DT'
p6557
sS'CharacterOffsetBegin'
p6558
S'1645'
p6559
stp6560
a(S'chamber'
p6561
(dp6562
S'NamedEntityTag'
p6563
g96
sS'CharacterOffsetEnd'
p6564
S'1656'
p6565
sS'Lemma'
p6566
S'chamber'
p6567
sS'PartOfSpeech'
p6568
S'NN'
p6569
sS'CharacterOffsetBegin'
p6570
S'1649'
p6571
stp6572
a(S'made'
p6573
(dp6574
S'NamedEntityTag'
p6575
g96
sS'CharacterOffsetEnd'
p6576
S'1661'
p6577
sS'Lemma'
p6578
S'make'
p6579
sS'PartOfSpeech'
p6580
S'VBD'
p6581
sS'CharacterOffsetBegin'
p6582
S'1657'
p6583
stp6584
a(S'up'
p6585
(dp6586
S'NamedEntityTag'
p6587
g96
sS'CharacterOffsetEnd'
p6588
S'1664'
p6589
sS'Lemma'
p6590
S'up'
p6591
sS'PartOfSpeech'
p6592
S'RP'
p6593
sS'CharacterOffsetBegin'
p6594
S'1662'
p6595
stp6596
a(S'of'
p6597
(dp6598
S'NamedEntityTag'
p6599
g96
sS'CharacterOffsetEnd'
p6600
S'1667'
p6601
sS'Lemma'
p6602
S'of'
p6603
sS'PartOfSpeech'
p6604
S'IN'
p6605
sS'CharacterOffsetBegin'
p6606
S'1665'
p6607
stp6608
a(S'powerful'
p6609
(dp6610
S'NamedEntityTag'
p6611
g96
sS'CharacterOffsetEnd'
p6612
S'1676'
p6613
sS'Lemma'
p6614
S'powerful'
p6615
sS'PartOfSpeech'
p6616
S'JJ'
p6617
sS'CharacterOffsetBegin'
p6618
S'1668'
p6619
stp6620
a(S'regional'
p6621
(dp6622
S'NamedEntityTag'
p6623
g96
sS'CharacterOffsetEnd'
p6624
S'1685'
p6625
sS'Lemma'
p6626
S'regional'
p6627
sS'PartOfSpeech'
p6628
S'JJ'
p6629
sS'CharacterOffsetBegin'
p6630
S'1677'
p6631
stp6632
a(S'leaders'
p6633
(dp6634
S'NamedEntityTag'
p6635
g96
sS'CharacterOffsetEnd'
p6636
S'1693'
p6637
sS'Lemma'
p6638
S'leader'
p6639
sS'PartOfSpeech'
p6640
S'NNS'
p6641
sS'CharacterOffsetBegin'
p6642
S'1686'
p6643
stp6644
a(g879
(dp6645
S'NamedEntityTag'
p6646
g96
sS'CharacterOffsetEnd'
p6647
S'1694'
p6648
sS'Lemma'
p6649
g879
sS'PartOfSpeech'
p6650
g879
sS'CharacterOffsetBegin'
p6651
S'1693'
p6652
stp6653
a(S'most'
p6654
(dp6655
S'NamedEntityTag'
p6656
g96
sS'CharacterOffsetEnd'
p6657
S'1699'
p6658
sS'Lemma'
p6659
S'most'
p6660
sS'PartOfSpeech'
p6661
S'JJS'
p6662
sS'CharacterOffsetBegin'
p6663
S'1695'
p6664
stp6665
a(S'of'
p6666
(dp6667
S'NamedEntityTag'
p6668
g96
sS'CharacterOffsetEnd'
p6669
S'1702'
p6670
sS'Lemma'
p6671
S'of'
p6672
sS'PartOfSpeech'
p6673
S'IN'
p6674
sS'CharacterOffsetBegin'
p6675
S'1700'
p6676
stp6677
a(S'whom'
p6678
(dp6679
S'NamedEntityTag'
p6680
g96
sS'CharacterOffsetEnd'
p6681
S'1707'
p6682
sS'Lemma'
p6683
S'whom'
p6684
sS'PartOfSpeech'
p6685
S'WP'
p6686
sS'CharacterOffsetBegin'
p6687
S'1703'
p6688
stp6689
a(S'have'
p6690
(dp6691
S'NamedEntityTag'
p6692
g96
sS'CharacterOffsetEnd'
p6693
S'1712'
p6694
sS'Lemma'
p6695
S'have'
p6696
sS'PartOfSpeech'
p6697
S'VBP'
p6698
sS'CharacterOffsetBegin'
p6699
S'1708'
p6700
stp6701
a(S'been'
p6702
(dp6703
S'NamedEntityTag'
p6704
g96
sS'CharacterOffsetEnd'
p6705
S'1717'
p6706
sS'Lemma'
p6707
S'be'
p6708
sS'PartOfSpeech'
p6709
S'VBN'
p6710
sS'CharacterOffsetBegin'
p6711
S'1713'
p6712
stp6713
a(S'loyal'
p6714
(dp6715
S'NamedEntityTag'
p6716
g96
sS'CharacterOffsetEnd'
p6717
S'1723'
p6718
sS'Lemma'
p6719
S'loyal'
p6720
sS'PartOfSpeech'
p6721
S'JJ'
p6722
sS'CharacterOffsetBegin'
p6723
S'1718'
p6724
stp6725
a(S'to'
p6726
(dp6727
S'NamedEntityTag'
p6728
g96
sS'CharacterOffsetEnd'
p6729
S'1726'
p6730
sS'Lemma'
p6731
S'to'
p6732
sS'PartOfSpeech'
p6733
S'TO'
p6734
sS'CharacterOffsetBegin'
p6735
S'1724'
p6736
stp6737
a(S'the'
p6738
(dp6739
S'NamedEntityTag'
p6740
g96
sS'CharacterOffsetEnd'
p6741
S'1730'
p6742
sS'Lemma'
p6743
S'the'
p6744
sS'PartOfSpeech'
p6745
S'DT'
p6746
sS'CharacterOffsetBegin'
p6747
S'1727'
p6748
stp6749
a(S'president'
p6750
(dp6751
S'NamedEntityTag'
p6752
g96
sS'CharacterOffsetEnd'
p6753
S'1740'
p6754
sS'Lemma'
p6755
S'president'
p6756
sS'PartOfSpeech'
p6757
S'NN'
p6758
sS'CharacterOffsetBegin'
p6759
S'1731'
p6760
stp6761
a(g1477
(dp6762
S'NamedEntityTag'
p6763
g96
sS'CharacterOffsetEnd'
p6764
S'1741'
p6765
sS'Lemma'
p6766
g1477
sS'PartOfSpeech'
p6767
g1477
sS'CharacterOffsetBegin'
p6768
S'1740'
p6769
stp6770
asa(dp6771
g7
S'(ROOT (S (NP (NP (NNP Mikhail) (NNP Mityukov)) (, ,) (NP (NP (DT the) (JJ presidential) (NN representative)) (PP (IN on) (NP (DT the) (NNP Constitutional) (NNP Court)))) (, ,)) (VP (VBD said) (NP-TMP (NNP Thursday)) (SBAR (IN that) (S (NP (NNP Yeltsin)) (VP (MD would) (VP (VB ignore) (NP (NP (NNS calls)) (PP (IN for) (NP (DT an) (JJ early) (NN resignation))))))))) (. .)))'
p6772
sg9
S'Mikhail Mityukov, the presidential representative on the Constitutional Court, said Thursday that Yeltsin would ignore calls for an early resignation.'
p6773
sg11
(lp6774
(S'root'
p6775
S'ROOT'
p6776
S'said'
p6777
tp6778
a(S'nn'
p6779
S'Mityukov'
p6780
S'Mikhail'
p6781
tp6782
a(S'nsubj'
p6783
S'said'
p6784
S'Mityukov'
p6785
tp6786
a(S'det'
p6787
S'representative'
p6788
S'the'
p6789
tp6790
a(S'amod'
p6791
S'representative'
p6792
S'presidential'
p6793
tp6794
a(S'appos'
p6795
S'Mityukov'
p6796
S'representative'
p6797
tp6798
a(S'det'
p6799
S'Court'
p6800
S'the'
p6801
tp6802
a(S'nn'
p6803
S'Court'
p6804
S'Constitutional'
p6805
tp6806
a(S'prep_on'
p6807
S'representative'
p6808
S'Court'
p6809
tp6810
a(S'tmod'
p6811
S'said'
p6812
S'Thursday'
p6813
tp6814
a(S'mark'
p6815
S'ignore'
p6816
S'that'
p6817
tp6818
a(S'nsubj'
p6819
S'ignore'
p6820
S'Yeltsin'
p6821
tp6822
a(S'aux'
p6823
S'ignore'
p6824
S'would'
p6825
tp6826
a(S'ccomp'
p6827
S'said'
p6828
S'ignore'
p6829
tp6830
a(S'dobj'
p6831
S'ignore'
p6832
S'calls'
p6833
tp6834
a(S'det'
p6835
S'resignation'
p6836
S'an'
p6837
tp6838
a(S'amod'
p6839
S'resignation'
p6840
S'early'
p6841
tp6842
a(S'prep_for'
p6843
S'calls'
p6844
S'resignation'
p6845
tp6846
asg49
(lp6847
(g6775
S'ROOT-0'
p6848
S'said-12'
p6849
tp6850
a(g6779
S'Mityukov-2'
p6851
S'Mikhail-1'
p6852
tp6853
a(g6783
S'said-12'
p6854
S'Mityukov-2'
p6855
tp6856
a(g6787
S'representative-6'
p6857
S'the-4'
p6858
tp6859
a(g6791
S'representative-6'
p6860
S'presidential-5'
p6861
tp6862
a(g6795
S'Mityukov-2'
p6863
S'representative-6'
p6864
tp6865
a(g6799
S'Court-10'
p6866
S'the-8'
p6867
tp6868
a(g6803
S'Court-10'
p6869
S'Constitutional-9'
p6870
tp6871
a(g6807
S'representative-6'
p6872
S'Court-10'
p6873
tp6874
a(g6811
S'said-12'
p6875
S'Thursday-13'
p6876
tp6877
a(g6815
S'ignore-17'
p6878
S'that-14'
p6879
tp6880
a(g6819
S'ignore-17'
p6881
S'Yeltsin-15'
p6882
tp6883
a(g6823
S'ignore-17'
p6884
S'would-16'
p6885
tp6886
a(g6827
S'said-12'
p6887
S'ignore-17'
p6888
tp6889
a(g6831
S'ignore-17'
p6890
S'calls-18'
p6891
tp6892
a(g6835
S'resignation-22'
p6893
S'an-20'
p6894
tp6895
a(g6839
S'resignation-22'
p6896
S'early-21'
p6897
tp6898
a(g6843
S'calls-18'
p6899
S'resignation-22'
p6900
tp6901
asg78
(lp6902
(S'Mikhail'
p6903
(dp6904
S'NamedEntityTag'
p6905
S'PERSON'
p6906
sS'CharacterOffsetEnd'
p6907
S'1749'
p6908
sS'Lemma'
p6909
S'Mikhail'
p6910
sS'PartOfSpeech'
p6911
S'NNP'
p6912
sS'CharacterOffsetBegin'
p6913
S'1742'
p6914
stp6915
a(S'Mityukov'
p6916
(dp6917
S'NamedEntityTag'
p6918
S'PERSON'
p6919
sS'CharacterOffsetEnd'
p6920
S'1758'
p6921
sS'Lemma'
p6922
S'Mityukov'
p6923
sS'PartOfSpeech'
p6924
S'NNP'
p6925
sS'CharacterOffsetBegin'
p6926
S'1750'
p6927
stp6928
a(g879
(dp6929
S'NamedEntityTag'
p6930
g96
sS'CharacterOffsetEnd'
p6931
S'1759'
p6932
sS'Lemma'
p6933
g879
sS'PartOfSpeech'
p6934
g879
sS'CharacterOffsetBegin'
p6935
S'1758'
p6936
stp6937
a(S'the'
p6938
(dp6939
S'NamedEntityTag'
p6940
g96
sS'CharacterOffsetEnd'
p6941
S'1763'
p6942
sS'Lemma'
p6943
S'the'
p6944
sS'PartOfSpeech'
p6945
S'DT'
p6946
sS'CharacterOffsetBegin'
p6947
S'1760'
p6948
stp6949
a(S'presidential'
p6950
(dp6951
S'NamedEntityTag'
p6952
g96
sS'CharacterOffsetEnd'
p6953
S'1776'
p6954
sS'Lemma'
p6955
S'presidential'
p6956
sS'PartOfSpeech'
p6957
S'JJ'
p6958
sS'CharacterOffsetBegin'
p6959
S'1764'
p6960
stp6961
a(S'representative'
p6962
(dp6963
S'NamedEntityTag'
p6964
g96
sS'CharacterOffsetEnd'
p6965
S'1791'
p6966
sS'Lemma'
p6967
S'representative'
p6968
sS'PartOfSpeech'
p6969
S'NN'
p6970
sS'CharacterOffsetBegin'
p6971
S'1777'
p6972
stp6973
a(S'on'
p6974
(dp6975
S'NamedEntityTag'
p6976
g96
sS'CharacterOffsetEnd'
p6977
S'1794'
p6978
sS'Lemma'
p6979
S'on'
p6980
sS'PartOfSpeech'
p6981
S'IN'
p6982
sS'CharacterOffsetBegin'
p6983
S'1792'
p6984
stp6985
a(S'the'
p6986
(dp6987
S'NamedEntityTag'
p6988
g96
sS'CharacterOffsetEnd'
p6989
S'1798'
p6990
sS'Lemma'
p6991
S'the'
p6992
sS'PartOfSpeech'
p6993
S'DT'
p6994
sS'CharacterOffsetBegin'
p6995
S'1795'
p6996
stp6997
a(S'Constitutional'
p6998
(dp6999
S'NamedEntityTag'
p7000
S'ORGANIZATION'
p7001
sS'CharacterOffsetEnd'
p7002
S'1813'
p7003
sS'Lemma'
p7004
S'Constitutional'
p7005
sS'PartOfSpeech'
p7006
S'NNP'
p7007
sS'CharacterOffsetBegin'
p7008
S'1799'
p7009
stp7010
a(S'Court'
p7011
(dp7012
S'NamedEntityTag'
p7013
S'ORGANIZATION'
p7014
sS'CharacterOffsetEnd'
p7015
S'1819'
p7016
sS'Lemma'
p7017
S'Court'
p7018
sS'PartOfSpeech'
p7019
S'NNP'
p7020
sS'CharacterOffsetBegin'
p7021
S'1814'
p7022
stp7023
a(g879
(dp7024
S'NamedEntityTag'
p7025
g96
sS'CharacterOffsetEnd'
p7026
S'1820'
p7027
sS'Lemma'
p7028
g879
sS'PartOfSpeech'
p7029
g879
sS'CharacterOffsetBegin'
p7030
S'1819'
p7031
stp7032
a(S'said'
p7033
(dp7034
S'NamedEntityTag'
p7035
g96
sS'CharacterOffsetEnd'
p7036
S'1825'
p7037
sS'Lemma'
p7038
S'say'
p7039
sS'PartOfSpeech'
p7040
S'VBD'
p7041
sS'CharacterOffsetBegin'
p7042
S'1821'
p7043
stp7044
a(S'Thursday'
p7045
(dp7046
S'NormalizedNamedEntityTag'
p7047
S'XXXX-WXX-4'
p7048
sS'Timex'
p7049
S'<TIMEX3 tid="t1" type="DATE" value="XXXX-WXX-4">Thursday</TIMEX3>'
p7050
sS'Lemma'
p7051
S'Thursday'
p7052
sS'CharacterOffsetEnd'
p7053
S'1834'
p7054
sS'PartOfSpeech'
p7055
S'NNP'
p7056
sS'CharacterOffsetBegin'
p7057
S'1826'
p7058
sS'NamedEntityTag'
p7059
S'DATE'
p7060
stp7061
a(S'that'
p7062
(dp7063
S'NamedEntityTag'
p7064
g96
sS'CharacterOffsetEnd'
p7065
S'1839'
p7066
sS'Lemma'
p7067
S'that'
p7068
sS'PartOfSpeech'
p7069
S'IN'
p7070
sS'CharacterOffsetBegin'
p7071
S'1835'
p7072
stp7073
a(S'Yeltsin'
p7074
(dp7075
S'NamedEntityTag'
p7076
S'PERSON'
p7077
sS'CharacterOffsetEnd'
p7078
S'1847'
p7079
sS'Lemma'
p7080
S'Yeltsin'
p7081
sS'PartOfSpeech'
p7082
S'NNP'
p7083
sS'CharacterOffsetBegin'
p7084
S'1840'
p7085
stp7086
a(S'would'
p7087
(dp7088
S'NamedEntityTag'
p7089
g96
sS'CharacterOffsetEnd'
p7090
S'1853'
p7091
sS'Lemma'
p7092
S'would'
p7093
sS'PartOfSpeech'
p7094
S'MD'
p7095
sS'CharacterOffsetBegin'
p7096
S'1848'
p7097
stp7098
a(S'ignore'
p7099
(dp7100
S'NamedEntityTag'
p7101
g96
sS'CharacterOffsetEnd'
p7102
S'1860'
p7103
sS'Lemma'
p7104
S'ignore'
p7105
sS'PartOfSpeech'
p7106
S'VB'
p7107
sS'CharacterOffsetBegin'
p7108
S'1854'
p7109
stp7110
a(S'calls'
p7111
(dp7112
S'NamedEntityTag'
p7113
g96
sS'CharacterOffsetEnd'
p7114
S'1866'
p7115
sS'Lemma'
p7116
S'call'
p7117
sS'PartOfSpeech'
p7118
S'NNS'
p7119
sS'CharacterOffsetBegin'
p7120
S'1861'
p7121
stp7122
a(S'for'
p7123
(dp7124
S'NamedEntityTag'
p7125
g96
sS'CharacterOffsetEnd'
p7126
S'1870'
p7127
sS'Lemma'
p7128
S'for'
p7129
sS'PartOfSpeech'
p7130
S'IN'
p7131
sS'CharacterOffsetBegin'
p7132
S'1867'
p7133
stp7134
a(S'an'
p7135
(dp7136
S'NamedEntityTag'
p7137
g96
sS'CharacterOffsetEnd'
p7138
S'1873'
p7139
sS'Lemma'
p7140
g583
sS'PartOfSpeech'
p7141
S'DT'
p7142
sS'CharacterOffsetBegin'
p7143
S'1871'
p7144
stp7145
a(S'early'
p7146
(dp7147
S'NamedEntityTag'
p7148
g96
sS'CharacterOffsetEnd'
p7149
S'1879'
p7150
sS'Lemma'
p7151
S'early'
p7152
sS'PartOfSpeech'
p7153
S'JJ'
p7154
sS'CharacterOffsetBegin'
p7155
S'1874'
p7156
stp7157
a(S'resignation'
p7158
(dp7159
S'NamedEntityTag'
p7160
g96
sS'CharacterOffsetEnd'
p7161
S'1891'
p7162
sS'Lemma'
p7163
S'resignation'
p7164
sS'PartOfSpeech'
p7165
S'NN'
p7166
sS'CharacterOffsetBegin'
p7167
S'1880'
p7168
stp7169
a(g1477
(dp7170
S'NamedEntityTag'
p7171
g96
sS'CharacterOffsetEnd'
p7172
S'1892'
p7173
sS'Lemma'
p7174
g1477
sS'PartOfSpeech'
p7175
g1477
sS'CharacterOffsetBegin'
p7176
S'1891'
p7177
stp7178
asa(dp7179
g7
S'(ROOT (S (S (NP (DT The) (NN president)) (VP (VBZ is) (NP (DT a) (JJ strong) (NN person)))) (, ,) (CC and) (S (NP (PRP he)) (VP (VBZ has) (VP (VBN been) (PP (IN through) (NP (ADJP (RB far) (RBR more) (JJ difficult)) (JJ political) (NNS situations)))))) (, ,) (S (NP (NNP Mityukov)) (VP (VBD said))) (, ,) (PP (VBG according) (PP (TO to) (NP (DT the) (NNP Interfax) (NN news) (NN agency)))) (. .)))'
p7180
sg9
S'The president is a strong person, and he has been through far more difficult political situations, Mityukov said, according to the Interfax news agency.'
p7181
sg11
(lp7182
(S'root'
p7183
S'ROOT'
p7184
S'person'
p7185
tp7186
a(S'det'
p7187
S'president'
p7188
S'The'
p7189
tp7190
a(S'nsubj'
p7191
S'person'
p7192
S'president'
p7193
tp7194
a(S'cop'
p7195
S'person'
p7196
S'is'
p7197
tp7198
a(S'det'
p7199
S'person'
p7200
g583
tp7201
a(S'amod'
p7202
S'person'
p7203
S'strong'
p7204
tp7205
a(S'nsubj'
p7206
S'been'
p7207
S'he'
p7208
tp7209
a(S'aux'
p7210
S'been'
p7211
S'has'
p7212
tp7213
a(S'conj_and'
p7214
S'person'
p7215
S'been'
p7216
tp7217
a(S'advmod'
p7218
S'difficult'
p7219
S'far'
p7220
tp7221
a(S'advmod'
p7222
S'difficult'
p7223
S'more'
p7224
tp7225
a(S'amod'
p7226
S'situations'
p7227
S'difficult'
p7228
tp7229
a(S'amod'
p7230
S'situations'
p7231
S'political'
p7232
tp7233
a(S'prep_through'
p7234
S'been'
p7235
S'situations'
p7236
tp7237
a(S'nsubj'
p7238
S'said'
p7239
S'Mityukov'
p7240
tp7241
a(S'ccomp'
p7242
S'person'
p7243
S'said'
p7244
tp7245
a(S'conj_and'
p7246
S'person'
p7247
S'according'
p7248
tp7249
a(S'pcomp'
p7250
S'according'
p7251
S'to'
p7252
tp7253
a(S'det'
p7254
S'agency'
p7255
S'the'
p7256
tp7257
a(S'nn'
p7258
S'agency'
p7259
S'Interfax'
p7260
tp7261
a(S'nn'
p7262
S'agency'
p7263
S'news'
p7264
tp7265
a(S'pobj'
p7266
S'to'
p7267
S'agency'
p7268
tp7269
asg49
(lp7270
(g7183
S'ROOT-0'
p7271
S'person-6'
p7272
tp7273
a(g7187
S'president-2'
p7274
S'The-1'
p7275
tp7276
a(g7191
S'person-6'
p7277
S'president-2'
p7278
tp7279
a(g7195
S'person-6'
p7280
S'is-3'
p7281
tp7282
a(g7199
S'person-6'
p7283
S'a-4'
p7284
tp7285
a(g7202
S'person-6'
p7286
S'strong-5'
p7287
tp7288
a(g7206
S'been-11'
p7289
S'he-9'
p7290
tp7291
a(g7210
S'been-11'
p7292
S'has-10'
p7293
tp7294
a(g7214
S'person-6'
p7295
S'been-11'
p7296
tp7297
a(g7218
S'difficult-15'
p7298
S'far-13'
p7299
tp7300
a(g7222
S'difficult-15'
p7301
S'more-14'
p7302
tp7303
a(g7226
S'situations-17'
p7304
S'difficult-15'
p7305
tp7306
a(g7230
S'situations-17'
p7307
S'political-16'
p7308
tp7309
a(g7234
S'been-11'
p7310
S'situations-17'
p7311
tp7312
a(g7238
S'said-20'
p7313
S'Mityukov-19'
p7314
tp7315
a(g7242
S'person-6'
p7316
S'said-20'
p7317
tp7318
a(g7246
S'person-6'
p7319
S'according-22'
p7320
tp7321
a(g7250
S'according-22'
p7322
S'to-23'
p7323
tp7324
a(g7254
S'agency-27'
p7325
S'the-24'
p7326
tp7327
a(g7258
S'agency-27'
p7328
S'Interfax-25'
p7329
tp7330
a(g7262
S'agency-27'
p7331
S'news-26'
p7332
tp7333
a(g7266
S'to-23'
p7334
S'agency-27'
p7335
tp7336
asg78
(lp7337
(S'The'
p7338
(dp7339
S'NamedEntityTag'
p7340
g96
sS'CharacterOffsetEnd'
p7341
S'1896'
p7342
sS'Lemma'
p7343
S'the'
p7344
sS'PartOfSpeech'
p7345
S'DT'
p7346
sS'CharacterOffsetBegin'
p7347
S'1893'
p7348
stp7349
a(S'president'
p7350
(dp7351
S'NamedEntityTag'
p7352
g96
sS'CharacterOffsetEnd'
p7353
S'1906'
p7354
sS'Lemma'
p7355
S'president'
p7356
sS'PartOfSpeech'
p7357
S'NN'
p7358
sS'CharacterOffsetBegin'
p7359
S'1897'
p7360
stp7361
a(S'is'
p7362
(dp7363
S'NamedEntityTag'
p7364
g96
sS'CharacterOffsetEnd'
p7365
S'1909'
p7366
sS'Lemma'
p7367
S'be'
p7368
sS'PartOfSpeech'
p7369
S'VBZ'
p7370
sS'CharacterOffsetBegin'
p7371
S'1907'
p7372
stp7373
a(g583
(dp7374
S'NamedEntityTag'
p7375
g96
sS'CharacterOffsetEnd'
p7376
S'1911'
p7377
sS'Lemma'
p7378
g583
sS'PartOfSpeech'
p7379
S'DT'
p7380
sS'CharacterOffsetBegin'
p7381
S'1910'
p7382
stp7383
a(S'strong'
p7384
(dp7385
S'NamedEntityTag'
p7386
g96
sS'CharacterOffsetEnd'
p7387
S'1918'
p7388
sS'Lemma'
p7389
S'strong'
p7390
sS'PartOfSpeech'
p7391
S'JJ'
p7392
sS'CharacterOffsetBegin'
p7393
S'1912'
p7394
stp7395
a(S'person'
p7396
(dp7397
S'NamedEntityTag'
p7398
g96
sS'CharacterOffsetEnd'
p7399
S'1925'
p7400
sS'Lemma'
p7401
S'person'
p7402
sS'PartOfSpeech'
p7403
S'NN'
p7404
sS'CharacterOffsetBegin'
p7405
S'1919'
p7406
stp7407
a(g879
(dp7408
S'NamedEntityTag'
p7409
g96
sS'CharacterOffsetEnd'
p7410
S'1926'
p7411
sS'Lemma'
p7412
g879
sS'PartOfSpeech'
p7413
g879
sS'CharacterOffsetBegin'
p7414
S'1925'
p7415
stp7416
a(S'and'
p7417
(dp7418
S'NamedEntityTag'
p7419
g96
sS'CharacterOffsetEnd'
p7420
S'1930'
p7421
sS'Lemma'
p7422
S'and'
p7423
sS'PartOfSpeech'
p7424
S'CC'
p7425
sS'CharacterOffsetBegin'
p7426
S'1927'
p7427
stp7428
a(S'he'
p7429
(dp7430
S'NamedEntityTag'
p7431
g96
sS'CharacterOffsetEnd'
p7432
S'1933'
p7433
sS'Lemma'
p7434
S'he'
p7435
sS'PartOfSpeech'
p7436
S'PRP'
p7437
sS'CharacterOffsetBegin'
p7438
S'1931'
p7439
stp7440
a(S'has'
p7441
(dp7442
S'NamedEntityTag'
p7443
g96
sS'CharacterOffsetEnd'
p7444
S'1937'
p7445
sS'Lemma'
p7446
S'have'
p7447
sS'PartOfSpeech'
p7448
S'VBZ'
p7449
sS'CharacterOffsetBegin'
p7450
S'1934'
p7451
stp7452
a(S'been'
p7453
(dp7454
S'NamedEntityTag'
p7455
g96
sS'CharacterOffsetEnd'
p7456
S'1942'
p7457
sS'Lemma'
p7458
S'be'
p7459
sS'PartOfSpeech'
p7460
S'VBN'
p7461
sS'CharacterOffsetBegin'
p7462
S'1938'
p7463
stp7464
a(S'through'
p7465
(dp7466
S'NamedEntityTag'
p7467
g96
sS'CharacterOffsetEnd'
p7468
S'1950'
p7469
sS'Lemma'
p7470
S'through'
p7471
sS'PartOfSpeech'
p7472
S'IN'
p7473
sS'CharacterOffsetBegin'
p7474
S'1943'
p7475
stp7476
a(S'far'
p7477
(dp7478
S'NamedEntityTag'
p7479
g96
sS'CharacterOffsetEnd'
p7480
S'1954'
p7481
sS'Lemma'
p7482
S'far'
p7483
sS'PartOfSpeech'
p7484
S'RB'
p7485
sS'CharacterOffsetBegin'
p7486
S'1951'
p7487
stp7488
a(S'more'
p7489
(dp7490
S'NamedEntityTag'
p7491
g96
sS'CharacterOffsetEnd'
p7492
S'1959'
p7493
sS'Lemma'
p7494
S'more'
p7495
sS'PartOfSpeech'
p7496
S'RBR'
p7497
sS'CharacterOffsetBegin'
p7498
S'1955'
p7499
stp7500
a(S'difficult'
p7501
(dp7502
S'NamedEntityTag'
p7503
g96
sS'CharacterOffsetEnd'
p7504
S'1969'
p7505
sS'Lemma'
p7506
S'difficult'
p7507
sS'PartOfSpeech'
p7508
S'JJ'
p7509
sS'CharacterOffsetBegin'
p7510
S'1960'
p7511
stp7512
a(S'political'
p7513
(dp7514
S'NamedEntityTag'
p7515
g96
sS'CharacterOffsetEnd'
p7516
S'1979'
p7517
sS'Lemma'
p7518
S'political'
p7519
sS'PartOfSpeech'
p7520
S'JJ'
p7521
sS'CharacterOffsetBegin'
p7522
S'1970'
p7523
stp7524
a(S'situations'
p7525
(dp7526
S'NamedEntityTag'
p7527
g96
sS'CharacterOffsetEnd'
p7528
S'1990'
p7529
sS'Lemma'
p7530
S'situation'
p7531
sS'PartOfSpeech'
p7532
S'NNS'
p7533
sS'CharacterOffsetBegin'
p7534
S'1980'
p7535
stp7536
a(g879
(dp7537
S'NamedEntityTag'
p7538
g96
sS'CharacterOffsetEnd'
p7539
S'1991'
p7540
sS'Lemma'
p7541
g879
sS'PartOfSpeech'
p7542
g879
sS'CharacterOffsetBegin'
p7543
S'1990'
p7544
stp7545
a(S'Mityukov'
p7546
(dp7547
S'NamedEntityTag'
p7548
S'PERSON'
p7549
sS'CharacterOffsetEnd'
p7550
S'2000'
p7551
sS'Lemma'
p7552
S'Mityukov'
p7553
sS'PartOfSpeech'
p7554
S'NNP'
p7555
sS'CharacterOffsetBegin'
p7556
S'1992'
p7557
stp7558
a(S'said'
p7559
(dp7560
S'NamedEntityTag'
p7561
g96
sS'CharacterOffsetEnd'
p7562
S'2005'
p7563
sS'Lemma'
p7564
S'say'
p7565
sS'PartOfSpeech'
p7566
S'VBD'
p7567
sS'CharacterOffsetBegin'
p7568
S'2001'
p7569
stp7570
a(g879
(dp7571
S'NamedEntityTag'
p7572
g96
sS'CharacterOffsetEnd'
p7573
S'2006'
p7574
sS'Lemma'
p7575
g879
sS'PartOfSpeech'
p7576
g879
sS'CharacterOffsetBegin'
p7577
S'2005'
p7578
stp7579
a(S'according'
p7580
(dp7581
S'NamedEntityTag'
p7582
g96
sS'CharacterOffsetEnd'
p7583
S'2016'
p7584
sS'Lemma'
p7585
S'accord'
p7586
sS'PartOfSpeech'
p7587
S'VBG'
p7588
sS'CharacterOffsetBegin'
p7589
S'2007'
p7590
stp7591
a(S'to'
p7592
(dp7593
S'NamedEntityTag'
p7594
g96
sS'CharacterOffsetEnd'
p7595
S'2019'
p7596
sS'Lemma'
p7597
S'to'
p7598
sS'PartOfSpeech'
p7599
S'TO'
p7600
sS'CharacterOffsetBegin'
p7601
S'2017'
p7602
stp7603
a(S'the'
p7604
(dp7605
S'NamedEntityTag'
p7606
g96
sS'CharacterOffsetEnd'
p7607
S'2023'
p7608
sS'Lemma'
p7609
S'the'
p7610
sS'PartOfSpeech'
p7611
S'DT'
p7612
sS'CharacterOffsetBegin'
p7613
S'2020'
p7614
stp7615
a(S'Interfax'
p7616
(dp7617
S'NamedEntityTag'
p7618
S'ORGANIZATION'
p7619
sS'CharacterOffsetEnd'
p7620
S'2032'
p7621
sS'Lemma'
p7622
S'Interfax'
p7623
sS'PartOfSpeech'
p7624
S'NNP'
p7625
sS'CharacterOffsetBegin'
p7626
S'2024'
p7627
stp7628
a(S'news'
p7629
(dp7630
S'NamedEntityTag'
p7631
g96
sS'CharacterOffsetEnd'
p7632
S'2037'
p7633
sS'Lemma'
p7634
S'news'
p7635
sS'PartOfSpeech'
p7636
S'NN'
p7637
sS'CharacterOffsetBegin'
p7638
S'2033'
p7639
stp7640
a(S'agency'
p7641
(dp7642
S'NamedEntityTag'
p7643
g96
sS'CharacterOffsetEnd'
p7644
S'2044'
p7645
sS'Lemma'
p7646
S'agency'
p7647
sS'PartOfSpeech'
p7648
S'NN'
p7649
sS'CharacterOffsetBegin'
p7650
S'2038'
p7651
stp7652
a(g1477
(dp7653
S'NamedEntityTag'
p7654
g96
sS'CharacterOffsetEnd'
p7655
S'2045'
p7656
sS'Lemma'
p7657
g1477
sS'PartOfSpeech'
p7658
g1477
sS'CharacterOffsetBegin'
p7659
S'2044'
p7660
stp7661
asass.