(dp0
S'models'
p1
(lp2
(dp3
S'coref'
p4
(lp5
(lp6
((S'rebuilder of Lebanon'
p7
I0
I2
I2
I5
tp8
(S'Hariri'
p9
I0
I0
I0
I1
tp10
tp11
aasS'sentences'
p12
(lp13
(dp14
S'parsetree'
p15
S"(ROOT (S (NP (NP (NNP Hariri)) (, ,) (NP (NP (NN rebuilder)) (PP (IN of) (NP (NNP Lebanon)))) (, ,)) (VP (VBZ declines) (NP (NNP Lahoud) (NN invitation) (S (VP (TO to) (VP (VB form) (NP (NP (JJ new) (NN gov) ('' ')) (NP (NN t))))))))))"
p16
sS'text'
p17
S"Hariri, rebuilder of Lebanon, declines Lahoud invitation to form new gov't"
p18
sS'dependencies'
p19
(lp20
(S'root'
p21
S'ROOT'
p22
S'declines'
p23
tp24
a(S'nsubj'
p25
S'declines'
p26
S'Hariri'
p27
tp28
a(S'appos'
p29
S'Hariri'
p30
S'rebuilder'
p31
tp32
a(S'prep_of'
p33
S'rebuilder'
p34
S'Lebanon'
p35
tp36
a(S'nn'
p37
S'invitation'
p38
S'Lahoud'
p39
tp40
a(S'dobj'
p41
S'declines'
p42
S'invitation'
p43
tp44
a(S'aux'
p45
S'form'
p46
S'to'
p47
tp48
a(S'infmod'
p49
S'invitation'
p50
S'form'
p51
tp52
a(S'amod'
p53
S'gov'
p54
S'new'
p55
tp56
a(S'dobj'
p57
S'form'
p58
S'gov'
p59
tp60
a(S'dep'
p61
S'gov'
p62
S't'
p63
tp64
asS'indexeddependencies'
p65
(lp66
(g21
S'ROOT-0'
p67
S'declines-7'
p68
tp69
a(g25
S'declines-7'
p70
S'Hariri-1'
p71
tp72
a(g29
S'Hariri-1'
p73
S'rebuilder-3'
p74
tp75
a(g33
S'rebuilder-3'
p76
S'Lebanon-5'
p77
tp78
a(g37
S'invitation-9'
p79
S'Lahoud-8'
p80
tp81
a(g41
S'declines-7'
p82
S'invitation-9'
p83
tp84
a(g45
S'form-11'
p85
S'to-10'
p86
tp87
a(g49
S'invitation-9'
p88
S'form-11'
p89
tp90
a(g53
S'gov-13'
p91
S'new-12'
p92
tp93
a(g57
S'form-11'
p94
S'gov-13'
p95
tp96
a(g61
S'gov-13'
p97
S't-15'
p98
tp99
asS'words'
p100
(lp101
(S'Hariri'
p102
(dp103
S'NamedEntityTag'
p104
S'PERSON'
p105
sS'CharacterOffsetEnd'
p106
S'7'
p107
sS'Lemma'
p108
S'Hariri'
p109
sS'PartOfSpeech'
p110
S'NNP'
p111
sS'CharacterOffsetBegin'
p112
S'1'
p113
stp114
a(S','
p115
(dp116
S'NamedEntityTag'
p117
S'O'
p118
sS'CharacterOffsetEnd'
p119
S'8'
p120
sS'Lemma'
p121
g115
sS'PartOfSpeech'
p122
g115
sS'CharacterOffsetBegin'
p123
g107
stp124
a(S'rebuilder'
p125
(dp126
S'NamedEntityTag'
p127
g118
sS'CharacterOffsetEnd'
p128
S'18'
p129
sS'Lemma'
p130
S'rebuilder'
p131
sS'PartOfSpeech'
p132
S'NN'
p133
sS'CharacterOffsetBegin'
p134
S'9'
p135
stp136
a(S'of'
p137
(dp138
S'NamedEntityTag'
p139
g118
sS'CharacterOffsetEnd'
p140
S'21'
p141
sS'Lemma'
p142
S'of'
p143
sS'PartOfSpeech'
p144
S'IN'
p145
sS'CharacterOffsetBegin'
p146
S'19'
p147
stp148
a(S'Lebanon'
p149
(dp150
S'NamedEntityTag'
p151
S'LOCATION'
p152
sS'CharacterOffsetEnd'
p153
S'29'
p154
sS'Lemma'
p155
S'Lebanon'
p156
sS'PartOfSpeech'
p157
S'NNP'
p158
sS'CharacterOffsetBegin'
p159
S'22'
p160
stp161
a(g115
(dp162
S'NamedEntityTag'
p163
g118
sS'CharacterOffsetEnd'
p164
S'30'
p165
sS'Lemma'
p166
g115
sS'PartOfSpeech'
p167
g115
sS'CharacterOffsetBegin'
p168
S'29'
p169
stp170
a(S'declines'
p171
(dp172
S'NamedEntityTag'
p173
g118
sS'CharacterOffsetEnd'
p174
S'39'
p175
sS'Lemma'
p176
S'decline'
p177
sS'PartOfSpeech'
p178
S'VBZ'
p179
sS'CharacterOffsetBegin'
p180
S'31'
p181
stp182
a(S'Lahoud'
p183
(dp184
S'NamedEntityTag'
p185
S'PERSON'
p186
sS'CharacterOffsetEnd'
p187
S'46'
p188
sS'Lemma'
p189
S'Lahoud'
p190
sS'PartOfSpeech'
p191
S'NNP'
p192
sS'CharacterOffsetBegin'
p193
S'40'
p194
stp195
a(S'invitation'
p196
(dp197
S'NamedEntityTag'
p198
g118
sS'CharacterOffsetEnd'
p199
S'57'
p200
sS'Lemma'
p201
S'invitation'
p202
sS'PartOfSpeech'
p203
S'NN'
p204
sS'CharacterOffsetBegin'
p205
S'47'
p206
stp207
a(S'to'
p208
(dp209
S'NamedEntityTag'
p210
g118
sS'CharacterOffsetEnd'
p211
S'60'
p212
sS'Lemma'
p213
S'to'
p214
sS'PartOfSpeech'
p215
S'TO'
p216
sS'CharacterOffsetBegin'
p217
S'58'
p218
stp219
a(S'form'
p220
(dp221
S'NamedEntityTag'
p222
g118
sS'CharacterOffsetEnd'
p223
S'65'
p224
sS'Lemma'
p225
S'form'
p226
sS'PartOfSpeech'
p227
S'VB'
p228
sS'CharacterOffsetBegin'
p229
S'61'
p230
stp231
a(S'new'
p232
(dp233
S'NamedEntityTag'
p234
g118
sS'CharacterOffsetEnd'
p235
S'69'
p236
sS'Lemma'
p237
S'new'
p238
sS'PartOfSpeech'
p239
S'JJ'
p240
sS'CharacterOffsetBegin'
p241
S'66'
p242
stp243
a(S'gov'
p244
(dp245
S'NamedEntityTag'
p246
g118
sS'CharacterOffsetEnd'
p247
S'73'
p248
sS'Lemma'
p249
S'gov'
p250
sS'PartOfSpeech'
p251
S'NN'
p252
sS'CharacterOffsetBegin'
p253
S'70'
p254
stp255
a(S"'"
p256
(dp257
S'NamedEntityTag'
p258
g118
sS'CharacterOffsetEnd'
p259
S'74'
p260
sS'Lemma'
p261
g256
sS'PartOfSpeech'
p262
S"''"
p263
sS'CharacterOffsetBegin'
p264
S'73'
p265
stp266
a(g63
(dp267
S'NamedEntityTag'
p268
g118
sS'CharacterOffsetEnd'
p269
S'75'
p270
sS'Lemma'
p271
g63
sS'PartOfSpeech'
p272
S'NN'
p273
sS'CharacterOffsetBegin'
p274
S'74'
p275
stp276
asasa(dp277
g12
(lp278
(dp279
g15
S"(ROOT (FRAG (NP (NNP Lebanon)) (: :) (S (NP (NNP Prime) (NNP Minister)) (VP (MD wo) (RB n't) (VP (VB form) (NP (NP (JJ new) (NN govt)) (: ;) (NP (NP (NN prelude)) (PP (TO to) (NP (NN power) (NN struggle)))))))) (. ?)))"
p280
sg17
S"Lebanon: Prime Minister won't form new govt; prelude to power struggle?"
p281
sg19
(lp282
(S'root'
p283
S'ROOT'
p284
S'Lebanon'
p285
tp286
a(S'nn'
p287
S'Minister'
p288
S'Prime'
p289
tp290
a(S'nsubj'
p291
S'form'
p292
S'Minister'
p293
tp294
a(S'aux'
p295
S'form'
p296
S'wo'
p297
tp298
a(S'neg'
p299
S'form'
p300
S"n't"
p301
tp302
a(S'dep'
p303
S'Lebanon'
p304
S'form'
p305
tp306
a(S'amod'
p307
S'govt'
p308
S'new'
p309
tp310
a(S'dobj'
p311
S'form'
p312
S'govt'
p313
tp314
a(S'dep'
p315
S'govt'
p316
S'prelude'
p317
tp318
a(S'nn'
p319
S'struggle'
p320
S'power'
p321
tp322
a(S'prep_to'
p323
S'prelude'
p324
S'struggle'
p325
tp326
asg65
(lp327
(g283
S'ROOT-0'
p328
S'Lebanon-1'
p329
tp330
a(g287
S'Minister-4'
p331
S'Prime-3'
p332
tp333
a(g291
S'form-7'
p334
S'Minister-4'
p335
tp336
a(g295
S'form-7'
p337
S'wo-5'
p338
tp339
a(g299
S'form-7'
p340
S"n't-6"
p341
tp342
a(g303
S'Lebanon-1'
p343
S'form-7'
p344
tp345
a(g307
S'govt-9'
p346
S'new-8'
p347
tp348
a(g311
S'form-7'
p349
S'govt-9'
p350
tp351
a(g315
S'govt-9'
p352
S'prelude-11'
p353
tp354
a(g319
S'struggle-14'
p355
S'power-13'
p356
tp357
a(g323
S'prelude-11'
p358
S'struggle-14'
p359
tp360
asg100
(lp361
(S'Lebanon'
p362
(dp363
S'NamedEntityTag'
p364
S'LOCATION'
p365
sS'CharacterOffsetEnd'
p366
g120
sS'Lemma'
p367
S'Lebanon'
p368
sS'PartOfSpeech'
p369
S'NNP'
p370
sS'CharacterOffsetBegin'
p371
g113
stp372
a(S':'
p373
(dp374
S'NamedEntityTag'
p375
g118
sS'CharacterOffsetEnd'
p376
g135
sS'Lemma'
p377
g373
sS'PartOfSpeech'
p378
g373
sS'CharacterOffsetBegin'
p379
g120
stp380
a(S'Prime'
p381
(dp382
S'NamedEntityTag'
p383
g118
sS'CharacterOffsetEnd'
p384
S'15'
p385
sS'Lemma'
p386
S'Prime'
p387
sS'PartOfSpeech'
p388
S'NNP'
p389
sS'CharacterOffsetBegin'
p390
S'10'
p391
stp392
a(S'Minister'
p393
(dp394
S'NamedEntityTag'
p395
g118
sS'CharacterOffsetEnd'
p396
S'24'
p397
sS'Lemma'
p398
S'Minister'
p399
sS'PartOfSpeech'
p400
S'NNP'
p401
sS'CharacterOffsetBegin'
p402
S'16'
p403
stp404
a(S'wo'
p405
(dp406
S'NamedEntityTag'
p407
g118
sS'CharacterOffsetEnd'
p408
S'27'
p409
sS'Lemma'
p410
S'will'
p411
sS'PartOfSpeech'
p412
S'MD'
p413
sS'CharacterOffsetBegin'
p414
S'25'
p415
stp416
a(S"n't"
p417
(dp418
S'NamedEntityTag'
p419
g118
sS'CharacterOffsetEnd'
p420
S'30'
p421
sS'Lemma'
p422
S'not'
p423
sS'PartOfSpeech'
p424
S'RB'
p425
sS'CharacterOffsetBegin'
p426
S'27'
p427
stp428
a(S'form'
p429
(dp430
S'NamedEntityTag'
p431
g118
sS'CharacterOffsetEnd'
p432
S'35'
p433
sS'Lemma'
p434
S'form'
p435
sS'PartOfSpeech'
p436
S'VB'
p437
sS'CharacterOffsetBegin'
p438
S'31'
p439
stp440
a(S'new'
p441
(dp442
S'NamedEntityTag'
p443
g118
sS'CharacterOffsetEnd'
p444
S'39'
p445
sS'Lemma'
p446
S'new'
p447
sS'PartOfSpeech'
p448
S'JJ'
p449
sS'CharacterOffsetBegin'
p450
S'36'
p451
stp452
a(S'govt'
p453
(dp454
S'NamedEntityTag'
p455
g118
sS'CharacterOffsetEnd'
p456
S'44'
p457
sS'Lemma'
p458
S'govt'
p459
sS'PartOfSpeech'
p460
S'NN'
p461
sS'CharacterOffsetBegin'
p462
S'40'
p463
stp464
a(S';'
p465
(dp466
S'NamedEntityTag'
p467
g118
sS'CharacterOffsetEnd'
p468
S'45'
p469
sS'Lemma'
p470
g465
sS'PartOfSpeech'
p471
g373
sS'CharacterOffsetBegin'
p472
S'44'
p473
stp474
a(S'prelude'
p475
(dp476
S'NamedEntityTag'
p477
g118
sS'CharacterOffsetEnd'
p478
S'53'
p479
sS'Lemma'
p480
S'prelude'
p481
sS'PartOfSpeech'
p482
S'NN'
p483
sS'CharacterOffsetBegin'
p484
S'46'
p485
stp486
a(S'to'
p487
(dp488
S'NamedEntityTag'
p489
g118
sS'CharacterOffsetEnd'
p490
S'56'
p491
sS'Lemma'
p492
S'to'
p493
sS'PartOfSpeech'
p494
S'TO'
p495
sS'CharacterOffsetBegin'
p496
S'54'
p497
stp498
a(S'power'
p499
(dp500
S'NamedEntityTag'
p501
g118
sS'CharacterOffsetEnd'
p502
S'62'
p503
sS'Lemma'
p504
S'power'
p505
sS'PartOfSpeech'
p506
S'NN'
p507
sS'CharacterOffsetBegin'
p508
S'57'
p509
stp510
a(S'struggle'
p511
(dp512
S'NamedEntityTag'
p513
g118
sS'CharacterOffsetEnd'
p514
S'71'
p515
sS'Lemma'
p516
S'struggle'
p517
sS'PartOfSpeech'
p518
S'NN'
p519
sS'CharacterOffsetBegin'
p520
S'63'
p521
stp522
a(S'?'
p523
(dp524
S'NamedEntityTag'
p525
g118
sS'CharacterOffsetEnd'
p526
S'72'
p527
sS'Lemma'
p528
g523
sS'PartOfSpeech'
p529
S'.'
p530
sS'CharacterOffsetBegin'
p531
S'71'
p532
stp533
asasa(dp534
g12
(lp535
(dp536
g15
S'(ROOT (FRAG (NP (NP (JJ Political) (NN crisis)) (PP (IN in) (NP (NNP Lebanon)))) (SBAR (IN as) (S (NP (NNP PM) (NNP Hariri)) (VP (VBZ declines) (S (VP (TO to) (VP (VB form) (NP (JJ next) (NN government))))))))))'
p537
sg17
S'Political crisis in Lebanon as PM Hariri declines to form next government'
p538
sg19
(lp539
(S'root'
p540
S'ROOT'
p541
S'crisis'
p542
tp543
a(S'amod'
p544
S'crisis'
p545
S'Political'
p546
tp547
a(S'prep_in'
p548
S'crisis'
p549
S'Lebanon'
p550
tp551
a(S'mark'
p552
S'declines'
p553
S'as'
p554
tp555
a(S'nn'
p556
S'Hariri'
p557
S'PM'
p558
tp559
a(S'nsubj'
p560
S'declines'
p561
S'Hariri'
p562
tp563
a(S'dep'
p564
S'crisis'
p565
S'declines'
p566
tp567
a(S'aux'
p568
S'form'
p569
S'to'
p570
tp571
a(S'xcomp'
p572
S'declines'
p573
S'form'
p574
tp575
a(S'amod'
p576
S'government'
p577
S'next'
p578
tp579
a(S'dobj'
p580
S'form'
p581
S'government'
p582
tp583
asg65
(lp584
(g540
S'ROOT-0'
p585
S'crisis-2'
p586
tp587
a(g544
S'crisis-2'
p588
S'Political-1'
p589
tp590
a(g548
S'crisis-2'
p591
S'Lebanon-4'
p592
tp593
a(g552
S'declines-8'
p594
S'as-5'
p595
tp596
a(g556
S'Hariri-7'
p597
S'PM-6'
p598
tp599
a(g560
S'declines-8'
p600
S'Hariri-7'
p601
tp602
a(g564
S'crisis-2'
p603
S'declines-8'
p604
tp605
a(g568
S'form-10'
p606
S'to-9'
p607
tp608
a(g572
S'declines-8'
p609
S'form-10'
p610
tp611
a(g576
S'government-12'
p612
S'next-11'
p613
tp614
a(g580
S'form-10'
p615
S'government-12'
p616
tp617
asg100
(lp618
(S'Political'
p619
(dp620
S'NamedEntityTag'
p621
g118
sS'CharacterOffsetEnd'
p622
S'10'
p623
sS'Lemma'
p624
S'political'
p625
sS'PartOfSpeech'
p626
S'JJ'
p627
sS'CharacterOffsetBegin'
p628
g113
stp629
a(S'crisis'
p630
(dp631
S'NamedEntityTag'
p632
g118
sS'CharacterOffsetEnd'
p633
S'17'
p634
sS'Lemma'
p635
S'crisis'
p636
sS'PartOfSpeech'
p637
S'NN'
p638
sS'CharacterOffsetBegin'
p639
S'11'
p640
stp641
a(S'in'
p642
(dp643
S'NamedEntityTag'
p644
g118
sS'CharacterOffsetEnd'
p645
S'20'
p646
sS'Lemma'
p647
S'in'
p648
sS'PartOfSpeech'
p649
S'IN'
p650
sS'CharacterOffsetBegin'
p651
S'18'
p652
stp653
a(S'Lebanon'
p654
(dp655
S'NamedEntityTag'
p656
S'LOCATION'
p657
sS'CharacterOffsetEnd'
p658
S'28'
p659
sS'Lemma'
p660
S'Lebanon'
p661
sS'PartOfSpeech'
p662
S'NNP'
p663
sS'CharacterOffsetBegin'
p664
S'21'
p665
stp666
a(S'as'
p667
(dp668
S'NamedEntityTag'
p669
g118
sS'CharacterOffsetEnd'
p670
S'31'
p671
sS'Lemma'
p672
S'as'
p673
sS'PartOfSpeech'
p674
S'IN'
p675
sS'CharacterOffsetBegin'
p676
S'29'
p677
stp678
a(S'PM'
p679
(dp680
S'NamedEntityTag'
p681
g118
sS'CharacterOffsetEnd'
p682
S'34'
p683
sS'Lemma'
p684
S'PM'
p685
sS'PartOfSpeech'
p686
S'NNP'
p687
sS'CharacterOffsetBegin'
p688
S'32'
p689
stp690
a(S'Hariri'
p691
(dp692
S'NamedEntityTag'
p693
S'PERSON'
p694
sS'CharacterOffsetEnd'
p695
S'41'
p696
sS'Lemma'
p697
S'Hariri'
p698
sS'PartOfSpeech'
p699
S'NNP'
p700
sS'CharacterOffsetBegin'
p701
S'35'
p702
stp703
a(S'declines'
p704
(dp705
S'NamedEntityTag'
p706
g118
sS'CharacterOffsetEnd'
p707
S'50'
p708
sS'Lemma'
p709
S'decline'
p710
sS'PartOfSpeech'
p711
S'VBZ'
p712
sS'CharacterOffsetBegin'
p713
S'42'
p714
stp715
a(S'to'
p716
(dp717
S'NamedEntityTag'
p718
g118
sS'CharacterOffsetEnd'
p719
S'53'
p720
sS'Lemma'
p721
S'to'
p722
sS'PartOfSpeech'
p723
S'TO'
p724
sS'CharacterOffsetBegin'
p725
S'51'
p726
stp727
a(S'form'
p728
(dp729
S'NamedEntityTag'
p730
g118
sS'CharacterOffsetEnd'
p731
S'58'
p732
sS'Lemma'
p733
S'form'
p734
sS'PartOfSpeech'
p735
S'VB'
p736
sS'CharacterOffsetBegin'
p737
S'54'
p738
stp739
a(S'next'
p740
(dp741
S'NamedEntityTag'
p742
g118
sS'CharacterOffsetEnd'
p743
S'63'
p744
sS'Lemma'
p745
S'next'
p746
sS'PartOfSpeech'
p747
S'JJ'
p748
sS'CharacterOffsetBegin'
p749
S'59'
p750
stp751
a(S'government'
p752
(dp753
S'NamedEntityTag'
p754
g118
sS'CharacterOffsetEnd'
p755
S'74'
p756
sS'Lemma'
p757
S'government'
p758
sS'PartOfSpeech'
p759
S'NN'
p760
sS'CharacterOffsetBegin'
p761
S'64'
p762
stp763
asasa(dp764
g12
(lp765
(dp766
g15
S"(ROOT (S (NP (NP (NNP Lebanon) (POS 's)) (NNP Prime) (NNP Minister) (NNP Hariri) (NNS Declines)) (VP (VBP Invite) (PP (TO to) (NP (NNP Select) (NNP New) (NNP Cabinet))))))"
p767
sg17
S"Lebanon's Prime Minister Hariri Declines Invite to Select New Cabinet"
p768
sg19
(lp769
(S'root'
p770
S'ROOT'
p771
S'Invite'
p772
tp773
a(S'poss'
p774
S'Declines'
p775
S'Lebanon'
p776
tp777
a(S'nn'
p778
S'Declines'
p779
S'Prime'
p780
tp781
a(S'nn'
p782
S'Declines'
p783
S'Minister'
p784
tp785
a(S'nn'
p786
S'Declines'
p787
S'Hariri'
p788
tp789
a(S'nsubj'
p790
S'Invite'
p791
S'Declines'
p792
tp793
a(S'nn'
p794
S'Cabinet'
p795
S'Select'
p796
tp797
a(S'nn'
p798
S'Cabinet'
p799
S'New'
p800
tp801
a(S'prep_to'
p802
S'Invite'
p803
S'Cabinet'
p804
tp805
asg65
(lp806
(g770
S'ROOT-0'
p807
S'Invite-7'
p808
tp809
a(g774
S'Declines-6'
p810
S'Lebanon-1'
p811
tp812
a(g778
S'Declines-6'
p813
S'Prime-3'
p814
tp815
a(g782
S'Declines-6'
p816
S'Minister-4'
p817
tp818
a(g786
S'Declines-6'
p819
S'Hariri-5'
p820
tp821
a(g790
S'Invite-7'
p822
S'Declines-6'
p823
tp824
a(g794
S'Cabinet-11'
p825
S'Select-9'
p826
tp827
a(g798
S'Cabinet-11'
p828
S'New-10'
p829
tp830
a(g802
S'Invite-7'
p831
S'Cabinet-11'
p832
tp833
asg100
(lp834
(S'Lebanon'
p835
(dp836
S'NamedEntityTag'
p837
S'LOCATION'
p838
sS'CharacterOffsetEnd'
p839
g120
sS'Lemma'
p840
S'Lebanon'
p841
sS'PartOfSpeech'
p842
S'NNP'
p843
sS'CharacterOffsetBegin'
p844
g113
stp845
a(S"'s"
p846
(dp847
S'NamedEntityTag'
p848
g118
sS'CharacterOffsetEnd'
p849
S'10'
p850
sS'Lemma'
p851
S"'s"
p852
sS'PartOfSpeech'
p853
S'POS'
p854
sS'CharacterOffsetBegin'
p855
g120
stp856
a(S'Prime'
p857
(dp858
S'NamedEntityTag'
p859
g118
sS'CharacterOffsetEnd'
p860
S'16'
p861
sS'Lemma'
p862
S'Prime'
p863
sS'PartOfSpeech'
p864
S'NNP'
p865
sS'CharacterOffsetBegin'
p866
S'11'
p867
stp868
a(S'Minister'
p869
(dp870
S'NamedEntityTag'
p871
g118
sS'CharacterOffsetEnd'
p872
S'25'
p873
sS'Lemma'
p874
S'Minister'
p875
sS'PartOfSpeech'
p876
S'NNP'
p877
sS'CharacterOffsetBegin'
p878
S'17'
p879
stp880
a(S'Hariri'
p881
(dp882
S'NamedEntityTag'
p883
S'PERSON'
p884
sS'CharacterOffsetEnd'
p885
S'32'
p886
sS'Lemma'
p887
S'Hariri'
p888
sS'PartOfSpeech'
p889
S'NNP'
p890
sS'CharacterOffsetBegin'
p891
S'26'
p892
stp893
a(S'Declines'
p894
(dp895
S'NamedEntityTag'
p896
g118
sS'CharacterOffsetEnd'
p897
S'41'
p898
sS'Lemma'
p899
S'decline'
p900
sS'PartOfSpeech'
p901
S'NNS'
p902
sS'CharacterOffsetBegin'
p903
S'33'
p904
stp905
a(S'Invite'
p906
(dp907
S'NamedEntityTag'
p908
g118
sS'CharacterOffsetEnd'
p909
S'48'
p910
sS'Lemma'
p911
S'invite'
p912
sS'PartOfSpeech'
p913
S'VBP'
p914
sS'CharacterOffsetBegin'
p915
S'42'
p916
stp917
a(S'to'
p918
(dp919
S'NamedEntityTag'
p920
g118
sS'CharacterOffsetEnd'
p921
S'51'
p922
sS'Lemma'
p923
S'to'
p924
sS'PartOfSpeech'
p925
S'TO'
p926
sS'CharacterOffsetBegin'
p927
S'49'
p928
stp929
a(S'Select'
p930
(dp931
S'NamedEntityTag'
p932
g118
sS'CharacterOffsetEnd'
p933
S'58'
p934
sS'Lemma'
p935
S'Select'
p936
sS'PartOfSpeech'
p937
S'NNP'
p938
sS'CharacterOffsetBegin'
p939
S'52'
p940
stp941
a(S'New'
p942
(dp943
S'NamedEntityTag'
p944
g118
sS'CharacterOffsetEnd'
p945
S'62'
p946
sS'Lemma'
p947
S'New'
p948
sS'PartOfSpeech'
p949
S'NNP'
p950
sS'CharacterOffsetBegin'
p951
S'59'
p952
stp953
a(S'Cabinet'
p954
(dp955
S'NamedEntityTag'
p956
g118
sS'CharacterOffsetEnd'
p957
S'70'
p958
sS'Lemma'
p959
S'Cabinet'
p960
sS'PartOfSpeech'
p961
S'NNP'
p962
sS'CharacterOffsetBegin'
p963
S'63'
p964
stp965
asasasS'article'
p966
(dp967
g4
(lp968
(lp969
((S'Hariri'
p970
I1
I6
I26
I27
tp971
(S'Prime Minister Rafik Hariri'
p972
I0
I3
I0
I4
tp973
tp974
a((S'Hariri as prime minister'
p975
I2
I-1
I9
I13
tp976
(S'Prime Minister Rafik Hariri'
p977
I0
I3
I0
I4
tp978
tp979
a((S'Hariris'
p980
I3
I1
I1
I2
tp981
(S'Prime Minister Rafik Hariri'
p982
I0
I3
I0
I4
tp983
tp984
a((S'he'
p985
I3
I0
I10
I11
tp986
(S'Prime Minister Rafik Hariri'
p987
I0
I3
I0
I4
tp988
tp989
a((S'Hariri , 53 , the architect of Lebanons multibillion dollar postwar reconstruction program'
p990
I4
I0
I0
I13
tp991
(S'Prime Minister Rafik Hariri'
p992
I0
I3
I0
I4
tp993
tp994
a((S'Hariri'
p995
I4
I0
I0
I1
tp996
(S'Prime Minister Rafik Hariri'
p997
I0
I3
I0
I4
tp998
tp999
a((S'the architect of Lebanons multibillion dollar postwar reconstruction program'
p1000
I4
I5
I4
I13
tp1001
(S'Prime Minister Rafik Hariri'
p1002
I0
I3
I0
I4
tp1003
tp1004
a((S'his'
p1005
I5
I5
I5
I6
tp1006
(S'Prime Minister Rafik Hariri'
p1007
I0
I3
I0
I4
tp1008
tp1009
a((S'Hariri'
p1010
I5
I1
I11
I12
tp1011
(S'Prime Minister Rafik Hariri'
p1012
I0
I3
I0
I4
tp1013
tp1014
a((S'Hariri'
p1015
I10
I5
I5
I6
tp1016
(S'Prime Minister Rafik Hariri'
p1017
I0
I3
I0
I4
tp1018
tp1019
a((S'Hariri'
p1020
I11
I2
I12
I13
tp1021
(S'Prime Minister Rafik Hariri'
p1022
I0
I3
I0
I4
tp1023
tp1024
a((S'Hariri'
p1025
I13
I3
I13
I14
tp1026
(S'Prime Minister Rafik Hariri'
p1027
I0
I3
I0
I4
tp1028
tp1029
a((S'him'
p1030
I13
I8
I18
I19
tp1031
(S'Prime Minister Rafik Hariri'
p1032
I0
I3
I0
I4
tp1033
tp1034
a((S'Hariri'
p1035
I15
I4
I4
I5
tp1036
(S'Prime Minister Rafik Hariri'
p1037
I0
I3
I0
I4
tp1038
tp1039
a((S'he'
p1040
I15
I2
I22
I23
tp1041
(S'Prime Minister Rafik Hariri'
p1042
I0
I3
I0
I4
tp1043
tp1044
a((S'Hariri'
p1045
I16
I1
I1
I2
tp1046
(S'Prime Minister Rafik Hariri'
p1047
I0
I3
I0
I4
tp1048
tp1049
a((S'his'
p1050
I16
I8
I28
I29
tp1051
(S'Prime Minister Rafik Hariri'
p1052
I0
I3
I0
I4
tp1053
tp1054
a((S'Hariri'
p1055
I18
I3
I13
I14
tp1056
(S'Prime Minister Rafik Hariri'
p1057
I0
I3
I0
I4
tp1058
tp1059
aa(lp1060
((S'it'
p1061
I0
I7
I27
I28
tp1062
(S'an informal invitation'
p1063
I0
I8
I6
I9
tp1064
tp1065
a((S'its'
p1066
I0
I0
I30
I31
tp1067
(S'an informal invitation'
p1068
I0
I8
I6
I9
tp1069
tp1070
aa(lp1071
((S'the next government'
p1072
I11
I7
I15
I18
tp1073
(S'the next government'
p1074
I0
I7
I15
I18
tp1075
tp1076
aa(lp1077
((S'this country'
p1078
I9
I3
I22
I24
tp1079
(S'this country'
p1080
I0
I5
I24
I26
tp1081
tp1082
a((S'the country'
p1083
I18
I2
I21
I23
tp1084
(S'this country'
p1085
I0
I5
I24
I26
tp1086
tp1087
aa(lp1088
((S'Lahoud'
p1089
I1
I2
I32
I33
tp1090
(S'Emile Lahoud as president'
p1091
I1
I1
I20
I24
tp1092
tp1093
a((S'Lahoud'
p1094
I6
I0
I0
I1
tp1095
(S'Emile Lahoud as president'
p1096
I1
I1
I20
I24
tp1097
tp1098
a((S'Lahoud'
p1099
I10
I3
I3
I4
tp1100
(S'Emile Lahoud as president'
p1101
I1
I1
I20
I24
tp1102
tp1103
a((S'Lahoud'
p1104
I11
I0
I0
I1
tp1105
(S'Emile Lahoud as president'
p1106
I1
I1
I20
I24
tp1107
tp1108
a((S'Lahoud'
p1109
I15
I6
I26
I27
tp1110
(S'Emile Lahoud as president'
p1111
I1
I1
I20
I24
tp1112
tp1113
aa(lp1114
((S'Lebanons'
p1115
I4
I7
I7
I8
tp1116
(S'Lebanons'
p1117
I3
I8
I28
I29
tp1118
tp1119
a((S'Lebanons'
p1120
I6
I6
I6
I7
tp1121
(S'Lebanons'
p1122
I3
I8
I28
I29
tp1123
tp1124
aa(lp1125
((S'two'
p1126
I14
I1
I1
I2
tp1127
(S'two'
p1128
I3
I3
I23
I24
tp1129
tp1130
aa(lp1131
((S'Hariris move'
p1132
I3
I2
I1
I3
tp1133
(S'a bargaining tactic'
p1134
I3
I7
I5
I8
tp1135
tp1136
a((S'it'
p1137
I3
I2
I32
I33
tp1138
(S'a bargaining tactic'
p1139
I3
I7
I5
I8
tp1140
tp1141
aa(lp1142
((S'the civil war'
p1143
I7
I5
I13
I16
tp1144
(S'the 1975-90 civil war'
p1145
I3
I8
I35
I39
tp1146
tp1147
aa(lp1148
((S'the army'
p1149
I7
I8
I7
I9
tp1150
(S'Lebanons army'
p1151
I6
I7
I6
I8
tp1152
tp1153
a((S'it'
p1154
I7
I0
I10
I11
tp1155
(S'Lebanons army'
p1156
I6
I7
I6
I8
tp1157
tp1158
aa(lp1159
((S'his'
p1160
I7
I4
I4
I5
tp1161
(S'The British-trained general'
p1162
I7
I2
I0
I3
tp1163
tp1164
aa(lp1165
((S'its'
p1166
I8
I6
I16
I17
tp1167
(S'the Central Bank'
p1168
I8
I-1
I7
I10
tp1169
tp1170
aa(lp1171
((S'Lebanon'
p1172
I17
I7
I17
I18
tp1173
(S'Lebanon in the past'
p1174
I9
I4
I4
I8
tp1175
tp1176
aa(lp1177
((S'the past'
p1178
I13
I7
I6
I8
tp1179
(S'the past'
p1180
I9
I7
I6
I8
tp1181
tp1182
a((S'it'
p1183
I13
I4
I24
I25
tp1184
(S'the past'
p1185
I9
I7
I6
I8
tp1186
tp1187
aa(lp1188
((S'The decree'
p1189
I12
I1
I0
I2
tp1190
(S'a presidential decree'
p1191
I11
I8
I6
I9
tp1192
tp1193
aa(lp1194
((S'their choice for prime minister'
p1195
I16
I3
I12
I17
tp1196
(S'their choice for prime minister'
p1197
I12
I7
I16
I21
tp1198
tp1199
a((S'his choice'
p1200
I16
I-1
I28
I30
tp1201
(S'their choice for prime minister'
p1202
I12
I7
I16
I21
tp1203
tp1204
aa(lp1205
((S'Parliament'
p1206
I16
I-1
I9
I10
tp1207
(S'the 128-seat Parliament'
p1208
I12
I4
I12
I15
tp1209
tp1210
aa(lp1211
((S'members of the 128-seat Parliament'
p1212
I12
I0
I10
I15
tp1213
(S'Parliament members'
p1214
I16
I0
I9
I11
tp1215
tp1216
a((S'their'
p1217
I12
I6
I16
I17
tp1218
(S'Parliament members'
p1219
I16
I0
I9
I11
tp1220
tp1221
a((S'their'
p1222
I16
I2
I12
I13
tp1223
(S'Parliament members'
p1224
I16
I0
I9
I11
tp1225
tp1226
aa(lp1227
((S'the president'
p1228
I16
I6
I5
I7
tp1229
(S'the president to select a prime minister'
p1230
I13
I7
I26
I33
tp1231
tp1232
aa(lp1233
((S'their'
p1234
I13
I-1
I9
I10
tp1235
(S'many legislators'
p1236
I13
I2
I1
I3
tp1237
tp1238
aasg12
(lp1239
(dp1240
g15
S'(ROOT (S (NP (NNP Prime) (NNP Minister) (NNP Rafik) (NNP Hariri)) (VP (VBZ has) (VP (VBD declined) (NP (DT an) (JJ informal) (NN invitation)) (PP (IN from) (NP (NNPS Lebanons) (NX (JJ new) (NN president)))) (S (VP (TO to) (VP (VB form) (NP (DT the) (JJ next) (NN government)) (, ,) (S (VP (VBG sparking) (NP (DT a) (JJ political) (NN crisis)) (PP (IN in) (NP (DT this) (NN country)))))))) (SBAR (IN as) (S (NP (PRP it)) (VP (VBZ rebuilds) (PP (IN from) (NP (PRP$ its) (JJ devastating) (JJ civil) (NN war)))))))) (. .)))'
p1241
sg17
S'Prime Minister Rafik Hariri has declined an informal invitation from Lebanons new president to form the next government, sparking a political crisis in this country as it rebuilds from its devastating civil war.'
p1242
sg19
(lp1243
(S'root'
p1244
S'ROOT'
p1245
S'declined'
p1246
tp1247
a(S'nn'
p1248
S'Hariri'
p1249
S'Prime'
p1250
tp1251
a(S'nn'
p1252
S'Hariri'
p1253
S'Minister'
p1254
tp1255
a(S'nn'
p1256
S'Hariri'
p1257
S'Rafik'
p1258
tp1259
a(S'nsubj'
p1260
S'declined'
p1261
S'Hariri'
p1262
tp1263
a(S'aux'
p1264
S'declined'
p1265
S'has'
p1266
tp1267
a(S'det'
p1268
S'invitation'
p1269
S'an'
p1270
tp1271
a(S'amod'
p1272
S'invitation'
p1273
S'informal'
p1274
tp1275
a(S'dobj'
p1276
S'declined'
p1277
S'invitation'
p1278
tp1279
a(S'dep'
p1280
S'president'
p1281
S'Lebanons'
p1282
tp1283
a(S'amod'
p1284
S'president'
p1285
S'new'
p1286
tp1287
a(S'prep_from'
p1288
S'declined'
p1289
S'president'
p1290
tp1291
a(S'aux'
p1292
S'form'
p1293
S'to'
p1294
tp1295
a(S'xcomp'
p1296
S'declined'
p1297
S'form'
p1298
tp1299
a(S'det'
p1300
S'government'
p1301
S'the'
p1302
tp1303
a(S'amod'
p1304
S'government'
p1305
S'next'
p1306
tp1307
a(S'dobj'
p1308
S'form'
p1309
S'government'
p1310
tp1311
a(S'partmod'
p1312
S'form'
p1313
S'sparking'
p1314
tp1315
a(S'det'
p1316
S'crisis'
p1317
S'a'
p1318
tp1319
a(S'amod'
p1320
S'crisis'
p1321
S'political'
p1322
tp1323
a(S'dobj'
p1324
S'sparking'
p1325
S'crisis'
p1326
tp1327
a(S'det'
p1328
S'country'
p1329
S'this'
p1330
tp1331
a(S'prep_in'
p1332
S'sparking'
p1333
S'country'
p1334
tp1335
a(S'mark'
p1336
S'rebuilds'
p1337
S'as'
p1338
tp1339
a(S'nsubj'
p1340
S'rebuilds'
p1341
S'it'
p1342
tp1343
a(S'advcl'
p1344
S'declined'
p1345
S'rebuilds'
p1346
tp1347
a(S'poss'
p1348
S'war'
p1349
S'its'
p1350
tp1351
a(S'amod'
p1352
S'war'
p1353
S'devastating'
p1354
tp1355
a(S'amod'
p1356
S'war'
p1357
S'civil'
p1358
tp1359
a(S'prep_from'
p1360
S'rebuilds'
p1361
S'war'
p1362
tp1363
asg65
(lp1364
(g1244
S'ROOT-0'
p1365
S'declined-6'
p1366
tp1367
a(g1248
S'Hariri-4'
p1368
S'Prime-1'
p1369
tp1370
a(g1252
S'Hariri-4'
p1371
S'Minister-2'
p1372
tp1373
a(g1256
S'Hariri-4'
p1374
S'Rafik-3'
p1375
tp1376
a(g1260
S'declined-6'
p1377
S'Hariri-4'
p1378
tp1379
a(g1264
S'declined-6'
p1380
S'has-5'
p1381
tp1382
a(g1268
S'invitation-9'
p1383
S'an-7'
p1384
tp1385
a(g1272
S'invitation-9'
p1386
S'informal-8'
p1387
tp1388
a(g1276
S'declined-6'
p1389
S'invitation-9'
p1390
tp1391
a(g1280
S'president-13'
p1392
S'Lebanons-11'
p1393
tp1394
a(g1284
S'president-13'
p1395
S'new-12'
p1396
tp1397
a(g1288
S'declined-6'
p1398
S'president-13'
p1399
tp1400
a(g1292
S'form-15'
p1401
S'to-14'
p1402
tp1403
a(g1296
S'declined-6'
p1404
S'form-15'
p1405
tp1406
a(g1300
S'government-18'
p1407
S'the-16'
p1408
tp1409
a(g1304
S'government-18'
p1410
S'next-17'
p1411
tp1412
a(g1308
S'form-15'
p1413
S'government-18'
p1414
tp1415
a(g1312
S'form-15'
p1416
S'sparking-20'
p1417
tp1418
a(g1316
S'crisis-23'
p1419
S'a-21'
p1420
tp1421
a(g1320
S'crisis-23'
p1422
S'political-22'
p1423
tp1424
a(g1324
S'sparking-20'
p1425
S'crisis-23'
p1426
tp1427
a(g1328
S'country-26'
p1428
S'this-25'
p1429
tp1430
a(g1332
S'sparking-20'
p1431
S'country-26'
p1432
tp1433
a(g1336
S'rebuilds-29'
p1434
S'as-27'
p1435
tp1436
a(g1340
S'rebuilds-29'
p1437
S'it-28'
p1438
tp1439
a(g1344
S'declined-6'
p1440
S'rebuilds-29'
p1441
tp1442
a(g1348
S'war-34'
p1443
S'its-31'
p1444
tp1445
a(g1352
S'war-34'
p1446
S'devastating-32'
p1447
tp1448
a(g1356
S'war-34'
p1449
S'civil-33'
p1450
tp1451
a(g1360
S'rebuilds-29'
p1452
S'war-34'
p1453
tp1454
asg100
(lp1455
(S'Prime'
p1456
(dp1457
S'NamedEntityTag'
p1458
g118
sS'CharacterOffsetEnd'
p1459
S'5'
p1460
sS'Lemma'
p1461
S'Prime'
p1462
sS'PartOfSpeech'
p1463
S'NNP'
p1464
sS'CharacterOffsetBegin'
p1465
S'0'
p1466
stp1467
a(S'Minister'
p1468
(dp1469
S'NamedEntityTag'
p1470
g118
sS'CharacterOffsetEnd'
p1471
S'14'
p1472
sS'Lemma'
p1473
S'Minister'
p1474
sS'PartOfSpeech'
p1475
S'NNP'
p1476
sS'CharacterOffsetBegin'
p1477
S'6'
p1478
stp1479
a(S'Rafik'
p1480
(dp1481
S'NamedEntityTag'
p1482
S'PERSON'
p1483
sS'CharacterOffsetEnd'
p1484
S'20'
p1485
sS'Lemma'
p1486
S'Rafik'
p1487
sS'PartOfSpeech'
p1488
S'NNP'
p1489
sS'CharacterOffsetBegin'
p1490
S'15'
p1491
stp1492
a(S'Hariri'
p1493
(dp1494
S'NamedEntityTag'
p1495
S'PERSON'
p1496
sS'CharacterOffsetEnd'
p1497
S'27'
p1498
sS'Lemma'
p1499
S'Hariri'
p1500
sS'PartOfSpeech'
p1501
S'NNP'
p1502
sS'CharacterOffsetBegin'
p1503
S'21'
p1504
stp1505
a(S'has'
p1506
(dp1507
S'NamedEntityTag'
p1508
g118
sS'CharacterOffsetEnd'
p1509
S'31'
p1510
sS'Lemma'
p1511
S'have'
p1512
sS'PartOfSpeech'
p1513
S'VBZ'
p1514
sS'CharacterOffsetBegin'
p1515
S'28'
p1516
stp1517
a(S'declined'
p1518
(dp1519
S'NamedEntityTag'
p1520
g118
sS'CharacterOffsetEnd'
p1521
S'40'
p1522
sS'Lemma'
p1523
S'decline'
p1524
sS'PartOfSpeech'
p1525
S'VBD'
p1526
sS'CharacterOffsetBegin'
p1527
S'32'
p1528
stp1529
a(S'an'
p1530
(dp1531
S'NamedEntityTag'
p1532
g118
sS'CharacterOffsetEnd'
p1533
S'43'
p1534
sS'Lemma'
p1535
g1318
sS'PartOfSpeech'
p1536
S'DT'
p1537
sS'CharacterOffsetBegin'
p1538
S'41'
p1539
stp1540
a(S'informal'
p1541
(dp1542
S'NamedEntityTag'
p1543
g118
sS'CharacterOffsetEnd'
p1544
S'52'
p1545
sS'Lemma'
p1546
S'informal'
p1547
sS'PartOfSpeech'
p1548
S'JJ'
p1549
sS'CharacterOffsetBegin'
p1550
S'44'
p1551
stp1552
a(S'invitation'
p1553
(dp1554
S'NamedEntityTag'
p1555
g118
sS'CharacterOffsetEnd'
p1556
S'63'
p1557
sS'Lemma'
p1558
S'invitation'
p1559
sS'PartOfSpeech'
p1560
S'NN'
p1561
sS'CharacterOffsetBegin'
p1562
S'53'
p1563
stp1564
a(S'from'
p1565
(dp1566
S'NamedEntityTag'
p1567
g118
sS'CharacterOffsetEnd'
p1568
S'68'
p1569
sS'Lemma'
p1570
S'from'
p1571
sS'PartOfSpeech'
p1572
S'IN'
p1573
sS'CharacterOffsetBegin'
p1574
S'64'
p1575
stp1576
a(S'Lebanons'
p1577
(dp1578
S'NamedEntityTag'
p1579
g118
sS'CharacterOffsetEnd'
p1580
S'77'
p1581
sS'Lemma'
p1582
S'Lebanons'
p1583
sS'PartOfSpeech'
p1584
S'NNPS'
p1585
sS'CharacterOffsetBegin'
p1586
S'69'
p1587
stp1588
a(S'new'
p1589
(dp1590
S'NamedEntityTag'
p1591
g118
sS'CharacterOffsetEnd'
p1592
S'81'
p1593
sS'Lemma'
p1594
S'new'
p1595
sS'PartOfSpeech'
p1596
S'JJ'
p1597
sS'CharacterOffsetBegin'
p1598
S'78'
p1599
stp1600
a(S'president'
p1601
(dp1602
S'NamedEntityTag'
p1603
g118
sS'CharacterOffsetEnd'
p1604
S'91'
p1605
sS'Lemma'
p1606
S'president'
p1607
sS'PartOfSpeech'
p1608
S'NN'
p1609
sS'CharacterOffsetBegin'
p1610
S'82'
p1611
stp1612
a(S'to'
p1613
(dp1614
S'NamedEntityTag'
p1615
g118
sS'CharacterOffsetEnd'
p1616
S'94'
p1617
sS'Lemma'
p1618
S'to'
p1619
sS'PartOfSpeech'
p1620
S'TO'
p1621
sS'CharacterOffsetBegin'
p1622
S'92'
p1623
stp1624
a(S'form'
p1625
(dp1626
S'NamedEntityTag'
p1627
g118
sS'CharacterOffsetEnd'
p1628
S'99'
p1629
sS'Lemma'
p1630
S'form'
p1631
sS'PartOfSpeech'
p1632
S'VB'
p1633
sS'CharacterOffsetBegin'
p1634
S'95'
p1635
stp1636
a(S'the'
p1637
(dp1638
S'NamedEntityTag'
p1639
g118
sS'CharacterOffsetEnd'
p1640
S'103'
p1641
sS'Lemma'
p1642
S'the'
p1643
sS'PartOfSpeech'
p1644
S'DT'
p1645
sS'CharacterOffsetBegin'
p1646
S'100'
p1647
stp1648
a(S'next'
p1649
(dp1650
S'NamedEntityTag'
p1651
g118
sS'CharacterOffsetEnd'
p1652
S'108'
p1653
sS'Lemma'
p1654
S'next'
p1655
sS'PartOfSpeech'
p1656
S'JJ'
p1657
sS'CharacterOffsetBegin'
p1658
S'104'
p1659
stp1660
a(S'government'
p1661
(dp1662
S'NamedEntityTag'
p1663
g118
sS'CharacterOffsetEnd'
p1664
S'119'
p1665
sS'Lemma'
p1666
S'government'
p1667
sS'PartOfSpeech'
p1668
S'NN'
p1669
sS'CharacterOffsetBegin'
p1670
S'109'
p1671
stp1672
a(g115
(dp1673
S'NamedEntityTag'
p1674
g118
sS'CharacterOffsetEnd'
p1675
S'120'
p1676
sS'Lemma'
p1677
g115
sS'PartOfSpeech'
p1678
g115
sS'CharacterOffsetBegin'
p1679
S'119'
p1680
stp1681
a(S'sparking'
p1682
(dp1683
S'NamedEntityTag'
p1684
g118
sS'CharacterOffsetEnd'
p1685
S'129'
p1686
sS'Lemma'
p1687
S'spark'
p1688
sS'PartOfSpeech'
p1689
S'VBG'
p1690
sS'CharacterOffsetBegin'
p1691
S'121'
p1692
stp1693
a(g1318
(dp1694
S'NamedEntityTag'
p1695
g118
sS'CharacterOffsetEnd'
p1696
S'131'
p1697
sS'Lemma'
p1698
g1318
sS'PartOfSpeech'
p1699
S'DT'
p1700
sS'CharacterOffsetBegin'
p1701
S'130'
p1702
stp1703
a(S'political'
p1704
(dp1705
S'NamedEntityTag'
p1706
g118
sS'CharacterOffsetEnd'
p1707
S'141'
p1708
sS'Lemma'
p1709
S'political'
p1710
sS'PartOfSpeech'
p1711
S'JJ'
p1712
sS'CharacterOffsetBegin'
p1713
S'132'
p1714
stp1715
a(S'crisis'
p1716
(dp1717
S'NamedEntityTag'
p1718
g118
sS'CharacterOffsetEnd'
p1719
S'148'
p1720
sS'Lemma'
p1721
S'crisis'
p1722
sS'PartOfSpeech'
p1723
S'NN'
p1724
sS'CharacterOffsetBegin'
p1725
S'142'
p1726
stp1727
a(S'in'
p1728
(dp1729
S'NamedEntityTag'
p1730
g118
sS'CharacterOffsetEnd'
p1731
S'151'
p1732
sS'Lemma'
p1733
S'in'
p1734
sS'PartOfSpeech'
p1735
S'IN'
p1736
sS'CharacterOffsetBegin'
p1737
S'149'
p1738
stp1739
a(S'this'
p1740
(dp1741
S'NamedEntityTag'
p1742
g118
sS'CharacterOffsetEnd'
p1743
S'156'
p1744
sS'Lemma'
p1745
S'this'
p1746
sS'PartOfSpeech'
p1747
S'DT'
p1748
sS'CharacterOffsetBegin'
p1749
S'152'
p1750
stp1751
a(S'country'
p1752
(dp1753
S'NamedEntityTag'
p1754
g118
sS'CharacterOffsetEnd'
p1755
S'164'
p1756
sS'Lemma'
p1757
S'country'
p1758
sS'PartOfSpeech'
p1759
S'NN'
p1760
sS'CharacterOffsetBegin'
p1761
S'157'
p1762
stp1763
a(S'as'
p1764
(dp1765
S'NamedEntityTag'
p1766
g118
sS'CharacterOffsetEnd'
p1767
S'167'
p1768
sS'Lemma'
p1769
S'as'
p1770
sS'PartOfSpeech'
p1771
S'IN'
p1772
sS'CharacterOffsetBegin'
p1773
S'165'
p1774
stp1775
a(S'it'
p1776
(dp1777
S'NamedEntityTag'
p1778
g118
sS'CharacterOffsetEnd'
p1779
S'170'
p1780
sS'Lemma'
p1781
S'it'
p1782
sS'PartOfSpeech'
p1783
S'PRP'
p1784
sS'CharacterOffsetBegin'
p1785
S'168'
p1786
stp1787
a(S'rebuilds'
p1788
(dp1789
S'NamedEntityTag'
p1790
g118
sS'CharacterOffsetEnd'
p1791
S'179'
p1792
sS'Lemma'
p1793
S'rebuild'
p1794
sS'PartOfSpeech'
p1795
S'VBZ'
p1796
sS'CharacterOffsetBegin'
p1797
S'171'
p1798
stp1799
a(S'from'
p1800
(dp1801
S'NamedEntityTag'
p1802
g118
sS'CharacterOffsetEnd'
p1803
S'184'
p1804
sS'Lemma'
p1805
S'from'
p1806
sS'PartOfSpeech'
p1807
S'IN'
p1808
sS'CharacterOffsetBegin'
p1809
S'180'
p1810
stp1811
a(S'its'
p1812
(dp1813
S'NamedEntityTag'
p1814
g118
sS'CharacterOffsetEnd'
p1815
S'188'
p1816
sS'Lemma'
p1817
S'its'
p1818
sS'PartOfSpeech'
p1819
S'PRP$'
p1820
sS'CharacterOffsetBegin'
p1821
S'185'
p1822
stp1823
a(S'devastating'
p1824
(dp1825
S'NamedEntityTag'
p1826
g118
sS'CharacterOffsetEnd'
p1827
S'200'
p1828
sS'Lemma'
p1829
S'devastating'
p1830
sS'PartOfSpeech'
p1831
S'JJ'
p1832
sS'CharacterOffsetBegin'
p1833
S'189'
p1834
stp1835
a(S'civil'
p1836
(dp1837
S'NamedEntityTag'
p1838
g118
sS'CharacterOffsetEnd'
p1839
S'206'
p1840
sS'Lemma'
p1841
S'civil'
p1842
sS'PartOfSpeech'
p1843
S'JJ'
p1844
sS'CharacterOffsetBegin'
p1845
S'201'
p1846
stp1847
a(S'war'
p1848
(dp1849
S'NamedEntityTag'
p1850
g118
sS'CharacterOffsetEnd'
p1851
S'210'
p1852
sS'Lemma'
p1853
S'war'
p1854
sS'PartOfSpeech'
p1855
S'NN'
p1856
sS'CharacterOffsetBegin'
p1857
S'207'
p1858
stp1859
a(g530
(dp1860
S'NamedEntityTag'
p1861
g118
sS'CharacterOffsetEnd'
p1862
S'211'
p1863
sS'Lemma'
p1864
g530
sS'PartOfSpeech'
p1865
g530
sS'CharacterOffsetBegin'
p1866
S'210'
p1867
stp1868
asa(dp1869
g15
S'(ROOT (S (NP (NP (NP (NNS Sources)) (ADVP (RB close) (PP (TO to) (NP (DT the) (JJ prime) (NN minister))))) (, ,) (SBAR (WP$ whose) (S (NP (NNP Cabinet)) (VP (VBZ has) (VP (VBN been) (PP (IN in) (NP (NP (JJ care-taker) (NN capacity)) (PP (IN since) (NP (NP (JJ last) (NNPS Tuesdays)) (NP (NN swearing)))))) (PP (IN in) (IN of) (NP (NP (NNP Emile) (NNP Lahoud)) (PP (IN as) (NP (NN president))))))))) (, ,)) (VP (VBD said) (SBAR (S (NP (NNP Hariri)) (VP (VBD turned) (PRT (RP down)) (NP (NP (DT the) (NN invitation)) (PP (IN from) (NP (NNP Lahoud)))) (S (VP (TO to) (VP (VB select) (NP (DT a) (JJ new) (NNP Cabinet))))))))) (. .)))'
p1870
sg17
S'Sources close to the prime minister, whose Cabinet has been in care-taker capacity since last Tuesdays swearing in of Emile Lahoud as president, said Hariri turned down the invitation from Lahoud to select a new Cabinet.'
p1871
sg19
(lp1872
(S'root'
p1873
S'ROOT'
p1874
S'said'
p1875
tp1876
a(S'nsubj'
p1877
S'said'
p1878
S'Sources'
p1879
tp1880
a(S'det'
p1881
S'minister'
p1882
S'the'
p1883
tp1884
a(S'amod'
p1885
S'minister'
p1886
S'prime'
p1887
tp1888
a(S'prep_close_to'
p1889
S'Sources'
p1890
S'minister'
p1891
tp1892
a(S'dep'
p1893
S'been'
p1894
S'whose'
p1895
tp1896
a(S'nsubj'
p1897
S'been'
p1898
S'Cabinet'
p1899
tp1900
a(S'aux'
p1901
S'been'
p1902
S'has'
p1903
tp1904
a(S'dep'
p1905
S'Sources'
p1906
S'been'
p1907
tp1908
a(S'amod'
p1909
S'capacity'
p1910
S'care-taker'
p1911
tp1912
a(S'prep_in'
p1913
S'been'
p1914
S'capacity'
p1915
tp1916
a(S'amod'
p1917
S'Tuesdays'
p1918
S'last'
p1919
tp1920
a(S'prep_since'
p1921
S'capacity'
p1922
S'Tuesdays'
p1923
tp1924
a(S'dep'
p1925
S'Tuesdays'
p1926
S'swearing'
p1927
tp1928
a(S'dep'
p1929
S'been'
p1930
S'in'
p1931
tp1932
a(S'nn'
p1933
S'Lahoud'
p1934
S'Emile'
p1935
tp1936
a(S'prep_of'
p1937
S'been'
p1938
S'Lahoud'
p1939
tp1940
a(S'prep_as'
p1941
S'Lahoud'
p1942
S'president'
p1943
tp1944
a(S'nsubj'
p1945
S'turned'
p1946
S'Hariri'
p1947
tp1948
a(S'ccomp'
p1949
S'said'
p1950
S'turned'
p1951
tp1952
a(S'prt'
p1953
S'turned'
p1954
S'down'
p1955
tp1956
a(S'det'
p1957
S'invitation'
p1958
S'the'
p1959
tp1960
a(S'dobj'
p1961
S'turned'
p1962
S'invitation'
p1963
tp1964
a(S'prep_from'
p1965
S'invitation'
p1966
S'Lahoud'
p1967
tp1968
a(S'aux'
p1969
S'select'
p1970
S'to'
p1971
tp1972
a(S'xcomp'
p1973
S'turned'
p1974
S'select'
p1975
tp1976
a(S'det'
p1977
S'Cabinet'
p1978
g1318
tp1979
a(S'amod'
p1980
S'Cabinet'
p1981
S'new'
p1982
tp1983
a(S'dobj'
p1984
S'select'
p1985
S'Cabinet'
p1986
tp1987
asg65
(lp1988
(g1873
S'ROOT-0'
p1989
S'said-26'
p1990
tp1991
a(g1877
S'said-26'
p1992
S'Sources-1'
p1993
tp1994
a(g1881
S'minister-6'
p1995
S'the-4'
p1996
tp1997
a(g1885
S'minister-6'
p1998
S'prime-5'
p1999
tp2000
a(g1889
S'Sources-1'
p2001
S'minister-6'
p2002
tp2003
a(g1893
S'been-11'
p2004
S'whose-8'
p2005
tp2006
a(g1897
S'been-11'
p2007
S'Cabinet-9'
p2008
tp2009
a(g1901
S'been-11'
p2010
S'has-10'
p2011
tp2012
a(g1905
S'Sources-1'
p2013
S'been-11'
p2014
tp2015
a(g1909
S'capacity-14'
p2016
S'care-taker-13'
p2017
tp2018
a(g1913
S'been-11'
p2019
S'capacity-14'
p2020
tp2021
a(g1917
S'Tuesdays-17'
p2022
S'last-16'
p2023
tp2024
a(g1921
S'capacity-14'
p2025
S'Tuesdays-17'
p2026
tp2027
a(g1925
S'Tuesdays-17'
p2028
S'swearing-18'
p2029
tp2030
a(g1929
S'been-11'
p2031
S'in-19'
p2032
tp2033
a(g1933
S'Lahoud-22'
p2034
S'Emile-21'
p2035
tp2036
a(g1937
S'been-11'
p2037
S'Lahoud-22'
p2038
tp2039
a(g1941
S'Lahoud-22'
p2040
S'president-24'
p2041
tp2042
a(g1945
S'turned-28'
p2043
S'Hariri-27'
p2044
tp2045
a(g1949
S'said-26'
p2046
S'turned-28'
p2047
tp2048
a(g1953
S'turned-28'
p2049
S'down-29'
p2050
tp2051
a(g1957
S'invitation-31'
p2052
S'the-30'
p2053
tp2054
a(g1961
S'turned-28'
p2055
S'invitation-31'
p2056
tp2057
a(g1965
S'invitation-31'
p2058
S'Lahoud-33'
p2059
tp2060
a(g1969
S'select-35'
p2061
S'to-34'
p2062
tp2063
a(g1973
S'turned-28'
p2064
S'select-35'
p2065
tp2066
a(g1977
S'Cabinet-38'
p2067
S'a-36'
p2068
tp2069
a(g1980
S'Cabinet-38'
p2070
S'new-37'
p2071
tp2072
a(g1984
S'select-35'
p2073
S'Cabinet-38'
p2074
tp2075
asg100
(lp2076
(S'Sources'
p2077
(dp2078
S'NamedEntityTag'
p2079
g118
sS'CharacterOffsetEnd'
p2080
S'219'
p2081
sS'Lemma'
p2082
S'source'
p2083
sS'PartOfSpeech'
p2084
S'NNS'
p2085
sS'CharacterOffsetBegin'
p2086
S'212'
p2087
stp2088
a(S'close'
p2089
(dp2090
S'NamedEntityTag'
p2091
g118
sS'CharacterOffsetEnd'
p2092
S'225'
p2093
sS'Lemma'
p2094
S'close'
p2095
sS'PartOfSpeech'
p2096
S'RB'
p2097
sS'CharacterOffsetBegin'
p2098
S'220'
p2099
stp2100
a(S'to'
p2101
(dp2102
S'NamedEntityTag'
p2103
g118
sS'CharacterOffsetEnd'
p2104
S'228'
p2105
sS'Lemma'
p2106
S'to'
p2107
sS'PartOfSpeech'
p2108
S'TO'
p2109
sS'CharacterOffsetBegin'
p2110
S'226'
p2111
stp2112
a(S'the'
p2113
(dp2114
S'NamedEntityTag'
p2115
g118
sS'CharacterOffsetEnd'
p2116
S'232'
p2117
sS'Lemma'
p2118
S'the'
p2119
sS'PartOfSpeech'
p2120
S'DT'
p2121
sS'CharacterOffsetBegin'
p2122
S'229'
p2123
stp2124
a(S'prime'
p2125
(dp2126
S'NamedEntityTag'
p2127
g118
sS'CharacterOffsetEnd'
p2128
S'238'
p2129
sS'Lemma'
p2130
S'prime'
p2131
sS'PartOfSpeech'
p2132
S'JJ'
p2133
sS'CharacterOffsetBegin'
p2134
S'233'
p2135
stp2136
a(S'minister'
p2137
(dp2138
S'NamedEntityTag'
p2139
g118
sS'CharacterOffsetEnd'
p2140
S'247'
p2141
sS'Lemma'
p2142
S'minister'
p2143
sS'PartOfSpeech'
p2144
S'NN'
p2145
sS'CharacterOffsetBegin'
p2146
S'239'
p2147
stp2148
a(g115
(dp2149
S'NamedEntityTag'
p2150
g118
sS'CharacterOffsetEnd'
p2151
S'248'
p2152
sS'Lemma'
p2153
g115
sS'PartOfSpeech'
p2154
g115
sS'CharacterOffsetBegin'
p2155
S'247'
p2156
stp2157
a(S'whose'
p2158
(dp2159
S'NamedEntityTag'
p2160
g118
sS'CharacterOffsetEnd'
p2161
S'254'
p2162
sS'Lemma'
p2163
S'whose'
p2164
sS'PartOfSpeech'
p2165
S'WP$'
p2166
sS'CharacterOffsetBegin'
p2167
S'249'
p2168
stp2169
a(S'Cabinet'
p2170
(dp2171
S'NamedEntityTag'
p2172
S'ORGANIZATION'
p2173
sS'CharacterOffsetEnd'
p2174
S'262'
p2175
sS'Lemma'
p2176
S'Cabinet'
p2177
sS'PartOfSpeech'
p2178
S'NNP'
p2179
sS'CharacterOffsetBegin'
p2180
S'255'
p2181
stp2182
a(S'has'
p2183
(dp2184
S'NamedEntityTag'
p2185
g118
sS'CharacterOffsetEnd'
p2186
S'266'
p2187
sS'Lemma'
p2188
S'have'
p2189
sS'PartOfSpeech'
p2190
S'VBZ'
p2191
sS'CharacterOffsetBegin'
p2192
S'263'
p2193
stp2194
a(S'been'
p2195
(dp2196
S'NamedEntityTag'
p2197
g118
sS'CharacterOffsetEnd'
p2198
S'271'
p2199
sS'Lemma'
p2200
S'be'
p2201
sS'PartOfSpeech'
p2202
S'VBN'
p2203
sS'CharacterOffsetBegin'
p2204
S'267'
p2205
stp2206
a(S'in'
p2207
(dp2208
S'NamedEntityTag'
p2209
g118
sS'CharacterOffsetEnd'
p2210
S'274'
p2211
sS'Lemma'
p2212
S'in'
p2213
sS'PartOfSpeech'
p2214
S'IN'
p2215
sS'CharacterOffsetBegin'
p2216
S'272'
p2217
stp2218
a(S'care-taker'
p2219
(dp2220
S'NamedEntityTag'
p2221
g118
sS'CharacterOffsetEnd'
p2222
S'285'
p2223
sS'Lemma'
p2224
S'care-taker'
p2225
sS'PartOfSpeech'
p2226
S'JJ'
p2227
sS'CharacterOffsetBegin'
p2228
S'275'
p2229
stp2230
a(S'capacity'
p2231
(dp2232
S'NamedEntityTag'
p2233
g118
sS'CharacterOffsetEnd'
p2234
S'294'
p2235
sS'Lemma'
p2236
S'capacity'
p2237
sS'PartOfSpeech'
p2238
S'NN'
p2239
sS'CharacterOffsetBegin'
p2240
S'286'
p2241
stp2242
a(S'since'
p2243
(dp2244
S'NamedEntityTag'
p2245
g118
sS'CharacterOffsetEnd'
p2246
S'300'
p2247
sS'Lemma'
p2248
S'since'
p2249
sS'PartOfSpeech'
p2250
S'IN'
p2251
sS'CharacterOffsetBegin'
p2252
S'295'
p2253
stp2254
a(S'last'
p2255
(dp2256
S'NormalizedNamedEntityTag'
p2257
S'XXXX-WXX-2'
p2258
sS'Timex'
p2259
S'<TIMEX3 alt_value="XXXX-WXX-2 OFFSET P-1W" anchorTimeID="t2" temporalFunction="true" tid="t1" type="DATE" valueFromFunction="tf0">last Tuesdays</TIMEX3>'
p2260
sS'Lemma'
p2261
S'last'
p2262
sS'CharacterOffsetEnd'
p2263
S'305'
p2264
sS'PartOfSpeech'
p2265
S'JJ'
p2266
sS'CharacterOffsetBegin'
p2267
S'301'
p2268
sS'NamedEntityTag'
p2269
S'DATE'
p2270
stp2271
a(S'Tuesdays'
p2272
(dp2273
S'NormalizedNamedEntityTag'
p2274
S'XXXX-WXX-2'
p2275
sS'Timex'
p2276
S'<TIMEX3 alt_value="XXXX-WXX-2 OFFSET P-1W" anchorTimeID="t2" temporalFunction="true" tid="t1" type="DATE" valueFromFunction="tf0">last Tuesdays</TIMEX3>'
p2277
sS'Lemma'
p2278
S'Tuesdays'
p2279
sS'CharacterOffsetEnd'
p2280
S'314'
p2281
sS'PartOfSpeech'
p2282
S'NNPS'
p2283
sS'CharacterOffsetBegin'
p2284
S'306'
p2285
sS'NamedEntityTag'
p2286
S'DATE'
p2287
stp2288
a(S'swearing'
p2289
(dp2290
S'NamedEntityTag'
p2291
g118
sS'CharacterOffsetEnd'
p2292
S'323'
p2293
sS'Lemma'
p2294
S'swearing'
p2295
sS'PartOfSpeech'
p2296
S'NN'
p2297
sS'CharacterOffsetBegin'
p2298
S'315'
p2299
stp2300
a(S'in'
p2301
(dp2302
S'NamedEntityTag'
p2303
g118
sS'CharacterOffsetEnd'
p2304
S'326'
p2305
sS'Lemma'
p2306
S'in'
p2307
sS'PartOfSpeech'
p2308
S'IN'
p2309
sS'CharacterOffsetBegin'
p2310
S'324'
p2311
stp2312
a(S'of'
p2313
(dp2314
S'NamedEntityTag'
p2315
g118
sS'CharacterOffsetEnd'
p2316
S'329'
p2317
sS'Lemma'
p2318
S'of'
p2319
sS'PartOfSpeech'
p2320
S'IN'
p2321
sS'CharacterOffsetBegin'
p2322
S'327'
p2323
stp2324
a(S'Emile'
p2325
(dp2326
S'NamedEntityTag'
p2327
S'PERSON'
p2328
sS'CharacterOffsetEnd'
p2329
S'335'
p2330
sS'Lemma'
p2331
S'Emile'
p2332
sS'PartOfSpeech'
p2333
S'NNP'
p2334
sS'CharacterOffsetBegin'
p2335
S'330'
p2336
stp2337
a(S'Lahoud'
p2338
(dp2339
S'NamedEntityTag'
p2340
S'PERSON'
p2341
sS'CharacterOffsetEnd'
p2342
S'342'
p2343
sS'Lemma'
p2344
S'Lahoud'
p2345
sS'PartOfSpeech'
p2346
S'NNP'
p2347
sS'CharacterOffsetBegin'
p2348
S'336'
p2349
stp2350
a(S'as'
p2351
(dp2352
S'NamedEntityTag'
p2353
g118
sS'CharacterOffsetEnd'
p2354
S'345'
p2355
sS'Lemma'
p2356
S'as'
p2357
sS'PartOfSpeech'
p2358
S'IN'
p2359
sS'CharacterOffsetBegin'
p2360
S'343'
p2361
stp2362
a(S'president'
p2363
(dp2364
S'NamedEntityTag'
p2365
g118
sS'CharacterOffsetEnd'
p2366
S'355'
p2367
sS'Lemma'
p2368
S'president'
p2369
sS'PartOfSpeech'
p2370
S'NN'
p2371
sS'CharacterOffsetBegin'
p2372
S'346'
p2373
stp2374
a(g115
(dp2375
S'NamedEntityTag'
p2376
g118
sS'CharacterOffsetEnd'
p2377
S'356'
p2378
sS'Lemma'
p2379
g115
sS'PartOfSpeech'
p2380
g115
sS'CharacterOffsetBegin'
p2381
S'355'
p2382
stp2383
a(S'said'
p2384
(dp2385
S'NamedEntityTag'
p2386
g118
sS'CharacterOffsetEnd'
p2387
S'361'
p2388
sS'Lemma'
p2389
S'say'
p2390
sS'PartOfSpeech'
p2391
S'VBD'
p2392
sS'CharacterOffsetBegin'
p2393
S'357'
p2394
stp2395
a(S'Hariri'
p2396
(dp2397
S'NamedEntityTag'
p2398
S'PERSON'
p2399
sS'CharacterOffsetEnd'
p2400
S'368'
p2401
sS'Lemma'
p2402
S'Hariri'
p2403
sS'PartOfSpeech'
p2404
S'NNP'
p2405
sS'CharacterOffsetBegin'
p2406
S'362'
p2407
stp2408
a(S'turned'
p2409
(dp2410
S'NamedEntityTag'
p2411
g118
sS'CharacterOffsetEnd'
p2412
S'375'
p2413
sS'Lemma'
p2414
S'turn'
p2415
sS'PartOfSpeech'
p2416
S'VBD'
p2417
sS'CharacterOffsetBegin'
p2418
S'369'
p2419
stp2420
a(S'down'
p2421
(dp2422
S'NamedEntityTag'
p2423
g118
sS'CharacterOffsetEnd'
p2424
S'380'
p2425
sS'Lemma'
p2426
S'down'
p2427
sS'PartOfSpeech'
p2428
S'RP'
p2429
sS'CharacterOffsetBegin'
p2430
S'376'
p2431
stp2432
a(S'the'
p2433
(dp2434
S'NamedEntityTag'
p2435
g118
sS'CharacterOffsetEnd'
p2436
S'384'
p2437
sS'Lemma'
p2438
S'the'
p2439
sS'PartOfSpeech'
p2440
S'DT'
p2441
sS'CharacterOffsetBegin'
p2442
S'381'
p2443
stp2444
a(S'invitation'
p2445
(dp2446
S'NamedEntityTag'
p2447
g118
sS'CharacterOffsetEnd'
p2448
S'395'
p2449
sS'Lemma'
p2450
S'invitation'
p2451
sS'PartOfSpeech'
p2452
S'NN'
p2453
sS'CharacterOffsetBegin'
p2454
S'385'
p2455
stp2456
a(S'from'
p2457
(dp2458
S'NamedEntityTag'
p2459
g118
sS'CharacterOffsetEnd'
p2460
S'400'
p2461
sS'Lemma'
p2462
S'from'
p2463
sS'PartOfSpeech'
p2464
S'IN'
p2465
sS'CharacterOffsetBegin'
p2466
S'396'
p2467
stp2468
a(S'Lahoud'
p2469
(dp2470
S'NamedEntityTag'
p2471
S'PERSON'
p2472
sS'CharacterOffsetEnd'
p2473
S'407'
p2474
sS'Lemma'
p2475
S'Lahoud'
p2476
sS'PartOfSpeech'
p2477
S'NNP'
p2478
sS'CharacterOffsetBegin'
p2479
S'401'
p2480
stp2481
a(S'to'
p2482
(dp2483
S'NamedEntityTag'
p2484
g118
sS'CharacterOffsetEnd'
p2485
S'410'
p2486
sS'Lemma'
p2487
S'to'
p2488
sS'PartOfSpeech'
p2489
S'TO'
p2490
sS'CharacterOffsetBegin'
p2491
S'408'
p2492
stp2493
a(S'select'
p2494
(dp2495
S'NamedEntityTag'
p2496
g118
sS'CharacterOffsetEnd'
p2497
S'417'
p2498
sS'Lemma'
p2499
S'select'
p2500
sS'PartOfSpeech'
p2501
S'VB'
p2502
sS'CharacterOffsetBegin'
p2503
S'411'
p2504
stp2505
a(g1318
(dp2506
S'NamedEntityTag'
p2507
g118
sS'CharacterOffsetEnd'
p2508
S'419'
p2509
sS'Lemma'
p2510
g1318
sS'PartOfSpeech'
p2511
S'DT'
p2512
sS'CharacterOffsetBegin'
p2513
S'418'
p2514
stp2515
a(S'new'
p2516
(dp2517
S'NamedEntityTag'
p2518
g118
sS'CharacterOffsetEnd'
p2519
S'423'
p2520
sS'Lemma'
p2521
S'new'
p2522
sS'PartOfSpeech'
p2523
S'JJ'
p2524
sS'CharacterOffsetBegin'
p2525
S'420'
p2526
stp2527
a(S'Cabinet'
p2528
(dp2529
S'NamedEntityTag'
p2530
g118
sS'CharacterOffsetEnd'
p2531
S'431'
p2532
sS'Lemma'
p2533
S'Cabinet'
p2534
sS'PartOfSpeech'
p2535
S'NNP'
p2536
sS'CharacterOffsetBegin'
p2537
S'424'
p2538
stp2539
a(g530
(dp2540
S'NamedEntityTag'
p2541
g118
sS'CharacterOffsetEnd'
p2542
S'432'
p2543
sS'Lemma'
p2544
g530
sS'PartOfSpeech'
p2545
g530
sS'CharacterOffsetBegin'
p2546
S'431'
p2547
stp2548
asa(dp2549
g15
S'(ROOT (S (NP (EX There)) (VP (VBZ has) (VP (VBN been) (NP (NP (DT no) (JJ formal) (NN announcement)) (PP (IN from) (NP (NP (NNP Lahoud)) (VP (VBG reappointing) (NP (NP (NNP Hariri)) (PP (IN as) (NP (JJ prime) (NN minister)))))))))) (. .)))'
p2550
sg17
S'There has been no formal announcement from Lahoud reappointing Hariri as prime minister.'
p2551
sg19
(lp2552
(S'root'
p2553
S'ROOT'
p2554
S'announcement'
p2555
tp2556
a(S'expl'
p2557
S'announcement'
p2558
S'There'
p2559
tp2560
a(S'aux'
p2561
S'announcement'
p2562
S'has'
p2563
tp2564
a(S'cop'
p2565
S'announcement'
p2566
S'been'
p2567
tp2568
a(S'det'
p2569
S'announcement'
p2570
S'no'
p2571
tp2572
a(S'amod'
p2573
S'announcement'
p2574
S'formal'
p2575
tp2576
a(S'prep_from'
p2577
S'announcement'
p2578
S'Lahoud'
p2579
tp2580
a(S'partmod'
p2581
S'Lahoud'
p2582
S'reappointing'
p2583
tp2584
a(S'dobj'
p2585
S'reappointing'
p2586
S'Hariri'
p2587
tp2588
a(S'amod'
p2589
S'minister'
p2590
S'prime'
p2591
tp2592
a(S'prep_as'
p2593
S'Hariri'
p2594
S'minister'
p2595
tp2596
asg65
(lp2597
(g2553
S'ROOT-0'
p2598
S'announcement-6'
p2599
tp2600
a(g2557
S'announcement-6'
p2601
S'There-1'
p2602
tp2603
a(g2561
S'announcement-6'
p2604
S'has-2'
p2605
tp2606
a(g2565
S'announcement-6'
p2607
S'been-3'
p2608
tp2609
a(g2569
S'announcement-6'
p2610
S'no-4'
p2611
tp2612
a(g2573
S'announcement-6'
p2613
S'formal-5'
p2614
tp2615
a(g2577
S'announcement-6'
p2616
S'Lahoud-8'
p2617
tp2618
a(g2581
S'Lahoud-8'
p2619
S'reappointing-9'
p2620
tp2621
a(g2585
S'reappointing-9'
p2622
S'Hariri-10'
p2623
tp2624
a(g2589
S'minister-13'
p2625
S'prime-12'
p2626
tp2627
a(g2593
S'Hariri-10'
p2628
S'minister-13'
p2629
tp2630
asg100
(lp2631
(S'There'
p2632
(dp2633
S'NamedEntityTag'
p2634
g118
sS'CharacterOffsetEnd'
p2635
S'438'
p2636
sS'Lemma'
p2637
S'there'
p2638
sS'PartOfSpeech'
p2639
S'EX'
p2640
sS'CharacterOffsetBegin'
p2641
S'433'
p2642
stp2643
a(S'has'
p2644
(dp2645
S'NamedEntityTag'
p2646
g118
sS'CharacterOffsetEnd'
p2647
S'442'
p2648
sS'Lemma'
p2649
S'have'
p2650
sS'PartOfSpeech'
p2651
S'VBZ'
p2652
sS'CharacterOffsetBegin'
p2653
S'439'
p2654
stp2655
a(S'been'
p2656
(dp2657
S'NamedEntityTag'
p2658
g118
sS'CharacterOffsetEnd'
p2659
S'447'
p2660
sS'Lemma'
p2661
S'be'
p2662
sS'PartOfSpeech'
p2663
S'VBN'
p2664
sS'CharacterOffsetBegin'
p2665
S'443'
p2666
stp2667
a(S'no'
p2668
(dp2669
S'NamedEntityTag'
p2670
g118
sS'CharacterOffsetEnd'
p2671
S'450'
p2672
sS'Lemma'
p2673
S'no'
p2674
sS'PartOfSpeech'
p2675
S'DT'
p2676
sS'CharacterOffsetBegin'
p2677
S'448'
p2678
stp2679
a(S'formal'
p2680
(dp2681
S'NamedEntityTag'
p2682
g118
sS'CharacterOffsetEnd'
p2683
S'457'
p2684
sS'Lemma'
p2685
S'formal'
p2686
sS'PartOfSpeech'
p2687
S'JJ'
p2688
sS'CharacterOffsetBegin'
p2689
S'451'
p2690
stp2691
a(S'announcement'
p2692
(dp2693
S'NamedEntityTag'
p2694
g118
sS'CharacterOffsetEnd'
p2695
S'470'
p2696
sS'Lemma'
p2697
S'announcement'
p2698
sS'PartOfSpeech'
p2699
S'NN'
p2700
sS'CharacterOffsetBegin'
p2701
S'458'
p2702
stp2703
a(S'from'
p2704
(dp2705
S'NamedEntityTag'
p2706
g118
sS'CharacterOffsetEnd'
p2707
S'475'
p2708
sS'Lemma'
p2709
S'from'
p2710
sS'PartOfSpeech'
p2711
S'IN'
p2712
sS'CharacterOffsetBegin'
p2713
S'471'
p2714
stp2715
a(S'Lahoud'
p2716
(dp2717
S'NamedEntityTag'
p2718
S'PERSON'
p2719
sS'CharacterOffsetEnd'
p2720
S'482'
p2721
sS'Lemma'
p2722
S'Lahoud'
p2723
sS'PartOfSpeech'
p2724
S'NNP'
p2725
sS'CharacterOffsetBegin'
p2726
S'476'
p2727
stp2728
a(S'reappointing'
p2729
(dp2730
S'NamedEntityTag'
p2731
g118
sS'CharacterOffsetEnd'
p2732
S'495'
p2733
sS'Lemma'
p2734
S'reappoint'
p2735
sS'PartOfSpeech'
p2736
S'VBG'
p2737
sS'CharacterOffsetBegin'
p2738
S'483'
p2739
stp2740
a(S'Hariri'
p2741
(dp2742
S'NamedEntityTag'
p2743
S'PERSON'
p2744
sS'CharacterOffsetEnd'
p2745
S'502'
p2746
sS'Lemma'
p2747
S'Hariri'
p2748
sS'PartOfSpeech'
p2749
S'NNP'
p2750
sS'CharacterOffsetBegin'
p2751
S'496'
p2752
stp2753
a(S'as'
p2754
(dp2755
S'NamedEntityTag'
p2756
g118
sS'CharacterOffsetEnd'
p2757
S'505'
p2758
sS'Lemma'
p2759
S'as'
p2760
sS'PartOfSpeech'
p2761
S'IN'
p2762
sS'CharacterOffsetBegin'
p2763
S'503'
p2764
stp2765
a(S'prime'
p2766
(dp2767
S'NamedEntityTag'
p2768
g118
sS'CharacterOffsetEnd'
p2769
S'511'
p2770
sS'Lemma'
p2771
S'prime'
p2772
sS'PartOfSpeech'
p2773
S'JJ'
p2774
sS'CharacterOffsetBegin'
p2775
S'506'
p2776
stp2777
a(S'minister'
p2778
(dp2779
S'NamedEntityTag'
p2780
g118
sS'CharacterOffsetEnd'
p2781
S'520'
p2782
sS'Lemma'
p2783
S'minister'
p2784
sS'PartOfSpeech'
p2785
S'NN'
p2786
sS'CharacterOffsetBegin'
p2787
S'512'
p2788
stp2789
a(g530
(dp2790
S'NamedEntityTag'
p2791
g118
sS'CharacterOffsetEnd'
p2792
S'521'
p2793
sS'Lemma'
p2794
g530
sS'PartOfSpeech'
p2795
g530
sS'CharacterOffsetBegin'
p2796
S'520'
p2797
stp2798
asa(dp2799
g15
S'(ROOT (S (SBAR (IN Although) (S (NP (NNP Hariris) (NN move)) (VP (MD could) (VP (VB be) (NP (DT a) (NN bargaining) (NN tactic)) (, ,) (SBAR (IN since) (S (NP (PRP he)) (VP (VBZ remains) (NP (NP (DT the) (NN front-runner)) (PP (IN for) (NP (DT the) (NN premiership))))))))))) (, ,) (NP (NP (DT the) (JJ apparent) (NN tension)) (PP (IN between) (NP (DT the) (CD two) (JJ powerful) (NNS men)))) (VP (MD could) (VP (VB affect) (NP (NNP Lebanons) (JJ economic) (NN stability)) (SBAR (IN as) (S (NP (PRP it)) (VP (VBZ recovers) (PP (IN from) (NP (DT the) (CD 1975-90) (JJ civil) (NN war)))))))) (. .)))'
p2800
sg17
S'Although Hariris move could be a bargaining tactic, since he remains the front-runner for the premiership, the apparent tension between the two powerful men could affect Lebanons economic stability as it recovers from the 1975-90 civil war.'
p2801
sg19
(lp2802
(S'root'
p2803
S'ROOT'
p2804
S'affect'
p2805
tp2806
a(S'mark'
p2807
S'tactic'
p2808
S'Although'
p2809
tp2810
a(S'nn'
p2811
S'move'
p2812
S'Hariris'
p2813
tp2814
a(S'nsubj'
p2815
S'tactic'
p2816
S'move'
p2817
tp2818
a(S'aux'
p2819
S'tactic'
p2820
S'could'
p2821
tp2822
a(S'cop'
p2823
S'tactic'
p2824
S'be'
p2825
tp2826
a(S'det'
p2827
S'tactic'
p2828
g1318
tp2829
a(S'nn'
p2830
S'tactic'
p2831
S'bargaining'
p2832
tp2833
a(S'advcl'
p2834
S'affect'
p2835
S'tactic'
p2836
tp2837
a(S'mark'
p2838
S'front-runner'
p2839
S'since'
p2840
tp2841
a(S'nsubj'
p2842
S'front-runner'
p2843
S'he'
p2844
tp2845
a(S'cop'
p2846
S'front-runner'
p2847
S'remains'
p2848
tp2849
a(S'det'
p2850
S'front-runner'
p2851
S'the'
p2852
tp2853
a(S'advcl'
p2854
S'tactic'
p2855
S'front-runner'
p2856
tp2857
a(S'det'
p2858
S'premiership'
p2859
S'the'
p2860
tp2861
a(S'prep_for'
p2862
S'front-runner'
p2863
S'premiership'
p2864
tp2865
a(S'det'
p2866
S'tension'
p2867
S'the'
p2868
tp2869
a(S'amod'
p2870
S'tension'
p2871
S'apparent'
p2872
tp2873
a(S'nsubj'
p2874
S'affect'
p2875
S'tension'
p2876
tp2877
a(S'det'
p2878
S'men'
p2879
S'the'
p2880
tp2881
a(S'num'
p2882
S'men'
p2883
S'two'
p2884
tp2885
a(S'amod'
p2886
S'men'
p2887
S'powerful'
p2888
tp2889
a(S'prep_between'
p2890
S'tension'
p2891
S'men'
p2892
tp2893
a(S'aux'
p2894
S'affect'
p2895
S'could'
p2896
tp2897
a(S'nn'
p2898
S'stability'
p2899
S'Lebanons'
p2900
tp2901
a(S'amod'
p2902
S'stability'
p2903
S'economic'
p2904
tp2905
a(S'dobj'
p2906
S'affect'
p2907
S'stability'
p2908
tp2909
a(S'mark'
p2910
S'recovers'
p2911
S'as'
p2912
tp2913
a(S'nsubj'
p2914
S'recovers'
p2915
S'it'
p2916
tp2917
a(S'advcl'
p2918
S'affect'
p2919
S'recovers'
p2920
tp2921
a(S'det'
p2922
S'war'
p2923
S'the'
p2924
tp2925
a(S'num'
p2926
S'war'
p2927
S'1975-90'
p2928
tp2929
a(S'amod'
p2930
S'war'
p2931
S'civil'
p2932
tp2933
a(S'prep_from'
p2934
S'recovers'
p2935
S'war'
p2936
tp2937
asg65
(lp2938
(g2803
S'ROOT-0'
p2939
S'affect-28'
p2940
tp2941
a(g2807
S'tactic-8'
p2942
S'Although-1'
p2943
tp2944
a(g2811
S'move-3'
p2945
S'Hariris-2'
p2946
tp2947
a(g2815
S'tactic-8'
p2948
S'move-3'
p2949
tp2950
a(g2819
S'tactic-8'
p2951
S'could-4'
p2952
tp2953
a(g2823
S'tactic-8'
p2954
S'be-5'
p2955
tp2956
a(g2827
S'tactic-8'
p2957
S'a-6'
p2958
tp2959
a(g2830
S'tactic-8'
p2960
S'bargaining-7'
p2961
tp2962
a(g2834
S'affect-28'
p2963
S'tactic-8'
p2964
tp2965
a(g2838
S'front-runner-14'
p2966
S'since-10'
p2967
tp2968
a(g2842
S'front-runner-14'
p2969
S'he-11'
p2970
tp2971
a(g2846
S'front-runner-14'
p2972
S'remains-12'
p2973
tp2974
a(g2850
S'front-runner-14'
p2975
S'the-13'
p2976
tp2977
a(g2854
S'tactic-8'
p2978
S'front-runner-14'
p2979
tp2980
a(g2858
S'premiership-17'
p2981
S'the-16'
p2982
tp2983
a(g2862
S'front-runner-14'
p2984
S'premiership-17'
p2985
tp2986
a(g2866
S'tension-21'
p2987
S'the-19'
p2988
tp2989
a(g2870
S'tension-21'
p2990
S'apparent-20'
p2991
tp2992
a(g2874
S'affect-28'
p2993
S'tension-21'
p2994
tp2995
a(g2878
S'men-26'
p2996
S'the-23'
p2997
tp2998
a(g2882
S'men-26'
p2999
S'two-24'
p3000
tp3001
a(g2886
S'men-26'
p3002
S'powerful-25'
p3003
tp3004
a(g2890
S'tension-21'
p3005
S'men-26'
p3006
tp3007
a(g2894
S'affect-28'
p3008
S'could-27'
p3009
tp3010
a(g2898
S'stability-31'
p3011
S'Lebanons-29'
p3012
tp3013
a(g2902
S'stability-31'
p3014
S'economic-30'
p3015
tp3016
a(g2906
S'affect-28'
p3017
S'stability-31'
p3018
tp3019
a(g2910
S'recovers-34'
p3020
S'as-32'
p3021
tp3022
a(g2914
S'recovers-34'
p3023
S'it-33'
p3024
tp3025
a(g2918
S'affect-28'
p3026
S'recovers-34'
p3027
tp3028
a(g2922
S'war-39'
p3029
S'the-36'
p3030
tp3031
a(g2926
S'war-39'
p3032
S'1975-90-37'
p3033
tp3034
a(g2930
S'war-39'
p3035
S'civil-38'
p3036
tp3037
a(g2934
S'recovers-34'
p3038
S'war-39'
p3039
tp3040
asg100
(lp3041
(S'Although'
p3042
(dp3043
S'NamedEntityTag'
p3044
g118
sS'CharacterOffsetEnd'
p3045
S'530'
p3046
sS'Lemma'
p3047
S'although'
p3048
sS'PartOfSpeech'
p3049
S'IN'
p3050
sS'CharacterOffsetBegin'
p3051
S'522'
p3052
stp3053
a(S'Hariris'
p3054
(dp3055
S'NamedEntityTag'
p3056
S'PERSON'
p3057
sS'CharacterOffsetEnd'
p3058
S'538'
p3059
sS'Lemma'
p3060
S'Hariris'
p3061
sS'PartOfSpeech'
p3062
S'NNP'
p3063
sS'CharacterOffsetBegin'
p3064
S'531'
p3065
stp3066
a(S'move'
p3067
(dp3068
S'NamedEntityTag'
p3069
g118
sS'CharacterOffsetEnd'
p3070
S'543'
p3071
sS'Lemma'
p3072
S'move'
p3073
sS'PartOfSpeech'
p3074
S'NN'
p3075
sS'CharacterOffsetBegin'
p3076
S'539'
p3077
stp3078
a(S'could'
p3079
(dp3080
S'NamedEntityTag'
p3081
g118
sS'CharacterOffsetEnd'
p3082
S'549'
p3083
sS'Lemma'
p3084
S'could'
p3085
sS'PartOfSpeech'
p3086
S'MD'
p3087
sS'CharacterOffsetBegin'
p3088
S'544'
p3089
stp3090
a(S'be'
p3091
(dp3092
S'NamedEntityTag'
p3093
g118
sS'CharacterOffsetEnd'
p3094
S'552'
p3095
sS'Lemma'
p3096
S'be'
p3097
sS'PartOfSpeech'
p3098
S'VB'
p3099
sS'CharacterOffsetBegin'
p3100
S'550'
p3101
stp3102
a(g1318
(dp3103
S'NamedEntityTag'
p3104
g118
sS'CharacterOffsetEnd'
p3105
S'554'
p3106
sS'Lemma'
p3107
g1318
sS'PartOfSpeech'
p3108
S'DT'
p3109
sS'CharacterOffsetBegin'
p3110
S'553'
p3111
stp3112
a(S'bargaining'
p3113
(dp3114
S'NamedEntityTag'
p3115
g118
sS'CharacterOffsetEnd'
p3116
S'565'
p3117
sS'Lemma'
p3118
S'bargaining'
p3119
sS'PartOfSpeech'
p3120
S'NN'
p3121
sS'CharacterOffsetBegin'
p3122
S'555'
p3123
stp3124
a(S'tactic'
p3125
(dp3126
S'NamedEntityTag'
p3127
g118
sS'CharacterOffsetEnd'
p3128
S'572'
p3129
sS'Lemma'
p3130
S'tactic'
p3131
sS'PartOfSpeech'
p3132
S'NN'
p3133
sS'CharacterOffsetBegin'
p3134
S'566'
p3135
stp3136
a(g115
(dp3137
S'NamedEntityTag'
p3138
g118
sS'CharacterOffsetEnd'
p3139
S'573'
p3140
sS'Lemma'
p3141
g115
sS'PartOfSpeech'
p3142
g115
sS'CharacterOffsetBegin'
p3143
S'572'
p3144
stp3145
a(S'since'
p3146
(dp3147
S'NamedEntityTag'
p3148
g118
sS'CharacterOffsetEnd'
p3149
S'579'
p3150
sS'Lemma'
p3151
S'since'
p3152
sS'PartOfSpeech'
p3153
S'IN'
p3154
sS'CharacterOffsetBegin'
p3155
S'574'
p3156
stp3157
a(S'he'
p3158
(dp3159
S'NamedEntityTag'
p3160
g118
sS'CharacterOffsetEnd'
p3161
S'582'
p3162
sS'Lemma'
p3163
S'he'
p3164
sS'PartOfSpeech'
p3165
S'PRP'
p3166
sS'CharacterOffsetBegin'
p3167
S'580'
p3168
stp3169
a(S'remains'
p3170
(dp3171
S'NamedEntityTag'
p3172
g118
sS'CharacterOffsetEnd'
p3173
S'590'
p3174
sS'Lemma'
p3175
S'remain'
p3176
sS'PartOfSpeech'
p3177
S'VBZ'
p3178
sS'CharacterOffsetBegin'
p3179
S'583'
p3180
stp3181
a(S'the'
p3182
(dp3183
S'NamedEntityTag'
p3184
g118
sS'CharacterOffsetEnd'
p3185
S'594'
p3186
sS'Lemma'
p3187
S'the'
p3188
sS'PartOfSpeech'
p3189
S'DT'
p3190
sS'CharacterOffsetBegin'
p3191
S'591'
p3192
stp3193
a(S'front-runner'
p3194
(dp3195
S'NamedEntityTag'
p3196
g118
sS'CharacterOffsetEnd'
p3197
S'607'
p3198
sS'Lemma'
p3199
S'front-runner'
p3200
sS'PartOfSpeech'
p3201
S'NN'
p3202
sS'CharacterOffsetBegin'
p3203
S'595'
p3204
stp3205
a(S'for'
p3206
(dp3207
S'NamedEntityTag'
p3208
g118
sS'CharacterOffsetEnd'
p3209
S'611'
p3210
sS'Lemma'
p3211
S'for'
p3212
sS'PartOfSpeech'
p3213
S'IN'
p3214
sS'CharacterOffsetBegin'
p3215
S'608'
p3216
stp3217
a(S'the'
p3218
(dp3219
S'NamedEntityTag'
p3220
g118
sS'CharacterOffsetEnd'
p3221
S'615'
p3222
sS'Lemma'
p3223
S'the'
p3224
sS'PartOfSpeech'
p3225
S'DT'
p3226
sS'CharacterOffsetBegin'
p3227
S'612'
p3228
stp3229
a(S'premiership'
p3230
(dp3231
S'NamedEntityTag'
p3232
g118
sS'CharacterOffsetEnd'
p3233
S'627'
p3234
sS'Lemma'
p3235
S'premiership'
p3236
sS'PartOfSpeech'
p3237
S'NN'
p3238
sS'CharacterOffsetBegin'
p3239
S'616'
p3240
stp3241
a(g115
(dp3242
S'NamedEntityTag'
p3243
g118
sS'CharacterOffsetEnd'
p3244
S'628'
p3245
sS'Lemma'
p3246
g115
sS'PartOfSpeech'
p3247
g115
sS'CharacterOffsetBegin'
p3248
S'627'
p3249
stp3250
a(S'the'
p3251
(dp3252
S'NamedEntityTag'
p3253
g118
sS'CharacterOffsetEnd'
p3254
S'632'
p3255
sS'Lemma'
p3256
S'the'
p3257
sS'PartOfSpeech'
p3258
S'DT'
p3259
sS'CharacterOffsetBegin'
p3260
S'629'
p3261
stp3262
a(S'apparent'
p3263
(dp3264
S'NamedEntityTag'
p3265
g118
sS'CharacterOffsetEnd'
p3266
S'641'
p3267
sS'Lemma'
p3268
S'apparent'
p3269
sS'PartOfSpeech'
p3270
S'JJ'
p3271
sS'CharacterOffsetBegin'
p3272
S'633'
p3273
stp3274
a(S'tension'
p3275
(dp3276
S'NamedEntityTag'
p3277
g118
sS'CharacterOffsetEnd'
p3278
S'649'
p3279
sS'Lemma'
p3280
S'tension'
p3281
sS'PartOfSpeech'
p3282
S'NN'
p3283
sS'CharacterOffsetBegin'
p3284
S'642'
p3285
stp3286
a(S'between'
p3287
(dp3288
S'NamedEntityTag'
p3289
g118
sS'CharacterOffsetEnd'
p3290
S'657'
p3291
sS'Lemma'
p3292
S'between'
p3293
sS'PartOfSpeech'
p3294
S'IN'
p3295
sS'CharacterOffsetBegin'
p3296
S'650'
p3297
stp3298
a(S'the'
p3299
(dp3300
S'NamedEntityTag'
p3301
g118
sS'CharacterOffsetEnd'
p3302
S'661'
p3303
sS'Lemma'
p3304
S'the'
p3305
sS'PartOfSpeech'
p3306
S'DT'
p3307
sS'CharacterOffsetBegin'
p3308
S'658'
p3309
stp3310
a(S'two'
p3311
(dp3312
S'NormalizedNamedEntityTag'
p3313
S'2.0'
p3314
sS'Lemma'
p3315
S'two'
p3316
sS'CharacterOffsetEnd'
p3317
S'665'
p3318
sS'PartOfSpeech'
p3319
S'CD'
p3320
sS'CharacterOffsetBegin'
p3321
S'662'
p3322
sS'NamedEntityTag'
p3323
S'NUMBER'
p3324
stp3325
a(S'powerful'
p3326
(dp3327
S'NamedEntityTag'
p3328
g118
sS'CharacterOffsetEnd'
p3329
S'674'
p3330
sS'Lemma'
p3331
S'powerful'
p3332
sS'PartOfSpeech'
p3333
S'JJ'
p3334
sS'CharacterOffsetBegin'
p3335
S'666'
p3336
stp3337
a(S'men'
p3338
(dp3339
S'NamedEntityTag'
p3340
g118
sS'CharacterOffsetEnd'
p3341
S'678'
p3342
sS'Lemma'
p3343
S'man'
p3344
sS'PartOfSpeech'
p3345
S'NNS'
p3346
sS'CharacterOffsetBegin'
p3347
S'675'
p3348
stp3349
a(S'could'
p3350
(dp3351
S'NamedEntityTag'
p3352
g118
sS'CharacterOffsetEnd'
p3353
S'684'
p3354
sS'Lemma'
p3355
S'could'
p3356
sS'PartOfSpeech'
p3357
S'MD'
p3358
sS'CharacterOffsetBegin'
p3359
S'679'
p3360
stp3361
a(S'affect'
p3362
(dp3363
S'NamedEntityTag'
p3364
g118
sS'CharacterOffsetEnd'
p3365
S'691'
p3366
sS'Lemma'
p3367
S'affect'
p3368
sS'PartOfSpeech'
p3369
S'VB'
p3370
sS'CharacterOffsetBegin'
p3371
S'685'
p3372
stp3373
a(S'Lebanons'
p3374
(dp3375
S'NamedEntityTag'
p3376
S'PERSON'
p3377
sS'CharacterOffsetEnd'
p3378
S'700'
p3379
sS'Lemma'
p3380
S'Lebanons'
p3381
sS'PartOfSpeech'
p3382
S'NNP'
p3383
sS'CharacterOffsetBegin'
p3384
S'692'
p3385
stp3386
a(S'economic'
p3387
(dp3388
S'NamedEntityTag'
p3389
g118
sS'CharacterOffsetEnd'
p3390
S'709'
p3391
sS'Lemma'
p3392
S'economic'
p3393
sS'PartOfSpeech'
p3394
S'JJ'
p3395
sS'CharacterOffsetBegin'
p3396
S'701'
p3397
stp3398
a(S'stability'
p3399
(dp3400
S'NamedEntityTag'
p3401
g118
sS'CharacterOffsetEnd'
p3402
S'719'
p3403
sS'Lemma'
p3404
S'stability'
p3405
sS'PartOfSpeech'
p3406
S'NN'
p3407
sS'CharacterOffsetBegin'
p3408
S'710'
p3409
stp3410
a(S'as'
p3411
(dp3412
S'NamedEntityTag'
p3413
g118
sS'CharacterOffsetEnd'
p3414
S'722'
p3415
sS'Lemma'
p3416
S'as'
p3417
sS'PartOfSpeech'
p3418
S'IN'
p3419
sS'CharacterOffsetBegin'
p3420
S'720'
p3421
stp3422
a(S'it'
p3423
(dp3424
S'NamedEntityTag'
p3425
g118
sS'CharacterOffsetEnd'
p3426
S'725'
p3427
sS'Lemma'
p3428
S'it'
p3429
sS'PartOfSpeech'
p3430
S'PRP'
p3431
sS'CharacterOffsetBegin'
p3432
S'723'
p3433
stp3434
a(S'recovers'
p3435
(dp3436
S'NamedEntityTag'
p3437
g118
sS'CharacterOffsetEnd'
p3438
S'734'
p3439
sS'Lemma'
p3440
S'recover'
p3441
sS'PartOfSpeech'
p3442
S'VBZ'
p3443
sS'CharacterOffsetBegin'
p3444
S'726'
p3445
stp3446
a(S'from'
p3447
(dp3448
S'NamedEntityTag'
p3449
g118
sS'CharacterOffsetEnd'
p3450
S'739'
p3451
sS'Lemma'
p3452
S'from'
p3453
sS'PartOfSpeech'
p3454
S'IN'
p3455
sS'CharacterOffsetBegin'
p3456
S'735'
p3457
stp3458
a(S'the'
p3459
(dp3460
S'NamedEntityTag'
p3461
g118
sS'CharacterOffsetEnd'
p3462
S'743'
p3463
sS'Lemma'
p3464
S'the'
p3465
sS'PartOfSpeech'
p3466
S'DT'
p3467
sS'CharacterOffsetBegin'
p3468
S'740'
p3469
stp3470
a(S'1975-90'
p3471
(dp3472
S'NormalizedNamedEntityTag'
p3473
S'1975.0'
p3474
sS'Lemma'
p3475
S'1975-90'
p3476
sS'CharacterOffsetEnd'
p3477
S'751'
p3478
sS'PartOfSpeech'
p3479
S'CD'
p3480
sS'CharacterOffsetBegin'
p3481
S'744'
p3482
sS'NamedEntityTag'
p3483
S'NUMBER'
p3484
stp3485
a(S'civil'
p3486
(dp3487
S'NamedEntityTag'
p3488
g118
sS'CharacterOffsetEnd'
p3489
S'757'
p3490
sS'Lemma'
p3491
S'civil'
p3492
sS'PartOfSpeech'
p3493
S'JJ'
p3494
sS'CharacterOffsetBegin'
p3495
S'752'
p3496
stp3497
a(S'war'
p3498
(dp3499
S'NamedEntityTag'
p3500
g118
sS'CharacterOffsetEnd'
p3501
S'761'
p3502
sS'Lemma'
p3503
S'war'
p3504
sS'PartOfSpeech'
p3505
S'NN'
p3506
sS'CharacterOffsetBegin'
p3507
S'758'
p3508
stp3509
a(g530
(dp3510
S'NamedEntityTag'
p3511
g118
sS'CharacterOffsetEnd'
p3512
S'762'
p3513
sS'Lemma'
p3514
g530
sS'PartOfSpeech'
p3515
g530
sS'CharacterOffsetBegin'
p3516
S'761'
p3517
stp3518
asa(dp3519
g15
S'(ROOT (S (NP (NP (NNP Hariri)) (, ,) (NP (CD 53)) (, ,) (NP (NP (NP (DT the) (NN architect)) (PP (IN of) (NP (NNPS Lebanons)))) (NP (JJ multibillion) (NN dollar) (JJ postwar) (NN reconstruction) (NN program))) (, ,)) (VP (VBZ has) (VP (VBN been) (PP (IN in) (NP (NN power))) (PP (IN since) (NP (CD 1992))))) (. .)))'
p3520
sg17
S'Hariri, 53, the architect of Lebanons multibillion dollar postwar reconstruction program, has been in power since 1992.'
p3521
sg19
(lp3522
(S'root'
p3523
S'ROOT'
p3524
S'been'
p3525
tp3526
a(S'nsubj'
p3527
S'been'
p3528
S'Hariri'
p3529
tp3530
a(S'amod'
p3531
S'Hariri'
p3532
S'53'
p3533
tp3534
a(S'det'
p3535
S'architect'
p3536
S'the'
p3537
tp3538
a(S'appos'
p3539
S'Hariri'
p3540
S'architect'
p3541
tp3542
a(S'prep_of'
p3543
S'architect'
p3544
S'Lebanons'
p3545
tp3546
a(S'amod'
p3547
S'program'
p3548
S'multibillion'
p3549
tp3550
a(S'nn'
p3551
S'program'
p3552
S'dollar'
p3553
tp3554
a(S'amod'
p3555
S'program'
p3556
S'postwar'
p3557
tp3558
a(S'nn'
p3559
S'program'
p3560
S'reconstruction'
p3561
tp3562
a(S'dep'
p3563
S'architect'
p3564
S'program'
p3565
tp3566
a(S'aux'
p3567
S'been'
p3568
S'has'
p3569
tp3570
a(S'prep_in'
p3571
S'been'
p3572
S'power'
p3573
tp3574
a(S'prep_since'
p3575
S'been'
p3576
S'1992'
p3577
tp3578
asg65
(lp3579
(g3523
S'ROOT-0'
p3580
S'been-16'
p3581
tp3582
a(g3527
S'been-16'
p3583
S'Hariri-1'
p3584
tp3585
a(g3531
S'Hariri-1'
p3586
S'53-3'
p3587
tp3588
a(g3535
S'architect-6'
p3589
S'the-5'
p3590
tp3591
a(g3539
S'Hariri-1'
p3592
S'architect-6'
p3593
tp3594
a(g3543
S'architect-6'
p3595
S'Lebanons-8'
p3596
tp3597
a(g3547
S'program-13'
p3598
S'multibillion-9'
p3599
tp3600
a(g3551
S'program-13'
p3601
S'dollar-10'
p3602
tp3603
a(g3555
S'program-13'
p3604
S'postwar-11'
p3605
tp3606
a(g3559
S'program-13'
p3607
S'reconstruction-12'
p3608
tp3609
a(g3563
S'architect-6'
p3610
S'program-13'
p3611
tp3612
a(g3567
S'been-16'
p3613
S'has-15'
p3614
tp3615
a(g3571
S'been-16'
p3616
S'power-18'
p3617
tp3618
a(g3575
S'been-16'
p3619
S'1992-20'
p3620
tp3621
asg100
(lp3622
(S'Hariri'
p3623
(dp3624
S'NamedEntityTag'
p3625
S'PERSON'
p3626
sS'CharacterOffsetEnd'
p3627
S'769'
p3628
sS'Lemma'
p3629
S'Hariri'
p3630
sS'PartOfSpeech'
p3631
S'NNP'
p3632
sS'CharacterOffsetBegin'
p3633
S'763'
p3634
stp3635
a(g115
(dp3636
S'NamedEntityTag'
p3637
g118
sS'CharacterOffsetEnd'
p3638
S'770'
p3639
sS'Lemma'
p3640
g115
sS'PartOfSpeech'
p3641
g115
sS'CharacterOffsetBegin'
p3642
S'769'
p3643
stp3644
a(S'53'
p3645
(dp3646
S'NormalizedNamedEntityTag'
p3647
S'53.0'
p3648
sS'Lemma'
p3649
S'53'
p3650
sS'CharacterOffsetEnd'
p3651
S'773'
p3652
sS'PartOfSpeech'
p3653
S'CD'
p3654
sS'CharacterOffsetBegin'
p3655
S'771'
p3656
sS'NamedEntityTag'
p3657
S'NUMBER'
p3658
stp3659
a(g115
(dp3660
S'NamedEntityTag'
p3661
g118
sS'CharacterOffsetEnd'
p3662
S'774'
p3663
sS'Lemma'
p3664
g115
sS'PartOfSpeech'
p3665
g115
sS'CharacterOffsetBegin'
p3666
S'773'
p3667
stp3668
a(S'the'
p3669
(dp3670
S'NamedEntityTag'
p3671
g118
sS'CharacterOffsetEnd'
p3672
S'778'
p3673
sS'Lemma'
p3674
S'the'
p3675
sS'PartOfSpeech'
p3676
S'DT'
p3677
sS'CharacterOffsetBegin'
p3678
S'775'
p3679
stp3680
a(S'architect'
p3681
(dp3682
S'NamedEntityTag'
p3683
g118
sS'CharacterOffsetEnd'
p3684
S'788'
p3685
sS'Lemma'
p3686
S'architect'
p3687
sS'PartOfSpeech'
p3688
S'NN'
p3689
sS'CharacterOffsetBegin'
p3690
S'779'
p3691
stp3692
a(S'of'
p3693
(dp3694
S'NamedEntityTag'
p3695
g118
sS'CharacterOffsetEnd'
p3696
S'791'
p3697
sS'Lemma'
p3698
S'of'
p3699
sS'PartOfSpeech'
p3700
S'IN'
p3701
sS'CharacterOffsetBegin'
p3702
S'789'
p3703
stp3704
a(S'Lebanons'
p3705
(dp3706
S'NamedEntityTag'
p3707
S'LOCATION'
p3708
sS'CharacterOffsetEnd'
p3709
S'800'
p3710
sS'Lemma'
p3711
S'Lebanons'
p3712
sS'PartOfSpeech'
p3713
S'NNPS'
p3714
sS'CharacterOffsetBegin'
p3715
S'792'
p3716
stp3717
a(S'multibillion'
p3718
(dp3719
S'NamedEntityTag'
p3720
g118
sS'CharacterOffsetEnd'
p3721
S'813'
p3722
sS'Lemma'
p3723
S'multibillion'
p3724
sS'PartOfSpeech'
p3725
S'JJ'
p3726
sS'CharacterOffsetBegin'
p3727
S'801'
p3728
stp3729
a(S'dollar'
p3730
(dp3731
S'NamedEntityTag'
p3732
g118
sS'CharacterOffsetEnd'
p3733
S'820'
p3734
sS'Lemma'
p3735
S'dollar'
p3736
sS'PartOfSpeech'
p3737
S'NN'
p3738
sS'CharacterOffsetBegin'
p3739
S'814'
p3740
stp3741
a(S'postwar'
p3742
(dp3743
S'NamedEntityTag'
p3744
g118
sS'CharacterOffsetEnd'
p3745
S'828'
p3746
sS'Lemma'
p3747
S'postwar'
p3748
sS'PartOfSpeech'
p3749
S'JJ'
p3750
sS'CharacterOffsetBegin'
p3751
S'821'
p3752
stp3753
a(S'reconstruction'
p3754
(dp3755
S'NamedEntityTag'
p3756
g118
sS'CharacterOffsetEnd'
p3757
S'843'
p3758
sS'Lemma'
p3759
S'reconstruction'
p3760
sS'PartOfSpeech'
p3761
S'NN'
p3762
sS'CharacterOffsetBegin'
p3763
S'829'
p3764
stp3765
a(S'program'
p3766
(dp3767
S'NamedEntityTag'
p3768
g118
sS'CharacterOffsetEnd'
p3769
S'851'
p3770
sS'Lemma'
p3771
S'program'
p3772
sS'PartOfSpeech'
p3773
S'NN'
p3774
sS'CharacterOffsetBegin'
p3775
S'844'
p3776
stp3777
a(g115
(dp3778
S'NamedEntityTag'
p3779
g118
sS'CharacterOffsetEnd'
p3780
S'852'
p3781
sS'Lemma'
p3782
g115
sS'PartOfSpeech'
p3783
g115
sS'CharacterOffsetBegin'
p3784
S'851'
p3785
stp3786
a(S'has'
p3787
(dp3788
S'NamedEntityTag'
p3789
g118
sS'CharacterOffsetEnd'
p3790
S'856'
p3791
sS'Lemma'
p3792
S'have'
p3793
sS'PartOfSpeech'
p3794
S'VBZ'
p3795
sS'CharacterOffsetBegin'
p3796
S'853'
p3797
stp3798
a(S'been'
p3799
(dp3800
S'NamedEntityTag'
p3801
g118
sS'CharacterOffsetEnd'
p3802
S'861'
p3803
sS'Lemma'
p3804
S'be'
p3805
sS'PartOfSpeech'
p3806
S'VBN'
p3807
sS'CharacterOffsetBegin'
p3808
S'857'
p3809
stp3810
a(S'in'
p3811
(dp3812
S'NamedEntityTag'
p3813
g118
sS'CharacterOffsetEnd'
p3814
S'864'
p3815
sS'Lemma'
p3816
S'in'
p3817
sS'PartOfSpeech'
p3818
S'IN'
p3819
sS'CharacterOffsetBegin'
p3820
S'862'
p3821
stp3822
a(S'power'
p3823
(dp3824
S'NamedEntityTag'
p3825
g118
sS'CharacterOffsetEnd'
p3826
S'870'
p3827
sS'Lemma'
p3828
S'power'
p3829
sS'PartOfSpeech'
p3830
S'NN'
p3831
sS'CharacterOffsetBegin'
p3832
S'865'
p3833
stp3834
a(S'since'
p3835
(dp3836
S'NamedEntityTag'
p3837
g118
sS'CharacterOffsetEnd'
p3838
S'876'
p3839
sS'Lemma'
p3840
S'since'
p3841
sS'PartOfSpeech'
p3842
S'IN'
p3843
sS'CharacterOffsetBegin'
p3844
S'871'
p3845
stp3846
a(S'1992'
p3847
(dp3848
S'NormalizedNamedEntityTag'
p3849
S'1992'
p3850
sS'Timex'
p3851
S'<TIMEX3 tid="t3" type="DATE" value="1992">1992</TIMEX3>'
p3852
sS'Lemma'
p3853
S'1992'
p3854
sS'CharacterOffsetEnd'
p3855
S'881'
p3856
sS'PartOfSpeech'
p3857
S'CD'
p3858
sS'CharacterOffsetBegin'
p3859
S'877'
p3860
sS'NamedEntityTag'
p3861
S'DATE'
p3862
stp3863
a(g530
(dp3864
S'NamedEntityTag'
p3865
g118
sS'CharacterOffsetEnd'
p3866
S'882'
p3867
sS'Lemma'
p3868
g530
sS'PartOfSpeech'
p3869
g530
sS'CharacterOffsetBegin'
p3870
S'881'
p3871
stp3872
asa(dp3873
g15
S'(ROOT (S (NP (NP (DT A) (NN billionaire) (NN businessman)) (SBAR (WHNP (WP who)) (S (VP (VBD made) (NP (PRP$ his) (NN fortune)) (PP (IN in) (NP (NP (NNP Saudi) (NNP Arabia)) (, ,) (NP (NNP Hariri)))))))) (VP (VBZ is) (VP (VBN credited) (PP (IN with) (S (VP (VP (VBG restoring) (NP (JJ economic) (NN confidence))) (CC and) (VP (VBG stabilizing) (NP (DT the) (JJ national) (NN currency)))))))) (. .)))'
p3874
sg17
S'A billionaire businessman who made his fortune in Saudi Arabia, Hariri is credited with restoring economic confidence and stabilizing the national currency.'
p3875
sg19
(lp3876
(S'root'
p3877
S'ROOT'
p3878
S'credited'
p3879
tp3880
a(S'det'
p3881
S'businessman'
p3882
S'A'
p3883
tp3884
a(S'nn'
p3885
S'businessman'
p3886
S'billionaire'
p3887
tp3888
a(S'nsubjpass'
p3889
S'credited'
p3890
S'businessman'
p3891
tp3892
a(S'nsubj'
p3893
S'made'
p3894
S'who'
p3895
tp3896
a(S'rcmod'
p3897
S'businessman'
p3898
S'made'
p3899
tp3900
a(S'poss'
p3901
S'fortune'
p3902
S'his'
p3903
tp3904
a(S'dobj'
p3905
S'made'
p3906
S'fortune'
p3907
tp3908
a(S'nn'
p3909
S'Arabia'
p3910
S'Saudi'
p3911
tp3912
a(S'prep_in'
p3913
S'made'
p3914
S'Arabia'
p3915
tp3916
a(S'appos'
p3917
S'Arabia'
p3918
S'Hariri'
p3919
tp3920
a(S'auxpass'
p3921
S'credited'
p3922
S'is'
p3923
tp3924
a(S'prepc_with'
p3925
S'credited'
p3926
S'restoring'
p3927
tp3928
a(S'amod'
p3929
S'confidence'
p3930
S'economic'
p3931
tp3932
a(S'dobj'
p3933
S'restoring'
p3934
S'confidence'
p3935
tp3936
a(S'conj_and'
p3937
S'restoring'
p3938
S'stabilizing'
p3939
tp3940
a(S'det'
p3941
S'currency'
p3942
S'the'
p3943
tp3944
a(S'amod'
p3945
S'currency'
p3946
S'national'
p3947
tp3948
a(S'dobj'
p3949
S'stabilizing'
p3950
S'currency'
p3951
tp3952
asg65
(lp3953
(g3877
S'ROOT-0'
p3954
S'credited-14'
p3955
tp3956
a(g3881
S'businessman-3'
p3957
S'A-1'
p3958
tp3959
a(g3885
S'businessman-3'
p3960
S'billionaire-2'
p3961
tp3962
a(g3889
S'credited-14'
p3963
S'businessman-3'
p3964
tp3965
a(g3893
S'made-5'
p3966
S'who-4'
p3967
tp3968
a(g3897
S'businessman-3'
p3969
S'made-5'
p3970
tp3971
a(g3901
S'fortune-7'
p3972
S'his-6'
p3973
tp3974
a(g3905
S'made-5'
p3975
S'fortune-7'
p3976
tp3977
a(g3909
S'Arabia-10'
p3978
S'Saudi-9'
p3979
tp3980
a(g3913
S'made-5'
p3981
S'Arabia-10'
p3982
tp3983
a(g3917
S'Arabia-10'
p3984
S'Hariri-12'
p3985
tp3986
a(g3921
S'credited-14'
p3987
S'is-13'
p3988
tp3989
a(g3925
S'credited-14'
p3990
S'restoring-16'
p3991
tp3992
a(g3929
S'confidence-18'
p3993
S'economic-17'
p3994
tp3995
a(g3933
S'restoring-16'
p3996
S'confidence-18'
p3997
tp3998
a(g3937
S'restoring-16'
p3999
S'stabilizing-20'
p4000
tp4001
a(g3941
S'currency-23'
p4002
S'the-21'
p4003
tp4004
a(g3945
S'currency-23'
p4005
S'national-22'
p4006
tp4007
a(g3949
S'stabilizing-20'
p4008
S'currency-23'
p4009
tp4010
asg100
(lp4011
(g3883
(dp4012
S'NamedEntityTag'
p4013
g118
sS'CharacterOffsetEnd'
p4014
S'884'
p4015
sS'Lemma'
p4016
g1318
sS'PartOfSpeech'
p4017
S'DT'
p4018
sS'CharacterOffsetBegin'
p4019
S'883'
p4020
stp4021
a(S'billionaire'
p4022
(dp4023
S'NamedEntityTag'
p4024
g118
sS'CharacterOffsetEnd'
p4025
S'896'
p4026
sS'Lemma'
p4027
S'billionaire'
p4028
sS'PartOfSpeech'
p4029
S'NN'
p4030
sS'CharacterOffsetBegin'
p4031
S'885'
p4032
stp4033
a(S'businessman'
p4034
(dp4035
S'NamedEntityTag'
p4036
g118
sS'CharacterOffsetEnd'
p4037
S'908'
p4038
sS'Lemma'
p4039
S'businessman'
p4040
sS'PartOfSpeech'
p4041
S'NN'
p4042
sS'CharacterOffsetBegin'
p4043
S'897'
p4044
stp4045
a(S'who'
p4046
(dp4047
S'NamedEntityTag'
p4048
g118
sS'CharacterOffsetEnd'
p4049
S'912'
p4050
sS'Lemma'
p4051
S'who'
p4052
sS'PartOfSpeech'
p4053
S'WP'
p4054
sS'CharacterOffsetBegin'
p4055
S'909'
p4056
stp4057
a(S'made'
p4058
(dp4059
S'NamedEntityTag'
p4060
g118
sS'CharacterOffsetEnd'
p4061
S'917'
p4062
sS'Lemma'
p4063
S'make'
p4064
sS'PartOfSpeech'
p4065
S'VBD'
p4066
sS'CharacterOffsetBegin'
p4067
S'913'
p4068
stp4069
a(S'his'
p4070
(dp4071
S'NamedEntityTag'
p4072
g118
sS'CharacterOffsetEnd'
p4073
S'921'
p4074
sS'Lemma'
p4075
S'he'
p4076
sS'PartOfSpeech'
p4077
S'PRP$'
p4078
sS'CharacterOffsetBegin'
p4079
S'918'
p4080
stp4081
a(S'fortune'
p4082
(dp4083
S'NamedEntityTag'
p4084
g118
sS'CharacterOffsetEnd'
p4085
S'929'
p4086
sS'Lemma'
p4087
S'fortune'
p4088
sS'PartOfSpeech'
p4089
S'NN'
p4090
sS'CharacterOffsetBegin'
p4091
S'922'
p4092
stp4093
a(S'in'
p4094
(dp4095
S'NamedEntityTag'
p4096
g118
sS'CharacterOffsetEnd'
p4097
S'932'
p4098
sS'Lemma'
p4099
S'in'
p4100
sS'PartOfSpeech'
p4101
S'IN'
p4102
sS'CharacterOffsetBegin'
p4103
S'930'
p4104
stp4105
a(S'Saudi'
p4106
(dp4107
S'NamedEntityTag'
p4108
S'LOCATION'
p4109
sS'CharacterOffsetEnd'
p4110
S'938'
p4111
sS'Lemma'
p4112
S'Saudi'
p4113
sS'PartOfSpeech'
p4114
S'NNP'
p4115
sS'CharacterOffsetBegin'
p4116
S'933'
p4117
stp4118
a(S'Arabia'
p4119
(dp4120
S'NamedEntityTag'
p4121
S'LOCATION'
p4122
sS'CharacterOffsetEnd'
p4123
S'945'
p4124
sS'Lemma'
p4125
S'Arabia'
p4126
sS'PartOfSpeech'
p4127
S'NNP'
p4128
sS'CharacterOffsetBegin'
p4129
S'939'
p4130
stp4131
a(g115
(dp4132
S'NamedEntityTag'
p4133
g118
sS'CharacterOffsetEnd'
p4134
S'946'
p4135
sS'Lemma'
p4136
g115
sS'PartOfSpeech'
p4137
g115
sS'CharacterOffsetBegin'
p4138
S'945'
p4139
stp4140
a(S'Hariri'
p4141
(dp4142
S'NamedEntityTag'
p4143
S'PERSON'
p4144
sS'CharacterOffsetEnd'
p4145
S'953'
p4146
sS'Lemma'
p4147
S'Hariri'
p4148
sS'PartOfSpeech'
p4149
S'NNP'
p4150
sS'CharacterOffsetBegin'
p4151
S'947'
p4152
stp4153
a(S'is'
p4154
(dp4155
S'NamedEntityTag'
p4156
g118
sS'CharacterOffsetEnd'
p4157
S'956'
p4158
sS'Lemma'
p4159
S'be'
p4160
sS'PartOfSpeech'
p4161
S'VBZ'
p4162
sS'CharacterOffsetBegin'
p4163
S'954'
p4164
stp4165
a(S'credited'
p4166
(dp4167
S'NamedEntityTag'
p4168
g118
sS'CharacterOffsetEnd'
p4169
S'965'
p4170
sS'Lemma'
p4171
S'credit'
p4172
sS'PartOfSpeech'
p4173
S'VBN'
p4174
sS'CharacterOffsetBegin'
p4175
S'957'
p4176
stp4177
a(S'with'
p4178
(dp4179
S'NamedEntityTag'
p4180
g118
sS'CharacterOffsetEnd'
p4181
S'970'
p4182
sS'Lemma'
p4183
S'with'
p4184
sS'PartOfSpeech'
p4185
S'IN'
p4186
sS'CharacterOffsetBegin'
p4187
S'966'
p4188
stp4189
a(S'restoring'
p4190
(dp4191
S'NamedEntityTag'
p4192
g118
sS'CharacterOffsetEnd'
p4193
S'980'
p4194
sS'Lemma'
p4195
S'restore'
p4196
sS'PartOfSpeech'
p4197
S'VBG'
p4198
sS'CharacterOffsetBegin'
p4199
S'971'
p4200
stp4201
a(S'economic'
p4202
(dp4203
S'NamedEntityTag'
p4204
g118
sS'CharacterOffsetEnd'
p4205
S'989'
p4206
sS'Lemma'
p4207
S'economic'
p4208
sS'PartOfSpeech'
p4209
S'JJ'
p4210
sS'CharacterOffsetBegin'
p4211
S'981'
p4212
stp4213
a(S'confidence'
p4214
(dp4215
S'NamedEntityTag'
p4216
g118
sS'CharacterOffsetEnd'
p4217
S'1000'
p4218
sS'Lemma'
p4219
S'confidence'
p4220
sS'PartOfSpeech'
p4221
S'NN'
p4222
sS'CharacterOffsetBegin'
p4223
S'990'
p4224
stp4225
a(S'and'
p4226
(dp4227
S'NamedEntityTag'
p4228
g118
sS'CharacterOffsetEnd'
p4229
S'1004'
p4230
sS'Lemma'
p4231
S'and'
p4232
sS'PartOfSpeech'
p4233
S'CC'
p4234
sS'CharacterOffsetBegin'
p4235
S'1001'
p4236
stp4237
a(S'stabilizing'
p4238
(dp4239
S'NamedEntityTag'
p4240
g118
sS'CharacterOffsetEnd'
p4241
S'1016'
p4242
sS'Lemma'
p4243
S'stabilize'
p4244
sS'PartOfSpeech'
p4245
S'VBG'
p4246
sS'CharacterOffsetBegin'
p4247
S'1005'
p4248
stp4249
a(S'the'
p4250
(dp4251
S'NamedEntityTag'
p4252
g118
sS'CharacterOffsetEnd'
p4253
S'1020'
p4254
sS'Lemma'
p4255
S'the'
p4256
sS'PartOfSpeech'
p4257
S'DT'
p4258
sS'CharacterOffsetBegin'
p4259
S'1017'
p4260
stp4261
a(S'national'
p4262
(dp4263
S'NamedEntityTag'
p4264
g118
sS'CharacterOffsetEnd'
p4265
S'1029'
p4266
sS'Lemma'
p4267
S'national'
p4268
sS'PartOfSpeech'
p4269
S'JJ'
p4270
sS'CharacterOffsetBegin'
p4271
S'1021'
p4272
stp4273
a(S'currency'
p4274
(dp4275
S'NamedEntityTag'
p4276
g118
sS'CharacterOffsetEnd'
p4277
S'1038'
p4278
sS'Lemma'
p4279
S'currency'
p4280
sS'PartOfSpeech'
p4281
S'NN'
p4282
sS'CharacterOffsetBegin'
p4283
S'1030'
p4284
stp4285
a(g530
(dp4286
S'NamedEntityTag'
p4287
g118
sS'CharacterOffsetEnd'
p4288
S'1039'
p4289
sS'Lemma'
p4290
g530
sS'PartOfSpeech'
p4291
g530
sS'CharacterOffsetBegin'
p4292
S'1038'
p4293
stp4294
asa(dp4295
g15
S'(ROOT (S (NP (NNP Lahoud)) (, ,) (NP (NP (CD 62)) (, ,) (NP (NP (NN commander)) (PP (IN of) (NP (NNPS Lebanons) (NN army))) (SBAR (WHNP (WP who)) (S (VP (VBD was) (VP (VBN propelled) (PP (TO to) (NP (NN power))) (PP (IN with) (NP (JJ widespread) (JJ popular) (NN backing)))))))) (, ,)) (VP (VBN pledged) (PP (IN in) (NP (DT a) (JJ tough) (NN inauguration) (NN speech))) (S (VP (TO to) (VP (VB clean) (PRT (RP up)) (NP (DT the) (JJ graft-riddled) (NN administration)))))) (. .)))'
p4296
sg17
S'Lahoud, 62, commander of Lebanons army who was propelled to power with widespread popular backing, pledged in a tough inauguration speech to clean up the graft-riddled administration.'
p4297
sg19
(lp4298
(S'root'
p4299
S'ROOT'
p4300
S'pledged'
p4301
tp4302
a(S'nsubj'
p4303
S'pledged'
p4304
S'Lahoud'
p4305
tp4306
a(S'nsubj'
p4307
S'pledged'
p4308
S'62'
p4309
tp4310
a(S'appos'
p4311
S'62'
p4312
S'commander'
p4313
tp4314
a(S'nn'
p4315
S'army'
p4316
S'Lebanons'
p4317
tp4318
a(S'prep_of'
p4319
S'commander'
p4320
S'army'
p4321
tp4322
a(S'nsubjpass'
p4323
S'propelled'
p4324
S'who'
p4325
tp4326
a(S'auxpass'
p4327
S'propelled'
p4328
S'was'
p4329
tp4330
a(S'rcmod'
p4331
S'commander'
p4332
S'propelled'
p4333
tp4334
a(S'prep_to'
p4335
S'propelled'
p4336
S'power'
p4337
tp4338
a(S'amod'
p4339
S'backing'
p4340
S'widespread'
p4341
tp4342
a(S'amod'
p4343
S'backing'
p4344
S'popular'
p4345
tp4346
a(S'prep_with'
p4347
S'propelled'
p4348
S'backing'
p4349
tp4350
a(S'det'
p4351
S'speech'
p4352
g1318
tp4353
a(S'amod'
p4354
S'speech'
p4355
S'tough'
p4356
tp4357
a(S'nn'
p4358
S'speech'
p4359
S'inauguration'
p4360
tp4361
a(S'prep_in'
p4362
S'pledged'
p4363
S'speech'
p4364
tp4365
a(S'aux'
p4366
S'clean'
p4367
S'to'
p4368
tp4369
a(S'xcomp'
p4370
S'pledged'
p4371
S'clean'
p4372
tp4373
a(S'prt'
p4374
S'clean'
p4375
S'up'
p4376
tp4377
a(S'det'
p4378
S'administration'
p4379
S'the'
p4380
tp4381
a(S'amod'
p4382
S'administration'
p4383
S'graft-riddled'
p4384
tp4385
a(S'dobj'
p4386
S'clean'
p4387
S'administration'
p4388
tp4389
asg65
(lp4390
(g4299
S'ROOT-0'
p4391
S'pledged-19'
p4392
tp4393
a(g4303
S'pledged-19'
p4394
S'Lahoud-1'
p4395
tp4396
a(g4307
S'pledged-19'
p4397
S'62-3'
p4398
tp4399
a(g4311
S'62-3'
p4400
S'commander-5'
p4401
tp4402
a(g4315
S'army-8'
p4403
S'Lebanons-7'
p4404
tp4405
a(g4319
S'commander-5'
p4406
S'army-8'
p4407
tp4408
a(g4323
S'propelled-11'
p4409
S'who-9'
p4410
tp4411
a(g4327
S'propelled-11'
p4412
S'was-10'
p4413
tp4414
a(g4331
S'commander-5'
p4415
S'propelled-11'
p4416
tp4417
a(g4335
S'propelled-11'
p4418
S'power-13'
p4419
tp4420
a(g4339
S'backing-17'
p4421
S'widespread-15'
p4422
tp4423
a(g4343
S'backing-17'
p4424
S'popular-16'
p4425
tp4426
a(g4347
S'propelled-11'
p4427
S'backing-17'
p4428
tp4429
a(g4351
S'speech-24'
p4430
S'a-21'
p4431
tp4432
a(g4354
S'speech-24'
p4433
S'tough-22'
p4434
tp4435
a(g4358
S'speech-24'
p4436
S'inauguration-23'
p4437
tp4438
a(g4362
S'pledged-19'
p4439
S'speech-24'
p4440
tp4441
a(g4366
S'clean-26'
p4442
S'to-25'
p4443
tp4444
a(g4370
S'pledged-19'
p4445
S'clean-26'
p4446
tp4447
a(g4374
S'clean-26'
p4448
S'up-27'
p4449
tp4450
a(g4378
S'administration-30'
p4451
S'the-28'
p4452
tp4453
a(g4382
S'administration-30'
p4454
S'graft-riddled-29'
p4455
tp4456
a(g4386
S'clean-26'
p4457
S'administration-30'
p4458
tp4459
asg100
(lp4460
(S'Lahoud'
p4461
(dp4462
S'NamedEntityTag'
p4463
S'PERSON'
p4464
sS'CharacterOffsetEnd'
p4465
S'1046'
p4466
sS'Lemma'
p4467
S'Lahoud'
p4468
sS'PartOfSpeech'
p4469
S'NNP'
p4470
sS'CharacterOffsetBegin'
p4471
S'1040'
p4472
stp4473
a(g115
(dp4474
S'NamedEntityTag'
p4475
g118
sS'CharacterOffsetEnd'
p4476
S'1047'
p4477
sS'Lemma'
p4478
g115
sS'PartOfSpeech'
p4479
g115
sS'CharacterOffsetBegin'
p4480
S'1046'
p4481
stp4482
a(S'62'
p4483
(dp4484
S'NormalizedNamedEntityTag'
p4485
S'62.0'
p4486
sS'Lemma'
p4487
S'62'
p4488
sS'CharacterOffsetEnd'
p4489
S'1050'
p4490
sS'PartOfSpeech'
p4491
S'CD'
p4492
sS'CharacterOffsetBegin'
p4493
S'1048'
p4494
sS'NamedEntityTag'
p4495
S'NUMBER'
p4496
stp4497
a(g115
(dp4498
S'NamedEntityTag'
p4499
g118
sS'CharacterOffsetEnd'
p4500
S'1051'
p4501
sS'Lemma'
p4502
g115
sS'PartOfSpeech'
p4503
g115
sS'CharacterOffsetBegin'
p4504
S'1050'
p4505
stp4506
a(S'commander'
p4507
(dp4508
S'NamedEntityTag'
p4509
g118
sS'CharacterOffsetEnd'
p4510
S'1061'
p4511
sS'Lemma'
p4512
S'commander'
p4513
sS'PartOfSpeech'
p4514
S'NN'
p4515
sS'CharacterOffsetBegin'
p4516
S'1052'
p4517
stp4518
a(S'of'
p4519
(dp4520
S'NamedEntityTag'
p4521
g118
sS'CharacterOffsetEnd'
p4522
S'1064'
p4523
sS'Lemma'
p4524
S'of'
p4525
sS'PartOfSpeech'
p4526
S'IN'
p4527
sS'CharacterOffsetBegin'
p4528
S'1062'
p4529
stp4530
a(S'Lebanons'
p4531
(dp4532
S'NamedEntityTag'
p4533
S'LOCATION'
p4534
sS'CharacterOffsetEnd'
p4535
S'1073'
p4536
sS'Lemma'
p4537
S'Lebanons'
p4538
sS'PartOfSpeech'
p4539
S'NNPS'
p4540
sS'CharacterOffsetBegin'
p4541
S'1065'
p4542
stp4543
a(S'army'
p4544
(dp4545
S'NamedEntityTag'
p4546
g118
sS'CharacterOffsetEnd'
p4547
S'1078'
p4548
sS'Lemma'
p4549
S'army'
p4550
sS'PartOfSpeech'
p4551
S'NN'
p4552
sS'CharacterOffsetBegin'
p4553
S'1074'
p4554
stp4555
a(S'who'
p4556
(dp4557
S'NamedEntityTag'
p4558
g118
sS'CharacterOffsetEnd'
p4559
S'1082'
p4560
sS'Lemma'
p4561
S'who'
p4562
sS'PartOfSpeech'
p4563
S'WP'
p4564
sS'CharacterOffsetBegin'
p4565
S'1079'
p4566
stp4567
a(S'was'
p4568
(dp4569
S'NamedEntityTag'
p4570
g118
sS'CharacterOffsetEnd'
p4571
S'1086'
p4572
sS'Lemma'
p4573
S'be'
p4574
sS'PartOfSpeech'
p4575
S'VBD'
p4576
sS'CharacterOffsetBegin'
p4577
S'1083'
p4578
stp4579
a(S'propelled'
p4580
(dp4581
S'NamedEntityTag'
p4582
g118
sS'CharacterOffsetEnd'
p4583
S'1096'
p4584
sS'Lemma'
p4585
S'propel'
p4586
sS'PartOfSpeech'
p4587
S'VBN'
p4588
sS'CharacterOffsetBegin'
p4589
S'1087'
p4590
stp4591
a(S'to'
p4592
(dp4593
S'NamedEntityTag'
p4594
g118
sS'CharacterOffsetEnd'
p4595
S'1099'
p4596
sS'Lemma'
p4597
S'to'
p4598
sS'PartOfSpeech'
p4599
S'TO'
p4600
sS'CharacterOffsetBegin'
p4601
S'1097'
p4602
stp4603
a(S'power'
p4604
(dp4605
S'NamedEntityTag'
p4606
g118
sS'CharacterOffsetEnd'
p4607
S'1105'
p4608
sS'Lemma'
p4609
S'power'
p4610
sS'PartOfSpeech'
p4611
S'NN'
p4612
sS'CharacterOffsetBegin'
p4613
S'1100'
p4614
stp4615
a(S'with'
p4616
(dp4617
S'NamedEntityTag'
p4618
g118
sS'CharacterOffsetEnd'
p4619
S'1110'
p4620
sS'Lemma'
p4621
S'with'
p4622
sS'PartOfSpeech'
p4623
S'IN'
p4624
sS'CharacterOffsetBegin'
p4625
S'1106'
p4626
stp4627
a(S'widespread'
p4628
(dp4629
S'NamedEntityTag'
p4630
g118
sS'CharacterOffsetEnd'
p4631
S'1121'
p4632
sS'Lemma'
p4633
S'widespread'
p4634
sS'PartOfSpeech'
p4635
S'JJ'
p4636
sS'CharacterOffsetBegin'
p4637
S'1111'
p4638
stp4639
a(S'popular'
p4640
(dp4641
S'NamedEntityTag'
p4642
g118
sS'CharacterOffsetEnd'
p4643
S'1129'
p4644
sS'Lemma'
p4645
S'popular'
p4646
sS'PartOfSpeech'
p4647
S'JJ'
p4648
sS'CharacterOffsetBegin'
p4649
S'1122'
p4650
stp4651
a(S'backing'
p4652
(dp4653
S'NamedEntityTag'
p4654
g118
sS'CharacterOffsetEnd'
p4655
S'1137'
p4656
sS'Lemma'
p4657
S'backing'
p4658
sS'PartOfSpeech'
p4659
S'NN'
p4660
sS'CharacterOffsetBegin'
p4661
S'1130'
p4662
stp4663
a(g115
(dp4664
S'NamedEntityTag'
p4665
g118
sS'CharacterOffsetEnd'
p4666
S'1138'
p4667
sS'Lemma'
p4668
g115
sS'PartOfSpeech'
p4669
g115
sS'CharacterOffsetBegin'
p4670
S'1137'
p4671
stp4672
a(S'pledged'
p4673
(dp4674
S'NamedEntityTag'
p4675
g118
sS'CharacterOffsetEnd'
p4676
S'1146'
p4677
sS'Lemma'
p4678
S'pledge'
p4679
sS'PartOfSpeech'
p4680
S'VBN'
p4681
sS'CharacterOffsetBegin'
p4682
S'1139'
p4683
stp4684
a(S'in'
p4685
(dp4686
S'NamedEntityTag'
p4687
g118
sS'CharacterOffsetEnd'
p4688
S'1149'
p4689
sS'Lemma'
p4690
S'in'
p4691
sS'PartOfSpeech'
p4692
S'IN'
p4693
sS'CharacterOffsetBegin'
p4694
S'1147'
p4695
stp4696
a(g1318
(dp4697
S'NamedEntityTag'
p4698
g118
sS'CharacterOffsetEnd'
p4699
S'1151'
p4700
sS'Lemma'
p4701
g1318
sS'PartOfSpeech'
p4702
S'DT'
p4703
sS'CharacterOffsetBegin'
p4704
S'1150'
p4705
stp4706
a(S'tough'
p4707
(dp4708
S'NamedEntityTag'
p4709
g118
sS'CharacterOffsetEnd'
p4710
S'1157'
p4711
sS'Lemma'
p4712
S'tough'
p4713
sS'PartOfSpeech'
p4714
S'JJ'
p4715
sS'CharacterOffsetBegin'
p4716
S'1152'
p4717
stp4718
a(S'inauguration'
p4719
(dp4720
S'NamedEntityTag'
p4721
g118
sS'CharacterOffsetEnd'
p4722
S'1170'
p4723
sS'Lemma'
p4724
S'inauguration'
p4725
sS'PartOfSpeech'
p4726
S'NN'
p4727
sS'CharacterOffsetBegin'
p4728
S'1158'
p4729
stp4730
a(S'speech'
p4731
(dp4732
S'NamedEntityTag'
p4733
g118
sS'CharacterOffsetEnd'
p4734
S'1177'
p4735
sS'Lemma'
p4736
S'speech'
p4737
sS'PartOfSpeech'
p4738
S'NN'
p4739
sS'CharacterOffsetBegin'
p4740
S'1171'
p4741
stp4742
a(S'to'
p4743
(dp4744
S'NamedEntityTag'
p4745
g118
sS'CharacterOffsetEnd'
p4746
S'1180'
p4747
sS'Lemma'
p4748
S'to'
p4749
sS'PartOfSpeech'
p4750
S'TO'
p4751
sS'CharacterOffsetBegin'
p4752
S'1178'
p4753
stp4754
a(S'clean'
p4755
(dp4756
S'NamedEntityTag'
p4757
g118
sS'CharacterOffsetEnd'
p4758
S'1186'
p4759
sS'Lemma'
p4760
S'clean'
p4761
sS'PartOfSpeech'
p4762
S'VB'
p4763
sS'CharacterOffsetBegin'
p4764
S'1181'
p4765
stp4766
a(S'up'
p4767
(dp4768
S'NamedEntityTag'
p4769
g118
sS'CharacterOffsetEnd'
p4770
S'1189'
p4771
sS'Lemma'
p4772
S'up'
p4773
sS'PartOfSpeech'
p4774
S'RP'
p4775
sS'CharacterOffsetBegin'
p4776
S'1187'
p4777
stp4778
a(S'the'
p4779
(dp4780
S'NamedEntityTag'
p4781
g118
sS'CharacterOffsetEnd'
p4782
S'1193'
p4783
sS'Lemma'
p4784
S'the'
p4785
sS'PartOfSpeech'
p4786
S'DT'
p4787
sS'CharacterOffsetBegin'
p4788
S'1190'
p4789
stp4790
a(S'graft-riddled'
p4791
(dp4792
S'NamedEntityTag'
p4793
g118
sS'CharacterOffsetEnd'
p4794
S'1207'
p4795
sS'Lemma'
p4796
S'graft-riddled'
p4797
sS'PartOfSpeech'
p4798
S'JJ'
p4799
sS'CharacterOffsetBegin'
p4800
S'1194'
p4801
stp4802
a(S'administration'
p4803
(dp4804
S'NamedEntityTag'
p4805
g118
sS'CharacterOffsetEnd'
p4806
S'1222'
p4807
sS'Lemma'
p4808
S'administration'
p4809
sS'PartOfSpeech'
p4810
S'NN'
p4811
sS'CharacterOffsetBegin'
p4812
S'1208'
p4813
stp4814
a(g530
(dp4815
S'NamedEntityTag'
p4816
g118
sS'CharacterOffsetEnd'
p4817
S'1223'
p4818
sS'Lemma'
p4819
g530
sS'PartOfSpeech'
p4820
g530
sS'CharacterOffsetBegin'
p4821
S'1222'
p4822
stp4823
asa(dp4824
g15
S'(ROOT (S (NP (DT The) (JJ British-trained) (NN general)) (VP (VBD made) (NP (PRP$ his) (NN name)) (S (VP (VBG rebuilding) (NP (DT the) (NN army)) (SBAR (IN after) (S (NP (PRP it)) (VP (VBD disintegrated) (PP (IN in) (NP (DT the) (JJ civil) (NN war))))))))) (. .)))'
p4825
sg17
S'The British-trained general made his name rebuilding the army after it disintegrated in the civil war.'
p4826
sg19
(lp4827
(S'root'
p4828
S'ROOT'
p4829
S'made'
p4830
tp4831
a(S'det'
p4832
S'general'
p4833
S'The'
p4834
tp4835
a(S'amod'
p4836
S'general'
p4837
S'British-trained'
p4838
tp4839
a(S'nsubj'
p4840
S'made'
p4841
S'general'
p4842
tp4843
a(S'poss'
p4844
S'name'
p4845
S'his'
p4846
tp4847
a(S'dobj'
p4848
S'made'
p4849
S'name'
p4850
tp4851
a(S'xcomp'
p4852
S'made'
p4853
S'rebuilding'
p4854
tp4855
a(S'det'
p4856
S'army'
p4857
S'the'
p4858
tp4859
a(S'dobj'
p4860
S'rebuilding'
p4861
S'army'
p4862
tp4863
a(S'mark'
p4864
S'disintegrated'
p4865
S'after'
p4866
tp4867
a(S'nsubj'
p4868
S'disintegrated'
p4869
S'it'
p4870
tp4871
a(S'advcl'
p4872
S'rebuilding'
p4873
S'disintegrated'
p4874
tp4875
a(S'det'
p4876
S'war'
p4877
S'the'
p4878
tp4879
a(S'amod'
p4880
S'war'
p4881
S'civil'
p4882
tp4883
a(S'prep_in'
p4884
S'disintegrated'
p4885
S'war'
p4886
tp4887
asg65
(lp4888
(g4828
S'ROOT-0'
p4889
S'made-4'
p4890
tp4891
a(g4832
S'general-3'
p4892
S'The-1'
p4893
tp4894
a(g4836
S'general-3'
p4895
S'British-trained-2'
p4896
tp4897
a(g4840
S'made-4'
p4898
S'general-3'
p4899
tp4900
a(g4844
S'name-6'
p4901
S'his-5'
p4902
tp4903
a(g4848
S'made-4'
p4904
S'name-6'
p4905
tp4906
a(g4852
S'made-4'
p4907
S'rebuilding-7'
p4908
tp4909
a(g4856
S'army-9'
p4910
S'the-8'
p4911
tp4912
a(g4860
S'rebuilding-7'
p4913
S'army-9'
p4914
tp4915
a(g4864
S'disintegrated-12'
p4916
S'after-10'
p4917
tp4918
a(g4868
S'disintegrated-12'
p4919
S'it-11'
p4920
tp4921
a(g4872
S'rebuilding-7'
p4922
S'disintegrated-12'
p4923
tp4924
a(g4876
S'war-16'
p4925
S'the-14'
p4926
tp4927
a(g4880
S'war-16'
p4928
S'civil-15'
p4929
tp4930
a(g4884
S'disintegrated-12'
p4931
S'war-16'
p4932
tp4933
asg100
(lp4934
(S'The'
p4935
(dp4936
S'NamedEntityTag'
p4937
g118
sS'CharacterOffsetEnd'
p4938
S'1227'
p4939
sS'Lemma'
p4940
S'the'
p4941
sS'PartOfSpeech'
p4942
S'DT'
p4943
sS'CharacterOffsetBegin'
p4944
S'1224'
p4945
stp4946
a(S'British-trained'
p4947
(dp4948
S'NamedEntityTag'
p4949
S'MISC'
p4950
sS'CharacterOffsetEnd'
p4951
S'1243'
p4952
sS'Lemma'
p4953
S'british-trained'
p4954
sS'PartOfSpeech'
p4955
S'JJ'
p4956
sS'CharacterOffsetBegin'
p4957
S'1228'
p4958
stp4959
a(S'general'
p4960
(dp4961
S'NamedEntityTag'
p4962
g118
sS'CharacterOffsetEnd'
p4963
S'1251'
p4964
sS'Lemma'
p4965
S'general'
p4966
sS'PartOfSpeech'
p4967
S'NN'
p4968
sS'CharacterOffsetBegin'
p4969
S'1244'
p4970
stp4971
a(S'made'
p4972
(dp4973
S'NamedEntityTag'
p4974
g118
sS'CharacterOffsetEnd'
p4975
S'1256'
p4976
sS'Lemma'
p4977
S'make'
p4978
sS'PartOfSpeech'
p4979
S'VBD'
p4980
sS'CharacterOffsetBegin'
p4981
S'1252'
p4982
stp4983
a(S'his'
p4984
(dp4985
S'NamedEntityTag'
p4986
g118
sS'CharacterOffsetEnd'
p4987
S'1260'
p4988
sS'Lemma'
p4989
S'he'
p4990
sS'PartOfSpeech'
p4991
S'PRP$'
p4992
sS'CharacterOffsetBegin'
p4993
S'1257'
p4994
stp4995
a(S'name'
p4996
(dp4997
S'NamedEntityTag'
p4998
g118
sS'CharacterOffsetEnd'
p4999
S'1265'
p5000
sS'Lemma'
p5001
S'name'
p5002
sS'PartOfSpeech'
p5003
S'NN'
p5004
sS'CharacterOffsetBegin'
p5005
S'1261'
p5006
stp5007
a(S'rebuilding'
p5008
(dp5009
S'NamedEntityTag'
p5010
g118
sS'CharacterOffsetEnd'
p5011
S'1276'
p5012
sS'Lemma'
p5013
S'rebuild'
p5014
sS'PartOfSpeech'
p5015
S'VBG'
p5016
sS'CharacterOffsetBegin'
p5017
S'1266'
p5018
stp5019
a(S'the'
p5020
(dp5021
S'NamedEntityTag'
p5022
g118
sS'CharacterOffsetEnd'
p5023
S'1280'
p5024
sS'Lemma'
p5025
S'the'
p5026
sS'PartOfSpeech'
p5027
S'DT'
p5028
sS'CharacterOffsetBegin'
p5029
S'1277'
p5030
stp5031
a(S'army'
p5032
(dp5033
S'NamedEntityTag'
p5034
g118
sS'CharacterOffsetEnd'
p5035
S'1285'
p5036
sS'Lemma'
p5037
S'army'
p5038
sS'PartOfSpeech'
p5039
S'NN'
p5040
sS'CharacterOffsetBegin'
p5041
S'1281'
p5042
stp5043
a(S'after'
p5044
(dp5045
S'NamedEntityTag'
p5046
g118
sS'CharacterOffsetEnd'
p5047
S'1291'
p5048
sS'Lemma'
p5049
S'after'
p5050
sS'PartOfSpeech'
p5051
S'IN'
p5052
sS'CharacterOffsetBegin'
p5053
S'1286'
p5054
stp5055
a(S'it'
p5056
(dp5057
S'NamedEntityTag'
p5058
g118
sS'CharacterOffsetEnd'
p5059
S'1294'
p5060
sS'Lemma'
p5061
S'it'
p5062
sS'PartOfSpeech'
p5063
S'PRP'
p5064
sS'CharacterOffsetBegin'
p5065
S'1292'
p5066
stp5067
a(S'disintegrated'
p5068
(dp5069
S'NamedEntityTag'
p5070
g118
sS'CharacterOffsetEnd'
p5071
S'1308'
p5072
sS'Lemma'
p5073
S'disintegrate'
p5074
sS'PartOfSpeech'
p5075
S'VBD'
p5076
sS'CharacterOffsetBegin'
p5077
S'1295'
p5078
stp5079
a(S'in'
p5080
(dp5081
S'NamedEntityTag'
p5082
g118
sS'CharacterOffsetEnd'
p5083
S'1311'
p5084
sS'Lemma'
p5085
S'in'
p5086
sS'PartOfSpeech'
p5087
S'IN'
p5088
sS'CharacterOffsetBegin'
p5089
S'1309'
p5090
stp5091
a(S'the'
p5092
(dp5093
S'NamedEntityTag'
p5094
g118
sS'CharacterOffsetEnd'
p5095
S'1315'
p5096
sS'Lemma'
p5097
S'the'
p5098
sS'PartOfSpeech'
p5099
S'DT'
p5100
sS'CharacterOffsetBegin'
p5101
S'1312'
p5102
stp5103
a(S'civil'
p5104
(dp5105
S'NamedEntityTag'
p5106
g118
sS'CharacterOffsetEnd'
p5107
S'1321'
p5108
sS'Lemma'
p5109
S'civil'
p5110
sS'PartOfSpeech'
p5111
S'JJ'
p5112
sS'CharacterOffsetBegin'
p5113
S'1316'
p5114
stp5115
a(S'war'
p5116
(dp5117
S'NamedEntityTag'
p5118
g118
sS'CharacterOffsetEnd'
p5119
S'1325'
p5120
sS'Lemma'
p5121
S'war'
p5122
sS'PartOfSpeech'
p5123
S'NN'
p5124
sS'CharacterOffsetBegin'
p5125
S'1322'
p5126
stp5127
a(g530
(dp5128
S'NamedEntityTag'
p5129
g118
sS'CharacterOffsetEnd'
p5130
S'1326'
p5131
sS'Lemma'
p5132
g530
sS'PartOfSpeech'
p5133
g530
sS'CharacterOffsetBegin'
p5134
S'1325'
p5135
stp5136
asa(dp5137
g15
S'(ROOT (S (NP (NP (JJ Previous) (NNS disputes)) (PP (IN among) (NP (NN government) (NNS leaders)))) (VP (VBP have) (VP (VBN cost) (NP (DT the) (NNP Central) (NNP Bank)) (NP (NP (NNS hundreds)) (PP (IN of) (NP (NP (NNS millions)) (PP (IN of) (NP (NP (NNS dollars)) (PP (IN in) (NP (PRP$ its) (NNS efforts) (S (VP (TO to) (VP (VB stabilize) (NP (DT the) (JJ Lebanese) (NN pound)))))))))))))) (. .)))'
p5138
sg17
S'Previous disputes among government leaders have cost the Central Bank hundreds of millions of dollars in its efforts to stabilize the Lebanese pound.'
p5139
sg19
(lp5140
(S'root'
p5141
S'ROOT'
p5142
S'cost'
p5143
tp5144
a(S'amod'
p5145
S'disputes'
p5146
S'Previous'
p5147
tp5148
a(S'nsubj'
p5149
S'cost'
p5150
S'disputes'
p5151
tp5152
a(S'nn'
p5153
S'leaders'
p5154
S'government'
p5155
tp5156
a(S'prep_among'
p5157
S'disputes'
p5158
S'leaders'
p5159
tp5160
a(S'aux'
p5161
S'cost'
p5162
S'have'
p5163
tp5164
a(S'det'
p5165
S'Bank'
p5166
S'the'
p5167
tp5168
a(S'nn'
p5169
S'Bank'
p5170
S'Central'
p5171
tp5172
a(S'iobj'
p5173
S'cost'
p5174
S'Bank'
p5175
tp5176
a(S'dobj'
p5177
S'cost'
p5178
S'hundreds'
p5179
tp5180
a(S'prep_of'
p5181
S'hundreds'
p5182
S'millions'
p5183
tp5184
a(S'prep_of'
p5185
S'millions'
p5186
S'dollars'
p5187
tp5188
a(S'poss'
p5189
S'efforts'
p5190
S'its'
p5191
tp5192
a(S'prep_in'
p5193
S'dollars'
p5194
S'efforts'
p5195
tp5196
a(S'aux'
p5197
S'stabilize'
p5198
S'to'
p5199
tp5200
a(S'infmod'
p5201
S'efforts'
p5202
S'stabilize'
p5203
tp5204
a(S'det'
p5205
S'pound'
p5206
S'the'
p5207
tp5208
a(S'amod'
p5209
S'pound'
p5210
S'Lebanese'
p5211
tp5212
a(S'dobj'
p5213
S'stabilize'
p5214
S'pound'
p5215
tp5216
asg65
(lp5217
(g5141
S'ROOT-0'
p5218
S'cost-7'
p5219
tp5220
a(g5145
S'disputes-2'
p5221
S'Previous-1'
p5222
tp5223
a(g5149
S'cost-7'
p5224
S'disputes-2'
p5225
tp5226
a(g5153
S'leaders-5'
p5227
S'government-4'
p5228
tp5229
a(g5157
S'disputes-2'
p5230
S'leaders-5'
p5231
tp5232
a(g5161
S'cost-7'
p5233
S'have-6'
p5234
tp5235
a(g5165
S'Bank-10'
p5236
S'the-8'
p5237
tp5238
a(g5169
S'Bank-10'
p5239
S'Central-9'
p5240
tp5241
a(g5173
S'cost-7'
p5242
S'Bank-10'
p5243
tp5244
a(g5177
S'cost-7'
p5245
S'hundreds-11'
p5246
tp5247
a(g5181
S'hundreds-11'
p5248
S'millions-13'
p5249
tp5250
a(g5185
S'millions-13'
p5251
S'dollars-15'
p5252
tp5253
a(g5189
S'efforts-18'
p5254
S'its-17'
p5255
tp5256
a(g5193
S'dollars-15'
p5257
S'efforts-18'
p5258
tp5259
a(g5197
S'stabilize-20'
p5260
S'to-19'
p5261
tp5262
a(g5201
S'efforts-18'
p5263
S'stabilize-20'
p5264
tp5265
a(g5205
S'pound-23'
p5266
S'the-21'
p5267
tp5268
a(g5209
S'pound-23'
p5269
S'Lebanese-22'
p5270
tp5271
a(g5213
S'stabilize-20'
p5272
S'pound-23'
p5273
tp5274
asg100
(lp5275
(S'Previous'
p5276
(dp5277
S'NamedEntityTag'
p5278
g118
sS'CharacterOffsetEnd'
p5279
S'1335'
p5280
sS'Lemma'
p5281
S'previous'
p5282
sS'PartOfSpeech'
p5283
S'JJ'
p5284
sS'CharacterOffsetBegin'
p5285
S'1327'
p5286
stp5287
a(S'disputes'
p5288
(dp5289
S'NamedEntityTag'
p5290
g118
sS'CharacterOffsetEnd'
p5291
S'1344'
p5292
sS'Lemma'
p5293
S'dispute'
p5294
sS'PartOfSpeech'
p5295
S'NNS'
p5296
sS'CharacterOffsetBegin'
p5297
S'1336'
p5298
stp5299
a(S'among'
p5300
(dp5301
S'NamedEntityTag'
p5302
g118
sS'CharacterOffsetEnd'
p5303
S'1350'
p5304
sS'Lemma'
p5305
S'among'
p5306
sS'PartOfSpeech'
p5307
S'IN'
p5308
sS'CharacterOffsetBegin'
p5309
S'1345'
p5310
stp5311
a(S'government'
p5312
(dp5313
S'NamedEntityTag'
p5314
g118
sS'CharacterOffsetEnd'
p5315
S'1361'
p5316
sS'Lemma'
p5317
S'government'
p5318
sS'PartOfSpeech'
p5319
S'NN'
p5320
sS'CharacterOffsetBegin'
p5321
S'1351'
p5322
stp5323
a(S'leaders'
p5324
(dp5325
S'NamedEntityTag'
p5326
g118
sS'CharacterOffsetEnd'
p5327
S'1369'
p5328
sS'Lemma'
p5329
S'leader'
p5330
sS'PartOfSpeech'
p5331
S'NNS'
p5332
sS'CharacterOffsetBegin'
p5333
S'1362'
p5334
stp5335
a(S'have'
p5336
(dp5337
S'NamedEntityTag'
p5338
g118
sS'CharacterOffsetEnd'
p5339
S'1374'
p5340
sS'Lemma'
p5341
S'have'
p5342
sS'PartOfSpeech'
p5343
S'VBP'
p5344
sS'CharacterOffsetBegin'
p5345
S'1370'
p5346
stp5347
a(S'cost'
p5348
(dp5349
S'NamedEntityTag'
p5350
g118
sS'CharacterOffsetEnd'
p5351
S'1379'
p5352
sS'Lemma'
p5353
S'cost'
p5354
sS'PartOfSpeech'
p5355
S'VBN'
p5356
sS'CharacterOffsetBegin'
p5357
S'1375'
p5358
stp5359
a(S'the'
p5360
(dp5361
S'NamedEntityTag'
p5362
g118
sS'CharacterOffsetEnd'
p5363
S'1383'
p5364
sS'Lemma'
p5365
S'the'
p5366
sS'PartOfSpeech'
p5367
S'DT'
p5368
sS'CharacterOffsetBegin'
p5369
S'1380'
p5370
stp5371
a(S'Central'
p5372
(dp5373
S'NamedEntityTag'
p5374
S'ORGANIZATION'
p5375
sS'CharacterOffsetEnd'
p5376
S'1391'
p5377
sS'Lemma'
p5378
S'Central'
p5379
sS'PartOfSpeech'
p5380
S'NNP'
p5381
sS'CharacterOffsetBegin'
p5382
S'1384'
p5383
stp5384
a(S'Bank'
p5385
(dp5386
S'NamedEntityTag'
p5387
S'ORGANIZATION'
p5388
sS'CharacterOffsetEnd'
p5389
S'1396'
p5390
sS'Lemma'
p5391
S'Bank'
p5392
sS'PartOfSpeech'
p5393
S'NNP'
p5394
sS'CharacterOffsetBegin'
p5395
S'1392'
p5396
stp5397
a(S'hundreds'
p5398
(dp5399
S'NormalizedNamedEntityTag'
p5400
S'$1.0E8'
p5401
sS'Lemma'
p5402
S'hundred'
p5403
sS'CharacterOffsetEnd'
p5404
S'1405'
p5405
sS'PartOfSpeech'
p5406
S'NNS'
p5407
sS'CharacterOffsetBegin'
p5408
S'1397'
p5409
sS'NamedEntityTag'
p5410
S'MONEY'
p5411
stp5412
a(S'of'
p5413
(dp5414
S'NormalizedNamedEntityTag'
p5415
S'$1.0E8'
p5416
sS'Lemma'
p5417
S'of'
p5418
sS'CharacterOffsetEnd'
p5419
S'1408'
p5420
sS'PartOfSpeech'
p5421
S'IN'
p5422
sS'CharacterOffsetBegin'
p5423
S'1406'
p5424
sS'NamedEntityTag'
p5425
S'MONEY'
p5426
stp5427
a(S'millions'
p5428
(dp5429
S'NormalizedNamedEntityTag'
p5430
S'$1.0E8'
p5431
sS'Lemma'
p5432
S'million'
p5433
sS'CharacterOffsetEnd'
p5434
S'1417'
p5435
sS'PartOfSpeech'
p5436
S'NNS'
p5437
sS'CharacterOffsetBegin'
p5438
S'1409'
p5439
sS'NamedEntityTag'
p5440
S'MONEY'
p5441
stp5442
a(S'of'
p5443
(dp5444
S'NormalizedNamedEntityTag'
p5445
S'$1.0E8'
p5446
sS'Lemma'
p5447
S'of'
p5448
sS'CharacterOffsetEnd'
p5449
S'1420'
p5450
sS'PartOfSpeech'
p5451
S'IN'
p5452
sS'CharacterOffsetBegin'
p5453
S'1418'
p5454
sS'NamedEntityTag'
p5455
S'MONEY'
p5456
stp5457
a(S'dollars'
p5458
(dp5459
S'NormalizedNamedEntityTag'
p5460
S'$1.0E8'
p5461
sS'Lemma'
p5462
S'dollar'
p5463
sS'CharacterOffsetEnd'
p5464
S'1428'
p5465
sS'PartOfSpeech'
p5466
S'NNS'
p5467
sS'CharacterOffsetBegin'
p5468
S'1421'
p5469
sS'NamedEntityTag'
p5470
S'MONEY'
p5471
stp5472
a(S'in'
p5473
(dp5474
S'NamedEntityTag'
p5475
g118
sS'CharacterOffsetEnd'
p5476
S'1431'
p5477
sS'Lemma'
p5478
S'in'
p5479
sS'PartOfSpeech'
p5480
S'IN'
p5481
sS'CharacterOffsetBegin'
p5482
S'1429'
p5483
stp5484
a(S'its'
p5485
(dp5486
S'NamedEntityTag'
p5487
g118
sS'CharacterOffsetEnd'
p5488
S'1435'
p5489
sS'Lemma'
p5490
S'its'
p5491
sS'PartOfSpeech'
p5492
S'PRP$'
p5493
sS'CharacterOffsetBegin'
p5494
S'1432'
p5495
stp5496
a(S'efforts'
p5497
(dp5498
S'NamedEntityTag'
p5499
g118
sS'CharacterOffsetEnd'
p5500
S'1443'
p5501
sS'Lemma'
p5502
S'effort'
p5503
sS'PartOfSpeech'
p5504
S'NNS'
p5505
sS'CharacterOffsetBegin'
p5506
S'1436'
p5507
stp5508
a(S'to'
p5509
(dp5510
S'NamedEntityTag'
p5511
g118
sS'CharacterOffsetEnd'
p5512
S'1446'
p5513
sS'Lemma'
p5514
S'to'
p5515
sS'PartOfSpeech'
p5516
S'TO'
p5517
sS'CharacterOffsetBegin'
p5518
S'1444'
p5519
stp5520
a(S'stabilize'
p5521
(dp5522
S'NamedEntityTag'
p5523
g118
sS'CharacterOffsetEnd'
p5524
S'1456'
p5525
sS'Lemma'
p5526
S'stabilize'
p5527
sS'PartOfSpeech'
p5528
S'VB'
p5529
sS'CharacterOffsetBegin'
p5530
S'1447'
p5531
stp5532
a(S'the'
p5533
(dp5534
S'NamedEntityTag'
p5535
g118
sS'CharacterOffsetEnd'
p5536
S'1460'
p5537
sS'Lemma'
p5538
S'the'
p5539
sS'PartOfSpeech'
p5540
S'DT'
p5541
sS'CharacterOffsetBegin'
p5542
S'1457'
p5543
stp5544
a(S'Lebanese'
p5545
(dp5546
S'NamedEntityTag'
p5547
S'MISC'
p5548
sS'CharacterOffsetEnd'
p5549
S'1469'
p5550
sS'Lemma'
p5551
S'lebanese'
p5552
sS'PartOfSpeech'
p5553
S'JJ'
p5554
sS'CharacterOffsetBegin'
p5555
S'1461'
p5556
stp5557
a(S'pound'
p5558
(dp5559
S'NamedEntityTag'
p5560
g118
sS'CharacterOffsetEnd'
p5561
S'1475'
p5562
sS'Lemma'
p5563
S'pound'
p5564
sS'PartOfSpeech'
p5565
S'NN'
p5566
sS'CharacterOffsetBegin'
p5567
S'1470'
p5568
stp5569
a(g530
(dp5570
S'NamedEntityTag'
p5571
g118
sS'CharacterOffsetEnd'
p5572
S'1476'
p5573
sS'Lemma'
p5574
g530
sS'PartOfSpeech'
p5575
g530
sS'CharacterOffsetBegin'
p5576
S'1475'
p5577
stp5578
asa(dp5579
g15
S'(ROOT (S (NP (NP (JJ Such) (JJ political) (NNS disputes)) (PP (IN in) (NP (NP (NNP Lebanon)) (PP (IN in) (NP (DT the) (NN past)))))) (VP (VBD were) (VP (VBN solved) (ADVP (RB only)) (PP (IN with) (NP (NP (DT the) (NN intervention)) (PP (IN of) (NP (NP (NNP Syria)) (, ,) (NP (NP (DT the) (JJ main) (NN power) (NN broker)) (PP (IN in) (NP (DT this) (NN country)))))))))) (. .)))'
p5580
sg17
S'Such political disputes in Lebanon in the past were solved only with the intervention of Syria, the main power broker in this country.'
p5581
sg19
(lp5582
(S'root'
p5583
S'ROOT'
p5584
S'solved'
p5585
tp5586
a(S'amod'
p5587
S'disputes'
p5588
S'Such'
p5589
tp5590
a(S'amod'
p5591
S'disputes'
p5592
S'political'
p5593
tp5594
a(S'nsubjpass'
p5595
S'solved'
p5596
S'disputes'
p5597
tp5598
a(S'prep_in'
p5599
S'disputes'
p5600
S'Lebanon'
p5601
tp5602
a(S'det'
p5603
S'past'
p5604
S'the'
p5605
tp5606
a(S'prep_in'
p5607
S'Lebanon'
p5608
S'past'
p5609
tp5610
a(S'auxpass'
p5611
S'solved'
p5612
S'were'
p5613
tp5614
a(S'advmod'
p5615
S'solved'
p5616
S'only'
p5617
tp5618
a(S'det'
p5619
S'intervention'
p5620
S'the'
p5621
tp5622
a(S'prep_with'
p5623
S'solved'
p5624
S'intervention'
p5625
tp5626
a(S'prep_of'
p5627
S'intervention'
p5628
S'Syria'
p5629
tp5630
a(S'det'
p5631
S'broker'
p5632
S'the'
p5633
tp5634
a(S'amod'
p5635
S'broker'
p5636
S'main'
p5637
tp5638
a(S'nn'
p5639
S'broker'
p5640
S'power'
p5641
tp5642
a(S'appos'
p5643
S'Syria'
p5644
S'broker'
p5645
tp5646
a(S'det'
p5647
S'country'
p5648
S'this'
p5649
tp5650
a(S'prep_in'
p5651
S'broker'
p5652
S'country'
p5653
tp5654
asg65
(lp5655
(g5583
S'ROOT-0'
p5656
S'solved-10'
p5657
tp5658
a(g5587
S'disputes-3'
p5659
S'Such-1'
p5660
tp5661
a(g5591
S'disputes-3'
p5662
S'political-2'
p5663
tp5664
a(g5595
S'solved-10'
p5665
S'disputes-3'
p5666
tp5667
a(g5599
S'disputes-3'
p5668
S'Lebanon-5'
p5669
tp5670
a(g5603
S'past-8'
p5671
S'the-7'
p5672
tp5673
a(g5607
S'Lebanon-5'
p5674
S'past-8'
p5675
tp5676
a(g5611
S'solved-10'
p5677
S'were-9'
p5678
tp5679
a(g5615
S'solved-10'
p5680
S'only-11'
p5681
tp5682
a(g5619
S'intervention-14'
p5683
S'the-13'
p5684
tp5685
a(g5623
S'solved-10'
p5686
S'intervention-14'
p5687
tp5688
a(g5627
S'intervention-14'
p5689
S'Syria-16'
p5690
tp5691
a(g5631
S'broker-21'
p5692
S'the-18'
p5693
tp5694
a(g5635
S'broker-21'
p5695
S'main-19'
p5696
tp5697
a(g5639
S'broker-21'
p5698
S'power-20'
p5699
tp5700
a(g5643
S'Syria-16'
p5701
S'broker-21'
p5702
tp5703
a(g5647
S'country-24'
p5704
S'this-23'
p5705
tp5706
a(g5651
S'broker-21'
p5707
S'country-24'
p5708
tp5709
asg100
(lp5710
(S'Such'
p5711
(dp5712
S'NamedEntityTag'
p5713
g118
sS'CharacterOffsetEnd'
p5714
S'1481'
p5715
sS'Lemma'
p5716
S'such'
p5717
sS'PartOfSpeech'
p5718
S'JJ'
p5719
sS'CharacterOffsetBegin'
p5720
S'1477'
p5721
stp5722
a(S'political'
p5723
(dp5724
S'NamedEntityTag'
p5725
g118
sS'CharacterOffsetEnd'
p5726
S'1491'
p5727
sS'Lemma'
p5728
S'political'
p5729
sS'PartOfSpeech'
p5730
S'JJ'
p5731
sS'CharacterOffsetBegin'
p5732
S'1482'
p5733
stp5734
a(S'disputes'
p5735
(dp5736
S'NamedEntityTag'
p5737
g118
sS'CharacterOffsetEnd'
p5738
S'1500'
p5739
sS'Lemma'
p5740
S'dispute'
p5741
sS'PartOfSpeech'
p5742
S'NNS'
p5743
sS'CharacterOffsetBegin'
p5744
S'1492'
p5745
stp5746
a(S'in'
p5747
(dp5748
S'NamedEntityTag'
p5749
g118
sS'CharacterOffsetEnd'
p5750
S'1503'
p5751
sS'Lemma'
p5752
S'in'
p5753
sS'PartOfSpeech'
p5754
S'IN'
p5755
sS'CharacterOffsetBegin'
p5756
S'1501'
p5757
stp5758
a(S'Lebanon'
p5759
(dp5760
S'NamedEntityTag'
p5761
S'LOCATION'
p5762
sS'CharacterOffsetEnd'
p5763
S'1511'
p5764
sS'Lemma'
p5765
S'Lebanon'
p5766
sS'PartOfSpeech'
p5767
S'NNP'
p5768
sS'CharacterOffsetBegin'
p5769
S'1504'
p5770
stp5771
a(S'in'
p5772
(dp5773
S'NamedEntityTag'
p5774
g118
sS'CharacterOffsetEnd'
p5775
S'1514'
p5776
sS'Lemma'
p5777
S'in'
p5778
sS'PartOfSpeech'
p5779
S'IN'
p5780
sS'CharacterOffsetBegin'
p5781
S'1512'
p5782
stp5783
a(S'the'
p5784
(dp5785
S'NormalizedNamedEntityTag'
p5786
S'PAST_REF'
p5787
sS'Timex'
p5788
S'<TIMEX3 tid="t4" type="DATE" value="PAST_REF">the past</TIMEX3>'
p5789
sS'Lemma'
p5790
S'the'
p5791
sS'CharacterOffsetEnd'
p5792
S'1518'
p5793
sS'PartOfSpeech'
p5794
S'DT'
p5795
sS'CharacterOffsetBegin'
p5796
S'1515'
p5797
sS'NamedEntityTag'
p5798
S'DATE'
p5799
stp5800
a(S'past'
p5801
(dp5802
S'NormalizedNamedEntityTag'
p5803
S'PAST_REF'
p5804
sS'Timex'
p5805
S'<TIMEX3 tid="t4" type="DATE" value="PAST_REF">the past</TIMEX3>'
p5806
sS'Lemma'
p5807
S'past'
p5808
sS'CharacterOffsetEnd'
p5809
S'1523'
p5810
sS'PartOfSpeech'
p5811
S'NN'
p5812
sS'CharacterOffsetBegin'
p5813
S'1519'
p5814
sS'NamedEntityTag'
p5815
S'DATE'
p5816
stp5817
a(S'were'
p5818
(dp5819
S'NamedEntityTag'
p5820
g118
sS'CharacterOffsetEnd'
p5821
S'1528'
p5822
sS'Lemma'
p5823
S'be'
p5824
sS'PartOfSpeech'
p5825
S'VBD'
p5826
sS'CharacterOffsetBegin'
p5827
S'1524'
p5828
stp5829
a(S'solved'
p5830
(dp5831
S'NamedEntityTag'
p5832
g118
sS'CharacterOffsetEnd'
p5833
S'1535'
p5834
sS'Lemma'
p5835
S'solve'
p5836
sS'PartOfSpeech'
p5837
S'VBN'
p5838
sS'CharacterOffsetBegin'
p5839
S'1529'
p5840
stp5841
a(S'only'
p5842
(dp5843
S'NamedEntityTag'
p5844
g118
sS'CharacterOffsetEnd'
p5845
S'1540'
p5846
sS'Lemma'
p5847
S'only'
p5848
sS'PartOfSpeech'
p5849
S'RB'
p5850
sS'CharacterOffsetBegin'
p5851
S'1536'
p5852
stp5853
a(S'with'
p5854
(dp5855
S'NamedEntityTag'
p5856
g118
sS'CharacterOffsetEnd'
p5857
S'1545'
p5858
sS'Lemma'
p5859
S'with'
p5860
sS'PartOfSpeech'
p5861
S'IN'
p5862
sS'CharacterOffsetBegin'
p5863
S'1541'
p5864
stp5865
a(S'the'
p5866
(dp5867
S'NamedEntityTag'
p5868
g118
sS'CharacterOffsetEnd'
p5869
S'1549'
p5870
sS'Lemma'
p5871
S'the'
p5872
sS'PartOfSpeech'
p5873
S'DT'
p5874
sS'CharacterOffsetBegin'
p5875
S'1546'
p5876
stp5877
a(S'intervention'
p5878
(dp5879
S'NamedEntityTag'
p5880
g118
sS'CharacterOffsetEnd'
p5881
S'1562'
p5882
sS'Lemma'
p5883
S'intervention'
p5884
sS'PartOfSpeech'
p5885
S'NN'
p5886
sS'CharacterOffsetBegin'
p5887
S'1550'
p5888
stp5889
a(S'of'
p5890
(dp5891
S'NamedEntityTag'
p5892
g118
sS'CharacterOffsetEnd'
p5893
S'1565'
p5894
sS'Lemma'
p5895
S'of'
p5896
sS'PartOfSpeech'
p5897
S'IN'
p5898
sS'CharacterOffsetBegin'
p5899
S'1563'
p5900
stp5901
a(S'Syria'
p5902
(dp5903
S'NamedEntityTag'
p5904
S'LOCATION'
p5905
sS'CharacterOffsetEnd'
p5906
S'1571'
p5907
sS'Lemma'
p5908
S'Syria'
p5909
sS'PartOfSpeech'
p5910
S'NNP'
p5911
sS'CharacterOffsetBegin'
p5912
S'1566'
p5913
stp5914
a(g115
(dp5915
S'NamedEntityTag'
p5916
g118
sS'CharacterOffsetEnd'
p5917
S'1572'
p5918
sS'Lemma'
p5919
g115
sS'PartOfSpeech'
p5920
g115
sS'CharacterOffsetBegin'
p5921
S'1571'
p5922
stp5923
a(S'the'
p5924
(dp5925
S'NamedEntityTag'
p5926
g118
sS'CharacterOffsetEnd'
p5927
S'1576'
p5928
sS'Lemma'
p5929
S'the'
p5930
sS'PartOfSpeech'
p5931
S'DT'
p5932
sS'CharacterOffsetBegin'
p5933
S'1573'
p5934
stp5935
a(S'main'
p5936
(dp5937
S'NamedEntityTag'
p5938
g118
sS'CharacterOffsetEnd'
p5939
S'1581'
p5940
sS'Lemma'
p5941
S'main'
p5942
sS'PartOfSpeech'
p5943
S'JJ'
p5944
sS'CharacterOffsetBegin'
p5945
S'1577'
p5946
stp5947
a(S'power'
p5948
(dp5949
S'NamedEntityTag'
p5950
g118
sS'CharacterOffsetEnd'
p5951
S'1587'
p5952
sS'Lemma'
p5953
S'power'
p5954
sS'PartOfSpeech'
p5955
S'NN'
p5956
sS'CharacterOffsetBegin'
p5957
S'1582'
p5958
stp5959
a(S'broker'
p5960
(dp5961
S'NamedEntityTag'
p5962
g118
sS'CharacterOffsetEnd'
p5963
S'1594'
p5964
sS'Lemma'
p5965
S'broker'
p5966
sS'PartOfSpeech'
p5967
S'NN'
p5968
sS'CharacterOffsetBegin'
p5969
S'1588'
p5970
stp5971
a(S'in'
p5972
(dp5973
S'NamedEntityTag'
p5974
g118
sS'CharacterOffsetEnd'
p5975
S'1597'
p5976
sS'Lemma'
p5977
S'in'
p5978
sS'PartOfSpeech'
p5979
S'IN'
p5980
sS'CharacterOffsetBegin'
p5981
S'1595'
p5982
stp5983
a(S'this'
p5984
(dp5985
S'NamedEntityTag'
p5986
g118
sS'CharacterOffsetEnd'
p5987
S'1602'
p5988
sS'Lemma'
p5989
S'this'
p5990
sS'PartOfSpeech'
p5991
S'DT'
p5992
sS'CharacterOffsetBegin'
p5993
S'1598'
p5994
stp5995
a(S'country'
p5996
(dp5997
S'NamedEntityTag'
p5998
g118
sS'CharacterOffsetEnd'
p5999
S'1610'
p6000
sS'Lemma'
p6001
S'country'
p6002
sS'PartOfSpeech'
p6003
S'NN'
p6004
sS'CharacterOffsetBegin'
p6005
S'1603'
p6006
stp6007
a(g530
(dp6008
S'NamedEntityTag'
p6009
g118
sS'CharacterOffsetEnd'
p6010
S'1611'
p6011
sS'Lemma'
p6012
g530
sS'PartOfSpeech'
p6013
g530
sS'CharacterOffsetBegin'
p6014
S'1610'
p6015
stp6016
asa(dp6017
g15
S'(ROOT (S (NP (NNP Damascus)) (VP (VBZ supports) (NP (CC both) (NNP Lahoud) (CC and) (NNP Hariri))) (. .)))'
p6018
sg17
S'Damascus supports both Lahoud and Hariri.'
p6019
sg19
(lp6020
(S'root'
p6021
S'ROOT'
p6022
S'supports'
p6023
tp6024
a(S'nsubj'
p6025
S'supports'
p6026
S'Damascus'
p6027
tp6028
a(S'preconj'
p6029
S'Lahoud'
p6030
S'both'
p6031
tp6032
a(S'dobj'
p6033
S'supports'
p6034
S'Lahoud'
p6035
tp6036
a(S'conj_and'
p6037
S'Lahoud'
p6038
S'Hariri'
p6039
tp6040
asg65
(lp6041
(g6021
S'ROOT-0'
p6042
S'supports-2'
p6043
tp6044
a(g6025
S'supports-2'
p6045
S'Damascus-1'
p6046
tp6047
a(g6029
S'Lahoud-4'
p6048
S'both-3'
p6049
tp6050
a(g6033
S'supports-2'
p6051
S'Lahoud-4'
p6052
tp6053
a(g6037
S'Lahoud-4'
p6054
S'Hariri-6'
p6055
tp6056
asg100
(lp6057
(S'Damascus'
p6058
(dp6059
S'NamedEntityTag'
p6060
S'LOCATION'
p6061
sS'CharacterOffsetEnd'
p6062
S'1620'
p6063
sS'Lemma'
p6064
S'Damascus'
p6065
sS'PartOfSpeech'
p6066
S'NNP'
p6067
sS'CharacterOffsetBegin'
p6068
S'1612'
p6069
stp6070
a(S'supports'
p6071
(dp6072
S'NamedEntityTag'
p6073
g118
sS'CharacterOffsetEnd'
p6074
S'1629'
p6075
sS'Lemma'
p6076
S'support'
p6077
sS'PartOfSpeech'
p6078
S'VBZ'
p6079
sS'CharacterOffsetBegin'
p6080
S'1621'
p6081
stp6082
a(S'both'
p6083
(dp6084
S'NamedEntityTag'
p6085
g118
sS'CharacterOffsetEnd'
p6086
S'1634'
p6087
sS'Lemma'
p6088
S'both'
p6089
sS'PartOfSpeech'
p6090
S'CC'
p6091
sS'CharacterOffsetBegin'
p6092
S'1630'
p6093
stp6094
a(S'Lahoud'
p6095
(dp6096
S'NamedEntityTag'
p6097
S'PERSON'
p6098
sS'CharacterOffsetEnd'
p6099
S'1641'
p6100
sS'Lemma'
p6101
S'Lahoud'
p6102
sS'PartOfSpeech'
p6103
S'NNP'
p6104
sS'CharacterOffsetBegin'
p6105
S'1635'
p6106
stp6107
a(S'and'
p6108
(dp6109
S'NamedEntityTag'
p6110
g118
sS'CharacterOffsetEnd'
p6111
S'1645'
p6112
sS'Lemma'
p6113
S'and'
p6114
sS'PartOfSpeech'
p6115
S'CC'
p6116
sS'CharacterOffsetBegin'
p6117
S'1642'
p6118
stp6119
a(S'Hariri'
p6120
(dp6121
S'NamedEntityTag'
p6122
S'PERSON'
p6123
sS'CharacterOffsetEnd'
p6124
S'1652'
p6125
sS'Lemma'
p6126
S'Hariri'
p6127
sS'PartOfSpeech'
p6128
S'NNP'
p6129
sS'CharacterOffsetBegin'
p6130
S'1646'
p6131
stp6132
a(g530
(dp6133
S'NamedEntityTag'
p6134
g118
sS'CharacterOffsetEnd'
p6135
S'1653'
p6136
sS'Lemma'
p6137
g530
sS'PartOfSpeech'
p6138
g530
sS'CharacterOffsetBegin'
p6139
S'1652'
p6140
stp6141
asa(dp6142
g15
S'(ROOT (S (NP (NNP Lahoud)) (VP (VBD had) (VP (VBN been) (VP (VBN expected) (S (VP (TO to) (VP (VB issue) (NP (DT a) (JJ presidential) (NN decree)) (NP-TMP (JJ last) (NN week)) (S (VP (VBG asking) (S (NP (NNP Hariri)) (VP (TO to) (VP (VB form) (NP (DT the) (JJ next) (NN government))))))))))))) (. .)))'
p6143
sg17
S'Lahoud had been expected to issue a presidential decree last week asking Hariri to form the next government.'
p6144
sg19
(lp6145
(S'root'
p6146
S'ROOT'
p6147
S'expected'
p6148
tp6149
a(S'nsubjpass'
p6150
S'expected'
p6151
S'Lahoud'
p6152
tp6153
a(S'aux'
p6154
S'expected'
p6155
S'had'
p6156
tp6157
a(S'auxpass'
p6158
S'expected'
p6159
S'been'
p6160
tp6161
a(S'aux'
p6162
S'issue'
p6163
S'to'
p6164
tp6165
a(S'xcomp'
p6166
S'expected'
p6167
S'issue'
p6168
tp6169
a(S'det'
p6170
S'decree'
p6171
g1318
tp6172
a(S'amod'
p6173
S'decree'
p6174
S'presidential'
p6175
tp6176
a(S'dobj'
p6177
S'issue'
p6178
S'decree'
p6179
tp6180
a(S'amod'
p6181
S'week'
p6182
S'last'
p6183
tp6184
a(S'tmod'
p6185
S'issue'
p6186
S'week'
p6187
tp6188
a(S'xcomp'
p6189
S'issue'
p6190
S'asking'
p6191
tp6192
a(S'nsubj'
p6193
S'form'
p6194
S'Hariri'
p6195
tp6196
a(S'aux'
p6197
S'form'
p6198
S'to'
p6199
tp6200
a(S'xcomp'
p6201
S'asking'
p6202
S'form'
p6203
tp6204
a(S'det'
p6205
S'government'
p6206
S'the'
p6207
tp6208
a(S'amod'
p6209
S'government'
p6210
S'next'
p6211
tp6212
a(S'dobj'
p6213
S'form'
p6214
S'government'
p6215
tp6216
asg65
(lp6217
(g6146
S'ROOT-0'
p6218
S'expected-4'
p6219
tp6220
a(g6150
S'expected-4'
p6221
S'Lahoud-1'
p6222
tp6223
a(g6154
S'expected-4'
p6224
S'had-2'
p6225
tp6226
a(g6158
S'expected-4'
p6227
S'been-3'
p6228
tp6229
a(g6162
S'issue-6'
p6230
S'to-5'
p6231
tp6232
a(g6166
S'expected-4'
p6233
S'issue-6'
p6234
tp6235
a(g6170
S'decree-9'
p6236
S'a-7'
p6237
tp6238
a(g6173
S'decree-9'
p6239
S'presidential-8'
p6240
tp6241
a(g6177
S'issue-6'
p6242
S'decree-9'
p6243
tp6244
a(g6181
S'week-11'
p6245
S'last-10'
p6246
tp6247
a(g6185
S'issue-6'
p6248
S'week-11'
p6249
tp6250
a(g6189
S'issue-6'
p6251
S'asking-12'
p6252
tp6253
a(g6193
S'form-15'
p6254
S'Hariri-13'
p6255
tp6256
a(g6197
S'form-15'
p6257
S'to-14'
p6258
tp6259
a(g6201
S'asking-12'
p6260
S'form-15'
p6261
tp6262
a(g6205
S'government-18'
p6263
S'the-16'
p6264
tp6265
a(g6209
S'government-18'
p6266
S'next-17'
p6267
tp6268
a(g6213
S'form-15'
p6269
S'government-18'
p6270
tp6271
asg100
(lp6272
(S'Lahoud'
p6273
(dp6274
S'NamedEntityTag'
p6275
S'PERSON'
p6276
sS'CharacterOffsetEnd'
p6277
S'1660'
p6278
sS'Lemma'
p6279
S'Lahoud'
p6280
sS'PartOfSpeech'
p6281
S'NNP'
p6282
sS'CharacterOffsetBegin'
p6283
S'1654'
p6284
stp6285
a(S'had'
p6286
(dp6287
S'NamedEntityTag'
p6288
g118
sS'CharacterOffsetEnd'
p6289
S'1664'
p6290
sS'Lemma'
p6291
S'have'
p6292
sS'PartOfSpeech'
p6293
S'VBD'
p6294
sS'CharacterOffsetBegin'
p6295
S'1661'
p6296
stp6297
a(S'been'
p6298
(dp6299
S'NamedEntityTag'
p6300
g118
sS'CharacterOffsetEnd'
p6301
S'1669'
p6302
sS'Lemma'
p6303
S'be'
p6304
sS'PartOfSpeech'
p6305
S'VBN'
p6306
sS'CharacterOffsetBegin'
p6307
S'1665'
p6308
stp6309
a(S'expected'
p6310
(dp6311
S'NamedEntityTag'
p6312
g118
sS'CharacterOffsetEnd'
p6313
S'1678'
p6314
sS'Lemma'
p6315
S'expect'
p6316
sS'PartOfSpeech'
p6317
S'VBN'
p6318
sS'CharacterOffsetBegin'
p6319
S'1670'
p6320
stp6321
a(S'to'
p6322
(dp6323
S'NamedEntityTag'
p6324
g118
sS'CharacterOffsetEnd'
p6325
S'1681'
p6326
sS'Lemma'
p6327
S'to'
p6328
sS'PartOfSpeech'
p6329
S'TO'
p6330
sS'CharacterOffsetBegin'
p6331
S'1679'
p6332
stp6333
a(S'issue'
p6334
(dp6335
S'NamedEntityTag'
p6336
g118
sS'CharacterOffsetEnd'
p6337
S'1687'
p6338
sS'Lemma'
p6339
S'issue'
p6340
sS'PartOfSpeech'
p6341
S'VB'
p6342
sS'CharacterOffsetBegin'
p6343
S'1682'
p6344
stp6345
a(g1318
(dp6346
S'NamedEntityTag'
p6347
g118
sS'CharacterOffsetEnd'
p6348
S'1689'
p6349
sS'Lemma'
p6350
g1318
sS'PartOfSpeech'
p6351
S'DT'
p6352
sS'CharacterOffsetBegin'
p6353
S'1688'
p6354
stp6355
a(S'presidential'
p6356
(dp6357
S'NamedEntityTag'
p6358
g118
sS'CharacterOffsetEnd'
p6359
S'1702'
p6360
sS'Lemma'
p6361
S'presidential'
p6362
sS'PartOfSpeech'
p6363
S'JJ'
p6364
sS'CharacterOffsetBegin'
p6365
S'1690'
p6366
stp6367
a(S'decree'
p6368
(dp6369
S'NamedEntityTag'
p6370
g118
sS'CharacterOffsetEnd'
p6371
S'1709'
p6372
sS'Lemma'
p6373
S'decree'
p6374
sS'PartOfSpeech'
p6375
S'NN'
p6376
sS'CharacterOffsetBegin'
p6377
S'1703'
p6378
stp6379
a(S'last'
p6380
(dp6381
S'NormalizedNamedEntityTag'
p6382
S'THIS'
p6383
sS'Timex'
p6384
S'<TIMEX3 alt_value="THIS P1W OFFSET P-1W" anchorTimeID="t6" temporalFunction="true" tid="t5" type="DATE" valueFromFunction="tf1">last week</TIMEX3>'
p6385
sS'Lemma'
p6386
S'last'
p6387
sS'CharacterOffsetEnd'
p6388
S'1714'
p6389
sS'PartOfSpeech'
p6390
S'JJ'
p6391
sS'CharacterOffsetBegin'
p6392
S'1710'
p6393
sS'NamedEntityTag'
p6394
S'DATE'
p6395
stp6396
a(S'week'
p6397
(dp6398
S'NormalizedNamedEntityTag'
p6399
S'THIS'
p6400
sS'Timex'
p6401
S'<TIMEX3 alt_value="THIS P1W OFFSET P-1W" anchorTimeID="t6" temporalFunction="true" tid="t5" type="DATE" valueFromFunction="tf1">last week</TIMEX3>'
p6402
sS'Lemma'
p6403
S'week'
p6404
sS'CharacterOffsetEnd'
p6405
S'1719'
p6406
sS'PartOfSpeech'
p6407
S'NN'
p6408
sS'CharacterOffsetBegin'
p6409
S'1715'
p6410
sS'NamedEntityTag'
p6411
S'DATE'
p6412
stp6413
a(S'asking'
p6414
(dp6415
S'NamedEntityTag'
p6416
g118
sS'CharacterOffsetEnd'
p6417
S'1726'
p6418
sS'Lemma'
p6419
S'ask'
p6420
sS'PartOfSpeech'
p6421
S'VBG'
p6422
sS'CharacterOffsetBegin'
p6423
S'1720'
p6424
stp6425
a(S'Hariri'
p6426
(dp6427
S'NamedEntityTag'
p6428
S'PERSON'
p6429
sS'CharacterOffsetEnd'
p6430
S'1733'
p6431
sS'Lemma'
p6432
S'Hariri'
p6433
sS'PartOfSpeech'
p6434
S'NNP'
p6435
sS'CharacterOffsetBegin'
p6436
S'1727'
p6437
stp6438
a(S'to'
p6439
(dp6440
S'NamedEntityTag'
p6441
g118
sS'CharacterOffsetEnd'
p6442
S'1736'
p6443
sS'Lemma'
p6444
S'to'
p6445
sS'PartOfSpeech'
p6446
S'TO'
p6447
sS'CharacterOffsetBegin'
p6448
S'1734'
p6449
stp6450
a(S'form'
p6451
(dp6452
S'NamedEntityTag'
p6453
g118
sS'CharacterOffsetEnd'
p6454
S'1741'
p6455
sS'Lemma'
p6456
S'form'
p6457
sS'PartOfSpeech'
p6458
S'VB'
p6459
sS'CharacterOffsetBegin'
p6460
S'1737'
p6461
stp6462
a(S'the'
p6463
(dp6464
S'NamedEntityTag'
p6465
g118
sS'CharacterOffsetEnd'
p6466
S'1745'
p6467
sS'Lemma'
p6468
S'the'
p6469
sS'PartOfSpeech'
p6470
S'DT'
p6471
sS'CharacterOffsetBegin'
p6472
S'1742'
p6473
stp6474
a(S'next'
p6475
(dp6476
S'NamedEntityTag'
p6477
g118
sS'CharacterOffsetEnd'
p6478
S'1750'
p6479
sS'Lemma'
p6480
S'next'
p6481
sS'PartOfSpeech'
p6482
S'JJ'
p6483
sS'CharacterOffsetBegin'
p6484
S'1746'
p6485
stp6486
a(S'government'
p6487
(dp6488
S'NamedEntityTag'
p6489
g118
sS'CharacterOffsetEnd'
p6490
S'1761'
p6491
sS'Lemma'
p6492
S'government'
p6493
sS'PartOfSpeech'
p6494
S'NN'
p6495
sS'CharacterOffsetBegin'
p6496
S'1751'
p6497
stp6498
a(g530
(dp6499
S'NamedEntityTag'
p6500
g118
sS'CharacterOffsetEnd'
p6501
S'1762'
p6502
sS'Lemma'
p6503
g530
sS'PartOfSpeech'
p6504
g530
sS'CharacterOffsetBegin'
p6505
S'1761'
p6506
stp6507
asa(dp6508
g15
S'(ROOT (S (NP (DT The) (NN decree)) (VP (VBD was) (S (VP (TO to) (VP (VB be) (VP (VBN issued) (PP (IN after) (NP (NP (DT the) (NN president)) (VP (VBN polled) (NP (NP (NNS members)) (PP (IN of) (NP (DT the) (JJ 128-seat) (NNP Parliament)))) (PP (IN on) (NP (NP (PRP$ their) (NN choice)) (PP (IN for) (NP (JJ prime) (NN minister))))))))))))) (. .)))'
p6509
sg17
S'The decree was to be issued after the president polled members of the 128-seat Parliament on their choice for prime minister.'
p6510
sg19
(lp6511
(S'root'
p6512
S'ROOT'
p6513
S'was'
p6514
tp6515
a(S'det'
p6516
S'decree'
p6517
S'The'
p6518
tp6519
a(S'nsubj'
p6520
S'was'
p6521
S'decree'
p6522
tp6523
a(S'aux'
p6524
S'issued'
p6525
S'to'
p6526
tp6527
a(S'auxpass'
p6528
S'issued'
p6529
S'be'
p6530
tp6531
a(S'xcomp'
p6532
S'was'
p6533
S'issued'
p6534
tp6535
a(S'det'
p6536
S'president'
p6537
S'the'
p6538
tp6539
a(S'prep_after'
p6540
S'issued'
p6541
S'president'
p6542
tp6543
a(S'partmod'
p6544
S'president'
p6545
S'polled'
p6546
tp6547
a(S'dobj'
p6548
S'polled'
p6549
S'members'
p6550
tp6551
a(S'det'
p6552
S'Parliament'
p6553
S'the'
p6554
tp6555
a(S'amod'
p6556
S'Parliament'
p6557
S'128-seat'
p6558
tp6559
a(S'prep_of'
p6560
S'members'
p6561
S'Parliament'
p6562
tp6563
a(S'poss'
p6564
S'choice'
p6565
S'their'
p6566
tp6567
a(S'prep_on'
p6568
S'polled'
p6569
S'choice'
p6570
tp6571
a(S'amod'
p6572
S'minister'
p6573
S'prime'
p6574
tp6575
a(S'prep_for'
p6576
S'choice'
p6577
S'minister'
p6578
tp6579
asg65
(lp6580
(g6512
S'ROOT-0'
p6581
S'was-3'
p6582
tp6583
a(g6516
S'decree-2'
p6584
S'The-1'
p6585
tp6586
a(g6520
S'was-3'
p6587
S'decree-2'
p6588
tp6589
a(g6524
S'issued-6'
p6590
S'to-4'
p6591
tp6592
a(g6528
S'issued-6'
p6593
S'be-5'
p6594
tp6595
a(g6532
S'was-3'
p6596
S'issued-6'
p6597
tp6598
a(g6536
S'president-9'
p6599
S'the-8'
p6600
tp6601
a(g6540
S'issued-6'
p6602
S'president-9'
p6603
tp6604
a(g6544
S'president-9'
p6605
S'polled-10'
p6606
tp6607
a(g6548
S'polled-10'
p6608
S'members-11'
p6609
tp6610
a(g6552
S'Parliament-15'
p6611
S'the-13'
p6612
tp6613
a(g6556
S'Parliament-15'
p6614
S'128-seat-14'
p6615
tp6616
a(g6560
S'members-11'
p6617
S'Parliament-15'
p6618
tp6619
a(g6564
S'choice-18'
p6620
S'their-17'
p6621
tp6622
a(g6568
S'polled-10'
p6623
S'choice-18'
p6624
tp6625
a(g6572
S'minister-21'
p6626
S'prime-20'
p6627
tp6628
a(g6576
S'choice-18'
p6629
S'minister-21'
p6630
tp6631
asg100
(lp6632
(S'The'
p6633
(dp6634
S'NamedEntityTag'
p6635
g118
sS'CharacterOffsetEnd'
p6636
S'1766'
p6637
sS'Lemma'
p6638
S'the'
p6639
sS'PartOfSpeech'
p6640
S'DT'
p6641
sS'CharacterOffsetBegin'
p6642
S'1763'
p6643
stp6644
a(S'decree'
p6645
(dp6646
S'NamedEntityTag'
p6647
g118
sS'CharacterOffsetEnd'
p6648
S'1773'
p6649
sS'Lemma'
p6650
S'decree'
p6651
sS'PartOfSpeech'
p6652
S'NN'
p6653
sS'CharacterOffsetBegin'
p6654
S'1767'
p6655
stp6656
a(S'was'
p6657
(dp6658
S'NamedEntityTag'
p6659
g118
sS'CharacterOffsetEnd'
p6660
S'1777'
p6661
sS'Lemma'
p6662
S'be'
p6663
sS'PartOfSpeech'
p6664
S'VBD'
p6665
sS'CharacterOffsetBegin'
p6666
S'1774'
p6667
stp6668
a(S'to'
p6669
(dp6670
S'NamedEntityTag'
p6671
g118
sS'CharacterOffsetEnd'
p6672
S'1780'
p6673
sS'Lemma'
p6674
S'to'
p6675
sS'PartOfSpeech'
p6676
S'TO'
p6677
sS'CharacterOffsetBegin'
p6678
S'1778'
p6679
stp6680
a(S'be'
p6681
(dp6682
S'NamedEntityTag'
p6683
g118
sS'CharacterOffsetEnd'
p6684
S'1783'
p6685
sS'Lemma'
p6686
S'be'
p6687
sS'PartOfSpeech'
p6688
S'VB'
p6689
sS'CharacterOffsetBegin'
p6690
S'1781'
p6691
stp6692
a(S'issued'
p6693
(dp6694
S'NamedEntityTag'
p6695
g118
sS'CharacterOffsetEnd'
p6696
S'1790'
p6697
sS'Lemma'
p6698
S'issue'
p6699
sS'PartOfSpeech'
p6700
S'VBN'
p6701
sS'CharacterOffsetBegin'
p6702
S'1784'
p6703
stp6704
a(S'after'
p6705
(dp6706
S'NamedEntityTag'
p6707
g118
sS'CharacterOffsetEnd'
p6708
S'1796'
p6709
sS'Lemma'
p6710
S'after'
p6711
sS'PartOfSpeech'
p6712
S'IN'
p6713
sS'CharacterOffsetBegin'
p6714
S'1791'
p6715
stp6716
a(S'the'
p6717
(dp6718
S'NamedEntityTag'
p6719
g118
sS'CharacterOffsetEnd'
p6720
S'1800'
p6721
sS'Lemma'
p6722
S'the'
p6723
sS'PartOfSpeech'
p6724
S'DT'
p6725
sS'CharacterOffsetBegin'
p6726
S'1797'
p6727
stp6728
a(S'president'
p6729
(dp6730
S'NamedEntityTag'
p6731
g118
sS'CharacterOffsetEnd'
p6732
S'1810'
p6733
sS'Lemma'
p6734
S'president'
p6735
sS'PartOfSpeech'
p6736
S'NN'
p6737
sS'CharacterOffsetBegin'
p6738
S'1801'
p6739
stp6740
a(S'polled'
p6741
(dp6742
S'NamedEntityTag'
p6743
g118
sS'CharacterOffsetEnd'
p6744
S'1817'
p6745
sS'Lemma'
p6746
S'poll'
p6747
sS'PartOfSpeech'
p6748
S'VBN'
p6749
sS'CharacterOffsetBegin'
p6750
S'1811'
p6751
stp6752
a(S'members'
p6753
(dp6754
S'NamedEntityTag'
p6755
g118
sS'CharacterOffsetEnd'
p6756
S'1825'
p6757
sS'Lemma'
p6758
S'member'
p6759
sS'PartOfSpeech'
p6760
S'NNS'
p6761
sS'CharacterOffsetBegin'
p6762
S'1818'
p6763
stp6764
a(S'of'
p6765
(dp6766
S'NamedEntityTag'
p6767
g118
sS'CharacterOffsetEnd'
p6768
S'1828'
p6769
sS'Lemma'
p6770
S'of'
p6771
sS'PartOfSpeech'
p6772
S'IN'
p6773
sS'CharacterOffsetBegin'
p6774
S'1826'
p6775
stp6776
a(S'the'
p6777
(dp6778
S'NamedEntityTag'
p6779
g118
sS'CharacterOffsetEnd'
p6780
S'1832'
p6781
sS'Lemma'
p6782
S'the'
p6783
sS'PartOfSpeech'
p6784
S'DT'
p6785
sS'CharacterOffsetBegin'
p6786
S'1829'
p6787
stp6788
a(S'128-seat'
p6789
(dp6790
S'NamedEntityTag'
p6791
g118
sS'CharacterOffsetEnd'
p6792
S'1841'
p6793
sS'Lemma'
p6794
S'128-seat'
p6795
sS'PartOfSpeech'
p6796
S'JJ'
p6797
sS'CharacterOffsetBegin'
p6798
S'1833'
p6799
stp6800
a(S'Parliament'
p6801
(dp6802
S'NamedEntityTag'
p6803
g118
sS'CharacterOffsetEnd'
p6804
S'1852'
p6805
sS'Lemma'
p6806
S'Parliament'
p6807
sS'PartOfSpeech'
p6808
S'NNP'
p6809
sS'CharacterOffsetBegin'
p6810
S'1842'
p6811
stp6812
a(S'on'
p6813
(dp6814
S'NamedEntityTag'
p6815
g118
sS'CharacterOffsetEnd'
p6816
S'1855'
p6817
sS'Lemma'
p6818
S'on'
p6819
sS'PartOfSpeech'
p6820
S'IN'
p6821
sS'CharacterOffsetBegin'
p6822
S'1853'
p6823
stp6824
a(S'their'
p6825
(dp6826
S'NamedEntityTag'
p6827
g118
sS'CharacterOffsetEnd'
p6828
S'1861'
p6829
sS'Lemma'
p6830
S'they'
p6831
sS'PartOfSpeech'
p6832
S'PRP$'
p6833
sS'CharacterOffsetBegin'
p6834
S'1856'
p6835
stp6836
a(S'choice'
p6837
(dp6838
S'NamedEntityTag'
p6839
g118
sS'CharacterOffsetEnd'
p6840
S'1868'
p6841
sS'Lemma'
p6842
S'choice'
p6843
sS'PartOfSpeech'
p6844
S'NN'
p6845
sS'CharacterOffsetBegin'
p6846
S'1862'
p6847
stp6848
a(S'for'
p6849
(dp6850
S'NamedEntityTag'
p6851
g118
sS'CharacterOffsetEnd'
p6852
S'1872'
p6853
sS'Lemma'
p6854
S'for'
p6855
sS'PartOfSpeech'
p6856
S'IN'
p6857
sS'CharacterOffsetBegin'
p6858
S'1869'
p6859
stp6860
a(S'prime'
p6861
(dp6862
S'NamedEntityTag'
p6863
g118
sS'CharacterOffsetEnd'
p6864
S'1878'
p6865
sS'Lemma'
p6866
S'prime'
p6867
sS'PartOfSpeech'
p6868
S'JJ'
p6869
sS'CharacterOffsetBegin'
p6870
S'1873'
p6871
stp6872
a(S'minister'
p6873
(dp6874
S'NamedEntityTag'
p6875
g118
sS'CharacterOffsetEnd'
p6876
S'1887'
p6877
sS'Lemma'
p6878
S'minister'
p6879
sS'PartOfSpeech'
p6880
S'NN'
p6881
sS'CharacterOffsetBegin'
p6882
S'1879'
p6883
stp6884
a(g530
(dp6885
S'NamedEntityTag'
p6886
g118
sS'CharacterOffsetEnd'
p6887
S'1888'
p6888
sS'Lemma'
p6889
g530
sS'PartOfSpeech'
p6890
g530
sS'CharacterOffsetBegin'
p6891
S'1887'
p6892
stp6893
asa(dp6894
g15
S'(ROOT (S (CC But) (NP (NP (JJ many) (NNS legislators)) (, ,) (SBAR (WHNP (WP who)) (S (PP (IN in) (NP (DT the) (JJ past))) (VP (VBD gave) (NP (PRP$ their) (JJ overwhelming) (NN support)) (PP (TO to) (NP (NNP Hariri)))))) (, ,)) (VP (VP (VBD did) (RB not) (VP (VB name) (NP (PRP him)))) (CC and) (PRN (, ,) (ADVP (RB instead)) (, ,)) (VP (VBD left) (NP (PRP it)) (PP (TO to) (NP (DT the) (NN president) (S (VP (TO to) (VP (VB select) (NP (DT a) (JJ prime) (NN minister))))))))) (. .)))'
p6895
sg17
S'But many legislators, who in the past gave their overwhelming support to Hariri, did not name him and, instead, left it to the president to select a prime minister.'
p6896
sg19
(lp6897
(S'root'
p6898
S'ROOT'
p6899
S'name'
p6900
tp6901
a(S'amod'
p6902
S'legislators'
p6903
S'many'
p6904
tp6905
a(S'nsubj'
p6906
S'name'
p6907
S'legislators'
p6908
tp6909
a(S'nsubj'
p6910
S'gave'
p6911
S'who'
p6912
tp6913
a(S'det'
p6914
S'past'
p6915
S'the'
p6916
tp6917
a(S'prep_in'
p6918
S'gave'
p6919
S'past'
p6920
tp6921
a(S'rcmod'
p6922
S'legislators'
p6923
S'gave'
p6924
tp6925
a(S'poss'
p6926
S'support'
p6927
S'their'
p6928
tp6929
a(S'amod'
p6930
S'support'
p6931
S'overwhelming'
p6932
tp6933
a(S'dobj'
p6934
S'gave'
p6935
S'support'
p6936
tp6937
a(S'prep_to'
p6938
S'gave'
p6939
S'Hariri'
p6940
tp6941
a(S'aux'
p6942
S'name'
p6943
S'did'
p6944
tp6945
a(S'neg'
p6946
S'name'
p6947
S'not'
p6948
tp6949
a(S'dobj'
p6950
S'name'
p6951
S'him'
p6952
tp6953
a(S'dep'
p6954
S'name'
p6955
S'instead'
p6956
tp6957
a(S'conj_and'
p6958
S'name'
p6959
S'left'
p6960
tp6961
a(S'dobj'
p6962
S'left'
p6963
S'it'
p6964
tp6965
a(S'det'
p6966
S'president'
p6967
S'the'
p6968
tp6969
a(S'prep_to'
p6970
S'left'
p6971
S'president'
p6972
tp6973
a(S'aux'
p6974
S'select'
p6975
S'to'
p6976
tp6977
a(S'infmod'
p6978
S'president'
p6979
S'select'
p6980
tp6981
a(S'det'
p6982
S'minister'
p6983
g1318
tp6984
a(S'amod'
p6985
S'minister'
p6986
S'prime'
p6987
tp6988
a(S'dobj'
p6989
S'select'
p6990
S'minister'
p6991
tp6992
asg65
(lp6993
(g6898
S'ROOT-0'
p6994
S'name-18'
p6995
tp6996
a(g6902
S'legislators-3'
p6997
S'many-2'
p6998
tp6999
a(g6906
S'name-18'
p7000
S'legislators-3'
p7001
tp7002
a(g6910
S'gave-9'
p7003
S'who-5'
p7004
tp7005
a(g6914
S'past-8'
p7006
S'the-7'
p7007
tp7008
a(g6918
S'gave-9'
p7009
S'past-8'
p7010
tp7011
a(g6922
S'legislators-3'
p7012
S'gave-9'
p7013
tp7014
a(g6926
S'support-12'
p7015
S'their-10'
p7016
tp7017
a(g6930
S'support-12'
p7018
S'overwhelming-11'
p7019
tp7020
a(g6934
S'gave-9'
p7021
S'support-12'
p7022
tp7023
a(g6938
S'gave-9'
p7024
S'Hariri-14'
p7025
tp7026
a(g6942
S'name-18'
p7027
S'did-16'
p7028
tp7029
a(g6946
S'name-18'
p7030
S'not-17'
p7031
tp7032
a(g6950
S'name-18'
p7033
S'him-19'
p7034
tp7035
a(g6954
S'name-18'
p7036
S'instead-22'
p7037
tp7038
a(g6958
S'name-18'
p7039
S'left-24'
p7040
tp7041
a(g6962
S'left-24'
p7042
S'it-25'
p7043
tp7044
a(g6966
S'president-28'
p7045
S'the-27'
p7046
tp7047
a(g6970
S'left-24'
p7048
S'president-28'
p7049
tp7050
a(g6974
S'select-30'
p7051
S'to-29'
p7052
tp7053
a(g6978
S'president-28'
p7054
S'select-30'
p7055
tp7056
a(g6982
S'minister-33'
p7057
S'a-31'
p7058
tp7059
a(g6985
S'minister-33'
p7060
S'prime-32'
p7061
tp7062
a(g6989
S'select-30'
p7063
S'minister-33'
p7064
tp7065
asg100
(lp7066
(S'But'
p7067
(dp7068
S'NamedEntityTag'
p7069
g118
sS'CharacterOffsetEnd'
p7070
S'1892'
p7071
sS'Lemma'
p7072
S'but'
p7073
sS'PartOfSpeech'
p7074
S'CC'
p7075
sS'CharacterOffsetBegin'
p7076
S'1889'
p7077
stp7078
a(S'many'
p7079
(dp7080
S'NamedEntityTag'
p7081
g118
sS'CharacterOffsetEnd'
p7082
S'1897'
p7083
sS'Lemma'
p7084
S'many'
p7085
sS'PartOfSpeech'
p7086
S'JJ'
p7087
sS'CharacterOffsetBegin'
p7088
S'1893'
p7089
stp7090
a(S'legislators'
p7091
(dp7092
S'NamedEntityTag'
p7093
g118
sS'CharacterOffsetEnd'
p7094
S'1909'
p7095
sS'Lemma'
p7096
S'legislator'
p7097
sS'PartOfSpeech'
p7098
S'NNS'
p7099
sS'CharacterOffsetBegin'
p7100
S'1898'
p7101
stp7102
a(g115
(dp7103
S'NamedEntityTag'
p7104
g118
sS'CharacterOffsetEnd'
p7105
S'1910'
p7106
sS'Lemma'
p7107
g115
sS'PartOfSpeech'
p7108
g115
sS'CharacterOffsetBegin'
p7109
S'1909'
p7110
stp7111
a(S'who'
p7112
(dp7113
S'NamedEntityTag'
p7114
g118
sS'CharacterOffsetEnd'
p7115
S'1914'
p7116
sS'Lemma'
p7117
S'who'
p7118
sS'PartOfSpeech'
p7119
S'WP'
p7120
sS'CharacterOffsetBegin'
p7121
S'1911'
p7122
stp7123
a(S'in'
p7124
(dp7125
S'NamedEntityTag'
p7126
g118
sS'CharacterOffsetEnd'
p7127
S'1917'
p7128
sS'Lemma'
p7129
S'in'
p7130
sS'PartOfSpeech'
p7131
S'IN'
p7132
sS'CharacterOffsetBegin'
p7133
S'1915'
p7134
stp7135
a(S'the'
p7136
(dp7137
S'NormalizedNamedEntityTag'
p7138
S'PAST_REF'
p7139
sS'Timex'
p7140
S'<TIMEX3 tid="t7" type="DATE" value="PAST_REF">the past</TIMEX3>'
p7141
sS'Lemma'
p7142
S'the'
p7143
sS'CharacterOffsetEnd'
p7144
S'1921'
p7145
sS'PartOfSpeech'
p7146
S'DT'
p7147
sS'CharacterOffsetBegin'
p7148
S'1918'
p7149
sS'NamedEntityTag'
p7150
S'DATE'
p7151
stp7152
a(S'past'
p7153
(dp7154
S'NormalizedNamedEntityTag'
p7155
S'PAST_REF'
p7156
sS'Timex'
p7157
S'<TIMEX3 tid="t7" type="DATE" value="PAST_REF">the past</TIMEX3>'
p7158
sS'Lemma'
p7159
S'past'
p7160
sS'CharacterOffsetEnd'
p7161
S'1926'
p7162
sS'PartOfSpeech'
p7163
S'JJ'
p7164
sS'CharacterOffsetBegin'
p7165
S'1922'
p7166
sS'NamedEntityTag'
p7167
S'DATE'
p7168
stp7169
a(S'gave'
p7170
(dp7171
S'NamedEntityTag'
p7172
g118
sS'CharacterOffsetEnd'
p7173
S'1931'
p7174
sS'Lemma'
p7175
S'give'
p7176
sS'PartOfSpeech'
p7177
S'VBD'
p7178
sS'CharacterOffsetBegin'
p7179
S'1927'
p7180
stp7181
a(S'their'
p7182
(dp7183
S'NamedEntityTag'
p7184
g118
sS'CharacterOffsetEnd'
p7185
S'1937'
p7186
sS'Lemma'
p7187
S'they'
p7188
sS'PartOfSpeech'
p7189
S'PRP$'
p7190
sS'CharacterOffsetBegin'
p7191
S'1932'
p7192
stp7193
a(S'overwhelming'
p7194
(dp7195
S'NamedEntityTag'
p7196
g118
sS'CharacterOffsetEnd'
p7197
S'1950'
p7198
sS'Lemma'
p7199
S'overwhelming'
p7200
sS'PartOfSpeech'
p7201
S'JJ'
p7202
sS'CharacterOffsetBegin'
p7203
S'1938'
p7204
stp7205
a(S'support'
p7206
(dp7207
S'NamedEntityTag'
p7208
g118
sS'CharacterOffsetEnd'
p7209
S'1958'
p7210
sS'Lemma'
p7211
S'support'
p7212
sS'PartOfSpeech'
p7213
S'NN'
p7214
sS'CharacterOffsetBegin'
p7215
S'1951'
p7216
stp7217
a(S'to'
p7218
(dp7219
S'NamedEntityTag'
p7220
g118
sS'CharacterOffsetEnd'
p7221
S'1961'
p7222
sS'Lemma'
p7223
S'to'
p7224
sS'PartOfSpeech'
p7225
S'TO'
p7226
sS'CharacterOffsetBegin'
p7227
S'1959'
p7228
stp7229
a(S'Hariri'
p7230
(dp7231
S'NamedEntityTag'
p7232
S'PERSON'
p7233
sS'CharacterOffsetEnd'
p7234
S'1968'
p7235
sS'Lemma'
p7236
S'Hariri'
p7237
sS'PartOfSpeech'
p7238
S'NNP'
p7239
sS'CharacterOffsetBegin'
p7240
S'1962'
p7241
stp7242
a(g115
(dp7243
S'NamedEntityTag'
p7244
g118
sS'CharacterOffsetEnd'
p7245
S'1969'
p7246
sS'Lemma'
p7247
g115
sS'PartOfSpeech'
p7248
g115
sS'CharacterOffsetBegin'
p7249
S'1968'
p7250
stp7251
a(S'did'
p7252
(dp7253
S'NamedEntityTag'
p7254
g118
sS'CharacterOffsetEnd'
p7255
S'1973'
p7256
sS'Lemma'
p7257
S'do'
p7258
sS'PartOfSpeech'
p7259
S'VBD'
p7260
sS'CharacterOffsetBegin'
p7261
S'1970'
p7262
stp7263
a(S'not'
p7264
(dp7265
S'NamedEntityTag'
p7266
g118
sS'CharacterOffsetEnd'
p7267
S'1977'
p7268
sS'Lemma'
p7269
S'not'
p7270
sS'PartOfSpeech'
p7271
S'RB'
p7272
sS'CharacterOffsetBegin'
p7273
S'1974'
p7274
stp7275
a(S'name'
p7276
(dp7277
S'NamedEntityTag'
p7278
g118
sS'CharacterOffsetEnd'
p7279
S'1982'
p7280
sS'Lemma'
p7281
S'name'
p7282
sS'PartOfSpeech'
p7283
S'VB'
p7284
sS'CharacterOffsetBegin'
p7285
S'1978'
p7286
stp7287
a(S'him'
p7288
(dp7289
S'NamedEntityTag'
p7290
g118
sS'CharacterOffsetEnd'
p7291
S'1986'
p7292
sS'Lemma'
p7293
S'he'
p7294
sS'PartOfSpeech'
p7295
S'PRP'
p7296
sS'CharacterOffsetBegin'
p7297
S'1983'
p7298
stp7299
a(S'and'
p7300
(dp7301
S'NamedEntityTag'
p7302
g118
sS'CharacterOffsetEnd'
p7303
S'1990'
p7304
sS'Lemma'
p7305
S'and'
p7306
sS'PartOfSpeech'
p7307
S'CC'
p7308
sS'CharacterOffsetBegin'
p7309
S'1987'
p7310
stp7311
a(g115
(dp7312
S'NamedEntityTag'
p7313
g118
sS'CharacterOffsetEnd'
p7314
S'1991'
p7315
sS'Lemma'
p7316
g115
sS'PartOfSpeech'
p7317
g115
sS'CharacterOffsetBegin'
p7318
S'1990'
p7319
stp7320
a(S'instead'
p7321
(dp7322
S'NamedEntityTag'
p7323
g118
sS'CharacterOffsetEnd'
p7324
S'1999'
p7325
sS'Lemma'
p7326
S'instead'
p7327
sS'PartOfSpeech'
p7328
S'RB'
p7329
sS'CharacterOffsetBegin'
p7330
S'1992'
p7331
stp7332
a(g115
(dp7333
S'NamedEntityTag'
p7334
g118
sS'CharacterOffsetEnd'
p7335
S'2000'
p7336
sS'Lemma'
p7337
g115
sS'PartOfSpeech'
p7338
g115
sS'CharacterOffsetBegin'
p7339
S'1999'
p7340
stp7341
a(S'left'
p7342
(dp7343
S'NamedEntityTag'
p7344
g118
sS'CharacterOffsetEnd'
p7345
S'2005'
p7346
sS'Lemma'
p7347
S'leave'
p7348
sS'PartOfSpeech'
p7349
S'VBD'
p7350
sS'CharacterOffsetBegin'
p7351
S'2001'
p7352
stp7353
a(S'it'
p7354
(dp7355
S'NamedEntityTag'
p7356
g118
sS'CharacterOffsetEnd'
p7357
S'2008'
p7358
sS'Lemma'
p7359
S'it'
p7360
sS'PartOfSpeech'
p7361
S'PRP'
p7362
sS'CharacterOffsetBegin'
p7363
S'2006'
p7364
stp7365
a(S'to'
p7366
(dp7367
S'NamedEntityTag'
p7368
g118
sS'CharacterOffsetEnd'
p7369
S'2011'
p7370
sS'Lemma'
p7371
S'to'
p7372
sS'PartOfSpeech'
p7373
S'TO'
p7374
sS'CharacterOffsetBegin'
p7375
S'2009'
p7376
stp7377
a(S'the'
p7378
(dp7379
S'NamedEntityTag'
p7380
g118
sS'CharacterOffsetEnd'
p7381
S'2015'
p7382
sS'Lemma'
p7383
S'the'
p7384
sS'PartOfSpeech'
p7385
S'DT'
p7386
sS'CharacterOffsetBegin'
p7387
S'2012'
p7388
stp7389
a(S'president'
p7390
(dp7391
S'NamedEntityTag'
p7392
g118
sS'CharacterOffsetEnd'
p7393
S'2025'
p7394
sS'Lemma'
p7395
S'president'
p7396
sS'PartOfSpeech'
p7397
S'NN'
p7398
sS'CharacterOffsetBegin'
p7399
S'2016'
p7400
stp7401
a(S'to'
p7402
(dp7403
S'NamedEntityTag'
p7404
g118
sS'CharacterOffsetEnd'
p7405
S'2028'
p7406
sS'Lemma'
p7407
S'to'
p7408
sS'PartOfSpeech'
p7409
S'TO'
p7410
sS'CharacterOffsetBegin'
p7411
S'2026'
p7412
stp7413
a(S'select'
p7414
(dp7415
S'NamedEntityTag'
p7416
g118
sS'CharacterOffsetEnd'
p7417
S'2035'
p7418
sS'Lemma'
p7419
S'select'
p7420
sS'PartOfSpeech'
p7421
S'VB'
p7422
sS'CharacterOffsetBegin'
p7423
S'2029'
p7424
stp7425
a(g1318
(dp7426
S'NamedEntityTag'
p7427
g118
sS'CharacterOffsetEnd'
p7428
S'2037'
p7429
sS'Lemma'
p7430
g1318
sS'PartOfSpeech'
p7431
S'DT'
p7432
sS'CharacterOffsetBegin'
p7433
S'2036'
p7434
stp7435
a(S'prime'
p7436
(dp7437
S'NamedEntityTag'
p7438
g118
sS'CharacterOffsetEnd'
p7439
S'2043'
p7440
sS'Lemma'
p7441
S'prime'
p7442
sS'PartOfSpeech'
p7443
S'JJ'
p7444
sS'CharacterOffsetBegin'
p7445
S'2038'
p7446
stp7447
a(S'minister'
p7448
(dp7449
S'NamedEntityTag'
p7450
g118
sS'CharacterOffsetEnd'
p7451
S'2052'
p7452
sS'Lemma'
p7453
S'minister'
p7454
sS'PartOfSpeech'
p7455
S'NN'
p7456
sS'CharacterOffsetBegin'
p7457
S'2044'
p7458
stp7459
a(g530
(dp7460
S'NamedEntityTag'
p7461
g118
sS'CharacterOffsetEnd'
p7462
S'2053'
p7463
sS'Lemma'
p7464
g530
sS'PartOfSpeech'
p7465
g530
sS'CharacterOffsetBegin'
p7466
S'2052'
p7467
stp7468
asa(dp7469
g15
S'(ROOT (S (S (NP (DT The) (CD two) (NNS leaders)) (VP (VBD met) (NP-TMP (NNP Friday)))) (, ,) (CC but) (S (NP (DT no) (JJ presidential) (NN decree)) (VP (VBD followed))) (. .)))'
p7470
sg17
S'The two leaders met Friday, but no presidential decree followed.'
p7471
sg19
(lp7472
(S'root'
p7473
S'ROOT'
p7474
S'met'
p7475
tp7476
a(S'det'
p7477
S'leaders'
p7478
S'The'
p7479
tp7480
a(S'num'
p7481
S'leaders'
p7482
S'two'
p7483
tp7484
a(S'nsubj'
p7485
S'met'
p7486
S'leaders'
p7487
tp7488
a(S'tmod'
p7489
S'met'
p7490
S'Friday'
p7491
tp7492
a(S'det'
p7493
S'decree'
p7494
S'no'
p7495
tp7496
a(S'amod'
p7497
S'decree'
p7498
S'presidential'
p7499
tp7500
a(S'nsubj'
p7501
S'followed'
p7502
S'decree'
p7503
tp7504
a(S'conj_but'
p7505
S'met'
p7506
S'followed'
p7507
tp7508
asg65
(lp7509
(g7473
S'ROOT-0'
p7510
S'met-4'
p7511
tp7512
a(g7477
S'leaders-3'
p7513
S'The-1'
p7514
tp7515
a(g7481
S'leaders-3'
p7516
S'two-2'
p7517
tp7518
a(g7485
S'met-4'
p7519
S'leaders-3'
p7520
tp7521
a(g7489
S'met-4'
p7522
S'Friday-5'
p7523
tp7524
a(g7493
S'decree-10'
p7525
S'no-8'
p7526
tp7527
a(g7497
S'decree-10'
p7528
S'presidential-9'
p7529
tp7530
a(g7501
S'followed-11'
p7531
S'decree-10'
p7532
tp7533
a(g7505
S'met-4'
p7534
S'followed-11'
p7535
tp7536
asg100
(lp7537
(S'The'
p7538
(dp7539
S'NamedEntityTag'
p7540
g118
sS'CharacterOffsetEnd'
p7541
S'2057'
p7542
sS'Lemma'
p7543
S'the'
p7544
sS'PartOfSpeech'
p7545
S'DT'
p7546
sS'CharacterOffsetBegin'
p7547
S'2054'
p7548
stp7549
a(S'two'
p7550
(dp7551
S'NormalizedNamedEntityTag'
p7552
S'2.0'
p7553
sS'Lemma'
p7554
S'two'
p7555
sS'CharacterOffsetEnd'
p7556
S'2061'
p7557
sS'PartOfSpeech'
p7558
S'CD'
p7559
sS'CharacterOffsetBegin'
p7560
S'2058'
p7561
sS'NamedEntityTag'
p7562
S'NUMBER'
p7563
stp7564
a(S'leaders'
p7565
(dp7566
S'NamedEntityTag'
p7567
g118
sS'CharacterOffsetEnd'
p7568
S'2069'
p7569
sS'Lemma'
p7570
S'leader'
p7571
sS'PartOfSpeech'
p7572
S'NNS'
p7573
sS'CharacterOffsetBegin'
p7574
S'2062'
p7575
stp7576
a(S'met'
p7577
(dp7578
S'NamedEntityTag'
p7579
g118
sS'CharacterOffsetEnd'
p7580
S'2073'
p7581
sS'Lemma'
p7582
S'meet'
p7583
sS'PartOfSpeech'
p7584
S'VBD'
p7585
sS'CharacterOffsetBegin'
p7586
S'2070'
p7587
stp7588
a(S'Friday'
p7589
(dp7590
S'NormalizedNamedEntityTag'
p7591
S'XXXX-WXX-5'
p7592
sS'Timex'
p7593
S'<TIMEX3 tid="t8" type="DATE" value="XXXX-WXX-5">Friday</TIMEX3>'
p7594
sS'Lemma'
p7595
S'Friday'
p7596
sS'CharacterOffsetEnd'
p7597
S'2080'
p7598
sS'PartOfSpeech'
p7599
S'NNP'
p7600
sS'CharacterOffsetBegin'
p7601
S'2074'
p7602
sS'NamedEntityTag'
p7603
S'DATE'
p7604
stp7605
a(g115
(dp7606
S'NamedEntityTag'
p7607
g118
sS'CharacterOffsetEnd'
p7608
S'2081'
p7609
sS'Lemma'
p7610
g115
sS'PartOfSpeech'
p7611
g115
sS'CharacterOffsetBegin'
p7612
S'2080'
p7613
stp7614
a(S'but'
p7615
(dp7616
S'NamedEntityTag'
p7617
g118
sS'CharacterOffsetEnd'
p7618
S'2085'
p7619
sS'Lemma'
p7620
S'but'
p7621
sS'PartOfSpeech'
p7622
S'CC'
p7623
sS'CharacterOffsetBegin'
p7624
S'2082'
p7625
stp7626
a(S'no'
p7627
(dp7628
S'NamedEntityTag'
p7629
g118
sS'CharacterOffsetEnd'
p7630
S'2088'
p7631
sS'Lemma'
p7632
S'no'
p7633
sS'PartOfSpeech'
p7634
S'DT'
p7635
sS'CharacterOffsetBegin'
p7636
S'2086'
p7637
stp7638
a(S'presidential'
p7639
(dp7640
S'NamedEntityTag'
p7641
g118
sS'CharacterOffsetEnd'
p7642
S'2101'
p7643
sS'Lemma'
p7644
S'presidential'
p7645
sS'PartOfSpeech'
p7646
S'JJ'
p7647
sS'CharacterOffsetBegin'
p7648
S'2089'
p7649
stp7650
a(S'decree'
p7651
(dp7652
S'NamedEntityTag'
p7653
g118
sS'CharacterOffsetEnd'
p7654
S'2108'
p7655
sS'Lemma'
p7656
S'decree'
p7657
sS'PartOfSpeech'
p7658
S'NN'
p7659
sS'CharacterOffsetBegin'
p7660
S'2102'
p7661
stp7662
a(S'followed'
p7663
(dp7664
S'NamedEntityTag'
p7665
g118
sS'CharacterOffsetEnd'
p7666
S'2117'
p7667
sS'Lemma'
p7668
S'follow'
p7669
sS'PartOfSpeech'
p7670
S'VBD'
p7671
sS'CharacterOffsetBegin'
p7672
S'2109'
p7673
stp7674
a(g530
(dp7675
S'NamedEntityTag'
p7676
g118
sS'CharacterOffsetEnd'
p7677
S'2118'
p7678
sS'Lemma'
p7679
g530
sS'PartOfSpeech'
p7680
g530
sS'CharacterOffsetBegin'
p7681
S'2117'
p7682
stp7683
asa(dp7684
g15
S'(ROOT (S (NP (NP (DT The) (NNS sources)) (ADVP (RB close) (PP (TO to) (NP (NNP Hariri))))) (, ,) (S (VP (VBG speaking) (PP (IN on) (NP (NP (NN condition)) (PP (IN of) (NP (NN anonymity))))))) (, ,) (VP (VBD said) (SBAR (S (NP (NP (DT the) (JJ prime) (NNS ministers) (NN decision)) (SBAR (S (VP (TO to) (VP (VB bow) (PRT (RP out))))))) (VP (VBD came) (SBAR (IN because) (S (NP (PRP he)) (VP (VBD did) (RB not) (VP (VB feel) (SBAR (S (NP (NNP Lahoud)) (VP (VBD was) (VP (VBG following) (NP (JJ constitutional) (NNS procedures)) (PP (IN in) (S (VP (VBG selecting) (NP (DT the) (NN premier))))))))))))))))) (. .)))'
p7685
sg17
S'The sources close to Hariri, speaking on condition of anonymity, said the prime ministers decision to bow out came because he did not feel Lahoud was following constitutional procedures in selecting the premier.'
p7686
sg19
(lp7687
(S'root'
p7688
S'ROOT'
p7689
S'said'
p7690
tp7691
a(S'det'
p7692
S'sources'
p7693
S'The'
p7694
tp7695
a(S'nsubj'
p7696
S'said'
p7697
S'sources'
p7698
tp7699
a(S'prep_close_to'
p7700
S'sources'
p7701
S'Hariri'
p7702
tp7703
a(S'partmod'
p7704
S'said'
p7705
S'speaking'
p7706
tp7707
a(S'prep_on'
p7708
S'speaking'
p7709
S'condition'
p7710
tp7711
a(S'prep_of'
p7712
S'condition'
p7713
S'anonymity'
p7714
tp7715
a(S'det'
p7716
S'decision'
p7717
S'the'
p7718
tp7719
a(S'amod'
p7720
S'decision'
p7721
S'prime'
p7722
tp7723
a(S'nn'
p7724
S'decision'
p7725
S'ministers'
p7726
tp7727
a(S'nsubj'
p7728
S'came'
p7729
S'decision'
p7730
tp7731
a(S'aux'
p7732
S'bow'
p7733
S'to'
p7734
tp7735
a(S'infmod'
p7736
S'decision'
p7737
S'bow'
p7738
tp7739
a(S'prt'
p7740
S'bow'
p7741
S'out'
p7742
tp7743
a(S'ccomp'
p7744
S'said'
p7745
S'came'
p7746
tp7747
a(S'mark'
p7748
S'feel'
p7749
S'because'
p7750
tp7751
a(S'nsubj'
p7752
S'feel'
p7753
S'he'
p7754
tp7755
a(S'aux'
p7756
S'feel'
p7757
S'did'
p7758
tp7759
a(S'neg'
p7760
S'feel'
p7761
S'not'
p7762
tp7763
a(S'advcl'
p7764
S'came'
p7765
S'feel'
p7766
tp7767
a(S'nsubj'
p7768
S'following'
p7769
S'Lahoud'
p7770
tp7771
a(S'aux'
p7772
S'following'
p7773
S'was'
p7774
tp7775
a(S'ccomp'
p7776
S'feel'
p7777
S'following'
p7778
tp7779
a(S'amod'
p7780
S'procedures'
p7781
S'constitutional'
p7782
tp7783
a(S'dobj'
p7784
S'following'
p7785
S'procedures'
p7786
tp7787
a(S'prepc_in'
p7788
S'following'
p7789
S'selecting'
p7790
tp7791
a(S'det'
p7792
S'premier'
p7793
S'the'
p7794
tp7795
a(S'dobj'
p7796
S'selecting'
p7797
S'premier'
p7798
tp7799
asg65
(lp7800
(g7688
S'ROOT-0'
p7801
S'said-13'
p7802
tp7803
a(g7692
S'sources-2'
p7804
S'The-1'
p7805
tp7806
a(g7696
S'said-13'
p7807
S'sources-2'
p7808
tp7809
a(g7700
S'sources-2'
p7810
S'Hariri-5'
p7811
tp7812
a(g7704
S'said-13'
p7813
S'speaking-7'
p7814
tp7815
a(g7708
S'speaking-7'
p7816
S'condition-9'
p7817
tp7818
a(g7712
S'condition-9'
p7819
S'anonymity-11'
p7820
tp7821
a(g7716
S'decision-17'
p7822
S'the-14'
p7823
tp7824
a(g7720
S'decision-17'
p7825
S'prime-15'
p7826
tp7827
a(g7724
S'decision-17'
p7828
S'ministers-16'
p7829
tp7830
a(g7728
S'came-21'
p7831
S'decision-17'
p7832
tp7833
a(g7732
S'bow-19'
p7834
S'to-18'
p7835
tp7836
a(g7736
S'decision-17'
p7837
S'bow-19'
p7838
tp7839
a(g7740
S'bow-19'
p7840
S'out-20'
p7841
tp7842
a(g7744
S'said-13'
p7843
S'came-21'
p7844
tp7845
a(g7748
S'feel-26'
p7846
S'because-22'
p7847
tp7848
a(g7752
S'feel-26'
p7849
S'he-23'
p7850
tp7851
a(g7756
S'feel-26'
p7852
S'did-24'
p7853
tp7854
a(g7760
S'feel-26'
p7855
S'not-25'
p7856
tp7857
a(g7764
S'came-21'
p7858
S'feel-26'
p7859
tp7860
a(g7768
S'following-29'
p7861
S'Lahoud-27'
p7862
tp7863
a(g7772
S'following-29'
p7864
S'was-28'
p7865
tp7866
a(g7776
S'feel-26'
p7867
S'following-29'
p7868
tp7869
a(g7780
S'procedures-31'
p7870
S'constitutional-30'
p7871
tp7872
a(g7784
S'following-29'
p7873
S'procedures-31'
p7874
tp7875
a(g7788
S'following-29'
p7876
S'selecting-33'
p7877
tp7878
a(g7792
S'premier-35'
p7879
S'the-34'
p7880
tp7881
a(g7796
S'selecting-33'
p7882
S'premier-35'
p7883
tp7884
asg100
(lp7885
(S'The'
p7886
(dp7887
S'NamedEntityTag'
p7888
g118
sS'CharacterOffsetEnd'
p7889
S'2122'
p7890
sS'Lemma'
p7891
S'the'
p7892
sS'PartOfSpeech'
p7893
S'DT'
p7894
sS'CharacterOffsetBegin'
p7895
S'2119'
p7896
stp7897
a(S'sources'
p7898
(dp7899
S'NamedEntityTag'
p7900
g118
sS'CharacterOffsetEnd'
p7901
S'2130'
p7902
sS'Lemma'
p7903
S'source'
p7904
sS'PartOfSpeech'
p7905
S'NNS'
p7906
sS'CharacterOffsetBegin'
p7907
S'2123'
p7908
stp7909
a(S'close'
p7910
(dp7911
S'NamedEntityTag'
p7912
g118
sS'CharacterOffsetEnd'
p7913
S'2136'
p7914
sS'Lemma'
p7915
S'close'
p7916
sS'PartOfSpeech'
p7917
S'RB'
p7918
sS'CharacterOffsetBegin'
p7919
S'2131'
p7920
stp7921
a(S'to'
p7922
(dp7923
S'NamedEntityTag'
p7924
g118
sS'CharacterOffsetEnd'
p7925
S'2139'
p7926
sS'Lemma'
p7927
S'to'
p7928
sS'PartOfSpeech'
p7929
S'TO'
p7930
sS'CharacterOffsetBegin'
p7931
S'2137'
p7932
stp7933
a(S'Hariri'
p7934
(dp7935
S'NamedEntityTag'
p7936
S'PERSON'
p7937
sS'CharacterOffsetEnd'
p7938
S'2146'
p7939
sS'Lemma'
p7940
S'Hariri'
p7941
sS'PartOfSpeech'
p7942
S'NNP'
p7943
sS'CharacterOffsetBegin'
p7944
S'2140'
p7945
stp7946
a(g115
(dp7947
S'NamedEntityTag'
p7948
g118
sS'CharacterOffsetEnd'
p7949
S'2147'
p7950
sS'Lemma'
p7951
g115
sS'PartOfSpeech'
p7952
g115
sS'CharacterOffsetBegin'
p7953
S'2146'
p7954
stp7955
a(S'speaking'
p7956
(dp7957
S'NamedEntityTag'
p7958
g118
sS'CharacterOffsetEnd'
p7959
S'2156'
p7960
sS'Lemma'
p7961
S'speak'
p7962
sS'PartOfSpeech'
p7963
S'VBG'
p7964
sS'CharacterOffsetBegin'
p7965
S'2148'
p7966
stp7967
a(S'on'
p7968
(dp7969
S'NamedEntityTag'
p7970
g118
sS'CharacterOffsetEnd'
p7971
S'2159'
p7972
sS'Lemma'
p7973
S'on'
p7974
sS'PartOfSpeech'
p7975
S'IN'
p7976
sS'CharacterOffsetBegin'
p7977
S'2157'
p7978
stp7979
a(S'condition'
p7980
(dp7981
S'NamedEntityTag'
p7982
g118
sS'CharacterOffsetEnd'
p7983
S'2169'
p7984
sS'Lemma'
p7985
S'condition'
p7986
sS'PartOfSpeech'
p7987
S'NN'
p7988
sS'CharacterOffsetBegin'
p7989
S'2160'
p7990
stp7991
a(S'of'
p7992
(dp7993
S'NamedEntityTag'
p7994
g118
sS'CharacterOffsetEnd'
p7995
S'2172'
p7996
sS'Lemma'
p7997
S'of'
p7998
sS'PartOfSpeech'
p7999
S'IN'
p8000
sS'CharacterOffsetBegin'
p8001
S'2170'
p8002
stp8003
a(S'anonymity'
p8004
(dp8005
S'NamedEntityTag'
p8006
g118
sS'CharacterOffsetEnd'
p8007
S'2182'
p8008
sS'Lemma'
p8009
S'anonymity'
p8010
sS'PartOfSpeech'
p8011
S'NN'
p8012
sS'CharacterOffsetBegin'
p8013
S'2173'
p8014
stp8015
a(g115
(dp8016
S'NamedEntityTag'
p8017
g118
sS'CharacterOffsetEnd'
p8018
S'2183'
p8019
sS'Lemma'
p8020
g115
sS'PartOfSpeech'
p8021
g115
sS'CharacterOffsetBegin'
p8022
S'2182'
p8023
stp8024
a(S'said'
p8025
(dp8026
S'NamedEntityTag'
p8027
g118
sS'CharacterOffsetEnd'
p8028
S'2188'
p8029
sS'Lemma'
p8030
S'say'
p8031
sS'PartOfSpeech'
p8032
S'VBD'
p8033
sS'CharacterOffsetBegin'
p8034
S'2184'
p8035
stp8036
a(S'the'
p8037
(dp8038
S'NamedEntityTag'
p8039
g118
sS'CharacterOffsetEnd'
p8040
S'2192'
p8041
sS'Lemma'
p8042
S'the'
p8043
sS'PartOfSpeech'
p8044
S'DT'
p8045
sS'CharacterOffsetBegin'
p8046
S'2189'
p8047
stp8048
a(S'prime'
p8049
(dp8050
S'NamedEntityTag'
p8051
g118
sS'CharacterOffsetEnd'
p8052
S'2198'
p8053
sS'Lemma'
p8054
S'prime'
p8055
sS'PartOfSpeech'
p8056
S'JJ'
p8057
sS'CharacterOffsetBegin'
p8058
S'2193'
p8059
stp8060
a(S'ministers'
p8061
(dp8062
S'NamedEntityTag'
p8063
g118
sS'CharacterOffsetEnd'
p8064
S'2208'
p8065
sS'Lemma'
p8066
S'minister'
p8067
sS'PartOfSpeech'
p8068
S'NNS'
p8069
sS'CharacterOffsetBegin'
p8070
S'2199'
p8071
stp8072
a(S'decision'
p8073
(dp8074
S'NamedEntityTag'
p8075
g118
sS'CharacterOffsetEnd'
p8076
S'2217'
p8077
sS'Lemma'
p8078
S'decision'
p8079
sS'PartOfSpeech'
p8080
S'NN'
p8081
sS'CharacterOffsetBegin'
p8082
S'2209'
p8083
stp8084
a(S'to'
p8085
(dp8086
S'NamedEntityTag'
p8087
g118
sS'CharacterOffsetEnd'
p8088
S'2220'
p8089
sS'Lemma'
p8090
S'to'
p8091
sS'PartOfSpeech'
p8092
S'TO'
p8093
sS'CharacterOffsetBegin'
p8094
S'2218'
p8095
stp8096
a(S'bow'
p8097
(dp8098
S'NamedEntityTag'
p8099
g118
sS'CharacterOffsetEnd'
p8100
S'2224'
p8101
sS'Lemma'
p8102
S'bow'
p8103
sS'PartOfSpeech'
p8104
S'VB'
p8105
sS'CharacterOffsetBegin'
p8106
S'2221'
p8107
stp8108
a(S'out'
p8109
(dp8110
S'NamedEntityTag'
p8111
g118
sS'CharacterOffsetEnd'
p8112
S'2228'
p8113
sS'Lemma'
p8114
S'out'
p8115
sS'PartOfSpeech'
p8116
S'RP'
p8117
sS'CharacterOffsetBegin'
p8118
S'2225'
p8119
stp8120
a(S'came'
p8121
(dp8122
S'NamedEntityTag'
p8123
g118
sS'CharacterOffsetEnd'
p8124
S'2233'
p8125
sS'Lemma'
p8126
S'come'
p8127
sS'PartOfSpeech'
p8128
S'VBD'
p8129
sS'CharacterOffsetBegin'
p8130
S'2229'
p8131
stp8132
a(S'because'
p8133
(dp8134
S'NamedEntityTag'
p8135
g118
sS'CharacterOffsetEnd'
p8136
S'2241'
p8137
sS'Lemma'
p8138
S'because'
p8139
sS'PartOfSpeech'
p8140
S'IN'
p8141
sS'CharacterOffsetBegin'
p8142
S'2234'
p8143
stp8144
a(S'he'
p8145
(dp8146
S'NamedEntityTag'
p8147
g118
sS'CharacterOffsetEnd'
p8148
S'2244'
p8149
sS'Lemma'
p8150
S'he'
p8151
sS'PartOfSpeech'
p8152
S'PRP'
p8153
sS'CharacterOffsetBegin'
p8154
S'2242'
p8155
stp8156
a(S'did'
p8157
(dp8158
S'NamedEntityTag'
p8159
g118
sS'CharacterOffsetEnd'
p8160
S'2248'
p8161
sS'Lemma'
p8162
S'do'
p8163
sS'PartOfSpeech'
p8164
S'VBD'
p8165
sS'CharacterOffsetBegin'
p8166
S'2245'
p8167
stp8168
a(S'not'
p8169
(dp8170
S'NamedEntityTag'
p8171
g118
sS'CharacterOffsetEnd'
p8172
S'2252'
p8173
sS'Lemma'
p8174
S'not'
p8175
sS'PartOfSpeech'
p8176
S'RB'
p8177
sS'CharacterOffsetBegin'
p8178
S'2249'
p8179
stp8180
a(S'feel'
p8181
(dp8182
S'NamedEntityTag'
p8183
g118
sS'CharacterOffsetEnd'
p8184
S'2257'
p8185
sS'Lemma'
p8186
S'feel'
p8187
sS'PartOfSpeech'
p8188
S'VB'
p8189
sS'CharacterOffsetBegin'
p8190
S'2253'
p8191
stp8192
a(S'Lahoud'
p8193
(dp8194
S'NamedEntityTag'
p8195
S'PERSON'
p8196
sS'CharacterOffsetEnd'
p8197
S'2264'
p8198
sS'Lemma'
p8199
S'Lahoud'
p8200
sS'PartOfSpeech'
p8201
S'NNP'
p8202
sS'CharacterOffsetBegin'
p8203
S'2258'
p8204
stp8205
a(S'was'
p8206
(dp8207
S'NamedEntityTag'
p8208
g118
sS'CharacterOffsetEnd'
p8209
S'2268'
p8210
sS'Lemma'
p8211
S'be'
p8212
sS'PartOfSpeech'
p8213
S'VBD'
p8214
sS'CharacterOffsetBegin'
p8215
S'2265'
p8216
stp8217
a(S'following'
p8218
(dp8219
S'NamedEntityTag'
p8220
g118
sS'CharacterOffsetEnd'
p8221
S'2278'
p8222
sS'Lemma'
p8223
S'follow'
p8224
sS'PartOfSpeech'
p8225
S'VBG'
p8226
sS'CharacterOffsetBegin'
p8227
S'2269'
p8228
stp8229
a(S'constitutional'
p8230
(dp8231
S'NamedEntityTag'
p8232
g118
sS'CharacterOffsetEnd'
p8233
S'2293'
p8234
sS'Lemma'
p8235
S'constitutional'
p8236
sS'PartOfSpeech'
p8237
S'JJ'
p8238
sS'CharacterOffsetBegin'
p8239
S'2279'
p8240
stp8241
a(S'procedures'
p8242
(dp8243
S'NamedEntityTag'
p8244
g118
sS'CharacterOffsetEnd'
p8245
S'2304'
p8246
sS'Lemma'
p8247
S'procedure'
p8248
sS'PartOfSpeech'
p8249
S'NNS'
p8250
sS'CharacterOffsetBegin'
p8251
S'2294'
p8252
stp8253
a(S'in'
p8254
(dp8255
S'NamedEntityTag'
p8256
g118
sS'CharacterOffsetEnd'
p8257
S'2307'
p8258
sS'Lemma'
p8259
S'in'
p8260
sS'PartOfSpeech'
p8261
S'IN'
p8262
sS'CharacterOffsetBegin'
p8263
S'2305'
p8264
stp8265
a(S'selecting'
p8266
(dp8267
S'NamedEntityTag'
p8268
g118
sS'CharacterOffsetEnd'
p8269
S'2317'
p8270
sS'Lemma'
p8271
S'select'
p8272
sS'PartOfSpeech'
p8273
S'VBG'
p8274
sS'CharacterOffsetBegin'
p8275
S'2308'
p8276
stp8277
a(S'the'
p8278
(dp8279
S'NamedEntityTag'
p8280
g118
sS'CharacterOffsetEnd'
p8281
S'2321'
p8282
sS'Lemma'
p8283
S'the'
p8284
sS'PartOfSpeech'
p8285
S'DT'
p8286
sS'CharacterOffsetBegin'
p8287
S'2318'
p8288
stp8289
a(S'premier'
p8290
(dp8291
S'NamedEntityTag'
p8292
g118
sS'CharacterOffsetEnd'
p8293
S'2329'
p8294
sS'Lemma'
p8295
S'premier'
p8296
sS'PartOfSpeech'
p8297
S'NN'
p8298
sS'CharacterOffsetBegin'
p8299
S'2322'
p8300
stp8301
a(g530
(dp8302
S'NamedEntityTag'
p8303
g118
sS'CharacterOffsetEnd'
p8304
S'2330'
p8305
sS'Lemma'
p8306
g530
sS'PartOfSpeech'
p8307
g530
sS'CharacterOffsetBegin'
p8308
S'2329'
p8309
stp8310
asa(dp8311
g15
S'(ROOT (S (NP (DT The) (NNP Hariri) (NN camp)) (VP (VP (VBZ argues) (SBAR (IN that) (S (NP (DT the) (NN president)) (VP (MD can) (VP (VB poll) (NP (NNP Parliament) (NNS members)) (PP (IN on) (NP (NP (PRP$ their) (NN choice)) (PP (IN for) (NP (JJ prime) (NN minister)))))))))) (CC but) (VP (MD can) (RB not) (VP (VB accept) (NP (DT a) (NN mandate) (S (VP (TO to) (VP (VB name) (NP (NP (DT a) (NN person)) (PP (IN of) (NP (PRP$ his) (NN choice))))))))))) (. .)))'
p8312
sg17
S'The Hariri camp argues that the president can poll Parliament members on their choice for prime minister but cannot accept a mandate to name a person of his choice.'
p8313
sg19
(lp8314
(S'root'
p8315
S'ROOT'
p8316
S'argues'
p8317
tp8318
a(S'det'
p8319
S'camp'
p8320
S'The'
p8321
tp8322
a(S'nn'
p8323
S'camp'
p8324
S'Hariri'
p8325
tp8326
a(S'nsubj'
p8327
S'argues'
p8328
S'camp'
p8329
tp8330
a(S'mark'
p8331
S'poll'
p8332
S'that'
p8333
tp8334
a(S'det'
p8335
S'president'
p8336
S'the'
p8337
tp8338
a(S'nsubj'
p8339
S'poll'
p8340
S'president'
p8341
tp8342
a(S'aux'
p8343
S'poll'
p8344
S'can'
p8345
tp8346
a(S'ccomp'
p8347
S'argues'
p8348
S'poll'
p8349
tp8350
a(S'nn'
p8351
S'members'
p8352
S'Parliament'
p8353
tp8354
a(S'dobj'
p8355
S'poll'
p8356
S'members'
p8357
tp8358
a(S'poss'
p8359
S'choice'
p8360
S'their'
p8361
tp8362
a(S'prep_on'
p8363
S'poll'
p8364
S'choice'
p8365
tp8366
a(S'amod'
p8367
S'minister'
p8368
S'prime'
p8369
tp8370
a(S'prep_for'
p8371
S'choice'
p8372
S'minister'
p8373
tp8374
a(S'aux'
p8375
S'accept'
p8376
S'can'
p8377
tp8378
a(S'neg'
p8379
S'accept'
p8380
S'not'
p8381
tp8382
a(S'conj_but'
p8383
S'argues'
p8384
S'accept'
p8385
tp8386
a(S'det'
p8387
S'mandate'
p8388
g1318
tp8389
a(S'dobj'
p8390
S'accept'
p8391
S'mandate'
p8392
tp8393
a(S'aux'
p8394
S'name'
p8395
S'to'
p8396
tp8397
a(S'infmod'
p8398
S'mandate'
p8399
S'name'
p8400
tp8401
a(S'det'
p8402
S'person'
p8403
g1318
tp8404
a(S'dobj'
p8405
S'name'
p8406
S'person'
p8407
tp8408
a(S'poss'
p8409
S'choice'
p8410
S'his'
p8411
tp8412
a(S'prep_of'
p8413
S'person'
p8414
S'choice'
p8415
tp8416
asg65
(lp8417
(g8315
S'ROOT-0'
p8418
S'argues-4'
p8419
tp8420
a(g8319
S'camp-3'
p8421
S'The-1'
p8422
tp8423
a(g8323
S'camp-3'
p8424
S'Hariri-2'
p8425
tp8426
a(g8327
S'argues-4'
p8427
S'camp-3'
p8428
tp8429
a(g8331
S'poll-9'
p8430
S'that-5'
p8431
tp8432
a(g8335
S'president-7'
p8433
S'the-6'
p8434
tp8435
a(g8339
S'poll-9'
p8436
S'president-7'
p8437
tp8438
a(g8343
S'poll-9'
p8439
S'can-8'
p8440
tp8441
a(g8347
S'argues-4'
p8442
S'poll-9'
p8443
tp8444
a(g8351
S'members-11'
p8445
S'Parliament-10'
p8446
tp8447
a(g8355
S'poll-9'
p8448
S'members-11'
p8449
tp8450
a(g8359
S'choice-14'
p8451
S'their-13'
p8452
tp8453
a(g8363
S'poll-9'
p8454
S'choice-14'
p8455
tp8456
a(g8367
S'minister-17'
p8457
S'prime-16'
p8458
tp8459
a(g8371
S'choice-14'
p8460
S'minister-17'
p8461
tp8462
a(g8375
S'accept-21'
p8463
S'can-19'
p8464
tp8465
a(g8379
S'accept-21'
p8466
S'not-20'
p8467
tp8468
a(g8383
S'argues-4'
p8469
S'accept-21'
p8470
tp8471
a(g8387
S'mandate-23'
p8472
S'a-22'
p8473
tp8474
a(g8390
S'accept-21'
p8475
S'mandate-23'
p8476
tp8477
a(g8394
S'name-25'
p8478
S'to-24'
p8479
tp8480
a(g8398
S'mandate-23'
p8481
S'name-25'
p8482
tp8483
a(g8402
S'person-27'
p8484
S'a-26'
p8485
tp8486
a(g8405
S'name-25'
p8487
S'person-27'
p8488
tp8489
a(g8409
S'choice-30'
p8490
S'his-29'
p8491
tp8492
a(g8413
S'person-27'
p8493
S'choice-30'
p8494
tp8495
asg100
(lp8496
(S'The'
p8497
(dp8498
S'NamedEntityTag'
p8499
g118
sS'CharacterOffsetEnd'
p8500
S'2334'
p8501
sS'Lemma'
p8502
S'the'
p8503
sS'PartOfSpeech'
p8504
S'DT'
p8505
sS'CharacterOffsetBegin'
p8506
S'2331'
p8507
stp8508
a(S'Hariri'
p8509
(dp8510
S'NamedEntityTag'
p8511
S'PERSON'
p8512
sS'CharacterOffsetEnd'
p8513
S'2341'
p8514
sS'Lemma'
p8515
S'Hariri'
p8516
sS'PartOfSpeech'
p8517
S'NNP'
p8518
sS'CharacterOffsetBegin'
p8519
S'2335'
p8520
stp8521
a(S'camp'
p8522
(dp8523
S'NamedEntityTag'
p8524
g118
sS'CharacterOffsetEnd'
p8525
S'2346'
p8526
sS'Lemma'
p8527
S'camp'
p8528
sS'PartOfSpeech'
p8529
S'NN'
p8530
sS'CharacterOffsetBegin'
p8531
S'2342'
p8532
stp8533
a(S'argues'
p8534
(dp8535
S'NamedEntityTag'
p8536
g118
sS'CharacterOffsetEnd'
p8537
S'2353'
p8538
sS'Lemma'
p8539
S'argue'
p8540
sS'PartOfSpeech'
p8541
S'VBZ'
p8542
sS'CharacterOffsetBegin'
p8543
S'2347'
p8544
stp8545
a(S'that'
p8546
(dp8547
S'NamedEntityTag'
p8548
g118
sS'CharacterOffsetEnd'
p8549
S'2358'
p8550
sS'Lemma'
p8551
S'that'
p8552
sS'PartOfSpeech'
p8553
S'IN'
p8554
sS'CharacterOffsetBegin'
p8555
S'2354'
p8556
stp8557
a(S'the'
p8558
(dp8559
S'NamedEntityTag'
p8560
g118
sS'CharacterOffsetEnd'
p8561
S'2362'
p8562
sS'Lemma'
p8563
S'the'
p8564
sS'PartOfSpeech'
p8565
S'DT'
p8566
sS'CharacterOffsetBegin'
p8567
S'2359'
p8568
stp8569
a(S'president'
p8570
(dp8571
S'NamedEntityTag'
p8572
g118
sS'CharacterOffsetEnd'
p8573
S'2372'
p8574
sS'Lemma'
p8575
S'president'
p8576
sS'PartOfSpeech'
p8577
S'NN'
p8578
sS'CharacterOffsetBegin'
p8579
S'2363'
p8580
stp8581
a(S'can'
p8582
(dp8583
S'NamedEntityTag'
p8584
g118
sS'CharacterOffsetEnd'
p8585
S'2376'
p8586
sS'Lemma'
p8587
S'can'
p8588
sS'PartOfSpeech'
p8589
S'MD'
p8590
sS'CharacterOffsetBegin'
p8591
S'2373'
p8592
stp8593
a(S'poll'
p8594
(dp8595
S'NamedEntityTag'
p8596
g118
sS'CharacterOffsetEnd'
p8597
S'2381'
p8598
sS'Lemma'
p8599
S'poll'
p8600
sS'PartOfSpeech'
p8601
S'VB'
p8602
sS'CharacterOffsetBegin'
p8603
S'2377'
p8604
stp8605
a(S'Parliament'
p8606
(dp8607
S'NamedEntityTag'
p8608
S'ORGANIZATION'
p8609
sS'CharacterOffsetEnd'
p8610
S'2392'
p8611
sS'Lemma'
p8612
S'Parliament'
p8613
sS'PartOfSpeech'
p8614
S'NNP'
p8615
sS'CharacterOffsetBegin'
p8616
S'2382'
p8617
stp8618
a(S'members'
p8619
(dp8620
S'NamedEntityTag'
p8621
g118
sS'CharacterOffsetEnd'
p8622
S'2400'
p8623
sS'Lemma'
p8624
S'member'
p8625
sS'PartOfSpeech'
p8626
S'NNS'
p8627
sS'CharacterOffsetBegin'
p8628
S'2393'
p8629
stp8630
a(S'on'
p8631
(dp8632
S'NamedEntityTag'
p8633
g118
sS'CharacterOffsetEnd'
p8634
S'2403'
p8635
sS'Lemma'
p8636
S'on'
p8637
sS'PartOfSpeech'
p8638
S'IN'
p8639
sS'CharacterOffsetBegin'
p8640
S'2401'
p8641
stp8642
a(S'their'
p8643
(dp8644
S'NamedEntityTag'
p8645
g118
sS'CharacterOffsetEnd'
p8646
S'2409'
p8647
sS'Lemma'
p8648
S'they'
p8649
sS'PartOfSpeech'
p8650
S'PRP$'
p8651
sS'CharacterOffsetBegin'
p8652
S'2404'
p8653
stp8654
a(S'choice'
p8655
(dp8656
S'NamedEntityTag'
p8657
g118
sS'CharacterOffsetEnd'
p8658
S'2416'
p8659
sS'Lemma'
p8660
S'choice'
p8661
sS'PartOfSpeech'
p8662
S'NN'
p8663
sS'CharacterOffsetBegin'
p8664
S'2410'
p8665
stp8666
a(S'for'
p8667
(dp8668
S'NamedEntityTag'
p8669
g118
sS'CharacterOffsetEnd'
p8670
S'2420'
p8671
sS'Lemma'
p8672
S'for'
p8673
sS'PartOfSpeech'
p8674
S'IN'
p8675
sS'CharacterOffsetBegin'
p8676
S'2417'
p8677
stp8678
a(S'prime'
p8679
(dp8680
S'NamedEntityTag'
p8681
g118
sS'CharacterOffsetEnd'
p8682
S'2426'
p8683
sS'Lemma'
p8684
S'prime'
p8685
sS'PartOfSpeech'
p8686
S'JJ'
p8687
sS'CharacterOffsetBegin'
p8688
S'2421'
p8689
stp8690
a(S'minister'
p8691
(dp8692
S'NamedEntityTag'
p8693
g118
sS'CharacterOffsetEnd'
p8694
S'2435'
p8695
sS'Lemma'
p8696
S'minister'
p8697
sS'PartOfSpeech'
p8698
S'NN'
p8699
sS'CharacterOffsetBegin'
p8700
S'2427'
p8701
stp8702
a(S'but'
p8703
(dp8704
S'NamedEntityTag'
p8705
g118
sS'CharacterOffsetEnd'
p8706
S'2439'
p8707
sS'Lemma'
p8708
S'but'
p8709
sS'PartOfSpeech'
p8710
S'CC'
p8711
sS'CharacterOffsetBegin'
p8712
S'2436'
p8713
stp8714
a(S'can'
p8715
(dp8716
S'NamedEntityTag'
p8717
g118
sS'CharacterOffsetEnd'
p8718
S'2443'
p8719
sS'Lemma'
p8720
S'can'
p8721
sS'PartOfSpeech'
p8722
S'MD'
p8723
sS'CharacterOffsetBegin'
p8724
S'2440'
p8725
stp8726
a(S'not'
p8727
(dp8728
S'NamedEntityTag'
p8729
g118
sS'CharacterOffsetEnd'
p8730
S'2446'
p8731
sS'Lemma'
p8732
S'not'
p8733
sS'PartOfSpeech'
p8734
S'RB'
p8735
sS'CharacterOffsetBegin'
p8736
S'2443'
p8737
stp8738
a(S'accept'
p8739
(dp8740
S'NamedEntityTag'
p8741
g118
sS'CharacterOffsetEnd'
p8742
S'2453'
p8743
sS'Lemma'
p8744
S'accept'
p8745
sS'PartOfSpeech'
p8746
S'VB'
p8747
sS'CharacterOffsetBegin'
p8748
S'2447'
p8749
stp8750
a(g1318
(dp8751
S'NamedEntityTag'
p8752
g118
sS'CharacterOffsetEnd'
p8753
S'2455'
p8754
sS'Lemma'
p8755
g1318
sS'PartOfSpeech'
p8756
S'DT'
p8757
sS'CharacterOffsetBegin'
p8758
S'2454'
p8759
stp8760
a(S'mandate'
p8761
(dp8762
S'NamedEntityTag'
p8763
g118
sS'CharacterOffsetEnd'
p8764
S'2463'
p8765
sS'Lemma'
p8766
S'mandate'
p8767
sS'PartOfSpeech'
p8768
S'NN'
p8769
sS'CharacterOffsetBegin'
p8770
S'2456'
p8771
stp8772
a(S'to'
p8773
(dp8774
S'NamedEntityTag'
p8775
g118
sS'CharacterOffsetEnd'
p8776
S'2466'
p8777
sS'Lemma'
p8778
S'to'
p8779
sS'PartOfSpeech'
p8780
S'TO'
p8781
sS'CharacterOffsetBegin'
p8782
S'2464'
p8783
stp8784
a(S'name'
p8785
(dp8786
S'NamedEntityTag'
p8787
g118
sS'CharacterOffsetEnd'
p8788
S'2471'
p8789
sS'Lemma'
p8790
S'name'
p8791
sS'PartOfSpeech'
p8792
S'VB'
p8793
sS'CharacterOffsetBegin'
p8794
S'2467'
p8795
stp8796
a(g1318
(dp8797
S'NamedEntityTag'
p8798
g118
sS'CharacterOffsetEnd'
p8799
S'2473'
p8800
sS'Lemma'
p8801
g1318
sS'PartOfSpeech'
p8802
S'DT'
p8803
sS'CharacterOffsetBegin'
p8804
S'2472'
p8805
stp8806
a(S'person'
p8807
(dp8808
S'NamedEntityTag'
p8809
g118
sS'CharacterOffsetEnd'
p8810
S'2480'
p8811
sS'Lemma'
p8812
S'person'
p8813
sS'PartOfSpeech'
p8814
S'NN'
p8815
sS'CharacterOffsetBegin'
p8816
S'2474'
p8817
stp8818
a(S'of'
p8819
(dp8820
S'NamedEntityTag'
p8821
g118
sS'CharacterOffsetEnd'
p8822
S'2483'
p8823
sS'Lemma'
p8824
S'of'
p8825
sS'PartOfSpeech'
p8826
S'IN'
p8827
sS'CharacterOffsetBegin'
p8828
S'2481'
p8829
stp8830
a(S'his'
p8831
(dp8832
S'NamedEntityTag'
p8833
g118
sS'CharacterOffsetEnd'
p8834
S'2487'
p8835
sS'Lemma'
p8836
S'he'
p8837
sS'PartOfSpeech'
p8838
S'PRP$'
p8839
sS'CharacterOffsetBegin'
p8840
S'2484'
p8841
stp8842
a(S'choice'
p8843
(dp8844
S'NamedEntityTag'
p8845
g118
sS'CharacterOffsetEnd'
p8846
S'2494'
p8847
sS'Lemma'
p8848
S'choice'
p8849
sS'PartOfSpeech'
p8850
S'NN'
p8851
sS'CharacterOffsetBegin'
p8852
S'2488'
p8853
stp8854
a(g530
(dp8855
S'NamedEntityTag'
p8856
g118
sS'CharacterOffsetEnd'
p8857
S'2495'
p8858
sS'Lemma'
p8859
g530
sS'PartOfSpeech'
p8860
g530
sS'CharacterOffsetBegin'
p8861
S'2494'
p8862
stp8863
asa(dp8864
g15
S'(ROOT (S (NP (NP (DT The) (NN dispute)) (, ,) (PP (IN in) (NP (NN fact))) (, ,)) (VP (VBZ appears) (S (VP (TO to) (VP (VB be) (NP (NP (DT the) (NN opening) (NN salvo)) (PP (IN of) (NP (NP (DT a) (NN struggle)) (PP (IN on) (SBAR (WHADVP (WRB how)) (S (NP (NNP Lebanon)) (VP (MD will) (VP (VB be) (VP (VBN governed) (PP (IN during) (NP (NNP Lahouds) (JJ six-year) (NN term)))))))))))))))) (. .)))'
p8865
sg17
S'The dispute, in fact, appears to be the opening salvo of a struggle on how Lebanon will be governed during Lahouds six-year term.'
p8866
sg19
(lp8867
(S'root'
p8868
S'ROOT'
p8869
S'appears'
p8870
tp8871
a(S'det'
p8872
S'dispute'
p8873
S'The'
p8874
tp8875
a(S'nsubj'
p8876
S'appears'
p8877
S'dispute'
p8878
tp8879
a(S'prep_in'
p8880
S'dispute'
p8881
S'fact'
p8882
tp8883
a(S'aux'
p8884
S'salvo'
p8885
S'to'
p8886
tp8887
a(S'cop'
p8888
S'salvo'
p8889
S'be'
p8890
tp8891
a(S'det'
p8892
S'salvo'
p8893
S'the'
p8894
tp8895
a(S'nn'
p8896
S'salvo'
p8897
S'opening'
p8898
tp8899
a(S'xcomp'
p8900
S'appears'
p8901
S'salvo'
p8902
tp8903
a(S'det'
p8904
S'struggle'
p8905
g1318
tp8906
a(S'prep_of'
p8907
S'salvo'
p8908
S'struggle'
p8909
tp8910
a(S'advmod'
p8911
S'governed'
p8912
S'how'
p8913
tp8914
a(S'nsubjpass'
p8915
S'governed'
p8916
S'Lebanon'
p8917
tp8918
a(S'aux'
p8919
S'governed'
p8920
S'will'
p8921
tp8922
a(S'auxpass'
p8923
S'governed'
p8924
S'be'
p8925
tp8926
a(S'prepc_on'
p8927
S'struggle'
p8928
S'governed'
p8929
tp8930
a(S'nn'
p8931
S'term'
p8932
S'Lahouds'
p8933
tp8934
a(S'amod'
p8935
S'term'
p8936
S'six-year'
p8937
tp8938
a(S'prep_during'
p8939
S'governed'
p8940
S'term'
p8941
tp8942
asg65
(lp8943
(g8868
S'ROOT-0'
p8944
S'appears-7'
p8945
tp8946
a(g8872
S'dispute-2'
p8947
S'The-1'
p8948
tp8949
a(g8876
S'appears-7'
p8950
S'dispute-2'
p8951
tp8952
a(g8880
S'dispute-2'
p8953
S'fact-5'
p8954
tp8955
a(g8884
S'salvo-12'
p8956
S'to-8'
p8957
tp8958
a(g8888
S'salvo-12'
p8959
S'be-9'
p8960
tp8961
a(g8892
S'salvo-12'
p8962
S'the-10'
p8963
tp8964
a(g8896
S'salvo-12'
p8965
S'opening-11'
p8966
tp8967
a(g8900
S'appears-7'
p8968
S'salvo-12'
p8969
tp8970
a(g8904
S'struggle-15'
p8971
S'a-14'
p8972
tp8973
a(g8907
S'salvo-12'
p8974
S'struggle-15'
p8975
tp8976
a(g8911
S'governed-21'
p8977
S'how-17'
p8978
tp8979
a(g8915
S'governed-21'
p8980
S'Lebanon-18'
p8981
tp8982
a(g8919
S'governed-21'
p8983
S'will-19'
p8984
tp8985
a(g8923
S'governed-21'
p8986
S'be-20'
p8987
tp8988
a(g8927
S'struggle-15'
p8989
S'governed-21'
p8990
tp8991
a(g8931
S'term-25'
p8992
S'Lahouds-23'
p8993
tp8994
a(g8935
S'term-25'
p8995
S'six-year-24'
p8996
tp8997
a(g8939
S'governed-21'
p8998
S'term-25'
p8999
tp9000
asg100
(lp9001
(S'The'
p9002
(dp9003
S'NamedEntityTag'
p9004
g118
sS'CharacterOffsetEnd'
p9005
S'2499'
p9006
sS'Lemma'
p9007
S'the'
p9008
sS'PartOfSpeech'
p9009
S'DT'
p9010
sS'CharacterOffsetBegin'
p9011
S'2496'
p9012
stp9013
a(S'dispute'
p9014
(dp9015
S'NamedEntityTag'
p9016
g118
sS'CharacterOffsetEnd'
p9017
S'2507'
p9018
sS'Lemma'
p9019
S'dispute'
p9020
sS'PartOfSpeech'
p9021
S'NN'
p9022
sS'CharacterOffsetBegin'
p9023
S'2500'
p9024
stp9025
a(g115
(dp9026
S'NamedEntityTag'
p9027
g118
sS'CharacterOffsetEnd'
p9028
S'2508'
p9029
sS'Lemma'
p9030
g115
sS'PartOfSpeech'
p9031
g115
sS'CharacterOffsetBegin'
p9032
S'2507'
p9033
stp9034
a(S'in'
p9035
(dp9036
S'NamedEntityTag'
p9037
g118
sS'CharacterOffsetEnd'
p9038
S'2511'
p9039
sS'Lemma'
p9040
S'in'
p9041
sS'PartOfSpeech'
p9042
S'IN'
p9043
sS'CharacterOffsetBegin'
p9044
S'2509'
p9045
stp9046
a(S'fact'
p9047
(dp9048
S'NamedEntityTag'
p9049
g118
sS'CharacterOffsetEnd'
p9050
S'2516'
p9051
sS'Lemma'
p9052
S'fact'
p9053
sS'PartOfSpeech'
p9054
S'NN'
p9055
sS'CharacterOffsetBegin'
p9056
S'2512'
p9057
stp9058
a(g115
(dp9059
S'NamedEntityTag'
p9060
g118
sS'CharacterOffsetEnd'
p9061
S'2517'
p9062
sS'Lemma'
p9063
g115
sS'PartOfSpeech'
p9064
g115
sS'CharacterOffsetBegin'
p9065
S'2516'
p9066
stp9067
a(S'appears'
p9068
(dp9069
S'NamedEntityTag'
p9070
g118
sS'CharacterOffsetEnd'
p9071
S'2525'
p9072
sS'Lemma'
p9073
S'appear'
p9074
sS'PartOfSpeech'
p9075
S'VBZ'
p9076
sS'CharacterOffsetBegin'
p9077
S'2518'
p9078
stp9079
a(S'to'
p9080
(dp9081
S'NamedEntityTag'
p9082
g118
sS'CharacterOffsetEnd'
p9083
S'2528'
p9084
sS'Lemma'
p9085
S'to'
p9086
sS'PartOfSpeech'
p9087
S'TO'
p9088
sS'CharacterOffsetBegin'
p9089
S'2526'
p9090
stp9091
a(S'be'
p9092
(dp9093
S'NamedEntityTag'
p9094
g118
sS'CharacterOffsetEnd'
p9095
S'2531'
p9096
sS'Lemma'
p9097
S'be'
p9098
sS'PartOfSpeech'
p9099
S'VB'
p9100
sS'CharacterOffsetBegin'
p9101
S'2529'
p9102
stp9103
a(S'the'
p9104
(dp9105
S'NamedEntityTag'
p9106
g118
sS'CharacterOffsetEnd'
p9107
S'2535'
p9108
sS'Lemma'
p9109
S'the'
p9110
sS'PartOfSpeech'
p9111
S'DT'
p9112
sS'CharacterOffsetBegin'
p9113
S'2532'
p9114
stp9115
a(S'opening'
p9116
(dp9117
S'NamedEntityTag'
p9118
g118
sS'CharacterOffsetEnd'
p9119
S'2543'
p9120
sS'Lemma'
p9121
S'opening'
p9122
sS'PartOfSpeech'
p9123
S'NN'
p9124
sS'CharacterOffsetBegin'
p9125
S'2536'
p9126
stp9127
a(S'salvo'
p9128
(dp9129
S'NamedEntityTag'
p9130
g118
sS'CharacterOffsetEnd'
p9131
S'2549'
p9132
sS'Lemma'
p9133
S'salvo'
p9134
sS'PartOfSpeech'
p9135
S'NN'
p9136
sS'CharacterOffsetBegin'
p9137
S'2544'
p9138
stp9139
a(S'of'
p9140
(dp9141
S'NamedEntityTag'
p9142
g118
sS'CharacterOffsetEnd'
p9143
S'2552'
p9144
sS'Lemma'
p9145
S'of'
p9146
sS'PartOfSpeech'
p9147
S'IN'
p9148
sS'CharacterOffsetBegin'
p9149
S'2550'
p9150
stp9151
a(g1318
(dp9152
S'NamedEntityTag'
p9153
g118
sS'CharacterOffsetEnd'
p9154
S'2554'
p9155
sS'Lemma'
p9156
g1318
sS'PartOfSpeech'
p9157
S'DT'
p9158
sS'CharacterOffsetBegin'
p9159
S'2553'
p9160
stp9161
a(S'struggle'
p9162
(dp9163
S'NamedEntityTag'
p9164
g118
sS'CharacterOffsetEnd'
p9165
S'2563'
p9166
sS'Lemma'
p9167
S'struggle'
p9168
sS'PartOfSpeech'
p9169
S'NN'
p9170
sS'CharacterOffsetBegin'
p9171
S'2555'
p9172
stp9173
a(S'on'
p9174
(dp9175
S'NamedEntityTag'
p9176
g118
sS'CharacterOffsetEnd'
p9177
S'2566'
p9178
sS'Lemma'
p9179
S'on'
p9180
sS'PartOfSpeech'
p9181
S'IN'
p9182
sS'CharacterOffsetBegin'
p9183
S'2564'
p9184
stp9185
a(S'how'
p9186
(dp9187
S'NamedEntityTag'
p9188
g118
sS'CharacterOffsetEnd'
p9189
S'2570'
p9190
sS'Lemma'
p9191
S'how'
p9192
sS'PartOfSpeech'
p9193
S'WRB'
p9194
sS'CharacterOffsetBegin'
p9195
S'2567'
p9196
stp9197
a(S'Lebanon'
p9198
(dp9199
S'NamedEntityTag'
p9200
S'LOCATION'
p9201
sS'CharacterOffsetEnd'
p9202
S'2578'
p9203
sS'Lemma'
p9204
S'Lebanon'
p9205
sS'PartOfSpeech'
p9206
S'NNP'
p9207
sS'CharacterOffsetBegin'
p9208
S'2571'
p9209
stp9210
a(S'will'
p9211
(dp9212
S'NamedEntityTag'
p9213
g118
sS'CharacterOffsetEnd'
p9214
S'2583'
p9215
sS'Lemma'
p9216
S'will'
p9217
sS'PartOfSpeech'
p9218
S'MD'
p9219
sS'CharacterOffsetBegin'
p9220
S'2579'
p9221
stp9222
a(S'be'
p9223
(dp9224
S'NamedEntityTag'
p9225
g118
sS'CharacterOffsetEnd'
p9226
S'2586'
p9227
sS'Lemma'
p9228
S'be'
p9229
sS'PartOfSpeech'
p9230
S'VB'
p9231
sS'CharacterOffsetBegin'
p9232
S'2584'
p9233
stp9234
a(S'governed'
p9235
(dp9236
S'NamedEntityTag'
p9237
g118
sS'CharacterOffsetEnd'
p9238
S'2595'
p9239
sS'Lemma'
p9240
S'govern'
p9241
sS'PartOfSpeech'
p9242
S'VBN'
p9243
sS'CharacterOffsetBegin'
p9244
S'2587'
p9245
stp9246
a(S'during'
p9247
(dp9248
S'NamedEntityTag'
p9249
g118
sS'CharacterOffsetEnd'
p9250
S'2602'
p9251
sS'Lemma'
p9252
S'during'
p9253
sS'PartOfSpeech'
p9254
S'IN'
p9255
sS'CharacterOffsetBegin'
p9256
S'2596'
p9257
stp9258
a(S'Lahouds'
p9259
(dp9260
S'NamedEntityTag'
p9261
S'LOCATION'
p9262
sS'CharacterOffsetEnd'
p9263
S'2610'
p9264
sS'Lemma'
p9265
S'Lahouds'
p9266
sS'PartOfSpeech'
p9267
S'NNP'
p9268
sS'CharacterOffsetBegin'
p9269
S'2603'
p9270
stp9271
a(S'six-year'
p9272
(dp9273
S'NormalizedNamedEntityTag'
p9274
S'P6Y'
p9275
sS'Timex'
p9276
S'<TIMEX3 tid="t9" type="DURATION" value="P6Y">six-year</TIMEX3>'
p9277
sS'Lemma'
p9278
S'six-year'
p9279
sS'CharacterOffsetEnd'
p9280
S'2619'
p9281
sS'PartOfSpeech'
p9282
S'JJ'
p9283
sS'CharacterOffsetBegin'
p9284
S'2611'
p9285
sS'NamedEntityTag'
p9286
S'DURATION'
p9287
stp9288
a(S'term'
p9289
(dp9290
S'NamedEntityTag'
p9291
g118
sS'CharacterOffsetEnd'
p9292
S'2624'
p9293
sS'Lemma'
p9294
S'term'
p9295
sS'PartOfSpeech'
p9296
S'NN'
p9297
sS'CharacterOffsetBegin'
p9298
S'2620'
p9299
stp9300
a(g530
(dp9301
S'NamedEntityTag'
p9302
g118
sS'CharacterOffsetEnd'
p9303
S'2625'
p9304
sS'Lemma'
p9305
g530
sS'PartOfSpeech'
p9306
g530
sS'CharacterOffsetBegin'
p9307
S'2624'
p9308
stp9309
asa(dp9310
g15
S'(ROOT (S (PP (IN Toward) (NP (NP (DT the) (NN end)) (PP (IN of) (NP (NP (JJ former) (NNP President) (NNP Elias) (NNP Hrawis)) (NP-TMP (CD nine) (NNS years)) (PP (IN in) (NP (NN office))))))) (, ,) (NP (NNP Hariri)) (ADVP (RB virtually)) (VP (VBD had) (NP (NP (DT a) (JJ free) (NN hand)) (PP (IN in) (S (VP (VBG running) (NP (DT the) (NN country))))))) (. .)))'
p9311
sg17
S'Toward the end of former President Elias Hrawis nine years in office, Hariri virtually had a free hand in running the country.'
p9312
sg19
(lp9313
(S'root'
p9314
S'ROOT'
p9315
S'had'
p9316
tp9317
a(S'det'
p9318
S'end'
p9319
S'the'
p9320
tp9321
a(S'prep_toward'
p9322
S'had'
p9323
S'end'
p9324
tp9325
a(S'amod'
p9326
S'Hrawis'
p9327
S'former'
p9328
tp9329
a(S'nn'
p9330
S'Hrawis'
p9331
S'President'
p9332
tp9333
a(S'nn'
p9334
S'Hrawis'
p9335
S'Elias'
p9336
tp9337
a(S'prep_of'
p9338
S'end'
p9339
S'Hrawis'
p9340
tp9341
a(S'num'
p9342
S'years'
p9343
S'nine'
p9344
tp9345
a(S'tmod'
p9346
S'Hrawis'
p9347
S'years'
p9348
tp9349
a(S'prep_in'
p9350
S'Hrawis'
p9351
S'office'
p9352
tp9353
a(S'nsubj'
p9354
S'had'
p9355
S'Hariri'
p9356
tp9357
a(S'advmod'
p9358
S'had'
p9359
S'virtually'
p9360
tp9361
a(S'det'
p9362
S'hand'
p9363
g1318
tp9364
a(S'amod'
p9365
S'hand'
p9366
S'free'
p9367
tp9368
a(S'dobj'
p9369
S'had'
p9370
S'hand'
p9371
tp9372
a(S'prepc_in'
p9373
S'hand'
p9374
S'running'
p9375
tp9376
a(S'det'
p9377
S'country'
p9378
S'the'
p9379
tp9380
a(S'dobj'
p9381
S'running'
p9382
S'country'
p9383
tp9384
asg65
(lp9385
(g9314
S'ROOT-0'
p9386
S'had-16'
p9387
tp9388
a(g9318
S'end-3'
p9389
S'the-2'
p9390
tp9391
a(g9322
S'had-16'
p9392
S'end-3'
p9393
tp9394
a(g9326
S'Hrawis-8'
p9395
S'former-5'
p9396
tp9397
a(g9330
S'Hrawis-8'
p9398
S'President-6'
p9399
tp9400
a(g9334
S'Hrawis-8'
p9401
S'Elias-7'
p9402
tp9403
a(g9338
S'end-3'
p9404
S'Hrawis-8'
p9405
tp9406
a(g9342
S'years-10'
p9407
S'nine-9'
p9408
tp9409
a(g9346
S'Hrawis-8'
p9410
S'years-10'
p9411
tp9412
a(g9350
S'Hrawis-8'
p9413
S'office-12'
p9414
tp9415
a(g9354
S'had-16'
p9416
S'Hariri-14'
p9417
tp9418
a(g9358
S'had-16'
p9419
S'virtually-15'
p9420
tp9421
a(g9362
S'hand-19'
p9422
S'a-17'
p9423
tp9424
a(g9365
S'hand-19'
p9425
S'free-18'
p9426
tp9427
a(g9369
S'had-16'
p9428
S'hand-19'
p9429
tp9430
a(g9373
S'hand-19'
p9431
S'running-21'
p9432
tp9433
a(g9377
S'country-23'
p9434
S'the-22'
p9435
tp9436
a(g9381
S'running-21'
p9437
S'country-23'
p9438
tp9439
asg100
(lp9440
(S'Toward'
p9441
(dp9442
S'NamedEntityTag'
p9443
g118
sS'CharacterOffsetEnd'
p9444
S'2632'
p9445
sS'Lemma'
p9446
S'toward'
p9447
sS'PartOfSpeech'
p9448
S'IN'
p9449
sS'CharacterOffsetBegin'
p9450
S'2626'
p9451
stp9452
a(S'the'
p9453
(dp9454
S'NamedEntityTag'
p9455
g118
sS'CharacterOffsetEnd'
p9456
S'2636'
p9457
sS'Lemma'
p9458
S'the'
p9459
sS'PartOfSpeech'
p9460
S'DT'
p9461
sS'CharacterOffsetBegin'
p9462
S'2633'
p9463
stp9464
a(S'end'
p9465
(dp9466
S'NamedEntityTag'
p9467
g118
sS'CharacterOffsetEnd'
p9468
S'2640'
p9469
sS'Lemma'
p9470
S'end'
p9471
sS'PartOfSpeech'
p9472
S'NN'
p9473
sS'CharacterOffsetBegin'
p9474
S'2637'
p9475
stp9476
a(S'of'
p9477
(dp9478
S'NamedEntityTag'
p9479
g118
sS'CharacterOffsetEnd'
p9480
S'2643'
p9481
sS'Lemma'
p9482
S'of'
p9483
sS'PartOfSpeech'
p9484
S'IN'
p9485
sS'CharacterOffsetBegin'
p9486
S'2641'
p9487
stp9488
a(S'former'
p9489
(dp9490
S'NamedEntityTag'
p9491
g118
sS'CharacterOffsetEnd'
p9492
S'2650'
p9493
sS'Lemma'
p9494
S'former'
p9495
sS'PartOfSpeech'
p9496
S'JJ'
p9497
sS'CharacterOffsetBegin'
p9498
S'2644'
p9499
stp9500
a(S'President'
p9501
(dp9502
S'NamedEntityTag'
p9503
g118
sS'CharacterOffsetEnd'
p9504
S'2660'
p9505
sS'Lemma'
p9506
S'President'
p9507
sS'PartOfSpeech'
p9508
S'NNP'
p9509
sS'CharacterOffsetBegin'
p9510
S'2651'
p9511
stp9512
a(S'Elias'
p9513
(dp9514
S'NamedEntityTag'
p9515
S'PERSON'
p9516
sS'CharacterOffsetEnd'
p9517
S'2666'
p9518
sS'Lemma'
p9519
S'Elias'
p9520
sS'PartOfSpeech'
p9521
S'NNP'
p9522
sS'CharacterOffsetBegin'
p9523
S'2661'
p9524
stp9525
a(S'Hrawis'
p9526
(dp9527
S'NamedEntityTag'
p9528
S'PERSON'
p9529
sS'CharacterOffsetEnd'
p9530
S'2673'
p9531
sS'Lemma'
p9532
S'Hrawis'
p9533
sS'PartOfSpeech'
p9534
S'NNP'
p9535
sS'CharacterOffsetBegin'
p9536
S'2667'
p9537
stp9538
a(S'nine'
p9539
(dp9540
S'NormalizedNamedEntityTag'
p9541
S'P9Y'
p9542
sS'Timex'
p9543
S'<TIMEX3 tid="t10" type="DURATION" value="P9Y">nine years</TIMEX3>'
p9544
sS'Lemma'
p9545
S'nine'
p9546
sS'CharacterOffsetEnd'
p9547
S'2678'
p9548
sS'PartOfSpeech'
p9549
S'CD'
p9550
sS'CharacterOffsetBegin'
p9551
S'2674'
p9552
sS'NamedEntityTag'
p9553
S'DURATION'
p9554
stp9555
a(S'years'
p9556
(dp9557
S'NormalizedNamedEntityTag'
p9558
S'P9Y'
p9559
sS'Timex'
p9560
S'<TIMEX3 tid="t10" type="DURATION" value="P9Y">nine years</TIMEX3>'
p9561
sS'Lemma'
p9562
S'year'
p9563
sS'CharacterOffsetEnd'
p9564
S'2684'
p9565
sS'PartOfSpeech'
p9566
S'NNS'
p9567
sS'CharacterOffsetBegin'
p9568
S'2679'
p9569
sS'NamedEntityTag'
p9570
S'DURATION'
p9571
stp9572
a(S'in'
p9573
(dp9574
S'NamedEntityTag'
p9575
g118
sS'CharacterOffsetEnd'
p9576
S'2687'
p9577
sS'Lemma'
p9578
S'in'
p9579
sS'PartOfSpeech'
p9580
S'IN'
p9581
sS'CharacterOffsetBegin'
p9582
S'2685'
p9583
stp9584
a(S'office'
p9585
(dp9586
S'NamedEntityTag'
p9587
g118
sS'CharacterOffsetEnd'
p9588
S'2694'
p9589
sS'Lemma'
p9590
S'office'
p9591
sS'PartOfSpeech'
p9592
S'NN'
p9593
sS'CharacterOffsetBegin'
p9594
S'2688'
p9595
stp9596
a(g115
(dp9597
S'NamedEntityTag'
p9598
g118
sS'CharacterOffsetEnd'
p9599
S'2695'
p9600
sS'Lemma'
p9601
g115
sS'PartOfSpeech'
p9602
g115
sS'CharacterOffsetBegin'
p9603
S'2694'
p9604
stp9605
a(S'Hariri'
p9606
(dp9607
S'NamedEntityTag'
p9608
S'PERSON'
p9609
sS'CharacterOffsetEnd'
p9610
S'2702'
p9611
sS'Lemma'
p9612
S'Hariri'
p9613
sS'PartOfSpeech'
p9614
S'NNP'
p9615
sS'CharacterOffsetBegin'
p9616
S'2696'
p9617
stp9618
a(S'virtually'
p9619
(dp9620
S'NamedEntityTag'
p9621
g118
sS'CharacterOffsetEnd'
p9622
S'2712'
p9623
sS'Lemma'
p9624
S'virtually'
p9625
sS'PartOfSpeech'
p9626
S'RB'
p9627
sS'CharacterOffsetBegin'
p9628
S'2703'
p9629
stp9630
a(S'had'
p9631
(dp9632
S'NamedEntityTag'
p9633
g118
sS'CharacterOffsetEnd'
p9634
S'2716'
p9635
sS'Lemma'
p9636
S'have'
p9637
sS'PartOfSpeech'
p9638
S'VBD'
p9639
sS'CharacterOffsetBegin'
p9640
S'2713'
p9641
stp9642
a(g1318
(dp9643
S'NamedEntityTag'
p9644
g118
sS'CharacterOffsetEnd'
p9645
S'2718'
p9646
sS'Lemma'
p9647
g1318
sS'PartOfSpeech'
p9648
S'DT'
p9649
sS'CharacterOffsetBegin'
p9650
S'2717'
p9651
stp9652
a(S'free'
p9653
(dp9654
S'NamedEntityTag'
p9655
g118
sS'CharacterOffsetEnd'
p9656
S'2723'
p9657
sS'Lemma'
p9658
S'free'
p9659
sS'PartOfSpeech'
p9660
S'JJ'
p9661
sS'CharacterOffsetBegin'
p9662
S'2719'
p9663
stp9664
a(S'hand'
p9665
(dp9666
S'NamedEntityTag'
p9667
g118
sS'CharacterOffsetEnd'
p9668
S'2728'
p9669
sS'Lemma'
p9670
S'hand'
p9671
sS'PartOfSpeech'
p9672
S'NN'
p9673
sS'CharacterOffsetBegin'
p9674
S'2724'
p9675
stp9676
a(S'in'
p9677
(dp9678
S'NamedEntityTag'
p9679
g118
sS'CharacterOffsetEnd'
p9680
S'2731'
p9681
sS'Lemma'
p9682
S'in'
p9683
sS'PartOfSpeech'
p9684
S'IN'
p9685
sS'CharacterOffsetBegin'
p9686
S'2729'
p9687
stp9688
a(S'running'
p9689
(dp9690
S'NamedEntityTag'
p9691
g118
sS'CharacterOffsetEnd'
p9692
S'2739'
p9693
sS'Lemma'
p9694
S'run'
p9695
sS'PartOfSpeech'
p9696
S'VBG'
p9697
sS'CharacterOffsetBegin'
p9698
S'2732'
p9699
stp9700
a(S'the'
p9701
(dp9702
S'NamedEntityTag'
p9703
g118
sS'CharacterOffsetEnd'
p9704
S'2743'
p9705
sS'Lemma'
p9706
S'the'
p9707
sS'PartOfSpeech'
p9708
S'DT'
p9709
sS'CharacterOffsetBegin'
p9710
S'2740'
p9711
stp9712
a(S'country'
p9713
(dp9714
S'NamedEntityTag'
p9715
g118
sS'CharacterOffsetEnd'
p9716
S'2751'
p9717
sS'Lemma'
p9718
S'country'
p9719
sS'PartOfSpeech'
p9720
S'NN'
p9721
sS'CharacterOffsetBegin'
p9722
S'2744'
p9723
stp9724
a(g530
(dp9725
S'NamedEntityTag'
p9726
g118
sS'CharacterOffsetEnd'
p9727
S'2752'
p9728
sS'Lemma'
p9729
g530
sS'PartOfSpeech'
p9730
g530
sS'CharacterOffsetBegin'
p9731
S'2751'
p9732
stp9733
asass.